
build/main.elf:     file format elf32-littlearm


Disassembly of section .init:

00008000 <__ram_start>:
    8000:	e59ff018 	ldr	pc, [pc, #24]	; 8020 <reset_handler>
    8004:	e59ff018 	ldr	pc, [pc, #24]	; 8024 <undefined_handler>
    8008:	e59ff018 	ldr	pc, [pc, #24]	; 8028 <swi_handler>
    800c:	e59ff018 	ldr	pc, [pc, #24]	; 802c <prefetch_handler>
    8010:	e59ff018 	ldr	pc, [pc, #24]	; 8030 <data_handler>
    8014:	e59ff018 	ldr	pc, [pc, #24]	; 8034 <unused_handler>
    8018:	e59ff018 	ldr	pc, [pc, #24]	; 8038 <irq_handler>
    801c:	e59ff018 	ldr	pc, [pc, #24]	; 803c <fiq_handler>

00008020 <reset_handler>:
    8020:	00008040 	andeq	r8, r0, r0, asr #32

00008024 <undefined_handler>:
    8024:	00008100 	andeq	r8, r0, r0, lsl #2

00008028 <swi_handler>:
    8028:	00008100 	andeq	r8, r0, r0, lsl #2

0000802c <prefetch_handler>:
    802c:	00008100 	andeq	r8, r0, r0, lsl #2

00008030 <data_handler>:
    8030:	00008100 	andeq	r8, r0, r0, lsl #2

00008034 <unused_handler>:
    8034:	00008100 	andeq	r8, r0, r0, lsl #2

00008038 <irq_handler>:
    8038:	000080d0 	ldrdeq	r8, [r0], -r0

0000803c <fiq_handler>:
    803c:	000080d4 	ldrdeq	r8, [r0], -r4

00008040 <reset>:
    8040:	e59f1090 	ldr	r1, [pc, #144]	; 80d8 <fiq+0x4>
    8044:	e3a02000 	mov	r2, #0
    8048:	e59f308c 	ldr	r3, [pc, #140]	; 80dc <fiq+0x8>
    804c:	e1520003 	cmp	r2, r3
    8050:	34910004 	ldrcc	r0, [r1], #4
    8054:	34820004 	strcc	r0, [r2], #4
    8058:	3afffffb 	bcc	804c <reset+0xc>
    805c:	e321f0d2 	msr	CPSR_c, #210	; 0xd2
    8060:	e59f0078 	ldr	r0, [pc, #120]	; 80e0 <fiq+0xc>
    8064:	e1a0d000 	mov	sp, r0
    8068:	e321f0d1 	msr	CPSR_c, #209	; 0xd1
    806c:	e59f0070 	ldr	r0, [pc, #112]	; 80e4 <fiq+0x10>
    8070:	e1a0d000 	mov	sp, r0
    8074:	e321f0d3 	msr	CPSR_c, #211	; 0xd3
    8078:	e59f0068 	ldr	r0, [pc, #104]	; 80e8 <fiq+0x14>
    807c:	e1a0d000 	mov	sp, r0
    8080:	ee110f10 	mrc	15, 0, r0, cr1, cr0, {0}
    8084:	e3800004 	orr	r0, r0, #4
    8088:	e3800b02 	orr	r0, r0, #2048	; 0x800
    808c:	e3800a01 	orr	r0, r0, #4096	; 0x1000
    8090:	ee010f10 	mcr	15, 0, r0, cr1, cr0, {0}
    8094:	ee110f50 	mrc	15, 0, r0, cr1, cr0, {2}
    8098:	e3800603 	orr	r0, r0, #3145728	; 0x300000
    809c:	e3800503 	orr	r0, r0, #12582912	; 0xc00000
    80a0:	ee010f50 	mcr	15, 0, r0, cr1, cr0, {2}
    80a4:	e3a00101 	mov	r0, #1073741824	; 0x40000000
    80a8:	eee80a10 	vmsr	fpexc, r0
    80ac:	e3a00000 	mov	r0, #0
    80b0:	e59f1034 	ldr	r1, [pc, #52]	; 80ec <fiq+0x18>
    80b4:	e59f2034 	ldr	r2, [pc, #52]	; 80f0 <fiq+0x1c>
    80b8:	e1510002 	cmp	r1, r2
    80bc:	34810004 	strcc	r0, [r1], #4
    80c0:	3afffffc 	bcc	80b8 <reset+0x78>
    80c4:	eb000e38 	bl	b9ac <notmain>

000080c8 <halt>:
    80c8:	e320f002 	wfe
    80cc:	eafffffd 	b	80c8 <halt>

000080d0 <irq>:
    80d0:	ea000201 	b	88dc <c_irq_handler>

000080d4 <fiq>:
    80d4:	ea0000f4 	b	84ac <c_fiq_handler>
    80d8:	00008000 	andeq	r8, r0, r0
    80dc:	00008020 	andeq	r8, r0, r0, lsr #32
    80e0:	00022ad8 	ldrdeq	r2, [r2], -r8
    80e4:	000226d8 	ldrdeq	r2, [r2], -r8
    80e8:	00022ed8 	ldrdeq	r2, [r2], -r8
    80ec:	0001e9e1 	andeq	lr, r1, r1, ror #19
    80f0:	00021ad8 	ldrdeq	r1, [r2], -r8

Disassembly of section .text:

00008100 <hang>:
    8100:	eafffffe 	b	8100 <hang>

00008104 <__enable_irq>:
    8104:	e10f0000 	mrs	r0, CPSR
    8108:	e3c00080 	bic	r0, r0, #128	; 0x80
    810c:	e121f000 	msr	CPSR_c, r0
    8110:	e12fff1e 	bx	lr

00008114 <__disable_irq>:
    8114:	e10f1000 	mrs	r1, CPSR
    8118:	e3811080 	orr	r1, r1, #128	; 0x80
    811c:	e121f001 	msr	CPSR_c, r1
    8120:	e12fff1e 	bx	lr

00008124 <__enable_fiq>:
    8124:	e10f0000 	mrs	r0, CPSR
    8128:	e3c00040 	bic	r0, r0, #64	; 0x40
    812c:	e121f000 	msr	CPSR_c, r0
    8130:	e12fff1e 	bx	lr

00008134 <__disable_fiq>:
    8134:	e10f1000 	mrs	r1, CPSR
    8138:	e3811040 	orr	r1, r1, #64	; 0x40
    813c:	e121f001 	msr	CPSR_c, r1
    8140:	e12fff1e 	bx	lr

00008144 <memory_barrier>:
    8144:	e3a00000 	mov	r0, #0
    8148:	ee070fba 	mcr	15, 0, r0, cr7, cr10, {5}
    814c:	e12fff1e 	bx	lr

00008150 <dmx_get_output_period>:
    8150:	e59f3004 	ldr	r3, [pc, #4]	; 815c <dmx_get_output_period+0xc>
    8154:	e5930000 	ldr	r0, [r3]
    8158:	e12fff1e 	bx	lr
    815c:	0001e9a4 	andeq	lr, r1, r4, lsr #19

00008160 <dmx_set_output_period>:
    8160:	e59f306c 	ldr	r3, [pc, #108]	; 81d4 <dmx_set_output_period+0x74>
    8164:	e3500000 	cmp	r0, #0
    8168:	e5932004 	ldr	r2, [r3, #4]
    816c:	e5931008 	ldr	r1, [r3, #8]
    8170:	e1d3c0bc 	ldrh	ip, [r3, #12]
    8174:	e0821001 	add	r1, r2, r1
    8178:	e3a0202c 	mov	r2, #44	; 0x2c
    817c:	e0221c92 	mla	r2, r2, ip, r1
    8180:	0a00000a 	beq	81b0 <dmx_set_output_period+0x50>
    8184:	e1520000 	cmp	r2, r0
    8188:	9a000003 	bls	819c <dmx_set_output_period+0x3c>
    818c:	e59f1044 	ldr	r1, [pc, #68]	; 81d8 <dmx_set_output_period+0x78>
    8190:	e2820004 	add	r0, r2, #4
    8194:	e1500001 	cmp	r0, r1
    8198:	31a00001 	movcc	r0, r1
    819c:	e59f1038 	ldr	r1, [pc, #56]	; 81dc <dmx_set_output_period+0x7c>
    81a0:	e3a0c000 	mov	ip, #0
    81a4:	e5830000 	str	r0, [r3]
    81a8:	e5c1c000 	strb	ip, [r1]
    81ac:	e12fff1e 	bx	lr
    81b0:	e59fc020 	ldr	ip, [pc, #32]	; 81d8 <dmx_set_output_period+0x78>
    81b4:	e59f1020 	ldr	r1, [pc, #32]	; 81dc <dmx_set_output_period+0x7c>
    81b8:	e2822004 	add	r2, r2, #4
    81bc:	e3a00001 	mov	r0, #1
    81c0:	e152000c 	cmp	r2, ip
    81c4:	25832000 	strcs	r2, [r3]
    81c8:	3583c000 	strcc	ip, [r3]
    81cc:	e5c10000 	strb	r0, [r1]
    81d0:	e12fff1e 	bx	lr
    81d4:	0001e9a4 	andeq	lr, r1, r4, lsr #19
    81d8:	000004b4 			; <UNDEFINED> instruction: 0x000004b4
    81dc:	0001f270 	andeq	pc, r1, r0, ror r2	; <UNPREDICTABLE>

000081e0 <dmx_get_send_data_length>:
    81e0:	e59f3004 	ldr	r3, [pc, #4]	; 81ec <dmx_get_send_data_length+0xc>
    81e4:	e1d300bc 	ldrh	r0, [r3, #12]
    81e8:	e12fff1e 	bx	lr
    81ec:	0001e9a4 	andeq	lr, r1, r4, lsr #19

000081f0 <dmx_set_send_data_length>:
    81f0:	e59f2048 	ldr	r2, [pc, #72]	; 8240 <dmx_set_send_data_length+0x50>
    81f4:	e59f3048 	ldr	r3, [pc, #72]	; 8244 <dmx_set_send_data_length+0x54>
    81f8:	e5d21000 	ldrb	r1, [r2]
    81fc:	e52d4004 	push	{r4}		; (str r4, [sp, #-4]!)
    8200:	e3510000 	cmp	r1, #0
    8204:	e1c300bc 	strh	r0, [r3, #12]
    8208:	0a00000a 	beq	8238 <dmx_set_send_data_length+0x48>
    820c:	e9930012 	ldmib	r3, {r1, r4}
    8210:	e0841001 	add	r1, r4, r1
    8214:	e3a0c02c 	mov	ip, #44	; 0x2c
    8218:	e2811004 	add	r1, r1, #4
    821c:	e020109c 	mla	r0, ip, r0, r1
    8220:	e59fc020 	ldr	ip, [pc, #32]	; 8248 <dmx_set_send_data_length+0x58>
    8224:	e3a01001 	mov	r1, #1
    8228:	e150000c 	cmp	r0, ip
    822c:	25830000 	strcs	r0, [r3]
    8230:	3583c000 	strcc	ip, [r3]
    8234:	e5c21000 	strb	r1, [r2]
    8238:	e49d4004 	pop	{r4}		; (ldr r4, [sp], #4)
    823c:	e12fff1e 	bx	lr
    8240:	0001f270 	andeq	pc, r1, r0, ror r2	; <UNPREDICTABLE>
    8244:	0001e9a4 	andeq	lr, r1, r4, lsr #19
    8248:	000004b4 			; <UNDEFINED> instruction: 0x000004b4

0000824c <dmx_get_statistics>:
    824c:	e59f0000 	ldr	r0, [pc]	; 8254 <dmx_get_statistics+0x8>
    8250:	e12fff1e 	bx	lr
    8254:	0001f274 	andeq	pc, r1, r4, ror r2	; <UNPREDICTABLE>

00008258 <rdm_get_available>:
    8258:	e59f3024 	ldr	r3, [pc, #36]	; 8284 <rdm_get_available+0x2c>
    825c:	e1d321b8 	ldrh	r2, [r3, #24]
    8260:	e1d311ba 	ldrh	r1, [r3, #26]
    8264:	e1510002 	cmp	r1, r2
    8268:	12821001 	addne	r1, r2, #1
    826c:	1283001c 	addne	r0, r3, #28
    8270:	1201100f 	andne	r1, r1, #15
    8274:	10800482 	addne	r0, r0, r2, lsl #9
    8278:	11c311b8 	strhne	r1, [r3, #24]
    827c:	03a00000 	moveq	r0, #0
    8280:	e12fff1e 	bx	lr
    8284:	0001f270 	andeq	pc, r1, r0, ror r2	; <UNPREDICTABLE>

00008288 <rdm_get_current_data>:
    8288:	e59f300c 	ldr	r3, [pc, #12]	; 829c <rdm_get_current_data+0x14>
    828c:	e1d301b8 	ldrh	r0, [r3, #24]
    8290:	e283301c 	add	r3, r3, #28
    8294:	e0830480 	add	r0, r3, r0, lsl #9
    8298:	e12fff1e 	bx	lr
    829c:	0001f270 	andeq	pc, r1, r0, ror r2	; <UNPREDICTABLE>

000082a0 <dmx_get_available>:
    82a0:	e59f3004 	ldr	r3, [pc, #4]	; 82ac <dmx_get_available+0xc>
    82a4:	e5d30024 	ldrb	r0, [r3, #36]	; 0x24
    82a8:	e12fff1e 	bx	lr
    82ac:	00021268 	andeq	r1, r2, r8, ror #4

000082b0 <dmx_set_available_false>:
    82b0:	e59f3008 	ldr	r3, [pc, #8]	; 82c0 <dmx_set_available_false+0x10>
    82b4:	e3a02000 	mov	r2, #0
    82b8:	e5c32024 	strb	r2, [r3, #36]	; 0x24
    82bc:	e12fff1e 	bx	lr
    82c0:	00021268 	andeq	r1, r2, r8, ror #4

000082c4 <dmx_is_data_changed>:
    82c4:	e59f30a0 	ldr	r3, [pc, #160]	; 836c <dmx_is_data_changed+0xa8>
    82c8:	e59f00a0 	ldr	r0, [pc, #160]	; 8370 <dmx_is_data_changed+0xac>
    82cc:	e5932008 	ldr	r2, [r3, #8]
    82d0:	e590322c 	ldr	r3, [r0, #556]	; 0x22c
    82d4:	e52d4004 	push	{r4}		; (str r4, [sp, #-4]!)
    82d8:	e1520003 	cmp	r2, r3
    82dc:	0a000015 	beq	8338 <dmx_is_data_changed+0x74>
    82e0:	e59f308c 	ldr	r3, [pc, #140]	; 8374 <dmx_is_data_changed+0xb0>
    82e4:	e580222c 	str	r2, [r0, #556]	; 0x22c
    82e8:	e5d3c001 	ldrb	ip, [r3, #1]
    82ec:	e5d32003 	ldrb	r2, [r3, #3]
    82f0:	e5d31002 	ldrb	r1, [r3, #2]
    82f4:	e5c0202b 	strb	r2, [r0, #43]	; 0x2b
    82f8:	e1a04003 	mov	r4, r3
    82fc:	e5c0c029 	strb	ip, [r0, #41]	; 0x29
    8300:	e5c0102a 	strb	r1, [r0, #42]	; 0x2a
    8304:	e1a02003 	mov	r2, r3
    8308:	e280302c 	add	r3, r0, #44	; 0x2c
    830c:	e2800f8a 	add	r0, r0, #552	; 0x228
    8310:	e5b21004 	ldr	r1, [r2, #4]!
    8314:	e59fc054 	ldr	ip, [pc, #84]	; 8370 <dmx_is_data_changed+0xac>
    8318:	e4831004 	str	r1, [r3], #4
    831c:	e1530000 	cmp	r3, r0
    8320:	1afffffa 	bne	8310 <dmx_is_data_changed+0x4c>
    8324:	e5d43200 	ldrb	r3, [r4, #512]	; 0x200
    8328:	e3a00001 	mov	r0, #1
    832c:	e5cc3228 	strb	r3, [ip, #552]	; 0x228
    8330:	e49d4004 	pop	{r4}		; (ldr r4, [sp], #4)
    8334:	e12fff1e 	bx	lr
    8338:	e59f1034 	ldr	r1, [pc, #52]	; 8374 <dmx_is_data_changed+0xb0>
    833c:	e2803028 	add	r3, r0, #40	; 0x28
    8340:	e2804f8a 	add	r4, r0, #552	; 0x228
    8344:	e3a00000 	mov	r0, #0
    8348:	e5f3c001 	ldrb	ip, [r3, #1]!
    834c:	e5f12001 	ldrb	r2, [r1, #1]!
    8350:	e15c0002 	cmp	ip, r2
    8354:	15c32000 	strbne	r2, [r3]
    8358:	13a00001 	movne	r0, #1
    835c:	e1530004 	cmp	r3, r4
    8360:	1afffff8 	bne	8348 <dmx_is_data_changed+0x84>
    8364:	e49d4004 	pop	{r4}		; (ldr r4, [sp], #4)
    8368:	e12fff1e 	bx	lr
    836c:	0001f270 	andeq	pc, r1, r0, ror r2	; <UNPREDICTABLE>
    8370:	00021268 	andeq	r1, r2, r8, ror #4
    8374:	000218cc 	andeq	r1, r2, ip, asr #17

00008378 <dmx_get_port_direction>:
    8378:	e59f3004 	ldr	r3, [pc, #4]	; 8384 <dmx_get_port_direction+0xc>
    837c:	e5d3000e 	ldrb	r0, [r3, #14]
    8380:	e12fff1e 	bx	lr
    8384:	0001e9a4 	andeq	lr, r1, r4, lsr #19

00008388 <rdm_get_data_receive_end>:
    8388:	e59f3004 	ldr	r3, [pc, #4]	; 8394 <rdm_get_data_receive_end+0xc>
    838c:	e5930230 	ldr	r0, [r3, #560]	; 0x230
    8390:	e12fff1e 	bx	lr
    8394:	00021268 	andeq	r1, r2, r8, ror #4

00008398 <dmx_get_output_break_time>:
    8398:	e59f3004 	ldr	r3, [pc, #4]	; 83a4 <dmx_get_output_break_time+0xc>
    839c:	e5930008 	ldr	r0, [r3, #8]
    83a0:	e12fff1e 	bx	lr
    83a4:	0001e9a4 	andeq	lr, r1, r4, lsr #19

000083a8 <dmx_set_output_break_time>:
    83a8:	e59f2054 	ldr	r2, [pc, #84]	; 8404 <dmx_set_output_break_time+0x5c>
    83ac:	e59f3054 	ldr	r3, [pc, #84]	; 8408 <dmx_set_output_break_time+0x60>
    83b0:	e5d21000 	ldrb	r1, [r2]
    83b4:	e350005c 	cmp	r0, #92	; 0x5c
    83b8:	33a0005c 	movcc	r0, #92	; 0x5c
    83bc:	e3510000 	cmp	r1, #0
    83c0:	e52d4004 	push	{r4}		; (str r4, [sp, #-4]!)
    83c4:	e5830008 	str	r0, [r3, #8]
    83c8:	0a00000b 	beq	83fc <dmx_set_output_break_time+0x54>
    83cc:	e593c004 	ldr	ip, [r3, #4]
    83d0:	e1d340bc 	ldrh	r4, [r3, #12]
    83d4:	e28cc004 	add	ip, ip, #4
    83d8:	e3a0102c 	mov	r1, #44	; 0x2c
    83dc:	e021c491 	mla	r1, r1, r4, ip
    83e0:	e59fc024 	ldr	ip, [pc, #36]	; 840c <dmx_set_output_break_time+0x64>
    83e4:	e0810000 	add	r0, r1, r0
    83e8:	e3a01001 	mov	r1, #1
    83ec:	e150000c 	cmp	r0, ip
    83f0:	25830000 	strcs	r0, [r3]
    83f4:	3583c000 	strcc	ip, [r3]
    83f8:	e5c21000 	strb	r1, [r2]
    83fc:	e49d4004 	pop	{r4}		; (ldr r4, [sp], #4)
    8400:	e12fff1e 	bx	lr
    8404:	0001f270 	andeq	pc, r1, r0, ror r2	; <UNPREDICTABLE>
    8408:	0001e9a4 	andeq	lr, r1, r4, lsr #19
    840c:	000004b4 			; <UNDEFINED> instruction: 0x000004b4

00008410 <dmx_get_output_mab_time>:
    8410:	e59f3004 	ldr	r3, [pc, #4]	; 841c <dmx_get_output_mab_time+0xc>
    8414:	e5930004 	ldr	r0, [r3, #4]
    8418:	e12fff1e 	bx	lr
    841c:	0001e9a4 	andeq	lr, r1, r4, lsr #19

00008420 <dmx_set_output_mab_time>:
    8420:	e59f2054 	ldr	r2, [pc, #84]	; 847c <dmx_set_output_mab_time+0x5c>
    8424:	e59f3054 	ldr	r3, [pc, #84]	; 8480 <dmx_set_output_mab_time+0x60>
    8428:	e5d21000 	ldrb	r1, [r2]
    842c:	e350000c 	cmp	r0, #12
    8430:	33a0000c 	movcc	r0, #12
    8434:	e3510000 	cmp	r1, #0
    8438:	e52d4004 	push	{r4}		; (str r4, [sp, #-4]!)
    843c:	e5830004 	str	r0, [r3, #4]
    8440:	0a00000b 	beq	8474 <dmx_set_output_mab_time+0x54>
    8444:	e593c008 	ldr	ip, [r3, #8]
    8448:	e1d340bc 	ldrh	r4, [r3, #12]
    844c:	e28cc004 	add	ip, ip, #4
    8450:	e3a0102c 	mov	r1, #44	; 0x2c
    8454:	e021c491 	mla	r1, r1, r4, ip
    8458:	e59fc024 	ldr	ip, [pc, #36]	; 8484 <dmx_set_output_mab_time+0x64>
    845c:	e0810000 	add	r0, r1, r0
    8460:	e3a01001 	mov	r1, #1
    8464:	e150000c 	cmp	r0, ip
    8468:	25830000 	strcs	r0, [r3]
    846c:	3583c000 	strcc	ip, [r3]
    8470:	e5c21000 	strb	r1, [r2]
    8474:	e49d4004 	pop	{r4}		; (ldr r4, [sp], #4)
    8478:	e12fff1e 	bx	lr
    847c:	0001f270 	andeq	pc, r1, r0, ror r2	; <UNPREDICTABLE>
    8480:	0001e9a4 	andeq	lr, r1, r4, lsr #19
    8484:	000004b4 			; <UNDEFINED> instruction: 0x000004b4

00008488 <dmx_reset_total_statistics>:
    8488:	e59f300c 	ldr	r3, [pc, #12]	; 849c <dmx_reset_total_statistics+0x14>
    848c:	e3a02000 	mov	r2, #0
    8490:	e5832234 	str	r2, [r3, #564]	; 0x234
    8494:	e5832238 	str	r2, [r3, #568]	; 0x238
    8498:	e12fff1e 	bx	lr
    849c:	00021268 	andeq	r1, r2, r8, ror #4

000084a0 <dmx_get_total_statistics>:
    84a0:	e59f0000 	ldr	r0, [pc]	; 84a8 <dmx_get_total_statistics+0x8>
    84a4:	e12fff1e 	bx	lr
    84a8:	0002149c 	muleq	r2, ip, r4

000084ac <c_fiq_handler>:
    84ac:	e92d00ff 	push	{r0, r1, r2, r3, r4, r5, r6, r7}
    84b0:	e3a03000 	mov	r3, #0
    84b4:	ee073fba 	mcr	15, 0, r3, cr7, cr10, {5}
    84b8:	e59f2404 	ldr	r2, [pc, #1028]	; 88c4 <c_fiq_handler+0x418>
    84bc:	e59f3404 	ldr	r3, [pc, #1028]	; 88c8 <c_fiq_handler+0x41c>
    84c0:	e5921004 	ldr	r1, [r2, #4]
    84c4:	e59f2400 	ldr	r2, [pc, #1024]	; 88cc <c_fiq_handler+0x420>
    84c8:	e583123c 	str	r1, [r3, #572]	; 0x23c
    84cc:	e5921000 	ldr	r1, [r2]
    84d0:	e3110b01 	tst	r1, #1024	; 0x400
    84d4:	1a000023 	bne	8568 <c_fiq_handler+0xbc>
    84d8:	e5921000 	ldr	r1, [r2]
    84dc:	e5d32240 	ldrb	r2, [r3, #576]	; 0x240
    84e0:	e6ef1071 	uxtb	r1, r1
    84e4:	e3520009 	cmp	r2, #9
    84e8:	979ff102 	ldrls	pc, [pc, r2, lsl #2]
    84ec:	ea000017 	b	8550 <c_fiq_handler+0xa4>
    84f0:	000085f0 	strdeq	r8, [r0], -r0
    84f4:	00008624 	andeq	r8, r0, r4, lsr #12
    84f8:	00008550 	andeq	r8, r0, r0, asr r5
    84fc:	00008674 	andeq	r8, r0, r4, ror r6
    8500:	000086e8 	andeq	r8, r0, r8, ror #13
    8504:	00008744 	andeq	r8, r0, r4, asr #14
    8508:	000087d4 	ldrdeq	r8, [r0], -r4
    850c:	00008518 	andeq	r8, r0, r8, lsl r5
    8510:	00008784 	andeq	r8, r0, r4, lsl #15
    8514:	0000858c 	andeq	r8, r0, ip, lsl #11
    8518:	e35100aa 	cmp	r1, #170	; 0xaa
    851c:	0a0000cb 	beq	8850 <c_fiq_handler+0x3a4>
    8520:	e35100fe 	cmp	r1, #254	; 0xfe
    8524:	1a0000c6 	bne	8844 <c_fiq_handler+0x398>
    8528:	e59f03a0 	ldr	r0, [pc, #928]	; 88d0 <c_fiq_handler+0x424>
    852c:	e3a02f93 	mov	r2, #588	; 0x24c
    8530:	e1d0c1ba 	ldrh	ip, [r0, #26]
    8534:	e19310b2 	ldrh	r1, [r3, r2]
    8538:	e080048c 	add	r0, r0, ip, lsl #9
    853c:	e0800001 	add	r0, r0, r1
    8540:	e3e0c001 	mvn	ip, #1
    8544:	e2811001 	add	r1, r1, #1
    8548:	e18310b2 	strh	r1, [r3, r2]
    854c:	e5c0c01c 	strb	ip, [r0, #28]
    8550:	e593123c 	ldr	r1, [r3, #572]	; 0x23c
    8554:	e3a02000 	mov	r2, #0
    8558:	e5831250 	str	r1, [r3, #592]	; 0x250
    855c:	ee072fba 	mcr	15, 0, r2, cr7, cr10, {5}
    8560:	e8bd00ff 	pop	{r0, r1, r2, r3, r4, r5, r6, r7}
    8564:	e25ef004 	subs	pc, lr, #4
    8568:	e593023c 	ldr	r0, [r3, #572]	; 0x23c
    856c:	e5932244 	ldr	r2, [r3, #580]	; 0x244
    8570:	e3a01001 	mov	r1, #1
    8574:	e0622000 	rsb	r2, r2, r0
    8578:	e5832248 	str	r2, [r3, #584]	; 0x248
    857c:	e593223c 	ldr	r2, [r3, #572]	; 0x23c
    8580:	e5c31240 	strb	r1, [r3, #576]	; 0x240
    8584:	e5832244 	str	r2, [r3, #580]	; 0x244
    8588:	eafffff0 	b	8550 <c_fiq_handler+0xa4>
    858c:	e59f233c 	ldr	r2, [pc, #828]	; 88d0 <c_fiq_handler+0x424>
    8590:	e5d30254 	ldrb	r0, [r3, #596]	; 0x254
    8594:	e3a0cf93 	mov	ip, #588	; 0x24c
    8598:	e1d251ba 	ldrh	r5, [r2, #26]
    859c:	e19340bc 	ldrh	r4, [r3, ip]
    85a0:	e2800001 	add	r0, r0, #1
    85a4:	e6ef0070 	uxtb	r0, r0
    85a8:	e0826485 	add	r6, r2, r5, lsl #9
    85ac:	e0866004 	add	r6, r6, r4
    85b0:	e3500004 	cmp	r0, #4
    85b4:	e2844001 	add	r4, r4, #1
    85b8:	e5c6101c 	strb	r1, [r6, #28]
    85bc:	e18340bc 	strh	r4, [r3, ip]
    85c0:	e5c30254 	strb	r0, [r3, #596]	; 0x254
    85c4:	e59f12fc 	ldr	r1, [pc, #764]	; 88c8 <c_fiq_handler+0x41c>
    85c8:	1affffe0 	bne	8550 <c_fiq_handler+0xa4>
    85cc:	e59f02f0 	ldr	r0, [pc, #752]	; 88c4 <c_fiq_handler+0x418>
    85d0:	e2855001 	add	r5, r5, #1
    85d4:	e590c004 	ldr	ip, [r0, #4]
    85d8:	e205500f 	and	r5, r5, #15
    85dc:	e3a00000 	mov	r0, #0
    85e0:	e1c251ba 	strh	r5, [r2, #26]
    85e4:	e581c230 	str	ip, [r1, #560]	; 0x230
    85e8:	e5c10240 	strb	r0, [r1, #576]	; 0x240
    85ec:	eaffffd7 	b	8550 <c_fiq_handler+0xa4>
    85f0:	e35100fe 	cmp	r1, #254	; 0xfe
    85f4:	1affffd5 	bne	8550 <c_fiq_handler+0xa4>
    85f8:	e59f22d0 	ldr	r2, [pc, #720]	; 88d0 <c_fiq_handler+0x424>
    85fc:	e3e04001 	mvn	r4, #1
    8600:	e1d211ba 	ldrh	r1, [r2, #26]
    8604:	e3a0c007 	mov	ip, #7
    8608:	e0822481 	add	r2, r2, r1, lsl #9
    860c:	e3a00001 	mov	r0, #1
    8610:	e3a01f93 	mov	r1, #588	; 0x24c
    8614:	e5c2401c 	strb	r4, [r2, #28]
    8618:	e5c3c240 	strb	ip, [r3, #576]	; 0x240
    861c:	e18300b1 	strh	r0, [r3, r1]
    8620:	eaffffca 	b	8550 <c_fiq_handler+0xa4>
    8624:	e3510000 	cmp	r1, #0
    8628:	0a000097 	beq	888c <c_fiq_handler+0x3e0>
    862c:	e35100cc 	cmp	r1, #204	; 0xcc
    8630:	1a000083 	bne	8844 <c_fiq_handler+0x398>
    8634:	e59f2294 	ldr	r2, [pc, #660]	; 88d0 <c_fiq_handler+0x424>
    8638:	e5936238 	ldr	r6, [r3, #568]	; 0x238
    863c:	e1d201ba 	ldrh	r0, [r2, #26]
    8640:	e59f528c 	ldr	r5, [pc, #652]	; 88d4 <c_fiq_handler+0x428>
    8644:	e0822480 	add	r2, r2, r0, lsl #9
    8648:	e3e07033 	mvn	r7, #51	; 0x33
    864c:	e2866001 	add	r6, r6, #1
    8650:	e3a04004 	mov	r4, #4
    8654:	e3a00f93 	mov	r0, #588	; 0x24c
    8658:	e3a0c001 	mov	ip, #1
    865c:	e5c2701c 	strb	r7, [r2, #28]
    8660:	e5836238 	str	r6, [r3, #568]	; 0x238
    8664:	e18310b5 	strh	r1, [r3, r5]
    8668:	e5c34240 	strb	r4, [r3, #576]	; 0x240
    866c:	e183c0b0 	strh	ip, [r3, r0]
    8670:	eaffffb6 	b	8550 <c_fiq_handler+0xa4>
    8674:	e3a0cf93 	mov	ip, #588	; 0x24c
    8678:	e19350bc 	ldrh	r5, [r3, ip]
    867c:	e593023c 	ldr	r0, [r3, #572]	; 0x23c
    8680:	e5932250 	ldr	r2, [r3, #592]	; 0x250
    8684:	e593823c 	ldr	r8, [r3, #572]	; 0x23c
    8688:	e2854001 	add	r4, r5, #1
    868c:	e0620000 	rsb	r0, r2, r0
    8690:	e6ff4074 	uxth	r4, r4
    8694:	e59f2228 	ldr	r2, [pc, #552]	; 88c4 <c_fiq_handler+0x418>
    8698:	e2888002 	add	r8, r8, #2
    869c:	e59f9234 	ldr	r9, [pc, #564]	; 88d8 <c_fiq_handler+0x42c>
    86a0:	e59f6228 	ldr	r6, [pc, #552]	; 88d0 <c_fiq_handler+0x424>
    86a4:	e0888000 	add	r8, r8, r0
    86a8:	e3a07002 	mov	r7, #2
    86ac:	e3540c02 	cmp	r4, #512	; 0x200
    86b0:	e7c91005 	strb	r1, [r9, r5]
    86b4:	e18340bc 	strh	r4, [r3, ip]
    86b8:	e5828010 	str	r8, [r2, #16]
    86bc:	e5860014 	str	r0, [r6, #20]
    86c0:	e5827000 	str	r7, [r2]
    86c4:	e59f21fc 	ldr	r2, [pc, #508]	; 88c8 <c_fiq_handler+0x41c>
    86c8:	9affffa0 	bls	8550 <c_fiq_handler+0xa4>
    86cc:	e3a0c000 	mov	ip, #0
    86d0:	e3a00001 	mov	r0, #1
    86d4:	e3a01c02 	mov	r1, #512	; 0x200
    86d8:	e5c2c240 	strb	ip, [r2, #576]	; 0x240
    86dc:	e5c20024 	strb	r0, [r2, #36]	; 0x24
    86e0:	e5861008 	str	r1, [r6, #8]
    86e4:	eaffff99 	b	8550 <c_fiq_handler+0xa4>
    86e8:	e3a0cf93 	mov	ip, #588	; 0x24c
    86ec:	e19320bc 	ldrh	r2, [r3, ip]
    86f0:	e59f01d0 	ldr	r0, [pc, #464]	; 88c8 <c_fiq_handler+0x41c>
    86f4:	e3520c02 	cmp	r2, #512	; 0x200
    86f8:	8a000051 	bhi	8844 <c_fiq_handler+0x398>
    86fc:	e59f41cc 	ldr	r4, [pc, #460]	; 88d0 <c_fiq_handler+0x424>
    8700:	e2827001 	add	r7, r2, #1
    8704:	e1d461ba 	ldrh	r6, [r4, #26]
    8708:	e59f51c4 	ldr	r5, [pc, #452]	; 88d4 <c_fiq_handler+0x428>
    870c:	e1a06486 	lsl	r6, r6, #9
    8710:	e0848006 	add	r8, r4, r6
    8714:	e0882002 	add	r2, r8, r2
    8718:	e5c2101c 	strb	r1, [r2, #28]
    871c:	e5d8601e 	ldrb	r6, [r8, #30]
    8720:	e6ff2077 	uxth	r2, r7
    8724:	e19040b5 	ldrh	r4, [r0, r5]
    8728:	e1560002 	cmp	r6, r2
    872c:	e0811004 	add	r1, r1, r4
    8730:	e18020bc 	strh	r2, [r0, ip]
    8734:	03a02005 	moveq	r2, #5
    8738:	e18010b5 	strh	r1, [r0, r5]
    873c:	05c02240 	strbeq	r2, [r0, #576]	; 0x240
    8740:	eaffff82 	b	8550 <c_fiq_handler+0xa4>
    8744:	e59f4184 	ldr	r4, [pc, #388]	; 88d0 <c_fiq_handler+0x424>
    8748:	e59f2184 	ldr	r2, [pc, #388]	; 88d4 <c_fiq_handler+0x428>
    874c:	e1d451ba 	ldrh	r5, [r4, #26]
    8750:	e3a00f93 	mov	r0, #588	; 0x24c
    8754:	e193c0b0 	ldrh	ip, [r3, r0]
    8758:	e19360b2 	ldrh	r6, [r3, r2]
    875c:	e0844485 	add	r4, r4, r5, lsl #9
    8760:	e084400c 	add	r4, r4, ip
    8764:	e0466401 	sub	r6, r6, r1, lsl #8
    8768:	e28cc001 	add	ip, ip, #1
    876c:	e3a05006 	mov	r5, #6
    8770:	e5c4101c 	strb	r1, [r4, #28]
    8774:	e183c0b0 	strh	ip, [r3, r0]
    8778:	e18360b2 	strh	r6, [r3, r2]
    877c:	e5c35240 	strb	r5, [r3, #576]	; 0x240
    8780:	eaffff72 	b	8550 <c_fiq_handler+0xa4>
    8784:	e59f4144 	ldr	r4, [pc, #324]	; 88d0 <c_fiq_handler+0x424>
    8788:	e5d32254 	ldrb	r2, [r3, #596]	; 0x254
    878c:	e3a00f93 	mov	r0, #588	; 0x24c
    8790:	e1d451ba 	ldrh	r5, [r4, #26]
    8794:	e193c0b0 	ldrh	ip, [r3, r0]
    8798:	e2822001 	add	r2, r2, #1
    879c:	e6ef2072 	uxtb	r2, r2
    87a0:	e0844485 	add	r4, r4, r5, lsl #9
    87a4:	e084400c 	add	r4, r4, ip
    87a8:	e352000c 	cmp	r2, #12
    87ac:	e28cc001 	add	ip, ip, #1
    87b0:	e5c32254 	strb	r2, [r3, #596]	; 0x254
    87b4:	e5c4101c 	strb	r1, [r4, #28]
    87b8:	e183c0b0 	strh	ip, [r3, r0]
    87bc:	e59f2104 	ldr	r2, [pc, #260]	; 88c8 <c_fiq_handler+0x41c>
    87c0:	03a00009 	moveq	r0, #9
    87c4:	03a01000 	moveq	r1, #0
    87c8:	05c20240 	strbeq	r0, [r2, #576]	; 0x240
    87cc:	05c21254 	strbeq	r1, [r2, #596]	; 0x254
    87d0:	eaffff5e 	b	8550 <c_fiq_handler+0xa4>
    87d4:	e59f20f4 	ldr	r2, [pc, #244]	; 88d0 <c_fiq_handler+0x424>
    87d8:	e59f00f4 	ldr	r0, [pc, #244]	; 88d4 <c_fiq_handler+0x428>
    87dc:	e1d271ba 	ldrh	r7, [r2, #26]
    87e0:	e193c0b0 	ldrh	ip, [r3, r0]
    87e4:	e3a04f93 	mov	r4, #588	; 0x24c
    87e8:	e19350b4 	ldrh	r5, [r3, r4]
    87ec:	e061c00c 	rsb	ip, r1, ip
    87f0:	e1a06487 	lsl	r6, r7, #9
    87f4:	e6ffc07c 	uxth	ip, ip
    87f8:	e0828006 	add	r8, r2, r6
    87fc:	e0888005 	add	r8, r8, r5
    8800:	e35c0000 	cmp	ip, #0
    8804:	e2855001 	add	r5, r5, #1
    8808:	e5c8101c 	strb	r1, [r8, #28]
    880c:	e18350b4 	strh	r5, [r3, r4]
    8810:	e183c0b0 	strh	ip, [r3, r0]
    8814:	e59f10ac 	ldr	r1, [pc, #172]	; 88c8 <c_fiq_handler+0x41c>
    8818:	1a000009 	bne	8844 <c_fiq_handler+0x398>
    881c:	e0826006 	add	r6, r2, r6
    8820:	e5d6001d 	ldrb	r0, [r6, #29]
    8824:	e3500001 	cmp	r0, #1
    8828:	1a000005 	bne	8844 <c_fiq_handler+0x398>
    882c:	e59f0090 	ldr	r0, [pc, #144]	; 88c4 <c_fiq_handler+0x418>
    8830:	e287c001 	add	ip, r7, #1
    8834:	e5900004 	ldr	r0, [r0, #4]
    8838:	e20cc00f 	and	ip, ip, #15
    883c:	e1c2c1ba 	strh	ip, [r2, #26]
    8840:	e5810230 	str	r0, [r1, #560]	; 0x230
    8844:	e3a02000 	mov	r2, #0
    8848:	e5c32240 	strb	r2, [r3, #576]	; 0x240
    884c:	eaffff3f 	b	8550 <c_fiq_handler+0xa4>
    8850:	e59f0078 	ldr	r0, [pc, #120]	; 88d0 <c_fiq_handler+0x424>
    8854:	e3a02f93 	mov	r2, #588	; 0x24c
    8858:	e1d0c1ba 	ldrh	ip, [r0, #26]
    885c:	e19310b2 	ldrh	r1, [r3, r2]
    8860:	e080048c 	add	r0, r0, ip, lsl #9
    8864:	e0800001 	add	r0, r0, r1
    8868:	e3e05055 	mvn	r5, #85	; 0x55
    886c:	e2811001 	add	r1, r1, #1
    8870:	e3a04008 	mov	r4, #8
    8874:	e3a0c000 	mov	ip, #0
    8878:	e18310b2 	strh	r1, [r3, r2]
    887c:	e5c0501c 	strb	r5, [r0, #28]
    8880:	e5c34240 	strb	r4, [r3, #576]	; 0x240
    8884:	e5c3c254 	strb	ip, [r3, #596]	; 0x254
    8888:	eaffff30 	b	8550 <c_fiq_handler+0xa4>
    888c:	e5937234 	ldr	r7, [r3, #564]	; 0x234
    8890:	e59f6040 	ldr	r6, [pc, #64]	; 88d8 <c_fiq_handler+0x42c>
    8894:	e5935248 	ldr	r5, [r3, #584]	; 0x248
    8898:	e59f4030 	ldr	r4, [pc, #48]	; 88d0 <c_fiq_handler+0x424>
    889c:	e2877001 	add	r7, r7, #1
    88a0:	e3a0c003 	mov	ip, #3
    88a4:	e3a02f93 	mov	r2, #588	; 0x24c
    88a8:	e3a00001 	mov	r0, #1
    88ac:	e5837234 	str	r7, [r3, #564]	; 0x234
    88b0:	e5c61000 	strb	r1, [r6]
    88b4:	e584500c 	str	r5, [r4, #12]
    88b8:	e5c3c240 	strb	ip, [r3, #576]	; 0x240
    88bc:	e18300b2 	strh	r0, [r3, r2]
    88c0:	eaffff22 	b	8550 <c_fiq_handler+0xa4>
    88c4:	20003000 	andcs	r3, r0, r0
    88c8:	00021268 	andeq	r1, r2, r8, ror #4
    88cc:	20201000 	eorcs	r1, r0, r0
    88d0:	0001f270 	andeq	pc, r1, r0, ror r2	; <UNPREDICTABLE>
    88d4:	0000024e 	andeq	r0, r0, lr, asr #4
    88d8:	000218cc 	andeq	r1, r2, ip, asr #17

000088dc <c_irq_handler>:
    88dc:	e24ee004 	sub	lr, lr, #4
    88e0:	e92d50ff 	push	{r0, r1, r2, r3, r4, r5, r6, r7, ip, lr}
    88e4:	e3a03000 	mov	r3, #0
    88e8:	ee073fba 	mcr	15, 0, r3, cr7, cr10, {5}
    88ec:	e59f31d4 	ldr	r3, [pc, #468]	; 8ac8 <c_irq_handler+0x1ec>
    88f0:	e5934004 	ldr	r4, [r3, #4]
    88f4:	e5932000 	ldr	r2, [r3]
    88f8:	e3120002 	tst	r2, #2
    88fc:	0a000009 	beq	8928 <c_irq_handler+0x4c>
    8900:	e59f51c4 	ldr	r5, [pc, #452]	; 8acc <c_irq_handler+0x1f0>
    8904:	e3a01002 	mov	r1, #2
    8908:	e5d52240 	ldrb	r2, [r5, #576]	; 0x240
    890c:	e5831000 	str	r1, [r3]
    8910:	e3520003 	cmp	r2, #3
    8914:	0a00003e 	beq	8a14 <c_irq_handler+0x138>
    8918:	e5d53255 	ldrb	r3, [r5, #597]	; 0x255
    891c:	e59f21a8 	ldr	r2, [pc, #424]	; 8acc <c_irq_handler+0x1f0>
    8920:	e3530000 	cmp	r3, #0
    8924:	1a000012 	bne	8974 <c_irq_handler+0x98>
    8928:	e59f3198 	ldr	r3, [pc, #408]	; 8ac8 <c_irq_handler+0x1ec>
    892c:	e5932000 	ldr	r2, [r3]
    8930:	e3120008 	tst	r2, #8
    8934:	0a00000b 	beq	8968 <c_irq_handler+0x8c>
    8938:	e59f218c 	ldr	r2, [pc, #396]	; 8acc <c_irq_handler+0x1f0>
    893c:	e284493d 	add	r4, r4, #999424	; 0xf4000
    8940:	e5921234 	ldr	r1, [r2, #564]	; 0x234
    8944:	e592c25c 	ldr	ip, [r2, #604]	; 0x25c
    8948:	e59f0180 	ldr	r0, [pc, #384]	; 8ad0 <c_irq_handler+0x1f4>
    894c:	e2844d09 	add	r4, r4, #576	; 0x240
    8950:	e3a05008 	mov	r5, #8
    8954:	e06cc001 	rsb	ip, ip, r1
    8958:	e5835000 	str	r5, [r3]
    895c:	e582125c 	str	r1, [r2, #604]	; 0x25c
    8960:	e5834018 	str	r4, [r3, #24]
    8964:	e580c010 	str	ip, [r0, #16]
    8968:	e3a03000 	mov	r3, #0
    896c:	ee073fba 	mcr	15, 0, r3, cr7, cr10, {5}
    8970:	e8fd90ff 	ldm	sp!, {r0, r1, r2, r3, r4, r5, r6, r7, ip, pc}^
    8974:	e5d23256 	ldrb	r3, [r2, #598]	; 0x256
    8978:	e6ef3073 	uxtb	r3, r3
    897c:	e3530001 	cmp	r3, #1
    8980:	0a000037 	beq	8a64 <c_irq_handler+0x188>
    8984:	3a000042 	bcc	8a94 <c_irq_handler+0x1b8>
    8988:	e3530002 	cmp	r3, #2
    898c:	1affffe5 	bne	8928 <c_irq_handler+0x4c>
    8990:	e59f713c 	ldr	r7, [pc, #316]	; 8ad4 <c_irq_handler+0x1f8>
    8994:	e3a01003 	mov	r1, #3
    8998:	e1d730bc 	ldrh	r3, [r7, #12]
    899c:	e5c21256 	strb	r1, [r2, #598]	; 0x256
    89a0:	e3530000 	cmp	r3, #0
    89a4:	0a00000c 	beq	89dc <c_irq_handler+0x100>
    89a8:	e59f0128 	ldr	r0, [pc, #296]	; 8ad8 <c_irq_handler+0x1fc>
    89ac:	e2433001 	sub	r3, r3, #1
    89b0:	e2802001 	add	r2, r0, #1
    89b4:	e59f1120 	ldr	r1, [pc, #288]	; 8adc <c_irq_handler+0x200>
    89b8:	e6f2c073 	uxtah	ip, r2, r3
    89bc:	e5913018 	ldr	r3, [r1, #24]
    89c0:	e59f2114 	ldr	r2, [pc, #276]	; 8adc <c_irq_handler+0x200>
    89c4:	e3130020 	tst	r3, #32
    89c8:	1afffffb 	bne	89bc <c_irq_handler+0xe0>
    89cc:	e5f03001 	ldrb	r3, [r0, #1]!
    89d0:	e150000c 	cmp	r0, ip
    89d4:	e5823000 	str	r3, [r2]
    89d8:	1afffff7 	bne	89bc <c_irq_handler+0xe0>
    89dc:	e59f20f8 	ldr	r2, [pc, #248]	; 8adc <c_irq_handler+0x200>
    89e0:	e5923018 	ldr	r3, [r2, #24]
    89e4:	e2136020 	ands	r6, r3, #32
    89e8:	1afffffc 	bne	89e0 <c_irq_handler+0x104>
    89ec:	e3a01000 	mov	r1, #0
    89f0:	e3a0002c 	mov	r0, #44	; 0x2c
    89f4:	eb0046b1 	bl	1a4c0 <udelay>
    89f8:	e5951258 	ldr	r1, [r5, #600]	; 0x258
    89fc:	e5972000 	ldr	r2, [r7]
    8a00:	e59f30c0 	ldr	r3, [pc, #192]	; 8ac8 <c_irq_handler+0x1ec>
    8a04:	e0812002 	add	r2, r1, r2
    8a08:	e5832010 	str	r2, [r3, #16]
    8a0c:	e5c56256 	strb	r6, [r5, #598]	; 0x256
    8a10:	eaffffc4 	b	8928 <c_irq_handler+0x4c>
    8a14:	e59f20b4 	ldr	r2, [pc, #180]	; 8ad0 <c_irq_handler+0x1f4>
    8a18:	e595023c 	ldr	r0, [r5, #572]	; 0x23c
    8a1c:	e5921014 	ldr	r1, [r2, #20]
    8a20:	e0801001 	add	r1, r0, r1
    8a24:	e1540001 	cmp	r4, r1
    8a28:	83a03f93 	movhi	r3, #588	; 0x24c
    8a2c:	9284202d 	addls	r2, r4, #45	; 0x2d
    8a30:	819500b3 	ldrhhi	r0, [r5, r3]
    8a34:	95832010 	strls	r2, [r3, #16]
    8a38:	83a03001 	movhi	r3, #1
    8a3c:	85c53024 	strbhi	r3, [r5, #36]	; 0x24
    8a40:	e5d53255 	ldrb	r3, [r5, #597]	; 0x255
    8a44:	83a01000 	movhi	r1, #0
    8a48:	82400001 	subhi	r0, r0, #1
    8a4c:	85820008 	strhi	r0, [r2, #8]
    8a50:	85c51240 	strbhi	r1, [r5, #576]	; 0x240
    8a54:	e3530000 	cmp	r3, #0
    8a58:	e59f206c 	ldr	r2, [pc, #108]	; 8acc <c_irq_handler+0x1f0>
    8a5c:	0affffb1 	beq	8928 <c_irq_handler+0x4c>
    8a60:	eaffffc3 	b	8974 <c_irq_handler+0x98>
    8a64:	e59f1070 	ldr	r1, [pc, #112]	; 8adc <c_irq_handler+0x200>
    8a68:	e59f3058 	ldr	r3, [pc, #88]	; 8ac8 <c_irq_handler+0x1ec>
    8a6c:	e3a05002 	mov	r5, #2
    8a70:	e3a0c068 	mov	ip, #104	; 0x68
    8a74:	e59f0058 	ldr	r0, [pc, #88]	; 8ad4 <c_irq_handler+0x1f8>
    8a78:	e5c25256 	strb	r5, [r2, #598]	; 0x256
    8a7c:	e581c02c 	str	ip, [r1, #44]	; 0x2c
    8a80:	e5931004 	ldr	r1, [r3, #4]
    8a84:	e5902004 	ldr	r2, [r0, #4]
    8a88:	e0812002 	add	r2, r1, r2
    8a8c:	e5832010 	str	r2, [r3, #16]
    8a90:	eaffffa4 	b	8928 <c_irq_handler+0x4c>
    8a94:	e59f3040 	ldr	r3, [pc, #64]	; 8adc <c_irq_handler+0x200>
    8a98:	e59f1028 	ldr	r1, [pc, #40]	; 8ac8 <c_irq_handler+0x1ec>
    8a9c:	e3a05001 	mov	r5, #1
    8aa0:	e3a0c069 	mov	ip, #105	; 0x69
    8aa4:	e59f0028 	ldr	r0, [pc, #40]	; 8ad4 <c_irq_handler+0x1f8>
    8aa8:	e5c25256 	strb	r5, [r2, #598]	; 0x256
    8aac:	e583c02c 	str	ip, [r3, #44]	; 0x2c
    8ab0:	e5913004 	ldr	r3, [r1, #4]
    8ab4:	e5900008 	ldr	r0, [r0, #8]
    8ab8:	e0830000 	add	r0, r3, r0
    8abc:	e5810010 	str	r0, [r1, #16]
    8ac0:	e5823258 	str	r3, [r2, #600]	; 0x258
    8ac4:	eaffff97 	b	8928 <c_irq_handler+0x4c>
    8ac8:	20003000 	andcs	r3, r0, r0
    8acc:	00021268 	andeq	r1, r2, r8, ror #4
    8ad0:	0001f270 	andeq	pc, r1, r0, ror r2	; <UNPREDICTABLE>
    8ad4:	0001e9a4 	andeq	lr, r1, r4, lsr #19
    8ad8:	000218cb 	andeq	r1, r2, fp, asr #17
    8adc:	20201000 	eorcs	r1, r0, r0

00008ae0 <dmx_start_data>:
    8ae0:	e59f3044 	ldr	r3, [pc, #68]	; 8b2c <dmx_start_data+0x4c>
    8ae4:	e5d3300e 	ldrb	r3, [r3, #14]
    8ae8:	e3530001 	cmp	r3, #1
    8aec:	0a000005 	beq	8b08 <dmx_start_data+0x28>
    8af0:	e3530002 	cmp	r3, #2
    8af4:	112fff1e 	bxne	lr
    8af8:	e59f3030 	ldr	r3, [pc, #48]	; 8b30 <dmx_start_data+0x50>
    8afc:	e3a02000 	mov	r2, #0
    8b00:	e5c32240 	strb	r2, [r3, #576]	; 0x240
    8b04:	eafffd86 	b	8124 <__enable_fiq>
    8b08:	e59f1020 	ldr	r1, [pc, #32]	; 8b30 <dmx_start_data+0x50>
    8b0c:	e59f2020 	ldr	r2, [pc, #32]	; 8b34 <dmx_start_data+0x54>
    8b10:	e5c13255 	strb	r3, [r1, #597]	; 0x255
    8b14:	e5921004 	ldr	r1, [r2, #4]
    8b18:	e3a03002 	mov	r3, #2
    8b1c:	e2811004 	add	r1, r1, #4
    8b20:	e5821010 	str	r1, [r2, #16]
    8b24:	e5823000 	str	r3, [r2]
    8b28:	e12fff1e 	bx	lr
    8b2c:	0001e9a4 	andeq	lr, r1, r4, lsr #19
    8b30:	00021268 	andeq	r1, r2, r8, ror #4
    8b34:	20003000 	andcs	r3, r0, r0

00008b38 <dmx_stop_data>:
    8b38:	e59f201c 	ldr	r2, [pc, #28]	; 8b5c <dmx_stop_data+0x24>
    8b3c:	e59f301c 	ldr	r3, [pc, #28]	; 8b60 <dmx_stop_data+0x28>
    8b40:	e3a01000 	mov	r1, #0
    8b44:	e5c21255 	strb	r1, [r2, #597]	; 0x255
    8b48:	e5931004 	ldr	r1, [r3, #4]
    8b4c:	e3a02002 	mov	r2, #2
    8b50:	e5831010 	str	r1, [r3, #16]
    8b54:	e5832000 	str	r2, [r3]
    8b58:	eafffd75 	b	8134 <__disable_fiq>
    8b5c:	00021268 	andeq	r1, r2, r8, ror #4
    8b60:	20003000 	andcs	r3, r0, r0

00008b64 <dmx_set_port_direction>:
    8b64:	e3500001 	cmp	r0, #1
    8b68:	e92d41f0 	push	{r4, r5, r6, r7, r8, lr}
    8b6c:	e1a04000 	mov	r4, r0
    8b70:	e1a06001 	mov	r6, r1
    8b74:	0a000023 	beq	8c08 <dmx_set_port_direction+0xa4>
    8b78:	e3500002 	cmp	r0, #2
    8b7c:	0a000013 	beq	8bd0 <dmx_set_port_direction+0x6c>
    8b80:	e59f50d8 	ldr	r5, [pc, #216]	; 8c60 <dmx_set_port_direction+0xfc>
    8b84:	e59f30d8 	ldr	r3, [pc, #216]	; 8c64 <dmx_set_port_direction+0x100>
    8b88:	e3a02000 	mov	r2, #0
    8b8c:	e5c52255 	strb	r2, [r5, #597]	; 0x255
    8b90:	e5932004 	ldr	r2, [r3, #4]
    8b94:	e3a04002 	mov	r4, #2
    8b98:	e5832010 	str	r2, [r3, #16]
    8b9c:	e5834000 	str	r4, [r3]
    8ba0:	ebfffd63 	bl	8134 <__disable_fiq>
    8ba4:	e59f10bc 	ldr	r1, [pc, #188]	; 8c68 <dmx_set_port_direction+0x104>
    8ba8:	e59f30bc 	ldr	r3, [pc, #188]	; 8c6c <dmx_set_port_direction+0x108>
    8bac:	e3a02701 	mov	r2, #262144	; 0x40000
    8bb0:	e5c1400e 	strb	r4, [r1, #14]
    8bb4:	e5832028 	str	r2, [r3, #40]	; 0x28
    8bb8:	e3560000 	cmp	r6, #0
    8bbc:	08bd81f0 	popeq	{r4, r5, r6, r7, r8, pc}
    8bc0:	e3a03000 	mov	r3, #0
    8bc4:	e5c53240 	strb	r3, [r5, #576]	; 0x240
    8bc8:	e8bd41f0 	pop	{r4, r5, r6, r7, r8, lr}
    8bcc:	eafffd54 	b	8124 <__enable_fiq>
    8bd0:	e59f5088 	ldr	r5, [pc, #136]	; 8c60 <dmx_set_port_direction+0xfc>
    8bd4:	e59f3088 	ldr	r3, [pc, #136]	; 8c64 <dmx_set_port_direction+0x100>
    8bd8:	e3a02000 	mov	r2, #0
    8bdc:	e5c52255 	strb	r2, [r5, #597]	; 0x255
    8be0:	e5932004 	ldr	r2, [r3, #4]
    8be4:	e5832010 	str	r2, [r3, #16]
    8be8:	e5830000 	str	r0, [r3]
    8bec:	ebfffd50 	bl	8134 <__disable_fiq>
    8bf0:	e59f2074 	ldr	r2, [pc, #116]	; 8c6c <dmx_set_port_direction+0x108>
    8bf4:	e59f306c 	ldr	r3, [pc, #108]	; 8c68 <dmx_set_port_direction+0x104>
    8bf8:	e3a01701 	mov	r1, #262144	; 0x40000
    8bfc:	e5821028 	str	r1, [r2, #40]	; 0x28
    8c00:	e5c3400e 	strb	r4, [r3, #14]
    8c04:	eaffffeb 	b	8bb8 <dmx_set_port_direction+0x54>
    8c08:	e59f8050 	ldr	r8, [pc, #80]	; 8c60 <dmx_set_port_direction+0xfc>
    8c0c:	e59f5050 	ldr	r5, [pc, #80]	; 8c64 <dmx_set_port_direction+0x100>
    8c10:	e3a03000 	mov	r3, #0
    8c14:	e5c83255 	strb	r3, [r8, #597]	; 0x255
    8c18:	e5953004 	ldr	r3, [r5, #4]
    8c1c:	e3a07002 	mov	r7, #2
    8c20:	e5853010 	str	r3, [r5, #16]
    8c24:	e5857000 	str	r7, [r5]
    8c28:	ebfffd41 	bl	8134 <__disable_fiq>
    8c2c:	e59f2038 	ldr	r2, [pc, #56]	; 8c6c <dmx_set_port_direction+0x108>
    8c30:	e59f3030 	ldr	r3, [pc, #48]	; 8c68 <dmx_set_port_direction+0x104>
    8c34:	e3a01701 	mov	r1, #262144	; 0x40000
    8c38:	e3560000 	cmp	r6, #0
    8c3c:	e582101c 	str	r1, [r2, #28]
    8c40:	e5c3400e 	strb	r4, [r3, #14]
    8c44:	08bd81f0 	popeq	{r4, r5, r6, r7, r8, pc}
    8c48:	e5c84255 	strb	r4, [r8, #597]	; 0x255
    8c4c:	e5953004 	ldr	r3, [r5, #4]
    8c50:	e2833004 	add	r3, r3, #4
    8c54:	e5853010 	str	r3, [r5, #16]
    8c58:	e5857000 	str	r7, [r5]
    8c5c:	e8bd81f0 	pop	{r4, r5, r6, r7, r8, pc}
    8c60:	00021268 	andeq	r1, r2, r8, ror #4
    8c64:	20003000 	andcs	r3, r0, r0
    8c68:	0001e9a4 	andeq	lr, r1, r4, lsr #19
    8c6c:	20200000 	eorcs	r0, r0, r0

00008c70 <dmx_init>:
    8c70:	e59f3154 	ldr	r3, [pc, #340]	; 8dcc <dmx_init+0x15c>
    8c74:	e92d4070 	push	{r4, r5, r6, lr}
    8c78:	e59f1150 	ldr	r1, [pc, #336]	; 8dd0 <dmx_init+0x160>
    8c7c:	e2435028 	sub	r5, r3, #40	; 0x28
    8c80:	e285cf8a 	add	ip, r5, #552	; 0x228
    8c84:	e3a02000 	mov	r2, #0
    8c88:	e4832004 	str	r2, [r3], #4
    8c8c:	e153000c 	cmp	r3, ip
    8c90:	e5a12004 	str	r2, [r1, #4]!
    8c94:	e3a04000 	mov	r4, #0
    8c98:	e59f0134 	ldr	r0, [pc, #308]	; 8dd4 <dmx_init+0x164>
    8c9c:	1afffff9 	bne	8c88 <dmx_init+0x18>
    8ca0:	e59f3130 	ldr	r3, [pc, #304]	; 8dd8 <dmx_init+0x168>
    8ca4:	e5c04255 	strb	r4, [r0, #597]	; 0x255
    8ca8:	e5936004 	ldr	r6, [r3, #4]
    8cac:	e59fe128 	ldr	lr, [pc, #296]	; 8ddc <dmx_init+0x16c>
    8cb0:	e286693d 	add	r6, r6, #999424	; 0xf4000
    8cb4:	e59fc124 	ldr	ip, [pc, #292]	; 8de0 <dmx_init+0x170>
    8cb8:	e59f2124 	ldr	r2, [pc, #292]	; 8de4 <dmx_init+0x174>
    8cbc:	e3a0100a 	mov	r1, #10
    8cc0:	e2866d09 	add	r6, r6, #576	; 0x240
    8cc4:	e5836018 	str	r6, [r3, #24]
    8cc8:	e5831000 	str	r1, [r3]
    8ccc:	e58e1210 	str	r1, [lr, #528]	; 0x210
    8cd0:	e59f6110 	ldr	r6, [pc, #272]	; 8de8 <dmx_init+0x178>
    8cd4:	e5cc4200 	strb	r4, [ip, #512]	; 0x200
    8cd8:	e1c241ba 	strh	r4, [r2, #26]
    8cdc:	e1c241b8 	strh	r4, [r2, #24]
    8ce0:	e5c04228 	strb	r4, [r0, #552]	; 0x228
    8ce4:	e5c04240 	strb	r4, [r0, #576]	; 0x240
    8ce8:	e5c04024 	strb	r4, [r0, #36]	; 0x24
    8cec:	ebfffd04 	bl	8104 <__enable_irq>
    8cf0:	e59f10f4 	ldr	r1, [pc, #244]	; 8dec <dmx_init+0x17c>
    8cf4:	e3a00002 	mov	r0, #2
    8cf8:	eb004486 	bl	19f18 <bcm2835_vc_set_clock_rate>
    8cfc:	e59f30ec 	ldr	r3, [pc, #236]	; 8df0 <dmx_init+0x180>
    8d00:	e5864030 	str	r4, [r6, #48]	; 0x30
    8d04:	e5932004 	ldr	r2, [r3, #4]
    8d08:	e3a0000e 	mov	r0, #14
    8d0c:	e3c22a3f 	bic	r2, r2, #258048	; 0x3f000
    8d10:	e3822909 	orr	r2, r2, #147456	; 0x24000
    8d14:	e5832004 	str	r2, [r3, #4]
    8d18:	e1a01004 	mov	r1, r4
    8d1c:	eb004370 	bl	19ae4 <bcm2835_gpio_set_pud>
    8d20:	e1a01004 	mov	r1, r4
    8d24:	e3a0000f 	mov	r0, #15
    8d28:	eb00436d 	bl	19ae4 <bcm2835_gpio_set_pud>
    8d2c:	e1a02006 	mov	r2, r6
    8d30:	e5923018 	ldr	r3, [r2, #24]
    8d34:	e59f40ac 	ldr	r4, [pc, #172]	; 8de8 <dmx_init+0x178>
    8d38:	e2136008 	ands	r6, r3, #8
    8d3c:	1afffffb 	bne	8d30 <dmx_init+0xc0>
    8d40:	e594102c 	ldr	r1, [r4, #44]	; 0x2c
    8d44:	e59f20a8 	ldr	r2, [pc, #168]	; 8df4 <dmx_init+0x184>
    8d48:	e59f00a8 	ldr	r0, [pc, #168]	; 8df8 <dmx_init+0x188>
    8d4c:	e3a03001 	mov	r3, #1
    8d50:	e3a0c068 	mov	ip, #104	; 0x68
    8d54:	e3c11010 	bic	r1, r1, #16
    8d58:	e584102c 	str	r1, [r4, #44]	; 0x2c
    8d5c:	e5840044 	str	r0, [r4, #68]	; 0x44
    8d60:	e1a01003 	mov	r1, r3
    8d64:	e5843024 	str	r3, [r4, #36]	; 0x24
    8d68:	e3a00012 	mov	r0, #18
    8d6c:	e5846028 	str	r6, [r4, #40]	; 0x28
    8d70:	e584c02c 	str	ip, [r4, #44]	; 0x2c
    8d74:	e5842030 	str	r2, [r4, #48]	; 0x30
    8d78:	eb0045be 	bl	1a478 <bcm2835_gpio_fsel>
    8d7c:	e59f2058 	ldr	r2, [pc, #88]	; 8ddc <dmx_init+0x16c>
    8d80:	e59f3050 	ldr	r3, [pc, #80]	; 8dd8 <dmx_init+0x168>
    8d84:	e3a010b9 	mov	r1, #185	; 0xb9
    8d88:	e3a00010 	mov	r0, #16
    8d8c:	e5840038 	str	r0, [r4, #56]	; 0x38
    8d90:	e582120c 	str	r1, [r2, #524]	; 0x20c
    8d94:	e5c56255 	strb	r6, [r5, #597]	; 0x255
    8d98:	e5932004 	ldr	r2, [r3, #4]
    8d9c:	e3a04002 	mov	r4, #2
    8da0:	e5832010 	str	r2, [r3, #16]
    8da4:	e5834000 	str	r4, [r3]
    8da8:	ebfffce1 	bl	8134 <__disable_fiq>
    8dac:	e59f203c 	ldr	r2, [pc, #60]	; 8df0 <dmx_init+0x180>
    8db0:	e59f3044 	ldr	r3, [pc, #68]	; 8dfc <dmx_init+0x18c>
    8db4:	e3a01701 	mov	r1, #262144	; 0x40000
    8db8:	e5821028 	str	r1, [r2, #40]	; 0x28
    8dbc:	e5c56240 	strb	r6, [r5, #576]	; 0x240
    8dc0:	e5c3400e 	strb	r4, [r3, #14]
    8dc4:	e8bd4070 	pop	{r4, r5, r6, lr}
    8dc8:	eafffcd5 	b	8124 <__enable_fiq>
    8dcc:	00021290 	muleq	r2, r0, r2
    8dd0:	000218c8 	andeq	r1, r2, r8, asr #17
    8dd4:	00021268 	andeq	r1, r2, r8, ror #4
    8dd8:	20003000 	andcs	r3, r0, r0
    8ddc:	2000b000 	andcs	fp, r0, r0
    8de0:	000218cc 	andeq	r1, r2, ip, asr #17
    8de4:	0001f270 	andeq	pc, r1, r0, ror r2	; <UNPREDICTABLE>
    8de8:	20201000 	eorcs	r1, r0, r0
    8dec:	003d0900 	eorseq	r0, sp, r0, lsl #18
    8df0:	20200000 	eorcs	r0, r0, r0
    8df4:	00000301 	andeq	r0, r0, r1, lsl #6
    8df8:	000007ff 	strdeq	r0, [r0], -pc	; <UNPREDICTABLE>
    8dfc:	0001e9a4 	andeq	lr, r1, r4, lsr #19

00008e00 <read_config_file>:
    8e00:	e92d41f0 	push	{r4, r5, r6, r7, r8, lr}
    8e04:	e24dde4e 	sub	sp, sp, #1248	; 0x4e0
    8e08:	e24dd008 	sub	sp, sp, #8
    8e0c:	e28d1fad 	add	r1, sp, #692	; 0x2b4
    8e10:	e3a00000 	mov	r0, #0
    8e14:	eb00240e 	bl	11e54 <f_mount>
    8e18:	e28d0090 	add	r0, sp, #144	; 0x90
    8e1c:	e59f1198 	ldr	r1, [pc, #408]	; 8fbc <read_config_file+0x1bc>
    8e20:	e3a02001 	mov	r2, #1
    8e24:	eb002419 	bl	11e90 <f_open>
    8e28:	e3500000 	cmp	r0, #0
    8e2c:	1a00004d 	bne	8f68 <read_config_file+0x168>
    8e30:	e59f4188 	ldr	r4, [pc, #392]	; 8fc0 <read_config_file+0x1c0>
    8e34:	e59f5188 	ldr	r5, [pc, #392]	; 8fc4 <read_config_file+0x1c4>
    8e38:	e28d0010 	add	r0, sp, #16
    8e3c:	e3a01080 	mov	r1, #128	; 0x80
    8e40:	e28d2090 	add	r2, sp, #144	; 0x90
    8e44:	eb003694 	bl	1689c <f_gets>
    8e48:	e3500000 	cmp	r0, #0
    8e4c:	0a000043 	beq	8f60 <read_config_file+0x160>
    8e50:	e59f2170 	ldr	r2, [pc, #368]	; 8fc8 <read_config_file+0x1c8>
    8e54:	e3a0c020 	mov	ip, #32
    8e58:	e2423004 	sub	r3, r2, #4
    8e5c:	e59f1168 	ldr	r1, [pc, #360]	; 8fcc <read_config_file+0x1cc>
    8e60:	e28d0010 	add	r0, sp, #16
    8e64:	e5c4c000 	strb	ip, [r4]
    8e68:	eb0000f7 	bl	924c <sscan_char_p>
    8e6c:	e28d2008 	add	r2, sp, #8
    8e70:	e3a0c004 	mov	ip, #4
    8e74:	e2423008 	sub	r3, r2, #8
    8e78:	e28d0010 	add	r0, sp, #16
    8e7c:	e59f114c 	ldr	r1, [pc, #332]	; 8fd0 <read_config_file+0x1d0>
    8e80:	e5cdc000 	strb	ip, [sp]
    8e84:	eb0000f0 	bl	924c <sscan_char_p>
    8e88:	e3500002 	cmp	r0, #2
    8e8c:	1affffe9 	bne	8e38 <read_config_file+0x38>
    8e90:	e5dd3000 	ldrb	r3, [sp]
    8e94:	e3530004 	cmp	r3, #4
    8e98:	1affffe6 	bne	8e38 <read_config_file+0x38>
    8e9c:	e5dd3008 	ldrb	r3, [sp, #8]
    8ea0:	e2431030 	sub	r1, r3, #48	; 0x30
    8ea4:	e6ef1071 	uxtb	r1, r1
    8ea8:	e3510009 	cmp	r1, #9
    8eac:	8a000030 	bhi	8f74 <read_config_file+0x174>
    8eb0:	e5dd2009 	ldrb	r2, [sp, #9]
    8eb4:	e2420030 	sub	r0, r2, #48	; 0x30
    8eb8:	e6ef0070 	uxtb	r0, r0
    8ebc:	e3500009 	cmp	r0, #9
    8ec0:	8a000030 	bhi	8f88 <read_config_file+0x188>
    8ec4:	e5ddc00a 	ldrb	ip, [sp, #10]
    8ec8:	e24ce030 	sub	lr, ip, #48	; 0x30
    8ecc:	e6efe07e 	uxtb	lr, lr
    8ed0:	e35e0009 	cmp	lr, #9
    8ed4:	9a000003 	bls	8ee8 <read_config_file+0xe8>
    8ed8:	e3cc6020 	bic	r6, ip, #32
    8edc:	e2466041 	sub	r6, r6, #65	; 0x41
    8ee0:	e3560005 	cmp	r6, #5
    8ee4:	8affffd3 	bhi	8e38 <read_config_file+0x38>
    8ee8:	e5dd600b 	ldrb	r6, [sp, #11]
    8eec:	e2467030 	sub	r7, r6, #48	; 0x30
    8ef0:	e6ef7077 	uxtb	r7, r7
    8ef4:	e3570009 	cmp	r7, #9
    8ef8:	8a000027 	bhi	8f9c <read_config_file+0x19c>
    8efc:	e3530039 	cmp	r3, #57	; 0x39
    8f00:	9a00002a 	bls	8fb0 <read_config_file+0x1b0>
    8f04:	e3833020 	orr	r3, r3, #32
    8f08:	e2433057 	sub	r3, r3, #87	; 0x57
    8f0c:	e1a03203 	lsl	r3, r3, #4
    8f10:	e6ef3073 	uxtb	r3, r3
    8f14:	e3520039 	cmp	r2, #57	; 0x39
    8f18:	83822020 	orrhi	r2, r2, #32
    8f1c:	82420057 	subhi	r0, r2, #87	; 0x57
    8f20:	86ef0070 	uxtbhi	r0, r0
    8f24:	e35c0039 	cmp	ip, #57	; 0x39
    8f28:	e1800003 	orr	r0, r0, r3
    8f2c:	838c3020 	orrhi	r3, ip, #32
    8f30:	82433057 	subhi	r3, r3, #87	; 0x57
    8f34:	81a03203 	lslhi	r3, r3, #4
    8f38:	91a0320e 	lslls	r3, lr, #4
    8f3c:	e3560039 	cmp	r6, #57	; 0x39
    8f40:	83866020 	orrhi	r6, r6, #32
    8f44:	82467057 	subhi	r7, r6, #87	; 0x57
    8f48:	e6ef3073 	uxtb	r3, r3
    8f4c:	86ef7077 	uxtbhi	r7, r7
    8f50:	e1877003 	orr	r7, r7, r3
    8f54:	e5c50000 	strb	r0, [r5]
    8f58:	e5c57001 	strb	r7, [r5, #1]
    8f5c:	eaffffb5 	b	8e38 <read_config_file+0x38>
    8f60:	e28d0090 	add	r0, sp, #144	; 0x90
    8f64:	eb002829 	bl	13010 <f_close>
    8f68:	e28dde4e 	add	sp, sp, #1248	; 0x4e0
    8f6c:	e28dd008 	add	sp, sp, #8
    8f70:	e8bd81f0 	pop	{r4, r5, r6, r7, r8, pc}
    8f74:	e3c32020 	bic	r2, r3, #32
    8f78:	e2422041 	sub	r2, r2, #65	; 0x41
    8f7c:	e3520005 	cmp	r2, #5
    8f80:	9affffca 	bls	8eb0 <read_config_file+0xb0>
    8f84:	eaffffab 	b	8e38 <read_config_file+0x38>
    8f88:	e3c2c020 	bic	ip, r2, #32
    8f8c:	e24cc041 	sub	ip, ip, #65	; 0x41
    8f90:	e35c0005 	cmp	ip, #5
    8f94:	9affffca 	bls	8ec4 <read_config_file+0xc4>
    8f98:	eaffffa6 	b	8e38 <read_config_file+0x38>
    8f9c:	e3c68020 	bic	r8, r6, #32
    8fa0:	e2488041 	sub	r8, r8, #65	; 0x41
    8fa4:	e3580005 	cmp	r8, #5
    8fa8:	9affffd3 	bls	8efc <read_config_file+0xfc>
    8fac:	eaffffa1 	b	8e38 <read_config_file+0x38>
    8fb0:	e1a03201 	lsl	r3, r1, #4
    8fb4:	e6ef3073 	uxtb	r3, r3
    8fb8:	eaffffd5 	b	8f14 <read_config_file+0x114>
    8fbc:	0001d594 	muleq	r1, r4, r5
    8fc0:	000214c8 	andeq	r1, r2, r8, asr #9
    8fc4:	0001e9b4 			; <UNDEFINED> instruction: 0x0001e9b4
    8fc8:	000214cc 	andeq	r1, r2, ip, asr #9
    8fcc:	0001d5a4 	andeq	sp, r1, r4, lsr #11
    8fd0:	0001d5b8 			; <UNDEFINED> instruction: 0x0001d5b8

00008fd4 <rdm_device_info_get_label>:
    8fd4:	e59f0000 	ldr	r0, [pc]	; 8fdc <rdm_device_info_get_label+0x8>
    8fd8:	e12fff1e 	bx	lr
    8fdc:	000214ec 	andeq	r1, r2, ip, ror #9

00008fe0 <rdm_device_info_get_label_length>:
    8fe0:	e59f3004 	ldr	r3, [pc, #4]	; 8fec <rdm_device_info_get_label_length+0xc>
    8fe4:	e5d30044 	ldrb	r0, [r3, #68]	; 0x44
    8fe8:	e12fff1e 	bx	lr
    8fec:	000214c8 	andeq	r1, r2, r8, asr #9

00008ff0 <rdm_device_info_get_manufacturer_name>:
    8ff0:	e59f0000 	ldr	r0, [pc]	; 8ff8 <rdm_device_info_get_manufacturer_name+0x8>
    8ff4:	e12fff1e 	bx	lr
    8ff8:	000214cc 	andeq	r1, r2, ip, asr #9

00008ffc <rdm_device_info_get_manufacturer_name_length>:
    8ffc:	e59f3004 	ldr	r3, [pc, #4]	; 9008 <rdm_device_info_get_manufacturer_name_length+0xc>
    9000:	e5d30000 	ldrb	r0, [r3]
    9004:	e12fff1e 	bx	lr
    9008:	000214c8 	andeq	r1, r2, r8, asr #9

0000900c <rdm_device_info_get_manufacturer_id>:
    900c:	e59f3018 	ldr	r3, [pc, #24]	; 902c <rdm_device_info_get_manufacturer_id+0x20>
    9010:	e59f0018 	ldr	r0, [pc, #24]	; 9030 <rdm_device_info_get_manufacturer_id+0x24>
    9014:	e5d32001 	ldrb	r2, [r3, #1]
    9018:	e5d33000 	ldrb	r3, [r3]
    901c:	e5c02048 	strb	r2, [r0, #72]	; 0x48
    9020:	e5c03049 	strb	r3, [r0, #73]	; 0x49
    9024:	e2800048 	add	r0, r0, #72	; 0x48
    9028:	e12fff1e 	bx	lr
    902c:	0001e9b4 			; <UNDEFINED> instruction: 0x0001e9b4
    9030:	000214c8 	andeq	r1, r2, r8, asr #9

00009034 <rdm_device_info_get_manufacturer_id_length>:
    9034:	e3a00002 	mov	r0, #2
    9038:	e12fff1e 	bx	lr

0000903c <rdm_device_info_get_sn>:
    903c:	e59f0000 	ldr	r0, [pc]	; 9044 <rdm_device_info_get_sn+0x8>
    9040:	e12fff1e 	bx	lr
    9044:	00021514 	andeq	r1, r2, r4, lsl r5

00009048 <rdm_device_info_get_sn_length>:
    9048:	e3a00004 	mov	r0, #4
    904c:	e12fff1e 	bx	lr

00009050 <rdm_device_info_get_uuid>:
    9050:	e59f0000 	ldr	r0, [pc]	; 9058 <rdm_device_info_get_uuid+0x8>
    9054:	e12fff1e 	bx	lr
    9058:	0001e9b4 			; <UNDEFINED> instruction: 0x0001e9b4

0000905c <rdm_device_info_init>:
    905c:	e92d4ff0 	push	{r4, r5, r6, r7, r8, r9, sl, fp, lr}
    9060:	e24dd00c 	sub	sp, sp, #12
    9064:	e1a0000d 	mov	r0, sp
    9068:	eb004460 	bl	1a1f0 <bcm2835_vc_get_board_mac_address>
    906c:	e3500000 	cmp	r0, #0
    9070:	0a000027 	beq	9114 <rdm_device_info_init+0xb8>
    9074:	e59f20c0 	ldr	r2, [pc, #192]	; 913c <rdm_device_info_init+0xe0>
    9078:	e5d2c005 	ldrb	ip, [r2, #5]
    907c:	e5d2e004 	ldrb	lr, [r2, #4]
    9080:	e5d23003 	ldrb	r3, [r2, #3]
    9084:	e5d20002 	ldrb	r0, [r2, #2]
    9088:	e59f10b0 	ldr	r1, [pc, #176]	; 9140 <rdm_device_info_init+0xe4>
    908c:	e18cc40e 	orr	ip, ip, lr, lsl #8
    9090:	e591a034 	ldr	sl, [r1, #52]	; 0x34
    9094:	e5919038 	ldr	r9, [r1, #56]	; 0x38
    9098:	e591803c 	ldr	r8, [r1, #60]	; 0x3c
    909c:	e5917040 	ldr	r7, [r1, #64]	; 0x40
    90a0:	e5916044 	ldr	r6, [r1, #68]	; 0x44
    90a4:	e591b048 	ldr	fp, [r1, #72]	; 0x48
    90a8:	e18cc803 	orr	ip, ip, r3, lsl #16
    90ac:	e59f3090 	ldr	r3, [pc, #144]	; 9144 <rdm_device_info_init+0xe8>
    90b0:	e18c1c00 	orr	r1, ip, r0, lsl #24
    90b4:	e3a0e056 	mov	lr, #86	; 0x56
    90b8:	e3a05041 	mov	r5, #65	; 0x41
    90bc:	e3a04076 	mov	r4, #118	; 0x76
    90c0:	e3a00018 	mov	r0, #24
    90c4:	e3a0c003 	mov	ip, #3
    90c8:	e583104c 	str	r1, [r3, #76]	; 0x4c
    90cc:	e583a024 	str	sl, [r3, #36]	; 0x24
    90d0:	e3a0107f 	mov	r1, #127	; 0x7f
    90d4:	e3e0a00f 	mvn	sl, #15
    90d8:	e5839028 	str	r9, [r3, #40]	; 0x28
    90dc:	e583802c 	str	r8, [r3, #44]	; 0x2c
    90e0:	e5837030 	str	r7, [r3, #48]	; 0x30
    90e4:	e5836034 	str	r6, [r3, #52]	; 0x34
    90e8:	e583b038 	str	fp, [r3, #56]	; 0x38
    90ec:	e5c35004 	strb	r5, [r3, #4]
    90f0:	e5c34005 	strb	r4, [r3, #5]
    90f4:	e5c3e006 	strb	lr, [r3, #6]
    90f8:	e5c30044 	strb	r0, [r3, #68]	; 0x44
    90fc:	e5c3c000 	strb	ip, [r3]
    9100:	e5c21000 	strb	r1, [r2]
    9104:	e5c2a001 	strb	sl, [r2, #1]
    9108:	ebffff3c 	bl	8e00 <read_config_file>
    910c:	e28dd00c 	add	sp, sp, #12
    9110:	e8bd8ff0 	pop	{r4, r5, r6, r7, r8, r9, sl, fp, pc}
    9114:	e59f2020 	ldr	r2, [pc, #32]	; 913c <rdm_device_info_init+0xe0>
    9118:	e5dd0002 	ldrb	r0, [sp, #2]
    911c:	e5dd3003 	ldrb	r3, [sp, #3]
    9120:	e5dde004 	ldrb	lr, [sp, #4]
    9124:	e5ddc005 	ldrb	ip, [sp, #5]
    9128:	e5c20002 	strb	r0, [r2, #2]
    912c:	e5c23003 	strb	r3, [r2, #3]
    9130:	e5c2e004 	strb	lr, [r2, #4]
    9134:	e5c2c005 	strb	ip, [r2, #5]
    9138:	eaffffd2 	b	9088 <rdm_device_info_init+0x2c>
    913c:	0001e9b4 			; <UNDEFINED> instruction: 0x0001e9b4
    9140:	0001d594 	muleq	r1, r4, r5
    9144:	000214c8 	andeq	r1, r2, r8, asr #9

00009148 <sscan_uint8_t>:
    9148:	e92d0030 	push	{r4, r5}
    914c:	e5d1c000 	ldrb	ip, [r1]
    9150:	e35c0000 	cmp	ip, #0
    9154:	0a000039 	beq	9240 <sscan_uint8_t+0xf8>
    9158:	e5d03000 	ldrb	r3, [r0]
    915c:	e353003d 	cmp	r3, #61	; 0x3d
    9160:	0a000030 	beq	9228 <sscan_uint8_t+0xe0>
    9164:	e3530000 	cmp	r3, #0
    9168:	0a00002e 	beq	9228 <sscan_uint8_t+0xe0>
    916c:	e15c0003 	cmp	ip, r3
    9170:	1a00002c 	bne	9228 <sscan_uint8_t+0xe0>
    9174:	e1a05000 	mov	r5, r0
    9178:	e3a04000 	mov	r4, #0
    917c:	ea000006 	b	919c <sscan_uint8_t+0x54>
    9180:	e5f53001 	ldrb	r3, [r5, #1]!
    9184:	e353003d 	cmp	r3, #61	; 0x3d
    9188:	0a000026 	beq	9228 <sscan_uint8_t+0xe0>
    918c:	e3530000 	cmp	r3, #0
    9190:	0a000024 	beq	9228 <sscan_uint8_t+0xe0>
    9194:	e15c0003 	cmp	ip, r3
    9198:	1a000022 	bne	9228 <sscan_uint8_t+0xe0>
    919c:	e5f1c001 	ldrb	ip, [r1, #1]!
    91a0:	e2844001 	add	r4, r4, #1
    91a4:	e35c0000 	cmp	ip, #0
    91a8:	1afffff4 	bne	9180 <sscan_uint8_t+0x38>
    91ac:	e2844001 	add	r4, r4, #1
    91b0:	e1a03004 	mov	r3, r4
    91b4:	e7d03003 	ldrb	r3, [r0, r3]
    91b8:	e3530000 	cmp	r3, #0
    91bc:	1353000a 	cmpne	r3, #10
    91c0:	03a01000 	moveq	r1, #0
    91c4:	13a01001 	movne	r1, #1
    91c8:	0a000012 	beq	9218 <sscan_uint8_t+0xd0>
    91cc:	e2431030 	sub	r1, r3, #48	; 0x30
    91d0:	e3510009 	cmp	r1, #9
    91d4:	8a000016 	bhi	9234 <sscan_uint8_t+0xec>
    91d8:	e0804004 	add	r4, r0, r4
    91dc:	e3a01000 	mov	r1, #0
    91e0:	ea000001 	b	91ec <sscan_uint8_t+0xa4>
    91e4:	e3500009 	cmp	r0, #9
    91e8:	8a000011 	bhi	9234 <sscan_uint8_t+0xec>
    91ec:	e0811101 	add	r1, r1, r1, lsl #2
    91f0:	e0831081 	add	r1, r3, r1, lsl #1
    91f4:	e5f43001 	ldrb	r3, [r4, #1]!
    91f8:	e2411030 	sub	r1, r1, #48	; 0x30
    91fc:	e353000a 	cmp	r3, #10
    9200:	13530000 	cmpne	r3, #0
    9204:	e2430030 	sub	r0, r3, #48	; 0x30
    9208:	1afffff5 	bne	91e4 <sscan_uint8_t+0x9c>
    920c:	e35100ff 	cmp	r1, #255	; 0xff
    9210:	ca000007 	bgt	9234 <sscan_uint8_t+0xec>
    9214:	e6ef1071 	uxtb	r1, r1
    9218:	e3a00002 	mov	r0, #2
    921c:	e5c21000 	strb	r1, [r2]
    9220:	e8bd0030 	pop	{r4, r5}
    9224:	e12fff1e 	bx	lr
    9228:	e3a00000 	mov	r0, #0
    922c:	e8bd0030 	pop	{r4, r5}
    9230:	e12fff1e 	bx	lr
    9234:	e3a00001 	mov	r0, #1
    9238:	e8bd0030 	pop	{r4, r5}
    923c:	e12fff1e 	bx	lr
    9240:	e3a03001 	mov	r3, #1
    9244:	e1a04003 	mov	r4, r3
    9248:	eaffffd9 	b	91b4 <sscan_uint8_t+0x6c>

0000924c <sscan_char_p>:
    924c:	e92d0070 	push	{r4, r5, r6}
    9250:	e5d14000 	ldrb	r4, [r1]
    9254:	e3540000 	cmp	r4, #0
    9258:	0a000035 	beq	9334 <sscan_char_p+0xe8>
    925c:	e5d0c000 	ldrb	ip, [r0]
    9260:	e35c003d 	cmp	ip, #61	; 0x3d
    9264:	0a00002f 	beq	9328 <sscan_char_p+0xdc>
    9268:	e35c0000 	cmp	ip, #0
    926c:	0a00002d 	beq	9328 <sscan_char_p+0xdc>
    9270:	e154000c 	cmp	r4, ip
    9274:	1a00002b 	bne	9328 <sscan_char_p+0xdc>
    9278:	e1a06000 	mov	r6, r0
    927c:	e3a05000 	mov	r5, #0
    9280:	ea000006 	b	92a0 <sscan_char_p+0x54>
    9284:	e5f6c001 	ldrb	ip, [r6, #1]!
    9288:	e35c003d 	cmp	ip, #61	; 0x3d
    928c:	0a000025 	beq	9328 <sscan_char_p+0xdc>
    9290:	e35c0000 	cmp	ip, #0
    9294:	0a000023 	beq	9328 <sscan_char_p+0xdc>
    9298:	e154000c 	cmp	r4, ip
    929c:	1a000021 	bne	9328 <sscan_char_p+0xdc>
    92a0:	e5f14001 	ldrb	r4, [r1, #1]!
    92a4:	e2855001 	add	r5, r5, #1
    92a8:	e3540000 	cmp	r4, #0
    92ac:	1afffff4 	bne	9284 <sscan_char_p+0x38>
    92b0:	e2855001 	add	r5, r5, #1
    92b4:	e1a01005 	mov	r1, r5
    92b8:	e7d01001 	ldrb	r1, [r0, r1]
    92bc:	e3510000 	cmp	r1, #0
    92c0:	1351000a 	cmpne	r1, #10
    92c4:	13a04000 	movne	r4, #0
    92c8:	03a04001 	moveq	r4, #1
    92cc:	03a00001 	moveq	r0, #1
    92d0:	0a000015 	beq	932c <sscan_char_p+0xe0>
    92d4:	e5d3c000 	ldrb	ip, [r3]
    92d8:	e35c0000 	cmp	ip, #0
    92dc:	0a00000d 	beq	9318 <sscan_char_p+0xcc>
    92e0:	e0805005 	add	r5, r0, r5
    92e4:	e2422001 	sub	r2, r2, #1
    92e8:	e1a00004 	mov	r0, r4
    92ec:	ea000002 	b	92fc <sscan_char_p+0xb0>
    92f0:	e5d3c000 	ldrb	ip, [r3]
    92f4:	e15c0000 	cmp	ip, r0
    92f8:	da000005 	ble	9314 <sscan_char_p+0xc8>
    92fc:	e5e21001 	strb	r1, [r2, #1]!
    9300:	e5f51001 	ldrb	r1, [r5, #1]!
    9304:	e2800001 	add	r0, r0, #1
    9308:	e351000a 	cmp	r1, #10
    930c:	13510000 	cmpne	r1, #0
    9310:	1afffff6 	bne	92f0 <sscan_char_p+0xa4>
    9314:	e6efc070 	uxtb	ip, r0
    9318:	e3a00002 	mov	r0, #2
    931c:	e5c3c000 	strb	ip, [r3]
    9320:	e8bd0070 	pop	{r4, r5, r6}
    9324:	e12fff1e 	bx	lr
    9328:	e3a00000 	mov	r0, #0
    932c:	e8bd0070 	pop	{r4, r5, r6}
    9330:	e12fff1e 	bx	lr
    9334:	e3a01001 	mov	r1, #1
    9338:	e1a05001 	mov	r5, r1
    933c:	eaffffdd 	b	92b8 <sscan_char_p+0x6c>

00009340 <sscan_spi>:
    9340:	e92d03f0 	push	{r4, r5, r6, r7, r8, r9}
    9344:	e5d04000 	ldrb	r4, [r0]
    9348:	e59f5364 	ldr	r5, [pc, #868]	; 96b4 <sscan_spi+0x374>
    934c:	e24dd008 	sub	sp, sp, #8
    9350:	e354002c 	cmp	r4, #44	; 0x2c
    9354:	13540000 	cmpne	r4, #0
    9358:	03a0c000 	moveq	ip, #0
    935c:	13a0c001 	movne	ip, #1
    9360:	e58d5004 	str	r5, [sp, #4]
    9364:	0a000010 	beq	93ac <sscan_spi+0x6c>
    9368:	e1a05000 	mov	r5, r0
    936c:	e3a0c000 	mov	ip, #0
    9370:	e35c0002 	cmp	ip, #2
    9374:	ca000005 	bgt	9390 <sscan_spi+0x50>
    9378:	e28c8004 	add	r8, ip, #4
    937c:	e1a0700d 	mov	r7, sp
    9380:	e7d87007 	ldrb	r7, [r8, r7]
    9384:	e6ef6077 	uxtb	r6, r7
    9388:	e1560004 	cmp	r6, r4
    938c:	1a00004a 	bne	94bc <sscan_spi+0x17c>
    9390:	e5f54001 	ldrb	r4, [r5, #1]!
    9394:	e28cc001 	add	ip, ip, #1
    9398:	e354002c 	cmp	r4, #44	; 0x2c
    939c:	13540000 	cmpne	r4, #0
    93a0:	1afffff2 	bne	9370 <sscan_spi+0x30>
    93a4:	e35c0004 	cmp	ip, #4
    93a8:	ca000043 	bgt	94bc <sscan_spi+0x17c>
    93ac:	e5d04003 	ldrb	r4, [r0, #3]
    93b0:	e2444030 	sub	r4, r4, #48	; 0x30
    93b4:	e6ef4074 	uxtb	r4, r4
    93b8:	e3540009 	cmp	r4, #9
    93bc:	8a00003b 	bhi	94b0 <sscan_spi+0x170>
    93c0:	e5c14000 	strb	r4, [r1]
    93c4:	e28c4001 	add	r4, ip, #1
    93c8:	e7d01004 	ldrb	r1, [r0, r4]
    93cc:	e0805004 	add	r5, r0, r4
    93d0:	e3510000 	cmp	r1, #0
    93d4:	0a0000a8 	beq	967c <sscan_spi+0x33c>
    93d8:	e5d36000 	ldrb	r6, [r3]
    93dc:	e3560000 	cmp	r6, #0
    93e0:	0a0000a1 	beq	966c <sscan_spi+0x32c>
    93e4:	e351002c 	cmp	r1, #44	; 0x2c
    93e8:	0a00009e 	beq	9668 <sscan_spi+0x328>
    93ec:	e28c7002 	add	r7, ip, #2
    93f0:	e0807007 	add	r7, r0, r7
    93f4:	e2426001 	sub	r6, r2, #1
    93f8:	ea000004 	b	9410 <sscan_spi+0xd0>
    93fc:	e5d39000 	ldrb	r9, [r3]
    9400:	e1590008 	cmp	r9, r8
    9404:	da000009 	ble	9430 <sscan_spi+0xf0>
    9408:	e351002c 	cmp	r1, #44	; 0x2c
    940c:	0a000007 	beq	9430 <sscan_spi+0xf0>
    9410:	e5e61001 	strb	r1, [r6, #1]!
    9414:	e5d71000 	ldrb	r1, [r7]
    9418:	e1a05007 	mov	r5, r7
    941c:	e3510000 	cmp	r1, #0
    9420:	e06c8004 	rsb	r8, ip, r4
    9424:	e2877001 	add	r7, r7, #1
    9428:	e2844001 	add	r4, r4, #1
    942c:	1afffff2 	bne	93fc <sscan_spi+0xbc>
    9430:	e6ef6078 	uxtb	r6, r8
    9434:	e3a01000 	mov	r1, #0
    9438:	e7c21008 	strb	r1, [r2, r8]
    943c:	e5c36000 	strb	r6, [r3]
    9440:	e5d53000 	ldrb	r3, [r5]
    9444:	e353002c 	cmp	r3, #44	; 0x2c
    9448:	1a000014 	bne	94a0 <sscan_spi+0x160>
    944c:	e2841001 	add	r1, r4, #1
    9450:	e7d03001 	ldrb	r3, [r0, r1]
    9454:	e353002c 	cmp	r3, #44	; 0x2c
    9458:	13530000 	cmpne	r3, #0
    945c:	0a00000f 	beq	94a0 <sscan_spi+0x160>
    9460:	e2432030 	sub	r2, r3, #48	; 0x30
    9464:	e3520009 	cmp	r2, #9
    9468:	8a000017 	bhi	94cc <sscan_spi+0x18c>
    946c:	e284c002 	add	ip, r4, #2
    9470:	e7d0200c 	ldrb	r2, [r0, ip]
    9474:	e5cd3000 	strb	r3, [sp]
    9478:	e352002c 	cmp	r2, #44	; 0x2c
    947c:	13520000 	cmpne	r2, #0
    9480:	0a000080 	beq	9688 <sscan_spi+0x348>
    9484:	e2423030 	sub	r3, r2, #48	; 0x30
    9488:	e3530009 	cmp	r3, #9
    948c:	9a000013 	bls	94e0 <sscan_spi+0x1a0>
    9490:	e3c23020 	bic	r3, r2, #32
    9494:	e2433041 	sub	r3, r3, #65	; 0x41
    9498:	e3530005 	cmp	r3, #5
    949c:	9a00000f 	bls	94e0 <sscan_spi+0x1a0>
    94a0:	e3e00003 	mvn	r0, #3
    94a4:	e28dd008 	add	sp, sp, #8
    94a8:	e8bd03f0 	pop	{r4, r5, r6, r7, r8, r9}
    94ac:	e12fff1e 	bx	lr
    94b0:	e5d05004 	ldrb	r5, [r0, #4]
    94b4:	e355002c 	cmp	r5, #44	; 0x2c
    94b8:	0affffc0 	beq	93c0 <sscan_spi+0x80>
    94bc:	e3e00001 	mvn	r0, #1
    94c0:	e28dd008 	add	sp, sp, #8
    94c4:	e8bd03f0 	pop	{r4, r5, r6, r7, r8, r9}
    94c8:	e12fff1e 	bx	lr
    94cc:	e3c32020 	bic	r2, r3, #32
    94d0:	e2422041 	sub	r2, r2, #65	; 0x41
    94d4:	e3520005 	cmp	r2, #5
    94d8:	8afffff0 	bhi	94a0 <sscan_spi+0x160>
    94dc:	eaffffe2 	b	946c <sscan_spi+0x12c>
    94e0:	e0804004 	add	r4, r0, r4
    94e4:	e5d43003 	ldrb	r3, [r4, #3]
    94e8:	e5cd2001 	strb	r2, [sp, #1]
    94ec:	e353002c 	cmp	r3, #44	; 0x2c
    94f0:	13530000 	cmpne	r3, #0
    94f4:	1affffe9 	bne	94a0 <sscan_spi+0x160>
    94f8:	e353002c 	cmp	r3, #44	; 0x2c
    94fc:	1affffe7 	bne	94a0 <sscan_spi+0x160>
    9500:	e5dd3001 	ldrb	r3, [sp, #1]
    9504:	e1a0100c 	mov	r1, ip
    9508:	e3530039 	cmp	r3, #57	; 0x39
    950c:	83833020 	orrhi	r3, r3, #32
    9510:	92433030 	subls	r3, r3, #48	; 0x30
    9514:	82432057 	subhi	r2, r3, #87	; 0x57
    9518:	96ef2073 	uxtbls	r2, r3
    951c:	e5dd3000 	ldrb	r3, [sp]
    9520:	86ef2072 	uxtbhi	r2, r2
    9524:	e3530039 	cmp	r3, #57	; 0x39
    9528:	83833020 	orrhi	r3, r3, #32
    952c:	82433057 	subhi	r3, r3, #87	; 0x57
    9530:	81a03203 	lslhi	r3, r3, #4
    9534:	91a03203 	lslls	r3, r3, #4
    9538:	86ef3073 	uxtbhi	r3, r3
    953c:	920330f0 	andls	r3, r3, #240	; 0xf0
    9540:	e1833002 	orr	r3, r3, r2
    9544:	e59d2020 	ldr	r2, [sp, #32]
    9548:	e5c23000 	strb	r3, [r2]
    954c:	e0800001 	add	r0, r0, r1
    9550:	e5d02002 	ldrb	r2, [r0, #2]
    9554:	e31200df 	tst	r2, #223	; 0xdf
    9558:	03a03000 	moveq	r3, #0
    955c:	13a03001 	movne	r3, #1
    9560:	e2421030 	sub	r1, r2, #48	; 0x30
    9564:	e3510009 	cmp	r1, #9
    9568:	83a03000 	movhi	r3, #0
    956c:	92033001 	andls	r3, r3, #1
    9570:	e3530000 	cmp	r3, #0
    9574:	0a000034 	beq	964c <sscan_spi+0x30c>
    9578:	e5d03003 	ldrb	r3, [r0, #3]
    957c:	e5cd2000 	strb	r2, [sp]
    9580:	e3530000 	cmp	r3, #0
    9584:	1353000a 	cmpne	r3, #10
    9588:	0a000039 	beq	9674 <sscan_spi+0x334>
    958c:	e3530020 	cmp	r3, #32
    9590:	0a000037 	beq	9674 <sscan_spi+0x334>
    9594:	e5d02004 	ldrb	r2, [r0, #4]
    9598:	e5cd3001 	strb	r3, [sp, #1]
    959c:	e3520000 	cmp	r2, #0
    95a0:	1352000a 	cmpne	r2, #10
    95a4:	0a00002c 	beq	965c <sscan_spi+0x31c>
    95a8:	e3520020 	cmp	r2, #32
    95ac:	0a00002a 	beq	965c <sscan_spi+0x31c>
    95b0:	e5d03005 	ldrb	r3, [r0, #5]
    95b4:	e5cd2002 	strb	r2, [sp, #2]
    95b8:	e353000a 	cmp	r3, #10
    95bc:	13530000 	cmpne	r3, #0
    95c0:	03a02003 	moveq	r2, #3
    95c4:	0a000025 	beq	9660 <sscan_spi+0x320>
    95c8:	e3a02002 	mov	r2, #2
    95cc:	e5dd3000 	ldrb	r3, [sp]
    95d0:	e2433030 	sub	r3, r3, #48	; 0x30
    95d4:	e6ef1073 	uxtb	r1, r3
    95d8:	e3510009 	cmp	r1, #9
    95dc:	8a00001a 	bhi	964c <sscan_spi+0x30c>
    95e0:	e3520000 	cmp	r2, #0
    95e4:	e6ff3073 	uxth	r3, r3
    95e8:	0a000011 	beq	9634 <sscan_spi+0x2f4>
    95ec:	e5dd1001 	ldrb	r1, [sp, #1]
    95f0:	e2410030 	sub	r0, r1, #48	; 0x30
    95f4:	e3500009 	cmp	r0, #9
    95f8:	8a000013 	bhi	964c <sscan_spi+0x30c>
    95fc:	e0833103 	add	r3, r3, r3, lsl #2
    9600:	e0813083 	add	r3, r1, r3, lsl #1
    9604:	e2433030 	sub	r3, r3, #48	; 0x30
    9608:	e3520001 	cmp	r2, #1
    960c:	e6ff3073 	uxth	r3, r3
    9610:	0a000007 	beq	9634 <sscan_spi+0x2f4>
    9614:	e5dd2002 	ldrb	r2, [sp, #2]
    9618:	e2421030 	sub	r1, r2, #48	; 0x30
    961c:	e3510009 	cmp	r1, #9
    9620:	90833103 	addls	r3, r3, r3, lsl #2
    9624:	90823083 	addls	r3, r2, r3, lsl #1
    9628:	92433030 	subls	r3, r3, #48	; 0x30
    962c:	96ff3073 	uxthls	r3, r3
    9630:	8a000005 	bhi	964c <sscan_spi+0x30c>
    9634:	e59d7024 	ldr	r7, [sp, #36]	; 0x24
    9638:	e3a00004 	mov	r0, #4
    963c:	e1c730b0 	strh	r3, [r7]
    9640:	e28dd008 	add	sp, sp, #8
    9644:	e8bd03f0 	pop	{r4, r5, r6, r7, r8, r9}
    9648:	e12fff1e 	bx	lr
    964c:	e3e00004 	mvn	r0, #4
    9650:	e28dd008 	add	sp, sp, #8
    9654:	e8bd03f0 	pop	{r4, r5, r6, r7, r8, r9}
    9658:	e12fff1e 	bx	lr
    965c:	e3a02002 	mov	r2, #2
    9660:	e2422001 	sub	r2, r2, #1
    9664:	eaffffd8 	b	95cc <sscan_spi+0x28c>
    9668:	e3a06000 	mov	r6, #0
    966c:	e1a08006 	mov	r8, r6
    9670:	eaffff6f 	b	9434 <sscan_spi+0xf4>
    9674:	e3a02001 	mov	r2, #1
    9678:	eafffff8 	b	9660 <sscan_spi+0x320>
    967c:	e1a06001 	mov	r6, r1
    9680:	e1a08001 	mov	r8, r1
    9684:	eaffff6a 	b	9434 <sscan_spi+0xf4>
    9688:	e352002c 	cmp	r2, #44	; 0x2c
    968c:	1affff83 	bne	94a0 <sscan_spi+0x160>
    9690:	e5dd3000 	ldrb	r3, [sp]
    9694:	e59d6020 	ldr	r6, [sp, #32]
    9698:	e3530039 	cmp	r3, #57	; 0x39
    969c:	83833020 	orrhi	r3, r3, #32
    96a0:	82433057 	subhi	r3, r3, #87	; 0x57
    96a4:	92433030 	subls	r3, r3, #48	; 0x30
    96a8:	e6ef3073 	uxtb	r3, r3
    96ac:	e5c63000 	strb	r3, [r6]
    96b0:	eaffffa5 	b	954c <sscan_spi+0x20c>
    96b4:	00495053 	subeq	r5, r9, r3, asr r0

000096b8 <rdm_send_data>:
    96b8:	e92d40f8 	push	{r3, r4, r5, r6, r7, lr}
    96bc:	e59f4084 	ldr	r4, [pc, #132]	; 9748 <rdm_send_data+0x90>
    96c0:	e3a03069 	mov	r3, #105	; 0x69
    96c4:	e584302c 	str	r3, [r4, #44]	; 0x2c
    96c8:	e1a06001 	mov	r6, r1
    96cc:	e1a07000 	mov	r7, r0
    96d0:	e3a01000 	mov	r1, #0
    96d4:	e3a000b0 	mov	r0, #176	; 0xb0
    96d8:	eb004378 	bl	1a4c0 <udelay>
    96dc:	e3a03068 	mov	r3, #104	; 0x68
    96e0:	e584302c 	str	r3, [r4, #44]	; 0x2c
    96e4:	e3a0000c 	mov	r0, #12
    96e8:	e3a01000 	mov	r1, #0
    96ec:	eb004373 	bl	1a4c0 <udelay>
    96f0:	e3560000 	cmp	r6, #0
    96f4:	11a0c004 	movne	ip, r4
    96f8:	13a04000 	movne	r4, #0
    96fc:	0a000009 	beq	9728 <rdm_send_data+0x70>
    9700:	e59c3018 	ldr	r3, [ip, #24]
    9704:	e59f203c 	ldr	r2, [pc, #60]	; 9748 <rdm_send_data+0x90>
    9708:	e3130020 	tst	r3, #32
    970c:	1afffffb 	bne	9700 <rdm_send_data+0x48>
    9710:	e7d73004 	ldrb	r3, [r7, r4]
    9714:	e2844001 	add	r4, r4, #1
    9718:	e6ff5074 	uxth	r5, r4
    971c:	e1560005 	cmp	r6, r5
    9720:	e5823000 	str	r3, [r2]
    9724:	8afffff5 	bhi	9700 <rdm_send_data+0x48>
    9728:	e59f2018 	ldr	r2, [pc, #24]	; 9748 <rdm_send_data+0x90>
    972c:	e5923018 	ldr	r3, [r2, #24]
    9730:	e3130020 	tst	r3, #32
    9734:	1afffffc 	bne	972c <rdm_send_data+0x74>
    9738:	e3a0002c 	mov	r0, #44	; 0x2c
    973c:	e3a01000 	mov	r1, #0
    9740:	e8bd40f8 	pop	{r3, r4, r5, r6, r7, lr}
    9744:	ea00435d 	b	1a4c0 <udelay>
    9748:	20201000 	eorcs	r1, r0, r0

0000974c <rdm_send_discovery_respond_message>:
    974c:	e92d40f8 	push	{r3, r4, r5, r6, r7, lr}
    9750:	e59f30b8 	ldr	r3, [pc, #184]	; 9810 <rdm_send_discovery_respond_message+0xc4>
    9754:	e1a06001 	mov	r6, r1
    9758:	e5934004 	ldr	r4, [r3, #4]
    975c:	e1a07000 	mov	r7, r0
    9760:	ebfffb08 	bl	8388 <rdm_get_data_receive_end>
    9764:	e3a01000 	mov	r1, #0
    9768:	e0600004 	rsb	r0, r0, r4
    976c:	e3510000 	cmp	r1, #0
    9770:	035000c7 	cmpeq	r0, #199	; 0xc7
    9774:	8a000004 	bhi	978c <rdm_send_discovery_respond_message+0x40>
    9778:	e3a040c8 	mov	r4, #200	; 0xc8
    977c:	e3a05000 	mov	r5, #0
    9780:	e0540000 	subs	r0, r4, r0
    9784:	e0c51001 	sbc	r1, r5, r1
    9788:	eb00434c 	bl	1a4c0 <udelay>
    978c:	e3a00001 	mov	r0, #1
    9790:	e3a01000 	mov	r1, #0
    9794:	ebfffcf2 	bl	8b64 <dmx_set_port_direction>
    9798:	e59fc074 	ldr	ip, [pc, #116]	; 9814 <rdm_send_discovery_respond_message+0xc8>
    979c:	e3560000 	cmp	r6, #0
    97a0:	e3a03068 	mov	r3, #104	; 0x68
    97a4:	e58c302c 	str	r3, [ip, #44]	; 0x2c
    97a8:	13a0e000 	movne	lr, #0
    97ac:	0a000009 	beq	97d8 <rdm_send_discovery_respond_message+0x8c>
    97b0:	e59c3018 	ldr	r3, [ip, #24]
    97b4:	e59f2058 	ldr	r2, [pc, #88]	; 9814 <rdm_send_discovery_respond_message+0xc8>
    97b8:	e3130020 	tst	r3, #32
    97bc:	1afffffb 	bne	97b0 <rdm_send_discovery_respond_message+0x64>
    97c0:	e7d7300e 	ldrb	r3, [r7, lr]
    97c4:	e28ee001 	add	lr, lr, #1
    97c8:	e6ff107e 	uxth	r1, lr
    97cc:	e1560001 	cmp	r6, r1
    97d0:	e5823000 	str	r3, [r2]
    97d4:	8afffff5 	bhi	97b0 <rdm_send_discovery_respond_message+0x64>
    97d8:	e59f2034 	ldr	r2, [pc, #52]	; 9814 <rdm_send_discovery_respond_message+0xc8>
    97dc:	e5923018 	ldr	r3, [r2, #24]
    97e0:	e3130020 	tst	r3, #32
    97e4:	1afffffc 	bne	97dc <rdm_send_discovery_respond_message+0x90>
    97e8:	e3a0002c 	mov	r0, #44	; 0x2c
    97ec:	e3a01000 	mov	r1, #0
    97f0:	eb004332 	bl	1a4c0 <udelay>
    97f4:	e3a00004 	mov	r0, #4
    97f8:	e3a01000 	mov	r1, #0
    97fc:	eb00432f 	bl	1a4c0 <udelay>
    9800:	e8bd40f8 	pop	{r3, r4, r5, r6, r7, lr}
    9804:	e3a00002 	mov	r0, #2
    9808:	e3a01001 	mov	r1, #1
    980c:	eafffcd4 	b	8b64 <dmx_set_port_direction>
    9810:	20003000 	andcs	r3, r0, r0
    9814:	20201000 	eorcs	r1, r0, r0

00009818 <rdm_send_respond_message_ack>:
    9818:	e3a03000 	mov	r3, #0
    981c:	e92d4070 	push	{r4, r5, r6, lr}
    9820:	e5c03010 	strb	r3, [r0, #16]
    9824:	e1a06000 	mov	r6, r0
    9828:	ebfffe08 	bl	9050 <rdm_device_info_get_uuid>
    982c:	e2864007 	add	r4, r6, #7
    9830:	e2861003 	add	r1, r6, #3
    9834:	e2803004 	add	r3, r0, #4
    9838:	e1500004 	cmp	r0, r4
    983c:	31510003 	cmpcc	r1, r3
    9840:	e2862009 	add	r2, r6, #9
    9844:	e286e00d 	add	lr, r6, #13
    9848:	e181c002 	orr	ip, r1, r2
    984c:	33a01000 	movcc	r1, #0
    9850:	23a01001 	movcs	r1, #1
    9854:	e150000e 	cmp	r0, lr
    9858:	31520003 	cmpcc	r2, r3
    985c:	33a03000 	movcc	r3, #0
    9860:	23a03001 	movcs	r3, #1
    9864:	e180c00c 	orr	ip, r0, ip
    9868:	e31c0003 	tst	ip, #3
    986c:	e0013003 	and	r3, r1, r3
    9870:	13a03000 	movne	r3, #0
    9874:	02033001 	andeq	r3, r3, #1
    9878:	e3530000 	cmp	r3, #0
    987c:	0a000058 	beq	99e4 <rdm_send_respond_message_ack+0x1cc>
    9880:	e5963009 	ldr	r3, [r6, #9]
    9884:	e5d6200d 	ldrb	r2, [r6, #13]
    9888:	e5863003 	str	r3, [r6, #3]
    988c:	e5903000 	ldr	r3, [r0]
    9890:	e5c62007 	strb	r2, [r6, #7]
    9894:	e5863009 	str	r3, [r6, #9]
    9898:	e5d02004 	ldrb	r2, [r0, #4]
    989c:	e5d6300e 	ldrb	r3, [r6, #14]
    98a0:	e5c6200d 	strb	r2, [r6, #13]
    98a4:	e5c63008 	strb	r3, [r6, #8]
    98a8:	e5d03005 	ldrb	r3, [r0, #5]
    98ac:	e5d6c002 	ldrb	ip, [r6, #2]
    98b0:	e5c6300e 	strb	r3, [r6, #14]
    98b4:	e5d63014 	ldrb	r3, [r6, #20]
    98b8:	e35c0000 	cmp	ip, #0
    98bc:	e2833001 	add	r3, r3, #1
    98c0:	e5c63014 	strb	r3, [r6, #20]
    98c4:	0a000059 	beq	9a30 <rdm_send_respond_message_ack+0x218>
    98c8:	e3a03000 	mov	r3, #0
    98cc:	e1a02003 	mov	r2, r3
    98d0:	e7d60003 	ldrb	r0, [r6, r3]
    98d4:	e2833001 	add	r3, r3, #1
    98d8:	e6ef1073 	uxtb	r1, r3
    98dc:	e0822000 	add	r2, r2, r0
    98e0:	e151000c 	cmp	r1, ip
    98e4:	e6ff2072 	uxth	r2, r2
    98e8:	3afffff8 	bcc	98d0 <rdm_send_respond_message_ack+0xb8>
    98ec:	e28c3001 	add	r3, ip, #1
    98f0:	e1a0000c 	mov	r0, ip
    98f4:	e6ef3073 	uxtb	r3, r3
    98f8:	e6ef1072 	uxtb	r1, r2
    98fc:	e1a0c422 	lsr	ip, r2, #8
    9900:	e59f2138 	ldr	r2, [pc, #312]	; 9a40 <rdm_send_respond_message_ack+0x228>
    9904:	e7c6c000 	strb	ip, [r6, r0]
    9908:	e7c61003 	strb	r1, [r6, r3]
    990c:	e5924004 	ldr	r4, [r2, #4]
    9910:	ebfffa9c 	bl	8388 <rdm_get_data_receive_end>
    9914:	e3a01000 	mov	r1, #0
    9918:	e0600004 	rsb	r0, r0, r4
    991c:	e3510000 	cmp	r1, #0
    9920:	035000c7 	cmpeq	r0, #199	; 0xc7
    9924:	9a000028 	bls	99cc <rdm_send_respond_message_ack+0x1b4>
    9928:	e59f5114 	ldr	r5, [pc, #276]	; 9a44 <rdm_send_respond_message_ack+0x22c>
    992c:	e3a00001 	mov	r0, #1
    9930:	e3a01000 	mov	r1, #0
    9934:	ebfffc8a 	bl	8b64 <dmx_set_port_direction>
    9938:	e3a03069 	mov	r3, #105	; 0x69
    993c:	e5d64002 	ldrb	r4, [r6, #2]
    9940:	e3a000b0 	mov	r0, #176	; 0xb0
    9944:	e585302c 	str	r3, [r5, #44]	; 0x2c
    9948:	e3a01000 	mov	r1, #0
    994c:	eb0042db 	bl	1a4c0 <udelay>
    9950:	e3a03068 	mov	r3, #104	; 0x68
    9954:	e3a01000 	mov	r1, #0
    9958:	e585302c 	str	r3, [r5, #44]	; 0x2c
    995c:	e3a0000c 	mov	r0, #12
    9960:	eb0042d6 	bl	1a4c0 <udelay>
    9964:	e2844002 	add	r4, r4, #2
    9968:	e1a01005 	mov	r1, r5
    996c:	e3a0c000 	mov	ip, #0
    9970:	e5913018 	ldr	r3, [r1, #24]
    9974:	e59f20c8 	ldr	r2, [pc, #200]	; 9a44 <rdm_send_respond_message_ack+0x22c>
    9978:	e3130020 	tst	r3, #32
    997c:	1afffffb 	bne	9970 <rdm_send_respond_message_ack+0x158>
    9980:	e7d6300c 	ldrb	r3, [r6, ip]
    9984:	e28cc001 	add	ip, ip, #1
    9988:	e6ff007c 	uxth	r0, ip
    998c:	e1500004 	cmp	r0, r4
    9990:	e5823000 	str	r3, [r2]
    9994:	3afffff5 	bcc	9970 <rdm_send_respond_message_ack+0x158>
    9998:	e5923018 	ldr	r3, [r2, #24]
    999c:	e3130020 	tst	r3, #32
    99a0:	1afffffc 	bne	9998 <rdm_send_respond_message_ack+0x180>
    99a4:	e3a0002c 	mov	r0, #44	; 0x2c
    99a8:	e3a01000 	mov	r1, #0
    99ac:	eb0042c3 	bl	1a4c0 <udelay>
    99b0:	e3a00004 	mov	r0, #4
    99b4:	e3a01000 	mov	r1, #0
    99b8:	eb0042c0 	bl	1a4c0 <udelay>
    99bc:	e8bd4070 	pop	{r4, r5, r6, lr}
    99c0:	e3a00002 	mov	r0, #2
    99c4:	e3a01001 	mov	r1, #1
    99c8:	eafffc65 	b	8b64 <dmx_set_port_direction>
    99cc:	e3a040c8 	mov	r4, #200	; 0xc8
    99d0:	e3a05000 	mov	r5, #0
    99d4:	e0540000 	subs	r0, r4, r0
    99d8:	e0c51001 	sbc	r1, r5, r1
    99dc:	eb0042b7 	bl	1a4c0 <udelay>
    99e0:	eaffffd0 	b	9928 <rdm_send_respond_message_ack+0x110>
    99e4:	e5d63009 	ldrb	r3, [r6, #9]
    99e8:	e5d6200a 	ldrb	r2, [r6, #10]
    99ec:	e5c63003 	strb	r3, [r6, #3]
    99f0:	e5d03000 	ldrb	r3, [r0]
    99f4:	e5c62004 	strb	r2, [r6, #4]
    99f8:	e5c63009 	strb	r3, [r6, #9]
    99fc:	e5d02001 	ldrb	r2, [r0, #1]
    9a00:	e5d6300b 	ldrb	r3, [r6, #11]
    9a04:	e5c6200a 	strb	r2, [r6, #10]
    9a08:	e5c63005 	strb	r3, [r6, #5]
    9a0c:	e5d02002 	ldrb	r2, [r0, #2]
    9a10:	e5d6300c 	ldrb	r3, [r6, #12]
    9a14:	e5c6200b 	strb	r2, [r6, #11]
    9a18:	e5c63006 	strb	r3, [r6, #6]
    9a1c:	e5d02003 	ldrb	r2, [r0, #3]
    9a20:	e5d6300d 	ldrb	r3, [r6, #13]
    9a24:	e5c6200c 	strb	r2, [r6, #12]
    9a28:	e5c63007 	strb	r3, [r6, #7]
    9a2c:	eaffff99 	b	9898 <rdm_send_respond_message_ack+0x80>
    9a30:	e1a0100c 	mov	r1, ip
    9a34:	e3a03001 	mov	r3, #1
    9a38:	e1a0000c 	mov	r0, ip
    9a3c:	eaffffaf 	b	9900 <rdm_send_respond_message_ack+0xe8>
    9a40:	20003000 	andcs	r3, r0, r0
    9a44:	20201000 	eorcs	r1, r0, r0

00009a48 <rdm_send_respond_message_nack>:
    9a48:	e92d4070 	push	{r4, r5, r6, lr}
    9a4c:	e3a03002 	mov	r3, #2
    9a50:	e1a06000 	mov	r6, r0
    9a54:	e3a0201a 	mov	r2, #26
    9a58:	e1a00421 	lsr	r0, r1, #8
    9a5c:	e5c61019 	strb	r1, [r6, #25]
    9a60:	e5c62002 	strb	r2, [r6, #2]
    9a64:	e5c63010 	strb	r3, [r6, #16]
    9a68:	e5c63017 	strb	r3, [r6, #23]
    9a6c:	e5c60018 	strb	r0, [r6, #24]
    9a70:	ebfffd76 	bl	9050 <rdm_device_info_get_uuid>
    9a74:	e2864007 	add	r4, r6, #7
    9a78:	e2861003 	add	r1, r6, #3
    9a7c:	e2803004 	add	r3, r0, #4
    9a80:	e1500004 	cmp	r0, r4
    9a84:	31510003 	cmpcc	r1, r3
    9a88:	e2862009 	add	r2, r6, #9
    9a8c:	e286e00d 	add	lr, r6, #13
    9a90:	e181c002 	orr	ip, r1, r2
    9a94:	33a01000 	movcc	r1, #0
    9a98:	23a01001 	movcs	r1, #1
    9a9c:	e150000e 	cmp	r0, lr
    9aa0:	31520003 	cmpcc	r2, r3
    9aa4:	33a03000 	movcc	r3, #0
    9aa8:	23a03001 	movcs	r3, #1
    9aac:	e180c00c 	orr	ip, r0, ip
    9ab0:	e31c0003 	tst	ip, #3
    9ab4:	e0013003 	and	r3, r1, r3
    9ab8:	13a03000 	movne	r3, #0
    9abc:	02033001 	andeq	r3, r3, #1
    9ac0:	e3530000 	cmp	r3, #0
    9ac4:	0a000058 	beq	9c2c <rdm_send_respond_message_nack+0x1e4>
    9ac8:	e5963009 	ldr	r3, [r6, #9]
    9acc:	e5d6200d 	ldrb	r2, [r6, #13]
    9ad0:	e5863003 	str	r3, [r6, #3]
    9ad4:	e5903000 	ldr	r3, [r0]
    9ad8:	e5c62007 	strb	r2, [r6, #7]
    9adc:	e5863009 	str	r3, [r6, #9]
    9ae0:	e5d02004 	ldrb	r2, [r0, #4]
    9ae4:	e5d6300e 	ldrb	r3, [r6, #14]
    9ae8:	e5c6200d 	strb	r2, [r6, #13]
    9aec:	e5c63008 	strb	r3, [r6, #8]
    9af0:	e5d03005 	ldrb	r3, [r0, #5]
    9af4:	e5d6c002 	ldrb	ip, [r6, #2]
    9af8:	e5c6300e 	strb	r3, [r6, #14]
    9afc:	e5d63014 	ldrb	r3, [r6, #20]
    9b00:	e35c0000 	cmp	ip, #0
    9b04:	e2833001 	add	r3, r3, #1
    9b08:	e5c63014 	strb	r3, [r6, #20]
    9b0c:	0a000059 	beq	9c78 <rdm_send_respond_message_nack+0x230>
    9b10:	e3a03000 	mov	r3, #0
    9b14:	e1a02003 	mov	r2, r3
    9b18:	e7d60003 	ldrb	r0, [r6, r3]
    9b1c:	e2833001 	add	r3, r3, #1
    9b20:	e6ef1073 	uxtb	r1, r3
    9b24:	e0822000 	add	r2, r2, r0
    9b28:	e151000c 	cmp	r1, ip
    9b2c:	e6ff2072 	uxth	r2, r2
    9b30:	3afffff8 	bcc	9b18 <rdm_send_respond_message_nack+0xd0>
    9b34:	e28c3001 	add	r3, ip, #1
    9b38:	e1a0000c 	mov	r0, ip
    9b3c:	e6ef3073 	uxtb	r3, r3
    9b40:	e6ef1072 	uxtb	r1, r2
    9b44:	e1a0c422 	lsr	ip, r2, #8
    9b48:	e59f2138 	ldr	r2, [pc, #312]	; 9c88 <rdm_send_respond_message_nack+0x240>
    9b4c:	e7c6c000 	strb	ip, [r6, r0]
    9b50:	e7c61003 	strb	r1, [r6, r3]
    9b54:	e5924004 	ldr	r4, [r2, #4]
    9b58:	ebfffa0a 	bl	8388 <rdm_get_data_receive_end>
    9b5c:	e3a01000 	mov	r1, #0
    9b60:	e0600004 	rsb	r0, r0, r4
    9b64:	e3510000 	cmp	r1, #0
    9b68:	035000c7 	cmpeq	r0, #199	; 0xc7
    9b6c:	9a000028 	bls	9c14 <rdm_send_respond_message_nack+0x1cc>
    9b70:	e59f5114 	ldr	r5, [pc, #276]	; 9c8c <rdm_send_respond_message_nack+0x244>
    9b74:	e3a00001 	mov	r0, #1
    9b78:	e3a01000 	mov	r1, #0
    9b7c:	ebfffbf8 	bl	8b64 <dmx_set_port_direction>
    9b80:	e3a03069 	mov	r3, #105	; 0x69
    9b84:	e5d64002 	ldrb	r4, [r6, #2]
    9b88:	e3a000b0 	mov	r0, #176	; 0xb0
    9b8c:	e585302c 	str	r3, [r5, #44]	; 0x2c
    9b90:	e3a01000 	mov	r1, #0
    9b94:	eb004249 	bl	1a4c0 <udelay>
    9b98:	e3a03068 	mov	r3, #104	; 0x68
    9b9c:	e3a01000 	mov	r1, #0
    9ba0:	e585302c 	str	r3, [r5, #44]	; 0x2c
    9ba4:	e3a0000c 	mov	r0, #12
    9ba8:	eb004244 	bl	1a4c0 <udelay>
    9bac:	e2844002 	add	r4, r4, #2
    9bb0:	e1a01005 	mov	r1, r5
    9bb4:	e3a0c000 	mov	ip, #0
    9bb8:	e5913018 	ldr	r3, [r1, #24]
    9bbc:	e59f20c8 	ldr	r2, [pc, #200]	; 9c8c <rdm_send_respond_message_nack+0x244>
    9bc0:	e3130020 	tst	r3, #32
    9bc4:	1afffffb 	bne	9bb8 <rdm_send_respond_message_nack+0x170>
    9bc8:	e7d6300c 	ldrb	r3, [r6, ip]
    9bcc:	e28cc001 	add	ip, ip, #1
    9bd0:	e6ff007c 	uxth	r0, ip
    9bd4:	e1500004 	cmp	r0, r4
    9bd8:	e5823000 	str	r3, [r2]
    9bdc:	3afffff5 	bcc	9bb8 <rdm_send_respond_message_nack+0x170>
    9be0:	e5923018 	ldr	r3, [r2, #24]
    9be4:	e3130020 	tst	r3, #32
    9be8:	1afffffc 	bne	9be0 <rdm_send_respond_message_nack+0x198>
    9bec:	e3a0002c 	mov	r0, #44	; 0x2c
    9bf0:	e3a01000 	mov	r1, #0
    9bf4:	eb004231 	bl	1a4c0 <udelay>
    9bf8:	e3a00004 	mov	r0, #4
    9bfc:	e3a01000 	mov	r1, #0
    9c00:	eb00422e 	bl	1a4c0 <udelay>
    9c04:	e8bd4070 	pop	{r4, r5, r6, lr}
    9c08:	e3a00002 	mov	r0, #2
    9c0c:	e3a01001 	mov	r1, #1
    9c10:	eafffbd3 	b	8b64 <dmx_set_port_direction>
    9c14:	e3a040c8 	mov	r4, #200	; 0xc8
    9c18:	e3a05000 	mov	r5, #0
    9c1c:	e0540000 	subs	r0, r4, r0
    9c20:	e0c51001 	sbc	r1, r5, r1
    9c24:	eb004225 	bl	1a4c0 <udelay>
    9c28:	eaffffd0 	b	9b70 <rdm_send_respond_message_nack+0x128>
    9c2c:	e5d63009 	ldrb	r3, [r6, #9]
    9c30:	e5d6200a 	ldrb	r2, [r6, #10]
    9c34:	e5c63003 	strb	r3, [r6, #3]
    9c38:	e5d03000 	ldrb	r3, [r0]
    9c3c:	e5c62004 	strb	r2, [r6, #4]
    9c40:	e5c63009 	strb	r3, [r6, #9]
    9c44:	e5d02001 	ldrb	r2, [r0, #1]
    9c48:	e5d6300b 	ldrb	r3, [r6, #11]
    9c4c:	e5c6200a 	strb	r2, [r6, #10]
    9c50:	e5c63005 	strb	r3, [r6, #5]
    9c54:	e5d02002 	ldrb	r2, [r0, #2]
    9c58:	e5d6300c 	ldrb	r3, [r6, #12]
    9c5c:	e5c6200b 	strb	r2, [r6, #11]
    9c60:	e5c63006 	strb	r3, [r6, #6]
    9c64:	e5d02003 	ldrb	r2, [r0, #3]
    9c68:	e5d6300d 	ldrb	r3, [r6, #13]
    9c6c:	e5c6200c 	strb	r2, [r6, #12]
    9c70:	e5c63007 	strb	r3, [r6, #7]
    9c74:	eaffff99 	b	9ae0 <rdm_send_respond_message_nack+0x98>
    9c78:	e1a0100c 	mov	r1, ip
    9c7c:	e3a03001 	mov	r3, #1
    9c80:	e1a0000c 	mov	r0, ip
    9c84:	eaffffaf 	b	9b48 <rdm_send_respond_message_nack+0x100>
    9c88:	20003000 	andcs	r3, r0, r0
    9c8c:	20201000 	eorcs	r1, r0, r0

00009c90 <rdm_send_respond_message_ack_timer>:
    9c90:	e92d4070 	push	{r4, r5, r6, lr}
    9c94:	e1a0c421 	lsr	ip, r1, #8
    9c98:	e1a06000 	mov	r6, r0
    9c9c:	e3a02001 	mov	r2, #1
    9ca0:	e3a03002 	mov	r3, #2
    9ca4:	e3a0001a 	mov	r0, #26
    9ca8:	e5c61019 	strb	r1, [r6, #25]
    9cac:	e5c6c018 	strb	ip, [r6, #24]
    9cb0:	e5c62010 	strb	r2, [r6, #16]
    9cb4:	e5c63017 	strb	r3, [r6, #23]
    9cb8:	e5c60002 	strb	r0, [r6, #2]
    9cbc:	ebfffce3 	bl	9050 <rdm_device_info_get_uuid>
    9cc0:	e2864007 	add	r4, r6, #7
    9cc4:	e2861003 	add	r1, r6, #3
    9cc8:	e2803004 	add	r3, r0, #4
    9ccc:	e1500004 	cmp	r0, r4
    9cd0:	31510003 	cmpcc	r1, r3
    9cd4:	e2862009 	add	r2, r6, #9
    9cd8:	e286e00d 	add	lr, r6, #13
    9cdc:	e181c002 	orr	ip, r1, r2
    9ce0:	33a01000 	movcc	r1, #0
    9ce4:	23a01001 	movcs	r1, #1
    9ce8:	e150000e 	cmp	r0, lr
    9cec:	31520003 	cmpcc	r2, r3
    9cf0:	33a03000 	movcc	r3, #0
    9cf4:	23a03001 	movcs	r3, #1
    9cf8:	e180c00c 	orr	ip, r0, ip
    9cfc:	e31c0003 	tst	ip, #3
    9d00:	e0013003 	and	r3, r1, r3
    9d04:	13a03000 	movne	r3, #0
    9d08:	02033001 	andeq	r3, r3, #1
    9d0c:	e3530000 	cmp	r3, #0
    9d10:	0a000058 	beq	9e78 <rdm_send_respond_message_ack_timer+0x1e8>
    9d14:	e5963009 	ldr	r3, [r6, #9]
    9d18:	e5d6200d 	ldrb	r2, [r6, #13]
    9d1c:	e5863003 	str	r3, [r6, #3]
    9d20:	e5903000 	ldr	r3, [r0]
    9d24:	e5c62007 	strb	r2, [r6, #7]
    9d28:	e5863009 	str	r3, [r6, #9]
    9d2c:	e5d02004 	ldrb	r2, [r0, #4]
    9d30:	e5d6300e 	ldrb	r3, [r6, #14]
    9d34:	e5c6200d 	strb	r2, [r6, #13]
    9d38:	e5c63008 	strb	r3, [r6, #8]
    9d3c:	e5d03005 	ldrb	r3, [r0, #5]
    9d40:	e5d6c002 	ldrb	ip, [r6, #2]
    9d44:	e5c6300e 	strb	r3, [r6, #14]
    9d48:	e5d63014 	ldrb	r3, [r6, #20]
    9d4c:	e35c0000 	cmp	ip, #0
    9d50:	e2833001 	add	r3, r3, #1
    9d54:	e5c63014 	strb	r3, [r6, #20]
    9d58:	0a000059 	beq	9ec4 <rdm_send_respond_message_ack_timer+0x234>
    9d5c:	e3a03000 	mov	r3, #0
    9d60:	e1a02003 	mov	r2, r3
    9d64:	e7d60003 	ldrb	r0, [r6, r3]
    9d68:	e2833001 	add	r3, r3, #1
    9d6c:	e6ef1073 	uxtb	r1, r3
    9d70:	e0822000 	add	r2, r2, r0
    9d74:	e151000c 	cmp	r1, ip
    9d78:	e6ff2072 	uxth	r2, r2
    9d7c:	3afffff8 	bcc	9d64 <rdm_send_respond_message_ack_timer+0xd4>
    9d80:	e28c3001 	add	r3, ip, #1
    9d84:	e1a0000c 	mov	r0, ip
    9d88:	e6ef3073 	uxtb	r3, r3
    9d8c:	e6ef1072 	uxtb	r1, r2
    9d90:	e1a0c422 	lsr	ip, r2, #8
    9d94:	e59f2138 	ldr	r2, [pc, #312]	; 9ed4 <rdm_send_respond_message_ack_timer+0x244>
    9d98:	e7c6c000 	strb	ip, [r6, r0]
    9d9c:	e7c61003 	strb	r1, [r6, r3]
    9da0:	e5924004 	ldr	r4, [r2, #4]
    9da4:	ebfff977 	bl	8388 <rdm_get_data_receive_end>
    9da8:	e3a01000 	mov	r1, #0
    9dac:	e0600004 	rsb	r0, r0, r4
    9db0:	e3510000 	cmp	r1, #0
    9db4:	035000c7 	cmpeq	r0, #199	; 0xc7
    9db8:	9a000028 	bls	9e60 <rdm_send_respond_message_ack_timer+0x1d0>
    9dbc:	e59f5114 	ldr	r5, [pc, #276]	; 9ed8 <rdm_send_respond_message_ack_timer+0x248>
    9dc0:	e3a00001 	mov	r0, #1
    9dc4:	e3a01000 	mov	r1, #0
    9dc8:	ebfffb65 	bl	8b64 <dmx_set_port_direction>
    9dcc:	e3a03069 	mov	r3, #105	; 0x69
    9dd0:	e5d64002 	ldrb	r4, [r6, #2]
    9dd4:	e3a000b0 	mov	r0, #176	; 0xb0
    9dd8:	e585302c 	str	r3, [r5, #44]	; 0x2c
    9ddc:	e3a01000 	mov	r1, #0
    9de0:	eb0041b6 	bl	1a4c0 <udelay>
    9de4:	e3a03068 	mov	r3, #104	; 0x68
    9de8:	e3a01000 	mov	r1, #0
    9dec:	e585302c 	str	r3, [r5, #44]	; 0x2c
    9df0:	e3a0000c 	mov	r0, #12
    9df4:	eb0041b1 	bl	1a4c0 <udelay>
    9df8:	e2844002 	add	r4, r4, #2
    9dfc:	e1a01005 	mov	r1, r5
    9e00:	e3a0c000 	mov	ip, #0
    9e04:	e5913018 	ldr	r3, [r1, #24]
    9e08:	e59f20c8 	ldr	r2, [pc, #200]	; 9ed8 <rdm_send_respond_message_ack_timer+0x248>
    9e0c:	e3130020 	tst	r3, #32
    9e10:	1afffffb 	bne	9e04 <rdm_send_respond_message_ack_timer+0x174>
    9e14:	e7d6300c 	ldrb	r3, [r6, ip]
    9e18:	e28cc001 	add	ip, ip, #1
    9e1c:	e6ff007c 	uxth	r0, ip
    9e20:	e1500004 	cmp	r0, r4
    9e24:	e5823000 	str	r3, [r2]
    9e28:	3afffff5 	bcc	9e04 <rdm_send_respond_message_ack_timer+0x174>
    9e2c:	e5923018 	ldr	r3, [r2, #24]
    9e30:	e3130020 	tst	r3, #32
    9e34:	1afffffc 	bne	9e2c <rdm_send_respond_message_ack_timer+0x19c>
    9e38:	e3a0002c 	mov	r0, #44	; 0x2c
    9e3c:	e3a01000 	mov	r1, #0
    9e40:	eb00419e 	bl	1a4c0 <udelay>
    9e44:	e3a00004 	mov	r0, #4
    9e48:	e3a01000 	mov	r1, #0
    9e4c:	eb00419b 	bl	1a4c0 <udelay>
    9e50:	e8bd4070 	pop	{r4, r5, r6, lr}
    9e54:	e3a00002 	mov	r0, #2
    9e58:	e3a01001 	mov	r1, #1
    9e5c:	eafffb40 	b	8b64 <dmx_set_port_direction>
    9e60:	e3a040c8 	mov	r4, #200	; 0xc8
    9e64:	e3a05000 	mov	r5, #0
    9e68:	e0540000 	subs	r0, r4, r0
    9e6c:	e0c51001 	sbc	r1, r5, r1
    9e70:	eb004192 	bl	1a4c0 <udelay>
    9e74:	eaffffd0 	b	9dbc <rdm_send_respond_message_ack_timer+0x12c>
    9e78:	e5d63009 	ldrb	r3, [r6, #9]
    9e7c:	e5d6200a 	ldrb	r2, [r6, #10]
    9e80:	e5c63003 	strb	r3, [r6, #3]
    9e84:	e5d03000 	ldrb	r3, [r0]
    9e88:	e5c62004 	strb	r2, [r6, #4]
    9e8c:	e5c63009 	strb	r3, [r6, #9]
    9e90:	e5d02001 	ldrb	r2, [r0, #1]
    9e94:	e5d6300b 	ldrb	r3, [r6, #11]
    9e98:	e5c6200a 	strb	r2, [r6, #10]
    9e9c:	e5c63005 	strb	r3, [r6, #5]
    9ea0:	e5d02002 	ldrb	r2, [r0, #2]
    9ea4:	e5d6300c 	ldrb	r3, [r6, #12]
    9ea8:	e5c6200b 	strb	r2, [r6, #11]
    9eac:	e5c63006 	strb	r3, [r6, #6]
    9eb0:	e5d02003 	ldrb	r2, [r0, #3]
    9eb4:	e5d6300d 	ldrb	r3, [r6, #13]
    9eb8:	e5c6200c 	strb	r2, [r6, #12]
    9ebc:	e5c63007 	strb	r3, [r6, #7]
    9ec0:	eaffff99 	b	9d2c <rdm_send_respond_message_ack_timer+0x9c>
    9ec4:	e1a0100c 	mov	r1, ip
    9ec8:	e3a03001 	mov	r3, #1
    9ecc:	e1a0000c 	mov	r0, ip
    9ed0:	eaffffaf 	b	9d94 <rdm_send_respond_message_ack_timer+0x104>
    9ed4:	20003000 	andcs	r3, r0, r0
    9ed8:	20201000 	eorcs	r1, r0, r0

00009edc <rdm_send_increment_message_count>:
    9edc:	e59f3010 	ldr	r3, [pc, #16]	; 9ef4 <rdm_send_increment_message_count+0x18>
    9ee0:	e5d32000 	ldrb	r2, [r3]
    9ee4:	e35200ff 	cmp	r2, #255	; 0xff
    9ee8:	12822001 	addne	r2, r2, #1
    9eec:	15c32000 	strbne	r2, [r3]
    9ef0:	e12fff1e 	bx	lr
    9ef4:	00021518 	andeq	r1, r2, r8, lsl r5

00009ef8 <rdm_send_decrement_message_count>:
    9ef8:	e59f3010 	ldr	r3, [pc, #16]	; 9f10 <rdm_send_decrement_message_count+0x18>
    9efc:	e5d32000 	ldrb	r2, [r3]
    9f00:	e3520000 	cmp	r2, #0
    9f04:	12422001 	subne	r2, r2, #1
    9f08:	15c32000 	strbne	r2, [r3]
    9f0c:	e12fff1e 	bx	lr
    9f10:	00021518 	andeq	r1, r2, r8, lsl r5

00009f14 <monitor_line>:
    9f14:	e92d000e 	push	{r1, r2, r3}
    9f18:	e92d4010 	push	{r4, lr}
    9f1c:	e24dd00c 	sub	sp, sp, #12
    9f20:	e59d4014 	ldr	r4, [sp, #20]
    9f24:	eb0008ec 	bl	c2dc <console_clear_line>
    9f28:	e3540000 	cmp	r4, #0
    9f2c:	0a000004 	beq	9f44 <monitor_line+0x30>
    9f30:	e28d3018 	add	r3, sp, #24
    9f34:	e1a00004 	mov	r0, r4
    9f38:	e1a01003 	mov	r1, r3
    9f3c:	e58d3004 	str	r3, [sp, #4]
    9f40:	eb000981 	bl	c54c <vprintf>
    9f44:	e28dd00c 	add	sp, sp, #12
    9f48:	e8bd4010 	pop	{r4, lr}
    9f4c:	e28dd00c 	add	sp, sp, #12
    9f50:	e12fff1e 	bx	lr

00009f54 <monitor_time_uptime>:
    9f54:	e92d41f0 	push	{r4, r5, r6, r7, r8, lr}
    9f58:	e24dd018 	sub	sp, sp, #24
    9f5c:	e1a08000 	mov	r8, r0
    9f60:	eb003ca6 	bl	19200 <hardware_uptime_seconds>
    9f64:	e3a07000 	mov	r7, #0
    9f68:	e1a04000 	mov	r4, r0
    9f6c:	e1a00007 	mov	r0, r7
    9f70:	e1a05001 	mov	r5, r1
    9f74:	e58d7014 	str	r7, [sp, #20]
    9f78:	eb003e0f 	bl	197bc <sys_time>
    9f7c:	e28d3018 	add	r3, sp, #24
    9f80:	e5230004 	str	r0, [r3, #-4]!
    9f84:	e1a00003 	mov	r0, r3
    9f88:	eb00415a 	bl	1a4f8 <localtime>
    9f8c:	e1a01008 	mov	r1, r8
    9f90:	e1a06000 	mov	r6, r0
    9f94:	e1a00007 	mov	r0, r7
    9f98:	eb0008be 	bl	c298 <console_set_cursor>
    9f9c:	e1a00004 	mov	r0, r4
    9fa0:	e1a01005 	mov	r1, r5
    9fa4:	e59f2084 	ldr	r2, [pc, #132]	; a030 <monitor_time_uptime+0xdc>
    9fa8:	e3a03000 	mov	r3, #0
    9fac:	eb004ad4 	bl	1cb04 <__aeabi_uldivmod>
    9fb0:	e89601c0 	ldm	r6, {r6, r7, r8}
    9fb4:	e1a01005 	mov	r1, r5
    9fb8:	e58d0000 	str	r0, [sp]
    9fbc:	e59f206c 	ldr	r2, [pc, #108]	; a030 <monitor_time_uptime+0xdc>
    9fc0:	e1a00004 	mov	r0, r4
    9fc4:	e3a03000 	mov	r3, #0
    9fc8:	eb004acd 	bl	1cb04 <__aeabi_uldivmod>
    9fcc:	e59f3060 	ldr	r3, [pc, #96]	; a034 <monitor_time_uptime+0xe0>
    9fd0:	e1a01005 	mov	r1, r5
    9fd4:	e08c0293 	umull	r0, ip, r3, r2
    9fd8:	e1a00004 	mov	r0, r4
    9fdc:	e1a0c5ac 	lsr	ip, ip, #11
    9fe0:	e3a02ee1 	mov	r2, #3600	; 0xe10
    9fe4:	e3a03000 	mov	r3, #0
    9fe8:	e58dc004 	str	ip, [sp, #4]
    9fec:	eb004ac4 	bl	1cb04 <__aeabi_uldivmod>
    9ff0:	e59fc040 	ldr	ip, [pc, #64]	; a038 <monitor_time_uptime+0xe4>
    9ff4:	e1a01008 	mov	r1, r8
    9ff8:	e080349c 	umull	r3, r0, ip, r4
    9ffc:	e08c329c 	umull	r3, ip, ip, r2
    a000:	e1a002a0 	lsr	r0, r0, #5
    a004:	e0600200 	rsb	r0, r0, r0, lsl #4
    a008:	e0444100 	sub	r4, r4, r0, lsl #2
    a00c:	e1a0c2ac 	lsr	ip, ip, #5
    a010:	e1a02007 	mov	r2, r7
    a014:	e1a03006 	mov	r3, r6
    a018:	e58d400c 	str	r4, [sp, #12]
    a01c:	e58dc008 	str	ip, [sp, #8]
    a020:	e59f0014 	ldr	r0, [pc, #20]	; a03c <monitor_time_uptime+0xe8>
    a024:	eb000b37 	bl	cd08 <printf>
    a028:	e28dd018 	add	sp, sp, #24
    a02c:	e8bd81f0 	pop	{r4, r5, r6, r7, r8, pc}
    a030:	00015180 	andeq	r5, r1, r0, lsl #3
    a034:	91a2b3c5 			; <UNDEFINED> instruction: 0x91a2b3c5
    a038:	88888889 	stmhi	r8, {r0, r3, r7, fp, pc}
    a03c:	0001ded0 	ldrdeq	sp, [r1], -r0

0000a040 <monitor_rdm_data>:
    a040:	e92d41f0 	push	{r4, r5, r6, r7, r8, lr}
    a044:	e1a04001 	mov	r4, r1
    a048:	e24dd028 	sub	sp, sp, #40	; 0x28
    a04c:	e1a06002 	mov	r6, r2
    a050:	eb0008a1 	bl	c2dc <console_clear_line>
    a054:	e1a01004 	mov	r1, r4
    a058:	e59f0078 	ldr	r0, [pc, #120]	; a0d8 <monitor_rdm_data+0x98>
    a05c:	eb000b29 	bl	cd08 <printf>
    a060:	e1a04006 	mov	r4, r6
    a064:	e3a03000 	mov	r3, #0
    a068:	ea000000 	b	a070 <monitor_rdm_data+0x30>
    a06c:	e1a03005 	mov	r3, r5
    a070:	e5d40012 	ldrb	r0, [r4, #18]
    a074:	e5d4101b 	ldrb	r1, [r4, #27]
    a078:	e7d62003 	ldrb	r2, [r6, r3]
    a07c:	e5d4c009 	ldrb	ip, [r4, #9]
    a080:	e2835001 	add	r5, r3, #1
    a084:	e283e01c 	add	lr, r3, #28
    a088:	e283800a 	add	r8, r3, #10
    a08c:	e2837013 	add	r7, r3, #19
    a090:	e58d0010 	str	r0, [sp, #16]
    a094:	e58d0014 	str	r0, [sp, #20]
    a098:	e58d101c 	str	r1, [sp, #28]
    a09c:	e58d1020 	str	r1, [sp, #32]
    a0a0:	e1a03002 	mov	r3, r2
    a0a4:	e58dc004 	str	ip, [sp, #4]
    a0a8:	e58dc008 	str	ip, [sp, #8]
    a0ac:	e1a01005 	mov	r1, r5
    a0b0:	e58d8000 	str	r8, [sp]
    a0b4:	e58d700c 	str	r7, [sp, #12]
    a0b8:	e58de018 	str	lr, [sp, #24]
    a0bc:	e59f0018 	ldr	r0, [pc, #24]	; a0dc <monitor_rdm_data+0x9c>
    a0c0:	eb000b10 	bl	cd08 <printf>
    a0c4:	e3550009 	cmp	r5, #9
    a0c8:	e2844001 	add	r4, r4, #1
    a0cc:	1affffe6 	bne	a06c <monitor_rdm_data+0x2c>
    a0d0:	e28dd028 	add	sp, sp, #40	; 0x28
    a0d4:	e8bd81f0 	pop	{r4, r5, r6, r7, r8, pc}
    a0d8:	0001df10 	andeq	sp, r1, r0, lsl pc
    a0dc:	0001df28 	andeq	sp, r1, r8, lsr #30

0000a0e0 <monitor_dmx_data>:
    a0e0:	e92d4070 	push	{r4, r5, r6, lr}
    a0e4:	e1a04000 	mov	r4, r0
    a0e8:	e1a05001 	mov	r5, r1
    a0ec:	ebfff8a1 	bl	8378 <dmx_get_port_direction>
    a0f0:	e3500002 	cmp	r0, #2
    a0f4:	0a000036 	beq	a1d4 <monitor_dmx_data+0xf4>
    a0f8:	ebfff838 	bl	81e0 <dmx_get_send_data_length>
    a0fc:	e1a06000 	mov	r6, r0
    a100:	e1a01004 	mov	r1, r4
    a104:	e3a00000 	mov	r0, #0
    a108:	e3560021 	cmp	r6, #33	; 0x21
    a10c:	23a06021 	movcs	r6, #33	; 0x21
    a110:	eb000860 	bl	c298 <console_set_cursor>
    a114:	e6ff6076 	uxth	r6, r6
    a118:	e59f00e8 	ldr	r0, [pc, #232]	; a208 <monitor_dmx_data+0x128>
    a11c:	eb0007da 	bl	c08c <console_puts>
    a120:	e3560001 	cmp	r6, #1
    a124:	83a04001 	movhi	r4, #1
    a128:	8a00000d 	bhi	a164 <monitor_dmx_data+0x84>
    a12c:	ea00002d 	b	a1e8 <monitor_dmx_data+0x108>
    a130:	e353005c 	cmp	r3, #92	; 0x5c
    a134:	83a01000 	movhi	r1, #0
    a138:	93e01000 	mvnls	r1, #0
    a13c:	e6ff1071 	uxth	r1, r1
    a140:	eb0007e9 	bl	c0ec <console_puthex_fg_bg>
    a144:	e3540010 	cmp	r4, #16
    a148:	e3a00020 	mov	r0, #32
    a14c:	0a000027 	beq	a1f0 <monitor_dmx_data+0x110>
    a150:	eb00070a 	bl	bd80 <console_putc>
    a154:	e2844001 	add	r4, r4, #1
    a158:	e6ff4074 	uxth	r4, r4
    a15c:	e1540006 	cmp	r4, r6
    a160:	0a00000b 	beq	a194 <monitor_dmx_data+0xb4>
    a164:	e5f53001 	ldrb	r3, [r5, #1]!
    a168:	e1a02123 	lsr	r2, r3, #2
    a16c:	e1a0c1a3 	lsr	ip, r3, #3
    a170:	e1a02282 	lsl	r2, r2, #5
    a174:	e182258c 	orr	r2, r2, ip, lsl #11
    a178:	e3530000 	cmp	r3, #0
    a17c:	e1a00003 	mov	r0, r3
    a180:	e182200c 	orr	r2, r2, ip
    a184:	1affffe9 	bne	a130 <monitor_dmx_data+0x50>
    a188:	e59f007c 	ldr	r0, [pc, #124]	; a20c <monitor_dmx_data+0x12c>
    a18c:	eb0007be 	bl	c08c <console_puts>
    a190:	eaffffeb 	b	a144 <monitor_dmx_data+0x64>
    a194:	e3560021 	cmp	r6, #33	; 0x21
    a198:	08bd8070 	popeq	{r4, r5, r6, pc}
    a19c:	e2864001 	add	r4, r6, #1
    a1a0:	e6ff4074 	uxth	r4, r4
    a1a4:	ea000001 	b	a1b0 <monitor_dmx_data+0xd0>
    a1a8:	e2844001 	add	r4, r4, #1
    a1ac:	e6ff4074 	uxth	r4, r4
    a1b0:	e59f0058 	ldr	r0, [pc, #88]	; a210 <monitor_dmx_data+0x130>
    a1b4:	eb0007b4 	bl	c08c <console_puts>
    a1b8:	e3540011 	cmp	r4, #17
    a1bc:	e3a00020 	mov	r0, #32
    a1c0:	0a00000d 	beq	a1fc <monitor_dmx_data+0x11c>
    a1c4:	eb0006ed 	bl	bd80 <console_putc>
    a1c8:	e3540020 	cmp	r4, #32
    a1cc:	9afffff5 	bls	a1a8 <monitor_dmx_data+0xc8>
    a1d0:	e8bd8070 	pop	{r4, r5, r6, pc}
    a1d4:	ebfff81c 	bl	824c <dmx_get_statistics>
    a1d8:	e5906004 	ldr	r6, [r0, #4]
    a1dc:	e2866001 	add	r6, r6, #1
    a1e0:	e6ff6076 	uxth	r6, r6
    a1e4:	eaffffc5 	b	a100 <monitor_dmx_data+0x20>
    a1e8:	e3a06001 	mov	r6, #1
    a1ec:	eaffffea 	b	a19c <monitor_dmx_data+0xbc>
    a1f0:	e59f001c 	ldr	r0, [pc, #28]	; a214 <monitor_dmx_data+0x134>
    a1f4:	eb0007a4 	bl	c08c <console_puts>
    a1f8:	eaffffd5 	b	a154 <monitor_dmx_data+0x74>
    a1fc:	e59f0010 	ldr	r0, [pc, #16]	; a214 <monitor_dmx_data+0x134>
    a200:	eb0007a1 	bl	c08c <console_puts>
    a204:	eaffffe7 	b	a1a8 <monitor_dmx_data+0xc8>
    a208:	0001df68 	andeq	sp, r1, r8, ror #30
    a20c:	0001df74 	andeq	sp, r1, r4, ror pc
    a210:	0001df84 	andeq	sp, r1, r4, lsl #31
    a214:	0001df78 	andeq	sp, r1, r8, ror pc

0000a218 <monitor_sniffer>:
    a218:	e92d4ff0 	push	{r4, r5, r6, r7, r8, r9, sl, fp, lr}
    a21c:	e24dd004 	sub	sp, sp, #4
    a220:	ebfff89e 	bl	84a0 <dmx_get_total_statistics>
    a224:	e8900048 	ldm	r0, {r3, r6}
    a228:	e1a04000 	mov	r4, r0
    a22c:	e0866003 	add	r6, r6, r3
    a230:	ebfff805 	bl	824c <dmx_get_statistics>
    a234:	e59f1144 	ldr	r1, [pc, #324]	; a380 <monitor_sniffer+0x168>
    a238:	e1a05000 	mov	r5, r0
    a23c:	e3a0000b 	mov	r0, #11
    a240:	ebffffa6 	bl	a0e0 <monitor_dmx_data>
    a244:	e3a0000e 	mov	r0, #14
    a248:	eb000823 	bl	c2dc <console_clear_line>
    a24c:	e894000c 	ldm	r4, {r2, r3}
    a250:	e1a01006 	mov	r1, r6
    a254:	e59f0128 	ldr	r0, [pc, #296]	; a384 <monitor_sniffer+0x16c>
    a258:	eb000aaa 	bl	cd08 <printf>
    a25c:	eb0001b9 	bl	a948 <rdm_statistics_get>
    a260:	e1a04000 	mov	r4, r0
    a264:	e5901000 	ldr	r1, [r0]
    a268:	e59f0118 	ldr	r0, [pc, #280]	; a388 <monitor_sniffer+0x170>
    a26c:	eb000aa5 	bl	cd08 <printf>
    a270:	e5941004 	ldr	r1, [r4, #4]
    a274:	e59f0110 	ldr	r0, [pc, #272]	; a38c <monitor_sniffer+0x174>
    a278:	eb000aa2 	bl	cd08 <printf>
    a27c:	e5941008 	ldr	r1, [r4, #8]
    a280:	e59f0108 	ldr	r0, [pc, #264]	; a390 <monitor_sniffer+0x178>
    a284:	eb000a9f 	bl	cd08 <printf>
    a288:	e594100c 	ldr	r1, [r4, #12]
    a28c:	e59f0100 	ldr	r0, [pc, #256]	; a394 <monitor_sniffer+0x17c>
    a290:	eb000a9c 	bl	cd08 <printf>
    a294:	e595100c 	ldr	r1, [r5, #12]
    a298:	e59f00f8 	ldr	r0, [pc, #248]	; a398 <monitor_sniffer+0x180>
    a29c:	eb000a99 	bl	cd08 <printf>
    a2a0:	e595300c 	ldr	r3, [r5, #12]
    a2a4:	e3530000 	cmp	r3, #0
    a2a8:	1a000007 	bne	a2cc <monitor_sniffer+0xb4>
    a2ac:	e59f00e8 	ldr	r0, [pc, #232]	; a39c <monitor_sniffer+0x184>
    a2b0:	eb000775 	bl	c08c <console_puts>
    a2b4:	e59f00e4 	ldr	r0, [pc, #228]	; a3a0 <monitor_sniffer+0x188>
    a2b8:	eb000773 	bl	c08c <console_puts>
    a2bc:	e59f00e0 	ldr	r0, [pc, #224]	; a3a4 <monitor_sniffer+0x18c>
    a2c0:	e28dd004 	add	sp, sp, #4
    a2c4:	e8bd4ff0 	pop	{r4, r5, r6, r7, r8, r9, sl, fp, lr}
    a2c8:	ea00076f 	b	c08c <console_puts>
    a2cc:	e59f60d4 	ldr	r6, [pc, #212]	; a3a8 <monitor_sniffer+0x190>
    a2d0:	e59f40d4 	ldr	r4, [pc, #212]	; a3ac <monitor_sniffer+0x194>
    a2d4:	e5951004 	ldr	r1, [r5, #4]
    a2d8:	e596e000 	ldr	lr, [r6]
    a2dc:	e594c000 	ldr	ip, [r4]
    a2e0:	e5960004 	ldr	r0, [r6, #4]
    a2e4:	e5958010 	ldr	r8, [r5, #16]
    a2e8:	e151000e 	cmp	r1, lr
    a2ec:	31a0e001 	movcc	lr, r1
    a2f0:	e151000c 	cmp	r1, ip
    a2f4:	21a0c001 	movcs	ip, r1
    a2f8:	e5957008 	ldr	r7, [r5, #8]
    a2fc:	e594b004 	ldr	fp, [r4, #4]
    a300:	e596a008 	ldr	sl, [r6, #8]
    a304:	e5949008 	ldr	r9, [r4, #8]
    a308:	e1a0200e 	mov	r2, lr
    a30c:	e1a0300c 	mov	r3, ip
    a310:	e1500008 	cmp	r0, r8
    a314:	95860004 	strls	r0, [r6, #4]
    a318:	85868004 	strhi	r8, [r6, #4]
    a31c:	e59f008c 	ldr	r0, [pc, #140]	; a3b0 <monitor_sniffer+0x198>
    a320:	e586e000 	str	lr, [r6]
    a324:	e584c000 	str	ip, [r4]
    a328:	e15b0008 	cmp	fp, r8
    a32c:	2584b004 	strcs	fp, [r4, #4]
    a330:	35848004 	strcc	r8, [r4, #4]
    a334:	e15a0007 	cmp	sl, r7
    a338:	9586a008 	strls	sl, [r6, #8]
    a33c:	85867008 	strhi	r7, [r6, #8]
    a340:	e1590007 	cmp	r9, r7
    a344:	25849008 	strcs	r9, [r4, #8]
    a348:	35847008 	strcc	r7, [r4, #8]
    a34c:	eb000a6d 	bl	cd08 <printf>
    a350:	e5962004 	ldr	r2, [r6, #4]
    a354:	e5943004 	ldr	r3, [r4, #4]
    a358:	e5951010 	ldr	r1, [r5, #16]
    a35c:	e59f0050 	ldr	r0, [pc, #80]	; a3b4 <monitor_sniffer+0x19c>
    a360:	eb000a68 	bl	cd08 <printf>
    a364:	e5962008 	ldr	r2, [r6, #8]
    a368:	e5943008 	ldr	r3, [r4, #8]
    a36c:	e5951008 	ldr	r1, [r5, #8]
    a370:	e59f0040 	ldr	r0, [pc, #64]	; a3b8 <monitor_sniffer+0x1a0>
    a374:	e28dd004 	add	sp, sp, #4
    a378:	e8bd4ff0 	pop	{r4, r5, r6, r7, r8, r9, sl, fp, lr}
    a37c:	ea000a61 	b	cd08 <printf>
    a380:	000218cc 	andeq	r1, r2, ip, asr #17
    a384:	0001df88 	andeq	sp, r1, r8, lsl #31
    a388:	0001dfac 	andeq	sp, r1, ip, lsr #31
    a38c:	0001dfc8 	andeq	sp, r1, r8, asr #31
    a390:	0001dfe4 	andeq	sp, r1, r4, ror #31
    a394:	0001e000 	andeq	lr, r1, r0
    a398:	0001e01c 	andeq	lr, r1, ip, lsl r0
    a39c:	0001e0a4 	andeq	lr, r1, r4, lsr #1
    a3a0:	0001e0c0 	andeq	lr, r1, r0, asr #1
    a3a4:	0001e0dc 	ldrdeq	lr, [r1], -ip
    a3a8:	0001e9bc 			; <UNDEFINED> instruction: 0x0001e9bc
    a3ac:	0002151c 	andeq	r1, r2, ip, lsl r5
    a3b0:	0001e034 	andeq	lr, r1, r4, lsr r0
    a3b4:	0001e05c 	andeq	lr, r1, ip, asr r0
    a3b8:	0001e084 	andeq	lr, r1, r4, lsl #1

0000a3bc <usb_send_header>:
    a3bc:	e92d4038 	push	{r3, r4, r5, lr}
    a3c0:	e1a05000 	mov	r5, r0
    a3c4:	e3a0007e 	mov	r0, #126	; 0x7e
    a3c8:	e1a04001 	mov	r4, r1
    a3cc:	eb003d13 	bl	19820 <usb_send_byte>
    a3d0:	e1a00005 	mov	r0, r5
    a3d4:	eb003d11 	bl	19820 <usb_send_byte>
    a3d8:	e6ef0074 	uxtb	r0, r4
    a3dc:	eb003d0f 	bl	19820 <usb_send_byte>
    a3e0:	e1a00424 	lsr	r0, r4, #8
    a3e4:	e8bd4038 	pop	{r3, r4, r5, lr}
    a3e8:	ea003d0c 	b	19820 <usb_send_byte>

0000a3ec <usb_send_data>:
    a3ec:	e3510000 	cmp	r1, #0
    a3f0:	e92d4038 	push	{r3, r4, r5, lr}
    a3f4:	08bd8038 	popeq	{r3, r4, r5, pc}
    a3f8:	e2415001 	sub	r5, r1, #1
    a3fc:	e6f05075 	uxtah	r5, r0, r5
    a400:	e2404001 	sub	r4, r0, #1
    a404:	e5f40001 	ldrb	r0, [r4, #1]!
    a408:	eb003d04 	bl	19820 <usb_send_byte>
    a40c:	e1540005 	cmp	r4, r5
    a410:	1afffffb 	bne	a404 <usb_send_data+0x18>
    a414:	e8bd8038 	pop	{r3, r4, r5, pc}

0000a418 <usb_send_footer>:
    a418:	e3a000e7 	mov	r0, #231	; 0xe7
    a41c:	ea003cff 	b	19820 <usb_send_byte>

0000a420 <usb_send_message>:
    a420:	e92d4070 	push	{r4, r5, r6, lr}
    a424:	e1a06000 	mov	r6, r0
    a428:	e3a0007e 	mov	r0, #126	; 0x7e
    a42c:	e1a05002 	mov	r5, r2
    a430:	e1a04001 	mov	r4, r1
    a434:	eb003cf9 	bl	19820 <usb_send_byte>
    a438:	e1a00006 	mov	r0, r6
    a43c:	eb003cf7 	bl	19820 <usb_send_byte>
    a440:	e6ef0075 	uxtb	r0, r5
    a444:	eb003cf5 	bl	19820 <usb_send_byte>
    a448:	e1a00425 	lsr	r0, r5, #8
    a44c:	eb003cf3 	bl	19820 <usb_send_byte>
    a450:	e3550000 	cmp	r5, #0
    a454:	12455001 	subne	r5, r5, #1
    a458:	16f45075 	uxtahne	r5, r4, r5
    a45c:	12444001 	subne	r4, r4, #1
    a460:	0a000003 	beq	a474 <usb_send_message+0x54>
    a464:	e5f40001 	ldrb	r0, [r4, #1]!
    a468:	eb003cec 	bl	19820 <usb_send_byte>
    a46c:	e1540005 	cmp	r4, r5
    a470:	1afffffb 	bne	a464 <usb_send_message+0x44>
    a474:	e3a000e7 	mov	r0, #231	; 0xe7
    a478:	e8bd4070 	pop	{r4, r5, r6, lr}
    a47c:	ea003ce7 	b	19820 <usb_send_byte>

0000a480 <monitor_update>:
    a480:	e92d47f0 	push	{r4, r5, r6, r7, r8, r9, sl, lr}
    a484:	ed2d8b02 	vpush	{d8}
    a488:	e24dd020 	sub	sp, sp, #32
    a48c:	eb000228 	bl	ad34 <widget_get_mode>
    a490:	e1a04000 	mov	r4, r0
    a494:	e28d0018 	add	r0, sp, #24
    a498:	eb0000af 	bl	a75c <widget_params_get>
    a49c:	e3a00003 	mov	r0, #3
    a4a0:	ebfffeab 	bl	9f54 <monitor_time_uptime>
    a4a4:	e3a00007 	mov	r0, #7
    a4a8:	eb00078b 	bl	c2dc <console_clear_line>
    a4ac:	e3540003 	cmp	r4, #3
    a4b0:	0a00003f 	beq	a5b4 <monitor_update+0x134>
    a4b4:	e3a00004 	mov	r0, #4
    a4b8:	eb000787 	bl	c2dc <console_clear_line>
    a4bc:	e5dd6019 	ldrb	r6, [sp, #25]
    a4c0:	e5dd5018 	ldrb	r5, [sp, #24]
    a4c4:	e5dd401a 	ldrb	r4, [sp, #26]
    a4c8:	ebfff7b2 	bl	8398 <dmx_get_output_break_time>
    a4cc:	e5dd901b 	ldrb	r9, [sp, #27]
    a4d0:	e1a0a000 	mov	sl, r0
    a4d4:	ebfff7cd 	bl	8410 <dmx_get_output_mab_time>
    a4d8:	e5dd701c 	ldrb	r7, [sp, #28]
    a4dc:	e1a08000 	mov	r8, r0
    a4e0:	ebfff71a 	bl	8150 <dmx_get_output_period>
    a4e4:	ee060a90 	vmov	s13, r0
    a4e8:	ed9f8b3e 	vldr	d8, [pc, #248]	; a5e8 <monitor_update+0x168>
    a4ec:	eeb87b66 	vcvt.f64.u32	d7, s13
    a4f0:	ee887b07 	vdiv.f64	d7, d8, d7
    a4f4:	eebd7bc7 	vcvt.s32.f64	s14, d7
    a4f8:	e1a01006 	mov	r1, r6
    a4fc:	e1a02005 	mov	r2, r5
    a500:	e1a03004 	mov	r3, r4
    a504:	ed8d7a04 	vstr	s14, [sp, #16]
    a508:	e58da000 	str	sl, [sp]
    a50c:	e58d9004 	str	r9, [sp, #4]
    a510:	e58d8008 	str	r8, [sp, #8]
    a514:	e58d700c 	str	r7, [sp, #12]
    a518:	e59f00d0 	ldr	r0, [pc, #208]	; a5f0 <monitor_update+0x170>
    a51c:	eb0009f9 	bl	cd08 <printf>
    a520:	e3a00009 	mov	r0, #9
    a524:	eb00076c 	bl	c2dc <console_clear_line>
    a528:	ebfff792 	bl	8378 <dmx_get_port_direction>
    a52c:	e3500002 	cmp	r0, #2
    a530:	0a000007 	beq	a554 <monitor_update+0xd4>
    a534:	e59f00b8 	ldr	r0, [pc, #184]	; a5f4 <monitor_update+0x174>
    a538:	eb0006d3 	bl	c08c <console_puts>
    a53c:	e3a0000b 	mov	r0, #11
    a540:	e59f10b0 	ldr	r1, [pc, #176]	; a5f8 <monitor_update+0x178>
    a544:	ebfffee5 	bl	a0e0 <monitor_dmx_data>
    a548:	e28dd020 	add	sp, sp, #32
    a54c:	ecbd8b02 	vpop	{d8}
    a550:	e8bd87f0 	pop	{r4, r5, r6, r7, r8, r9, sl, pc}
    a554:	eb0001f2 	bl	ad24 <widget_get_receive_dmx_on_change>
    a558:	e3500000 	cmp	r0, #0
    a55c:	1a00000f 	bne	a5a0 <monitor_update+0x120>
    a560:	eb0001fb 	bl	ad54 <widget_get_received_dmx_packet_period>
    a564:	e1a05000 	mov	r5, r0
    a568:	eb000201 	bl	ad74 <widget_get_received_dmx_packet_count>
    a56c:	e1a04000 	mov	r4, r0
    a570:	e59f0084 	ldr	r0, [pc, #132]	; a5fc <monitor_update+0x17c>
    a574:	eb0006c4 	bl	c08c <console_puts>
    a578:	e3550000 	cmp	r5, #0
    a57c:	1a000010 	bne	a5c4 <monitor_update+0x144>
    a580:	e59f5078 	ldr	r5, [pc, #120]	; a600 <monitor_update+0x180>
    a584:	e3a0001d 	mov	r0, #29
    a588:	e5952000 	ldr	r2, [r5]
    a58c:	e59f1070 	ldr	r1, [pc, #112]	; a604 <monitor_update+0x184>
    a590:	e0622004 	rsb	r2, r2, r4
    a594:	ebfffe5e 	bl	9f14 <monitor_line>
    a598:	e5854000 	str	r4, [r5]
    a59c:	eaffffe6 	b	a53c <monitor_update+0xbc>
    a5a0:	e59f0060 	ldr	r0, [pc, #96]	; a608 <monitor_update+0x188>
    a5a4:	eb0006b8 	bl	c08c <console_puts>
    a5a8:	e3a0001d 	mov	r0, #29
    a5ac:	eb00074a 	bl	c2dc <console_clear_line>
    a5b0:	eaffffe1 	b	a53c <monitor_update+0xbc>
    a5b4:	ebffff17 	bl	a218 <monitor_sniffer>
    a5b8:	e28dd020 	add	sp, sp, #32
    a5bc:	ecbd8b02 	vpop	{d8}
    a5c0:	e8bd87f0 	pop	{r4, r5, r6, r7, r8, r9, sl, pc}
    a5c4:	ee065a90 	vmov	s13, r5
    a5c8:	eeb87b66 	vcvt.f64.u32	d7, s13
    a5cc:	ee888b07 	vdiv.f64	d8, d8, d7
    a5d0:	eefd7bc8 	vcvt.s32.f64	s15, d8
    a5d4:	e59f0030 	ldr	r0, [pc, #48]	; a60c <monitor_update+0x18c>
    a5d8:	ee171a90 	vmov	r1, s15
    a5dc:	eb0009c9 	bl	cd08 <printf>
    a5e0:	eaffffe6 	b	a580 <monitor_update+0x100>
    a5e4:	e320f000 	nop	{0}
    a5e8:	00000000 	andeq	r0, r0, r0
    a5ec:	412e8480 	smlawbmi	lr, r0, r4, r8
    a5f0:	0001e0f8 	strdeq	lr, [r1], -r8
    a5f4:	0001e1a8 	andeq	lr, r1, r8, lsr #3
    a5f8:	000218cc 	andeq	r1, r2, ip, asr #17
    a5fc:	0001e13c 	andeq	lr, r1, ip, lsr r1
    a600:	00021528 	andeq	r1, r2, r8, lsr #10
    a604:	0001e160 	andeq	lr, r1, r0, ror #2
    a608:	0001e184 	andeq	lr, r1, r4, lsl #3
    a60c:	0001e150 	andeq	lr, r1, r0, asr r1

0000a610 <read_config_file>:
    a610:	e92d4010 	push	{r4, lr}
    a614:	e24dde4e 	sub	sp, sp, #1248	; 0x4e0
    a618:	e28d1fab 	add	r1, sp, #684	; 0x2ac
    a61c:	e3a00000 	mov	r0, #0
    a620:	eb001e0b 	bl	11e54 <f_mount>
    a624:	e28d0088 	add	r0, sp, #136	; 0x88
    a628:	e59f110c 	ldr	r1, [pc, #268]	; a73c <read_config_file+0x12c>
    a62c:	e3a02001 	mov	r2, #1
    a630:	eb001e16 	bl	11e90 <f_open>
    a634:	e3500000 	cmp	r0, #0
    a638:	1a000034 	bne	a710 <read_config_file+0x100>
    a63c:	e59f40fc 	ldr	r4, [pc, #252]	; a740 <read_config_file+0x130>
    a640:	e28d0008 	add	r0, sp, #8
    a644:	e3a01080 	mov	r1, #128	; 0x80
    a648:	e28d2088 	add	r2, sp, #136	; 0x88
    a64c:	eb003092 	bl	1689c <f_gets>
    a650:	e3500000 	cmp	r0, #0
    a654:	0a00002b 	beq	a708 <read_config_file+0xf8>
    a658:	e1a0200d 	mov	r2, sp
    a65c:	e28d0008 	add	r0, sp, #8
    a660:	e59f10dc 	ldr	r1, [pc, #220]	; a744 <read_config_file+0x134>
    a664:	ebfffab7 	bl	9148 <sscan_uint8_t>
    a668:	e3500002 	cmp	r0, #2
    a66c:	1a000005 	bne	a688 <read_config_file+0x78>
    a670:	e5dd3000 	ldrb	r3, [sp]
    a674:	e2432009 	sub	r2, r3, #9
    a678:	e3520076 	cmp	r2, #118	; 0x76
    a67c:	959f20c4 	ldrls	r2, [pc, #196]	; a748 <read_config_file+0x138>
    a680:	95c23002 	strbls	r3, [r2, #2]
    a684:	eaffffed 	b	a640 <read_config_file+0x30>
    a688:	e28d0008 	add	r0, sp, #8
    a68c:	e59f10b8 	ldr	r1, [pc, #184]	; a74c <read_config_file+0x13c>
    a690:	e1a0200d 	mov	r2, sp
    a694:	ebfffaab 	bl	9148 <sscan_uint8_t>
    a698:	e3500002 	cmp	r0, #2
    a69c:	1a000005 	bne	a6b8 <read_config_file+0xa8>
    a6a0:	e5dd3000 	ldrb	r3, [sp]
    a6a4:	e6af2073 	sxtb	r2, r3
    a6a8:	e3520000 	cmp	r2, #0
    a6ac:	c59f2094 	ldrgt	r2, [pc, #148]	; a748 <read_config_file+0x138>
    a6b0:	c5c23003 	strbgt	r3, [r2, #3]
    a6b4:	eaffffe1 	b	a640 <read_config_file+0x30>
    a6b8:	e28d0008 	add	r0, sp, #8
    a6bc:	e59f108c 	ldr	r1, [pc, #140]	; a750 <read_config_file+0x140>
    a6c0:	e1a0200d 	mov	r2, sp
    a6c4:	ebfffa9f 	bl	9148 <sscan_uint8_t>
    a6c8:	e3500002 	cmp	r0, #2
    a6cc:	0a000011 	beq	a718 <read_config_file+0x108>
    a6d0:	e28d0008 	add	r0, sp, #8
    a6d4:	e59f1078 	ldr	r1, [pc, #120]	; a754 <read_config_file+0x144>
    a6d8:	e1a0200d 	mov	r2, sp
    a6dc:	ebfffa99 	bl	9148 <sscan_uint8_t>
    a6e0:	e3500002 	cmp	r0, #2
    a6e4:	0a00000f 	beq	a728 <read_config_file+0x118>
    a6e8:	e1a0200d 	mov	r2, sp
    a6ec:	e28d0008 	add	r0, sp, #8
    a6f0:	e59f1060 	ldr	r1, [pc, #96]	; a758 <read_config_file+0x148>
    a6f4:	ebfffa93 	bl	9148 <sscan_uint8_t>
    a6f8:	e3500002 	cmp	r0, #2
    a6fc:	05dd3000 	ldrbeq	r3, [sp]
    a700:	05c43000 	strbeq	r3, [r4]
    a704:	eaffffcd 	b	a640 <read_config_file+0x30>
    a708:	e28d0088 	add	r0, sp, #136	; 0x88
    a70c:	eb00223f 	bl	13010 <f_close>
    a710:	e28dde4e 	add	sp, sp, #1248	; 0x4e0
    a714:	e8bd8010 	pop	{r4, pc}
    a718:	e59f3028 	ldr	r3, [pc, #40]	; a748 <read_config_file+0x138>
    a71c:	e5dd2000 	ldrb	r2, [sp]
    a720:	e5c32004 	strb	r2, [r3, #4]
    a724:	eaffffc5 	b	a640 <read_config_file+0x30>
    a728:	e5dd3000 	ldrb	r3, [sp]
    a72c:	e3530003 	cmp	r3, #3
    a730:	959f2010 	ldrls	r2, [pc, #16]	; a748 <read_config_file+0x138>
    a734:	95c23001 	strbls	r3, [r2, #1]
    a738:	eaffffc0 	b	a640 <read_config_file+0x30>
    a73c:	0001d5e4 	andeq	sp, r1, r4, ror #11
    a740:	0002152c 	andeq	r1, r2, ip, lsr #10
    a744:	0001d5f0 	strdeq	sp, [r1], -r0
    a748:	0001e9c8 	andeq	lr, r1, r8, asr #19
    a74c:	0001d608 	andeq	sp, r1, r8, lsl #12
    a750:	0001d61c 	andeq	sp, r1, ip, lsl r6
    a754:	0001d634 	andeq	sp, r1, r4, lsr r6
    a758:	0001d640 	andeq	sp, r1, r0, asr #12

0000a75c <widget_params_get>:
    a75c:	e52d4004 	push	{r4}		; (str r4, [sp, #-4]!)
    a760:	e59f302c 	ldr	r3, [pc, #44]	; a794 <widget_params_get+0x38>
    a764:	e5d34002 	ldrb	r4, [r3, #2]
    a768:	e5d3c000 	ldrb	ip, [r3]
    a76c:	e5d31001 	ldrb	r1, [r3, #1]
    a770:	e5d32003 	ldrb	r2, [r3, #3]
    a774:	e5d33004 	ldrb	r3, [r3, #4]
    a778:	e5c04002 	strb	r4, [r0, #2]
    a77c:	e5c0c000 	strb	ip, [r0]
    a780:	e5c01001 	strb	r1, [r0, #1]
    a784:	e5c02003 	strb	r2, [r0, #3]
    a788:	e5c03004 	strb	r3, [r0, #4]
    a78c:	e49d4004 	pop	{r4}		; (ldr r4, [sp], #4)
    a790:	e12fff1e 	bx	lr
    a794:	0001e9c8 	andeq	lr, r1, r8, asr #19

0000a798 <widget_params_set_break_time>:
    a798:	ee070a90 	vmov	s15, r0
    a79c:	eeb86b67 	vcvt.f64.u32	d6, s15
    a7a0:	ed9f7b06 	vldr	d7, [pc, #24]	; a7c0 <widget_params_set_break_time+0x28>
    a7a4:	ee267b07 	vmul.f64	d7, d6, d7
    a7a8:	eefc6bc7 	vcvt.u32.f64	s13, d7
    a7ac:	e59f2014 	ldr	r2, [pc, #20]	; a7c8 <widget_params_set_break_time+0x30>
    a7b0:	e1a03000 	mov	r3, r0
    a7b4:	ee160a90 	vmov	r0, s13
    a7b8:	e5c23002 	strb	r3, [r2, #2]
    a7bc:	eafff6f9 	b	83a8 <dmx_set_output_break_time>
    a7c0:	3d70a3d7 	ldclcc	3, cr10, [r0, #-860]!	; 0xfffffca4
    a7c4:	4025570a 	eormi	r5, r5, sl, lsl #14
    a7c8:	0001e9c8 	andeq	lr, r1, r8, asr #19

0000a7cc <widget_params_set_mab_time>:
    a7cc:	ee070a90 	vmov	s15, r0
    a7d0:	eeb86b67 	vcvt.f64.u32	d6, s15
    a7d4:	ed9f7b07 	vldr	d7, [pc, #28]	; a7f8 <widget_params_set_mab_time+0x2c>
    a7d8:	ee267b07 	vmul.f64	d7, d6, d7
    a7dc:	eefc6bc7 	vcvt.u32.f64	s13, d7
    a7e0:	e59f2018 	ldr	r2, [pc, #24]	; a800 <widget_params_set_mab_time+0x34>
    a7e4:	e1a03000 	mov	r3, r0
    a7e8:	ee160a90 	vmov	r0, s13
    a7ec:	e5c23003 	strb	r3, [r2, #3]
    a7f0:	eafff70a 	b	8420 <dmx_set_output_mab_time>
    a7f4:	e320f000 	nop	{0}
    a7f8:	3d70a3d7 	ldclcc	3, cr10, [r0, #-860]!	; 0xfffffca4
    a7fc:	4025570a 	eormi	r5, r5, sl, lsl #14
    a800:	0001e9c8 	andeq	lr, r1, r8, asr #19

0000a804 <widget_params_set_refresh_rate>:
    a804:	e59f302c 	ldr	r3, [pc, #44]	; a838 <widget_params_set_refresh_rate+0x34>
    a808:	e3500000 	cmp	r0, #0
    a80c:	e5c30004 	strb	r0, [r3, #4]
    a810:	0a000005 	beq	a82c <widget_params_set_refresh_rate+0x28>
    a814:	ee060a90 	vmov	s13, r0
    a818:	eeb87be6 	vcvt.f64.s32	d7, s13
    a81c:	ed9f6b03 	vldr	d6, [pc, #12]	; a830 <widget_params_set_refresh_rate+0x2c>
    a820:	ee867b07 	vdiv.f64	d7, d6, d7
    a824:	eefc6bc7 	vcvt.u32.f64	s13, d7
    a828:	ee160a90 	vmov	r0, s13
    a82c:	eafff64b 	b	8160 <dmx_set_output_period>
    a830:	00000000 	andeq	r0, r0, r0
    a834:	412e8480 	smlawbmi	lr, r0, r4, r8
    a838:	0001e9c8 	andeq	lr, r1, r8, asr #19

0000a83c <widget_params_get_type_id>:
    a83c:	e59f0000 	ldr	r0, [pc]	; a844 <widget_params_get_type_id+0x8>
    a840:	e12fff1e 	bx	lr
    a844:	0001d65c 	andeq	sp, r1, ip, asr r6

0000a848 <widget_params_get_type_id_length>:
    a848:	e3a00002 	mov	r0, #2
    a84c:	e12fff1e 	bx	lr

0000a850 <widget_params_get_throttle>:
    a850:	e59f3004 	ldr	r3, [pc, #4]	; a85c <widget_params_get_throttle+0xc>
    a854:	e5d30000 	ldrb	r0, [r3]
    a858:	e12fff1e 	bx	lr
    a85c:	0002152c 	andeq	r1, r2, ip, lsr #10

0000a860 <widget_params_set_throttle>:
    a860:	e59f3004 	ldr	r3, [pc, #4]	; a86c <widget_params_set_throttle+0xc>
    a864:	e5c30000 	strb	r0, [r3]
    a868:	e12fff1e 	bx	lr
    a86c:	0002152c 	andeq	r1, r2, ip, lsr #10

0000a870 <widget_params_init>:
    a870:	e92d4010 	push	{r4, lr}
    a874:	e59f40c4 	ldr	r4, [pc, #196]	; a940 <widget_params_init+0xd0>
    a878:	ed2d8b02 	vpush	{d8}
    a87c:	ebffff63 	bl	a610 <read_config_file>
    a880:	e5d40004 	ldrb	r0, [r4, #4]
    a884:	e3500000 	cmp	r0, #0
    a888:	0a000005 	beq	a8a4 <widget_params_init+0x34>
    a88c:	ee060a90 	vmov	s13, r0
    a890:	eeb87be6 	vcvt.f64.s32	d7, s13
    a894:	ed9f6b25 	vldr	d6, [pc, #148]	; a930 <widget_params_init+0xc0>
    a898:	ee867b07 	vdiv.f64	d7, d6, d7
    a89c:	eefc6bc7 	vcvt.u32.f64	s13, d7
    a8a0:	ee160a90 	vmov	r0, s13
    a8a4:	ebfff62d 	bl	8160 <dmx_set_output_period>
    a8a8:	e59f3094 	ldr	r3, [pc, #148]	; a944 <widget_params_init+0xd4>
    a8ac:	e5d30000 	ldrb	r0, [r3]
    a8b0:	e3500000 	cmp	r0, #0
    a8b4:	0a000005 	beq	a8d0 <widget_params_init+0x60>
    a8b8:	ee060a90 	vmov	s13, r0
    a8bc:	eeb87be6 	vcvt.f64.s32	d7, s13
    a8c0:	ed9f6b1a 	vldr	d6, [pc, #104]	; a930 <widget_params_init+0xc0>
    a8c4:	ee867b07 	vdiv.f64	d7, d6, d7
    a8c8:	eefc6bc7 	vcvt.u32.f64	s13, d7
    a8cc:	ee160a90 	vmov	r0, s13
    a8d0:	eb000123 	bl	ad64 <widget_set_received_dmx_packet_period>
    a8d4:	e5d40001 	ldrb	r0, [r4, #1]
    a8d8:	e59f3060 	ldr	r3, [pc, #96]	; a940 <widget_params_init+0xd0>
    a8dc:	e3500000 	cmp	r0, #0
    a8e0:	03a02002 	moveq	r2, #2
    a8e4:	05c32001 	strbeq	r2, [r3, #1]
    a8e8:	eb000115 	bl	ad44 <widget_set_mode>
    a8ec:	e5d43002 	ldrb	r3, [r4, #2]
    a8f0:	ed9f8b10 	vldr	d8, [pc, #64]	; a938 <widget_params_init+0xc8>
    a8f4:	ee073a10 	vmov	s14, r3
    a8f8:	eeb87b47 	vcvt.f64.u32	d7, s14
    a8fc:	ee277b08 	vmul.f64	d7, d7, d8
    a900:	eefc6bc7 	vcvt.u32.f64	s13, d7
    a904:	ee160a90 	vmov	r0, s13
    a908:	ebfff6a6 	bl	83a8 <dmx_set_output_break_time>
    a90c:	e5d44003 	ldrb	r4, [r4, #3]
    a910:	ee074a10 	vmov	s14, r4
    a914:	eeb87b47 	vcvt.f64.u32	d7, s14
    a918:	ee278b08 	vmul.f64	d8, d7, d8
    a91c:	eefc7bc8 	vcvt.u32.f64	s15, d8
    a920:	ecbd8b02 	vpop	{d8}
    a924:	e8bd4010 	pop	{r4, lr}
    a928:	ee170a90 	vmov	r0, s15
    a92c:	eafff6bb 	b	8420 <dmx_set_output_mab_time>
    a930:	00000000 	andeq	r0, r0, r0
    a934:	412e8480 	smlawbmi	lr, r0, r4, r8
    a938:	3d70a3d7 	ldclcc	3, cr10, [r0, #-860]!	; 0xfffffca4
    a93c:	4025570a 	eormi	r5, r5, sl, lsl #14
    a940:	0001e9c8 	andeq	lr, r1, r8, asr #19
    a944:	0002152c 	andeq	r1, r2, ip, lsr #10

0000a948 <rdm_statistics_get>:
    a948:	e59f0000 	ldr	r0, [pc]	; a950 <rdm_statistics_get+0x8>
    a94c:	e12fff1e 	bx	lr
    a950:	00021530 	andeq	r1, r2, r0, lsr r5

0000a954 <widget_sniffer_dmx>:
    a954:	e92d43f8 	push	{r3, r4, r5, r6, r7, r8, r9, lr}
    a958:	eb0000f5 	bl	ad34 <widget_get_mode>
    a95c:	e3500003 	cmp	r0, #3
    a960:	18bd83f8 	popne	{r3, r4, r5, r6, r7, r8, r9, pc}
    a964:	ebfff64d 	bl	82a0 <dmx_get_available>
    a968:	e3500000 	cmp	r0, #0
    a96c:	08bd83f8 	popeq	{r3, r4, r5, r6, r7, r8, r9, pc}
    a970:	e59f0134 	ldr	r0, [pc, #308]	; aaac <widget_sniffer_dmx+0x158>
    a974:	e59f2134 	ldr	r2, [pc, #308]	; aab0 <widget_sniffer_dmx+0x15c>
    a978:	e5901004 	ldr	r1, [r0, #4]
    a97c:	e2811ffa 	add	r1, r1, #1000	; 0x3e8
    a980:	ea000002 	b	a990 <widget_sniffer_dmx+0x3c>
    a984:	e5903004 	ldr	r3, [r0, #4]
    a988:	e1510003 	cmp	r1, r3
    a98c:	9a000002 	bls	a99c <widget_sniffer_dmx+0x48>
    a990:	e5923034 	ldr	r3, [r2, #52]	; 0x34
    a994:	e3130401 	tst	r3, #16777216	; 0x1000000
    a998:	1afffff9 	bne	a984 <widget_sniffer_dmx+0x30>
    a99c:	e59f310c 	ldr	r3, [pc, #268]	; aab0 <widget_sniffer_dmx+0x15c>
    a9a0:	e5933034 	ldr	r3, [r3, #52]	; 0x34
    a9a4:	e2137401 	ands	r7, r3, #16777216	; 0x1000000
    a9a8:	1a00003b 	bne	aa9c <widget_sniffer_dmx+0x148>
    a9ac:	ebfff63f 	bl	82b0 <dmx_set_available_false>
    a9b0:	ebfff643 	bl	82c4 <dmx_is_data_changed>
    a9b4:	e3500000 	cmp	r0, #0
    a9b8:	08bd83f8 	popeq	{r3, r4, r5, r6, r7, r8, r9, pc}
    a9bc:	ebfff622 	bl	824c <dmx_get_statistics>
    a9c0:	e5906004 	ldr	r6, [r0, #4]
    a9c4:	e59f10e8 	ldr	r1, [pc, #232]	; aab4 <widget_sniffer_dmx+0x160>
    a9c8:	e2866001 	add	r6, r6, #1
    a9cc:	e6ff6076 	uxth	r6, r6
    a9d0:	e3a00007 	mov	r0, #7
    a9d4:	ebfffd4e 	bl	9f14 <monitor_line>
    a9d8:	e3560063 	cmp	r6, #99	; 0x63
    a9dc:	859f80d4 	ldrhi	r8, [pc, #212]	; aab8 <widget_sniffer_dmx+0x164>
    a9e0:	82889063 	addhi	r9, r8, #99	; 0x63
    a9e4:	9a000012 	bls	aa34 <widget_sniffer_dmx+0xe0>
    a9e8:	e3a00081 	mov	r0, #129	; 0x81
    a9ec:	e3a010c8 	mov	r1, #200	; 0xc8
    a9f0:	ebfffe71 	bl	a3bc <usb_send_header>
    a9f4:	e2474001 	sub	r4, r7, #1
    a9f8:	e0884004 	add	r4, r8, r4
    a9fc:	e0895007 	add	r5, r9, r7
    aa00:	e3a00080 	mov	r0, #128	; 0x80
    aa04:	eb003b85 	bl	19820 <usb_send_byte>
    aa08:	e5f40001 	ldrb	r0, [r4, #1]!
    aa0c:	eb003b83 	bl	19820 <usb_send_byte>
    aa10:	e1540005 	cmp	r4, r5
    aa14:	1afffff9 	bne	aa00 <widget_sniffer_dmx+0xac>
    aa18:	e2466064 	sub	r6, r6, #100	; 0x64
    aa1c:	e6ff6076 	uxth	r6, r6
    aa20:	ebfffe7c 	bl	a418 <usb_send_footer>
    aa24:	e2877064 	add	r7, r7, #100	; 0x64
    aa28:	e3560063 	cmp	r6, #99	; 0x63
    aa2c:	e6ff7077 	uxth	r7, r7
    aa30:	8affffec 	bhi	a9e8 <widget_sniffer_dmx+0x94>
    aa34:	e3a00081 	mov	r0, #129	; 0x81
    aa38:	e3a010c8 	mov	r1, #200	; 0xc8
    aa3c:	ebfffe5e 	bl	a3bc <usb_send_header>
    aa40:	e3560000 	cmp	r6, #0
    aa44:	0a00000a 	beq	aa74 <widget_sniffer_dmx+0x120>
    aa48:	e59f8068 	ldr	r8, [pc, #104]	; aab8 <widget_sniffer_dmx+0x164>
    aa4c:	e3a04000 	mov	r4, #0
    aa50:	e0887007 	add	r7, r8, r7
    aa54:	e3a00080 	mov	r0, #128	; 0x80
    aa58:	eb003b70 	bl	19820 <usb_send_byte>
    aa5c:	e7d70004 	ldrb	r0, [r7, r4]
    aa60:	e2844001 	add	r4, r4, #1
    aa64:	eb003b6d 	bl	19820 <usb_send_byte>
    aa68:	e6ff3074 	uxth	r3, r4
    aa6c:	e1560003 	cmp	r6, r3
    aa70:	8afffff7 	bhi	aa54 <widget_sniffer_dmx+0x100>
    aa74:	e3a00000 	mov	r0, #0
    aa78:	e2866001 	add	r6, r6, #1
    aa7c:	eb003b67 	bl	19820 <usb_send_byte>
    aa80:	e6ff6076 	uxth	r6, r6
    aa84:	e3a00002 	mov	r0, #2
    aa88:	eb003b64 	bl	19820 <usb_send_byte>
    aa8c:	e3560063 	cmp	r6, #99	; 0x63
    aa90:	9afffff7 	bls	aa74 <widget_sniffer_dmx+0x120>
    aa94:	e8bd43f8 	pop	{r3, r4, r5, r6, r7, r8, r9, lr}
    aa98:	eafffe5e 	b	a418 <usb_send_footer>
    aa9c:	e3a00007 	mov	r0, #7
    aaa0:	e59f1014 	ldr	r1, [pc, #20]	; aabc <widget_sniffer_dmx+0x168>
    aaa4:	e8bd43f8 	pop	{r3, r4, r5, r6, r7, r8, r9, lr}
    aaa8:	eafffd19 	b	9f14 <monitor_line>
    aaac:	20003000 	andcs	r3, r0, r0
    aab0:	20200000 	eorcs	r0, r0, r0
    aab4:	0001e1d0 	ldrdeq	lr, [r1], -r0
    aab8:	000218cc 	andeq	r1, r2, ip, asr #17
    aabc:	0001e1b0 			; <UNDEFINED> instruction: 0x0001e1b0

0000aac0 <widget_sniffer_rdm>:
    aac0:	e92d41f0 	push	{r4, r5, r6, r7, r8, lr}
    aac4:	eb00009a 	bl	ad34 <widget_get_mode>
    aac8:	e3500003 	cmp	r0, #3
    aacc:	18bd81f0 	popne	{r4, r5, r6, r7, r8, pc}
    aad0:	ebfff5e0 	bl	8258 <rdm_get_available>
    aad4:	e2508000 	subs	r8, r0, #0
    aad8:	08bd81f0 	popeq	{r4, r5, r6, r7, r8, pc}
    aadc:	e59f022c 	ldr	r0, [pc, #556]	; ad10 <widget_sniffer_rdm+0x250>
    aae0:	e59f222c 	ldr	r2, [pc, #556]	; ad14 <widget_sniffer_rdm+0x254>
    aae4:	e5901004 	ldr	r1, [r0, #4]
    aae8:	e2811ffa 	add	r1, r1, #1000	; 0x3e8
    aaec:	ea000002 	b	aafc <widget_sniffer_rdm+0x3c>
    aaf0:	e5903004 	ldr	r3, [r0, #4]
    aaf4:	e1510003 	cmp	r1, r3
    aaf8:	9a000002 	bls	ab08 <widget_sniffer_rdm+0x48>
    aafc:	e5923034 	ldr	r3, [r2, #52]	; 0x34
    ab00:	e3130401 	tst	r3, #16777216	; 0x1000000
    ab04:	1afffff9 	bne	aaf0 <widget_sniffer_rdm+0x30>
    ab08:	e59f3204 	ldr	r3, [pc, #516]	; ad14 <widget_sniffer_rdm+0x254>
    ab0c:	e3a00007 	mov	r0, #7
    ab10:	e5933034 	ldr	r3, [r3, #52]	; 0x34
    ab14:	e2136401 	ands	r6, r3, #16777216	; 0x1000000
    ab18:	1a000020 	bne	aba0 <widget_sniffer_rdm+0xe0>
    ab1c:	e59f11f4 	ldr	r1, [pc, #500]	; ad18 <widget_sniffer_rdm+0x258>
    ab20:	ebfffcfb 	bl	9f14 <monitor_line>
    ab24:	e5d83000 	ldrb	r3, [r8]
    ab28:	e35300cc 	cmp	r3, #204	; 0xcc
    ab2c:	0a000024 	beq	abc4 <widget_sniffer_rdm+0x104>
    ab30:	e35300fe 	cmp	r3, #254	; 0xfe
    ab34:	0a00001c 	beq	abac <widget_sniffer_rdm+0xec>
    ab38:	e3a07000 	mov	r7, #0
    ab3c:	e3a00081 	mov	r0, #129	; 0x81
    ab40:	e3a010c8 	mov	r1, #200	; 0xc8
    ab44:	ebfffe1c 	bl	a3bc <usb_send_header>
    ab48:	e3560000 	cmp	r6, #0
    ab4c:	0a000009 	beq	ab78 <widget_sniffer_rdm+0xb8>
    ab50:	e0885007 	add	r5, r8, r7
    ab54:	e3a04000 	mov	r4, #0
    ab58:	e3a00080 	mov	r0, #128	; 0x80
    ab5c:	eb003b2f 	bl	19820 <usb_send_byte>
    ab60:	e7d50004 	ldrb	r0, [r5, r4]
    ab64:	e2844001 	add	r4, r4, #1
    ab68:	eb003b2c 	bl	19820 <usb_send_byte>
    ab6c:	e6ff3074 	uxth	r3, r4
    ab70:	e1560003 	cmp	r6, r3
    ab74:	8afffff7 	bhi	ab58 <widget_sniffer_rdm+0x98>
    ab78:	e3a00000 	mov	r0, #0
    ab7c:	e2866001 	add	r6, r6, #1
    ab80:	eb003b26 	bl	19820 <usb_send_byte>
    ab84:	e6ff6076 	uxth	r6, r6
    ab88:	e3a00002 	mov	r0, #2
    ab8c:	eb003b23 	bl	19820 <usb_send_byte>
    ab90:	e3560063 	cmp	r6, #99	; 0x63
    ab94:	9afffff7 	bls	ab78 <widget_sniffer_rdm+0xb8>
    ab98:	e8bd41f0 	pop	{r4, r5, r6, r7, r8, lr}
    ab9c:	eafffe1d 	b	a418 <usb_send_footer>
    aba0:	e59f1174 	ldr	r1, [pc, #372]	; ad1c <widget_sniffer_rdm+0x25c>
    aba4:	e8bd41f0 	pop	{r4, r5, r6, r7, r8, lr}
    aba8:	eafffcd9 	b	9f14 <monitor_line>
    abac:	e59f316c 	ldr	r3, [pc, #364]	; ad20 <widget_sniffer_rdm+0x260>
    abb0:	e3a06018 	mov	r6, #24
    abb4:	e5932004 	ldr	r2, [r3, #4]
    abb8:	e2822001 	add	r2, r2, #1
    abbc:	e5832004 	str	r2, [r3, #4]
    abc0:	eaffffdc 	b	ab38 <widget_sniffer_rdm+0x78>
    abc4:	e5d86002 	ldrb	r6, [r8, #2]
    abc8:	e5d83014 	ldrb	r3, [r8, #20]
    abcc:	e2866002 	add	r6, r6, #2
    abd0:	e2433010 	sub	r3, r3, #16
    abd4:	e6ef6076 	uxtb	r6, r6
    abd8:	e3530020 	cmp	r3, #32
    abdc:	979ff103 	ldrls	pc, [pc, r3, lsl #2]
    abe0:	ea000024 	b	ac78 <widget_sniffer_rdm+0x1b8>
    abe4:	0000ace8 	andeq	sl, r0, r8, ror #25
    abe8:	0000acfc 	strdeq	sl, [r0], -ip
    abec:	0000ac78 	andeq	sl, r0, r8, ror ip
    abf0:	0000ac78 	andeq	sl, r0, r8, ror ip
    abf4:	0000ac78 	andeq	sl, r0, r8, ror ip
    abf8:	0000ac78 	andeq	sl, r0, r8, ror ip
    abfc:	0000ac78 	andeq	sl, r0, r8, ror ip
    ac00:	0000ac78 	andeq	sl, r0, r8, ror ip
    ac04:	0000ac78 	andeq	sl, r0, r8, ror ip
    ac08:	0000ac78 	andeq	sl, r0, r8, ror ip
    ac0c:	0000ac78 	andeq	sl, r0, r8, ror ip
    ac10:	0000ac78 	andeq	sl, r0, r8, ror ip
    ac14:	0000ac78 	andeq	sl, r0, r8, ror ip
    ac18:	0000ac78 	andeq	sl, r0, r8, ror ip
    ac1c:	0000ac78 	andeq	sl, r0, r8, ror ip
    ac20:	0000ac78 	andeq	sl, r0, r8, ror ip
    ac24:	0000acd4 	ldrdeq	sl, [r0], -r4
    ac28:	0000ac78 	andeq	sl, r0, r8, ror ip
    ac2c:	0000ac78 	andeq	sl, r0, r8, ror ip
    ac30:	0000ac78 	andeq	sl, r0, r8, ror ip
    ac34:	0000ac78 	andeq	sl, r0, r8, ror ip
    ac38:	0000ac78 	andeq	sl, r0, r8, ror ip
    ac3c:	0000ac78 	andeq	sl, r0, r8, ror ip
    ac40:	0000ac78 	andeq	sl, r0, r8, ror ip
    ac44:	0000ac78 	andeq	sl, r0, r8, ror ip
    ac48:	0000ac78 	andeq	sl, r0, r8, ror ip
    ac4c:	0000ac78 	andeq	sl, r0, r8, ror ip
    ac50:	0000ac78 	andeq	sl, r0, r8, ror ip
    ac54:	0000ac78 	andeq	sl, r0, r8, ror ip
    ac58:	0000ac78 	andeq	sl, r0, r8, ror ip
    ac5c:	0000ac78 	andeq	sl, r0, r8, ror ip
    ac60:	0000ac78 	andeq	sl, r0, r8, ror ip
    ac64:	0000ac68 	andeq	sl, r0, r8, ror #24
    ac68:	e59f30b0 	ldr	r3, [pc, #176]	; ad20 <widget_sniffer_rdm+0x260>
    ac6c:	e593200c 	ldr	r2, [r3, #12]
    ac70:	e2822001 	add	r2, r2, #1
    ac74:	e583200c 	str	r2, [r3, #12]
    ac78:	e3560063 	cmp	r6, #99	; 0x63
    ac7c:	e3a07000 	mov	r7, #0
    ac80:	9affffad 	bls	ab3c <widget_sniffer_rdm+0x7c>
    ac84:	e3a00081 	mov	r0, #129	; 0x81
    ac88:	e3a010c8 	mov	r1, #200	; 0xc8
    ac8c:	ebfffdca 	bl	a3bc <usb_send_header>
    ac90:	e3a04000 	mov	r4, #0
    ac94:	e0885007 	add	r5, r8, r7
    ac98:	e3a00080 	mov	r0, #128	; 0x80
    ac9c:	eb003adf 	bl	19820 <usb_send_byte>
    aca0:	e7d50004 	ldrb	r0, [r5, r4]
    aca4:	e2844001 	add	r4, r4, #1
    aca8:	eb003adc 	bl	19820 <usb_send_byte>
    acac:	e3540064 	cmp	r4, #100	; 0x64
    acb0:	1afffff8 	bne	ac98 <widget_sniffer_rdm+0x1d8>
    acb4:	e2466064 	sub	r6, r6, #100	; 0x64
    acb8:	e6ff6076 	uxth	r6, r6
    acbc:	ebfffdd5 	bl	a418 <usb_send_footer>
    acc0:	e2877064 	add	r7, r7, #100	; 0x64
    acc4:	e3560063 	cmp	r6, #99	; 0x63
    acc8:	e6ff7077 	uxth	r7, r7
    accc:	8affffec 	bhi	ac84 <widget_sniffer_rdm+0x1c4>
    acd0:	eaffff99 	b	ab3c <widget_sniffer_rdm+0x7c>
    acd4:	e59f3044 	ldr	r3, [pc, #68]	; ad20 <widget_sniffer_rdm+0x260>
    acd8:	e5932008 	ldr	r2, [r3, #8]
    acdc:	e2822001 	add	r2, r2, #1
    ace0:	e5832008 	str	r2, [r3, #8]
    ace4:	eaffffe3 	b	ac78 <widget_sniffer_rdm+0x1b8>
    ace8:	e59f3030 	ldr	r3, [pc, #48]	; ad20 <widget_sniffer_rdm+0x260>
    acec:	e5932000 	ldr	r2, [r3]
    acf0:	e2822001 	add	r2, r2, #1
    acf4:	e5832000 	str	r2, [r3]
    acf8:	eaffffde 	b	ac78 <widget_sniffer_rdm+0x1b8>
    acfc:	e59f301c 	ldr	r3, [pc, #28]	; ad20 <widget_sniffer_rdm+0x260>
    ad00:	e5932004 	ldr	r2, [r3, #4]
    ad04:	e2822001 	add	r2, r2, #1
    ad08:	e5832004 	str	r2, [r3, #4]
    ad0c:	eaffffd9 	b	ac78 <widget_sniffer_rdm+0x1b8>
    ad10:	20003000 	andcs	r3, r0, r0
    ad14:	20200000 	eorcs	r0, r0, r0
    ad18:	0001e1e8 	andeq	lr, r1, r8, ror #3
    ad1c:	0001e1b0 			; <UNDEFINED> instruction: 0x0001e1b0
    ad20:	00021530 	andeq	r1, r2, r0, lsr r5

0000ad24 <widget_get_receive_dmx_on_change>:
    ad24:	e59f3004 	ldr	r3, [pc, #4]	; ad30 <widget_get_receive_dmx_on_change+0xc>
    ad28:	e5d30000 	ldrb	r0, [r3]
    ad2c:	e12fff1e 	bx	lr
    ad30:	00021540 	andeq	r1, r2, r0, asr #10

0000ad34 <widget_get_mode>:
    ad34:	e59f3004 	ldr	r3, [pc, #4]	; ad40 <widget_get_mode+0xc>
    ad38:	e5d30001 	ldrb	r0, [r3, #1]
    ad3c:	e12fff1e 	bx	lr
    ad40:	00021540 	andeq	r1, r2, r0, asr #10

0000ad44 <widget_set_mode>:
    ad44:	e59f3004 	ldr	r3, [pc, #4]	; ad50 <widget_set_mode+0xc>
    ad48:	e5c30001 	strb	r0, [r3, #1]
    ad4c:	e12fff1e 	bx	lr
    ad50:	00021540 	andeq	r1, r2, r0, asr #10

0000ad54 <widget_get_received_dmx_packet_period>:
    ad54:	e59f3004 	ldr	r3, [pc, #4]	; ad60 <widget_get_received_dmx_packet_period+0xc>
    ad58:	e5930004 	ldr	r0, [r3, #4]
    ad5c:	e12fff1e 	bx	lr
    ad60:	00021540 	andeq	r1, r2, r0, asr #10

0000ad64 <widget_set_received_dmx_packet_period>:
    ad64:	e59f3004 	ldr	r3, [pc, #4]	; ad70 <widget_set_received_dmx_packet_period+0xc>
    ad68:	e5830004 	str	r0, [r3, #4]
    ad6c:	e12fff1e 	bx	lr
    ad70:	00021540 	andeq	r1, r2, r0, asr #10

0000ad74 <widget_get_received_dmx_packet_count>:
    ad74:	e59f3004 	ldr	r3, [pc, #4]	; ad80 <widget_get_received_dmx_packet_count+0xc>
    ad78:	e5930008 	ldr	r0, [r3, #8]
    ad7c:	e12fff1e 	bx	lr
    ad80:	00021540 	andeq	r1, r2, r0, asr #10

0000ad84 <widget_received_dmx_packet>:
    ad84:	e92d4070 	push	{r4, r5, r6, lr}
    ad88:	e59f40cc 	ldr	r4, [pc, #204]	; ae5c <widget_received_dmx_packet+0xd8>
    ad8c:	e5d43001 	ldrb	r3, [r4, #1]
    ad90:	e3530003 	cmp	r3, #3
    ad94:	08bd8070 	popeq	{r4, r5, r6, pc}
    ad98:	e5d4500c 	ldrb	r5, [r4, #12]
    ad9c:	e3550000 	cmp	r5, #0
    ada0:	18bd8070 	popne	{r4, r5, r6, pc}
    ada4:	ebfff573 	bl	8378 <dmx_get_port_direction>
    ada8:	e3500002 	cmp	r0, #2
    adac:	18bd8070 	popne	{r4, r5, r6, pc}
    adb0:	e5d43000 	ldrb	r3, [r4]
    adb4:	e3530001 	cmp	r3, #1
    adb8:	08bd8070 	popeq	{r4, r5, r6, pc}
    adbc:	ebfff537 	bl	82a0 <dmx_get_available>
    adc0:	e3500000 	cmp	r0, #0
    adc4:	08bd8070 	popeq	{r4, r5, r6, pc}
    adc8:	e59f3090 	ldr	r3, [pc, #144]	; ae60 <widget_received_dmx_packet+0xdc>
    adcc:	e5941010 	ldr	r1, [r4, #16]
    add0:	e5933004 	ldr	r3, [r3, #4]
    add4:	e5942004 	ldr	r2, [r4, #4]
    add8:	e0611003 	rsb	r1, r1, r3
    addc:	e1510002 	cmp	r1, r2
    ade0:	38bd8070 	popcc	{r4, r5, r6, pc}
    ade4:	e5942008 	ldr	r2, [r4, #8]
    ade8:	e5843010 	str	r3, [r4, #16]
    adec:	e2823001 	add	r3, r2, #1
    adf0:	e5843008 	str	r3, [r4, #8]
    adf4:	ebfff52d 	bl	82b0 <dmx_set_available_false>
    adf8:	ebfff513 	bl	824c <dmx_get_statistics>
    adfc:	e1d060b4 	ldrh	r6, [r0, #4]
    ae00:	e59f105c 	ldr	r1, [pc, #92]	; ae64 <widget_received_dmx_packet+0xe0>
    ae04:	e2864001 	add	r4, r6, #1
    ae08:	e6ff4074 	uxth	r4, r4
    ae0c:	e3a00006 	mov	r0, #6
    ae10:	ebfffc3f 	bl	9f14 <monitor_line>
    ae14:	e1a02004 	mov	r2, r4
    ae18:	e3a00007 	mov	r0, #7
    ae1c:	e59f1044 	ldr	r1, [pc, #68]	; ae68 <widget_received_dmx_packet+0xe4>
    ae20:	ebfffc3b 	bl	9f14 <monitor_line>
    ae24:	e1a01005 	mov	r1, r5
    ae28:	e3a0001c 	mov	r0, #28
    ae2c:	ebfffc38 	bl	9f14 <monitor_line>
    ae30:	e2861002 	add	r1, r6, #2
    ae34:	e6ff1071 	uxth	r1, r1
    ae38:	e3a00005 	mov	r0, #5
    ae3c:	ebfffd5e 	bl	a3bc <usb_send_header>
    ae40:	e1a00005 	mov	r0, r5
    ae44:	eb003a75 	bl	19820 <usb_send_byte>
    ae48:	e1a01004 	mov	r1, r4
    ae4c:	e59f0018 	ldr	r0, [pc, #24]	; ae6c <widget_received_dmx_packet+0xe8>
    ae50:	ebfffd65 	bl	a3ec <usb_send_data>
    ae54:	e8bd4070 	pop	{r4, r5, r6, lr}
    ae58:	eafffd6e 	b	a418 <usb_send_footer>
    ae5c:	00021540 	andeq	r1, r2, r0, asr #10
    ae60:	20003000 	andcs	r3, r0, r0
    ae64:	0001e200 	andeq	lr, r1, r0, lsl #4
    ae68:	0001e21c 	andeq	lr, r1, ip, lsl r2
    ae6c:	000218cc 	andeq	r1, r2, ip, asr #17

0000ae70 <widget_received_rdm_packet>:
    ae70:	e92d40f0 	push	{r4, r5, r6, r7, lr}
    ae74:	e59f41a8 	ldr	r4, [pc, #424]	; b024 <widget_received_rdm_packet+0x1b4>
    ae78:	e24dd00c 	sub	sp, sp, #12
    ae7c:	e5d43001 	ldrb	r3, [r4, #1]
    ae80:	e20330fd 	and	r3, r3, #253	; 0xfd
    ae84:	e3530001 	cmp	r3, #1
    ae88:	0a000011 	beq	aed4 <widget_received_rdm_packet+0x64>
    ae8c:	e5d43000 	ldrb	r3, [r4]
    ae90:	e3530001 	cmp	r3, #1
    ae94:	0a00000e 	beq	aed4 <widget_received_rdm_packet+0x64>
    ae98:	ebfff4ee 	bl	8258 <rdm_get_available>
    ae9c:	e2505000 	subs	r5, r0, #0
    aea0:	0a00000b 	beq	aed4 <widget_received_rdm_packet+0x64>
    aea4:	e5d53000 	ldrb	r3, [r5]
    aea8:	e35300cc 	cmp	r3, #204	; 0xcc
    aeac:	0a00000a 	beq	aedc <widget_received_rdm_packet+0x6c>
    aeb0:	e35300fe 	cmp	r3, #254	; 0xfe
    aeb4:	13a06000 	movne	r6, #0
    aeb8:	0a00003a 	beq	afa8 <widget_received_rdm_packet+0x138>
    aebc:	e1a01006 	mov	r1, r6
    aec0:	e1a02005 	mov	r2, r5
    aec4:	e3a00011 	mov	r0, #17
    aec8:	e28dd00c 	add	sp, sp, #12
    aecc:	e8bd40f0 	pop	{r4, r5, r6, r7, lr}
    aed0:	eafffc5a 	b	a040 <monitor_rdm_data>
    aed4:	e28dd00c 	add	sp, sp, #12
    aed8:	e8bd80f0 	pop	{r4, r5, r6, r7, pc}
    aedc:	e5d56002 	ldrb	r6, [r5, #2]
    aee0:	e3a00007 	mov	r0, #7
    aee4:	e2866002 	add	r6, r6, #2
    aee8:	e6ef6076 	uxtb	r6, r6
    aeec:	e1a02006 	mov	r2, r6
    aef0:	e59f1130 	ldr	r1, [pc, #304]	; b028 <widget_received_rdm_packet+0x1b8>
    aef4:	e5d57014 	ldrb	r7, [r5, #20]
    aef8:	ebfffc05 	bl	9f14 <monitor_line>
    aefc:	e5d50015 	ldrb	r0, [r5, #21]
    af00:	e5d51016 	ldrb	r1, [r5, #22]
    af04:	e5d5200f 	ldrb	r2, [r5, #15]
    af08:	e0811400 	add	r1, r1, r0, lsl #8
    af0c:	e5d53014 	ldrb	r3, [r5, #20]
    af10:	e3a0001c 	mov	r0, #28
    af14:	e58d1000 	str	r1, [sp]
    af18:	e59f110c 	ldr	r1, [pc, #268]	; b02c <widget_received_rdm_packet+0x1bc>
    af1c:	ebfffbfc 	bl	9f14 <monitor_line>
    af20:	e2861001 	add	r1, r6, #1
    af24:	e3a00005 	mov	r0, #5
    af28:	ebfffd23 	bl	a3bc <usb_send_header>
    af2c:	e3a00000 	mov	r0, #0
    af30:	eb003a3a 	bl	19820 <usb_send_byte>
    af34:	e1a00005 	mov	r0, r5
    af38:	e1a01006 	mov	r1, r6
    af3c:	ebfffd2a 	bl	a3ec <usb_send_data>
    af40:	ebfffd34 	bl	a418 <usb_send_footer>
    af44:	e5d52015 	ldrb	r2, [r5, #21]
    af48:	e5d53016 	ldrb	r3, [r5, #22]
    af4c:	e0833402 	add	r3, r3, r2, lsl #8
    af50:	e6ff3073 	uxth	r3, r3
    af54:	e2533002 	subs	r3, r3, #2
    af58:	13a03001 	movne	r3, #1
    af5c:	e3570011 	cmp	r7, #17
    af60:	13a03000 	movne	r3, #0
    af64:	e3530000 	cmp	r3, #0
    af68:	05843014 	streq	r3, [r4, #20]
    af6c:	0affffd2 	beq	aebc <widget_received_rdm_packet+0x4c>
    af70:	e3a02000 	mov	r2, #0
    af74:	e3a00007 	mov	r0, #7
    af78:	e59f10b0 	ldr	r1, [pc, #176]	; b030 <widget_received_rdm_packet+0x1c0>
    af7c:	ebfffbe4 	bl	9f14 <monitor_line>
    af80:	e3a0001c 	mov	r0, #28
    af84:	e59f10a8 	ldr	r1, [pc, #168]	; b034 <widget_received_rdm_packet+0x1c4>
    af88:	ebfffbe1 	bl	9f14 <monitor_line>
    af8c:	e3a0000c 	mov	r0, #12
    af90:	e3a01000 	mov	r1, #0
    af94:	ebfffd08 	bl	a3bc <usb_send_header>
    af98:	ebfffd1e 	bl	a418 <usb_send_footer>
    af9c:	e3a03000 	mov	r3, #0
    afa0:	e5843014 	str	r3, [r4, #20]
    afa4:	eaffffc4 	b	aebc <widget_received_rdm_packet+0x4c>
    afa8:	e3a02018 	mov	r2, #24
    afac:	e3a00007 	mov	r0, #7
    afb0:	e59f1070 	ldr	r1, [pc, #112]	; b028 <widget_received_rdm_packet+0x1b8>
    afb4:	ebfffbd6 	bl	9f14 <monitor_line>
    afb8:	e3a0001c 	mov	r0, #28
    afbc:	e59f1074 	ldr	r1, [pc, #116]	; b038 <widget_received_rdm_packet+0x1c8>
    afc0:	ebfffbd3 	bl	9f14 <monitor_line>
    afc4:	e3a01019 	mov	r1, #25
    afc8:	e3a00005 	mov	r0, #5
    afcc:	ebfffcfa 	bl	a3bc <usb_send_header>
    afd0:	e3a00000 	mov	r0, #0
    afd4:	eb003a11 	bl	19820 <usb_send_byte>
    afd8:	e1a00005 	mov	r0, r5
    afdc:	e3a01018 	mov	r1, #24
    afe0:	ebfffd01 	bl	a3ec <usb_send_data>
    afe4:	ebfffd0b 	bl	a418 <usb_send_footer>
    afe8:	e3a02000 	mov	r2, #0
    afec:	e3a00007 	mov	r0, #7
    aff0:	e59f1038 	ldr	r1, [pc, #56]	; b030 <widget_received_rdm_packet+0x1c0>
    aff4:	ebfffbc6 	bl	9f14 <monitor_line>
    aff8:	e3a0001c 	mov	r0, #28
    affc:	e59f1030 	ldr	r1, [pc, #48]	; b034 <widget_received_rdm_packet+0x1c4>
    b000:	ebfffbc3 	bl	9f14 <monitor_line>
    b004:	e3a0000c 	mov	r0, #12
    b008:	e3a01000 	mov	r1, #0
    b00c:	ebfffcea 	bl	a3bc <usb_send_header>
    b010:	ebfffd00 	bl	a418 <usb_send_footer>
    b014:	e3a03000 	mov	r3, #0
    b018:	e5843014 	str	r3, [r4, #20]
    b01c:	e3a06018 	mov	r6, #24
    b020:	eaffffa5 	b	aebc <widget_received_rdm_packet+0x4c>
    b024:	00021540 	andeq	r1, r2, r0, asr #10
    b028:	0001e238 	andeq	lr, r1, r8, lsr r2
    b02c:	0001e264 	andeq	lr, r1, r4, ror #4
    b030:	0001e298 	muleq	r1, r8, r2
    b034:	0001e2c4 	andeq	lr, r1, r4, asr #5
    b038:	0001e2dc 	ldrdeq	lr, [r1], -ip

0000b03c <widget_output_only_send_dmx_packet_request>:
    b03c:	e92d4070 	push	{r4, r5, r6, lr}
    b040:	e59f1108 	ldr	r1, [pc, #264]	; b150 <widget_output_only_send_dmx_packet_request+0x114>
    b044:	e1a05000 	mov	r5, r0
    b048:	e3a00007 	mov	r0, #7
    b04c:	ebfffbb0 	bl	9f14 <monitor_line>
    b050:	e3a0001c 	mov	r0, #28
    b054:	e3a01000 	mov	r1, #0
    b058:	ebfffbad 	bl	9f14 <monitor_line>
    b05c:	e3a00001 	mov	r0, #1
    b060:	e3a01000 	mov	r1, #0
    b064:	ebfff6be 	bl	8b64 <dmx_set_port_direction>
    b068:	e3550000 	cmp	r5, #0
    b06c:	0a000027 	beq	b110 <widget_output_only_send_dmx_packet_request+0xd4>
    b070:	e59f40dc 	ldr	r4, [pc, #220]	; b154 <widget_output_only_send_dmx_packet_request+0x118>
    b074:	e3140003 	tst	r4, #3
    b078:	13a03000 	movne	r3, #0
    b07c:	03a03001 	moveq	r3, #1
    b080:	e3550008 	cmp	r5, #8
    b084:	93a03000 	movls	r3, #0
    b088:	82033001 	andhi	r3, r3, #1
    b08c:	e3530000 	cmp	r3, #0
    b090:	0a000024 	beq	b128 <widget_output_only_send_dmx_packet_request+0xec>
    b094:	e1a00125 	lsr	r0, r5, #2
    b098:	e59f10b8 	ldr	r1, [pc, #184]	; b158 <widget_output_only_send_dmx_packet_request+0x11c>
    b09c:	e1a06100 	lsl	r6, r0, #2
    b0a0:	e2442004 	sub	r2, r4, #4
    b0a4:	e3a03000 	mov	r3, #0
    b0a8:	e2833001 	add	r3, r3, #1
    b0ac:	e6ffe073 	uxth	lr, r3
    b0b0:	e5b1c004 	ldr	ip, [r1, #4]!
    b0b4:	e150000e 	cmp	r0, lr
    b0b8:	e5a2c004 	str	ip, [r2, #4]!
    b0bc:	8afffff9 	bhi	b0a8 <widget_output_only_send_dmx_packet_request+0x6c>
    b0c0:	e1550006 	cmp	r5, r6
    b0c4:	0a000011 	beq	b110 <widget_output_only_send_dmx_packet_request+0xd4>
    b0c8:	e59f108c 	ldr	r1, [pc, #140]	; b15c <widget_output_only_send_dmx_packet_request+0x120>
    b0cc:	e2862001 	add	r2, r6, #1
    b0d0:	e0813006 	add	r3, r1, r6
    b0d4:	e5d33018 	ldrb	r3, [r3, #24]
    b0d8:	e6ff2072 	uxth	r2, r2
    b0dc:	e1550002 	cmp	r5, r2
    b0e0:	e7c43006 	strb	r3, [r4, r6]
    b0e4:	e59f0068 	ldr	r0, [pc, #104]	; b154 <widget_output_only_send_dmx_packet_request+0x118>
    b0e8:	9a000008 	bls	b110 <widget_output_only_send_dmx_packet_request+0xd4>
    b0ec:	e2863002 	add	r3, r6, #2
    b0f0:	e081c002 	add	ip, r1, r2
    b0f4:	e6ff3073 	uxth	r3, r3
    b0f8:	e5dcc018 	ldrb	ip, [ip, #24]
    b0fc:	e1550003 	cmp	r5, r3
    b100:	e7c0c002 	strb	ip, [r0, r2]
    b104:	80811003 	addhi	r1, r1, r3
    b108:	85d12018 	ldrbhi	r2, [r1, #24]
    b10c:	87c02003 	strbhi	r2, [r0, r3]
    b110:	e1a00005 	mov	r0, r5
    b114:	ebfff435 	bl	81f0 <dmx_set_send_data_length>
    b118:	e8bd4070 	pop	{r4, r5, r6, lr}
    b11c:	e3a00001 	mov	r0, #1
    b120:	e1a01000 	mov	r1, r0
    b124:	eafff68e 	b	8b64 <dmx_set_port_direction>
    b128:	e2451001 	sub	r1, r5, #1
    b12c:	e6ff1071 	uxth	r1, r1
    b130:	e59fc028 	ldr	ip, [pc, #40]	; b160 <widget_output_only_send_dmx_packet_request+0x124>
    b134:	e2811001 	add	r1, r1, #1
    b138:	e7dc2003 	ldrb	r2, [ip, r3]
    b13c:	e7c42003 	strb	r2, [r4, r3]
    b140:	e2833001 	add	r3, r3, #1
    b144:	e1530001 	cmp	r3, r1
    b148:	1afffffa 	bne	b138 <widget_output_only_send_dmx_packet_request+0xfc>
    b14c:	eaffffef 	b	b110 <widget_output_only_send_dmx_packet_request+0xd4>
    b150:	0001e2f8 	strdeq	lr, [r1], -r8
    b154:	000218cc 	andeq	r1, r2, ip, asr #17
    b158:	00021554 	andeq	r1, r2, r4, asr r5
    b15c:	00021540 	andeq	r1, r2, r0, asr #10
    b160:	00021558 	andeq	r1, r2, r8, asr r5

0000b164 <widget_rdm_timeout>:
    b164:	e92d4010 	push	{r4, lr}
    b168:	e59f4064 	ldr	r4, [pc, #100]	; b1d4 <widget_rdm_timeout+0x70>
    b16c:	e5d43001 	ldrb	r3, [r4, #1]
    b170:	e3530003 	cmp	r3, #3
    b174:	08bd8010 	popeq	{r4, pc}
    b178:	e5943014 	ldr	r3, [r4, #20]
    b17c:	e3530000 	cmp	r3, #0
    b180:	08bd8010 	popeq	{r4, pc}
    b184:	e59f104c 	ldr	r1, [pc, #76]	; b1d8 <widget_rdm_timeout+0x74>
    b188:	e59f204c 	ldr	r2, [pc, #76]	; b1dc <widget_rdm_timeout+0x78>
    b18c:	e5911004 	ldr	r1, [r1, #4]
    b190:	e0633001 	rsb	r3, r3, r1
    b194:	e1530002 	cmp	r3, r2
    b198:	98bd8010 	popls	{r4, pc}
    b19c:	e3a02000 	mov	r2, #0
    b1a0:	e3a00007 	mov	r0, #7
    b1a4:	e59f1034 	ldr	r1, [pc, #52]	; b1e0 <widget_rdm_timeout+0x7c>
    b1a8:	ebfffb59 	bl	9f14 <monitor_line>
    b1ac:	e3a0001c 	mov	r0, #28
    b1b0:	e59f102c 	ldr	r1, [pc, #44]	; b1e4 <widget_rdm_timeout+0x80>
    b1b4:	ebfffb56 	bl	9f14 <monitor_line>
    b1b8:	e3a0000c 	mov	r0, #12
    b1bc:	e3a01000 	mov	r1, #0
    b1c0:	ebfffc7d 	bl	a3bc <usb_send_header>
    b1c4:	ebfffc93 	bl	a418 <usb_send_footer>
    b1c8:	e3a03000 	mov	r3, #0
    b1cc:	e5843014 	str	r3, [r4, #20]
    b1d0:	e8bd8010 	pop	{r4, pc}
    b1d4:	00021540 	andeq	r1, r2, r0, asr #10
    b1d8:	20003000 	andcs	r3, r0, r0
    b1dc:	000f4240 	andeq	r4, pc, r0, asr #4
    b1e0:	0001e298 	muleq	r1, r8, r2
    b1e4:	0001e2c4 	andeq	lr, r1, r4, asr #5

0000b1e8 <widget_received_dmx_change_of_state_packet>:
    b1e8:	e92d4038 	push	{r3, r4, r5, lr}
    b1ec:	e59f4070 	ldr	r4, [pc, #112]	; b264 <widget_received_dmx_change_of_state_packet+0x7c>
    b1f0:	e5d43001 	ldrb	r3, [r4, #1]
    b1f4:	e3530003 	cmp	r3, #3
    b1f8:	08bd8038 	popeq	{r3, r4, r5, pc}
    b1fc:	e5d4500c 	ldrb	r5, [r4, #12]
    b200:	e3550000 	cmp	r5, #0
    b204:	18bd8038 	popne	{r3, r4, r5, pc}
    b208:	ebfff45a 	bl	8378 <dmx_get_port_direction>
    b20c:	e3500002 	cmp	r0, #2
    b210:	18bd8038 	popne	{r3, r4, r5, pc}
    b214:	e5d43000 	ldrb	r3, [r4]
    b218:	e3530000 	cmp	r3, #0
    b21c:	08bd8038 	popeq	{r3, r4, r5, pc}
    b220:	ebfff41e 	bl	82a0 <dmx_get_available>
    b224:	e3500000 	cmp	r0, #0
    b228:	08bd8038 	popeq	{r3, r4, r5, pc}
    b22c:	ebfff41f 	bl	82b0 <dmx_set_available_false>
    b230:	ebfff423 	bl	82c4 <dmx_is_data_changed>
    b234:	e3500000 	cmp	r0, #0
    b238:	08bd8038 	popeq	{r3, r4, r5, pc}
    b23c:	e3a00007 	mov	r0, #7
    b240:	e59f1020 	ldr	r1, [pc, #32]	; b268 <widget_received_dmx_change_of_state_packet+0x80>
    b244:	ebfffb32 	bl	9f14 <monitor_line>
    b248:	e1a01005 	mov	r1, r5
    b24c:	e3a0001c 	mov	r0, #28
    b250:	ebfffb2f 	bl	9f14 <monitor_line>
    b254:	e8bd4038 	pop	{r3, r4, r5, lr}
    b258:	e3a00007 	mov	r0, #7
    b25c:	e59f1008 	ldr	r1, [pc, #8]	; b26c <widget_received_dmx_change_of_state_packet+0x84>
    b260:	eafffb2b 	b	9f14 <monitor_line>
    b264:	00021540 	andeq	r1, r2, r0, asr #10
    b268:	0001e31c 	andeq	lr, r1, ip, lsl r3
    b26c:	0001e334 	andeq	lr, r1, r4, lsr r3

0000b270 <widget_receive_data_from_host>:
    b270:	e92d41f0 	push	{r4, r5, r6, r7, r8, lr}
    b274:	e59f26e0 	ldr	r2, [pc, #1760]	; b95c <widget_receive_data_from_host+0x6ec>
    b278:	e24dd010 	sub	sp, sp, #16
    b27c:	e5923034 	ldr	r3, [r2, #52]	; 0x34
    b280:	e3130402 	tst	r3, #33554432	; 0x2000000
    b284:	1a000005 	bne	b2a0 <widget_receive_data_from_host+0x30>
    b288:	e5923034 	ldr	r3, [r2, #52]	; 0x34
    b28c:	e3130402 	tst	r3, #33554432	; 0x2000000
    b290:	1afffffc 	bne	b288 <widget_receive_data_from_host+0x18>
    b294:	eb0037bf 	bl	19198 <FT245RL_read_data>
    b298:	e350007e 	cmp	r0, #126	; 0x7e
    b29c:	0a000001 	beq	b2a8 <widget_receive_data_from_host+0x38>
    b2a0:	e28dd010 	add	sp, sp, #16
    b2a4:	e8bd81f0 	pop	{r4, r5, r6, r7, r8, pc}
    b2a8:	e59f26ac 	ldr	r2, [pc, #1708]	; b95c <widget_receive_data_from_host+0x6ec>
    b2ac:	e5923034 	ldr	r3, [r2, #52]	; 0x34
    b2b0:	e3130402 	tst	r3, #33554432	; 0x2000000
    b2b4:	1afffffc 	bne	b2ac <widget_receive_data_from_host+0x3c>
    b2b8:	eb0037b6 	bl	19198 <FT245RL_read_data>
    b2bc:	e59f2698 	ldr	r2, [pc, #1688]	; b95c <widget_receive_data_from_host+0x6ec>
    b2c0:	e1a08000 	mov	r8, r0
    b2c4:	e5923034 	ldr	r3, [r2, #52]	; 0x34
    b2c8:	e3130402 	tst	r3, #33554432	; 0x2000000
    b2cc:	1afffffc 	bne	b2c4 <widget_receive_data_from_host+0x54>
    b2d0:	eb0037b0 	bl	19198 <FT245RL_read_data>
    b2d4:	e59f2680 	ldr	r2, [pc, #1664]	; b95c <widget_receive_data_from_host+0x6ec>
    b2d8:	e1a04000 	mov	r4, r0
    b2dc:	e5923034 	ldr	r3, [r2, #52]	; 0x34
    b2e0:	e3130402 	tst	r3, #33554432	; 0x2000000
    b2e4:	1afffffc 	bne	b2dc <widget_receive_data_from_host+0x6c>
    b2e8:	eb0037aa 	bl	19198 <FT245RL_read_data>
    b2ec:	e1840400 	orr	r0, r4, r0, lsl #8
    b2f0:	e6ff7070 	uxth	r7, r0
    b2f4:	e3570000 	cmp	r7, #0
    b2f8:	0a00000b 	beq	b32c <widget_receive_data_from_host+0xbc>
    b2fc:	e59f165c 	ldr	r1, [pc, #1628]	; b960 <widget_receive_data_from_host+0x6f0>
    b300:	e2476001 	sub	r6, r7, #1
    b304:	e59f4650 	ldr	r4, [pc, #1616]	; b95c <widget_receive_data_from_host+0x6ec>
    b308:	e2415001 	sub	r5, r1, #1
    b30c:	e6f16076 	uxtah	r6, r1, r6
    b310:	e594c034 	ldr	ip, [r4, #52]	; 0x34
    b314:	e31c0402 	tst	ip, #33554432	; 0x2000000
    b318:	1afffffc 	bne	b310 <widget_receive_data_from_host+0xa0>
    b31c:	eb00379d 	bl	19198 <FT245RL_read_data>
    b320:	e5e50001 	strb	r0, [r5, #1]!
    b324:	e1550006 	cmp	r5, r6
    b328:	1afffff8 	bne	b310 <widget_receive_data_from_host+0xa0>
    b32c:	e59f4628 	ldr	r4, [pc, #1576]	; b95c <widget_receive_data_from_host+0x6ec>
    b330:	e59f662c 	ldr	r6, [pc, #1580]	; b964 <widget_receive_data_from_host+0x6f4>
    b334:	e1a05007 	mov	r5, r7
    b338:	e594c034 	ldr	ip, [r4, #52]	; 0x34
    b33c:	e31c0402 	tst	ip, #33554432	; 0x2000000
    b340:	1afffffc 	bne	b338 <widget_receive_data_from_host+0xc8>
    b344:	eb003793 	bl	19198 <FT245RL_read_data>
    b348:	e35000e7 	cmp	r0, #231	; 0xe7
    b34c:	e2853001 	add	r3, r5, #1
    b350:	0a000002 	beq	b360 <widget_receive_data_from_host+0xf0>
    b354:	e1550006 	cmp	r5, r6
    b358:	e6ff5073 	uxth	r5, r3
    b35c:	9afffff5 	bls	b338 <widget_receive_data_from_host+0xc8>
    b360:	e1a02008 	mov	r2, r8
    b364:	e58d5000 	str	r5, [sp]
    b368:	e3a00006 	mov	r0, #6
    b36c:	e59f15f4 	ldr	r1, [pc, #1524]	; b968 <widget_receive_data_from_host+0x6f8>
    b370:	e1a03007 	mov	r3, r7
    b374:	e2488003 	sub	r8, r8, #3
    b378:	ebfffae5 	bl	9f14 <monitor_line>
    b37c:	e358004b 	cmp	r8, #75	; 0x4b
    b380:	979ff108 	ldrls	pc, [pc, r8, lsl #2]
    b384:	eaffffc5 	b	b2a0 <widget_receive_data_from_host+0x30>
    b388:	0000b8d8 	ldrdeq	fp, [r0], -r8
    b38c:	0000b888 	andeq	fp, r0, r8, lsl #17
    b390:	0000b2a0 	andeq	fp, r0, r0, lsr #5
    b394:	0000b7a4 	andeq	fp, r0, r4, lsr #15
    b398:	0000b724 	andeq	fp, r0, r4, lsr #14
    b39c:	0000b63c 	andeq	fp, r0, ip, lsr r6
    b3a0:	0000b2a0 	andeq	fp, r0, r0, lsr #5
    b3a4:	0000b604 	andeq	fp, r0, r4, lsl #12
    b3a8:	0000b590 	muleq	r0, r0, r5
    b3ac:	0000b2a0 	andeq	fp, r0, r0, lsr #5
    b3b0:	0000b2a0 	andeq	fp, r0, r0, lsr #5
    b3b4:	0000b2a0 	andeq	fp, r0, r0, lsr #5
    b3b8:	0000b2a0 	andeq	fp, r0, r0, lsr #5
    b3bc:	0000b2a0 	andeq	fp, r0, r0, lsr #5
    b3c0:	0000b2a0 	andeq	fp, r0, r0, lsr #5
    b3c4:	0000b2a0 	andeq	fp, r0, r0, lsr #5
    b3c8:	0000b2a0 	andeq	fp, r0, r0, lsr #5
    b3cc:	0000b2a0 	andeq	fp, r0, r0, lsr #5
    b3d0:	0000b2a0 	andeq	fp, r0, r0, lsr #5
    b3d4:	0000b2a0 	andeq	fp, r0, r0, lsr #5
    b3d8:	0000b2a0 	andeq	fp, r0, r0, lsr #5
    b3dc:	0000b2a0 	andeq	fp, r0, r0, lsr #5
    b3e0:	0000b2a0 	andeq	fp, r0, r0, lsr #5
    b3e4:	0000b2a0 	andeq	fp, r0, r0, lsr #5
    b3e8:	0000b2a0 	andeq	fp, r0, r0, lsr #5
    b3ec:	0000b2a0 	andeq	fp, r0, r0, lsr #5
    b3f0:	0000b2a0 	andeq	fp, r0, r0, lsr #5
    b3f4:	0000b2a0 	andeq	fp, r0, r0, lsr #5
    b3f8:	0000b2a0 	andeq	fp, r0, r0, lsr #5
    b3fc:	0000b2a0 	andeq	fp, r0, r0, lsr #5
    b400:	0000b2a0 	andeq	fp, r0, r0, lsr #5
    b404:	0000b2a0 	andeq	fp, r0, r0, lsr #5
    b408:	0000b2a0 	andeq	fp, r0, r0, lsr #5
    b40c:	0000b2a0 	andeq	fp, r0, r0, lsr #5
    b410:	0000b2a0 	andeq	fp, r0, r0, lsr #5
    b414:	0000b2a0 	andeq	fp, r0, r0, lsr #5
    b418:	0000b2a0 	andeq	fp, r0, r0, lsr #5
    b41c:	0000b2a0 	andeq	fp, r0, r0, lsr #5
    b420:	0000b2a0 	andeq	fp, r0, r0, lsr #5
    b424:	0000b2a0 	andeq	fp, r0, r0, lsr #5
    b428:	0000b2a0 	andeq	fp, r0, r0, lsr #5
    b42c:	0000b2a0 	andeq	fp, r0, r0, lsr #5
    b430:	0000b2a0 	andeq	fp, r0, r0, lsr #5
    b434:	0000b2a0 	andeq	fp, r0, r0, lsr #5
    b438:	0000b2a0 	andeq	fp, r0, r0, lsr #5
    b43c:	0000b2a0 	andeq	fp, r0, r0, lsr #5
    b440:	0000b2a0 	andeq	fp, r0, r0, lsr #5
    b444:	0000b2a0 	andeq	fp, r0, r0, lsr #5
    b448:	0000b2a0 	andeq	fp, r0, r0, lsr #5
    b44c:	0000b2a0 	andeq	fp, r0, r0, lsr #5
    b450:	0000b2a0 	andeq	fp, r0, r0, lsr #5
    b454:	0000b2a0 	andeq	fp, r0, r0, lsr #5
    b458:	0000b2a0 	andeq	fp, r0, r0, lsr #5
    b45c:	0000b2a0 	andeq	fp, r0, r0, lsr #5
    b460:	0000b2a0 	andeq	fp, r0, r0, lsr #5
    b464:	0000b2a0 	andeq	fp, r0, r0, lsr #5
    b468:	0000b2a0 	andeq	fp, r0, r0, lsr #5
    b46c:	0000b2a0 	andeq	fp, r0, r0, lsr #5
    b470:	0000b2a0 	andeq	fp, r0, r0, lsr #5
    b474:	0000b2a0 	andeq	fp, r0, r0, lsr #5
    b478:	0000b2a0 	andeq	fp, r0, r0, lsr #5
    b47c:	0000b2a0 	andeq	fp, r0, r0, lsr #5
    b480:	0000b2a0 	andeq	fp, r0, r0, lsr #5
    b484:	0000b2a0 	andeq	fp, r0, r0, lsr #5
    b488:	0000b2a0 	andeq	fp, r0, r0, lsr #5
    b48c:	0000b2a0 	andeq	fp, r0, r0, lsr #5
    b490:	0000b2a0 	andeq	fp, r0, r0, lsr #5
    b494:	0000b2a0 	andeq	fp, r0, r0, lsr #5
    b498:	0000b2a0 	andeq	fp, r0, r0, lsr #5
    b49c:	0000b2a0 	andeq	fp, r0, r0, lsr #5
    b4a0:	0000b2a0 	andeq	fp, r0, r0, lsr #5
    b4a4:	0000b2a0 	andeq	fp, r0, r0, lsr #5
    b4a8:	0000b2a0 	andeq	fp, r0, r0, lsr #5
    b4ac:	0000b2a0 	andeq	fp, r0, r0, lsr #5
    b4b0:	0000b548 	andeq	fp, r0, r8, asr #10
    b4b4:	0000b4b8 			; <UNDEFINED> instruction: 0x0000b4b8
    b4b8:	e3a00007 	mov	r0, #7
    b4bc:	e59f14a8 	ldr	r1, [pc, #1192]	; b96c <widget_receive_data_from_host+0x6fc>
    b4c0:	ebfffa93 	bl	9f14 <monitor_line>
    b4c4:	e3a01000 	mov	r1, #0
    b4c8:	e3a0001c 	mov	r0, #28
    b4cc:	ebfffa90 	bl	9f14 <monitor_line>
    b4d0:	e3a00000 	mov	r0, #0
    b4d4:	ebfff6be 	bl	8fd4 <rdm_device_info_get_label>
    b4d8:	e1a06000 	mov	r6, r0
    b4dc:	e3a00000 	mov	r0, #0
    b4e0:	ebfff6be 	bl	8fe0 <rdm_device_info_get_label_length>
    b4e4:	e1a04000 	mov	r4, r0
    b4e8:	ebfffcd3 	bl	a83c <widget_params_get_type_id>
    b4ec:	e1a07000 	mov	r7, r0
    b4f0:	ebfffcd4 	bl	a848 <widget_params_get_type_id_length>
    b4f4:	e0841000 	add	r1, r4, r0
    b4f8:	e1a05000 	mov	r5, r0
    b4fc:	e6ff1071 	uxth	r1, r1
    b500:	e3a0004e 	mov	r0, #78	; 0x4e
    b504:	ebfffbac 	bl	a3bc <usb_send_header>
    b508:	e1a00007 	mov	r0, r7
    b50c:	e1a01005 	mov	r1, r5
    b510:	ebfffbb5 	bl	a3ec <usb_send_data>
    b514:	e1a00006 	mov	r0, r6
    b518:	e1a01004 	mov	r1, r4
    b51c:	ebfffbb2 	bl	a3ec <usb_send_data>
    b520:	ebfffbbc 	bl	a418 <usb_send_footer>
    b524:	e3a00002 	mov	r0, #2
    b528:	e3a01001 	mov	r1, #1
    b52c:	ebfff58c 	bl	8b64 <dmx_set_port_direction>
    b530:	e59f2438 	ldr	r2, [pc, #1080]	; b970 <widget_receive_data_from_host+0x700>
    b534:	e59f3438 	ldr	r3, [pc, #1080]	; b974 <widget_receive_data_from_host+0x704>
    b538:	e5922004 	ldr	r2, [r2, #4]
    b53c:	e5832010 	str	r2, [r3, #16]
    b540:	e28dd010 	add	sp, sp, #16
    b544:	e8bd81f0 	pop	{r4, r5, r6, r7, r8, pc}
    b548:	e3a00007 	mov	r0, #7
    b54c:	e59f1424 	ldr	r1, [pc, #1060]	; b978 <widget_receive_data_from_host+0x708>
    b550:	ebfffa6f 	bl	9f14 <monitor_line>
    b554:	e3a01000 	mov	r1, #0
    b558:	e3a0001c 	mov	r0, #28
    b55c:	ebfffa6c 	bl	9f14 <monitor_line>
    b560:	ebfff6a2 	bl	8ff0 <rdm_device_info_get_manufacturer_name>
    b564:	e1a06000 	mov	r6, r0
    b568:	ebfff6a3 	bl	8ffc <rdm_device_info_get_manufacturer_name_length>
    b56c:	e1a04000 	mov	r4, r0
    b570:	ebfff6a5 	bl	900c <rdm_device_info_get_manufacturer_id>
    b574:	e1a07000 	mov	r7, r0
    b578:	ebfff6ad 	bl	9034 <rdm_device_info_get_manufacturer_id_length>
    b57c:	e0841000 	add	r1, r4, r0
    b580:	e1a05000 	mov	r5, r0
    b584:	e6ff1071 	uxth	r1, r1
    b588:	e3a0004d 	mov	r0, #77	; 0x4d
    b58c:	eaffffdc 	b	b504 <widget_receive_data_from_host+0x294>
    b590:	e3a00007 	mov	r0, #7
    b594:	e59f13e0 	ldr	r1, [pc, #992]	; b97c <widget_receive_data_from_host+0x70c>
    b598:	ebfffa5d 	bl	9f14 <monitor_line>
    b59c:	e59f43d0 	ldr	r4, [pc, #976]	; b974 <widget_receive_data_from_host+0x704>
    b5a0:	e3a0001c 	mov	r0, #28
    b5a4:	e3a01000 	mov	r1, #0
    b5a8:	ebfffa59 	bl	9f14 <monitor_line>
    b5ac:	e3a00001 	mov	r0, #1
    b5b0:	e3a01000 	mov	r1, #0
    b5b4:	ebfff56a 	bl	8b64 <dmx_set_port_direction>
    b5b8:	e2840018 	add	r0, r4, #24
    b5bc:	e1a01007 	mov	r1, r7
    b5c0:	ebfff83c 	bl	96b8 <rdm_send_data>
    b5c4:	e3a00004 	mov	r0, #4
    b5c8:	e3a01000 	mov	r1, #0
    b5cc:	eb003bbb 	bl	1a4c0 <udelay>
    b5d0:	e3a00002 	mov	r0, #2
    b5d4:	e3a01001 	mov	r1, #1
    b5d8:	ebfff561 	bl	8b64 <dmx_set_port_direction>
    b5dc:	e59f338c 	ldr	r3, [pc, #908]	; b970 <widget_receive_data_from_host+0x700>
    b5e0:	e3a0c001 	mov	ip, #1
    b5e4:	e5933004 	ldr	r3, [r3, #4]
    b5e8:	e1a01007 	mov	r1, r7
    b5ec:	e2842018 	add	r2, r4, #24
    b5f0:	e3a00011 	mov	r0, #17
    b5f4:	e5c4c00c 	strb	ip, [r4, #12]
    b5f8:	e5843014 	str	r3, [r4, #20]
    b5fc:	ebfffa8f 	bl	a040 <monitor_rdm_data>
    b600:	eaffff26 	b	b2a0 <widget_receive_data_from_host+0x30>
    b604:	e3a00007 	mov	r0, #7
    b608:	e59f1370 	ldr	r1, [pc, #880]	; b980 <widget_receive_data_from_host+0x710>
    b60c:	ebfffa40 	bl	9f14 <monitor_line>
    b610:	e3a01000 	mov	r1, #0
    b614:	e3a0001c 	mov	r0, #28
    b618:	ebfffa3d 	bl	9f14 <monitor_line>
    b61c:	ebfff686 	bl	903c <rdm_device_info_get_sn>
    b620:	e1a04000 	mov	r4, r0
    b624:	ebfff687 	bl	9048 <rdm_device_info_get_sn_length>
    b628:	e1a01004 	mov	r1, r4
    b62c:	e1a02000 	mov	r2, r0
    b630:	e3a0000a 	mov	r0, #10
    b634:	ebfffb79 	bl	a420 <usb_send_message>
    b638:	eaffffb9 	b	b524 <widget_receive_data_from_host+0x2b4>
    b63c:	e3a00007 	mov	r0, #7
    b640:	e59f133c 	ldr	r1, [pc, #828]	; b984 <widget_receive_data_from_host+0x714>
    b644:	ebfffa32 	bl	9f14 <monitor_line>
    b648:	e3a0001c 	mov	r0, #28
    b64c:	e3a01000 	mov	r1, #0
    b650:	ebfffa2f 	bl	9f14 <monitor_line>
    b654:	e3a00002 	mov	r0, #2
    b658:	e3a01000 	mov	r1, #0
    b65c:	ebfff540 	bl	8b64 <dmx_set_port_direction>
    b660:	e59f430c 	ldr	r4, [pc, #780]	; b974 <widget_receive_data_from_host+0x704>
    b664:	e59f331c 	ldr	r3, [pc, #796]	; b988 <widget_receive_data_from_host+0x718>
    b668:	e5d42018 	ldrb	r2, [r4, #24]
    b66c:	e2630000 	rsb	r0, r3, #0
    b670:	e2100003 	ands	r0, r0, #3
    b674:	e5c42000 	strb	r2, [r4]
    b678:	0a0000a3 	beq	b90c <widget_receive_data_from_host+0x69c>
    b67c:	e3a02000 	mov	r2, #0
    b680:	e3500001 	cmp	r0, #1
    b684:	e4432001 	strb	r2, [r3], #-1
    b688:	9a0000b0 	bls	b950 <widget_receive_data_from_host+0x6e0>
    b68c:	e3500002 	cmp	r0, #2
    b690:	e5c32002 	strb	r2, [r3, #2]
    b694:	9a0000aa 	bls	b944 <widget_receive_data_from_host+0x6d4>
    b698:	e5c32003 	strb	r2, [r3, #3]
    b69c:	e59f22e8 	ldr	r2, [pc, #744]	; b98c <widget_receive_data_from_host+0x71c>
    b6a0:	e3a01004 	mov	r1, #4
    b6a4:	e2605c02 	rsb	r5, r0, #512	; 0x200
    b6a8:	e6ff5075 	uxth	r5, r5
    b6ac:	e2807001 	add	r7, r0, #1
    b6b0:	e1a06125 	lsr	r6, r5, #2
    b6b4:	e3a00000 	mov	r0, #0
    b6b8:	e0837007 	add	r7, r3, r7
    b6bc:	e1a0e106 	lsl	lr, r6, #2
    b6c0:	e1a08000 	mov	r8, r0
    b6c4:	e2800001 	add	r0, r0, #1
    b6c8:	e6ffc070 	uxth	ip, r0
    b6cc:	e15c0006 	cmp	ip, r6
    b6d0:	e4878004 	str	r8, [r7], #4
    b6d4:	e3a0c000 	mov	ip, #0
    b6d8:	3afffff9 	bcc	b6c4 <widget_receive_data_from_host+0x454>
    b6dc:	e081100e 	add	r1, r1, lr
    b6e0:	e06e2002 	rsb	r2, lr, r2
    b6e4:	e155000e 	cmp	r5, lr
    b6e8:	e6ff1071 	uxth	r1, r1
    b6ec:	e6ff2072 	uxth	r2, r2
    b6f0:	0a000071 	beq	b8bc <widget_receive_data_from_host+0x64c>
    b6f4:	e2810001 	add	r0, r1, #1
    b6f8:	e3520001 	cmp	r2, #1
    b6fc:	e7c3c001 	strb	ip, [r3, r1]
    b700:	e6ff0070 	uxth	r0, r0
    b704:	e59f3284 	ldr	r3, [pc, #644]	; b990 <widget_receive_data_from_host+0x720>
    b708:	0a00006b 	beq	b8bc <widget_receive_data_from_host+0x64c>
    b70c:	e2811002 	add	r1, r1, #2
    b710:	e3520002 	cmp	r2, #2
    b714:	e6ff2071 	uxth	r2, r1
    b718:	e7c3c000 	strb	ip, [r3, r0]
    b71c:	17c3c002 	strbne	ip, [r3, r2]
    b720:	ea000065 	b	b8bc <widget_receive_data_from_host+0x64c>
    b724:	e59f4248 	ldr	r4, [pc, #584]	; b974 <widget_receive_data_from_host+0x704>
    b728:	e3a00007 	mov	r0, #7
    b72c:	e59f1260 	ldr	r1, [pc, #608]	; b994 <widget_receive_data_from_host+0x724>
    b730:	ebfff9f7 	bl	9f14 <monitor_line>
    b734:	e3a0001c 	mov	r0, #28
    b738:	e3a01000 	mov	r1, #0
    b73c:	ebfff9f4 	bl	9f14 <monitor_line>
    b740:	e5d4302c 	ldrb	r3, [r4, #44]	; 0x2c
    b744:	e3a00001 	mov	r0, #1
    b748:	e2532010 	subs	r2, r3, #16
    b74c:	e2723000 	rsbs	r3, r2, #0
    b750:	e0b33002 	adcs	r3, r3, r2
    b754:	e3a01000 	mov	r1, #0
    b758:	e5c4300c 	strb	r3, [r4, #12]
    b75c:	ebfff500 	bl	8b64 <dmx_set_port_direction>
    b760:	e2840018 	add	r0, r4, #24
    b764:	e1a01007 	mov	r1, r7
    b768:	ebfff7d2 	bl	96b8 <rdm_send_data>
    b76c:	e3a00004 	mov	r0, #4
    b770:	e3a01000 	mov	r1, #0
    b774:	eb003b51 	bl	1a4c0 <udelay>
    b778:	e3a00002 	mov	r0, #2
    b77c:	e3a01001 	mov	r1, #1
    b780:	ebfff4f7 	bl	8b64 <dmx_set_port_direction>
    b784:	e59f31e4 	ldr	r3, [pc, #484]	; b970 <widget_receive_data_from_host+0x700>
    b788:	e1a01007 	mov	r1, r7
    b78c:	e5933004 	ldr	r3, [r3, #4]
    b790:	e2842018 	add	r2, r4, #24
    b794:	e3a00011 	mov	r0, #17
    b798:	e5843014 	str	r3, [r4, #20]
    b79c:	ebfffa27 	bl	a040 <monitor_rdm_data>
    b7a0:	eafffebe 	b	b2a0 <widget_receive_data_from_host+0x30>
    b7a4:	e3a00007 	mov	r0, #7
    b7a8:	e59f11e8 	ldr	r1, [pc, #488]	; b998 <widget_receive_data_from_host+0x728>
    b7ac:	ebfff9d8 	bl	9f14 <monitor_line>
    b7b0:	e3a0001c 	mov	r0, #28
    b7b4:	e3a01000 	mov	r1, #0
    b7b8:	ebfff9d5 	bl	9f14 <monitor_line>
    b7bc:	e3a00001 	mov	r0, #1
    b7c0:	e3a01000 	mov	r1, #0
    b7c4:	ebfff4e6 	bl	8b64 <dmx_set_port_direction>
    b7c8:	e3570000 	cmp	r7, #0
    b7cc:	0a000027 	beq	b870 <widget_receive_data_from_host+0x600>
    b7d0:	e59f31b8 	ldr	r3, [pc, #440]	; b990 <widget_receive_data_from_host+0x720>
    b7d4:	e3130003 	tst	r3, #3
    b7d8:	13a02000 	movne	r2, #0
    b7dc:	03a02001 	moveq	r2, #1
    b7e0:	e3570008 	cmp	r7, #8
    b7e4:	93a02000 	movls	r2, #0
    b7e8:	82022001 	andhi	r2, r2, #1
    b7ec:	e3520000 	cmp	r2, #0
    b7f0:	0a000049 	beq	b91c <widget_receive_data_from_host+0x6ac>
    b7f4:	e1a0c127 	lsr	ip, r7, #2
    b7f8:	e59fe19c 	ldr	lr, [pc, #412]	; b99c <widget_receive_data_from_host+0x72c>
    b7fc:	e1a0210c 	lsl	r2, ip, #2
    b800:	e2430004 	sub	r0, r3, #4
    b804:	e3a01000 	mov	r1, #0
    b808:	e2811001 	add	r1, r1, #1
    b80c:	e6ff5071 	uxth	r5, r1
    b810:	e5be4004 	ldr	r4, [lr, #4]!
    b814:	e15c0005 	cmp	ip, r5
    b818:	e5a04004 	str	r4, [r0, #4]!
    b81c:	8afffff9 	bhi	b808 <widget_receive_data_from_host+0x598>
    b820:	e1570002 	cmp	r7, r2
    b824:	0a000011 	beq	b870 <widget_receive_data_from_host+0x600>
    b828:	e59f0144 	ldr	r0, [pc, #324]	; b974 <widget_receive_data_from_host+0x704>
    b82c:	e2821001 	add	r1, r2, #1
    b830:	e080c002 	add	ip, r0, r2
    b834:	e5dcc018 	ldrb	ip, [ip, #24]
    b838:	e6ff1071 	uxth	r1, r1
    b83c:	e1570001 	cmp	r7, r1
    b840:	e7c3c002 	strb	ip, [r3, r2]
    b844:	e59fc144 	ldr	ip, [pc, #324]	; b990 <widget_receive_data_from_host+0x720>
    b848:	9a000008 	bls	b870 <widget_receive_data_from_host+0x600>
    b84c:	e2823002 	add	r3, r2, #2
    b850:	e080e001 	add	lr, r0, r1
    b854:	e6ff3073 	uxth	r3, r3
    b858:	e5de2018 	ldrb	r2, [lr, #24]
    b85c:	e1570003 	cmp	r7, r3
    b860:	e7cc2001 	strb	r2, [ip, r1]
    b864:	80800003 	addhi	r0, r0, r3
    b868:	85d02018 	ldrbhi	r2, [r0, #24]
    b86c:	87cc2003 	strbhi	r2, [ip, r3]
    b870:	e1a00007 	mov	r0, r7
    b874:	ebfff25d 	bl	81f0 <dmx_set_send_data_length>
    b878:	e3a00001 	mov	r0, #1
    b87c:	e1a01000 	mov	r1, r0
    b880:	ebfff4b7 	bl	8b64 <dmx_set_port_direction>
    b884:	eafffe85 	b	b2a0 <widget_receive_data_from_host+0x30>
    b888:	e59f40e4 	ldr	r4, [pc, #228]	; b974 <widget_receive_data_from_host+0x704>
    b88c:	e3a00007 	mov	r0, #7
    b890:	e59f1108 	ldr	r1, [pc, #264]	; b9a0 <widget_receive_data_from_host+0x730>
    b894:	ebfff99e 	bl	9f14 <monitor_line>
    b898:	e3a01000 	mov	r1, #0
    b89c:	e3a0001c 	mov	r0, #28
    b8a0:	ebfff99b 	bl	9f14 <monitor_line>
    b8a4:	e5d4001a 	ldrb	r0, [r4, #26]
    b8a8:	ebfffbba 	bl	a798 <widget_params_set_break_time>
    b8ac:	e5d4001b 	ldrb	r0, [r4, #27]
    b8b0:	ebfffbc5 	bl	a7cc <widget_params_set_mab_time>
    b8b4:	e5d4001c 	ldrb	r0, [r4, #28]
    b8b8:	ebfffbd1 	bl	a804 <widget_params_set_refresh_rate>
    b8bc:	e3a00002 	mov	r0, #2
    b8c0:	e3a01001 	mov	r1, #1
    b8c4:	ebfff4a6 	bl	8b64 <dmx_set_port_direction>
    b8c8:	e59f30a0 	ldr	r3, [pc, #160]	; b970 <widget_receive_data_from_host+0x700>
    b8cc:	e5933004 	ldr	r3, [r3, #4]
    b8d0:	e5843010 	str	r3, [r4, #16]
    b8d4:	eafffe71 	b	b2a0 <widget_receive_data_from_host+0x30>
    b8d8:	e3a00007 	mov	r0, #7
    b8dc:	e59f109c 	ldr	r1, [pc, #156]	; b980 <widget_receive_data_from_host+0x710>
    b8e0:	ebfff98b 	bl	9f14 <monitor_line>
    b8e4:	e3a01000 	mov	r1, #0
    b8e8:	e3a0001c 	mov	r0, #28
    b8ec:	ebfff988 	bl	9f14 <monitor_line>
    b8f0:	e28d0008 	add	r0, sp, #8
    b8f4:	ebfffb98 	bl	a75c <widget_params_get>
    b8f8:	e28d1008 	add	r1, sp, #8
    b8fc:	e3a00003 	mov	r0, #3
    b900:	e3a02005 	mov	r2, #5
    b904:	ebfffac5 	bl	a420 <usb_send_message>
    b908:	eafffe64 	b	b2a0 <widget_receive_data_from_host+0x30>
    b90c:	e2433001 	sub	r3, r3, #1
    b910:	e3a02c02 	mov	r2, #512	; 0x200
    b914:	e3a01001 	mov	r1, #1
    b918:	eaffff61 	b	b6a4 <widget_receive_data_from_host+0x434>
    b91c:	e2470001 	sub	r0, r7, #1
    b920:	e6ff0070 	uxth	r0, r0
    b924:	e59f1034 	ldr	r1, [pc, #52]	; b960 <widget_receive_data_from_host+0x6f0>
    b928:	e2800001 	add	r0, r0, #1
    b92c:	e7d1c002 	ldrb	ip, [r1, r2]
    b930:	e7c3c002 	strb	ip, [r3, r2]
    b934:	e2822001 	add	r2, r2, #1
    b938:	e1520000 	cmp	r2, r0
    b93c:	1afffffa 	bne	b92c <widget_receive_data_from_host+0x6bc>
    b940:	eaffffca 	b	b870 <widget_receive_data_from_host+0x600>
    b944:	e59f2058 	ldr	r2, [pc, #88]	; b9a4 <widget_receive_data_from_host+0x734>
    b948:	e3a01003 	mov	r1, #3
    b94c:	eaffff54 	b	b6a4 <widget_receive_data_from_host+0x434>
    b950:	e59f2050 	ldr	r2, [pc, #80]	; b9a8 <widget_receive_data_from_host+0x738>
    b954:	e3a01002 	mov	r1, #2
    b958:	eaffff51 	b	b6a4 <widget_receive_data_from_host+0x434>
    b95c:	20200000 	eorcs	r0, r0, r0
    b960:	00021558 	andeq	r1, r2, r8, asr r5
    b964:	00000257 	andeq	r0, r0, r7, asr r2
    b968:	0001e354 	andeq	lr, r1, r4, asr r3
    b96c:	0001e38c 	andeq	lr, r1, ip, lsl #7
    b970:	20003000 	andcs	r3, r0, r0
    b974:	00021540 	andeq	r1, r2, r0, asr #10
    b978:	0001e3a4 	andeq	lr, r1, r4, lsr #7
    b97c:	0001e3e8 	andeq	lr, r1, r8, ror #7
    b980:	0001e360 	andeq	lr, r1, r0, ror #6
    b984:	0001e3b8 			; <UNDEFINED> instruction: 0x0001e3b8
    b988:	000218cd 	andeq	r1, r2, sp, asr #17
    b98c:	000001fd 	strdeq	r0, [r0], -sp
    b990:	000218cc 	andeq	r1, r2, ip, asr #17
    b994:	0001e3d0 	ldrdeq	lr, [r1], -r0
    b998:	0001e2f8 	strdeq	lr, [r1], -r8
    b99c:	00021554 	andeq	r1, r2, r4, asr r5
    b9a0:	0001e378 	andeq	lr, r1, r8, ror r3
    b9a4:	000001fe 	strdeq	r0, [r0], -lr
    b9a8:	000001ff 	strdeq	r0, [r0], -pc	; <UNPREDICTABLE>

0000b9ac <notmain>:
    b9ac:	e92d41f0 	push	{r4, r5, r6, r7, r8, lr}
    b9b0:	e24dd010 	sub	sp, sp, #16
    b9b4:	eb003703 	bl	195c8 <hardware_init>
    b9b8:	eb0035cf 	bl	190fc <FT245RL_init>
    b9bc:	ebfff4ab 	bl	8c70 <dmx_init>
    b9c0:	ebfffbaa 	bl	a870 <widget_params_init>
    b9c4:	ebfff5a4 	bl	905c <rdm_device_info_init>
    b9c8:	eb0036a6 	bl	19468 <hardware_print_board_model>
    b9cc:	e59f20b8 	ldr	r2, [pc, #184]	; ba8c <notmain+0xe0>
    b9d0:	e59f10b8 	ldr	r1, [pc, #184]	; ba90 <notmain+0xe4>
    b9d4:	e59f00b8 	ldr	r0, [pc, #184]	; ba94 <notmain+0xe8>
    b9d8:	eb0004ca 	bl	cd08 <printf>
    b9dc:	ebfffcd4 	bl	ad34 <widget_get_mode>
    b9e0:	e1a01000 	mov	r1, r0
    b9e4:	e59f00ac 	ldr	r0, [pc, #172]	; ba98 <notmain+0xec>
    b9e8:	eb0004c6 	bl	cd08 <printf>
    b9ec:	ebfff597 	bl	9050 <rdm_device_info_get_uuid>
    b9f0:	e5d0c003 	ldrb	ip, [r0, #3]
    b9f4:	e5d02001 	ldrb	r2, [r0, #1]
    b9f8:	e5d03002 	ldrb	r3, [r0, #2]
    b9fc:	e5d01000 	ldrb	r1, [r0]
    ba00:	e58dc000 	str	ip, [sp]
    ba04:	e5d0c004 	ldrb	ip, [r0, #4]
    ba08:	e59f608c 	ldr	r6, [pc, #140]	; ba9c <notmain+0xf0>
    ba0c:	e58dc004 	str	ip, [sp, #4]
    ba10:	e5d00005 	ldrb	r0, [r0, #5]
    ba14:	e59f7084 	ldr	r7, [pc, #132]	; baa0 <notmain+0xf4>
    ba18:	e58d0008 	str	r0, [sp, #8]
    ba1c:	e59f0080 	ldr	r0, [pc, #128]	; baa4 <notmain+0xf8>
    ba20:	eb0004b8 	bl	cd08 <printf>
    ba24:	eb003a7b 	bl	1a418 <watchdog_init>
    ba28:	e5962000 	ldr	r2, [r6]
    ba2c:	e5973004 	ldr	r3, [r7, #4]
    ba30:	e59f5070 	ldr	r5, [pc, #112]	; baa8 <notmain+0xfc>
    ba34:	e0823003 	add	r3, r2, r3
    ba38:	e59f806c 	ldr	r8, [pc, #108]	; baac <notmain+0x100>
    ba3c:	e5863000 	str	r3, [r6]
    ba40:	eb003a80 	bl	1a448 <watchdog_feed>
    ba44:	e59f4064 	ldr	r4, [pc, #100]	; bab0 <notmain+0x104>
    ba48:	e5b43004 	ldr	r3, [r4, #4]!
    ba4c:	e12fff33 	blx	r3
    ba50:	e1540005 	cmp	r4, r5
    ba54:	1afffffb 	bne	ba48 <notmain+0x9c>
    ba58:	e5972004 	ldr	r2, [r7, #4]
    ba5c:	e5963000 	ldr	r3, [r6]
    ba60:	e59f4034 	ldr	r4, [pc, #52]	; ba9c <notmain+0xf0>
    ba64:	e0633002 	rsb	r3, r3, r2
    ba68:	e1530008 	cmp	r3, r8
    ba6c:	9afffff3 	bls	ba40 <notmain+0x94>
    ba70:	ebfffa82 	bl	a480 <monitor_update>
    ba74:	e5943000 	ldr	r3, [r4]
    ba78:	e283393d 	add	r3, r3, #999424	; 0xf4000
    ba7c:	e2833d09 	add	r3, r3, #576	; 0x240
    ba80:	e5843000 	str	r3, [r4]
    ba84:	eb003a6f 	bl	1a448 <watchdog_feed>
    ba88:	eaffffec 	b	ba40 <notmain+0x94>
    ba8c:	0001e428 	andeq	lr, r1, r8, lsr #8
    ba90:	0001e41c 	andeq	lr, r1, ip, lsl r4
    ba94:	0001e404 	andeq	lr, r1, r4, lsl #8
    ba98:	0001e434 	andeq	lr, r1, r4, lsr r4
    ba9c:	00021ad0 	ldrdeq	r1, [r2], -r0
    baa0:	20003000 	andcs	r3, r0, r0
    baa4:	0001e48c 	andeq	lr, r1, ip, lsl #9
    baa8:	0001d67c 	andeq	sp, r1, ip, ror r6
    baac:	000f4240 	andeq	r4, pc, r0, asr #4
    bab0:	0001d65c 	andeq	sp, r1, ip, asr r6

0000bab4 <initialise_monitor_handles>:
    bab4:	e12fff1e 	bx	lr

0000bab8 <_read>:
    bab8:	e1a00002 	mov	r0, r2
    babc:	e12fff1e 	bx	lr

0000bac0 <_lseek>:
    bac0:	e3a00000 	mov	r0, #0
    bac4:	e12fff1e 	bx	lr

0000bac8 <_write>:
    bac8:	e92d4070 	push	{r4, r5, r6, lr}
    bacc:	e2526000 	subs	r6, r2, #0
    bad0:	da000005 	ble	baec <_write+0x24>
    bad4:	e1a04001 	mov	r4, r1
    bad8:	e0815006 	add	r5, r1, r6
    badc:	e4d40001 	ldrb	r0, [r4], #1
    bae0:	eb0000a6 	bl	bd80 <console_putc>
    bae4:	e1540005 	cmp	r4, r5
    bae8:	1afffffb 	bne	badc <_write+0x14>
    baec:	e1a00006 	mov	r0, r6
    baf0:	e8bd8070 	pop	{r4, r5, r6, pc}

0000baf4 <_open>:
    baf4:	e92d000e 	push	{r1, r2, r3}
    baf8:	e3a00000 	mov	r0, #0
    bafc:	e28dd00c 	add	sp, sp, #12
    bb00:	e12fff1e 	bx	lr

0000bb04 <_close>:
    bb04:	e3a00000 	mov	r0, #0
    bb08:	e12fff1e 	bx	lr

0000bb0c <_exit>:
    bb0c:	eafffffe 	b	bb0c <_exit>

0000bb10 <_kill>:
    bb10:	e3a00000 	mov	r0, #0
    bb14:	e12fff1e 	bx	lr

0000bb18 <_getpid>:
    bb18:	e3a00001 	mov	r0, #1
    bb1c:	e12fff1e 	bx	lr

0000bb20 <_sbrk>:
    bb20:	e59f3028 	ldr	r3, [pc, #40]	; bb50 <_sbrk+0x30>
    bb24:	e59f1028 	ldr	r1, [pc, #40]	; bb54 <_sbrk+0x34>
    bb28:	e5932000 	ldr	r2, [r3]
    bb2c:	e3520000 	cmp	r2, #0
    bb30:	059f2020 	ldreq	r2, [pc, #32]	; bb58 <_sbrk+0x38>
    bb34:	e0820000 	add	r0, r2, r0
    bb38:	05832000 	streq	r2, [r3]
    bb3c:	e1500001 	cmp	r0, r1
    bb40:	95830000 	strls	r0, [r3]
    bb44:	91a00002 	movls	r0, r2
    bb48:	83a00000 	movhi	r0, #0
    bb4c:	e12fff1e 	bx	lr
    bb50:	000217b0 			; <UNDEFINED> instruction: 0x000217b0
    bb54:	08000000 	stmdaeq	r0, {}	; <UNPREDICTABLE>
    bb58:	000232d8 	ldrdeq	r3, [r2], -r8

0000bb5c <_fstat>:
    bb5c:	e3a00000 	mov	r0, #0
    bb60:	e12fff1e 	bx	lr

0000bb64 <_stat>:
    bb64:	e3a00000 	mov	r0, #0
    bb68:	e12fff1e 	bx	lr

0000bb6c <_link>:
    bb6c:	e3e00000 	mvn	r0, #0
    bb70:	e12fff1e 	bx	lr

0000bb74 <_unlink>:
    bb74:	e3e00000 	mvn	r0, #0
    bb78:	e12fff1e 	bx	lr

0000bb7c <_raise>:
    bb7c:	e12fff1e 	bx	lr

0000bb80 <_gettimeofday>:
    bb80:	e3500000 	cmp	r0, #0
    bb84:	13a03000 	movne	r3, #0
    bb88:	13a0200a 	movne	r2, #10
    bb8c:	1880000c 	stmne	r0, {r2, r3}
    bb90:	e3510000 	cmp	r1, #0
    bb94:	13a03000 	movne	r3, #0
    bb98:	15813000 	strne	r3, [r1]
    bb9c:	15813004 	strne	r3, [r1, #4]
    bba0:	e3a00000 	mov	r0, #0
    bba4:	e12fff1e 	bx	lr

0000bba8 <_times>:
    bba8:	e3500000 	cmp	r0, #0
    bbac:	13a03000 	movne	r3, #0
    bbb0:	13a0200a 	movne	r2, #10
    bbb4:	1880000c 	stmne	r0, {r2, r3}
    bbb8:	15803008 	strne	r3, [r0, #8]
    bbbc:	1580300c 	strne	r3, [r0, #12]
    bbc0:	e3a0000a 	mov	r0, #10
    bbc4:	e12fff1e 	bx	lr

0000bbc8 <_isatty>:
    bbc8:	e3a00001 	mov	r0, #1
    bbcc:	e12fff1e 	bx	lr

0000bbd0 <_system>:
    bbd0:	e3500000 	cmp	r0, #0
    bbd4:	e92d4008 	push	{r3, lr}
    bbd8:	08bd8008 	popeq	{r3, pc}
    bbdc:	eb003a41 	bl	1a4e8 <__errno>
    bbe0:	e3a03058 	mov	r3, #88	; 0x58
    bbe4:	e5803000 	str	r3, [r0]
    bbe8:	e3e00000 	mvn	r0, #0
    bbec:	e8bd8008 	pop	{r3, pc}

0000bbf0 <_rename>:
    bbf0:	e92d4008 	push	{r3, lr}
    bbf4:	eb003a3b 	bl	1a4e8 <__errno>
    bbf8:	e3a03058 	mov	r3, #88	; 0x58
    bbfc:	e5803000 	str	r3, [r0]
    bc00:	e3e00000 	mvn	r0, #0
    bc04:	e8bd8008 	pop	{r3, pc}

0000bc08 <console_get_address>:
    bc08:	e59f3004 	ldr	r3, [pc, #4]	; bc14 <console_get_address+0xc>
    bc0c:	e5930000 	ldr	r0, [r3]
    bc10:	e12fff1e 	bx	lr
    bc14:	000217b4 			; <UNDEFINED> instruction: 0x000217b4

0000bc18 <console_get_pitch>:
    bc18:	e59f3004 	ldr	r3, [pc, #4]	; bc24 <console_get_pitch+0xc>
    bc1c:	e5930004 	ldr	r0, [r3, #4]
    bc20:	e12fff1e 	bx	lr
    bc24:	000217b4 			; <UNDEFINED> instruction: 0x000217b4

0000bc28 <console_get_width>:
    bc28:	e59f3004 	ldr	r3, [pc, #4]	; bc34 <console_get_width+0xc>
    bc2c:	e5930008 	ldr	r0, [r3, #8]
    bc30:	e12fff1e 	bx	lr
    bc34:	000217b4 			; <UNDEFINED> instruction: 0x000217b4

0000bc38 <console_get_height>:
    bc38:	e59f3004 	ldr	r3, [pc, #4]	; bc44 <console_get_height+0xc>
    bc3c:	e593000c 	ldr	r0, [r3, #12]
    bc40:	e12fff1e 	bx	lr
    bc44:	000217b4 			; <UNDEFINED> instruction: 0x000217b4

0000bc48 <console_get_size>:
    bc48:	e59f3004 	ldr	r3, [pc, #4]	; bc54 <console_get_size+0xc>
    bc4c:	e5930010 	ldr	r0, [r3, #16]
    bc50:	e12fff1e 	bx	lr
    bc54:	000217b4 			; <UNDEFINED> instruction: 0x000217b4

0000bc58 <console_get_depth>:
    bc58:	e59f3004 	ldr	r3, [pc, #4]	; bc64 <console_get_depth+0xc>
    bc5c:	e5930014 	ldr	r0, [r3, #20]
    bc60:	e12fff1e 	bx	lr
    bc64:	000217b4 			; <UNDEFINED> instruction: 0x000217b4

0000bc68 <console_draw_char>:
    bc68:	e92d4ff0 	push	{r4, r5, r6, r7, r8, r9, sl, fp, lr}
    bc6c:	e1a05001 	mov	r5, r1
    bc70:	e3a01d19 	mov	r1, #1600	; 0x640
    bc74:	e24dd00c 	sub	sp, sp, #12
    bc78:	e1a02202 	lsl	r2, r2, #4
    bc7c:	e1a0e185 	lsl	lr, r5, #3
    bc80:	e58d0004 	str	r0, [sp, #4]
    bc84:	e0000291 	mul	r0, r1, r2
    bc88:	e59f20e8 	ldr	r2, [pc, #232]	; bd78 <console_draw_char+0x110>
    bc8c:	e28e4006 	add	r4, lr, #6
    bc90:	e5922000 	ldr	r2, [r2]
    bc94:	e1a04084 	lsl	r4, r4, #1
    bc98:	e284a002 	add	sl, r4, #2
    bc9c:	e28e9001 	add	r9, lr, #1
    bca0:	e28e8002 	add	r8, lr, #2
    bca4:	e28e7003 	add	r7, lr, #3
    bca8:	e28e6004 	add	r6, lr, #4
    bcac:	e28ee005 	add	lr, lr, #5
    bcb0:	e59f10c4 	ldr	r1, [pc, #196]	; bd7c <console_draw_char+0x114>
    bcb4:	e08aa002 	add	sl, sl, r2
    bcb8:	e0844002 	add	r4, r4, r2
    bcbc:	e0825205 	add	r5, r2, r5, lsl #4
    bcc0:	e0829089 	add	r9, r2, r9, lsl #1
    bcc4:	e0828088 	add	r8, r2, r8, lsl #1
    bcc8:	e0827087 	add	r7, r2, r7, lsl #1
    bccc:	e0826086 	add	r6, r2, r6, lsl #1
    bcd0:	e082e08e 	add	lr, r2, lr, lsl #1
    bcd4:	e59d2004 	ldr	r2, [sp, #4]
    bcd8:	e1ddc3b0 	ldrh	ip, [sp, #48]	; 0x30
    bcdc:	e280bb19 	add	fp, r0, #25600	; 0x6400
    bce0:	e0811202 	add	r1, r1, r2, lsl #4
    bce4:	e5f12001 	ldrb	r2, [r1, #1]!
    bce8:	e3120001 	tst	r2, #1
    bcec:	e1a020a2 	lsr	r2, r2, #1
    bcf0:	0180c0b5 	strheq	ip, [r0, r5]
    bcf4:	118530b0 	strhne	r3, [r5, r0]
    bcf8:	e3120001 	tst	r2, #1
    bcfc:	e1a020a2 	lsr	r2, r2, #1
    bd00:	0189c0b0 	strheq	ip, [r9, r0]
    bd04:	118930b0 	strhne	r3, [r9, r0]
    bd08:	e3120001 	tst	r2, #1
    bd0c:	e1a020a2 	lsr	r2, r2, #1
    bd10:	0188c0b0 	strheq	ip, [r8, r0]
    bd14:	118830b0 	strhne	r3, [r8, r0]
    bd18:	e3120001 	tst	r2, #1
    bd1c:	e1a020a2 	lsr	r2, r2, #1
    bd20:	0180c0b7 	strheq	ip, [r0, r7]
    bd24:	118030b7 	strhne	r3, [r0, r7]
    bd28:	e3120001 	tst	r2, #1
    bd2c:	e1a020a2 	lsr	r2, r2, #1
    bd30:	0180c0b6 	strheq	ip, [r0, r6]
    bd34:	118030b6 	strhne	r3, [r0, r6]
    bd38:	e3120001 	tst	r2, #1
    bd3c:	e1a020a2 	lsr	r2, r2, #1
    bd40:	0180c0be 	strheq	ip, [r0, lr]
    bd44:	118030be 	strhne	r3, [r0, lr]
    bd48:	e3120001 	tst	r2, #1
    bd4c:	0180c0b4 	strheq	ip, [r0, r4]
    bd50:	118030b4 	strhne	r3, [r0, r4]
    bd54:	e3120002 	tst	r2, #2
    bd58:	0180c0ba 	strheq	ip, [r0, sl]
    bd5c:	118030ba 	strhne	r3, [r0, sl]
    bd60:	e2800d19 	add	r0, r0, #1600	; 0x640
    bd64:	e150000b 	cmp	r0, fp
    bd68:	1affffdd 	bne	bce4 <console_draw_char+0x7c>
    bd6c:	e59d0004 	ldr	r0, [sp, #4]
    bd70:	e28dd00c 	add	sp, sp, #12
    bd74:	e8bd8ff0 	pop	{r4, r5, r6, r7, r8, r9, sl, fp, pc}
    bd78:	000217b4 			; <UNDEFINED> instruction: 0x000217b4
    bd7c:	0000cd8f 	andeq	ip, r0, pc, lsl #27

0000bd80 <console_putc>:
    bd80:	e92d4ff0 	push	{r4, r5, r6, r7, r8, r9, sl, fp, lr}
    bd84:	e350000a 	cmp	r0, #10
    bd88:	e24dd01c 	sub	sp, sp, #28
    bd8c:	e58d0004 	str	r0, [sp, #4]
    bd90:	0a00008f 	beq	bfd4 <console_putc+0x254>
    bd94:	e350000d 	cmp	r0, #13
    bd98:	0a00005d 	beq	bf14 <console_putc+0x194>
    bd9c:	e3500009 	cmp	r0, #9
    bda0:	0a000054 	beq	bef8 <console_putc+0x178>
    bda4:	e59f32c4 	ldr	r3, [pc, #708]	; c070 <console_putc+0x2f0>
    bda8:	e3a01d19 	mov	r1, #1600	; 0x640
    bdac:	e1a02003 	mov	r2, r3
    bdb0:	e5920018 	ldr	r0, [r2, #24]
    bdb4:	e58d3008 	str	r3, [sp, #8]
    bdb8:	e1a0c000 	mov	ip, r0
    bdbc:	e58d0010 	str	r0, [sp, #16]
    bdc0:	e1a00002 	mov	r0, r2
    bdc4:	e592201c 	ldr	r2, [r2, #28]
    bdc8:	e59f32a4 	ldr	r3, [pc, #676]	; c074 <console_putc+0x2f4>
    bdcc:	e1a0b002 	mov	fp, r2
    bdd0:	e58d200c 	str	r2, [sp, #12]
    bdd4:	e1a0220c 	lsl	r2, ip, #4
    bdd8:	e0020291 	mul	r2, r1, r2
    bddc:	e5901000 	ldr	r1, [r0]
    bde0:	e1a0e18b 	lsl	lr, fp, #3
    bde4:	e1a0a001 	mov	sl, r1
    bde8:	e58d1014 	str	r1, [sp, #20]
    bdec:	e1d310b0 	ldrh	r1, [r3]
    bdf0:	e1a0300a 	mov	r3, sl
    bdf4:	e28e4006 	add	r4, lr, #6
    bdf8:	e1a04084 	lsl	r4, r4, #1
    bdfc:	e59fc274 	ldr	ip, [pc, #628]	; c078 <console_putc+0x2f8>
    be00:	e083b20b 	add	fp, r3, fp, lsl #4
    be04:	e59d3004 	ldr	r3, [sp, #4]
    be08:	e2849002 	add	r9, r4, #2
    be0c:	e28e8001 	add	r8, lr, #1
    be10:	e28e7002 	add	r7, lr, #2
    be14:	e28e6003 	add	r6, lr, #3
    be18:	e28e5004 	add	r5, lr, #4
    be1c:	e1d002b0 	ldrh	r0, [r0, #32]
    be20:	e28ee005 	add	lr, lr, #5
    be24:	e089900a 	add	r9, r9, sl
    be28:	e084400a 	add	r4, r4, sl
    be2c:	e08a8088 	add	r8, sl, r8, lsl #1
    be30:	e08a7087 	add	r7, sl, r7, lsl #1
    be34:	e08a6086 	add	r6, sl, r6, lsl #1
    be38:	e08a5085 	add	r5, sl, r5, lsl #1
    be3c:	e08ae08e 	add	lr, sl, lr, lsl #1
    be40:	e08cc203 	add	ip, ip, r3, lsl #4
    be44:	e282ab19 	add	sl, r2, #25600	; 0x6400
    be48:	e5fc3001 	ldrb	r3, [ip, #1]!
    be4c:	e3130001 	tst	r3, #1
    be50:	e1a030a3 	lsr	r3, r3, #1
    be54:	018200bb 	strheq	r0, [r2, fp]
    be58:	118b10b2 	strhne	r1, [fp, r2]
    be5c:	e3130001 	tst	r3, #1
    be60:	e1a030a3 	lsr	r3, r3, #1
    be64:	018800b2 	strheq	r0, [r8, r2]
    be68:	118810b2 	strhne	r1, [r8, r2]
    be6c:	e3130001 	tst	r3, #1
    be70:	e1a030a3 	lsr	r3, r3, #1
    be74:	018700b2 	strheq	r0, [r7, r2]
    be78:	118710b2 	strhne	r1, [r7, r2]
    be7c:	e3130001 	tst	r3, #1
    be80:	e1a030a3 	lsr	r3, r3, #1
    be84:	018600b2 	strheq	r0, [r6, r2]
    be88:	118610b2 	strhne	r1, [r6, r2]
    be8c:	e3130001 	tst	r3, #1
    be90:	e1a030a3 	lsr	r3, r3, #1
    be94:	018500b2 	strheq	r0, [r5, r2]
    be98:	118510b2 	strhne	r1, [r5, r2]
    be9c:	e3130001 	tst	r3, #1
    bea0:	e1a030a3 	lsr	r3, r3, #1
    bea4:	018e00b2 	strheq	r0, [lr, r2]
    bea8:	118e10b2 	strhne	r1, [lr, r2]
    beac:	e3130001 	tst	r3, #1
    beb0:	018400b2 	strheq	r0, [r4, r2]
    beb4:	118410b2 	strhne	r1, [r4, r2]
    beb8:	e3130002 	tst	r3, #2
    bebc:	018900b2 	strheq	r0, [r9, r2]
    bec0:	118910b2 	strhne	r1, [r9, r2]
    bec4:	e2822d19 	add	r2, r2, #1600	; 0x640
    bec8:	e152000a 	cmp	r2, sl
    becc:	1affffdd 	bne	be48 <console_putc+0xc8>
    bed0:	e59d300c 	ldr	r3, [sp, #12]
    bed4:	e59d2008 	ldr	r2, [sp, #8]
    bed8:	e2833001 	add	r3, r3, #1
    bedc:	e3530064 	cmp	r3, #100	; 0x64
    bee0:	e582301c 	str	r3, [r2, #28]
    bee4:	e59f4184 	ldr	r4, [pc, #388]	; c070 <console_putc+0x2f0>
    bee8:	0a00000f 	beq	bf2c <console_putc+0x1ac>
    beec:	e59d0004 	ldr	r0, [sp, #4]
    bef0:	e28dd01c 	add	sp, sp, #28
    bef4:	e8bd8ff0 	pop	{r4, r5, r6, r7, r8, r9, sl, fp, pc}
    bef8:	e59f2170 	ldr	r2, [pc, #368]	; c070 <console_putc+0x2f0>
    befc:	e59d0004 	ldr	r0, [sp, #4]
    bf00:	e592301c 	ldr	r3, [r2, #28]
    bf04:	e2833004 	add	r3, r3, #4
    bf08:	e582301c 	str	r3, [r2, #28]
    bf0c:	e28dd01c 	add	sp, sp, #28
    bf10:	e8bd8ff0 	pop	{r4, r5, r6, r7, r8, r9, sl, fp, pc}
    bf14:	e3a02000 	mov	r2, #0
    bf18:	e59f3150 	ldr	r3, [pc, #336]	; c070 <console_putc+0x2f0>
    bf1c:	e59d0004 	ldr	r0, [sp, #4]
    bf20:	e583201c 	str	r2, [r3, #28]
    bf24:	e28dd01c 	add	sp, sp, #28
    bf28:	e8bd8ff0 	pop	{r4, r5, r6, r7, r8, r9, sl, fp, pc}
    bf2c:	e3a02000 	mov	r2, #0
    bf30:	e59d3010 	ldr	r3, [sp, #16]
    bf34:	e584201c 	str	r2, [r4, #28]
    bf38:	e2833001 	add	r3, r3, #1
    bf3c:	e353001e 	cmp	r3, #30
    bf40:	e5843018 	str	r3, [r4, #24]
    bf44:	1affffe8 	bne	beec <console_putc+0x16c>
    bf48:	e59d0014 	ldr	r0, [sp, #20]
    bf4c:	e59f2128 	ldr	r2, [pc, #296]	; c07c <console_putc+0x2fc>
    bf50:	e2801b19 	add	r1, r0, #25600	; 0x6400
    bf54:	eb003b93 	bl	1ada8 <memmove>
    bf58:	e5943000 	ldr	r3, [r4]
    bf5c:	e1d4e2b0 	ldrh	lr, [r4, #32]
    bf60:	e2833ab5 	add	r3, r3, #741376	; 0xb5000
    bf64:	e2833b01 	add	r3, r3, #1024	; 0x400
    bf68:	e2132002 	ands	r2, r3, #2
    bf6c:	13e02000 	mvnne	r2, #0
    bf70:	e2120001 	ands	r0, r2, #1
    bf74:	03a0cc32 	moveq	ip, #12800	; 0x3200
    bf78:	03a01c19 	moveq	r1, #6400	; 0x1900
    bf7c:	01a0500c 	moveq	r5, ip
    bf80:	e3a02000 	mov	r2, #0
    bf84:	159fc0f4 	ldrne	ip, [pc, #244]	; c080 <console_putc+0x300>
    bf88:	159f10f4 	ldrne	r1, [pc, #244]	; c084 <console_putc+0x304>
    bf8c:	159f50f4 	ldrne	r5, [pc, #244]	; c088 <console_putc+0x308>
    bf90:	11c3e0b0 	strhne	lr, [r3]
    bf94:	12834002 	addne	r4, r3, #2
    bf98:	01a04003 	moveq	r4, r3
    bf9c:	e0833080 	add	r3, r3, r0, lsl #1
    bfa0:	e18e080e 	orr	r0, lr, lr, lsl #16
    bfa4:	e2822001 	add	r2, r2, #1
    bfa8:	e1520001 	cmp	r2, r1
    bfac:	e4830004 	str	r0, [r3], #4
    bfb0:	3afffffb 	bcc	bfa4 <console_putc+0x224>
    bfb4:	e59d2008 	ldr	r2, [sp, #8]
    bfb8:	e155000c 	cmp	r5, ip
    bfbc:	e5923018 	ldr	r3, [r2, #24]
    bfc0:	e1a0c08c 	lsl	ip, ip, #1
    bfc4:	e2433001 	sub	r3, r3, #1
    bfc8:	1184e0bc 	strhne	lr, [r4, ip]
    bfcc:	e5823018 	str	r3, [r2, #24]
    bfd0:	eaffffc5 	b	beec <console_putc+0x16c>
    bfd4:	e59f3094 	ldr	r3, [pc, #148]	; c070 <console_putc+0x2f0>
    bfd8:	e3a02000 	mov	r2, #0
    bfdc:	e1a01003 	mov	r1, r3
    bfe0:	e58d3008 	str	r3, [sp, #8]
    bfe4:	e5933018 	ldr	r3, [r3, #24]
    bfe8:	e581201c 	str	r2, [r1, #28]
    bfec:	e2833001 	add	r3, r3, #1
    bff0:	e353001e 	cmp	r3, #30
    bff4:	e5813018 	str	r3, [r1, #24]
    bff8:	1affffbb 	bne	beec <console_putc+0x16c>
    bffc:	e1a04001 	mov	r4, r1
    c000:	e5910000 	ldr	r0, [r1]
    c004:	e59f2070 	ldr	r2, [pc, #112]	; c07c <console_putc+0x2fc>
    c008:	e2801b19 	add	r1, r0, #25600	; 0x6400
    c00c:	eb003b65 	bl	1ada8 <memmove>
    c010:	e5943000 	ldr	r3, [r4]
    c014:	e1d4e2b0 	ldrh	lr, [r4, #32]
    c018:	e2833ab5 	add	r3, r3, #741376	; 0xb5000
    c01c:	e2833b01 	add	r3, r3, #1024	; 0x400
    c020:	e2132002 	ands	r2, r3, #2
    c024:	13e02000 	mvnne	r2, #0
    c028:	e2120001 	ands	r0, r2, #1
    c02c:	03a0cc32 	moveq	ip, #12800	; 0x3200
    c030:	03a01c19 	moveq	r1, #6400	; 0x1900
    c034:	01a0500c 	moveq	r5, ip
    c038:	e3a02000 	mov	r2, #0
    c03c:	159f1040 	ldrne	r1, [pc, #64]	; c084 <console_putc+0x304>
    c040:	159fc038 	ldrne	ip, [pc, #56]	; c080 <console_putc+0x300>
    c044:	159f503c 	ldrne	r5, [pc, #60]	; c088 <console_putc+0x308>
    c048:	11c3e0b0 	strhne	lr, [r3]
    c04c:	12834002 	addne	r4, r3, #2
    c050:	01a04003 	moveq	r4, r3
    c054:	e0833080 	add	r3, r3, r0, lsl #1
    c058:	e18e080e 	orr	r0, lr, lr, lsl #16
    c05c:	e2822001 	add	r2, r2, #1
    c060:	e1520001 	cmp	r2, r1
    c064:	e4830004 	str	r0, [r3], #4
    c068:	3afffffb 	bcc	c05c <console_putc+0x2dc>
    c06c:	eaffffd0 	b	bfb4 <console_putc+0x234>
    c070:	000217b4 			; <UNDEFINED> instruction: 0x000217b4
    c074:	0001e9d0 	ldrdeq	lr, [r1], -r0
    c078:	0000cd8f 	andeq	ip, r0, pc, lsl #27
    c07c:	000b5400 	andeq	r5, fp, r0, lsl #8
    c080:	000031fe 	strdeq	r3, [r0], -lr
    c084:	000018ff 	strdeq	r1, [r0], -pc	; <UNPREDICTABLE>
    c088:	000031ff 	strdeq	r3, [r0], -pc	; <UNPREDICTABLE>

0000c08c <console_puts>:
    c08c:	e92d4010 	push	{r4, lr}
    c090:	e1a04000 	mov	r4, r0
    c094:	e5d00000 	ldrb	r0, [r0]
    c098:	e2844001 	add	r4, r4, #1
    c09c:	e3500000 	cmp	r0, #0
    c0a0:	08bd8010 	popeq	{r4, pc}
    c0a4:	ebffff35 	bl	bd80 <console_putc>
    c0a8:	e4d40001 	ldrb	r0, [r4], #1
    c0ac:	e3500000 	cmp	r0, #0
    c0b0:	1afffffb 	bne	c0a4 <console_puts+0x18>
    c0b4:	e8bd8010 	pop	{r4, pc}

0000c0b8 <console_puthex>:
    c0b8:	e92d4010 	push	{r4, lr}
    c0bc:	e1a04000 	mov	r4, r0
    c0c0:	e1a00220 	lsr	r0, r0, #4
    c0c4:	e3500009 	cmp	r0, #9
    c0c8:	e204400f 	and	r4, r4, #15
    c0cc:	92800030 	addls	r0, r0, #48	; 0x30
    c0d0:	82800037 	addhi	r0, r0, #55	; 0x37
    c0d4:	ebffff29 	bl	bd80 <console_putc>
    c0d8:	e3540009 	cmp	r4, #9
    c0dc:	92840030 	addls	r0, r4, #48	; 0x30
    c0e0:	82840037 	addhi	r0, r4, #55	; 0x37
    c0e4:	e8bd4010 	pop	{r4, lr}
    c0e8:	eaffff24 	b	bd80 <console_putc>

0000c0ec <console_puthex_fg_bg>:
    c0ec:	e92d41f0 	push	{r4, r5, r6, r7, r8, lr}
    c0f0:	e1a04000 	mov	r4, r0
    c0f4:	e1a00220 	lsr	r0, r0, #4
    c0f8:	e3500009 	cmp	r0, #9
    c0fc:	e59f803c 	ldr	r8, [pc, #60]	; c140 <console_puthex_fg_bg+0x54>
    c100:	e59f503c 	ldr	r5, [pc, #60]	; c144 <console_puthex_fg_bg+0x58>
    c104:	e204400f 	and	r4, r4, #15
    c108:	92800030 	addls	r0, r0, #48	; 0x30
    c10c:	82800037 	addhi	r0, r0, #55	; 0x37
    c110:	e1d870b0 	ldrh	r7, [r8]
    c114:	e1d562b0 	ldrh	r6, [r5, #32]
    c118:	e1c810b0 	strh	r1, [r8]
    c11c:	e1c522b0 	strh	r2, [r5, #32]
    c120:	ebffff16 	bl	bd80 <console_putc>
    c124:	e3540009 	cmp	r4, #9
    c128:	92840030 	addls	r0, r4, #48	; 0x30
    c12c:	82840037 	addhi	r0, r4, #55	; 0x37
    c130:	ebffff12 	bl	bd80 <console_putc>
    c134:	e1c870b0 	strh	r7, [r8]
    c138:	e1c562b0 	strh	r6, [r5, #32]
    c13c:	e8bd81f0 	pop	{r4, r5, r6, r7, r8, pc}
    c140:	0001e9d0 	ldrdeq	lr, [r1], -r0
    c144:	000217b4 			; <UNDEFINED> instruction: 0x000217b4

0000c148 <console_newline>:
    c148:	e3a02000 	mov	r2, #0
    c14c:	e92d4070 	push	{r4, r5, r6, lr}
    c150:	e59f409c 	ldr	r4, [pc, #156]	; c1f4 <console_newline+0xac>
    c154:	e5943018 	ldr	r3, [r4, #24]
    c158:	e584201c 	str	r2, [r4, #28]
    c15c:	e2833001 	add	r3, r3, #1
    c160:	e353001e 	cmp	r3, #30
    c164:	e5843018 	str	r3, [r4, #24]
    c168:	18bd8070 	popne	{r4, r5, r6, pc}
    c16c:	e5940000 	ldr	r0, [r4]
    c170:	e59f2080 	ldr	r2, [pc, #128]	; c1f8 <console_newline+0xb0>
    c174:	e2801b19 	add	r1, r0, #25600	; 0x6400
    c178:	eb003b0a 	bl	1ada8 <memmove>
    c17c:	e5942000 	ldr	r2, [r4]
    c180:	e1d4e2b0 	ldrh	lr, [r4, #32]
    c184:	e2822ab5 	add	r2, r2, #741376	; 0xb5000
    c188:	e2822b01 	add	r2, r2, #1024	; 0x400
    c18c:	e2123002 	ands	r3, r2, #2
    c190:	13e03000 	mvnne	r3, #0
    c194:	e2130001 	ands	r0, r3, #1
    c198:	03a0cc32 	moveq	ip, #12800	; 0x3200
    c19c:	03a01c19 	moveq	r1, #6400	; 0x1900
    c1a0:	01a0600c 	moveq	r6, ip
    c1a4:	e3a03000 	mov	r3, #0
    c1a8:	159fc04c 	ldrne	ip, [pc, #76]	; c1fc <console_newline+0xb4>
    c1ac:	159f104c 	ldrne	r1, [pc, #76]	; c200 <console_newline+0xb8>
    c1b0:	159f604c 	ldrne	r6, [pc, #76]	; c204 <console_newline+0xbc>
    c1b4:	11c2e0b0 	strhne	lr, [r2]
    c1b8:	12825002 	addne	r5, r2, #2
    c1bc:	01a05002 	moveq	r5, r2
    c1c0:	e0822080 	add	r2, r2, r0, lsl #1
    c1c4:	e18e080e 	orr	r0, lr, lr, lsl #16
    c1c8:	e2833001 	add	r3, r3, #1
    c1cc:	e1530001 	cmp	r3, r1
    c1d0:	e4820004 	str	r0, [r2], #4
    c1d4:	3afffffb 	bcc	c1c8 <console_newline+0x80>
    c1d8:	e5943018 	ldr	r3, [r4, #24]
    c1dc:	e156000c 	cmp	r6, ip
    c1e0:	e2433001 	sub	r3, r3, #1
    c1e4:	e1a0c08c 	lsl	ip, ip, #1
    c1e8:	1185e0bc 	strhne	lr, [r5, ip]
    c1ec:	e5843018 	str	r3, [r4, #24]
    c1f0:	e8bd8070 	pop	{r4, r5, r6, pc}
    c1f4:	000217b4 			; <UNDEFINED> instruction: 0x000217b4
    c1f8:	000b5400 	andeq	r5, fp, r0, lsl #8
    c1fc:	000031fe 	strdeq	r3, [r0], -lr
    c200:	000018ff 	strdeq	r1, [r0], -pc	; <UNPREDICTABLE>
    c204:	000031ff 	strdeq	r3, [r0], -pc	; <UNPREDICTABLE>

0000c208 <console_clear>:
    c208:	e59fc070 	ldr	ip, [pc, #112]	; c280 <console_clear+0x78>
    c20c:	e92d4070 	push	{r4, r5, r6, lr}
    c210:	e59c2000 	ldr	r2, [ip]
    c214:	e1dc42b0 	ldrh	r4, [ip, #32]
    c218:	e2123002 	ands	r3, r2, #2
    c21c:	13e03000 	mvnne	r3, #0
    c220:	e2130001 	ands	r0, r3, #1
    c224:	059fe058 	ldreq	lr, [pc, #88]	; c284 <console_clear+0x7c>
    c228:	e3a03000 	mov	r3, #0
    c22c:	01a0600e 	moveq	r6, lr
    c230:	159fe050 	ldrne	lr, [pc, #80]	; c288 <console_clear+0x80>
    c234:	159f1050 	ldrne	r1, [pc, #80]	; c28c <console_clear+0x84>
    c238:	159f6050 	ldrne	r6, [pc, #80]	; c290 <console_clear+0x88>
    c23c:	059f1050 	ldreq	r1, [pc, #80]	; c294 <console_clear+0x8c>
    c240:	11c240b0 	strhne	r4, [r2]
    c244:	12825002 	addne	r5, r2, #2
    c248:	01a05002 	moveq	r5, r2
    c24c:	e0822080 	add	r2, r2, r0, lsl #1
    c250:	e1840804 	orr	r0, r4, r4, lsl #16
    c254:	e2833001 	add	r3, r3, #1
    c258:	e1530001 	cmp	r3, r1
    c25c:	e4820004 	str	r0, [r2], #4
    c260:	3afffffb 	bcc	c254 <console_clear+0x4c>
    c264:	e3a03000 	mov	r3, #0
    c268:	e156000e 	cmp	r6, lr
    c26c:	e1a0e08e 	lsl	lr, lr, #1
    c270:	118540be 	strhne	r4, [r5, lr]
    c274:	e58c301c 	str	r3, [ip, #28]
    c278:	e58c3018 	str	r3, [ip, #24]
    c27c:	e8bd8070 	pop	{r4, r5, r6, pc}
    c280:	000217b4 			; <UNDEFINED> instruction: 0x000217b4
    c284:	0005dc00 	andeq	sp, r5, r0, lsl #24
    c288:	0005dbfe 	strdeq	sp, [r5], -lr
    c28c:	0002edff 	strdeq	lr, [r2], -pc	; <UNPREDICTABLE>
    c290:	0005dbff 	strdeq	sp, [r5], -pc	; <UNPREDICTABLE>
    c294:	0002ee00 	andeq	lr, r2, r0, lsl #28

0000c298 <console_set_cursor>:
    c298:	e3500064 	cmp	r0, #100	; 0x64
    c29c:	c3a00000 	movgt	r0, #0
    c2a0:	e351001e 	cmp	r1, #30
    c2a4:	c3a01000 	movgt	r1, #0
    c2a8:	e59f3008 	ldr	r3, [pc, #8]	; c2b8 <console_set_cursor+0x20>
    c2ac:	e583001c 	str	r0, [r3, #28]
    c2b0:	e5831018 	str	r1, [r3, #24]
    c2b4:	e12fff1e 	bx	lr
    c2b8:	000217b4 			; <UNDEFINED> instruction: 0x000217b4

0000c2bc <console_set_fg_color>:
    c2bc:	e59f3004 	ldr	r3, [pc, #4]	; c2c8 <console_set_fg_color+0xc>
    c2c0:	e1c300b0 	strh	r0, [r3]
    c2c4:	e12fff1e 	bx	lr
    c2c8:	0001e9d0 	ldrdeq	lr, [r1], -r0

0000c2cc <console_set_bg_color>:
    c2cc:	e59f3004 	ldr	r3, [pc, #4]	; c2d8 <console_set_bg_color+0xc>
    c2d0:	e1c302b0 	strh	r0, [r3, #32]
    c2d4:	e12fff1e 	bx	lr
    c2d8:	000217b4 			; <UNDEFINED> instruction: 0x000217b4

0000c2dc <console_clear_line>:
    c2dc:	e3a01b19 	mov	r1, #25600	; 0x6400
    c2e0:	e59f3080 	ldr	r3, [pc, #128]	; c368 <console_clear_line+0x8c>
    c2e4:	e0010091 	mul	r1, r1, r0
    c2e8:	e92d4070 	push	{r4, r5, r6, lr}
    c2ec:	e593e000 	ldr	lr, [r3]
    c2f0:	e350001e 	cmp	r0, #30
    c2f4:	e081200e 	add	r2, r1, lr
    c2f8:	c3a00000 	movgt	r0, #0
    c2fc:	e212c002 	ands	ip, r2, #2
    c300:	13e0c000 	mvnne	ip, #0
    c304:	e21cc001 	ands	ip, ip, #1
    c308:	e3a04000 	mov	r4, #0
    c30c:	03a0ec32 	moveq	lr, #12800	; 0x3200
    c310:	e5830018 	str	r0, [r3, #24]
    c314:	e583401c 	str	r4, [r3, #28]
    c318:	01a0600e 	moveq	r6, lr
    c31c:	e1d342b0 	ldrh	r4, [r3, #32]
    c320:	03a01c19 	moveq	r1, #6400	; 0x1900
    c324:	e3a03000 	mov	r3, #0
    c328:	118140be 	strhne	r4, [r1, lr]
    c32c:	159f6038 	ldrne	r6, [pc, #56]	; c36c <console_clear_line+0x90>
    c330:	159fe038 	ldrne	lr, [pc, #56]	; c370 <console_clear_line+0x94>
    c334:	159f1038 	ldrne	r1, [pc, #56]	; c374 <console_clear_line+0x98>
    c338:	12825002 	addne	r5, r2, #2
    c33c:	01a05002 	moveq	r5, r2
    c340:	e1840804 	orr	r0, r4, r4, lsl #16
    c344:	e082208c 	add	r2, r2, ip, lsl #1
    c348:	e2833001 	add	r3, r3, #1
    c34c:	e1530001 	cmp	r3, r1
    c350:	e4820004 	str	r0, [r2], #4
    c354:	3afffffb 	bcc	c348 <console_clear_line+0x6c>
    c358:	e156000e 	cmp	r6, lr
    c35c:	e1a0e08e 	lsl	lr, lr, #1
    c360:	118540be 	strhne	r4, [r5, lr]
    c364:	e8bd8070 	pop	{r4, r5, r6, pc}
    c368:	000217b4 			; <UNDEFINED> instruction: 0x000217b4
    c36c:	000031ff 	strdeq	r3, [r0], -pc	; <UNPREDICTABLE>
    c370:	000031fe 	strdeq	r3, [r0], -lr
    c374:	000018ff 	strdeq	r1, [r0], -pc	; <UNPREDICTABLE>

0000c378 <console_init>:
    c378:	e92d4ff8 	push	{r3, r4, r5, r6, r7, r8, r9, sl, fp, lr}
    c37c:	e3a0c020 	mov	ip, #32
    c380:	e3a03000 	mov	r3, #0
    c384:	e3a05008 	mov	r5, #8
    c388:	e28db024 	add	fp, sp, #36	; 0x24
    c38c:	e24dde11 	sub	sp, sp, #272	; 0x110
    c390:	e59f2198 	ldr	r2, [pc, #408]	; c530 <console_init+0x1b8>
    c394:	e28d400f 	add	r4, sp, #15
    c398:	e3c4400f 	bic	r4, r4, #15
    c39c:	e1a01004 	mov	r1, r4
    c3a0:	e5842008 	str	r2, [r4, #8]
    c3a4:	e5843004 	str	r3, [r4, #4]
    c3a8:	e5843010 	str	r3, [r4, #16]
    c3ac:	e5843014 	str	r3, [r4, #20]
    c3b0:	e5843018 	str	r3, [r4, #24]
    c3b4:	e584301c 	str	r3, [r4, #28]
    c3b8:	e1a00005 	mov	r0, r5
    c3bc:	e584c000 	str	ip, [r4]
    c3c0:	e584500c 	str	r5, [r4, #12]
    c3c4:	eb0036a3 	bl	19e58 <bcm2835_mailbox_write>
    c3c8:	e1a00005 	mov	r0, r5
    c3cc:	eb003695 	bl	19e28 <bcm2835_mailbox_read>
    c3d0:	e5943014 	ldr	r3, [r4, #20]
    c3d4:	e5942018 	ldr	r2, [r4, #24]
    c3d8:	e59f6154 	ldr	r6, [pc, #340]	; c534 <console_init+0x1bc>
    c3dc:	e1921003 	orrs	r1, r2, r3
    c3e0:	e5863008 	str	r3, [r6, #8]
    c3e4:	e586200c 	str	r2, [r6, #12]
    c3e8:	1a000047 	bne	c50c <console_init+0x194>
    c3ec:	e3a03e32 	mov	r3, #800	; 0x320
    c3f0:	e3a02e1e 	mov	r2, #480	; 0x1e0
    c3f4:	e5863008 	str	r3, [r6, #8]
    c3f8:	e586200c 	str	r2, [r6, #12]
    c3fc:	e3a05008 	mov	r5, #8
    c400:	e3a0c000 	mov	ip, #0
    c404:	e3a0e010 	mov	lr, #16
    c408:	e3a07004 	mov	r7, #4
    c40c:	e3a0a058 	mov	sl, #88	; 0x58
    c410:	e5843014 	str	r3, [r4, #20]
    c414:	e5843028 	str	r3, [r4, #40]	; 0x28
    c418:	e59f3118 	ldr	r3, [pc, #280]	; c538 <console_init+0x1c0>
    c41c:	e59f9118 	ldr	r9, [pc, #280]	; c53c <console_init+0x1c4>
    c420:	e5843030 	str	r3, [r4, #48]	; 0x30
    c424:	e59f8114 	ldr	r8, [pc, #276]	; c540 <console_init+0x1c8>
    c428:	e59f3114 	ldr	r3, [pc, #276]	; c544 <console_init+0x1cc>
    c42c:	e5842018 	str	r2, [r4, #24]
    c430:	e584202c 	str	r2, [r4, #44]	; 0x2c
    c434:	e5843040 	str	r3, [r4, #64]	; 0x40
    c438:	e1a00005 	mov	r0, r5
    c43c:	e1a01004 	mov	r1, r4
    c440:	e8841400 	stm	r4, {sl, ip}
    c444:	e584c050 	str	ip, [r4, #80]	; 0x50
    c448:	e584c054 	str	ip, [r4, #84]	; 0x54
    c44c:	e584e03c 	str	lr, [r4, #60]	; 0x3c
    c450:	e584e04c 	str	lr, [r4, #76]	; 0x4c
    c454:	e584500c 	str	r5, [r4, #12]
    c458:	e5845010 	str	r5, [r4, #16]
    c45c:	e5845020 	str	r5, [r4, #32]
    c460:	e5845024 	str	r5, [r4, #36]	; 0x24
    c464:	e5845044 	str	r5, [r4, #68]	; 0x44
    c468:	e5847034 	str	r7, [r4, #52]	; 0x34
    c46c:	e5847038 	str	r7, [r4, #56]	; 0x38
    c470:	e5847048 	str	r7, [r4, #72]	; 0x48
    c474:	e5849008 	str	r9, [r4, #8]
    c478:	e584801c 	str	r8, [r4, #28]
    c47c:	eb003675 	bl	19e58 <bcm2835_mailbox_write>
    c480:	e1a00005 	mov	r0, r5
    c484:	eb003667 	bl	19e28 <bcm2835_mailbox_read>
    c488:	e594304c 	ldr	r3, [r4, #76]	; 0x4c
    c48c:	e5942050 	ldr	r2, [r4, #80]	; 0x50
    c490:	e5863000 	str	r3, [r6]
    c494:	e3520000 	cmp	r2, #0
    c498:	13530000 	cmpne	r3, #0
    c49c:	e5862010 	str	r2, [r6, #16]
    c4a0:	03a03001 	moveq	r3, #1
    c4a4:	13a03000 	movne	r3, #0
    c4a8:	e59f6084 	ldr	r6, [pc, #132]	; c534 <console_init+0x1bc>
    c4ac:	0a00001d 	beq	c528 <console_init+0x1b0>
    c4b0:	e3a0e01c 	mov	lr, #28
    c4b4:	e59f208c 	ldr	r2, [pc, #140]	; c548 <console_init+0x1d0>
    c4b8:	e594c03c 	ldr	ip, [r4, #60]	; 0x3c
    c4bc:	e5843004 	str	r3, [r4, #4]
    c4c0:	e5843010 	str	r3, [r4, #16]
    c4c4:	e5843014 	str	r3, [r4, #20]
    c4c8:	e5843018 	str	r3, [r4, #24]
    c4cc:	e1a00005 	mov	r0, r5
    c4d0:	e1a01004 	mov	r1, r4
    c4d4:	e584e000 	str	lr, [r4]
    c4d8:	e5842008 	str	r2, [r4, #8]
    c4dc:	e584700c 	str	r7, [r4, #12]
    c4e0:	e586c014 	str	ip, [r6, #20]
    c4e4:	eb00365b 	bl	19e58 <bcm2835_mailbox_write>
    c4e8:	e1a00005 	mov	r0, r5
    c4ec:	eb00364d 	bl	19e28 <bcm2835_mailbox_read>
    c4f0:	e5943014 	ldr	r3, [r4, #20]
    c4f4:	e3530000 	cmp	r3, #0
    c4f8:	13a00000 	movne	r0, #0
    c4fc:	03e00007 	mvneq	r0, #7
    c500:	e5863004 	str	r3, [r6, #4]
    c504:	e24bd024 	sub	sp, fp, #36	; 0x24
    c508:	e8bd8ff8 	pop	{r3, r4, r5, r6, r7, r8, r9, sl, fp, pc}
    c50c:	e3530000 	cmp	r3, #0
    c510:	0a000001 	beq	c51c <console_init+0x1a4>
    c514:	e3520000 	cmp	r2, #0
    c518:	1affffb7 	bne	c3fc <console_init+0x84>
    c51c:	e3e00001 	mvn	r0, #1
    c520:	e24bd024 	sub	sp, fp, #36	; 0x24
    c524:	e8bd8ff8 	pop	{r3, r4, r5, r6, r7, r8, r9, sl, fp, pc}
    c528:	e3e00005 	mvn	r0, #5
    c52c:	eafffff4 	b	c504 <console_init+0x18c>
    c530:	00040003 	andeq	r0, r4, r3
    c534:	000217b4 			; <UNDEFINED> instruction: 0x000217b4
    c538:	00048005 	andeq	r8, r4, r5
    c53c:	00048003 	andeq	r8, r4, r3
    c540:	00048004 	andeq	r8, r4, r4
    c544:	00040001 	andeq	r0, r4, r1
    c548:	00040008 	andeq	r0, r4, r8

0000c54c <vprintf>:
    c54c:	e92d4ff0 	push	{r4, r5, r6, r7, r8, r9, sl, fp, lr}
    c550:	e1a04000 	mov	r4, r0
    c554:	e1a07001 	mov	r7, r1
    c558:	e3a09000 	mov	r9, #0
    c55c:	e59f879c 	ldr	r8, [pc, #1948]	; cd00 <vprintf+0x7b4>
    c560:	e59f679c 	ldr	r6, [pc, #1948]	; cd04 <vprintf+0x7b8>
    c564:	e24dd024 	sub	sp, sp, #36	; 0x24
    c568:	e5d40000 	ldrb	r0, [r4]
    c56c:	e3500000 	cmp	r0, #0
    c570:	0a00000c 	beq	c5a8 <vprintf+0x5c>
    c574:	e3500025 	cmp	r0, #37	; 0x25
    c578:	0a00000d 	beq	c5b4 <vprintf+0x68>
    c57c:	e5983000 	ldr	r3, [r8]
    c580:	e2844001 	add	r4, r4, #1
    c584:	e3530000 	cmp	r3, #0
    c588:	e2899001 	add	r9, r9, #1
    c58c:	0a00016f 	beq	cb50 <vprintf+0x604>
    c590:	e5c30000 	strb	r0, [r3]
    c594:	e5d40000 	ldrb	r0, [r4]
    c598:	e2832001 	add	r2, r3, #1
    c59c:	e3500000 	cmp	r0, #0
    c5a0:	e5882000 	str	r2, [r8]
    c5a4:	1afffff2 	bne	c574 <vprintf+0x28>
    c5a8:	e1a00009 	mov	r0, r9
    c5ac:	e28dd024 	add	sp, sp, #36	; 0x24
    c5b0:	e8bd8ff0 	pop	{r4, r5, r6, r7, r8, r9, sl, fp, pc}
    c5b4:	e5d4c001 	ldrb	ip, [r4, #1]
    c5b8:	e35c0030 	cmp	ip, #48	; 0x30
    c5bc:	0a00014a 	beq	caec <vprintf+0x5a0>
    c5c0:	e35c002d 	cmp	ip, #45	; 0x2d
    c5c4:	0a00014e 	beq	cb04 <vprintf+0x5b8>
    c5c8:	e1a0300c 	mov	r3, ip
    c5cc:	e3a01011 	mov	r1, #17
    c5d0:	e3a0a001 	mov	sl, #1
    c5d4:	e3a0c010 	mov	ip, #16
    c5d8:	e3a0e000 	mov	lr, #0
    c5dc:	e2845001 	add	r5, r4, #1
    c5e0:	e2432030 	sub	r2, r3, #48	; 0x30
    c5e4:	e6ef0072 	uxtb	r0, r2
    c5e8:	e3500009 	cmp	r0, #9
    c5ec:	81a0100a 	movhi	r1, sl
    c5f0:	81a0c00e 	movhi	ip, lr
    c5f4:	83a04000 	movhi	r4, #0
    c5f8:	8a00000a 	bhi	c628 <vprintf+0xdc>
    c5fc:	e3a04000 	mov	r4, #0
    c600:	e5f53001 	ldrb	r3, [r5, #1]!
    c604:	e0844104 	add	r4, r4, r4, lsl #2
    c608:	e0824084 	add	r4, r2, r4, lsl #1
    c60c:	e2432030 	sub	r2, r3, #48	; 0x30
    c610:	e6ef0072 	uxtb	r0, r2
    c614:	e3500009 	cmp	r0, #9
    c618:	9afffff8 	bls	c600 <vprintf+0xb4>
    c61c:	e3540000 	cmp	r4, #0
    c620:	01a0100a 	moveq	r1, sl
    c624:	01a0c00e 	moveq	ip, lr
    c628:	e353002e 	cmp	r3, #46	; 0x2e
    c62c:	11a00003 	movne	r0, r3
    c630:	13a0b000 	movne	fp, #0
    c634:	0a00011b 	beq	caa8 <vprintf+0x55c>
    c638:	e350006c 	cmp	r0, #108	; 0x6c
    c63c:	05d50001 	ldrbeq	r0, [r5, #1]
    c640:	038cc004 	orreq	ip, ip, #4
    c644:	e2402058 	sub	r2, r0, #88	; 0x58
    c648:	02855001 	addeq	r5, r5, #1
    c64c:	e3520020 	cmp	r2, #32
    c650:	979ff102 	ldrls	pc, [pc, r2, lsl #2]
    c654:	ea00010a 	b	ca84 <vprintf+0x538>
    c658:	0000c6dc 	ldrdeq	ip, [r0], -ip	; <UNPREDICTABLE>
    c65c:	0000ca84 	andeq	ip, r0, r4, lsl #21
    c660:	0000ca84 	andeq	ip, r0, r4, lsl #21
    c664:	0000ca84 	andeq	ip, r0, r4, lsl #21
    c668:	0000ca84 	andeq	ip, r0, r4, lsl #21
    c66c:	0000ca84 	andeq	ip, r0, r4, lsl #21
    c670:	0000ca84 	andeq	ip, r0, r4, lsl #21
    c674:	0000ca84 	andeq	ip, r0, r4, lsl #21
    c678:	0000ca84 	andeq	ip, r0, r4, lsl #21
    c67c:	0000ca84 	andeq	ip, r0, r4, lsl #21
    c680:	0000ca84 	andeq	ip, r0, r4, lsl #21
    c684:	0000ca54 	andeq	ip, r0, r4, asr sl
    c688:	0000c904 	andeq	ip, r0, r4, lsl #18
    c68c:	0000ca84 	andeq	ip, r0, r4, lsl #21
    c690:	0000ca84 	andeq	ip, r0, r4, lsl #21
    c694:	0000ca84 	andeq	ip, r0, r4, lsl #21
    c698:	0000ca84 	andeq	ip, r0, r4, lsl #21
    c69c:	0000ca84 	andeq	ip, r0, r4, lsl #21
    c6a0:	0000ca84 	andeq	ip, r0, r4, lsl #21
    c6a4:	0000ca84 	andeq	ip, r0, r4, lsl #21
    c6a8:	0000ca84 	andeq	ip, r0, r4, lsl #21
    c6ac:	0000ca84 	andeq	ip, r0, r4, lsl #21
    c6b0:	0000ca84 	andeq	ip, r0, r4, lsl #21
    c6b4:	0000ca84 	andeq	ip, r0, r4, lsl #21
    c6b8:	0000ca84 	andeq	ip, r0, r4, lsl #21
    c6bc:	0000ca84 	andeq	ip, r0, r4, lsl #21
    c6c0:	0000ca84 	andeq	ip, r0, r4, lsl #21
    c6c4:	0000c868 	andeq	ip, r0, r8, ror #16
    c6c8:	0000ca84 	andeq	ip, r0, r4, lsl #21
    c6cc:	0000ca84 	andeq	ip, r0, r4, lsl #21
    c6d0:	0000ca84 	andeq	ip, r0, r4, lsl #21
    c6d4:	0000ca84 	andeq	ip, r0, r4, lsl #21
    c6d8:	0000c6e0 	andeq	ip, r0, r0, ror #13
    c6dc:	e38cc002 	orr	ip, ip, #2
    c6e0:	e5972000 	ldr	r2, [r7]
    c6e4:	e287a004 	add	sl, r7, #4
    c6e8:	e3520000 	cmp	r2, #0
    c6ec:	1a00010b 	bne	cb20 <vprintf+0x5d4>
    c6f0:	e3a03030 	mov	r3, #48	; 0x30
    c6f4:	e28d701e 	add	r7, sp, #30
    c6f8:	e5cd301f 	strb	r3, [sp, #31]
    c6fc:	e31c0001 	tst	ip, #1
    c700:	0a000013 	beq	c754 <vprintf+0x208>
    c704:	e28d101f 	add	r1, sp, #31
    c708:	e0672001 	rsb	r2, r7, r1
    c70c:	e15b0002 	cmp	fp, r2
    c710:	e28d3010 	add	r3, sp, #16
    c714:	d3a02000 	movle	r2, #0
    c718:	c3a02001 	movgt	r2, #1
    c71c:	e1570003 	cmp	r7, r3
    c720:	93a02000 	movls	r2, #0
    c724:	e3520000 	cmp	r2, #0
    c728:	0a000009 	beq	c754 <vprintf+0x208>
    c72c:	e3a00030 	mov	r0, #48	; 0x30
    c730:	e4470001 	strb	r0, [r7], #-1
    c734:	e0672001 	rsb	r2, r7, r1
    c738:	e152000b 	cmp	r2, fp
    c73c:	a3a02000 	movge	r2, #0
    c740:	b3a02001 	movlt	r2, #1
    c744:	e1570003 	cmp	r7, r3
    c748:	93a02000 	movls	r2, #0
    c74c:	e3520000 	cmp	r2, #0
    c750:	1afffff6 	bne	c730 <vprintf+0x1e4>
    c754:	e31c0020 	tst	ip, #32
    c758:	0a000013 	beq	c7ac <vprintf+0x260>
    c75c:	e28d101f 	add	r1, sp, #31
    c760:	e0672001 	rsb	r2, r7, r1
    c764:	e1540002 	cmp	r4, r2
    c768:	e28d3010 	add	r3, sp, #16
    c76c:	d3a02000 	movle	r2, #0
    c770:	c3a02001 	movgt	r2, #1
    c774:	e1570003 	cmp	r7, r3
    c778:	93a02000 	movls	r2, #0
    c77c:	e3520000 	cmp	r2, #0
    c780:	0a00001f 	beq	c804 <vprintf+0x2b8>
    c784:	e3a00030 	mov	r0, #48	; 0x30
    c788:	e4470001 	strb	r0, [r7], #-1
    c78c:	e0672001 	rsb	r2, r7, r1
    c790:	e1540002 	cmp	r4, r2
    c794:	d3a02000 	movle	r2, #0
    c798:	c3a02001 	movgt	r2, #1
    c79c:	e1570003 	cmp	r7, r3
    c7a0:	93a02000 	movls	r2, #0
    c7a4:	e3520000 	cmp	r2, #0
    c7a8:	1afffff6 	bne	c788 <vprintf+0x23c>
    c7ac:	e31c0010 	tst	ip, #16
    c7b0:	0a000013 	beq	c804 <vprintf+0x2b8>
    c7b4:	e28d101f 	add	r1, sp, #31
    c7b8:	e0672001 	rsb	r2, r7, r1
    c7bc:	e1540002 	cmp	r4, r2
    c7c0:	e28d3010 	add	r3, sp, #16
    c7c4:	d3a02000 	movle	r2, #0
    c7c8:	c3a02001 	movgt	r2, #1
    c7cc:	e1570003 	cmp	r7, r3
    c7d0:	93a02000 	movls	r2, #0
    c7d4:	e3520000 	cmp	r2, #0
    c7d8:	0a000009 	beq	c804 <vprintf+0x2b8>
    c7dc:	e3a00020 	mov	r0, #32
    c7e0:	e4470001 	strb	r0, [r7], #-1
    c7e4:	e0672001 	rsb	r2, r7, r1
    c7e8:	e1540002 	cmp	r4, r2
    c7ec:	d3a02000 	movle	r2, #0
    c7f0:	c3a02001 	movgt	r2, #1
    c7f4:	e1570003 	cmp	r7, r3
    c7f8:	93a02000 	movls	r2, #0
    c7fc:	e3520000 	cmp	r2, #0
    c800:	1afffff6 	bne	c7e0 <vprintf+0x294>
    c804:	e2874001 	add	r4, r7, #1
    c808:	e28d3020 	add	r3, sp, #32
    c80c:	e1540003 	cmp	r4, r3
    c810:	3a000005 	bcc	c82c <vprintf+0x2e0>
    c814:	ea000011 	b	c860 <vprintf+0x314>
    c818:	e5c30000 	strb	r0, [r3]
    c81c:	e28d3020 	add	r3, sp, #32
    c820:	e1540003 	cmp	r4, r3
    c824:	e5882000 	str	r2, [r8]
    c828:	0a000008 	beq	c850 <vprintf+0x304>
    c82c:	e5983000 	ldr	r3, [r8]
    c830:	e4d40001 	ldrb	r0, [r4], #1
    c834:	e3530000 	cmp	r3, #0
    c838:	e2832001 	add	r2, r3, #1
    c83c:	1afffff5 	bne	c818 <vprintf+0x2cc>
    c840:	ebfffd4e 	bl	bd80 <console_putc>
    c844:	e28d3020 	add	r3, sp, #32
    c848:	e1540003 	cmp	r4, r3
    c84c:	1afffff6 	bne	c82c <vprintf+0x2e0>
    c850:	e28d3021 	add	r3, sp, #33	; 0x21
    c854:	e2877002 	add	r7, r7, #2
    c858:	e0839009 	add	r9, r3, r9
    c85c:	e0679009 	rsb	r9, r7, r9
    c860:	e1a0700a 	mov	r7, sl
    c864:	ea000084 	b	ca7c <vprintf+0x530>
    c868:	e5972000 	ldr	r2, [r7]
    c86c:	e2877004 	add	r7, r7, #4
    c870:	e5d2a000 	ldrb	sl, [r2]
    c874:	e35a0000 	cmp	sl, #0
    c878:	0a000005 	beq	c894 <vprintf+0x348>
    c87c:	e1a03002 	mov	r3, r2
    c880:	e3a0a000 	mov	sl, #0
    c884:	e5f31001 	ldrb	r1, [r3, #1]!
    c888:	e28aa001 	add	sl, sl, #1
    c88c:	e3510000 	cmp	r1, #0
    c890:	1afffffb 	bne	c884 <vprintf+0x338>
    c894:	e21c1001 	ands	r1, ip, #1
    c898:	1a0000c3 	bne	cbac <vprintf+0x660>
    c89c:	e31c0040 	tst	ip, #64	; 0x40
    c8a0:	11a03009 	movne	r3, r9
    c8a4:	1a0000fd 	bne	cca0 <vprintf+0x754>
    c8a8:	e3a0c020 	mov	ip, #32
    c8ac:	e06a9009 	rsb	r9, sl, r9
    c8b0:	ea000001 	b	c8bc <vprintf+0x370>
    c8b4:	e5880000 	str	r0, [r8]
    c8b8:	e5c3c000 	strb	ip, [r3]
    c8bc:	e089300a 	add	r3, r9, sl
    c8c0:	e28aa001 	add	sl, sl, #1
    c8c4:	e24a0001 	sub	r0, sl, #1
    c8c8:	e1540000 	cmp	r4, r0
    c8cc:	da0000f1 	ble	cc98 <vprintf+0x74c>
    c8d0:	e5983000 	ldr	r3, [r8]
    c8d4:	e3530000 	cmp	r3, #0
    c8d8:	e2830001 	add	r0, r3, #1
    c8dc:	1afffff4 	bne	c8b4 <vprintf+0x368>
    c8e0:	e3a00020 	mov	r0, #32
    c8e4:	e58dc00c 	str	ip, [sp, #12]
    c8e8:	e58d1008 	str	r1, [sp, #8]
    c8ec:	e58d2004 	str	r2, [sp, #4]
    c8f0:	ebfffd22 	bl	bd80 <console_putc>
    c8f4:	e59dc00c 	ldr	ip, [sp, #12]
    c8f8:	e59d1008 	ldr	r1, [sp, #8]
    c8fc:	e59d2004 	ldr	r2, [sp, #4]
    c900:	eaffffed 	b	c8bc <vprintf+0x370>
    c904:	e5971000 	ldr	r1, [r7]
    c908:	e2877004 	add	r7, r7, #4
    c90c:	e3510000 	cmp	r1, #0
    c910:	b38cc008 	orrlt	ip, ip, #8
    c914:	b2611000 	rsblt	r1, r1, #0
    c918:	ba0000d1 	blt	cc64 <vprintf+0x718>
    c91c:	03a03030 	moveq	r3, #48	; 0x30
    c920:	028da01e 	addeq	sl, sp, #30
    c924:	05cd301f 	strbeq	r3, [sp, #31]
    c928:	1a0000cd 	bne	cc64 <vprintf+0x718>
    c92c:	e31c0001 	tst	ip, #1
    c930:	0a000013 	beq	c984 <vprintf+0x438>
    c934:	e28d101f 	add	r1, sp, #31
    c938:	e06a2001 	rsb	r2, sl, r1
    c93c:	e15b0002 	cmp	fp, r2
    c940:	e28d3010 	add	r3, sp, #16
    c944:	d3a02000 	movle	r2, #0
    c948:	c3a02001 	movgt	r2, #1
    c94c:	e15a0003 	cmp	sl, r3
    c950:	93a02000 	movls	r2, #0
    c954:	e3520000 	cmp	r2, #0
    c958:	0a000009 	beq	c984 <vprintf+0x438>
    c95c:	e3a00030 	mov	r0, #48	; 0x30
    c960:	e44a0001 	strb	r0, [sl], #-1
    c964:	e06a2001 	rsb	r2, sl, r1
    c968:	e152000b 	cmp	r2, fp
    c96c:	a3a02000 	movge	r2, #0
    c970:	b3a02001 	movlt	r2, #1
    c974:	e15a0003 	cmp	sl, r3
    c978:	93a02000 	movls	r2, #0
    c97c:	e3520000 	cmp	r2, #0
    c980:	1afffff6 	bne	c960 <vprintf+0x414>
    c984:	e31c0020 	tst	ip, #32
    c988:	0a000013 	beq	c9dc <vprintf+0x490>
    c98c:	e28d101f 	add	r1, sp, #31
    c990:	e06a2001 	rsb	r2, sl, r1
    c994:	e1540002 	cmp	r4, r2
    c998:	e28d3010 	add	r3, sp, #16
    c99c:	d3a02000 	movle	r2, #0
    c9a0:	c3a02001 	movgt	r2, #1
    c9a4:	e15a0003 	cmp	sl, r3
    c9a8:	93a02000 	movls	r2, #0
    c9ac:	e3520000 	cmp	r2, #0
    c9b0:	0a000009 	beq	c9dc <vprintf+0x490>
    c9b4:	e3a00030 	mov	r0, #48	; 0x30
    c9b8:	e44a0001 	strb	r0, [sl], #-1
    c9bc:	e06a2001 	rsb	r2, sl, r1
    c9c0:	e1540002 	cmp	r4, r2
    c9c4:	d3a02000 	movle	r2, #0
    c9c8:	c3a02001 	movgt	r2, #1
    c9cc:	e15a0003 	cmp	sl, r3
    c9d0:	93a02000 	movls	r2, #0
    c9d4:	e3520000 	cmp	r2, #0
    c9d8:	1afffff6 	bne	c9b8 <vprintf+0x46c>
    c9dc:	e31c0008 	tst	ip, #8
    c9e0:	13a0302d 	movne	r3, #45	; 0x2d
    c9e4:	15ca3000 	strbne	r3, [sl]
    c9e8:	124aa001 	subne	sl, sl, #1
    c9ec:	e31c0010 	tst	ip, #16
    c9f0:	1a000058 	bne	cb58 <vprintf+0x60c>
    c9f4:	e28a4001 	add	r4, sl, #1
    c9f8:	e28d3020 	add	r3, sp, #32
    c9fc:	e1540003 	cmp	r4, r3
    ca00:	3a000005 	bcc	ca1c <vprintf+0x4d0>
    ca04:	ea00001c 	b	ca7c <vprintf+0x530>
    ca08:	e5c30000 	strb	r0, [r3]
    ca0c:	e28d3020 	add	r3, sp, #32
    ca10:	e1540003 	cmp	r4, r3
    ca14:	e5882000 	str	r2, [r8]
    ca18:	0a000008 	beq	ca40 <vprintf+0x4f4>
    ca1c:	e5983000 	ldr	r3, [r8]
    ca20:	e4d40001 	ldrb	r0, [r4], #1
    ca24:	e3530000 	cmp	r3, #0
    ca28:	e2832001 	add	r2, r3, #1
    ca2c:	1afffff5 	bne	ca08 <vprintf+0x4bc>
    ca30:	ebfffcd2 	bl	bd80 <console_putc>
    ca34:	e28d3020 	add	r3, sp, #32
    ca38:	e1540003 	cmp	r4, r3
    ca3c:	1afffff6 	bne	ca1c <vprintf+0x4d0>
    ca40:	e28d3021 	add	r3, sp, #33	; 0x21
    ca44:	e28aa002 	add	sl, sl, #2
    ca48:	e0839009 	add	r9, r3, r9
    ca4c:	e06a9009 	rsb	r9, sl, r9
    ca50:	ea000009 	b	ca7c <vprintf+0x530>
    ca54:	e5983000 	ldr	r3, [r8]
    ca58:	e2899001 	add	r9, r9, #1
    ca5c:	e3530000 	cmp	r3, #0
    ca60:	e2874004 	add	r4, r7, #4
    ca64:	e5970000 	ldr	r0, [r7]
    ca68:	0a00009e 	beq	cce8 <vprintf+0x79c>
    ca6c:	e1a07004 	mov	r7, r4
    ca70:	e2832001 	add	r2, r3, #1
    ca74:	e5c30000 	strb	r0, [r3]
    ca78:	e5882000 	str	r2, [r8]
    ca7c:	e2854001 	add	r4, r5, #1
    ca80:	eafffeb8 	b	c568 <vprintf+0x1c>
    ca84:	e5982000 	ldr	r2, [r8]
    ca88:	e2899001 	add	r9, r9, #1
    ca8c:	e3520000 	cmp	r2, #0
    ca90:	0a000097 	beq	ccf4 <vprintf+0x7a8>
    ca94:	e2821001 	add	r1, r2, #1
    ca98:	e5c20000 	strb	r0, [r2]
    ca9c:	e5881000 	str	r1, [r8]
    caa0:	e1a04005 	mov	r4, r5
    caa4:	eafffeaf 	b	c568 <vprintf+0x1c>
    caa8:	e5d53001 	ldrb	r3, [r5, #1]
    caac:	e2855001 	add	r5, r5, #1
    cab0:	e2432030 	sub	r2, r3, #48	; 0x30
    cab4:	e6ef0072 	uxtb	r0, r2
    cab8:	e3500009 	cmp	r0, #9
    cabc:	8a000086 	bhi	ccdc <vprintf+0x790>
    cac0:	e3a0b000 	mov	fp, #0
    cac4:	e5f53001 	ldrb	r3, [r5, #1]!
    cac8:	e08bb10b 	add	fp, fp, fp, lsl #2
    cacc:	e082b08b 	add	fp, r2, fp, lsl #1
    cad0:	e2432030 	sub	r2, r3, #48	; 0x30
    cad4:	e6ef0072 	uxtb	r0, r2
    cad8:	e3500009 	cmp	r0, #9
    cadc:	9afffff8 	bls	cac4 <vprintf+0x578>
    cae0:	e1a00003 	mov	r0, r3
    cae4:	e1a0c001 	mov	ip, r1
    cae8:	eafffed2 	b	c638 <vprintf+0xec>
    caec:	e3a01031 	mov	r1, #49	; 0x31
    caf0:	e3a0a021 	mov	sl, #33	; 0x21
    caf4:	e3a0e020 	mov	lr, #32
    caf8:	e5d43002 	ldrb	r3, [r4, #2]
    cafc:	e2845002 	add	r5, r4, #2
    cb00:	eafffeb6 	b	c5e0 <vprintf+0x94>
    cb04:	e2845002 	add	r5, r4, #2
    cb08:	e5d43002 	ldrb	r3, [r4, #2]
    cb0c:	e3a01051 	mov	r1, #81	; 0x51
    cb10:	e3a0a041 	mov	sl, #65	; 0x41
    cb14:	e3a0c050 	mov	ip, #80	; 0x50
    cb18:	e3a0e040 	mov	lr, #64	; 0x40
    cb1c:	eafffeaf 	b	c5e0 <vprintf+0x94>
    cb20:	e31c0002 	tst	ip, #2
    cb24:	03a01057 	moveq	r1, #87	; 0x57
    cb28:	13a01037 	movne	r1, #55	; 0x37
    cb2c:	e28d701f 	add	r7, sp, #31
    cb30:	e202300f 	and	r3, r2, #15
    cb34:	e3530009 	cmp	r3, #9
    cb38:	92833030 	addls	r3, r3, #48	; 0x30
    cb3c:	80833001 	addhi	r3, r3, r1
    cb40:	e1b02222 	lsrs	r2, r2, #4
    cb44:	e4473001 	strb	r3, [r7], #-1
    cb48:	1afffff8 	bne	cb30 <vprintf+0x5e4>
    cb4c:	eafffeea 	b	c6fc <vprintf+0x1b0>
    cb50:	ebfffc8a 	bl	bd80 <console_putc>
    cb54:	eafffe83 	b	c568 <vprintf+0x1c>
    cb58:	e28d101f 	add	r1, sp, #31
    cb5c:	e06a2001 	rsb	r2, sl, r1
    cb60:	e1540002 	cmp	r4, r2
    cb64:	e28d3010 	add	r3, sp, #16
    cb68:	d3a02000 	movle	r2, #0
    cb6c:	c3a02001 	movgt	r2, #1
    cb70:	e15a0003 	cmp	sl, r3
    cb74:	93a02000 	movls	r2, #0
    cb78:	e3520000 	cmp	r2, #0
    cb7c:	0affff9c 	beq	c9f4 <vprintf+0x4a8>
    cb80:	e3a00020 	mov	r0, #32
    cb84:	e44a0001 	strb	r0, [sl], #-1
    cb88:	e06a2001 	rsb	r2, sl, r1
    cb8c:	e1540002 	cmp	r4, r2
    cb90:	d3a02000 	movle	r2, #0
    cb94:	c3a02001 	movgt	r2, #1
    cb98:	e15a0003 	cmp	sl, r3
    cb9c:	93a02000 	movls	r2, #0
    cba0:	e3520000 	cmp	r2, #0
    cba4:	1afffff6 	bne	cb84 <vprintf+0x638>
    cba8:	eaffff91 	b	c9f4 <vprintf+0x4a8>
    cbac:	e15a000b 	cmp	sl, fp
    cbb0:	a1a0a00b 	movge	sl, fp
    cbb4:	e31c0040 	tst	ip, #64	; 0x40
    cbb8:	0affff3a 	beq	c8a8 <vprintf+0x35c>
    cbbc:	e1a03009 	mov	r3, r9
    cbc0:	e1a09002 	mov	r9, r2
    cbc4:	e082200b 	add	r2, r2, fp
    cbc8:	e069b003 	rsb	fp, r9, r3
    cbcc:	e1590002 	cmp	r9, r2
    cbd0:	e08b3009 	add	r3, fp, r9
    cbd4:	0a00000e 	beq	cc14 <vprintf+0x6c8>
    cbd8:	e4d90001 	ldrb	r0, [r9], #1
    cbdc:	e3500000 	cmp	r0, #0
    cbe0:	0a00000b 	beq	cc14 <vprintf+0x6c8>
    cbe4:	e5981000 	ldr	r1, [r8]
    cbe8:	e3510000 	cmp	r1, #0
    cbec:	e2813001 	add	r3, r1, #1
    cbf0:	15883000 	strne	r3, [r8]
    cbf4:	15c10000 	strbne	r0, [r1]
    cbf8:	1afffff3 	bne	cbcc <vprintf+0x680>
    cbfc:	e58d2004 	str	r2, [sp, #4]
    cc00:	ebfffc5e 	bl	bd80 <console_putc>
    cc04:	e59d2004 	ldr	r2, [sp, #4]
    cc08:	e08b3009 	add	r3, fp, r9
    cc0c:	e1590002 	cmp	r9, r2
    cc10:	1afffff0 	bne	cbd8 <vprintf+0x68c>
    cc14:	e1a0b003 	mov	fp, r3
    cc18:	e3a01020 	mov	r1, #32
    cc1c:	e063a00a 	rsb	sl, r3, sl
    cc20:	ea000002 	b	cc30 <vprintf+0x6e4>
    cc24:	e5882000 	str	r2, [r8]
    cc28:	e5c31000 	strb	r1, [r3]
    cc2c:	e28bb001 	add	fp, fp, #1
    cc30:	e08a300b 	add	r3, sl, fp
    cc34:	e1540003 	cmp	r4, r3
    cc38:	e1a0900b 	mov	r9, fp
    cc3c:	daffff8e 	ble	ca7c <vprintf+0x530>
    cc40:	e5983000 	ldr	r3, [r8]
    cc44:	e3530000 	cmp	r3, #0
    cc48:	e2832001 	add	r2, r3, #1
    cc4c:	1afffff4 	bne	cc24 <vprintf+0x6d8>
    cc50:	e3a00020 	mov	r0, #32
    cc54:	e58d1004 	str	r1, [sp, #4]
    cc58:	ebfffc48 	bl	bd80 <console_putc>
    cc5c:	e59d1004 	ldr	r1, [sp, #4]
    cc60:	eafffff1 	b	cc2c <vprintf+0x6e0>
    cc64:	e28da01f 	add	sl, sp, #31
    cc68:	e0c23196 	smull	r3, r2, r6, r1
    cc6c:	e1a03fc1 	asr	r3, r1, #31
    cc70:	e0633142 	rsb	r3, r3, r2, asr #2
    cc74:	e0832103 	add	r2, r3, r3, lsl #2
    cc78:	e0412082 	sub	r2, r1, r2, lsl #1
    cc7c:	e2822030 	add	r2, r2, #48	; 0x30
    cc80:	e2531000 	subs	r1, r3, #0
    cc84:	e44a2001 	strb	r2, [sl], #-1
    cc88:	1afffff6 	bne	cc68 <vprintf+0x71c>
    cc8c:	e31c0001 	tst	ip, #1
    cc90:	0affff3b 	beq	c984 <vprintf+0x438>
    cc94:	eaffff26 	b	c934 <vprintf+0x3e8>
    cc98:	e3510000 	cmp	r1, #0
    cc9c:	1affffc7 	bne	cbc0 <vprintf+0x674>
    cca0:	e1a09002 	mov	r9, r2
    cca4:	e062b003 	rsb	fp, r2, r3
    cca8:	ea000001 	b	ccb4 <vprintf+0x768>
    ccac:	e5883000 	str	r3, [r8]
    ccb0:	e5c10000 	strb	r0, [r1]
    ccb4:	e08b3009 	add	r3, fp, r9
    ccb8:	e4d90001 	ldrb	r0, [r9], #1
    ccbc:	e3500000 	cmp	r0, #0
    ccc0:	0affffd3 	beq	cc14 <vprintf+0x6c8>
    ccc4:	e5981000 	ldr	r1, [r8]
    ccc8:	e3510000 	cmp	r1, #0
    cccc:	e2813001 	add	r3, r1, #1
    ccd0:	1afffff5 	bne	ccac <vprintf+0x760>
    ccd4:	ebfffc29 	bl	bd80 <console_putc>
    ccd8:	eafffff5 	b	ccb4 <vprintf+0x768>
    ccdc:	e1a00003 	mov	r0, r3
    cce0:	e3a0b000 	mov	fp, #0
    cce4:	eaffff7e 	b	cae4 <vprintf+0x598>
    cce8:	ebfffc24 	bl	bd80 <console_putc>
    ccec:	e1a07004 	mov	r7, r4
    ccf0:	eaffff61 	b	ca7c <vprintf+0x530>
    ccf4:	ebfffc21 	bl	bd80 <console_putc>
    ccf8:	e1a04005 	mov	r4, r5
    ccfc:	eafffe19 	b	c568 <vprintf+0x1c>
    cd00:	000217d8 	ldrdeq	r1, [r2], -r8
    cd04:	66666667 	strbtvs	r6, [r6], -r7, ror #12

0000cd08 <printf>:
    cd08:	e92d000f 	push	{r0, r1, r2, r3}
    cd0c:	e52de004 	push	{lr}		; (str lr, [sp, #-4]!)
    cd10:	e24dd00c 	sub	sp, sp, #12
    cd14:	e28d3014 	add	r3, sp, #20
    cd18:	e1a01003 	mov	r1, r3
    cd1c:	e59d0010 	ldr	r0, [sp, #16]
    cd20:	e58d3004 	str	r3, [sp, #4]
    cd24:	ebfffe08 	bl	c54c <vprintf>
    cd28:	e28dd00c 	add	sp, sp, #12
    cd2c:	e49de004 	pop	{lr}		; (ldr lr, [sp], #4)
    cd30:	e28dd010 	add	sp, sp, #16
    cd34:	e12fff1e 	bx	lr

0000cd38 <sprintf>:
    cd38:	e92d000e 	push	{r1, r2, r3}
    cd3c:	e92d4010 	push	{r4, lr}
    cd40:	e59f4038 	ldr	r4, [pc, #56]	; cd80 <sprintf+0x48>
    cd44:	e24dd00c 	sub	sp, sp, #12
    cd48:	e28d3018 	add	r3, sp, #24
    cd4c:	e5840000 	str	r0, [r4]
    cd50:	e1a01003 	mov	r1, r3
    cd54:	e59d0014 	ldr	r0, [sp, #20]
    cd58:	e58d3004 	str	r3, [sp, #4]
    cd5c:	ebfffdfa 	bl	c54c <vprintf>
    cd60:	e3a03000 	mov	r3, #0
    cd64:	e5942000 	ldr	r2, [r4]
    cd68:	e5843000 	str	r3, [r4]
    cd6c:	e5c23000 	strb	r3, [r2]
    cd70:	e28dd00c 	add	sp, sp, #12
    cd74:	e8bd4010 	pop	{r4, lr}
    cd78:	e28dd00c 	add	sp, sp, #12
    cd7c:	e12fff1e 	bx	lr
    cd80:	000217d8 	ldrdeq	r1, [r2], -r8
	...

0000cd90 <FONT>:
	...
    cfa0:	08000000 	stmdaeq	r0, {}	; <UNPREDICTABLE>
    cfa4:	08080808 	stmdaeq	r8, {r3, fp}
    cfa8:	08080008 	stmdaeq	r8, {r3}
    cfac:	00000000 	andeq	r0, r0, r0
    cfb0:	14000000 	strne	r0, [r0], #-0
    cfb4:	00141414 	andseq	r1, r4, r4, lsl r4
	...
    cfc0:	48480000 	stmdami	r8, {}^	; <UNPREDICTABLE>
    cfc4:	2424fe68 	strtcs	pc, [r4], #-3688	; 0xe68
    cfc8:	1212147f 	andsne	r1, r2, #2130706432	; 0x7f000000
    cfcc:	00000000 	andeq	r0, r0, r0
    cfd0:	10000000 	andne	r0, r0, r0
    cfd4:	1c12927c 	lfmne	f1, 1, [r2], {124}	; 0x7c
    cfd8:	7c929070 	ldcvc	0, cr9, [r2], {112}	; 0x70
    cfdc:	00001010 	andeq	r1, r0, r0, lsl r0
    cfe0:	06000000 	streq	r0, [r0], -r0
    cfe4:	38460909 	stmdacc	r6, {r0, r3, r8, fp}^
    cfe8:	60909066 	addsvs	r9, r0, r6, rrx
    cfec:	00000000 	andeq	r0, r0, r0
    cff0:	38000000 	stmdacc	r0, {}	; <UNPREDICTABLE>
    cff4:	920c0404 	andls	r0, ip, #4, 8	; 0x4000000
    cff8:	bc46a2b2 	sfmlt	f2, 3, [r6], {178}	; 0xb2
    cffc:	00000000 	andeq	r0, r0, r0
    d000:	08000000 	stmdaeq	r0, {}	; <UNPREDICTABLE>
    d004:	00080808 	andeq	r0, r8, r8, lsl #16
	...
    d010:	10103000 	andsne	r3, r0, r0
    d014:	08080808 	stmdaeq	r8, {r3, fp}
    d018:	10100808 	andsne	r0, r0, r8, lsl #16
    d01c:	00000020 	andeq	r0, r0, r0, lsr #32
    d020:	08080c00 	stmdaeq	r8, {sl, fp}
    d024:	10101010 	andsne	r1, r0, r0, lsl r0
    d028:	08081010 	stmdaeq	r8, {r4, ip}
    d02c:	0000000c 	andeq	r0, r0, ip
    d030:	10000000 	andne	r0, r0, r0
    d034:	d6387c92 			; <UNDEFINED> instruction: 0xd6387c92
    d038:	00000010 	andeq	r0, r0, r0, lsl r0
	...
    d044:	7f080808 	svcvc	0x00080808
    d048:	00080808 	andeq	r0, r8, r8, lsl #16
	...
    d058:	18180000 	ldmdane	r8, {}	; <UNPREDICTABLE>
    d05c:	00000408 	andeq	r0, r0, r8, lsl #8
	...
    d068:	0000001c 	andeq	r0, r0, ip, lsl r0
	...
    d078:	18180000 	ldmdane	r8, {}	; <UNPREDICTABLE>
    d07c:	00000000 	andeq	r0, r0, r0
    d080:	40000000 	andmi	r0, r0, r0
    d084:	10102020 	andsne	r2, r0, r0, lsr #32
    d088:	04080818 	streq	r0, [r8], #-2072	; 0x818
    d08c:	00000204 	andeq	r0, r0, r4, lsl #4
    d090:	38000000 	stmdacc	r0, {}	; <UNPREDICTABLE>
    d094:	92828244 	addls	r8, r2, #68, 4	; 0x40000004
    d098:	38448282 	stmdacc	r4, {r1, r7, r9, pc}^
    d09c:	00000000 	andeq	r0, r0, r0
    d0a0:	1c000000 	stcne	0, cr0, [r0], {-0}
    d0a4:	10101010 	andsne	r1, r0, r0, lsl r0
    d0a8:	7c101010 	ldcvc	0, cr1, [r0], {16}
    d0ac:	00000000 	andeq	r0, r0, r0
    d0b0:	7c000000 	stcvc	0, cr0, [r0], {-0}
    d0b4:	408080c2 	addmi	r8, r0, r2, asr #1
    d0b8:	fe041830 	mcr2	8, 0, r1, cr4, cr0, {1}
    d0bc:	00000000 	andeq	r0, r0, r0
    d0c0:	7c000000 	stcvc	0, cr0, [r0], {-0}
    d0c4:	38c08082 	stmiacc	r0, {r1, r7, pc}^
    d0c8:	7cc280c0 	stclvc	0, cr8, [r2], {192}	; 0xc0
    d0cc:	00000000 	andeq	r0, r0, r0
    d0d0:	60000000 	andvs	r0, r0, r0
    d0d4:	44485850 	strbmi	r5, [r8], #-2128	; 0x850
    d0d8:	4040fe42 	submi	pc, r0, r2, asr #28
    d0dc:	00000000 	andeq	r0, r0, r0
    d0e0:	7e000000 	cdpvc	0, 0, cr0, cr0, cr0, {0}
    d0e4:	c03e0202 	eorsgt	r0, lr, r2, lsl #4
    d0e8:	3cc28080 	stclcc	0, cr8, [r2], {128}	; 0x80
    d0ec:	00000000 	andeq	r0, r0, r0
    d0f0:	78000000 	stmdavc	r0, {}	; <UNPREDICTABLE>
    d0f4:	c67a0284 	ldrbtgt	r0, [sl], -r4, lsl #5
    d0f8:	78c48282 	stmiavc	r4, {r1, r7, r9, pc}^
    d0fc:	00000000 	andeq	r0, r0, r0
    d100:	fe000000 	cdp2	0, 0, cr0, cr0, cr0, {0}
    d104:	20204040 	eorcs	r4, r0, r0, asr #32
    d108:	04081810 	streq	r1, [r8], #-2064	; 0x810
    d10c:	00000000 	andeq	r0, r0, r0
    d110:	7c000000 	stcvc	0, cr0, [r0], {-0}
    d114:	7c828282 	sfmvc	f0, 1, [r2], {130}	; 0x82
    d118:	7c868282 	sfmvc	f0, 1, [r6], {130}	; 0x82
    d11c:	00000000 	andeq	r0, r0, r0
    d120:	3c000000 	stccc	0, cr0, [r0], {-0}
    d124:	c6828246 	strgt	r8, [r2], r6, asr #4
    d128:	3c4280bc 	mcrrcc	0, 11, r8, r2, cr12
	...
    d134:	00181800 	andseq	r1, r8, r0, lsl #16
    d138:	18180000 	ldmdane	r8, {}	; <UNPREDICTABLE>
	...
    d144:	00181800 	andseq	r1, r8, r0, lsl #16
    d148:	18180000 	ldmdane	r8, {}	; <UNPREDICTABLE>
    d14c:	00000408 	andeq	r0, r0, r8, lsl #8
    d150:	00000000 	andeq	r0, r0, r0
    d154:	0e708000 	cdpeq	0, 7, cr8, cr0, cr0, {0}
    d158:	0080700e 	addeq	r7, r0, lr
	...
    d164:	00fe0000 	rscseq	r0, lr, r0
    d168:	0000fe00 	andeq	pc, r0, r0, lsl #28
	...
    d174:	e01c0200 	ands	r0, ip, r0, lsl #4
    d178:	00021ce0 	andeq	r1, r2, r0, ror #25
    d17c:	00000000 	andeq	r0, r0, r0
    d180:	1c000000 	stcne	0, cr0, [r0], {-0}
    d184:	08102022 	ldmdaeq	r0, {r1, r5, sp}
    d188:	08080008 	stmdaeq	r8, {r3}
    d18c:	00000000 	andeq	r0, r0, r0
    d190:	78000000 	stmdavc	r0, {}	; <UNPREDICTABLE>
    d194:	92e284cc 	rscls	r8, r2, #204, 8	; 0xcc000000
    d198:	04e29292 	strbteq	r9, [r2], #658	; 0x292
    d19c:	0000780c 	andeq	r7, r0, ip, lsl #16
    d1a0:	10000000 	andne	r0, r0, r0
    d1a4:	44282828 	strtmi	r2, [r8], #-2088	; 0x828
    d1a8:	82c67c44 	sbchi	r7, r6, #68, 24	; 0x4400
    d1ac:	00000000 	andeq	r0, r0, r0
    d1b0:	7e000000 	cdpvc	0, 0, cr0, cr0, cr0, {0}
    d1b4:	7e828282 	cdpvc	2, 8, cr8, cr2, cr2, {4}
    d1b8:	7e828282 	cdpvc	2, 8, cr8, cr2, cr2, {4}
    d1bc:	00000000 	andeq	r0, r0, r0
    d1c0:	78000000 	stmdavc	r0, {}	; <UNPREDICTABLE>
    d1c4:	02020284 	andeq	r0, r2, #132, 4	; 0x40000008
    d1c8:	78840202 	stmvc	r4, {r1, r9}
    d1cc:	00000000 	andeq	r0, r0, r0
    d1d0:	3e000000 	cdpcc	0, 0, cr0, cr0, cr0, {0}
    d1d4:	82828242 	addhi	r8, r2, #536870916	; 0x20000004
    d1d8:	3e428282 	cdpcc	2, 4, cr8, cr2, cr2, {4}
    d1dc:	00000000 	andeq	r0, r0, r0
    d1e0:	fe000000 	cdp2	0, 0, cr0, cr0, cr0, {0}
    d1e4:	fe020202 	cdp2	2, 0, cr0, cr2, cr2, {0}
    d1e8:	fe020202 	cdp2	2, 0, cr0, cr2, cr2, {0}
    d1ec:	00000000 	andeq	r0, r0, r0
    d1f0:	fe000000 	cdp2	0, 0, cr0, cr0, cr0, {0}
    d1f4:	fe020202 	cdp2	2, 0, cr0, cr2, cr2, {0}
    d1f8:	02020202 	andeq	r0, r2, #536870912	; 0x20000000
    d1fc:	00000000 	andeq	r0, r0, r0
    d200:	78000000 	stmdavc	r0, {}	; <UNPREDICTABLE>
    d204:	c2020284 	andgt	r0, r2, #132, 4	; 0x40000008
    d208:	78848282 	stmvc	r4, {r1, r7, r9, pc}
    d20c:	00000000 	andeq	r0, r0, r0
    d210:	82000000 	andhi	r0, r0, #0
    d214:	fe828282 	cdp2	2, 8, cr8, cr2, cr2, {4}
    d218:	82828282 	addhi	r8, r2, #536870920	; 0x20000008
    d21c:	00000000 	andeq	r0, r0, r0
    d220:	3e000000 	cdpcc	0, 0, cr0, cr0, cr0, {0}
    d224:	08080808 	stmdaeq	r8, {r3, fp}
    d228:	3e080808 	cdpcc	8, 0, cr0, cr8, cr8, {0}
    d22c:	00000000 	andeq	r0, r0, r0
    d230:	38000000 	stmdacc	r0, {}	; <UNPREDICTABLE>
    d234:	20202020 	eorcs	r2, r0, r0, lsr #32
    d238:	1c222020 	stcne	0, cr2, [r2], #-128	; 0xffffff80
    d23c:	00000000 	andeq	r0, r0, r0
    d240:	42000000 	andmi	r0, r0, #0
    d244:	0e0a1222 	cdpeq	2, 0, cr1, cr10, cr2, {1}
    d248:	42222212 	eormi	r2, r2, #536870913	; 0x20000001
    d24c:	00000000 	andeq	r0, r0, r0
    d250:	02000000 	andeq	r0, r0, #0
    d254:	02020202 	andeq	r0, r2, #536870912	; 0x20000000
    d258:	fe020202 	cdp2	2, 0, cr0, cr2, cr2, {0}
    d25c:	00000000 	andeq	r0, r0, r0
    d260:	c6000000 	strgt	r0, [r0], -r0
    d264:	aaaaaac6 	bge	feab7d84 <__ram_end+0xf6ab7d84>
    d268:	82828292 	addhi	r8, r2, #536870921	; 0x20000009
    d26c:	00000000 	andeq	r0, r0, r0
    d270:	86000000 	strhi	r0, [r0], -r0
    d274:	928a8a86 	addls	r8, sl, #548864	; 0x86000
    d278:	c2c2a2a2 	sbcgt	sl, r2, #536870922	; 0x2000000a
    d27c:	00000000 	andeq	r0, r0, r0
    d280:	38000000 	stmdacc	r0, {}	; <UNPREDICTABLE>
    d284:	82828244 	addhi	r8, r2, #68, 4	; 0x40000004
    d288:	38448282 	stmdacc	r4, {r1, r7, r9, pc}^
    d28c:	00000000 	andeq	r0, r0, r0
    d290:	7e000000 	cdpvc	0, 0, cr0, cr0, cr0, {0}
    d294:	c28282c2 	addgt	r8, r2, #536870924	; 0x2000000c
    d298:	0202027e 	andeq	r0, r2, #-536870905	; 0xe0000007
    d29c:	00000000 	andeq	r0, r0, r0
    d2a0:	38000000 	stmdacc	r0, {}	; <UNPREDICTABLE>
    d2a4:	82828244 	addhi	r8, r2, #68, 4	; 0x40000004
    d2a8:	78448282 	stmdavc	r4, {r1, r7, r9, pc}^
    d2ac:	00004060 	andeq	r4, r0, r0, rrx
    d2b0:	7e000000 	cdpvc	0, 0, cr0, cr0, cr0, {0}
    d2b4:	7e8282c2 	cdpvc	2, 8, cr8, cr2, cr2, {6}
    d2b8:	02828242 	addeq	r8, r2, #536870916	; 0x20000004
    d2bc:	00000000 	andeq	r0, r0, r0
    d2c0:	7c000000 	stcvc	0, cr0, [r0], {-0}
    d2c4:	7c060286 	sfmvc	f0, 4, [r6], {134}	; 0x86
    d2c8:	7dc280c0 	stclvc	0, cr8, [r2, #768]	; 0x300
    d2cc:	00000000 	andeq	r0, r0, r0
    d2d0:	7f000000 	svcvc	0x00000000
    d2d4:	08080808 	stmdaeq	r8, {r3, fp}
    d2d8:	08080808 	stmdaeq	r8, {r3, fp}
    d2dc:	00000000 	andeq	r0, r0, r0
    d2e0:	82000000 	andhi	r0, r0, #0
    d2e4:	82828282 	addhi	r8, r2, #536870920	; 0x20000008
    d2e8:	7c828282 	sfmvc	f0, 1, [r2], {130}	; 0x82
    d2ec:	00000000 	andeq	r0, r0, r0
    d2f0:	82000000 	andhi	r0, r0, #0
    d2f4:	444444c6 	strbmi	r4, [r4], #-1222	; 0x4c6
    d2f8:	10282828 	eorne	r2, r8, r8, lsr #16
    d2fc:	00000000 	andeq	r0, r0, r0
    d300:	81000000 	mrshi	r0, (UNDEF: 0)
    d304:	5a5a8181 	bpl	16ad910 <__sys_stack_top+0x168a638>
    d308:	6666665a 			; <UNDEFINED> instruction: 0x6666665a
    d30c:	00000000 	andeq	r0, r0, r0
    d310:	c6000000 	strgt	r0, [r0], -r0
    d314:	10382844 	eorsne	r2, r8, r4, asr #16
    d318:	82446c28 	subhi	r6, r4, #40, 24	; 0x2800
    d31c:	00000000 	andeq	r0, r0, r0
    d320:	41000000 	mrsmi	r0, (UNDEF: 0)
    d324:	08141422 	ldmdaeq	r4, {r1, r5, sl, ip}
    d328:	08080808 	stmdaeq	r8, {r3, fp}
    d32c:	00000000 	andeq	r0, r0, r0
    d330:	fe000000 	cdp2	0, 0, cr0, cr0, cr0, {0}
    d334:	102060c0 	eorne	r6, r0, r0, asr #1
    d338:	fe060c08 	cdp2	12, 0, cr0, cr6, cr8, {0}
    d33c:	00000000 	andeq	r0, r0, r0
    d340:	08083800 	stmdaeq	r8, {fp, ip, sp}
    d344:	08080808 	stmdaeq	r8, {r3, fp}
    d348:	08080808 	stmdaeq	r8, {r3, fp}
    d34c:	00000038 	andeq	r0, r0, r8, lsr r0
    d350:	02000000 	andeq	r0, r0, #0
    d354:	08080404 	stmdaeq	r8, {r2, sl}
    d358:	20101018 	andscs	r1, r0, r8, lsl r0
    d35c:	00004020 	andeq	r4, r0, r0, lsr #32
    d360:	10101c00 	andsne	r1, r0, r0, lsl #24
    d364:	10101010 	andsne	r1, r0, r0, lsl r0
    d368:	10101010 	andsne	r1, r0, r0, lsl r0
    d36c:	0000001c 	andeq	r0, r0, ip, lsl r0
    d370:	08000000 	stmdaeq	r0, {}	; <UNPREDICTABLE>
    d374:	00632214 	rsbeq	r2, r3, r4, lsl r2
	...
    d38c:	007f0000 	rsbseq	r0, pc, r0
    d390:	10080000 	andne	r0, r8, r0
	...
    d3a4:	40443800 	submi	r3, r4, r0, lsl #16
    d3a8:	5c62427c 	sfmpl	f4, 2, [r2], #-496	; 0xfffffe10
    d3ac:	00000000 	andeq	r0, r0, r0
    d3b0:	02020200 	andeq	r0, r2, #0, 4
    d3b4:	42663e02 	rsbmi	r3, r6, #2, 28
    d3b8:	3e664242 	cdpcc	2, 6, cr4, cr6, cr2, {2}
	...
    d3c4:	02443800 	subeq	r3, r4, #0, 16
    d3c8:	38440202 	stmdacc	r4, {r1, r9}^
    d3cc:	00000000 	andeq	r0, r0, r0
    d3d0:	40404000 	submi	r4, r0, r0
    d3d4:	42667c40 	rsbmi	r7, r6, #64, 24	; 0x4000
    d3d8:	7c664242 	sfmvc	f4, 2, [r6], #-264	; 0xfffffef8
	...
    d3e4:	42663c00 	rsbmi	r3, r6, #0, 24
    d3e8:	3c46027e 	sfmcc	f0, 2, [r6], {126}	; 0x7e
    d3ec:	00000000 	andeq	r0, r0, r0
    d3f0:	08083000 	stmdaeq	r8, {ip, sp}
    d3f4:	08083e08 	stmdaeq	r8, {r3, r9, sl, fp, ip, sp}
    d3f8:	08080808 	stmdaeq	r8, {r3, fp}
	...
    d404:	42667c00 	rsbmi	r7, r6, #0, 24
    d408:	5c664242 	sfmpl	f4, 2, [r6], #-264	; 0xfffffef8
    d40c:	00384440 	eorseq	r4, r8, r0, asr #8
    d410:	02020200 	andeq	r0, r2, #0, 4
    d414:	42463a02 	submi	r3, r6, #8192	; 0x2000
    d418:	42424242 	submi	r4, r2, #536870916	; 0x20000004
    d41c:	00000000 	andeq	r0, r0, r0
    d420:	00000800 	andeq	r0, r0, r0, lsl #16
    d424:	08080e00 	stmdaeq	r8, {r9, sl, fp}
    d428:	3e080808 	cdpcc	8, 0, cr0, cr8, cr8, {0}
    d42c:	00000000 	andeq	r0, r0, r0
    d430:	00001000 	andeq	r1, r0, r0
    d434:	10101c00 	andsne	r1, r0, r0, lsl #24
    d438:	10101010 	andsne	r1, r0, r0, lsl r0
    d43c:	000e1010 	andeq	r1, lr, r0, lsl r0
    d440:	02020200 	andeq	r0, r2, #0, 4
    d444:	0a122202 	beq	495c54 <__sys_stack_top+0x47297c>
    d448:	4222120e 	eormi	r1, r2, #-536870912	; 0xe0000000
    d44c:	00000000 	andeq	r0, r0, r0
    d450:	08080e00 	stmdaeq	r8, {r9, sl, fp}
    d454:	08080808 	stmdaeq	r8, {r3, fp}
    d458:	70080808 	andvc	r0, r8, r8, lsl #16
	...
    d464:	9292fe00 	addsls	pc, r2, #0, 28
    d468:	92929292 	addsls	r9, r2, #536870921	; 0x20000009
	...
    d474:	42463a00 	submi	r3, r6, #0, 20
    d478:	42424242 	submi	r4, r2, #536870916	; 0x20000004
	...
    d484:	42663c00 	rsbmi	r3, r6, #0, 24
    d488:	3c664242 	sfmcc	f4, 2, [r6], #-264	; 0xfffffef8
	...
    d494:	42663e00 	rsbmi	r3, r6, #0, 28
    d498:	3e664242 	cdpcc	2, 6, cr4, cr6, cr2, {2}
    d49c:	00020202 	andeq	r0, r2, r2, lsl #4
    d4a0:	00000000 	andeq	r0, r0, r0
    d4a4:	42667c00 	rsbmi	r7, r6, #0, 24
    d4a8:	5c664242 	sfmpl	f4, 2, [r6], #-264	; 0xfffffef8
    d4ac:	00404040 	subeq	r4, r0, r0, asr #32
    d4b0:	00000000 	andeq	r0, r0, r0
    d4b4:	044c3c00 	strbeq	r3, [ip], #-3072	; 0xc00
    d4b8:	04040404 	streq	r0, [r4], #-1028	; 0x404
	...
    d4c4:	02423c00 	subeq	r3, r2, #0, 24
    d4c8:	3c42403c 	mcrrcc	0, 3, r4, r2, cr12
    d4cc:	00000000 	andeq	r0, r0, r0
    d4d0:	08000000 	stmdaeq	r0, {}	; <UNPREDICTABLE>
    d4d4:	08087e08 	stmdaeq	r8, {r3, r9, sl, fp, ip, sp, lr}
    d4d8:	70080808 	andvc	r0, r8, r8, lsl #16
	...
    d4e4:	42424200 	submi	r4, r2, #0, 4
    d4e8:	5c624242 	sfmpl	f4, 2, [r2], #-264	; 0xfffffef8
	...
    d4f4:	24664200 	strbtcs	r4, [r6], #-512	; 0x200
    d4f8:	18183c24 	ldmdane	r8, {r2, r5, sl, fp, ip, sp}
	...
    d504:	5a818100 	bpl	fe06d90c <__ram_end+0xf606d90c>
    d508:	24245a5a 	strtcs	r5, [r4], #-2650	; 0xa5a
	...
    d514:	18246600 	stmdane	r4!, {r9, sl, sp, lr}
    d518:	66241818 			; <UNDEFINED> instruction: 0x66241818
	...
    d524:	24444200 	strbcs	r4, [r4], #-512	; 0x200
    d528:	10182824 	andsne	r2, r8, r4, lsr #16
    d52c:	000c0810 	andeq	r0, ip, r0, lsl r8
    d530:	00000000 	andeq	r0, r0, r0
    d534:	20407e00 	subcs	r7, r0, r0, lsl #28
    d538:	7e020418 	cfmvdlrvc	mvd2, r0
    d53c:	00000000 	andeq	r0, r0, r0
    d540:	08083800 	stmdaeq	r8, {fp, ip, sp}
    d544:	08060808 	stmdaeq	r6, {r3, fp}
    d548:	08080808 	stmdaeq	r8, {r3, fp}
    d54c:	00000030 	andeq	r0, r0, r0, lsr r0
    d550:	08080800 	stmdaeq	r8, {fp}
    d554:	08080808 	stmdaeq	r8, {r3, fp}
    d558:	08080808 	stmdaeq	r8, {r3, fp}
    d55c:	00000808 	andeq	r0, r0, r8, lsl #16
    d560:	08080e00 	stmdaeq	r8, {r9, sl, fp}
    d564:	08300808 	ldmdaeq	r0!, {r3, fp}
    d568:	08080808 	stmdaeq	r8, {r3, fp}
    d56c:	00000006 	andeq	r0, r0, r6
    d570:	00000000 	andeq	r0, r0, r0
    d574:	9c000000 	stcls	0, cr0, [r0], {-0}
    d578:	00000062 	andeq	r0, r0, r2, rrx
    d57c:	00000000 	andeq	r0, r0, r0
    d580:	ffffffff 			; <UNDEFINED> instruction: 0xffffffff
    d584:	ffffffff 			; <UNDEFINED> instruction: 0xffffffff
    d588:	ffffffff 			; <UNDEFINED> instruction: 0xffffffff
    d58c:	ffffffff 			; <UNDEFINED> instruction: 0xffffffff

0000d590 <get_fileinfo>:
    d590:	e5903010 	ldr	r3, [r0, #16]
    d594:	e92d41f0 	push	{r4, r5, r6, r7, r8, lr}
    d598:	e3530000 	cmp	r3, #0
    d59c:	e1a04001 	mov	r4, r1
    d5a0:	e2812009 	add	r2, r1, #9
    d5a4:	0a000071 	beq	d770 <get_fileinfo+0x1e0>
    d5a8:	e5903014 	ldr	r3, [r0, #20]
    d5ac:	e5d3c00c 	ldrb	ip, [r3, #12]
    d5b0:	e5d31000 	ldrb	r1, [r3]
    d5b4:	e31c0008 	tst	ip, #8
    d5b8:	1a000093 	bne	d80c <get_fileinfo+0x27c>
    d5bc:	e3510020 	cmp	r1, #32
    d5c0:	0a000034 	beq	d698 <get_fileinfo+0x108>
    d5c4:	e3510005 	cmp	r1, #5
    d5c8:	03a010e5 	moveq	r1, #229	; 0xe5
    d5cc:	e5c41009 	strb	r1, [r4, #9]
    d5d0:	e5d31001 	ldrb	r1, [r3, #1]
    d5d4:	e284200a 	add	r2, r4, #10
    d5d8:	e3510020 	cmp	r1, #32
    d5dc:	0a00002d 	beq	d698 <get_fileinfo+0x108>
    d5e0:	e3510005 	cmp	r1, #5
    d5e4:	03a010e5 	moveq	r1, #229	; 0xe5
    d5e8:	e5c4100a 	strb	r1, [r4, #10]
    d5ec:	e5d31002 	ldrb	r1, [r3, #2]
    d5f0:	e284200b 	add	r2, r4, #11
    d5f4:	e3510020 	cmp	r1, #32
    d5f8:	0a000026 	beq	d698 <get_fileinfo+0x108>
    d5fc:	e3510005 	cmp	r1, #5
    d600:	03a010e5 	moveq	r1, #229	; 0xe5
    d604:	e5c4100b 	strb	r1, [r4, #11]
    d608:	e5d31003 	ldrb	r1, [r3, #3]
    d60c:	e284200c 	add	r2, r4, #12
    d610:	e3510020 	cmp	r1, #32
    d614:	0a00001f 	beq	d698 <get_fileinfo+0x108>
    d618:	e3510005 	cmp	r1, #5
    d61c:	03a010e5 	moveq	r1, #229	; 0xe5
    d620:	e5c4100c 	strb	r1, [r4, #12]
    d624:	e5d31004 	ldrb	r1, [r3, #4]
    d628:	e284200d 	add	r2, r4, #13
    d62c:	e3510020 	cmp	r1, #32
    d630:	0a000018 	beq	d698 <get_fileinfo+0x108>
    d634:	e3510005 	cmp	r1, #5
    d638:	03a010e5 	moveq	r1, #229	; 0xe5
    d63c:	e5c4100d 	strb	r1, [r4, #13]
    d640:	e5d31005 	ldrb	r1, [r3, #5]
    d644:	e284200e 	add	r2, r4, #14
    d648:	e3510020 	cmp	r1, #32
    d64c:	0a000011 	beq	d698 <get_fileinfo+0x108>
    d650:	e3510005 	cmp	r1, #5
    d654:	03a010e5 	moveq	r1, #229	; 0xe5
    d658:	e5c4100e 	strb	r1, [r4, #14]
    d65c:	e5d31006 	ldrb	r1, [r3, #6]
    d660:	e284200f 	add	r2, r4, #15
    d664:	e3510020 	cmp	r1, #32
    d668:	0a00000a 	beq	d698 <get_fileinfo+0x108>
    d66c:	e3510005 	cmp	r1, #5
    d670:	03a010e5 	moveq	r1, #229	; 0xe5
    d674:	e5c4100f 	strb	r1, [r4, #15]
    d678:	e5d31007 	ldrb	r1, [r3, #7]
    d67c:	e2842010 	add	r2, r4, #16
    d680:	e3510020 	cmp	r1, #32
    d684:	0a000003 	beq	d698 <get_fileinfo+0x108>
    d688:	e3510005 	cmp	r1, #5
    d68c:	03a010e5 	moveq	r1, #229	; 0xe5
    d690:	e5c41010 	strb	r1, [r4, #16]
    d694:	e2842011 	add	r2, r4, #17
    d698:	e5d31008 	ldrb	r1, [r3, #8]
    d69c:	e3510020 	cmp	r1, #32
    d6a0:	0a00001f 	beq	d724 <get_fileinfo+0x194>
    d6a4:	e3a0102e 	mov	r1, #46	; 0x2e
    d6a8:	e31c0010 	tst	ip, #16
    d6ac:	e5c21000 	strb	r1, [r2]
    d6b0:	e282c001 	add	ip, r2, #1
    d6b4:	e5d31008 	ldrb	r1, [r3, #8]
    d6b8:	0a0000b3 	beq	d98c <get_fileinfo+0x3fc>
    d6bc:	e3510020 	cmp	r1, #32
    d6c0:	0a0000bd 	beq	d9bc <get_fileinfo+0x42c>
    d6c4:	e241c041 	sub	ip, r1, #65	; 0x41
    d6c8:	e35c0019 	cmp	ip, #25
    d6cc:	92811020 	addls	r1, r1, #32
    d6d0:	96ef1071 	uxtbls	r1, r1
    d6d4:	e5c21001 	strb	r1, [r2, #1]
    d6d8:	e5d31009 	ldrb	r1, [r3, #9]
    d6dc:	e282c002 	add	ip, r2, #2
    d6e0:	e3510020 	cmp	r1, #32
    d6e4:	0a0000b4 	beq	d9bc <get_fileinfo+0x42c>
    d6e8:	e241c041 	sub	ip, r1, #65	; 0x41
    d6ec:	e35c0019 	cmp	ip, #25
    d6f0:	92811020 	addls	r1, r1, #32
    d6f4:	96ef1071 	uxtbls	r1, r1
    d6f8:	e5c21002 	strb	r1, [r2, #2]
    d6fc:	e5d3100a 	ldrb	r1, [r3, #10]
    d700:	e282c003 	add	ip, r2, #3
    d704:	e3510020 	cmp	r1, #32
    d708:	0a0000ab 	beq	d9bc <get_fileinfo+0x42c>
    d70c:	e241c041 	sub	ip, r1, #65	; 0x41
    d710:	e35c0019 	cmp	ip, #25
    d714:	92811020 	addls	r1, r1, #32
    d718:	96ef1071 	uxtbls	r1, r1
    d71c:	e5c21003 	strb	r1, [r2, #3]
    d720:	e2822004 	add	r2, r2, #4
    d724:	e5d3100b 	ldrb	r1, [r3, #11]
    d728:	e5c41008 	strb	r1, [r4, #8]
    d72c:	e5d3101e 	ldrb	r1, [r3, #30]
    d730:	e5d3c01f 	ldrb	ip, [r3, #31]
    d734:	e5d3501c 	ldrb	r5, [r3, #28]
    d738:	e1a01801 	lsl	r1, r1, #16
    d73c:	e1811c0c 	orr	r1, r1, ip, lsl #24
    d740:	e5d3c01d 	ldrb	ip, [r3, #29]
    d744:	e1811005 	orr	r1, r1, r5
    d748:	e181140c 	orr	r1, r1, ip, lsl #8
    d74c:	e5841000 	str	r1, [r4]
    d750:	e5d3c019 	ldrb	ip, [r3, #25]
    d754:	e5d31018 	ldrb	r1, [r3, #24]
    d758:	e181140c 	orr	r1, r1, ip, lsl #8
    d75c:	e1c410b4 	strh	r1, [r4, #4]
    d760:	e5d31017 	ldrb	r1, [r3, #23]
    d764:	e5d33016 	ldrb	r3, [r3, #22]
    d768:	e1833401 	orr	r3, r3, r1, lsl #8
    d76c:	e1c430b6 	strh	r3, [r4, #6]
    d770:	e3a05000 	mov	r5, #0
    d774:	e5c25000 	strb	r5, [r2]
    d778:	e5948018 	ldr	r8, [r4, #24]
    d77c:	e1580005 	cmp	r8, r5
    d780:	08bd81f0 	popeq	{r4, r5, r6, r7, r8, pc}
    d784:	e594301c 	ldr	r3, [r4, #28]
    d788:	e1530005 	cmp	r3, r5
    d78c:	08bd81f0 	popeq	{r4, r5, r6, r7, r8, pc}
    d790:	e5903010 	ldr	r3, [r0, #16]
    d794:	e1530005 	cmp	r3, r5
    d798:	1a000003 	bne	d7ac <get_fileinfo+0x21c>
    d79c:	e3a05000 	mov	r5, #0
    d7a0:	e3a03000 	mov	r3, #0
    d7a4:	e7c83005 	strb	r3, [r8, r5]
    d7a8:	e8bd81f0 	pop	{r4, r5, r6, r7, r8, pc}
    d7ac:	e1d022b0 	ldrh	r2, [r0, #32]
    d7b0:	e59f320c 	ldr	r3, [pc, #524]	; d9c4 <get_fileinfo+0x434>
    d7b4:	e1520003 	cmp	r2, r3
    d7b8:	0afffff7 	beq	d79c <get_fileinfo+0x20c>
    d7bc:	e590701c 	ldr	r7, [r0, #28]
    d7c0:	e1d700b0 	ldrh	r0, [r7]
    d7c4:	e3500000 	cmp	r0, #0
    d7c8:	0afffff3 	beq	d79c <get_fileinfo+0x20c>
    d7cc:	e2486001 	sub	r6, r8, #1
    d7d0:	ea000008 	b	d7f8 <get_fileinfo+0x268>
    d7d4:	e594301c 	ldr	r3, [r4, #28]
    d7d8:	e2433001 	sub	r3, r3, #1
    d7dc:	e1550003 	cmp	r5, r3
    d7e0:	2affffed 	bcs	d79c <get_fileinfo+0x20c>
    d7e4:	e5e60001 	strb	r0, [r6, #1]!
    d7e8:	e1f700b2 	ldrh	r0, [r7, #2]!
    d7ec:	e2855001 	add	r5, r5, #1
    d7f0:	e3500000 	cmp	r0, #0
    d7f4:	0affffe9 	beq	d7a0 <get_fileinfo+0x210>
    d7f8:	e3a01000 	mov	r1, #0
    d7fc:	eb002815 	bl	17858 <ff_convert>
    d800:	e3500000 	cmp	r0, #0
    d804:	1afffff2 	bne	d7d4 <get_fileinfo+0x244>
    d808:	eaffffe3 	b	d79c <get_fileinfo+0x20c>
    d80c:	e3510020 	cmp	r1, #32
    d810:	0affffa0 	beq	d698 <get_fileinfo+0x108>
    d814:	e3510005 	cmp	r1, #5
    d818:	03a010e5 	moveq	r1, #229	; 0xe5
    d81c:	0a000003 	beq	d830 <get_fileinfo+0x2a0>
    d820:	e2412041 	sub	r2, r1, #65	; 0x41
    d824:	e3520019 	cmp	r2, #25
    d828:	92811020 	addls	r1, r1, #32
    d82c:	96ef1071 	uxtbls	r1, r1
    d830:	e5c41009 	strb	r1, [r4, #9]
    d834:	e5d31001 	ldrb	r1, [r3, #1]
    d838:	e284200a 	add	r2, r4, #10
    d83c:	e3510020 	cmp	r1, #32
    d840:	0affff94 	beq	d698 <get_fileinfo+0x108>
    d844:	e3510005 	cmp	r1, #5
    d848:	03a010e5 	moveq	r1, #229	; 0xe5
    d84c:	0a000003 	beq	d860 <get_fileinfo+0x2d0>
    d850:	e2412041 	sub	r2, r1, #65	; 0x41
    d854:	e3520019 	cmp	r2, #25
    d858:	92811020 	addls	r1, r1, #32
    d85c:	96ef1071 	uxtbls	r1, r1
    d860:	e5c4100a 	strb	r1, [r4, #10]
    d864:	e5d31002 	ldrb	r1, [r3, #2]
    d868:	e284200b 	add	r2, r4, #11
    d86c:	e3510020 	cmp	r1, #32
    d870:	0affff88 	beq	d698 <get_fileinfo+0x108>
    d874:	e3510005 	cmp	r1, #5
    d878:	03a010e5 	moveq	r1, #229	; 0xe5
    d87c:	0a000003 	beq	d890 <get_fileinfo+0x300>
    d880:	e2412041 	sub	r2, r1, #65	; 0x41
    d884:	e3520019 	cmp	r2, #25
    d888:	92811020 	addls	r1, r1, #32
    d88c:	96ef1071 	uxtbls	r1, r1
    d890:	e5c4100b 	strb	r1, [r4, #11]
    d894:	e5d31003 	ldrb	r1, [r3, #3]
    d898:	e284200c 	add	r2, r4, #12
    d89c:	e3510020 	cmp	r1, #32
    d8a0:	0affff7c 	beq	d698 <get_fileinfo+0x108>
    d8a4:	e3510005 	cmp	r1, #5
    d8a8:	03a010e5 	moveq	r1, #229	; 0xe5
    d8ac:	0a000003 	beq	d8c0 <get_fileinfo+0x330>
    d8b0:	e2412041 	sub	r2, r1, #65	; 0x41
    d8b4:	e3520019 	cmp	r2, #25
    d8b8:	92811020 	addls	r1, r1, #32
    d8bc:	96ef1071 	uxtbls	r1, r1
    d8c0:	e5c4100c 	strb	r1, [r4, #12]
    d8c4:	e5d31004 	ldrb	r1, [r3, #4]
    d8c8:	e284200d 	add	r2, r4, #13
    d8cc:	e3510020 	cmp	r1, #32
    d8d0:	0affff70 	beq	d698 <get_fileinfo+0x108>
    d8d4:	e3510005 	cmp	r1, #5
    d8d8:	03a010e5 	moveq	r1, #229	; 0xe5
    d8dc:	0a000003 	beq	d8f0 <get_fileinfo+0x360>
    d8e0:	e2412041 	sub	r2, r1, #65	; 0x41
    d8e4:	e3520019 	cmp	r2, #25
    d8e8:	92811020 	addls	r1, r1, #32
    d8ec:	96ef1071 	uxtbls	r1, r1
    d8f0:	e5c4100d 	strb	r1, [r4, #13]
    d8f4:	e5d31005 	ldrb	r1, [r3, #5]
    d8f8:	e284200e 	add	r2, r4, #14
    d8fc:	e3510020 	cmp	r1, #32
    d900:	0affff64 	beq	d698 <get_fileinfo+0x108>
    d904:	e3510005 	cmp	r1, #5
    d908:	03a010e5 	moveq	r1, #229	; 0xe5
    d90c:	0a000003 	beq	d920 <get_fileinfo+0x390>
    d910:	e2412041 	sub	r2, r1, #65	; 0x41
    d914:	e3520019 	cmp	r2, #25
    d918:	92811020 	addls	r1, r1, #32
    d91c:	96ef1071 	uxtbls	r1, r1
    d920:	e5c4100e 	strb	r1, [r4, #14]
    d924:	e5d31006 	ldrb	r1, [r3, #6]
    d928:	e284200f 	add	r2, r4, #15
    d92c:	e3510020 	cmp	r1, #32
    d930:	0affff58 	beq	d698 <get_fileinfo+0x108>
    d934:	e3510005 	cmp	r1, #5
    d938:	03a010e5 	moveq	r1, #229	; 0xe5
    d93c:	0a000003 	beq	d950 <get_fileinfo+0x3c0>
    d940:	e2412041 	sub	r2, r1, #65	; 0x41
    d944:	e3520019 	cmp	r2, #25
    d948:	92811020 	addls	r1, r1, #32
    d94c:	96ef1071 	uxtbls	r1, r1
    d950:	e5c4100f 	strb	r1, [r4, #15]
    d954:	e5d31007 	ldrb	r1, [r3, #7]
    d958:	e2842010 	add	r2, r4, #16
    d95c:	e3510020 	cmp	r1, #32
    d960:	0affff4c 	beq	d698 <get_fileinfo+0x108>
    d964:	e3510005 	cmp	r1, #5
    d968:	03a010e5 	moveq	r1, #229	; 0xe5
    d96c:	0a000003 	beq	d980 <get_fileinfo+0x3f0>
    d970:	e2412041 	sub	r2, r1, #65	; 0x41
    d974:	e3520019 	cmp	r2, #25
    d978:	92811020 	addls	r1, r1, #32
    d97c:	96ef1071 	uxtbls	r1, r1
    d980:	e5c41010 	strb	r1, [r4, #16]
    d984:	e2842011 	add	r2, r4, #17
    d988:	eaffff42 	b	d698 <get_fileinfo+0x108>
    d98c:	e3510020 	cmp	r1, #32
    d990:	0a000009 	beq	d9bc <get_fileinfo+0x42c>
    d994:	e5c21001 	strb	r1, [r2, #1]
    d998:	e5d31009 	ldrb	r1, [r3, #9]
    d99c:	e282c002 	add	ip, r2, #2
    d9a0:	e3510020 	cmp	r1, #32
    d9a4:	0a000004 	beq	d9bc <get_fileinfo+0x42c>
    d9a8:	e5c21002 	strb	r1, [r2, #2]
    d9ac:	e5d3100a 	ldrb	r1, [r3, #10]
    d9b0:	e282c003 	add	ip, r2, #3
    d9b4:	e3510020 	cmp	r1, #32
    d9b8:	1affff57 	bne	d71c <get_fileinfo+0x18c>
    d9bc:	e1a0200c 	mov	r2, ip
    d9c0:	eaffff57 	b	d724 <get_fileinfo+0x194>
    d9c4:	0000ffff 	strdeq	pc, [r0], -pc	; <UNPREDICTABLE>

0000d9c8 <check_fs>:
    d9c8:	e92d4010 	push	{r4, lr}
    d9cc:	e1a04000 	mov	r4, r0
    d9d0:	e1a02001 	mov	r2, r1
    d9d4:	e5d00001 	ldrb	r0, [r0, #1]
    d9d8:	e2841034 	add	r1, r4, #52	; 0x34
    d9dc:	e3a03001 	mov	r3, #1
    d9e0:	eb0027db 	bl	17954 <disk_read>
    d9e4:	e3500000 	cmp	r0, #0
    d9e8:	0a000001 	beq	d9f4 <check_fs+0x2c>
    d9ec:	e3a00003 	mov	r0, #3
    d9f0:	e8bd8010 	pop	{r4, pc}
    d9f4:	e5d41233 	ldrb	r1, [r4, #563]	; 0x233
    d9f8:	e5d42232 	ldrb	r2, [r4, #562]	; 0x232
    d9fc:	e59f3074 	ldr	r3, [pc, #116]	; da78 <check_fs+0xb0>
    da00:	e1822401 	orr	r2, r2, r1, lsl #8
    da04:	e6bf2072 	sxth	r2, r2
    da08:	e1520003 	cmp	r2, r3
    da0c:	0a000001 	beq	da18 <check_fs+0x50>
    da10:	e3a00002 	mov	r0, #2
    da14:	e8bd8010 	pop	{r4, pc}
    da18:	e5d4306c 	ldrb	r3, [r4, #108]	; 0x6c
    da1c:	e5d4206d 	ldrb	r2, [r4, #109]	; 0x6d
    da20:	e1a03803 	lsl	r3, r3, #16
    da24:	e5d4106a 	ldrb	r1, [r4, #106]	; 0x6a
    da28:	e1833c02 	orr	r3, r3, r2, lsl #24
    da2c:	e5d4206b 	ldrb	r2, [r4, #107]	; 0x6b
    da30:	e1833001 	orr	r3, r3, r1
    da34:	e1832402 	orr	r2, r3, r2, lsl #8
    da38:	e59f303c 	ldr	r3, [pc, #60]	; da7c <check_fs+0xb4>
    da3c:	e3c224ff 	bic	r2, r2, #-16777216	; 0xff000000
    da40:	e1520003 	cmp	r2, r3
    da44:	08bd8010 	popeq	{r4, pc}
    da48:	e5d42088 	ldrb	r2, [r4, #136]	; 0x88
    da4c:	e5d40089 	ldrb	r0, [r4, #137]	; 0x89
    da50:	e5d41086 	ldrb	r1, [r4, #134]	; 0x86
    da54:	e1a02802 	lsl	r2, r2, #16
    da58:	e1822c00 	orr	r2, r2, r0, lsl #24
    da5c:	e5d40087 	ldrb	r0, [r4, #135]	; 0x87
    da60:	e1822001 	orr	r2, r2, r1
    da64:	e1820400 	orr	r0, r2, r0, lsl #8
    da68:	e3c004ff 	bic	r0, r0, #-16777216	; 0xff000000
    da6c:	e0500003 	subs	r0, r0, r3
    da70:	13a00001 	movne	r0, #1
    da74:	e8bd8010 	pop	{r4, pc}
    da78:	ffffaa55 			; <UNDEFINED> instruction: 0xffffaa55
    da7c:	00544146 	subseq	r4, r4, r6, asr #2

0000da80 <sync_window.part.2>:
    da80:	e92d40f8 	push	{r3, r4, r5, r6, r7, lr}
    da84:	e5905030 	ldr	r5, [r0, #48]	; 0x30
    da88:	e2807034 	add	r7, r0, #52	; 0x34
    da8c:	e1a04000 	mov	r4, r0
    da90:	e1a02005 	mov	r2, r5
    da94:	e1a01007 	mov	r1, r7
    da98:	e5d00001 	ldrb	r0, [r0, #1]
    da9c:	e3a03001 	mov	r3, #1
    daa0:	eb0027c9 	bl	179cc <disk_write>
    daa4:	e3500000 	cmp	r0, #0
    daa8:	1a000017 	bne	db0c <sync_window.part.2+0x8c>
    daac:	e5942024 	ldr	r2, [r4, #36]	; 0x24
    dab0:	e5c40004 	strb	r0, [r4, #4]
    dab4:	e1550002 	cmp	r5, r2
    dab8:	3a000011 	bcc	db04 <sync_window.part.2+0x84>
    dabc:	e594301c 	ldr	r3, [r4, #28]
    dac0:	e0832002 	add	r2, r3, r2
    dac4:	e1550002 	cmp	r5, r2
    dac8:	2a00000d 	bcs	db04 <sync_window.part.2+0x84>
    dacc:	e5d46003 	ldrb	r6, [r4, #3]
    dad0:	e3560001 	cmp	r6, #1
    dad4:	8a000001 	bhi	dae0 <sync_window.part.2+0x60>
    dad8:	ea000009 	b	db04 <sync_window.part.2+0x84>
    dadc:	e594301c 	ldr	r3, [r4, #28]
    dae0:	e0855003 	add	r5, r5, r3
    dae4:	e2466001 	sub	r6, r6, #1
    dae8:	e1a02005 	mov	r2, r5
    daec:	e5d40001 	ldrb	r0, [r4, #1]
    daf0:	e1a01007 	mov	r1, r7
    daf4:	e3a03001 	mov	r3, #1
    daf8:	eb0027b3 	bl	179cc <disk_write>
    dafc:	e3560001 	cmp	r6, #1
    db00:	1afffff5 	bne	dadc <sync_window.part.2+0x5c>
    db04:	e3a00000 	mov	r0, #0
    db08:	e8bd80f8 	pop	{r3, r4, r5, r6, r7, pc}
    db0c:	e3a00001 	mov	r0, #1
    db10:	e8bd80f8 	pop	{r3, r4, r5, r6, r7, pc}

0000db14 <move_window>:
    db14:	e92d41f0 	push	{r4, r5, r6, r7, r8, lr}
    db18:	e5905030 	ldr	r5, [r0, #48]	; 0x30
    db1c:	e1a04000 	mov	r4, r0
    db20:	e1550001 	cmp	r5, r1
    db24:	e1a06001 	mov	r6, r1
    db28:	0a00002c 	beq	dbe0 <move_window+0xcc>
    db2c:	e5d03004 	ldrb	r3, [r0, #4]
    db30:	e2807034 	add	r7, r0, #52	; 0x34
    db34:	e3530000 	cmp	r3, #0
    db38:	1a000008 	bne	db60 <move_window+0x4c>
    db3c:	e1a01007 	mov	r1, r7
    db40:	e5d40001 	ldrb	r0, [r4, #1]
    db44:	e1a02006 	mov	r2, r6
    db48:	e3a03001 	mov	r3, #1
    db4c:	eb002780 	bl	17954 <disk_read>
    db50:	e3500000 	cmp	r0, #0
    db54:	1a000008 	bne	db7c <move_window+0x68>
    db58:	e5846030 	str	r6, [r4, #48]	; 0x30
    db5c:	e8bd81f0 	pop	{r4, r5, r6, r7, r8, pc}
    db60:	e1a01007 	mov	r1, r7
    db64:	e5d00001 	ldrb	r0, [r0, #1]
    db68:	e1a02005 	mov	r2, r5
    db6c:	e3a03001 	mov	r3, #1
    db70:	eb002795 	bl	179cc <disk_write>
    db74:	e3500000 	cmp	r0, #0
    db78:	0a000001 	beq	db84 <move_window+0x70>
    db7c:	e3a00001 	mov	r0, #1
    db80:	e8bd81f0 	pop	{r4, r5, r6, r7, r8, pc}
    db84:	e5942024 	ldr	r2, [r4, #36]	; 0x24
    db88:	e5c40004 	strb	r0, [r4, #4]
    db8c:	e1550002 	cmp	r5, r2
    db90:	3affffe9 	bcc	db3c <move_window+0x28>
    db94:	e594301c 	ldr	r3, [r4, #28]
    db98:	e0832002 	add	r2, r3, r2
    db9c:	e1550002 	cmp	r5, r2
    dba0:	2affffe5 	bcs	db3c <move_window+0x28>
    dba4:	e5d48003 	ldrb	r8, [r4, #3]
    dba8:	e3580001 	cmp	r8, #1
    dbac:	8a000001 	bhi	dbb8 <move_window+0xa4>
    dbb0:	eaffffe1 	b	db3c <move_window+0x28>
    dbb4:	e594301c 	ldr	r3, [r4, #28]
    dbb8:	e0855003 	add	r5, r5, r3
    dbbc:	e2488001 	sub	r8, r8, #1
    dbc0:	e1a02005 	mov	r2, r5
    dbc4:	e5d40001 	ldrb	r0, [r4, #1]
    dbc8:	e1a01007 	mov	r1, r7
    dbcc:	e3a03001 	mov	r3, #1
    dbd0:	eb00277d 	bl	179cc <disk_write>
    dbd4:	e3580001 	cmp	r8, #1
    dbd8:	1afffff5 	bne	dbb4 <move_window+0xa0>
    dbdc:	eaffffd6 	b	db3c <move_window+0x28>
    dbe0:	e3a00000 	mov	r0, #0
    dbe4:	e8bd81f0 	pop	{r4, r5, r6, r7, r8, pc}

0000dbe8 <sync_fs>:
    dbe8:	e92d4ff8 	push	{r3, r4, r5, r6, r7, r8, r9, sl, fp, lr}
    dbec:	e5d03004 	ldrb	r3, [r0, #4]
    dbf0:	e1a04000 	mov	r4, r0
    dbf4:	e3530000 	cmp	r3, #0
    dbf8:	1a000009 	bne	dc24 <sync_fs+0x3c>
    dbfc:	e5d43000 	ldrb	r3, [r4]
    dc00:	e3530003 	cmp	r3, #3
    dc04:	0a000026 	beq	dca4 <sync_fs+0xbc>
    dc08:	e3a01000 	mov	r1, #0
    dc0c:	e5d40001 	ldrb	r0, [r4, #1]
    dc10:	e1a02001 	mov	r2, r1
    dc14:	eb002775 	bl	179f0 <disk_ioctl>
    dc18:	e2900000 	adds	r0, r0, #0
    dc1c:	13a00001 	movne	r0, #1
    dc20:	e8bd8ff8 	pop	{r3, r4, r5, r6, r7, r8, r9, sl, fp, pc}
    dc24:	e5905030 	ldr	r5, [r0, #48]	; 0x30
    dc28:	e2807034 	add	r7, r0, #52	; 0x34
    dc2c:	e1a02005 	mov	r2, r5
    dc30:	e1a01007 	mov	r1, r7
    dc34:	e5d00001 	ldrb	r0, [r0, #1]
    dc38:	e3a03001 	mov	r3, #1
    dc3c:	eb002762 	bl	179cc <disk_write>
    dc40:	e3500000 	cmp	r0, #0
    dc44:	1a000066 	bne	dde4 <sync_fs+0x1fc>
    dc48:	e5942024 	ldr	r2, [r4, #36]	; 0x24
    dc4c:	e5c40004 	strb	r0, [r4, #4]
    dc50:	e1550002 	cmp	r5, r2
    dc54:	3affffe8 	bcc	dbfc <sync_fs+0x14>
    dc58:	e594301c 	ldr	r3, [r4, #28]
    dc5c:	e0832002 	add	r2, r3, r2
    dc60:	e1550002 	cmp	r5, r2
    dc64:	2affffe4 	bcs	dbfc <sync_fs+0x14>
    dc68:	e5d46003 	ldrb	r6, [r4, #3]
    dc6c:	e3560001 	cmp	r6, #1
    dc70:	8a000001 	bhi	dc7c <sync_fs+0x94>
    dc74:	eaffffe0 	b	dbfc <sync_fs+0x14>
    dc78:	e594301c 	ldr	r3, [r4, #28]
    dc7c:	e0855003 	add	r5, r5, r3
    dc80:	e2466001 	sub	r6, r6, #1
    dc84:	e1a02005 	mov	r2, r5
    dc88:	e5d40001 	ldrb	r0, [r4, #1]
    dc8c:	e1a01007 	mov	r1, r7
    dc90:	e3a03001 	mov	r3, #1
    dc94:	eb00274c 	bl	179cc <disk_write>
    dc98:	e3560001 	cmp	r6, #1
    dc9c:	1afffff5 	bne	dc78 <sync_fs+0x90>
    dca0:	eaffffd5 	b	dbfc <sync_fs+0x14>
    dca4:	e5d43005 	ldrb	r3, [r4, #5]
    dca8:	e3530000 	cmp	r3, #0
    dcac:	0affffd5 	beq	dc08 <sync_fs+0x20>
    dcb0:	e2841034 	add	r1, r4, #52	; 0x34
    dcb4:	e2612000 	rsb	r2, r1, #0
    dcb8:	e3a03000 	mov	r3, #0
    dcbc:	e2122003 	ands	r2, r2, #3
    dcc0:	e5843030 	str	r3, [r4, #48]	; 0x30
    dcc4:	0a00004c 	beq	ddfc <sync_fs+0x214>
    dcc8:	e3520001 	cmp	r2, #1
    dccc:	e5c43034 	strb	r3, [r4, #52]	; 0x34
    dcd0:	e2845035 	add	r5, r4, #53	; 0x35
    dcd4:	9a000046 	bls	ddf4 <sync_fs+0x20c>
    dcd8:	e3520002 	cmp	r2, #2
    dcdc:	e5c43035 	strb	r3, [r4, #53]	; 0x35
    dce0:	e2845036 	add	r5, r4, #54	; 0x36
    dce4:	9a000040 	bls	ddec <sync_fs+0x204>
    dce8:	e59f8118 	ldr	r8, [pc, #280]	; de08 <sync_fs+0x220>
    dcec:	e5c43036 	strb	r3, [r4, #54]	; 0x36
    dcf0:	e2845037 	add	r5, r4, #55	; 0x37
    dcf4:	e2627c02 	rsb	r7, r2, #512	; 0x200
    dcf8:	e1a00127 	lsr	r0, r7, #2
    dcfc:	e3a03000 	mov	r3, #0
    dd00:	e0812002 	add	r2, r1, r2
    dd04:	e1a06100 	lsl	r6, r0, #2
    dd08:	e1a0e003 	mov	lr, r3
    dd0c:	e2833001 	add	r3, r3, #1
    dd10:	e1500003 	cmp	r0, r3
    dd14:	e482e004 	str	lr, [r2], #4
    dd18:	e3a0c000 	mov	ip, #0
    dd1c:	8afffffa 	bhi	dd0c <sync_fs+0x124>
    dd20:	e1570006 	cmp	r7, r6
    dd24:	e0663008 	rsb	r3, r6, r8
    dd28:	e0856006 	add	r6, r5, r6
    dd2c:	0a000005 	beq	dd48 <sync_fs+0x160>
    dd30:	e3530001 	cmp	r3, #1
    dd34:	e7c5c100 	strb	ip, [r5, r0, lsl #2]
    dd38:	0a000002 	beq	dd48 <sync_fs+0x160>
    dd3c:	e3530002 	cmp	r3, #2
    dd40:	e5c6c001 	strb	ip, [r6, #1]
    dd44:	15c6c002 	strbne	ip, [r6, #2]
    dd48:	e5942010 	ldr	r2, [r4, #16]
    dd4c:	e594300c 	ldr	r3, [r4, #12]
    dd50:	e1a0b422 	lsr	fp, r2, #8
    dd54:	e3a0c052 	mov	ip, #82	; 0x52
    dd58:	e3a00061 	mov	r0, #97	; 0x61
    dd5c:	e1a0a822 	lsr	sl, r2, #16
    dd60:	e1a09c22 	lsr	r9, r2, #24
    dd64:	e1a08423 	lsr	r8, r3, #8
    dd68:	e1a07823 	lsr	r7, r3, #16
    dd6c:	e1a06c23 	lsr	r6, r3, #24
    dd70:	e3e0e055 	mvn	lr, #85	; 0x55
    dd74:	e5c4221c 	strb	r2, [r4, #540]	; 0x21c
    dd78:	e5c4b21d 	strb	fp, [r4, #541]	; 0x21d
    dd7c:	e3a02041 	mov	r2, #65	; 0x41
    dd80:	e3a0b072 	mov	fp, #114	; 0x72
    dd84:	e3a05055 	mov	r5, #85	; 0x55
    dd88:	e5c43220 	strb	r3, [r4, #544]	; 0x220
    dd8c:	e5c40036 	strb	r0, [r4, #54]	; 0x36
    dd90:	e5c4021b 	strb	r0, [r4, #539]	; 0x21b
    dd94:	e5c42037 	strb	r2, [r4, #55]	; 0x37
    dd98:	e5c4221a 	strb	r2, [r4, #538]	; 0x21a
    dd9c:	e3a03001 	mov	r3, #1
    dda0:	e5c4a21e 	strb	sl, [r4, #542]	; 0x21e
    dda4:	e5c4921f 	strb	r9, [r4, #543]	; 0x21f
    dda8:	e5c48221 	strb	r8, [r4, #545]	; 0x221
    ddac:	e5c47222 	strb	r7, [r4, #546]	; 0x222
    ddb0:	e5c46223 	strb	r6, [r4, #547]	; 0x223
    ddb4:	e5c45232 	strb	r5, [r4, #562]	; 0x232
    ddb8:	e5c4e233 	strb	lr, [r4, #563]	; 0x233
    ddbc:	e5c4c034 	strb	ip, [r4, #52]	; 0x34
    ddc0:	e5c4c035 	strb	ip, [r4, #53]	; 0x35
    ddc4:	e5c4b218 	strb	fp, [r4, #536]	; 0x218
    ddc8:	e5c4b219 	strb	fp, [r4, #537]	; 0x219
    ddcc:	e5d40001 	ldrb	r0, [r4, #1]
    ddd0:	e5942014 	ldr	r2, [r4, #20]
    ddd4:	eb0026fc 	bl	179cc <disk_write>
    ddd8:	e3a03000 	mov	r3, #0
    dddc:	e5c43005 	strb	r3, [r4, #5]
    dde0:	eaffff88 	b	dc08 <sync_fs+0x20>
    dde4:	e3a00001 	mov	r0, #1
    dde8:	e8bd8ff8 	pop	{r3, r4, r5, r6, r7, r8, r9, sl, fp, pc}
    ddec:	e59f8018 	ldr	r8, [pc, #24]	; de0c <sync_fs+0x224>
    ddf0:	eaffffbf 	b	dcf4 <sync_fs+0x10c>
    ddf4:	e59f8014 	ldr	r8, [pc, #20]	; de10 <sync_fs+0x228>
    ddf8:	eaffffbd 	b	dcf4 <sync_fs+0x10c>
    ddfc:	e1a05001 	mov	r5, r1
    de00:	e3a08c02 	mov	r8, #512	; 0x200
    de04:	eaffffba 	b	dcf4 <sync_fs+0x10c>
    de08:	000001fd 	strdeq	r0, [r0], -sp
    de0c:	000001fe 	strdeq	r0, [r0], -lr
    de10:	000001ff 	strdeq	r0, [r0], -pc	; <UNPREDICTABLE>

0000de14 <put_fat.part.6>:
    de14:	e92d4ff8 	push	{r3, r4, r5, r6, r7, r8, r9, sl, fp, lr}
    de18:	e5d03000 	ldrb	r3, [r0]
    de1c:	e1a04000 	mov	r4, r0
    de20:	e3530002 	cmp	r3, #2
    de24:	e1a05001 	mov	r5, r1
    de28:	e1a06002 	mov	r6, r2
    de2c:	0a000081 	beq	e038 <put_fat.part.6+0x224>
    de30:	e3530003 	cmp	r3, #3
    de34:	0a00005d 	beq	dfb0 <put_fat.part.6+0x19c>
    de38:	e3530001 	cmp	r3, #1
    de3c:	13a00002 	movne	r0, #2
    de40:	0a000002 	beq	de50 <put_fat.part.6+0x3c>
    de44:	e3a03001 	mov	r3, #1
    de48:	e5c43004 	strb	r3, [r4, #4]
    de4c:	e8bd8ff8 	pop	{r3, r4, r5, r6, r7, r8, r9, sl, fp, pc}
    de50:	e5941024 	ldr	r1, [r4, #36]	; 0x24
    de54:	e08590a5 	add	r9, r5, r5, lsr #1
    de58:	e5947030 	ldr	r7, [r4, #48]	; 0x30
    de5c:	e08184a9 	add	r8, r1, r9, lsr #9
    de60:	e1580007 	cmp	r8, r7
    de64:	0a0000e8 	beq	e20c <put_fat.part.6+0x3f8>
    de68:	e5d42004 	ldrb	r2, [r4, #4]
    de6c:	e284a034 	add	sl, r4, #52	; 0x34
    de70:	e3520000 	cmp	r2, #0
    de74:	1a000089 	bne	e0a0 <put_fat.part.6+0x28c>
    de78:	e1a0100a 	mov	r1, sl
    de7c:	e5d40001 	ldrb	r0, [r4, #1]
    de80:	e1a02008 	mov	r2, r8
    de84:	e3a03001 	mov	r3, #1
    de88:	eb0026b1 	bl	17954 <disk_read>
    de8c:	e3500000 	cmp	r0, #0
    de90:	1a0000db 	bne	e204 <put_fat.part.6+0x3f0>
    de94:	e5941024 	ldr	r1, [r4, #36]	; 0x24
    de98:	e5848030 	str	r8, [r4, #48]	; 0x30
    de9c:	e1a07008 	mov	r7, r8
    dea0:	e1a02b89 	lsl	r2, r9, #23
    dea4:	e1a02ba2 	lsr	r2, r2, #23
    dea8:	e2155001 	ands	r5, r5, #1
    deac:	e0842002 	add	r2, r4, r2
    deb0:	15d23034 	ldrbne	r3, [r2, #52]	; 0x34
    deb4:	16ef0076 	uxtbne	r0, r6
    deb8:	1203300f 	andne	r3, r3, #15
    debc:	e2899001 	add	r9, r9, #1
    dec0:	11830200 	orrne	r0, r3, r0, lsl #4
    dec4:	e081a4a9 	add	sl, r1, r9, lsr #9
    dec8:	16ef0070 	uxtbne	r0, r0
    decc:	06ef0076 	uxtbeq	r0, r6
    ded0:	e3a03001 	mov	r3, #1
    ded4:	e15a0008 	cmp	sl, r8
    ded8:	e5c20034 	strb	r0, [r2, #52]	; 0x34
    dedc:	e5c43004 	strb	r3, [r4, #4]
    dee0:	0a000024 	beq	df78 <put_fat.part.6+0x164>
    dee4:	e284b034 	add	fp, r4, #52	; 0x34
    dee8:	e1a0100b 	mov	r1, fp
    deec:	e5d40001 	ldrb	r0, [r4, #1]
    def0:	e1a02008 	mov	r2, r8
    def4:	eb0026b4 	bl	179cc <disk_write>
    def8:	e3500000 	cmp	r0, #0
    defc:	1a0000c0 	bne	e204 <put_fat.part.6+0x3f0>
    df00:	e5942024 	ldr	r2, [r4, #36]	; 0x24
    df04:	e5c40004 	strb	r0, [r4, #4]
    df08:	e1520008 	cmp	r2, r8
    df0c:	8a000011 	bhi	df58 <put_fat.part.6+0x144>
    df10:	e594301c 	ldr	r3, [r4, #28]
    df14:	e0832002 	add	r2, r3, r2
    df18:	e1520008 	cmp	r2, r8
    df1c:	9a00000d 	bls	df58 <put_fat.part.6+0x144>
    df20:	e5d48003 	ldrb	r8, [r4, #3]
    df24:	e3580001 	cmp	r8, #1
    df28:	8a000001 	bhi	df34 <put_fat.part.6+0x120>
    df2c:	ea000009 	b	df58 <put_fat.part.6+0x144>
    df30:	e594301c 	ldr	r3, [r4, #28]
    df34:	e0877003 	add	r7, r7, r3
    df38:	e2488001 	sub	r8, r8, #1
    df3c:	e1a02007 	mov	r2, r7
    df40:	e5d40001 	ldrb	r0, [r4, #1]
    df44:	e1a0100b 	mov	r1, fp
    df48:	e3a03001 	mov	r3, #1
    df4c:	eb00269e 	bl	179cc <disk_write>
    df50:	e3580001 	cmp	r8, #1
    df54:	1afffff5 	bne	df30 <put_fat.part.6+0x11c>
    df58:	e1a0100b 	mov	r1, fp
    df5c:	e5d40001 	ldrb	r0, [r4, #1]
    df60:	e1a0200a 	mov	r2, sl
    df64:	e3a03001 	mov	r3, #1
    df68:	eb002679 	bl	17954 <disk_read>
    df6c:	e3500000 	cmp	r0, #0
    df70:	0584a030 	streq	sl, [r4, #48]	; 0x30
    df74:	1a0000a2 	bne	e204 <put_fat.part.6+0x3f0>
    df78:	e1a03b89 	lsl	r3, r9, #23
    df7c:	e3550000 	cmp	r5, #0
    df80:	e1a03ba3 	lsr	r3, r3, #23
    df84:	00843003 	addeq	r3, r4, r3
    df88:	05d32034 	ldrbeq	r2, [r3, #52]	; 0x34
    df8c:	11a06226 	lsrne	r6, r6, #4
    df90:	01a06a06 	lsleq	r6, r6, #20
    df94:	03c2200f 	biceq	r2, r2, #15
    df98:	16ef6076 	uxtbne	r6, r6
    df9c:	10843003 	addne	r3, r4, r3
    dfa0:	01826e26 	orreq	r6, r2, r6, lsr #28
    dfa4:	e5c36034 	strb	r6, [r3, #52]	; 0x34
    dfa8:	e3a00000 	mov	r0, #0
    dfac:	eaffffa4 	b	de44 <put_fat.part.6+0x30>
    dfb0:	e5908024 	ldr	r8, [r0, #36]	; 0x24
    dfb4:	e5907030 	ldr	r7, [r0, #48]	; 0x30
    dfb8:	e08883a1 	add	r8, r8, r1, lsr #7
    dfbc:	e1580007 	cmp	r8, r7
    dfc0:	0a00000b 	beq	dff4 <put_fat.part.6+0x1e0>
    dfc4:	e5d03004 	ldrb	r3, [r0, #4]
    dfc8:	e2809034 	add	r9, r0, #52	; 0x34
    dfcc:	e3530000 	cmp	r3, #0
    dfd0:	1a00006d 	bne	e18c <put_fat.part.6+0x378>
    dfd4:	e1a01009 	mov	r1, r9
    dfd8:	e5d40001 	ldrb	r0, [r4, #1]
    dfdc:	e1a02008 	mov	r2, r8
    dfe0:	e3a03001 	mov	r3, #1
    dfe4:	eb00265a 	bl	17954 <disk_read>
    dfe8:	e3500000 	cmp	r0, #0
    dfec:	1a000084 	bne	e204 <put_fat.part.6+0x3f0>
    dff0:	e5848030 	str	r8, [r4, #48]	; 0x30
    dff4:	e1a05105 	lsl	r5, r5, #2
    dff8:	e2055f7f 	and	r5, r5, #508	; 0x1fc
    dffc:	e0843005 	add	r3, r4, r5
    e000:	e5d32037 	ldrb	r2, [r3, #55]	; 0x37
    e004:	e1a05003 	mov	r5, r3
    e008:	e1a02c02 	lsl	r2, r2, #24
    e00c:	e202220f 	and	r2, r2, #-268435456	; 0xf0000000
    e010:	e1826006 	orr	r6, r2, r6
    e014:	e1a0c426 	lsr	ip, r6, #8
    e018:	e1a01826 	lsr	r1, r6, #16
    e01c:	e1a02c26 	lsr	r2, r6, #24
    e020:	e5c36034 	strb	r6, [r3, #52]	; 0x34
    e024:	e3a00000 	mov	r0, #0
    e028:	e5c3c035 	strb	ip, [r3, #53]	; 0x35
    e02c:	e5c31036 	strb	r1, [r3, #54]	; 0x36
    e030:	e5c32037 	strb	r2, [r3, #55]	; 0x37
    e034:	eaffff82 	b	de44 <put_fat.part.6+0x30>
    e038:	e5908024 	ldr	r8, [r0, #36]	; 0x24
    e03c:	e5907030 	ldr	r7, [r0, #48]	; 0x30
    e040:	e0888421 	add	r8, r8, r1, lsr #8
    e044:	e1580007 	cmp	r8, r7
    e048:	0a00000b 	beq	e07c <put_fat.part.6+0x268>
    e04c:	e5d03004 	ldrb	r3, [r0, #4]
    e050:	e2809034 	add	r9, r0, #52	; 0x34
    e054:	e3530000 	cmp	r3, #0
    e058:	1a00002d 	bne	e114 <put_fat.part.6+0x300>
    e05c:	e1a01009 	mov	r1, r9
    e060:	e5d40001 	ldrb	r0, [r4, #1]
    e064:	e1a02008 	mov	r2, r8
    e068:	e3a03001 	mov	r3, #1
    e06c:	eb002638 	bl	17954 <disk_read>
    e070:	e3500000 	cmp	r0, #0
    e074:	1a000062 	bne	e204 <put_fat.part.6+0x3f0>
    e078:	e5848030 	str	r8, [r4, #48]	; 0x30
    e07c:	e59f3190 	ldr	r3, [pc, #400]	; e214 <put_fat.part.6+0x400>
    e080:	e1a05085 	lsl	r5, r5, #1
    e084:	e0053003 	and	r3, r5, r3
    e088:	e0841003 	add	r1, r4, r3
    e08c:	e1a02426 	lsr	r2, r6, #8
    e090:	e5c16034 	strb	r6, [r1, #52]	; 0x34
    e094:	e3a00000 	mov	r0, #0
    e098:	e5c12035 	strb	r2, [r1, #53]	; 0x35
    e09c:	eaffff68 	b	de44 <put_fat.part.6+0x30>
    e0a0:	e1a0100a 	mov	r1, sl
    e0a4:	e5d40001 	ldrb	r0, [r4, #1]
    e0a8:	e1a02007 	mov	r2, r7
    e0ac:	eb002646 	bl	179cc <disk_write>
    e0b0:	e3500000 	cmp	r0, #0
    e0b4:	1a000052 	bne	e204 <put_fat.part.6+0x3f0>
    e0b8:	e5942024 	ldr	r2, [r4, #36]	; 0x24
    e0bc:	e5c40004 	strb	r0, [r4, #4]
    e0c0:	e1570002 	cmp	r7, r2
    e0c4:	3affff6b 	bcc	de78 <put_fat.part.6+0x64>
    e0c8:	e594301c 	ldr	r3, [r4, #28]
    e0cc:	e0832002 	add	r2, r3, r2
    e0d0:	e1570002 	cmp	r7, r2
    e0d4:	2affff67 	bcs	de78 <put_fat.part.6+0x64>
    e0d8:	e5d4b003 	ldrb	fp, [r4, #3]
    e0dc:	e35b0001 	cmp	fp, #1
    e0e0:	8a000001 	bhi	e0ec <put_fat.part.6+0x2d8>
    e0e4:	eaffff63 	b	de78 <put_fat.part.6+0x64>
    e0e8:	e594301c 	ldr	r3, [r4, #28]
    e0ec:	e0877003 	add	r7, r7, r3
    e0f0:	e24bb001 	sub	fp, fp, #1
    e0f4:	e1a02007 	mov	r2, r7
    e0f8:	e5d40001 	ldrb	r0, [r4, #1]
    e0fc:	e1a0100a 	mov	r1, sl
    e100:	e3a03001 	mov	r3, #1
    e104:	eb002630 	bl	179cc <disk_write>
    e108:	e35b0001 	cmp	fp, #1
    e10c:	1afffff5 	bne	e0e8 <put_fat.part.6+0x2d4>
    e110:	eaffff58 	b	de78 <put_fat.part.6+0x64>
    e114:	e1a01009 	mov	r1, r9
    e118:	e5d00001 	ldrb	r0, [r0, #1]
    e11c:	e1a02007 	mov	r2, r7
    e120:	e3a03001 	mov	r3, #1
    e124:	eb002628 	bl	179cc <disk_write>
    e128:	e3500000 	cmp	r0, #0
    e12c:	1a000034 	bne	e204 <put_fat.part.6+0x3f0>
    e130:	e5942024 	ldr	r2, [r4, #36]	; 0x24
    e134:	e5c40004 	strb	r0, [r4, #4]
    e138:	e1570002 	cmp	r7, r2
    e13c:	3affffc6 	bcc	e05c <put_fat.part.6+0x248>
    e140:	e594301c 	ldr	r3, [r4, #28]
    e144:	e0832002 	add	r2, r3, r2
    e148:	e1570002 	cmp	r7, r2
    e14c:	2affffc2 	bcs	e05c <put_fat.part.6+0x248>
    e150:	e5d4a003 	ldrb	sl, [r4, #3]
    e154:	e35a0001 	cmp	sl, #1
    e158:	8a000001 	bhi	e164 <put_fat.part.6+0x350>
    e15c:	eaffffbe 	b	e05c <put_fat.part.6+0x248>
    e160:	e594301c 	ldr	r3, [r4, #28]
    e164:	e0877003 	add	r7, r7, r3
    e168:	e24aa001 	sub	sl, sl, #1
    e16c:	e1a02007 	mov	r2, r7
    e170:	e5d40001 	ldrb	r0, [r4, #1]
    e174:	e1a01009 	mov	r1, r9
    e178:	e3a03001 	mov	r3, #1
    e17c:	eb002612 	bl	179cc <disk_write>
    e180:	e35a0001 	cmp	sl, #1
    e184:	1afffff5 	bne	e160 <put_fat.part.6+0x34c>
    e188:	eaffffb3 	b	e05c <put_fat.part.6+0x248>
    e18c:	e1a01009 	mov	r1, r9
    e190:	e5d00001 	ldrb	r0, [r0, #1]
    e194:	e1a02007 	mov	r2, r7
    e198:	e3a03001 	mov	r3, #1
    e19c:	eb00260a 	bl	179cc <disk_write>
    e1a0:	e3500000 	cmp	r0, #0
    e1a4:	1a000016 	bne	e204 <put_fat.part.6+0x3f0>
    e1a8:	e5942024 	ldr	r2, [r4, #36]	; 0x24
    e1ac:	e5c40004 	strb	r0, [r4, #4]
    e1b0:	e1570002 	cmp	r7, r2
    e1b4:	3affff86 	bcc	dfd4 <put_fat.part.6+0x1c0>
    e1b8:	e594301c 	ldr	r3, [r4, #28]
    e1bc:	e0832002 	add	r2, r3, r2
    e1c0:	e1570002 	cmp	r7, r2
    e1c4:	2affff82 	bcs	dfd4 <put_fat.part.6+0x1c0>
    e1c8:	e5d4a003 	ldrb	sl, [r4, #3]
    e1cc:	e35a0001 	cmp	sl, #1
    e1d0:	8a000001 	bhi	e1dc <put_fat.part.6+0x3c8>
    e1d4:	eaffff7e 	b	dfd4 <put_fat.part.6+0x1c0>
    e1d8:	e594301c 	ldr	r3, [r4, #28]
    e1dc:	e0877003 	add	r7, r7, r3
    e1e0:	e24aa001 	sub	sl, sl, #1
    e1e4:	e1a02007 	mov	r2, r7
    e1e8:	e5d40001 	ldrb	r0, [r4, #1]
    e1ec:	e1a01009 	mov	r1, r9
    e1f0:	e3a03001 	mov	r3, #1
    e1f4:	eb0025f4 	bl	179cc <disk_write>
    e1f8:	e35a0001 	cmp	sl, #1
    e1fc:	1afffff5 	bne	e1d8 <put_fat.part.6+0x3c4>
    e200:	eaffff73 	b	dfd4 <put_fat.part.6+0x1c0>
    e204:	e3a00001 	mov	r0, #1
    e208:	eaffff0d 	b	de44 <put_fat.part.6+0x30>
    e20c:	e1a07008 	mov	r7, r8
    e210:	eaffff22 	b	dea0 <put_fat.part.6+0x8c>
    e214:	000001fe 	strdeq	r0, [r0], -lr

0000e218 <remove_chain.part.8>:
    e218:	e92d4ff0 	push	{r4, r5, r6, r7, r8, r9, sl, fp, lr}
    e21c:	e1a04000 	mov	r4, r0
    e220:	e24dd00c 	sub	sp, sp, #12
    e224:	e1a05001 	mov	r5, r1
    e228:	e3a07001 	mov	r7, #1
    e22c:	e5943018 	ldr	r3, [r4, #24]
    e230:	e1550003 	cmp	r5, r3
    e234:	2a000065 	bcs	e3d0 <remove_chain.part.8+0x1b8>
    e238:	e3550001 	cmp	r5, #1
    e23c:	9a00002d 	bls	e2f8 <remove_chain.part.8+0xe0>
    e240:	e5d43000 	ldrb	r3, [r4]
    e244:	e3530002 	cmp	r3, #2
    e248:	0a000062 	beq	e3d8 <remove_chain.part.8+0x1c0>
    e24c:	e3530003 	cmp	r3, #3
    e250:	0a000004 	beq	e268 <remove_chain.part.8+0x50>
    e254:	e3530001 	cmp	r3, #1
    e258:	0a000029 	beq	e304 <remove_chain.part.8+0xec>
    e25c:	e3a00001 	mov	r0, #1
    e260:	e28dd00c 	add	sp, sp, #12
    e264:	e8bd8ff0 	pop	{r4, r5, r6, r7, r8, r9, sl, fp, pc}
    e268:	e5948024 	ldr	r8, [r4, #36]	; 0x24
    e26c:	e5946030 	ldr	r6, [r4, #48]	; 0x30
    e270:	e08883a5 	add	r8, r8, r5, lsr #7
    e274:	e1580006 	cmp	r8, r6
    e278:	0a00000b 	beq	e2ac <remove_chain.part.8+0x94>
    e27c:	e5d43004 	ldrb	r3, [r4, #4]
    e280:	e2849034 	add	r9, r4, #52	; 0x34
    e284:	e3530000 	cmp	r3, #0
    e288:	1a0000b4 	bne	e560 <remove_chain.part.8+0x348>
    e28c:	e1a01009 	mov	r1, r9
    e290:	e5d40001 	ldrb	r0, [r4, #1]
    e294:	e1a02008 	mov	r2, r8
    e298:	e3a03001 	mov	r3, #1
    e29c:	eb0025ac 	bl	17954 <disk_read>
    e2a0:	e3500000 	cmp	r0, #0
    e2a4:	1affffec 	bne	e25c <remove_chain.part.8+0x44>
    e2a8:	e5848030 	str	r8, [r4, #48]	; 0x30
    e2ac:	e1a02105 	lsl	r2, r5, #2
    e2b0:	e2022f7f 	and	r2, r2, #508	; 0x1fc
    e2b4:	e0843002 	add	r3, r4, r2
    e2b8:	e5d36037 	ldrb	r6, [r3, #55]	; 0x37
    e2bc:	e5d30036 	ldrb	r0, [r3, #54]	; 0x36
    e2c0:	e5d31035 	ldrb	r1, [r3, #53]	; 0x35
    e2c4:	e1a06c06 	lsl	r6, r6, #24
    e2c8:	e5d33034 	ldrb	r3, [r3, #52]	; 0x34
    e2cc:	e1866800 	orr	r6, r6, r0, lsl #16
    e2d0:	e1866401 	orr	r6, r6, r1, lsl #8
    e2d4:	e1866003 	orr	r6, r6, r3
    e2d8:	e3c6620f 	bic	r6, r6, #-268435456	; 0xf0000000
    e2dc:	e3560000 	cmp	r6, #0
    e2e0:	0a00003a 	beq	e3d0 <remove_chain.part.8+0x1b8>
    e2e4:	e3560001 	cmp	r6, #1
    e2e8:	0a000002 	beq	e2f8 <remove_chain.part.8+0xe0>
    e2ec:	e5943018 	ldr	r3, [r4, #24]
    e2f0:	e1550003 	cmp	r5, r3
    e2f4:	3a000051 	bcc	e440 <remove_chain.part.8+0x228>
    e2f8:	e3a00002 	mov	r0, #2
    e2fc:	e28dd00c 	add	sp, sp, #12
    e300:	e8bd8ff0 	pop	{r4, r5, r6, r7, r8, r9, sl, fp, pc}
    e304:	e5941024 	ldr	r1, [r4, #36]	; 0x24
    e308:	e08590a5 	add	r9, r5, r5, lsr #1
    e30c:	e5946030 	ldr	r6, [r4, #48]	; 0x30
    e310:	e08184a9 	add	r8, r1, r9, lsr #9
    e314:	e1580006 	cmp	r8, r6
    e318:	0a0000ae 	beq	e5d8 <remove_chain.part.8+0x3c0>
    e31c:	e5d42004 	ldrb	r2, [r4, #4]
    e320:	e284a034 	add	sl, r4, #52	; 0x34
    e324:	e3520000 	cmp	r2, #0
    e328:	1a000051 	bne	e474 <remove_chain.part.8+0x25c>
    e32c:	e1a0100a 	mov	r1, sl
    e330:	e5d40001 	ldrb	r0, [r4, #1]
    e334:	e1a02008 	mov	r2, r8
    e338:	e3a03001 	mov	r3, #1
    e33c:	eb002584 	bl	17954 <disk_read>
    e340:	e3500000 	cmp	r0, #0
    e344:	1affffc4 	bne	e25c <remove_chain.part.8+0x44>
    e348:	e5941024 	ldr	r1, [r4, #36]	; 0x24
    e34c:	e5848030 	str	r8, [r4, #48]	; 0x30
    e350:	e1a06008 	mov	r6, r8
    e354:	e289b001 	add	fp, r9, #1
    e358:	e1a09b89 	lsl	r9, r9, #23
    e35c:	e0849ba9 	add	r9, r4, r9, lsr #23
    e360:	e081a4ab 	add	sl, r1, fp, lsr #9
    e364:	e5d99034 	ldrb	r9, [r9, #52]	; 0x34
    e368:	e15a0008 	cmp	sl, r8
    e36c:	e58d9004 	str	r9, [sp, #4]
    e370:	0a00000b 	beq	e3a4 <remove_chain.part.8+0x18c>
    e374:	e5d43004 	ldrb	r3, [r4, #4]
    e378:	e2849034 	add	r9, r4, #52	; 0x34
    e37c:	e3530000 	cmp	r3, #0
    e380:	1a000096 	bne	e5e0 <remove_chain.part.8+0x3c8>
    e384:	e1a01009 	mov	r1, r9
    e388:	e5d40001 	ldrb	r0, [r4, #1]
    e38c:	e1a0200a 	mov	r2, sl
    e390:	e3a03001 	mov	r3, #1
    e394:	eb00256e 	bl	17954 <disk_read>
    e398:	e3500000 	cmp	r0, #0
    e39c:	1affffae 	bne	e25c <remove_chain.part.8+0x44>
    e3a0:	e584a030 	str	sl, [r4, #48]	; 0x30
    e3a4:	e1a03b8b 	lsl	r3, fp, #23
    e3a8:	e0843ba3 	add	r3, r4, r3, lsr #23
    e3ac:	e5d33034 	ldrb	r3, [r3, #52]	; 0x34
    e3b0:	e59d2004 	ldr	r2, [sp, #4]
    e3b4:	e3150001 	tst	r5, #1
    e3b8:	e1823403 	orr	r3, r2, r3, lsl #8
    e3bc:	01a03a03 	lsleq	r3, r3, #20
    e3c0:	11a06223 	lsrne	r6, r3, #4
    e3c4:	01a06a23 	lsreq	r6, r3, #20
    e3c8:	e3560000 	cmp	r6, #0
    e3cc:	1affffc4 	bne	e2e4 <remove_chain.part.8+0xcc>
    e3d0:	e3a00000 	mov	r0, #0
    e3d4:	eaffffa1 	b	e260 <remove_chain.part.8+0x48>
    e3d8:	e5948024 	ldr	r8, [r4, #36]	; 0x24
    e3dc:	e5946030 	ldr	r6, [r4, #48]	; 0x30
    e3e0:	e0888425 	add	r8, r8, r5, lsr #8
    e3e4:	e1580006 	cmp	r8, r6
    e3e8:	0a00000b 	beq	e41c <remove_chain.part.8+0x204>
    e3ec:	e5d43004 	ldrb	r3, [r4, #4]
    e3f0:	e2849034 	add	r9, r4, #52	; 0x34
    e3f4:	e3530000 	cmp	r3, #0
    e3f8:	1a00003a 	bne	e4e8 <remove_chain.part.8+0x2d0>
    e3fc:	e1a01009 	mov	r1, r9
    e400:	e5d40001 	ldrb	r0, [r4, #1]
    e404:	e1a02008 	mov	r2, r8
    e408:	e3a03001 	mov	r3, #1
    e40c:	eb002550 	bl	17954 <disk_read>
    e410:	e3500000 	cmp	r0, #0
    e414:	1affff90 	bne	e25c <remove_chain.part.8+0x44>
    e418:	e5848030 	str	r8, [r4, #48]	; 0x30
    e41c:	e59f3234 	ldr	r3, [pc, #564]	; e658 <remove_chain.part.8+0x440>
    e420:	e1a02085 	lsl	r2, r5, #1
    e424:	e0023003 	and	r3, r2, r3
    e428:	e0842003 	add	r2, r4, r3
    e42c:	e1a03002 	mov	r3, r2
    e430:	e5d36035 	ldrb	r6, [r3, #53]	; 0x35
    e434:	e5d22034 	ldrb	r2, [r2, #52]	; 0x34
    e438:	e1826406 	orr	r6, r2, r6, lsl #8
    e43c:	eaffffa6 	b	e2dc <remove_chain.part.8+0xc4>
    e440:	e1a01005 	mov	r1, r5
    e444:	e1a00004 	mov	r0, r4
    e448:	e3a02000 	mov	r2, #0
    e44c:	ebfffe70 	bl	de14 <put_fat.part.6>
    e450:	e3500000 	cmp	r0, #0
    e454:	1affff81 	bne	e260 <remove_chain.part.8+0x48>
    e458:	e5943010 	ldr	r3, [r4, #16]
    e45c:	e1a05006 	mov	r5, r6
    e460:	e3730001 	cmn	r3, #1
    e464:	12833001 	addne	r3, r3, #1
    e468:	15843010 	strne	r3, [r4, #16]
    e46c:	15c47005 	strbne	r7, [r4, #5]
    e470:	eaffff6d 	b	e22c <remove_chain.part.8+0x14>
    e474:	e1a0100a 	mov	r1, sl
    e478:	e5d40001 	ldrb	r0, [r4, #1]
    e47c:	e1a02006 	mov	r2, r6
    e480:	eb002551 	bl	179cc <disk_write>
    e484:	e3500000 	cmp	r0, #0
    e488:	1affff73 	bne	e25c <remove_chain.part.8+0x44>
    e48c:	e5942024 	ldr	r2, [r4, #36]	; 0x24
    e490:	e5c40004 	strb	r0, [r4, #4]
    e494:	e1560002 	cmp	r6, r2
    e498:	3affffa3 	bcc	e32c <remove_chain.part.8+0x114>
    e49c:	e594301c 	ldr	r3, [r4, #28]
    e4a0:	e0832002 	add	r2, r3, r2
    e4a4:	e1560002 	cmp	r6, r2
    e4a8:	2affff9f 	bcs	e32c <remove_chain.part.8+0x114>
    e4ac:	e5d4b003 	ldrb	fp, [r4, #3]
    e4b0:	e35b0001 	cmp	fp, #1
    e4b4:	8a000001 	bhi	e4c0 <remove_chain.part.8+0x2a8>
    e4b8:	eaffff9b 	b	e32c <remove_chain.part.8+0x114>
    e4bc:	e594301c 	ldr	r3, [r4, #28]
    e4c0:	e0866003 	add	r6, r6, r3
    e4c4:	e24bb001 	sub	fp, fp, #1
    e4c8:	e1a02006 	mov	r2, r6
    e4cc:	e5d40001 	ldrb	r0, [r4, #1]
    e4d0:	e1a0100a 	mov	r1, sl
    e4d4:	e3a03001 	mov	r3, #1
    e4d8:	eb00253b 	bl	179cc <disk_write>
    e4dc:	e35b0001 	cmp	fp, #1
    e4e0:	1afffff5 	bne	e4bc <remove_chain.part.8+0x2a4>
    e4e4:	eaffff90 	b	e32c <remove_chain.part.8+0x114>
    e4e8:	e1a01009 	mov	r1, r9
    e4ec:	e5d40001 	ldrb	r0, [r4, #1]
    e4f0:	e1a02006 	mov	r2, r6
    e4f4:	e3a03001 	mov	r3, #1
    e4f8:	eb002533 	bl	179cc <disk_write>
    e4fc:	e3500000 	cmp	r0, #0
    e500:	1affff55 	bne	e25c <remove_chain.part.8+0x44>
    e504:	e5942024 	ldr	r2, [r4, #36]	; 0x24
    e508:	e5c40004 	strb	r0, [r4, #4]
    e50c:	e1560002 	cmp	r6, r2
    e510:	3affffb9 	bcc	e3fc <remove_chain.part.8+0x1e4>
    e514:	e594301c 	ldr	r3, [r4, #28]
    e518:	e0832002 	add	r2, r3, r2
    e51c:	e1560002 	cmp	r6, r2
    e520:	2affffb5 	bcs	e3fc <remove_chain.part.8+0x1e4>
    e524:	e5d4a003 	ldrb	sl, [r4, #3]
    e528:	e35a0001 	cmp	sl, #1
    e52c:	8a000001 	bhi	e538 <remove_chain.part.8+0x320>
    e530:	eaffffb1 	b	e3fc <remove_chain.part.8+0x1e4>
    e534:	e594301c 	ldr	r3, [r4, #28]
    e538:	e0866003 	add	r6, r6, r3
    e53c:	e24aa001 	sub	sl, sl, #1
    e540:	e1a02006 	mov	r2, r6
    e544:	e5d40001 	ldrb	r0, [r4, #1]
    e548:	e1a01009 	mov	r1, r9
    e54c:	e3a03001 	mov	r3, #1
    e550:	eb00251d 	bl	179cc <disk_write>
    e554:	e35a0001 	cmp	sl, #1
    e558:	1afffff5 	bne	e534 <remove_chain.part.8+0x31c>
    e55c:	eaffffa6 	b	e3fc <remove_chain.part.8+0x1e4>
    e560:	e1a01009 	mov	r1, r9
    e564:	e5d40001 	ldrb	r0, [r4, #1]
    e568:	e1a02006 	mov	r2, r6
    e56c:	e3a03001 	mov	r3, #1
    e570:	eb002515 	bl	179cc <disk_write>
    e574:	e3500000 	cmp	r0, #0
    e578:	1affff37 	bne	e25c <remove_chain.part.8+0x44>
    e57c:	e5942024 	ldr	r2, [r4, #36]	; 0x24
    e580:	e5c40004 	strb	r0, [r4, #4]
    e584:	e1560002 	cmp	r6, r2
    e588:	3affff3f 	bcc	e28c <remove_chain.part.8+0x74>
    e58c:	e594301c 	ldr	r3, [r4, #28]
    e590:	e0832002 	add	r2, r3, r2
    e594:	e1560002 	cmp	r6, r2
    e598:	2affff3b 	bcs	e28c <remove_chain.part.8+0x74>
    e59c:	e5d4a003 	ldrb	sl, [r4, #3]
    e5a0:	e35a0001 	cmp	sl, #1
    e5a4:	8a000001 	bhi	e5b0 <remove_chain.part.8+0x398>
    e5a8:	eaffff37 	b	e28c <remove_chain.part.8+0x74>
    e5ac:	e594301c 	ldr	r3, [r4, #28]
    e5b0:	e0866003 	add	r6, r6, r3
    e5b4:	e24aa001 	sub	sl, sl, #1
    e5b8:	e1a02006 	mov	r2, r6
    e5bc:	e5d40001 	ldrb	r0, [r4, #1]
    e5c0:	e1a01009 	mov	r1, r9
    e5c4:	e3a03001 	mov	r3, #1
    e5c8:	eb0024ff 	bl	179cc <disk_write>
    e5cc:	e35a0001 	cmp	sl, #1
    e5d0:	1afffff5 	bne	e5ac <remove_chain.part.8+0x394>
    e5d4:	eaffff2c 	b	e28c <remove_chain.part.8+0x74>
    e5d8:	e1a06008 	mov	r6, r8
    e5dc:	eaffff5c 	b	e354 <remove_chain.part.8+0x13c>
    e5e0:	e1a01009 	mov	r1, r9
    e5e4:	e5d40001 	ldrb	r0, [r4, #1]
    e5e8:	e1a02008 	mov	r2, r8
    e5ec:	e3a03001 	mov	r3, #1
    e5f0:	eb0024f5 	bl	179cc <disk_write>
    e5f4:	e3500000 	cmp	r0, #0
    e5f8:	1affff17 	bne	e25c <remove_chain.part.8+0x44>
    e5fc:	e5942024 	ldr	r2, [r4, #36]	; 0x24
    e600:	e5c40004 	strb	r0, [r4, #4]
    e604:	e1520008 	cmp	r2, r8
    e608:	8affff5d 	bhi	e384 <remove_chain.part.8+0x16c>
    e60c:	e594301c 	ldr	r3, [r4, #28]
    e610:	e0832002 	add	r2, r3, r2
    e614:	e1520008 	cmp	r2, r8
    e618:	9affff59 	bls	e384 <remove_chain.part.8+0x16c>
    e61c:	e5d48003 	ldrb	r8, [r4, #3]
    e620:	e3580001 	cmp	r8, #1
    e624:	8a000001 	bhi	e630 <remove_chain.part.8+0x418>
    e628:	eaffff55 	b	e384 <remove_chain.part.8+0x16c>
    e62c:	e594301c 	ldr	r3, [r4, #28]
    e630:	e0866003 	add	r6, r6, r3
    e634:	e2488001 	sub	r8, r8, #1
    e638:	e1a02006 	mov	r2, r6
    e63c:	e5d40001 	ldrb	r0, [r4, #1]
    e640:	e1a01009 	mov	r1, r9
    e644:	e3a03001 	mov	r3, #1
    e648:	eb0024df 	bl	179cc <disk_write>
    e64c:	e3580001 	cmp	r8, #1
    e650:	1afffff5 	bne	e62c <remove_chain.part.8+0x414>
    e654:	eaffff4a 	b	e384 <remove_chain.part.8+0x16c>
    e658:	000001fe 	strdeq	r0, [r0], -lr

0000e65c <chk_mounted>:
    e65c:	e92d4ff0 	push	{r4, r5, r6, r7, r8, r9, sl, fp, lr}
    e660:	e5903000 	ldr	r3, [r0]
    e664:	e24dd00c 	sub	sp, sp, #12
    e668:	e5d3c000 	ldrb	ip, [r3]
    e66c:	e1a05002 	mov	r5, r2
    e670:	e24cc030 	sub	ip, ip, #48	; 0x30
    e674:	e35c0009 	cmp	ip, #9
    e678:	8a000002 	bhi	e688 <chk_mounted+0x2c>
    e67c:	e5d32001 	ldrb	r2, [r3, #1]
    e680:	e352003a 	cmp	r2, #58	; 0x3a
    e684:	0a000015 	beq	e6e0 <chk_mounted+0x84>
    e688:	e3a03000 	mov	r3, #0
    e68c:	e5813000 	str	r3, [r1]
    e690:	e59f6528 	ldr	r6, [pc, #1320]	; ebc0 <chk_mounted+0x564>
    e694:	e5964000 	ldr	r4, [r6]
    e698:	e3540000 	cmp	r4, #0
    e69c:	03a0000c 	moveq	r0, #12
    e6a0:	0a00000c 	beq	e6d8 <chk_mounted+0x7c>
    e6a4:	e5814000 	str	r4, [r1]
    e6a8:	e5d43000 	ldrb	r3, [r4]
    e6ac:	e3530000 	cmp	r3, #0
    e6b0:	0a000013 	beq	e704 <chk_mounted+0xa8>
    e6b4:	e5d40001 	ldrb	r0, [r4, #1]
    e6b8:	eb0024c5 	bl	179d4 <disk_status>
    e6bc:	e3100001 	tst	r0, #1
    e6c0:	1a00000f 	bne	e704 <chk_mounted+0xa8>
    e6c4:	e3550000 	cmp	r5, #0
    e6c8:	01a00005 	moveq	r0, r5
    e6cc:	0a000001 	beq	e6d8 <chk_mounted+0x7c>
    e6d0:	e2100004 	ands	r0, r0, #4
    e6d4:	13a0000a 	movne	r0, #10
    e6d8:	e28dd00c 	add	sp, sp, #12
    e6dc:	e8bd8ff0 	pop	{r4, r5, r6, r7, r8, r9, sl, fp, pc}
    e6e0:	e2833002 	add	r3, r3, #2
    e6e4:	e35c0000 	cmp	ip, #0
    e6e8:	e3a02000 	mov	r2, #0
    e6ec:	e5803000 	str	r3, [r0]
    e6f0:	e5812000 	str	r2, [r1]
    e6f4:	13a0000b 	movne	r0, #11
    e6f8:	0affffe4 	beq	e690 <chk_mounted+0x34>
    e6fc:	e28dd00c 	add	sp, sp, #12
    e700:	e8bd8ff0 	pop	{r4, r5, r6, r7, r8, r9, sl, fp, pc}
    e704:	e3a00000 	mov	r0, #0
    e708:	e5c40000 	strb	r0, [r4]
    e70c:	e5c40001 	strb	r0, [r4, #1]
    e710:	eb00247e 	bl	17910 <disk_initialize>
    e714:	e3100001 	tst	r0, #1
    e718:	13a00003 	movne	r0, #3
    e71c:	1affffed 	bne	e6d8 <chk_mounted+0x7c>
    e720:	e3550000 	cmp	r5, #0
    e724:	0a000002 	beq	e734 <chk_mounted+0xd8>
    e728:	e3100004 	tst	r0, #4
    e72c:	13a0000a 	movne	r0, #10
    e730:	1affffe8 	bne	e6d8 <chk_mounted+0x7c>
    e734:	e2845034 	add	r5, r4, #52	; 0x34
    e738:	e3a03001 	mov	r3, #1
    e73c:	e1a01005 	mov	r1, r5
    e740:	e5d40001 	ldrb	r0, [r4, #1]
    e744:	e3a02000 	mov	r2, #0
    e748:	eb002481 	bl	17954 <disk_read>
    e74c:	e3500000 	cmp	r0, #0
    e750:	13a03003 	movne	r3, #3
    e754:	0a000006 	beq	e774 <chk_mounted+0x118>
    e758:	e3a07000 	mov	r7, #0
    e75c:	e3530003 	cmp	r3, #3
    e760:	0a000034 	beq	e838 <chk_mounted+0x1dc>
    e764:	e3530000 	cmp	r3, #0
    e768:	0a000035 	beq	e844 <chk_mounted+0x1e8>
    e76c:	e3a0000d 	mov	r0, #13
    e770:	eaffffd8 	b	e6d8 <chk_mounted+0x7c>
    e774:	e5d48233 	ldrb	r8, [r4, #563]	; 0x233
    e778:	e5d42232 	ldrb	r2, [r4, #562]	; 0x232
    e77c:	e59f3440 	ldr	r3, [pc, #1088]	; ebc4 <chk_mounted+0x568>
    e780:	e1828408 	orr	r8, r2, r8, lsl #8
    e784:	e6bf8078 	sxth	r8, r8
    e788:	e1580003 	cmp	r8, r3
    e78c:	13a03002 	movne	r3, #2
    e790:	1afffff0 	bne	e758 <chk_mounted+0xfc>
    e794:	e5d4206c 	ldrb	r2, [r4, #108]	; 0x6c
    e798:	e5d4106d 	ldrb	r1, [r4, #109]	; 0x6d
    e79c:	e1a02802 	lsl	r2, r2, #16
    e7a0:	e5d4306a 	ldrb	r3, [r4, #106]	; 0x6a
    e7a4:	e1821c01 	orr	r1, r2, r1, lsl #24
    e7a8:	e5d4206b 	ldrb	r2, [r4, #107]	; 0x6b
    e7ac:	e1813003 	orr	r3, r1, r3
    e7b0:	e1833402 	orr	r3, r3, r2, lsl #8
    e7b4:	e59f940c 	ldr	r9, [pc, #1036]	; ebc8 <chk_mounted+0x56c>
    e7b8:	e3c334ff 	bic	r3, r3, #-16777216	; 0xff000000
    e7bc:	e1530009 	cmp	r3, r9
    e7c0:	0a0000a9 	beq	ea6c <chk_mounted+0x410>
    e7c4:	e5d42088 	ldrb	r2, [r4, #136]	; 0x88
    e7c8:	e5d41089 	ldrb	r1, [r4, #137]	; 0x89
    e7cc:	e1a02802 	lsl	r2, r2, #16
    e7d0:	e5d43086 	ldrb	r3, [r4, #134]	; 0x86
    e7d4:	e1821c01 	orr	r1, r2, r1, lsl #24
    e7d8:	e5d42087 	ldrb	r2, [r4, #135]	; 0x87
    e7dc:	e1813003 	orr	r3, r1, r3
    e7e0:	e1833402 	orr	r3, r3, r2, lsl #8
    e7e4:	e3c334ff 	bic	r3, r3, #-16777216	; 0xff000000
    e7e8:	e1530009 	cmp	r3, r9
    e7ec:	0a000013 	beq	e840 <chk_mounted+0x1e4>
    e7f0:	e5d421f6 	ldrb	r2, [r4, #502]	; 0x1f6
    e7f4:	e3520000 	cmp	r2, #0
    e7f8:	0affffdb 	beq	e76c <chk_mounted+0x110>
    e7fc:	e5d421fc 	ldrb	r2, [r4, #508]	; 0x1fc
    e800:	e5d411fd 	ldrb	r1, [r4, #509]	; 0x1fd
    e804:	e5d431fa 	ldrb	r3, [r4, #506]	; 0x1fa
    e808:	e1a02802 	lsl	r2, r2, #16
    e80c:	e1822c01 	orr	r2, r2, r1, lsl #24
    e810:	e5d471fb 	ldrb	r7, [r4, #507]	; 0x1fb
    e814:	e1823003 	orr	r3, r2, r3
    e818:	e1837407 	orr	r7, r3, r7, lsl #8
    e81c:	e1a02007 	mov	r2, r7
    e820:	e5d40001 	ldrb	r0, [r4, #1]
    e824:	e1a01005 	mov	r1, r5
    e828:	e3a03001 	mov	r3, #1
    e82c:	eb002448 	bl	17954 <disk_read>
    e830:	e3500000 	cmp	r0, #0
    e834:	0a00006f 	beq	e9f8 <chk_mounted+0x39c>
    e838:	e3a00001 	mov	r0, #1
    e83c:	eaffffa5 	b	e6d8 <chk_mounted+0x7c>
    e840:	e1a07000 	mov	r7, r0
    e844:	e5d42040 	ldrb	r2, [r4, #64]	; 0x40
    e848:	e5d4303f 	ldrb	r3, [r4, #63]	; 0x3f
    e84c:	e1833402 	orr	r3, r3, r2, lsl #8
    e850:	e3530c02 	cmp	r3, #512	; 0x200
    e854:	1affffc4 	bne	e76c <chk_mounted+0x110>
    e858:	e5d4a04b 	ldrb	sl, [r4, #75]	; 0x4b
    e85c:	e5d4304a 	ldrb	r3, [r4, #74]	; 0x4a
    e860:	e193a40a 	orrs	sl, r3, sl, lsl #8
    e864:	1a000007 	bne	e888 <chk_mounted+0x22c>
    e868:	e5d4205a 	ldrb	r2, [r4, #90]	; 0x5a
    e86c:	e5d4105b 	ldrb	r1, [r4, #91]	; 0x5b
    e870:	e1a02802 	lsl	r2, r2, #16
    e874:	e5d43058 	ldrb	r3, [r4, #88]	; 0x58
    e878:	e1822c01 	orr	r2, r2, r1, lsl #24
    e87c:	e5d4a059 	ldrb	sl, [r4, #89]	; 0x59
    e880:	e1823003 	orr	r3, r2, r3
    e884:	e183a40a 	orr	sl, r3, sl, lsl #8
    e888:	e5d42044 	ldrb	r2, [r4, #68]	; 0x44
    e88c:	e584a01c 	str	sl, [r4, #28]
    e890:	e2423001 	sub	r3, r2, #1
    e894:	e3530001 	cmp	r3, #1
    e898:	e5c42003 	strb	r2, [r4, #3]
    e89c:	8affffb2 	bhi	e76c <chk_mounted+0x110>
    e8a0:	e5d41041 	ldrb	r1, [r4, #65]	; 0x41
    e8a4:	e3510000 	cmp	r1, #0
    e8a8:	e5c41002 	strb	r1, [r4, #2]
    e8ac:	0affffae 	beq	e76c <chk_mounted+0x110>
    e8b0:	e2413001 	sub	r3, r1, #1
    e8b4:	e1130001 	tst	r3, r1
    e8b8:	1affffab 	bne	e76c <chk_mounted+0x110>
    e8bc:	e5d49046 	ldrb	r9, [r4, #70]	; 0x46
    e8c0:	e5d43045 	ldrb	r3, [r4, #69]	; 0x45
    e8c4:	e1839409 	orr	r9, r3, r9, lsl #8
    e8c8:	e319000f 	tst	r9, #15
    e8cc:	e1c490b8 	strh	r9, [r4, #8]
    e8d0:	1affffa5 	bne	e76c <chk_mounted+0x110>
    e8d4:	e5d40048 	ldrb	r0, [r4, #72]	; 0x48
    e8d8:	e5d43047 	ldrb	r3, [r4, #71]	; 0x47
    e8dc:	e1930400 	orrs	r0, r3, r0, lsl #8
    e8e0:	1a000007 	bne	e904 <chk_mounted+0x2a8>
    e8e4:	e5d40056 	ldrb	r0, [r4, #86]	; 0x56
    e8e8:	e5d4c057 	ldrb	ip, [r4, #87]	; 0x57
    e8ec:	e1a00800 	lsl	r0, r0, #16
    e8f0:	e5d43054 	ldrb	r3, [r4, #84]	; 0x54
    e8f4:	e180cc0c 	orr	ip, r0, ip, lsl #24
    e8f8:	e5d40055 	ldrb	r0, [r4, #85]	; 0x55
    e8fc:	e18c3003 	orr	r3, ip, r3
    e900:	e1830400 	orr	r0, r3, r0, lsl #8
    e904:	e5d4c043 	ldrb	ip, [r4, #67]	; 0x43
    e908:	e5d43042 	ldrb	r3, [r4, #66]	; 0x42
    e90c:	e193340c 	orrs	r3, r3, ip, lsl #8
    e910:	0affff95 	beq	e76c <chk_mounted+0x110>
    e914:	e0020a92 	mul	r2, r2, sl
    e918:	e083b229 	add	fp, r3, r9, lsr #4
    e91c:	e08bb002 	add	fp, fp, r2
    e920:	e150000b 	cmp	r0, fp
    e924:	3affff90 	bcc	e76c <chk_mounted+0x110>
    e928:	e06b0000 	rsb	r0, fp, r0
    e92c:	e58d2004 	str	r2, [sp, #4]
    e930:	e58d3000 	str	r3, [sp]
    e934:	eb0036d3 	bl	1c488 <__aeabi_uidiv>
    e938:	e2501000 	subs	r1, r0, #0
    e93c:	e59d2004 	ldr	r2, [sp, #4]
    e940:	e59d3000 	ldr	r3, [sp]
    e944:	0affff88 	beq	e76c <chk_mounted+0x110>
    e948:	e59f027c 	ldr	r0, [pc, #636]	; ebcc <chk_mounted+0x570>
    e94c:	e1510000 	cmp	r1, r0
    e950:	9a000098 	bls	ebb8 <chk_mounted+0x55c>
    e954:	e2800a0f 	add	r0, r0, #61440	; 0xf000
    e958:	e1510000 	cmp	r1, r0
    e95c:	93a08002 	movls	r8, #2
    e960:	8a00007f 	bhi	eb64 <chk_mounted+0x508>
    e964:	e2811002 	add	r1, r1, #2
    e968:	e0873003 	add	r3, r7, r3
    e96c:	e08bb007 	add	fp, fp, r7
    e970:	e3590000 	cmp	r9, #0
    e974:	e5841018 	str	r1, [r4, #24]
    e978:	e5843024 	str	r3, [r4, #36]	; 0x24
    e97c:	e584b02c 	str	fp, [r4, #44]	; 0x2c
    e980:	e5847020 	str	r7, [r4, #32]
    e984:	0affff78 	beq	e76c <chk_mounted+0x110>
    e988:	e3580002 	cmp	r8, #2
    e98c:	e0823003 	add	r3, r2, r3
    e990:	e5843028 	str	r3, [r4, #40]	; 0x28
    e994:	10813081 	addne	r3, r1, r1, lsl #1
    e998:	12011001 	andne	r1, r1, #1
    e99c:	01a01081 	lsleq	r1, r1, #1
    e9a0:	108110a3 	addne	r1, r1, r3, lsr #1
    e9a4:	13a08001 	movne	r8, #1
    e9a8:	e2813f7f 	add	r3, r1, #508	; 0x1fc
    e9ac:	e2833003 	add	r3, r3, #3
    e9b0:	e15a04a3 	cmp	sl, r3, lsr #9
    e9b4:	3affff6c 	bcc	e76c <chk_mounted+0x110>
    e9b8:	e3e02000 	mvn	r2, #0
    e9bc:	e3a03000 	mov	r3, #0
    e9c0:	e3580003 	cmp	r8, #3
    e9c4:	e5842010 	str	r2, [r4, #16]
    e9c8:	e584300c 	str	r3, [r4, #12]
    e9cc:	0a000028 	beq	ea74 <chk_mounted+0x418>
    e9d0:	e1d630b4 	ldrh	r3, [r6, #4]
    e9d4:	e3a00000 	mov	r0, #0
    e9d8:	e2833001 	add	r3, r3, #1
    e9dc:	e6ff3073 	uxth	r3, r3
    e9e0:	e5c48000 	strb	r8, [r4]
    e9e4:	e1c630b4 	strh	r3, [r6, #4]
    e9e8:	e1c430b6 	strh	r3, [r4, #6]
    e9ec:	e5840030 	str	r0, [r4, #48]	; 0x30
    e9f0:	e5c40004 	strb	r0, [r4, #4]
    e9f4:	eaffff37 	b	e6d8 <chk_mounted+0x7c>
    e9f8:	e5d42233 	ldrb	r2, [r4, #563]	; 0x233
    e9fc:	e5d43232 	ldrb	r3, [r4, #562]	; 0x232
    ea00:	e1833402 	orr	r3, r3, r2, lsl #8
    ea04:	e6bf3073 	sxth	r3, r3
    ea08:	e1530008 	cmp	r3, r8
    ea0c:	1affff56 	bne	e76c <chk_mounted+0x110>
    ea10:	e5d4206c 	ldrb	r2, [r4, #108]	; 0x6c
    ea14:	e5d4106d 	ldrb	r1, [r4, #109]	; 0x6d
    ea18:	e1a02802 	lsl	r2, r2, #16
    ea1c:	e5d4306a 	ldrb	r3, [r4, #106]	; 0x6a
    ea20:	e1821c01 	orr	r1, r2, r1, lsl #24
    ea24:	e5d4206b 	ldrb	r2, [r4, #107]	; 0x6b
    ea28:	e1813003 	orr	r3, r1, r3
    ea2c:	e1833402 	orr	r3, r3, r2, lsl #8
    ea30:	e3c334ff 	bic	r3, r3, #-16777216	; 0xff000000
    ea34:	e1530009 	cmp	r3, r9
    ea38:	0affff81 	beq	e844 <chk_mounted+0x1e8>
    ea3c:	e5d42088 	ldrb	r2, [r4, #136]	; 0x88
    ea40:	e5d41089 	ldrb	r1, [r4, #137]	; 0x89
    ea44:	e1a02802 	lsl	r2, r2, #16
    ea48:	e5d43086 	ldrb	r3, [r4, #134]	; 0x86
    ea4c:	e1821c01 	orr	r1, r2, r1, lsl #24
    ea50:	e5d42087 	ldrb	r2, [r4, #135]	; 0x87
    ea54:	e1813003 	orr	r3, r1, r3
    ea58:	e1833402 	orr	r3, r3, r2, lsl #8
    ea5c:	e3c334ff 	bic	r3, r3, #-16777216	; 0xff000000
    ea60:	e0533009 	subs	r3, r3, r9
    ea64:	13a03001 	movne	r3, #1
    ea68:	eaffff3b 	b	e75c <chk_mounted+0x100>
    ea6c:	e1a03000 	mov	r3, r0
    ea70:	eaffff38 	b	e758 <chk_mounted+0xfc>
    ea74:	e5d41065 	ldrb	r1, [r4, #101]	; 0x65
    ea78:	e5d42064 	ldrb	r2, [r4, #100]	; 0x64
    ea7c:	e5c43005 	strb	r3, [r4, #5]
    ea80:	e1822401 	orr	r2, r2, r1, lsl #8
    ea84:	e0872002 	add	r2, r7, r2
    ea88:	e1a01005 	mov	r1, r5
    ea8c:	e5842014 	str	r2, [r4, #20]
    ea90:	e5d40001 	ldrb	r0, [r4, #1]
    ea94:	e3a03001 	mov	r3, #1
    ea98:	eb0023ad 	bl	17954 <disk_read>
    ea9c:	e3500000 	cmp	r0, #0
    eaa0:	1affffca 	bne	e9d0 <chk_mounted+0x374>
    eaa4:	e5d41233 	ldrb	r1, [r4, #563]	; 0x233
    eaa8:	e5d42232 	ldrb	r2, [r4, #562]	; 0x232
    eaac:	e59f3110 	ldr	r3, [pc, #272]	; ebc4 <chk_mounted+0x568>
    eab0:	e1822401 	orr	r2, r2, r1, lsl #8
    eab4:	e6bf2072 	sxth	r2, r2
    eab8:	e1520003 	cmp	r2, r3
    eabc:	1affffc3 	bne	e9d0 <chk_mounted+0x374>
    eac0:	e5d42036 	ldrb	r2, [r4, #54]	; 0x36
    eac4:	e5d41037 	ldrb	r1, [r4, #55]	; 0x37
    eac8:	e5d43034 	ldrb	r3, [r4, #52]	; 0x34
    eacc:	e1a02802 	lsl	r2, r2, #16
    ead0:	e1822c01 	orr	r2, r2, r1, lsl #24
    ead4:	e5d41035 	ldrb	r1, [r4, #53]	; 0x35
    ead8:	e1822003 	orr	r2, r2, r3
    eadc:	e59f30ec 	ldr	r3, [pc, #236]	; ebd0 <chk_mounted+0x574>
    eae0:	e1822401 	orr	r2, r2, r1, lsl #8
    eae4:	e1520003 	cmp	r2, r3
    eae8:	1affffb8 	bne	e9d0 <chk_mounted+0x374>
    eaec:	e5d4221a 	ldrb	r2, [r4, #538]	; 0x21a
    eaf0:	e5d4121b 	ldrb	r1, [r4, #539]	; 0x21b
    eaf4:	e5d43218 	ldrb	r3, [r4, #536]	; 0x218
    eaf8:	e1a02802 	lsl	r2, r2, #16
    eafc:	e1822c01 	orr	r2, r2, r1, lsl #24
    eb00:	e5d41219 	ldrb	r1, [r4, #537]	; 0x219
    eb04:	e1822003 	orr	r2, r2, r3
    eb08:	e59f30c4 	ldr	r3, [pc, #196]	; ebd4 <chk_mounted+0x578>
    eb0c:	e1822401 	orr	r2, r2, r1, lsl #8
    eb10:	e1520003 	cmp	r2, r3
    eb14:	1affffad 	bne	e9d0 <chk_mounted+0x374>
    eb18:	e5d40222 	ldrb	r0, [r4, #546]	; 0x222
    eb1c:	e5d4121e 	ldrb	r1, [r4, #542]	; 0x21e
    eb20:	e5d45223 	ldrb	r5, [r4, #547]	; 0x223
    eb24:	e5d4c21f 	ldrb	ip, [r4, #543]	; 0x21f
    eb28:	e1a00800 	lsl	r0, r0, #16
    eb2c:	e1a01801 	lsl	r1, r1, #16
    eb30:	e5d42220 	ldrb	r2, [r4, #544]	; 0x220
    eb34:	e5d4321c 	ldrb	r3, [r4, #540]	; 0x21c
    eb38:	e1805c05 	orr	r5, r0, r5, lsl #24
    eb3c:	e181cc0c 	orr	ip, r1, ip, lsl #24
    eb40:	e5d40221 	ldrb	r0, [r4, #545]	; 0x221
    eb44:	e5d4121d 	ldrb	r1, [r4, #541]	; 0x21d
    eb48:	e1852002 	orr	r2, r5, r2
    eb4c:	e18c3003 	orr	r3, ip, r3
    eb50:	e1822400 	orr	r2, r2, r0, lsl #8
    eb54:	e1833401 	orr	r3, r3, r1, lsl #8
    eb58:	e584200c 	str	r2, [r4, #12]
    eb5c:	e5843010 	str	r3, [r4, #16]
    eb60:	eaffff9a 	b	e9d0 <chk_mounted+0x374>
    eb64:	e2811002 	add	r1, r1, #2
    eb68:	e0873003 	add	r3, r7, r3
    eb6c:	e08bb007 	add	fp, fp, r7
    eb70:	e3590000 	cmp	r9, #0
    eb74:	e5841018 	str	r1, [r4, #24]
    eb78:	e5843024 	str	r3, [r4, #36]	; 0x24
    eb7c:	e584b02c 	str	fp, [r4, #44]	; 0x2c
    eb80:	e5847020 	str	r7, [r4, #32]
    eb84:	1afffef8 	bne	e76c <chk_mounted+0x110>
    eb88:	e5d42062 	ldrb	r2, [r4, #98]	; 0x62
    eb8c:	e5d40063 	ldrb	r0, [r4, #99]	; 0x63
    eb90:	e1a02802 	lsl	r2, r2, #16
    eb94:	e5d43060 	ldrb	r3, [r4, #96]	; 0x60
    eb98:	e1820c00 	orr	r0, r2, r0, lsl #24
    eb9c:	e5d42061 	ldrb	r2, [r4, #97]	; 0x61
    eba0:	e1803003 	orr	r3, r0, r3
    eba4:	e1833402 	orr	r3, r3, r2, lsl #8
    eba8:	e1a01101 	lsl	r1, r1, #2
    ebac:	e5843028 	str	r3, [r4, #40]	; 0x28
    ebb0:	e3a08003 	mov	r8, #3
    ebb4:	eaffff7b 	b	e9a8 <chk_mounted+0x34c>
    ebb8:	e3a08001 	mov	r8, #1
    ebbc:	eaffff68 	b	e964 <chk_mounted+0x308>
    ebc0:	000217dc 	ldrdeq	r1, [r2], -ip
    ebc4:	ffffaa55 			; <UNDEFINED> instruction: 0xffffaa55
    ebc8:	00544146 	subseq	r4, r4, r6, asr #2
    ebcc:	00000ff5 	strdeq	r0, [r0], -r5
    ebd0:	41615252 	cmnmi	r1, r2, asr r2
    ebd4:	61417272 	hvcvs	5922	; 0x1722

0000ebd8 <get_fat.part.5>:
    ebd8:	e92d4ff8 	push	{r3, r4, r5, r6, r7, r8, r9, sl, fp, lr}
    ebdc:	e5d03000 	ldrb	r3, [r0]
    ebe0:	e1a04000 	mov	r4, r0
    ebe4:	e3530002 	cmp	r3, #2
    ebe8:	e1a05001 	mov	r5, r1
    ebec:	0a000054 	beq	ed44 <get_fat.part.5+0x16c>
    ebf0:	e3530003 	cmp	r3, #3
    ebf4:	0a000033 	beq	ecc8 <get_fat.part.5+0xf0>
    ebf8:	e3530001 	cmp	r3, #1
    ebfc:	0a000001 	beq	ec08 <get_fat.part.5+0x30>
    ec00:	e3e00000 	mvn	r0, #0
    ec04:	e8bd8ff8 	pop	{r3, r4, r5, r6, r7, r8, r9, sl, fp, pc}
    ec08:	e5901024 	ldr	r1, [r0, #36]	; 0x24
    ec0c:	e08580a5 	add	r8, r5, r5, lsr #1
    ec10:	e5906030 	ldr	r6, [r0, #48]	; 0x30
    ec14:	e08174a8 	add	r7, r1, r8, lsr #9
    ec18:	e1570006 	cmp	r7, r6
    ec1c:	0a0000bb 	beq	ef10 <get_fat.part.5+0x338>
    ec20:	e5d02004 	ldrb	r2, [r0, #4]
    ec24:	e2809034 	add	r9, r0, #52	; 0x34
    ec28:	e3520000 	cmp	r2, #0
    ec2c:	1a00009a 	bne	ee9c <get_fat.part.5+0x2c4>
    ec30:	e1a01009 	mov	r1, r9
    ec34:	e5d40001 	ldrb	r0, [r4, #1]
    ec38:	e1a02007 	mov	r2, r7
    ec3c:	e3a03001 	mov	r3, #1
    ec40:	eb002343 	bl	17954 <disk_read>
    ec44:	e3500000 	cmp	r0, #0
    ec48:	1affffec 	bne	ec00 <get_fat.part.5+0x28>
    ec4c:	e5941024 	ldr	r1, [r4, #36]	; 0x24
    ec50:	e5847030 	str	r7, [r4, #48]	; 0x30
    ec54:	e1a06007 	mov	r6, r7
    ec58:	e288a001 	add	sl, r8, #1
    ec5c:	e08194aa 	add	r9, r1, sl, lsr #9
    ec60:	e1a08b88 	lsl	r8, r8, #23
    ec64:	e0848ba8 	add	r8, r4, r8, lsr #23
    ec68:	e1590007 	cmp	r9, r7
    ec6c:	e5d8b034 	ldrb	fp, [r8, #52]	; 0x34
    ec70:	0a00000b 	beq	eca4 <get_fat.part.5+0xcc>
    ec74:	e5d43004 	ldrb	r3, [r4, #4]
    ec78:	e2848034 	add	r8, r4, #52	; 0x34
    ec7c:	e3530000 	cmp	r3, #0
    ec80:	1a0000a4 	bne	ef18 <get_fat.part.5+0x340>
    ec84:	e1a01008 	mov	r1, r8
    ec88:	e5d40001 	ldrb	r0, [r4, #1]
    ec8c:	e1a02009 	mov	r2, r9
    ec90:	e3a03001 	mov	r3, #1
    ec94:	eb00232e 	bl	17954 <disk_read>
    ec98:	e3500000 	cmp	r0, #0
    ec9c:	1affffd7 	bne	ec00 <get_fat.part.5+0x28>
    eca0:	e5849030 	str	r9, [r4, #48]	; 0x30
    eca4:	e1a0ab8a 	lsl	sl, sl, #23
    eca8:	e0844baa 	add	r4, r4, sl, lsr #23
    ecac:	e5d43034 	ldrb	r3, [r4, #52]	; 0x34
    ecb0:	e3150001 	tst	r5, #1
    ecb4:	e18b3403 	orr	r3, fp, r3, lsl #8
    ecb8:	01a03a03 	lsleq	r3, r3, #20
    ecbc:	11a00223 	lsrne	r0, r3, #4
    ecc0:	01a00a23 	lsreq	r0, r3, #20
    ecc4:	e8bd8ff8 	pop	{r3, r4, r5, r6, r7, r8, r9, sl, fp, pc}
    ecc8:	e5907024 	ldr	r7, [r0, #36]	; 0x24
    eccc:	e5906030 	ldr	r6, [r0, #48]	; 0x30
    ecd0:	e08773a1 	add	r7, r7, r1, lsr #7
    ecd4:	e1570006 	cmp	r7, r6
    ecd8:	0a00000b 	beq	ed0c <get_fat.part.5+0x134>
    ecdc:	e5d03004 	ldrb	r3, [r0, #4]
    ece0:	e2808034 	add	r8, r0, #52	; 0x34
    ece4:	e3530000 	cmp	r3, #0
    ece8:	1a00004d 	bne	ee24 <get_fat.part.5+0x24c>
    ecec:	e1a01008 	mov	r1, r8
    ecf0:	e5d40001 	ldrb	r0, [r4, #1]
    ecf4:	e1a02007 	mov	r2, r7
    ecf8:	e3a03001 	mov	r3, #1
    ecfc:	eb002314 	bl	17954 <disk_read>
    ed00:	e3500000 	cmp	r0, #0
    ed04:	1affffbd 	bne	ec00 <get_fat.part.5+0x28>
    ed08:	e5847030 	str	r7, [r4, #48]	; 0x30
    ed0c:	e1a05105 	lsl	r5, r5, #2
    ed10:	e2055f7f 	and	r5, r5, #508	; 0x1fc
    ed14:	e0843005 	add	r3, r4, r5
    ed18:	e5d30037 	ldrb	r0, [r3, #55]	; 0x37
    ed1c:	e5d31036 	ldrb	r1, [r3, #54]	; 0x36
    ed20:	e5d32035 	ldrb	r2, [r3, #53]	; 0x35
    ed24:	e1a00c00 	lsl	r0, r0, #24
    ed28:	e1a04003 	mov	r4, r3
    ed2c:	e1800801 	orr	r0, r0, r1, lsl #16
    ed30:	e5d33034 	ldrb	r3, [r3, #52]	; 0x34
    ed34:	e1800402 	orr	r0, r0, r2, lsl #8
    ed38:	e1800003 	orr	r0, r0, r3
    ed3c:	e3c0020f 	bic	r0, r0, #-268435456	; 0xf0000000
    ed40:	e8bd8ff8 	pop	{r3, r4, r5, r6, r7, r8, r9, sl, fp, pc}
    ed44:	e5907024 	ldr	r7, [r0, #36]	; 0x24
    ed48:	e5906030 	ldr	r6, [r0, #48]	; 0x30
    ed4c:	e0877421 	add	r7, r7, r1, lsr #8
    ed50:	e1570006 	cmp	r7, r6
    ed54:	0a00000b 	beq	ed88 <get_fat.part.5+0x1b0>
    ed58:	e5d03004 	ldrb	r3, [r0, #4]
    ed5c:	e2808034 	add	r8, r0, #52	; 0x34
    ed60:	e3530000 	cmp	r3, #0
    ed64:	1a000010 	bne	edac <get_fat.part.5+0x1d4>
    ed68:	e1a01008 	mov	r1, r8
    ed6c:	e5d40001 	ldrb	r0, [r4, #1]
    ed70:	e1a02007 	mov	r2, r7
    ed74:	e3a03001 	mov	r3, #1
    ed78:	eb0022f5 	bl	17954 <disk_read>
    ed7c:	e3500000 	cmp	r0, #0
    ed80:	1affff9e 	bne	ec00 <get_fat.part.5+0x28>
    ed84:	e5847030 	str	r7, [r4, #48]	; 0x30
    ed88:	e59f3200 	ldr	r3, [pc, #512]	; ef90 <get_fat.part.5+0x3b8>
    ed8c:	e1a05085 	lsl	r5, r5, #1
    ed90:	e0053003 	and	r3, r5, r3
    ed94:	e0842003 	add	r2, r4, r3
    ed98:	e1a04002 	mov	r4, r2
    ed9c:	e5d40035 	ldrb	r0, [r4, #53]	; 0x35
    eda0:	e5d22034 	ldrb	r2, [r2, #52]	; 0x34
    eda4:	e1820400 	orr	r0, r2, r0, lsl #8
    eda8:	e8bd8ff8 	pop	{r3, r4, r5, r6, r7, r8, r9, sl, fp, pc}
    edac:	e1a01008 	mov	r1, r8
    edb0:	e5d00001 	ldrb	r0, [r0, #1]
    edb4:	e1a02006 	mov	r2, r6
    edb8:	e3a03001 	mov	r3, #1
    edbc:	eb002302 	bl	179cc <disk_write>
    edc0:	e3500000 	cmp	r0, #0
    edc4:	1affff8d 	bne	ec00 <get_fat.part.5+0x28>
    edc8:	e5942024 	ldr	r2, [r4, #36]	; 0x24
    edcc:	e5c40004 	strb	r0, [r4, #4]
    edd0:	e1560002 	cmp	r6, r2
    edd4:	3affffe3 	bcc	ed68 <get_fat.part.5+0x190>
    edd8:	e594301c 	ldr	r3, [r4, #28]
    eddc:	e0832002 	add	r2, r3, r2
    ede0:	e1560002 	cmp	r6, r2
    ede4:	2affffdf 	bcs	ed68 <get_fat.part.5+0x190>
    ede8:	e5d49003 	ldrb	r9, [r4, #3]
    edec:	e3590001 	cmp	r9, #1
    edf0:	8a000001 	bhi	edfc <get_fat.part.5+0x224>
    edf4:	eaffffdb 	b	ed68 <get_fat.part.5+0x190>
    edf8:	e594301c 	ldr	r3, [r4, #28]
    edfc:	e0866003 	add	r6, r6, r3
    ee00:	e2499001 	sub	r9, r9, #1
    ee04:	e1a02006 	mov	r2, r6
    ee08:	e5d40001 	ldrb	r0, [r4, #1]
    ee0c:	e1a01008 	mov	r1, r8
    ee10:	e3a03001 	mov	r3, #1
    ee14:	eb0022ec 	bl	179cc <disk_write>
    ee18:	e3590001 	cmp	r9, #1
    ee1c:	1afffff5 	bne	edf8 <get_fat.part.5+0x220>
    ee20:	eaffffd0 	b	ed68 <get_fat.part.5+0x190>
    ee24:	e1a01008 	mov	r1, r8
    ee28:	e5d00001 	ldrb	r0, [r0, #1]
    ee2c:	e1a02006 	mov	r2, r6
    ee30:	e3a03001 	mov	r3, #1
    ee34:	eb0022e4 	bl	179cc <disk_write>
    ee38:	e3500000 	cmp	r0, #0
    ee3c:	1affff6f 	bne	ec00 <get_fat.part.5+0x28>
    ee40:	e5942024 	ldr	r2, [r4, #36]	; 0x24
    ee44:	e5c40004 	strb	r0, [r4, #4]
    ee48:	e1560002 	cmp	r6, r2
    ee4c:	3affffa6 	bcc	ecec <get_fat.part.5+0x114>
    ee50:	e594301c 	ldr	r3, [r4, #28]
    ee54:	e0832002 	add	r2, r3, r2
    ee58:	e1560002 	cmp	r6, r2
    ee5c:	2affffa2 	bcs	ecec <get_fat.part.5+0x114>
    ee60:	e5d49003 	ldrb	r9, [r4, #3]
    ee64:	e3590001 	cmp	r9, #1
    ee68:	8a000001 	bhi	ee74 <get_fat.part.5+0x29c>
    ee6c:	eaffff9e 	b	ecec <get_fat.part.5+0x114>
    ee70:	e594301c 	ldr	r3, [r4, #28]
    ee74:	e0866003 	add	r6, r6, r3
    ee78:	e2499001 	sub	r9, r9, #1
    ee7c:	e1a02006 	mov	r2, r6
    ee80:	e5d40001 	ldrb	r0, [r4, #1]
    ee84:	e1a01008 	mov	r1, r8
    ee88:	e3a03001 	mov	r3, #1
    ee8c:	eb0022ce 	bl	179cc <disk_write>
    ee90:	e3590001 	cmp	r9, #1
    ee94:	1afffff5 	bne	ee70 <get_fat.part.5+0x298>
    ee98:	eaffff93 	b	ecec <get_fat.part.5+0x114>
    ee9c:	e1a01009 	mov	r1, r9
    eea0:	e5d00001 	ldrb	r0, [r0, #1]
    eea4:	e1a02006 	mov	r2, r6
    eea8:	eb0022c7 	bl	179cc <disk_write>
    eeac:	e3500000 	cmp	r0, #0
    eeb0:	1affff52 	bne	ec00 <get_fat.part.5+0x28>
    eeb4:	e5942024 	ldr	r2, [r4, #36]	; 0x24
    eeb8:	e5c40004 	strb	r0, [r4, #4]
    eebc:	e1560002 	cmp	r6, r2
    eec0:	3affff5a 	bcc	ec30 <get_fat.part.5+0x58>
    eec4:	e594301c 	ldr	r3, [r4, #28]
    eec8:	e0832002 	add	r2, r3, r2
    eecc:	e1560002 	cmp	r6, r2
    eed0:	2affff56 	bcs	ec30 <get_fat.part.5+0x58>
    eed4:	e5d4a003 	ldrb	sl, [r4, #3]
    eed8:	e35a0001 	cmp	sl, #1
    eedc:	8a000001 	bhi	eee8 <get_fat.part.5+0x310>
    eee0:	eaffff52 	b	ec30 <get_fat.part.5+0x58>
    eee4:	e594301c 	ldr	r3, [r4, #28]
    eee8:	e0866003 	add	r6, r6, r3
    eeec:	e24aa001 	sub	sl, sl, #1
    eef0:	e1a02006 	mov	r2, r6
    eef4:	e5d40001 	ldrb	r0, [r4, #1]
    eef8:	e1a01009 	mov	r1, r9
    eefc:	e3a03001 	mov	r3, #1
    ef00:	eb0022b1 	bl	179cc <disk_write>
    ef04:	e35a0001 	cmp	sl, #1
    ef08:	1afffff5 	bne	eee4 <get_fat.part.5+0x30c>
    ef0c:	eaffff47 	b	ec30 <get_fat.part.5+0x58>
    ef10:	e1a06007 	mov	r6, r7
    ef14:	eaffff4f 	b	ec58 <get_fat.part.5+0x80>
    ef18:	e1a01008 	mov	r1, r8
    ef1c:	e5d40001 	ldrb	r0, [r4, #1]
    ef20:	e1a02007 	mov	r2, r7
    ef24:	e3a03001 	mov	r3, #1
    ef28:	eb0022a7 	bl	179cc <disk_write>
    ef2c:	e3500000 	cmp	r0, #0
    ef30:	1affff32 	bne	ec00 <get_fat.part.5+0x28>
    ef34:	e5942024 	ldr	r2, [r4, #36]	; 0x24
    ef38:	e5c40004 	strb	r0, [r4, #4]
    ef3c:	e1520007 	cmp	r2, r7
    ef40:	8affff4f 	bhi	ec84 <get_fat.part.5+0xac>
    ef44:	e594301c 	ldr	r3, [r4, #28]
    ef48:	e0832002 	add	r2, r3, r2
    ef4c:	e1520007 	cmp	r2, r7
    ef50:	9affff4b 	bls	ec84 <get_fat.part.5+0xac>
    ef54:	e5d47003 	ldrb	r7, [r4, #3]
    ef58:	e3570001 	cmp	r7, #1
    ef5c:	8a000001 	bhi	ef68 <get_fat.part.5+0x390>
    ef60:	eaffff47 	b	ec84 <get_fat.part.5+0xac>
    ef64:	e594301c 	ldr	r3, [r4, #28]
    ef68:	e0866003 	add	r6, r6, r3
    ef6c:	e2477001 	sub	r7, r7, #1
    ef70:	e1a02006 	mov	r2, r6
    ef74:	e5d40001 	ldrb	r0, [r4, #1]
    ef78:	e1a01008 	mov	r1, r8
    ef7c:	e3a03001 	mov	r3, #1
    ef80:	eb002291 	bl	179cc <disk_write>
    ef84:	e3570001 	cmp	r7, #1
    ef88:	1afffff5 	bne	ef64 <get_fat.part.5+0x38c>
    ef8c:	eaffff3c 	b	ec84 <get_fat.part.5+0xac>
    ef90:	000001fe 	strdeq	r0, [r0], -lr

0000ef94 <dir_sdi>:
    ef94:	e5903008 	ldr	r3, [r0, #8]
    ef98:	e92d4070 	push	{r4, r5, r6, lr}
    ef9c:	e3530001 	cmp	r3, #1
    efa0:	e1a04000 	mov	r4, r0
    efa4:	e1a05001 	mov	r5, r1
    efa8:	e1c410b6 	strh	r1, [r4, #6]
    efac:	0a000003 	beq	efc0 <dir_sdi+0x2c>
    efb0:	e5900000 	ldr	r0, [r0]
    efb4:	e5902018 	ldr	r2, [r0, #24]
    efb8:	e1530002 	cmp	r3, r2
    efbc:	3a000001 	bcc	efc8 <dir_sdi+0x34>
    efc0:	e3a00002 	mov	r0, #2
    efc4:	e8bd8070 	pop	{r4, r5, r6, pc}
    efc8:	e3530000 	cmp	r3, #0
    efcc:	1a000013 	bne	f020 <dir_sdi+0x8c>
    efd0:	e5d03000 	ldrb	r3, [r0]
    efd4:	e3530003 	cmp	r3, #3
    efd8:	0a00000d 	beq	f014 <dir_sdi+0x80>
    efdc:	e1d020b8 	ldrh	r2, [r0, #8]
    efe0:	e3a03000 	mov	r3, #0
    efe4:	e1520005 	cmp	r2, r5
    efe8:	e584300c 	str	r3, [r4, #12]
    efec:	9afffff3 	bls	efc0 <dir_sdi+0x2c>
    eff0:	e5903028 	ldr	r3, [r0, #40]	; 0x28
    eff4:	e0833225 	add	r3, r3, r5, lsr #4
    eff8:	e5843010 	str	r3, [r4, #16]
    effc:	e205500f 	and	r5, r5, #15
    f000:	e0800285 	add	r0, r0, r5, lsl #5
    f004:	e2800034 	add	r0, r0, #52	; 0x34
    f008:	e5840014 	str	r0, [r4, #20]
    f00c:	e3a00000 	mov	r0, #0
    f010:	e8bd8070 	pop	{r4, r5, r6, pc}
    f014:	e5903028 	ldr	r3, [r0, #40]	; 0x28
    f018:	e3530000 	cmp	r3, #0
    f01c:	0affffee 	beq	efdc <dir_sdi+0x48>
    f020:	e5d06002 	ldrb	r6, [r0, #2]
    f024:	e1a06206 	lsl	r6, r6, #4
    f028:	e1550006 	cmp	r5, r6
    f02c:	3a000018 	bcc	f094 <dir_sdi+0x100>
    f030:	e3530001 	cmp	r3, #1
    f034:	9affffe1 	bls	efc0 <dir_sdi+0x2c>
    f038:	e0665005 	rsb	r5, r6, r5
    f03c:	e1520003 	cmp	r2, r3
    f040:	e6ff5075 	uxth	r5, r5
    f044:	9affffdd 	bls	efc0 <dir_sdi+0x2c>
    f048:	ea000009 	b	f074 <dir_sdi+0xe0>
    f04c:	e3500001 	cmp	r0, #1
    f050:	9affffda 	bls	efc0 <dir_sdi+0x2c>
    f054:	e5940000 	ldr	r0, [r4]
    f058:	e6ff1071 	uxth	r1, r1
    f05c:	e5902018 	ldr	r2, [r0, #24]
    f060:	e1520003 	cmp	r2, r3
    f064:	9affffd5 	bls	efc0 <dir_sdi+0x2c>
    f068:	e1560005 	cmp	r6, r5
    f06c:	8a000008 	bhi	f094 <dir_sdi+0x100>
    f070:	e1a05001 	mov	r5, r1
    f074:	e1a01003 	mov	r1, r3
    f078:	ebfffed6 	bl	ebd8 <get_fat.part.5>
    f07c:	e3700001 	cmn	r0, #1
    f080:	e1a03000 	mov	r3, r0
    f084:	e0661005 	rsb	r1, r6, r5
    f088:	1affffef 	bne	f04c <dir_sdi+0xb8>
    f08c:	e3a00001 	mov	r0, #1
    f090:	e8bd8070 	pop	{r4, r5, r6, pc}
    f094:	e2431002 	sub	r1, r3, #2
    f098:	e2422002 	sub	r2, r2, #2
    f09c:	e1510002 	cmp	r1, r2
    f0a0:	e584300c 	str	r3, [r4, #12]
    f0a4:	35d02002 	ldrbcc	r2, [r0, #2]
    f0a8:	3590302c 	ldrcc	r3, [r0, #44]	; 0x2c
    f0ac:	23a01000 	movcs	r1, #0
    f0b0:	30213192 	mlacc	r1, r2, r1, r3
    f0b4:	e0811225 	add	r1, r1, r5, lsr #4
    f0b8:	e5841010 	str	r1, [r4, #16]
    f0bc:	eaffffce 	b	effc <dir_sdi+0x68>

0000f0c0 <create_chain>:
    f0c0:	e92d4ff0 	push	{r4, r5, r6, r7, r8, r9, sl, fp, lr}
    f0c4:	e2517000 	subs	r7, r1, #0
    f0c8:	e24dd014 	sub	sp, sp, #20
    f0cc:	e1a05000 	mov	r5, r0
    f0d0:	1a000093 	bne	f324 <create_chain+0x264>
    f0d4:	e590600c 	ldr	r6, [r0, #12]
    f0d8:	e5903018 	ldr	r3, [r0, #24]
    f0dc:	e3560000 	cmp	r6, #0
    f0e0:	03a06001 	moveq	r6, #1
    f0e4:	1a00009b 	bne	f358 <create_chain+0x298>
    f0e8:	e1a04006 	mov	r4, r6
    f0ec:	e58d7008 	str	r7, [sp, #8]
    f0f0:	e2844001 	add	r4, r4, #1
    f0f4:	e1540003 	cmp	r4, r3
    f0f8:	3a000006 	bcc	f118 <create_chain+0x58>
    f0fc:	e3560001 	cmp	r6, #1
    f100:	9a00009c 	bls	f378 <create_chain+0x2b8>
    f104:	e3530002 	cmp	r3, #2
    f108:	8a000137 	bhi	f5ec <create_chain+0x52c>
    f10c:	e3a00001 	mov	r0, #1
    f110:	e28dd014 	add	sp, sp, #20
    f114:	e8bd8ff0 	pop	{r4, r5, r6, r7, r8, r9, sl, fp, pc}
    f118:	e3540001 	cmp	r4, #1
    f11c:	9afffffa 	bls	f10c <create_chain+0x4c>
    f120:	e5d53000 	ldrb	r3, [r5]
    f124:	e3530002 	cmp	r3, #2
    f128:	0a00000b 	beq	f15c <create_chain+0x9c>
    f12c:	e3530003 	cmp	r3, #3
    f130:	0a00005d 	beq	f2ac <create_chain+0x1ec>
    f134:	e3530001 	cmp	r3, #1
    f138:	13e00000 	mvnne	r0, #0
    f13c:	0a000045 	beq	f258 <create_chain+0x198>
    f140:	e3700001 	cmn	r0, #1
    f144:	13500001 	cmpne	r0, #1
    f148:	0afffff0 	beq	f110 <create_chain+0x50>
    f14c:	e1560004 	cmp	r6, r4
    f150:	0a000088 	beq	f378 <create_chain+0x2b8>
    f154:	e5953018 	ldr	r3, [r5, #24]
    f158:	eaffffe4 	b	f0f0 <create_chain+0x30>
    f15c:	e5959024 	ldr	r9, [r5, #36]	; 0x24
    f160:	e5958030 	ldr	r8, [r5, #48]	; 0x30
    f164:	e0899424 	add	r9, r9, r4, lsr #8
    f168:	e1590008 	cmp	r9, r8
    f16c:	0a00000b 	beq	f1a0 <create_chain+0xe0>
    f170:	e5d53004 	ldrb	r3, [r5, #4]
    f174:	e285a034 	add	sl, r5, #52	; 0x34
    f178:	e3530000 	cmp	r3, #0
    f17c:	1a0000bd 	bne	f478 <create_chain+0x3b8>
    f180:	e1a0100a 	mov	r1, sl
    f184:	e5d50001 	ldrb	r0, [r5, #1]
    f188:	e1a02009 	mov	r2, r9
    f18c:	e3a03001 	mov	r3, #1
    f190:	eb0021ef 	bl	17954 <disk_read>
    f194:	e3500000 	cmp	r0, #0
    f198:	1a000073 	bne	f36c <create_chain+0x2ac>
    f19c:	e5859030 	str	r9, [r5, #48]	; 0x30
    f1a0:	e59f344c 	ldr	r3, [pc, #1100]	; f5f4 <create_chain+0x534>
    f1a4:	e1a02084 	lsl	r2, r4, #1
    f1a8:	e0023003 	and	r3, r2, r3
    f1ac:	e0852003 	add	r2, r5, r3
    f1b0:	e1a03002 	mov	r3, r2
    f1b4:	e5d30035 	ldrb	r0, [r3, #53]	; 0x35
    f1b8:	e5d22034 	ldrb	r2, [r2, #52]	; 0x34
    f1bc:	e1820400 	orr	r0, r2, r0, lsl #8
    f1c0:	e3500000 	cmp	r0, #0
    f1c4:	1affffdd 	bne	f140 <create_chain+0x80>
    f1c8:	e5953018 	ldr	r3, [r5, #24]
    f1cc:	e59d7008 	ldr	r7, [sp, #8]
    f1d0:	e1530004 	cmp	r3, r4
    f1d4:	9affffcc 	bls	f10c <create_chain+0x4c>
    f1d8:	e1a00005 	mov	r0, r5
    f1dc:	e1a01004 	mov	r1, r4
    f1e0:	e3e0220f 	mvn	r2, #-268435456	; 0xf0000000
    f1e4:	ebfffb0a 	bl	de14 <put_fat.part.6>
    f1e8:	e2703001 	rsbs	r3, r0, #1
    f1ec:	33a03000 	movcc	r3, #0
    f1f0:	e3570000 	cmp	r7, #0
    f1f4:	03a03000 	moveq	r3, #0
    f1f8:	e3530000 	cmp	r3, #0
    f1fc:	0a000008 	beq	f224 <create_chain+0x164>
    f200:	e3570001 	cmp	r7, #1
    f204:	9affffc0 	bls	f10c <create_chain+0x4c>
    f208:	e5953018 	ldr	r3, [r5, #24]
    f20c:	e1570003 	cmp	r7, r3
    f210:	2affffbd 	bcs	f10c <create_chain+0x4c>
    f214:	e1a01007 	mov	r1, r7
    f218:	e1a00005 	mov	r0, r5
    f21c:	e1a02004 	mov	r2, r4
    f220:	ebfffafb 	bl	de14 <put_fat.part.6>
    f224:	e3500000 	cmp	r0, #0
    f228:	1a00004d 	bne	f364 <create_chain+0x2a4>
    f22c:	e5953010 	ldr	r3, [r5, #16]
    f230:	e585400c 	str	r4, [r5, #12]
    f234:	e3730001 	cmn	r3, #1
    f238:	01a00004 	moveq	r0, r4
    f23c:	0affffb3 	beq	f110 <create_chain+0x50>
    f240:	e2433001 	sub	r3, r3, #1
    f244:	e3a02001 	mov	r2, #1
    f248:	e5853010 	str	r3, [r5, #16]
    f24c:	e1a00004 	mov	r0, r4
    f250:	e5c52005 	strb	r2, [r5, #5]
    f254:	eaffffad 	b	f110 <create_chain+0x50>
    f258:	e595a024 	ldr	sl, [r5, #36]	; 0x24
    f25c:	e08470a4 	add	r7, r4, r4, lsr #1
    f260:	e5959030 	ldr	r9, [r5, #48]	; 0x30
    f264:	e08a84a7 	add	r8, sl, r7, lsr #9
    f268:	e1580009 	cmp	r8, r9
    f26c:	0a000044 	beq	f384 <create_chain+0x2c4>
    f270:	e5d52004 	ldrb	r2, [r5, #4]
    f274:	e285a034 	add	sl, r5, #52	; 0x34
    f278:	e3520000 	cmp	r2, #0
    f27c:	1a00009b 	bne	f4f0 <create_chain+0x430>
    f280:	e1a0100a 	mov	r1, sl
    f284:	e5d50001 	ldrb	r0, [r5, #1]
    f288:	e1a02008 	mov	r2, r8
    f28c:	e3a03001 	mov	r3, #1
    f290:	eb0021af 	bl	17954 <disk_read>
    f294:	e3500000 	cmp	r0, #0
    f298:	1a000033 	bne	f36c <create_chain+0x2ac>
    f29c:	e5858030 	str	r8, [r5, #48]	; 0x30
    f2a0:	e595a024 	ldr	sl, [r5, #36]	; 0x24
    f2a4:	e1a09008 	mov	r9, r8
    f2a8:	ea000036 	b	f388 <create_chain+0x2c8>
    f2ac:	e5959024 	ldr	r9, [r5, #36]	; 0x24
    f2b0:	e5958030 	ldr	r8, [r5, #48]	; 0x30
    f2b4:	e08993a4 	add	r9, r9, r4, lsr #7
    f2b8:	e1590008 	cmp	r9, r8
    f2bc:	0a00000b 	beq	f2f0 <create_chain+0x230>
    f2c0:	e5d53004 	ldrb	r3, [r5, #4]
    f2c4:	e285a034 	add	sl, r5, #52	; 0x34
    f2c8:	e3530000 	cmp	r3, #0
    f2cc:	1a00004b 	bne	f400 <create_chain+0x340>
    f2d0:	e1a0100a 	mov	r1, sl
    f2d4:	e5d50001 	ldrb	r0, [r5, #1]
    f2d8:	e1a02009 	mov	r2, r9
    f2dc:	e3a03001 	mov	r3, #1
    f2e0:	eb00219b 	bl	17954 <disk_read>
    f2e4:	e3500000 	cmp	r0, #0
    f2e8:	1a00001f 	bne	f36c <create_chain+0x2ac>
    f2ec:	e5859030 	str	r9, [r5, #48]	; 0x30
    f2f0:	e1a02104 	lsl	r2, r4, #2
    f2f4:	e2022f7f 	and	r2, r2, #508	; 0x1fc
    f2f8:	e0853002 	add	r3, r5, r2
    f2fc:	e5d31037 	ldrb	r1, [r3, #55]	; 0x37
    f300:	e5d3c036 	ldrb	ip, [r3, #54]	; 0x36
    f304:	e5d30035 	ldrb	r0, [r3, #53]	; 0x35
    f308:	e1a01c01 	lsl	r1, r1, #24
    f30c:	e5d33034 	ldrb	r3, [r3, #52]	; 0x34
    f310:	e181280c 	orr	r2, r1, ip, lsl #16
    f314:	e1820400 	orr	r0, r2, r0, lsl #8
    f318:	e1800003 	orr	r0, r0, r3
    f31c:	e3c0020f 	bic	r0, r0, #-268435456	; 0xf0000000
    f320:	eaffffa6 	b	f1c0 <create_chain+0x100>
    f324:	e3570001 	cmp	r7, #1
    f328:	9affff77 	bls	f10c <create_chain+0x4c>
    f32c:	e5903018 	ldr	r3, [r0, #24]
    f330:	e1570003 	cmp	r7, r3
    f334:	2affff74 	bcs	f10c <create_chain+0x4c>
    f338:	ebfffe26 	bl	ebd8 <get_fat.part.5>
    f33c:	e3500001 	cmp	r0, #1
    f340:	9affff71 	bls	f10c <create_chain+0x4c>
    f344:	e5953018 	ldr	r3, [r5, #24]
    f348:	e1530000 	cmp	r3, r0
    f34c:	8affff6f 	bhi	f110 <create_chain+0x50>
    f350:	e1a06007 	mov	r6, r7
    f354:	eaffff63 	b	f0e8 <create_chain+0x28>
    f358:	e1560003 	cmp	r6, r3
    f35c:	23a06001 	movcs	r6, #1
    f360:	eaffff60 	b	f0e8 <create_chain+0x28>
    f364:	e3500001 	cmp	r0, #1
    f368:	1affff67 	bne	f10c <create_chain+0x4c>
    f36c:	e3e00000 	mvn	r0, #0
    f370:	e28dd014 	add	sp, sp, #20
    f374:	e8bd8ff0 	pop	{r4, r5, r6, r7, r8, r9, sl, fp, pc}
    f378:	e3a00000 	mov	r0, #0
    f37c:	e28dd014 	add	sp, sp, #20
    f380:	e8bd8ff0 	pop	{r4, r5, r6, r7, r8, r9, sl, fp, pc}
    f384:	e1a09008 	mov	r9, r8
    f388:	e1a03b87 	lsl	r3, r7, #23
    f38c:	e287b001 	add	fp, r7, #1
    f390:	e0853ba3 	add	r3, r5, r3, lsr #23
    f394:	e08aa4ab 	add	sl, sl, fp, lsr #9
    f398:	e5d33034 	ldrb	r3, [r3, #52]	; 0x34
    f39c:	e15a0008 	cmp	sl, r8
    f3a0:	e58d300c 	str	r3, [sp, #12]
    f3a4:	0a00000b 	beq	f3d8 <create_chain+0x318>
    f3a8:	e5d53004 	ldrb	r3, [r5, #4]
    f3ac:	e285c034 	add	ip, r5, #52	; 0x34
    f3b0:	e3530000 	cmp	r3, #0
    f3b4:	1a00006a 	bne	f564 <create_chain+0x4a4>
    f3b8:	e1a0100c 	mov	r1, ip
    f3bc:	e5d50001 	ldrb	r0, [r5, #1]
    f3c0:	e1a0200a 	mov	r2, sl
    f3c4:	e3a03001 	mov	r3, #1
    f3c8:	eb002161 	bl	17954 <disk_read>
    f3cc:	e3500000 	cmp	r0, #0
    f3d0:	1affffe5 	bne	f36c <create_chain+0x2ac>
    f3d4:	e585a030 	str	sl, [r5, #48]	; 0x30
    f3d8:	e1a03b8b 	lsl	r3, fp, #23
    f3dc:	e0853ba3 	add	r3, r5, r3, lsr #23
    f3e0:	e5d30034 	ldrb	r0, [r3, #52]	; 0x34
    f3e4:	e59d300c 	ldr	r3, [sp, #12]
    f3e8:	e3140001 	tst	r4, #1
    f3ec:	e1830400 	orr	r0, r3, r0, lsl #8
    f3f0:	01a00a00 	lsleq	r0, r0, #20
    f3f4:	11a00220 	lsrne	r0, r0, #4
    f3f8:	01a00a20 	lsreq	r0, r0, #20
    f3fc:	eaffff6f 	b	f1c0 <create_chain+0x100>
    f400:	e1a0100a 	mov	r1, sl
    f404:	e5d50001 	ldrb	r0, [r5, #1]
    f408:	e1a02008 	mov	r2, r8
    f40c:	e3a03001 	mov	r3, #1
    f410:	eb00216d 	bl	179cc <disk_write>
    f414:	e3500000 	cmp	r0, #0
    f418:	1affffd3 	bne	f36c <create_chain+0x2ac>
    f41c:	e5952024 	ldr	r2, [r5, #36]	; 0x24
    f420:	e5c50004 	strb	r0, [r5, #4]
    f424:	e1580002 	cmp	r8, r2
    f428:	3affffa8 	bcc	f2d0 <create_chain+0x210>
    f42c:	e595301c 	ldr	r3, [r5, #28]
    f430:	e0832002 	add	r2, r3, r2
    f434:	e1580002 	cmp	r8, r2
    f438:	2affffa4 	bcs	f2d0 <create_chain+0x210>
    f43c:	e5d5b003 	ldrb	fp, [r5, #3]
    f440:	e35b0001 	cmp	fp, #1
    f444:	8a000001 	bhi	f450 <create_chain+0x390>
    f448:	eaffffa0 	b	f2d0 <create_chain+0x210>
    f44c:	e595301c 	ldr	r3, [r5, #28]
    f450:	e0888003 	add	r8, r8, r3
    f454:	e24bb001 	sub	fp, fp, #1
    f458:	e1a02008 	mov	r2, r8
    f45c:	e5d50001 	ldrb	r0, [r5, #1]
    f460:	e1a0100a 	mov	r1, sl
    f464:	e3a03001 	mov	r3, #1
    f468:	eb002157 	bl	179cc <disk_write>
    f46c:	e35b0001 	cmp	fp, #1
    f470:	1afffff5 	bne	f44c <create_chain+0x38c>
    f474:	eaffff95 	b	f2d0 <create_chain+0x210>
    f478:	e1a0100a 	mov	r1, sl
    f47c:	e5d50001 	ldrb	r0, [r5, #1]
    f480:	e1a02008 	mov	r2, r8
    f484:	e3a03001 	mov	r3, #1
    f488:	eb00214f 	bl	179cc <disk_write>
    f48c:	e3500000 	cmp	r0, #0
    f490:	1affffb5 	bne	f36c <create_chain+0x2ac>
    f494:	e5952024 	ldr	r2, [r5, #36]	; 0x24
    f498:	e5c50004 	strb	r0, [r5, #4]
    f49c:	e1580002 	cmp	r8, r2
    f4a0:	3affff36 	bcc	f180 <create_chain+0xc0>
    f4a4:	e595301c 	ldr	r3, [r5, #28]
    f4a8:	e0832002 	add	r2, r3, r2
    f4ac:	e1580002 	cmp	r8, r2
    f4b0:	2affff32 	bcs	f180 <create_chain+0xc0>
    f4b4:	e5d5b003 	ldrb	fp, [r5, #3]
    f4b8:	e35b0001 	cmp	fp, #1
    f4bc:	8a000001 	bhi	f4c8 <create_chain+0x408>
    f4c0:	eaffff2e 	b	f180 <create_chain+0xc0>
    f4c4:	e595301c 	ldr	r3, [r5, #28]
    f4c8:	e0888003 	add	r8, r8, r3
    f4cc:	e24bb001 	sub	fp, fp, #1
    f4d0:	e1a02008 	mov	r2, r8
    f4d4:	e5d50001 	ldrb	r0, [r5, #1]
    f4d8:	e1a0100a 	mov	r1, sl
    f4dc:	e3a03001 	mov	r3, #1
    f4e0:	eb002139 	bl	179cc <disk_write>
    f4e4:	e35b0001 	cmp	fp, #1
    f4e8:	1afffff5 	bne	f4c4 <create_chain+0x404>
    f4ec:	eaffff23 	b	f180 <create_chain+0xc0>
    f4f0:	e1a0100a 	mov	r1, sl
    f4f4:	e5d50001 	ldrb	r0, [r5, #1]
    f4f8:	e1a02009 	mov	r2, r9
    f4fc:	eb002132 	bl	179cc <disk_write>
    f500:	e3500000 	cmp	r0, #0
    f504:	1affff98 	bne	f36c <create_chain+0x2ac>
    f508:	e5952024 	ldr	r2, [r5, #36]	; 0x24
    f50c:	e5c50004 	strb	r0, [r5, #4]
    f510:	e1590002 	cmp	r9, r2
    f514:	3affff59 	bcc	f280 <create_chain+0x1c0>
    f518:	e595301c 	ldr	r3, [r5, #28]
    f51c:	e0832002 	add	r2, r3, r2
    f520:	e1590002 	cmp	r9, r2
    f524:	2affff55 	bcs	f280 <create_chain+0x1c0>
    f528:	e5d5b003 	ldrb	fp, [r5, #3]
    f52c:	e35b0001 	cmp	fp, #1
    f530:	8a000001 	bhi	f53c <create_chain+0x47c>
    f534:	eaffff51 	b	f280 <create_chain+0x1c0>
    f538:	e595301c 	ldr	r3, [r5, #28]
    f53c:	e0899003 	add	r9, r9, r3
    f540:	e24bb001 	sub	fp, fp, #1
    f544:	e1a02009 	mov	r2, r9
    f548:	e5d50001 	ldrb	r0, [r5, #1]
    f54c:	e1a0100a 	mov	r1, sl
    f550:	e3a03001 	mov	r3, #1
    f554:	eb00211c 	bl	179cc <disk_write>
    f558:	e35b0001 	cmp	fp, #1
    f55c:	1afffff5 	bne	f538 <create_chain+0x478>
    f560:	eaffff46 	b	f280 <create_chain+0x1c0>
    f564:	e1a0100c 	mov	r1, ip
    f568:	e5d50001 	ldrb	r0, [r5, #1]
    f56c:	e1a02008 	mov	r2, r8
    f570:	e3a03001 	mov	r3, #1
    f574:	e58dc004 	str	ip, [sp, #4]
    f578:	eb002113 	bl	179cc <disk_write>
    f57c:	e3500000 	cmp	r0, #0
    f580:	e59dc004 	ldr	ip, [sp, #4]
    f584:	1affff78 	bne	f36c <create_chain+0x2ac>
    f588:	e5952024 	ldr	r2, [r5, #36]	; 0x24
    f58c:	e5c50004 	strb	r0, [r5, #4]
    f590:	e1520008 	cmp	r2, r8
    f594:	8affff87 	bhi	f3b8 <create_chain+0x2f8>
    f598:	e595301c 	ldr	r3, [r5, #28]
    f59c:	e0832002 	add	r2, r3, r2
    f5a0:	e1520008 	cmp	r2, r8
    f5a4:	9affff83 	bls	f3b8 <create_chain+0x2f8>
    f5a8:	e5d58003 	ldrb	r8, [r5, #3]
    f5ac:	e3580001 	cmp	r8, #1
    f5b0:	9affff80 	bls	f3b8 <create_chain+0x2f8>
    f5b4:	e1a0700c 	mov	r7, ip
    f5b8:	ea000000 	b	f5c0 <create_chain+0x500>
    f5bc:	e595301c 	ldr	r3, [r5, #28]
    f5c0:	e0899003 	add	r9, r9, r3
    f5c4:	e2488001 	sub	r8, r8, #1
    f5c8:	e1a02009 	mov	r2, r9
    f5cc:	e5d50001 	ldrb	r0, [r5, #1]
    f5d0:	e1a01007 	mov	r1, r7
    f5d4:	e3a03001 	mov	r3, #1
    f5d8:	eb0020fb 	bl	179cc <disk_write>
    f5dc:	e3580001 	cmp	r8, #1
    f5e0:	1afffff5 	bne	f5bc <create_chain+0x4fc>
    f5e4:	e1a0c007 	mov	ip, r7
    f5e8:	eaffff72 	b	f3b8 <create_chain+0x2f8>
    f5ec:	e3a04002 	mov	r4, #2
    f5f0:	eafffeca 	b	f120 <create_chain+0x60>
    f5f4:	000001fe 	strdeq	r0, [r0], -lr

0000f5f8 <dir_next.constprop.11>:
    f5f8:	e92d4070 	push	{r4, r5, r6, lr}
    f5fc:	e1d050b6 	ldrh	r5, [r0, #6]
    f600:	e1a04000 	mov	r4, r0
    f604:	e2855001 	add	r5, r5, #1
    f608:	e6ff5075 	uxth	r5, r5
    f60c:	e3550000 	cmp	r5, #0
    f610:	1a000001 	bne	f61c <dir_next.constprop.11+0x24>
    f614:	e3a00004 	mov	r0, #4
    f618:	e8bd8070 	pop	{r4, r5, r6, pc}
    f61c:	e5903010 	ldr	r3, [r0, #16]
    f620:	e3530000 	cmp	r3, #0
    f624:	0afffffa 	beq	f614 <dir_next.constprop.11+0x1c>
    f628:	e215600f 	ands	r6, r5, #15
    f62c:	0a000006 	beq	f64c <dir_next.constprop.11+0x54>
    f630:	e5903000 	ldr	r3, [r0]
    f634:	e0833286 	add	r3, r3, r6, lsl #5
    f638:	e2833034 	add	r3, r3, #52	; 0x34
    f63c:	e5843014 	str	r3, [r4, #20]
    f640:	e1c450b6 	strh	r5, [r4, #6]
    f644:	e3a00000 	mov	r0, #0
    f648:	e8bd8070 	pop	{r4, r5, r6, pc}
    f64c:	e590100c 	ldr	r1, [r0, #12]
    f650:	e2833001 	add	r3, r3, #1
    f654:	e3510000 	cmp	r1, #0
    f658:	e5803010 	str	r3, [r0, #16]
    f65c:	e5903000 	ldr	r3, [r0]
    f660:	0a00000a 	beq	f690 <dir_next.constprop.11+0x98>
    f664:	e5d32002 	ldrb	r2, [r3, #2]
    f668:	e2422001 	sub	r2, r2, #1
    f66c:	e0122225 	ands	r2, r2, r5, lsr #4
    f670:	1affffef 	bne	f634 <dir_next.constprop.11+0x3c>
    f674:	e3510001 	cmp	r1, #1
    f678:	9a000002 	bls	f688 <dir_next.constprop.11+0x90>
    f67c:	e5932018 	ldr	r2, [r3, #24]
    f680:	e1510002 	cmp	r1, r2
    f684:	3a000005 	bcc	f6a0 <dir_next.constprop.11+0xa8>
    f688:	e3a00002 	mov	r0, #2
    f68c:	e8bd8070 	pop	{r4, r5, r6, pc}
    f690:	e1d320b8 	ldrh	r2, [r3, #8]
    f694:	e1520005 	cmp	r2, r5
    f698:	9affffdd 	bls	f614 <dir_next.constprop.11+0x1c>
    f69c:	eaffffe4 	b	f634 <dir_next.constprop.11+0x3c>
    f6a0:	e1a00003 	mov	r0, r3
    f6a4:	ebfffd4b 	bl	ebd8 <get_fat.part.5>
    f6a8:	e3500001 	cmp	r0, #1
    f6ac:	9afffff5 	bls	f688 <dir_next.constprop.11+0x90>
    f6b0:	e3700001 	cmn	r0, #1
    f6b4:	0a00000d 	beq	f6f0 <dir_next.constprop.11+0xf8>
    f6b8:	e5943000 	ldr	r3, [r4]
    f6bc:	e5932018 	ldr	r2, [r3, #24]
    f6c0:	e1500002 	cmp	r0, r2
    f6c4:	2affffd2 	bcs	f614 <dir_next.constprop.11+0x1c>
    f6c8:	e2401002 	sub	r1, r0, #2
    f6cc:	e2422002 	sub	r2, r2, #2
    f6d0:	e1510002 	cmp	r1, r2
    f6d4:	e584000c 	str	r0, [r4, #12]
    f6d8:	35d30002 	ldrbcc	r0, [r3, #2]
    f6dc:	3593202c 	ldrcc	r2, [r3, #44]	; 0x2c
    f6e0:	23a01000 	movcs	r1, #0
    f6e4:	30212190 	mlacc	r1, r0, r1, r2
    f6e8:	e5841010 	str	r1, [r4, #16]
    f6ec:	eaffffd0 	b	f634 <dir_next.constprop.11+0x3c>
    f6f0:	e3a00001 	mov	r0, #1
    f6f4:	e8bd8070 	pop	{r4, r5, r6, pc}

0000f6f8 <dir_remove>:
    f6f8:	e92d4ff8 	push	{r3, r4, r5, r6, r7, r8, r9, sl, fp, lr}
    f6fc:	e1d012b0 	ldrh	r1, [r0, #32]
    f700:	e59f31e8 	ldr	r3, [pc, #488]	; f8f0 <dir_remove+0x1f8>
    f704:	e1d0a0b6 	ldrh	sl, [r0, #6]
    f708:	e1510003 	cmp	r1, r3
    f70c:	01a0100a 	moveq	r1, sl
    f710:	e1a05000 	mov	r5, r0
    f714:	ebfffe1e 	bl	ef94 <dir_sdi>
    f718:	e2509000 	subs	r9, r0, #0
    f71c:	1a00001e 	bne	f79c <dir_remove+0xa4>
    f720:	e5954000 	ldr	r4, [r5]
    f724:	e5957010 	ldr	r7, [r5, #16]
    f728:	e5946030 	ldr	r6, [r4, #48]	; 0x30
    f72c:	e1560007 	cmp	r6, r7
    f730:	0a00000b 	beq	f764 <dir_remove+0x6c>
    f734:	e5d43004 	ldrb	r3, [r4, #4]
    f738:	e2848034 	add	r8, r4, #52	; 0x34
    f73c:	e3530000 	cmp	r3, #0
    f740:	1a000022 	bne	f7d0 <dir_remove+0xd8>
    f744:	e1a01008 	mov	r1, r8
    f748:	e5d40001 	ldrb	r0, [r4, #1]
    f74c:	e1a02007 	mov	r2, r7
    f750:	e3a03001 	mov	r3, #1
    f754:	eb00207e 	bl	17954 <disk_read>
    f758:	e3500000 	cmp	r0, #0
    f75c:	1a000039 	bne	f848 <dir_remove+0x150>
    f760:	e5847030 	str	r7, [r4, #48]	; 0x30
    f764:	e5953014 	ldr	r3, [r5, #20]
    f768:	e3e0201a 	mvn	r2, #26
    f76c:	e5c32000 	strb	r2, [r3]
    f770:	e5953000 	ldr	r3, [r5]
    f774:	e3a02001 	mov	r2, #1
    f778:	e5c32004 	strb	r2, [r3, #4]
    f77c:	e1d530b6 	ldrh	r3, [r5, #6]
    f780:	e15a0003 	cmp	sl, r3
    f784:	9a000004 	bls	f79c <dir_remove+0xa4>
    f788:	e2833001 	add	r3, r3, #1
    f78c:	e6ff8073 	uxth	r8, r3
    f790:	e3580000 	cmp	r8, #0
    f794:	1a000002 	bne	f7a4 <dir_remove+0xac>
    f798:	e3a09002 	mov	r9, #2
    f79c:	e1a00009 	mov	r0, r9
    f7a0:	e8bd8ff8 	pop	{r3, r4, r5, r6, r7, r8, r9, sl, fp, pc}
    f7a4:	e5957010 	ldr	r7, [r5, #16]
    f7a8:	e3570000 	cmp	r7, #0
    f7ac:	0afffff9 	beq	f798 <dir_remove+0xa0>
    f7b0:	e218600f 	ands	r6, r8, #15
    f7b4:	0a000026 	beq	f854 <dir_remove+0x15c>
    f7b8:	e5954000 	ldr	r4, [r5]
    f7bc:	e0846286 	add	r6, r4, r6, lsl #5
    f7c0:	e2866034 	add	r6, r6, #52	; 0x34
    f7c4:	e5856014 	str	r6, [r5, #20]
    f7c8:	e1c580b6 	strh	r8, [r5, #6]
    f7cc:	eaffffd5 	b	f728 <dir_remove+0x30>
    f7d0:	e1a01008 	mov	r1, r8
    f7d4:	e5d40001 	ldrb	r0, [r4, #1]
    f7d8:	e1a02006 	mov	r2, r6
    f7dc:	e3a03001 	mov	r3, #1
    f7e0:	eb002079 	bl	179cc <disk_write>
    f7e4:	e3500000 	cmp	r0, #0
    f7e8:	1a000016 	bne	f848 <dir_remove+0x150>
    f7ec:	e5942024 	ldr	r2, [r4, #36]	; 0x24
    f7f0:	e5c40004 	strb	r0, [r4, #4]
    f7f4:	e1560002 	cmp	r6, r2
    f7f8:	3affffd1 	bcc	f744 <dir_remove+0x4c>
    f7fc:	e594301c 	ldr	r3, [r4, #28]
    f800:	e0832002 	add	r2, r3, r2
    f804:	e1560002 	cmp	r6, r2
    f808:	2affffcd 	bcs	f744 <dir_remove+0x4c>
    f80c:	e5d4b003 	ldrb	fp, [r4, #3]
    f810:	e35b0001 	cmp	fp, #1
    f814:	8a000001 	bhi	f820 <dir_remove+0x128>
    f818:	eaffffc9 	b	f744 <dir_remove+0x4c>
    f81c:	e594301c 	ldr	r3, [r4, #28]
    f820:	e0866003 	add	r6, r6, r3
    f824:	e24bb001 	sub	fp, fp, #1
    f828:	e1a02006 	mov	r2, r6
    f82c:	e5d40001 	ldrb	r0, [r4, #1]
    f830:	e1a01008 	mov	r1, r8
    f834:	e3a03001 	mov	r3, #1
    f838:	eb002063 	bl	179cc <disk_write>
    f83c:	e35b0001 	cmp	fp, #1
    f840:	1afffff5 	bne	f81c <dir_remove+0x124>
    f844:	eaffffbe 	b	f744 <dir_remove+0x4c>
    f848:	e3a09001 	mov	r9, #1
    f84c:	e1a00009 	mov	r0, r9
    f850:	e8bd8ff8 	pop	{r3, r4, r5, r6, r7, r8, r9, sl, fp, pc}
    f854:	e595100c 	ldr	r1, [r5, #12]
    f858:	e2877001 	add	r7, r7, #1
    f85c:	e3510000 	cmp	r1, #0
    f860:	e5857010 	str	r7, [r5, #16]
    f864:	e5954000 	ldr	r4, [r5]
    f868:	0a00001c 	beq	f8e0 <dir_remove+0x1e8>
    f86c:	e5d42002 	ldrb	r2, [r4, #2]
    f870:	e2422001 	sub	r2, r2, #1
    f874:	e0122228 	ands	r2, r2, r8, lsr #4
    f878:	1affffcf 	bne	f7bc <dir_remove+0xc4>
    f87c:	e3510001 	cmp	r1, #1
    f880:	9affffc4 	bls	f798 <dir_remove+0xa0>
    f884:	e5942018 	ldr	r2, [r4, #24]
    f888:	e1510002 	cmp	r1, r2
    f88c:	2affffc1 	bcs	f798 <dir_remove+0xa0>
    f890:	e1a00004 	mov	r0, r4
    f894:	ebfffccf 	bl	ebd8 <get_fat.part.5>
    f898:	e3500001 	cmp	r0, #1
    f89c:	9affffbd 	bls	f798 <dir_remove+0xa0>
    f8a0:	e3700001 	cmn	r0, #1
    f8a4:	0affffe7 	beq	f848 <dir_remove+0x150>
    f8a8:	e5954000 	ldr	r4, [r5]
    f8ac:	e5942018 	ldr	r2, [r4, #24]
    f8b0:	e1500002 	cmp	r0, r2
    f8b4:	2affffb7 	bcs	f798 <dir_remove+0xa0>
    f8b8:	e2422002 	sub	r2, r2, #2
    f8bc:	e2401002 	sub	r1, r0, #2
    f8c0:	e1510002 	cmp	r1, r2
    f8c4:	e585000c 	str	r0, [r5, #12]
    f8c8:	35d47002 	ldrbcc	r7, [r4, #2]
    f8cc:	3594202c 	ldrcc	r2, [r4, #44]	; 0x2c
    f8d0:	23a07000 	movcs	r7, #0
    f8d4:	30272197 	mlacc	r7, r7, r1, r2
    f8d8:	e5857010 	str	r7, [r5, #16]
    f8dc:	eaffffb6 	b	f7bc <dir_remove+0xc4>
    f8e0:	e1d420b8 	ldrh	r2, [r4, #8]
    f8e4:	e1520008 	cmp	r2, r8
    f8e8:	9affffaa 	bls	f798 <dir_remove+0xa0>
    f8ec:	eaffffb2 	b	f7bc <dir_remove+0xc4>
    f8f0:	0000ffff 	strdeq	pc, [r0], -pc	; <UNPREDICTABLE>

0000f8f4 <dir_read.constprop.10>:
    f8f4:	e92d4ff8 	push	{r3, r4, r5, r6, r7, r8, r9, sl, fp, lr}
    f8f8:	e5907010 	ldr	r7, [r0, #16]
    f8fc:	e1a06000 	mov	r6, r0
    f900:	e3570000 	cmp	r7, #0
    f904:	0a000022 	beq	f994 <dir_read.constprop.10+0xa0>
    f908:	e3a0a0ff 	mov	sl, #255	; 0xff
    f90c:	e5904000 	ldr	r4, [r0]
    f910:	e1a0900a 	mov	r9, sl
    f914:	e5945030 	ldr	r5, [r4, #48]	; 0x30
    f918:	e1570005 	cmp	r7, r5
    f91c:	0a00000b 	beq	f950 <dir_read.constprop.10+0x5c>
    f920:	e5d43004 	ldrb	r3, [r4, #4]
    f924:	e2848034 	add	r8, r4, #52	; 0x34
    f928:	e3530000 	cmp	r3, #0
    f92c:	1a000027 	bne	f9d0 <dir_read.constprop.10+0xdc>
    f930:	e1a01008 	mov	r1, r8
    f934:	e5d40001 	ldrb	r0, [r4, #1]
    f938:	e1a02007 	mov	r2, r7
    f93c:	e3a03001 	mov	r3, #1
    f940:	eb002003 	bl	17954 <disk_read>
    f944:	e3500000 	cmp	r0, #0
    f948:	1a00003e 	bne	fa48 <dir_read.constprop.10+0x154>
    f94c:	e5847030 	str	r7, [r4, #48]	; 0x30
    f950:	e5963014 	ldr	r3, [r6, #20]
    f954:	e5d32000 	ldrb	r2, [r3]
    f958:	e3520000 	cmp	r2, #0
    f95c:	0a00000c 	beq	f994 <dir_read.constprop.10+0xa0>
    f960:	e35200e5 	cmp	r2, #229	; 0xe5
    f964:	1352002e 	cmpne	r2, #46	; 0x2e
    f968:	e5d3100b 	ldrb	r1, [r3, #11]
    f96c:	0a000002 	beq	f97c <dir_read.constprop.10+0x88>
    f970:	e201103f 	and	r1, r1, #63	; 0x3f
    f974:	e3510008 	cmp	r1, #8
    f978:	1a000034 	bne	fa50 <dir_read.constprop.10+0x15c>
    f97c:	e3a090ff 	mov	r9, #255	; 0xff
    f980:	e1d650b6 	ldrh	r5, [r6, #6]
    f984:	e2855001 	add	r5, r5, #1
    f988:	e6ff5075 	uxth	r5, r5
    f98c:	e3550000 	cmp	r5, #0
    f990:	1a000003 	bne	f9a4 <dir_read.constprop.10+0xb0>
    f994:	e3a00004 	mov	r0, #4
    f998:	e3a03000 	mov	r3, #0
    f99c:	e5863010 	str	r3, [r6, #16]
    f9a0:	e8bd8ff8 	pop	{r3, r4, r5, r6, r7, r8, r9, sl, fp, pc}
    f9a4:	e5967010 	ldr	r7, [r6, #16]
    f9a8:	e3570000 	cmp	r7, #0
    f9ac:	0afffff8 	beq	f994 <dir_read.constprop.10+0xa0>
    f9b0:	e215300f 	ands	r3, r5, #15
    f9b4:	0a000052 	beq	fb04 <dir_read.constprop.10+0x210>
    f9b8:	e5964000 	ldr	r4, [r6]
    f9bc:	e1c650b6 	strh	r5, [r6, #6]
    f9c0:	e0843283 	add	r3, r4, r3, lsl #5
    f9c4:	e2833034 	add	r3, r3, #52	; 0x34
    f9c8:	e5863014 	str	r3, [r6, #20]
    f9cc:	eaffffd0 	b	f914 <dir_read.constprop.10+0x20>
    f9d0:	e1a01008 	mov	r1, r8
    f9d4:	e5d40001 	ldrb	r0, [r4, #1]
    f9d8:	e1a02005 	mov	r2, r5
    f9dc:	e3a03001 	mov	r3, #1
    f9e0:	eb001ff9 	bl	179cc <disk_write>
    f9e4:	e3500000 	cmp	r0, #0
    f9e8:	1a000016 	bne	fa48 <dir_read.constprop.10+0x154>
    f9ec:	e5942024 	ldr	r2, [r4, #36]	; 0x24
    f9f0:	e5c40004 	strb	r0, [r4, #4]
    f9f4:	e1550002 	cmp	r5, r2
    f9f8:	3affffcc 	bcc	f930 <dir_read.constprop.10+0x3c>
    f9fc:	e594301c 	ldr	r3, [r4, #28]
    fa00:	e0832002 	add	r2, r3, r2
    fa04:	e1550002 	cmp	r5, r2
    fa08:	2affffc8 	bcs	f930 <dir_read.constprop.10+0x3c>
    fa0c:	e5d4b003 	ldrb	fp, [r4, #3]
    fa10:	e35b0001 	cmp	fp, #1
    fa14:	8a000001 	bhi	fa20 <dir_read.constprop.10+0x12c>
    fa18:	eaffffc4 	b	f930 <dir_read.constprop.10+0x3c>
    fa1c:	e594301c 	ldr	r3, [r4, #28]
    fa20:	e0855003 	add	r5, r5, r3
    fa24:	e24bb001 	sub	fp, fp, #1
    fa28:	e1a02005 	mov	r2, r5
    fa2c:	e5d40001 	ldrb	r0, [r4, #1]
    fa30:	e1a01008 	mov	r1, r8
    fa34:	e3a03001 	mov	r3, #1
    fa38:	eb001fe3 	bl	179cc <disk_write>
    fa3c:	e35b0001 	cmp	fp, #1
    fa40:	1afffff5 	bne	fa1c <dir_read.constprop.10+0x128>
    fa44:	eaffffb9 	b	f930 <dir_read.constprop.10+0x3c>
    fa48:	e3a00001 	mov	r0, #1
    fa4c:	eaffffd1 	b	f998 <dir_read.constprop.10+0xa4>
    fa50:	e351000f 	cmp	r1, #15
    fa54:	1a000051 	bne	fba0 <dir_read.constprop.10+0x2ac>
    fa58:	e3120040 	tst	r2, #64	; 0x40
    fa5c:	0a000025 	beq	faf8 <dir_read.constprop.10+0x204>
    fa60:	e1d610b6 	ldrh	r1, [r6, #6]
    fa64:	e5d3a00d 	ldrb	sl, [r3, #13]
    fa68:	e20290bf 	and	r9, r2, #191	; 0xbf
    fa6c:	e1c612b0 	strh	r1, [r6, #32]
    fa70:	e5d3400d 	ldrb	r4, [r3, #13]
    fa74:	e154000a 	cmp	r4, sl
    fa78:	1affffbf 	bne	f97c <dir_read.constprop.10+0x88>
    fa7c:	e5d31000 	ldrb	r1, [r3]
    fa80:	e596701c 	ldr	r7, [r6, #28]
    fa84:	e201103f 	and	r1, r1, #63	; 0x3f
    fa88:	e2411001 	sub	r1, r1, #1
    fa8c:	e0810081 	add	r0, r1, r1, lsl #1
    fa90:	e59f223c 	ldr	r2, [pc, #572]	; fcd4 <dir_read.constprop.10+0x3e0>
    fa94:	e0810100 	add	r0, r1, r0, lsl #2
    fa98:	e3a05001 	mov	r5, #1
    fa9c:	ea000007 	b	fac0 <dir_read.constprop.10+0x1cc>
    faa0:	e350003f 	cmp	r0, #63	; 0x3f
    faa4:	8a000010 	bhi	faec <dir_read.constprop.10+0x1f8>
    faa8:	e18710b8 	strh	r1, [r7, r8]
    faac:	e2800001 	add	r0, r0, #1
    fab0:	e1a05001 	mov	r5, r1
    fab4:	e59f121c 	ldr	r1, [pc, #540]	; fcd8 <dir_read.constprop.10+0x3e4>
    fab8:	e1520001 	cmp	r2, r1
    fabc:	0a00002b 	beq	fb70 <dir_read.constprop.10+0x27c>
    fac0:	e5f21001 	ldrb	r1, [r2, #1]!
    fac4:	e3550000 	cmp	r5, #0
    fac8:	e083c001 	add	ip, r3, r1
    facc:	e5dcc001 	ldrb	ip, [ip, #1]
    fad0:	e7d31001 	ldrb	r1, [r3, r1]
    fad4:	e1a08080 	lsl	r8, r0, #1
    fad8:	e181140c 	orr	r1, r1, ip, lsl #8
    fadc:	1affffef 	bne	faa0 <dir_read.constprop.10+0x1ac>
    fae0:	e59fc1f4 	ldr	ip, [pc, #500]	; fcdc <dir_read.constprop.10+0x3e8>
    fae4:	e151000c 	cmp	r1, ip
    fae8:	0afffff1 	beq	fab4 <dir_read.constprop.10+0x1c0>
    faec:	e1a0a004 	mov	sl, r4
    faf0:	e3a090ff 	mov	r9, #255	; 0xff
    faf4:	eaffffa1 	b	f980 <dir_read.constprop.10+0x8c>
    faf8:	e1520009 	cmp	r2, r9
    fafc:	1affff9e 	bne	f97c <dir_read.constprop.10+0x88>
    fb00:	eaffffda 	b	fa70 <dir_read.constprop.10+0x17c>
    fb04:	e596100c 	ldr	r1, [r6, #12]
    fb08:	e2877001 	add	r7, r7, #1
    fb0c:	e3510000 	cmp	r1, #0
    fb10:	e5867010 	str	r7, [r6, #16]
    fb14:	e5964000 	ldr	r4, [r6]
    fb18:	1a000009 	bne	fb44 <dir_read.constprop.10+0x250>
    fb1c:	e1d430b8 	ldrh	r3, [r4, #8]
    fb20:	e1530005 	cmp	r3, r5
    fb24:	9affff9a 	bls	f994 <dir_read.constprop.10+0xa0>
    fb28:	e2843034 	add	r3, r4, #52	; 0x34
    fb2c:	e3570000 	cmp	r7, #0
    fb30:	e1c650b6 	strh	r5, [r6, #6]
    fb34:	e5863014 	str	r3, [r6, #20]
    fb38:	1affff75 	bne	f914 <dir_read.constprop.10+0x20>
    fb3c:	e3a00000 	mov	r0, #0
    fb40:	e8bd8ff8 	pop	{r3, r4, r5, r6, r7, r8, r9, sl, fp, pc}
    fb44:	e5d43002 	ldrb	r3, [r4, #2]
    fb48:	e2433001 	sub	r3, r3, #1
    fb4c:	e0133225 	ands	r3, r3, r5, lsr #4
    fb50:	1afffff4 	bne	fb28 <dir_read.constprop.10+0x234>
    fb54:	e3510001 	cmp	r1, #1
    fb58:	9a000002 	bls	fb68 <dir_read.constprop.10+0x274>
    fb5c:	e5943018 	ldr	r3, [r4, #24]
    fb60:	e1510003 	cmp	r1, r3
    fb64:	3a000046 	bcc	fc84 <dir_read.constprop.10+0x390>
    fb68:	e3a00002 	mov	r0, #2
    fb6c:	eaffff89 	b	f998 <dir_read.constprop.10+0xa4>
    fb70:	e5d33000 	ldrb	r3, [r3]
    fb74:	e3130040 	tst	r3, #64	; 0x40
    fb78:	0a000004 	beq	fb90 <dir_read.constprop.10+0x29c>
    fb7c:	e350003f 	cmp	r0, #63	; 0x3f
    fb80:	8affffd9 	bhi	faec <dir_read.constprop.10+0x1f8>
    fb84:	e1a00080 	lsl	r0, r0, #1
    fb88:	e3a03000 	mov	r3, #0
    fb8c:	e18730b0 	strh	r3, [r7, r0]
    fb90:	e2499001 	sub	r9, r9, #1
    fb94:	e6ef9079 	uxtb	r9, r9
    fb98:	e1a0a004 	mov	sl, r4
    fb9c:	eaffff77 	b	f980 <dir_read.constprop.10+0x8c>
    fba0:	e3590000 	cmp	r9, #0
    fba4:	1a000033 	bne	fc78 <dir_read.constprop.10+0x384>
    fba8:	e5d31001 	ldrb	r1, [r3, #1]
    fbac:	e1a00382 	lsl	r0, r2, #7
    fbb0:	e18020a2 	orr	r2, r0, r2, lsr #1
    fbb4:	e0822001 	add	r2, r2, r1
    fbb8:	e6ef0072 	uxtb	r0, r2
    fbbc:	e5d31002 	ldrb	r1, [r3, #2]
    fbc0:	e1a02382 	lsl	r2, r2, #7
    fbc4:	e18220a0 	orr	r2, r2, r0, lsr #1
    fbc8:	e6e12072 	uxtab	r2, r1, r2
    fbcc:	e6ef0072 	uxtb	r0, r2
    fbd0:	e5d31003 	ldrb	r1, [r3, #3]
    fbd4:	e1a02382 	lsl	r2, r2, #7
    fbd8:	e18220a0 	orr	r2, r2, r0, lsr #1
    fbdc:	e6e12072 	uxtab	r2, r1, r2
    fbe0:	e6ef0072 	uxtb	r0, r2
    fbe4:	e5d31004 	ldrb	r1, [r3, #4]
    fbe8:	e1a02382 	lsl	r2, r2, #7
    fbec:	e18220a0 	orr	r2, r2, r0, lsr #1
    fbf0:	e6e12072 	uxtab	r2, r1, r2
    fbf4:	e6ef0072 	uxtb	r0, r2
    fbf8:	e5d31005 	ldrb	r1, [r3, #5]
    fbfc:	e1a02382 	lsl	r2, r2, #7
    fc00:	e18220a0 	orr	r2, r2, r0, lsr #1
    fc04:	e6e12072 	uxtab	r2, r1, r2
    fc08:	e6ef0072 	uxtb	r0, r2
    fc0c:	e5d31006 	ldrb	r1, [r3, #6]
    fc10:	e1a02382 	lsl	r2, r2, #7
    fc14:	e18220a0 	orr	r2, r2, r0, lsr #1
    fc18:	e6e12072 	uxtab	r2, r1, r2
    fc1c:	e6ef0072 	uxtb	r0, r2
    fc20:	e5d31007 	ldrb	r1, [r3, #7]
    fc24:	e1a02382 	lsl	r2, r2, #7
    fc28:	e18220a0 	orr	r2, r2, r0, lsr #1
    fc2c:	e6e12072 	uxtab	r2, r1, r2
    fc30:	e6ef0072 	uxtb	r0, r2
    fc34:	e5d31008 	ldrb	r1, [r3, #8]
    fc38:	e1a02382 	lsl	r2, r2, #7
    fc3c:	e18220a0 	orr	r2, r2, r0, lsr #1
    fc40:	e6e12072 	uxtab	r2, r1, r2
    fc44:	e6ef0072 	uxtb	r0, r2
    fc48:	e5d31009 	ldrb	r1, [r3, #9]
    fc4c:	e1a02382 	lsl	r2, r2, #7
    fc50:	e18220a0 	orr	r2, r2, r0, lsr #1
    fc54:	e6e12072 	uxtab	r2, r1, r2
    fc58:	e6ef1072 	uxtb	r1, r2
    fc5c:	e5d3300a 	ldrb	r3, [r3, #10]
    fc60:	e1a02382 	lsl	r2, r2, #7
    fc64:	e18220a1 	orr	r2, r2, r1, lsr #1
    fc68:	e6e33072 	uxtab	r3, r3, r2
    fc6c:	e6ef3073 	uxtb	r3, r3
    fc70:	e153000a 	cmp	r3, sl
    fc74:	0affffb0 	beq	fb3c <dir_read.constprop.10+0x248>
    fc78:	e3e03000 	mvn	r3, #0
    fc7c:	e1c632b0 	strh	r3, [r6, #32]
    fc80:	eaffffad 	b	fb3c <dir_read.constprop.10+0x248>
    fc84:	e1a00004 	mov	r0, r4
    fc88:	ebfffbd2 	bl	ebd8 <get_fat.part.5>
    fc8c:	e3500001 	cmp	r0, #1
    fc90:	9affffb4 	bls	fb68 <dir_read.constprop.10+0x274>
    fc94:	e3700001 	cmn	r0, #1
    fc98:	0affff6a 	beq	fa48 <dir_read.constprop.10+0x154>
    fc9c:	e5964000 	ldr	r4, [r6]
    fca0:	e5943018 	ldr	r3, [r4, #24]
    fca4:	e1500003 	cmp	r0, r3
    fca8:	2affff39 	bcs	f994 <dir_read.constprop.10+0xa0>
    fcac:	e2433002 	sub	r3, r3, #2
    fcb0:	e2402002 	sub	r2, r0, #2
    fcb4:	e1520003 	cmp	r2, r3
    fcb8:	e586000c 	str	r0, [r6, #12]
    fcbc:	35d47002 	ldrbcc	r7, [r4, #2]
    fcc0:	3594302c 	ldrcc	r3, [r4, #44]	; 0x2c
    fcc4:	23a07000 	movcs	r7, #0
    fcc8:	30273297 	mlacc	r7, r7, r2, r3
    fccc:	e5867010 	str	r7, [r6, #16]
    fcd0:	eaffff94 	b	fb28 <dir_read.constprop.10+0x234>
    fcd4:	0001d687 	andeq	sp, r1, r7, lsl #13
    fcd8:	0001d694 	muleq	r1, r4, r6
    fcdc:	0000ffff 	strdeq	pc, [r0], -pc	; <UNPREDICTABLE>

0000fce0 <dir_find.part.7>:
    fce0:	e92d4ff0 	push	{r4, r5, r6, r7, r8, r9, sl, fp, lr}
    fce4:	e3a020ff 	mov	r2, #255	; 0xff
    fce8:	e24dd00c 	sub	sp, sp, #12
    fcec:	e5904000 	ldr	r4, [r0]
    fcf0:	e5907010 	ldr	r7, [r0, #16]
    fcf4:	e1a06000 	mov	r6, r0
    fcf8:	e58d2004 	str	r2, [sp, #4]
    fcfc:	e1a09002 	mov	r9, r2
    fd00:	e3e0a000 	mvn	sl, #0
    fd04:	e5945030 	ldr	r5, [r4, #48]	; 0x30
    fd08:	e1570005 	cmp	r7, r5
    fd0c:	0a00000b 	beq	fd40 <dir_find.part.7+0x60>
    fd10:	e5d43004 	ldrb	r3, [r4, #4]
    fd14:	e284b034 	add	fp, r4, #52	; 0x34
    fd18:	e3530000 	cmp	r3, #0
    fd1c:	1a000094 	bne	ff74 <dir_find.part.7+0x294>
    fd20:	e1a0100b 	mov	r1, fp
    fd24:	e5d40001 	ldrb	r0, [r4, #1]
    fd28:	e1a02007 	mov	r2, r7
    fd2c:	e3a03001 	mov	r3, #1
    fd30:	eb001f07 	bl	17954 <disk_read>
    fd34:	e3500000 	cmp	r0, #0
    fd38:	1a0000ab 	bne	ffec <dir_find.part.7+0x30c>
    fd3c:	e5847030 	str	r7, [r4, #48]	; 0x30
    fd40:	e5964014 	ldr	r4, [r6, #20]
    fd44:	e5d43000 	ldrb	r3, [r4]
    fd48:	e3530000 	cmp	r3, #0
    fd4c:	0a00000d 	beq	fd88 <dir_find.part.7+0xa8>
    fd50:	e5d4200b 	ldrb	r2, [r4, #11]
    fd54:	e35300e5 	cmp	r3, #229	; 0xe5
    fd58:	e202103f 	and	r1, r2, #63	; 0x3f
    fd5c:	0a000003 	beq	fd70 <dir_find.part.7+0x90>
    fd60:	e3120008 	tst	r2, #8
    fd64:	0a00000a 	beq	fd94 <dir_find.part.7+0xb4>
    fd68:	e351000f 	cmp	r1, #15
    fd6c:	0a0000a1 	beq	fff8 <dir_find.part.7+0x318>
    fd70:	e3a090ff 	mov	r9, #255	; 0xff
    fd74:	e1d650b6 	ldrh	r5, [r6, #6]
    fd78:	e2855001 	add	r5, r5, #1
    fd7c:	e6ff5075 	uxth	r5, r5
    fd80:	e3550000 	cmp	r5, #0
    fd84:	1a00006f 	bne	ff48 <dir_find.part.7+0x268>
    fd88:	e3a00004 	mov	r0, #4
    fd8c:	e28dd00c 	add	sp, sp, #12
    fd90:	e8bd8ff0 	pop	{r4, r5, r6, r7, r8, r9, sl, fp, pc}
    fd94:	e351000f 	cmp	r1, #15
    fd98:	0a000096 	beq	fff8 <dir_find.part.7+0x318>
    fd9c:	e3590000 	cmp	r9, #0
    fda0:	1a000034 	bne	fe78 <dir_find.part.7+0x198>
    fda4:	e1a01383 	lsl	r1, r3, #7
    fda8:	e5d42001 	ldrb	r2, [r4, #1]
    fdac:	e18130a3 	orr	r3, r1, r3, lsr #1
    fdb0:	e0833002 	add	r3, r3, r2
    fdb4:	e6ef2073 	uxtb	r2, r3
    fdb8:	e5d41002 	ldrb	r1, [r4, #2]
    fdbc:	e1a03383 	lsl	r3, r3, #7
    fdc0:	e18320a2 	orr	r2, r3, r2, lsr #1
    fdc4:	e6e12072 	uxtab	r2, r1, r2
    fdc8:	e6ef3072 	uxtb	r3, r2
    fdcc:	e5d41003 	ldrb	r1, [r4, #3]
    fdd0:	e1a02382 	lsl	r2, r2, #7
    fdd4:	e18230a3 	orr	r3, r2, r3, lsr #1
    fdd8:	e6e13073 	uxtab	r3, r1, r3
    fddc:	e6ef2073 	uxtb	r2, r3
    fde0:	e5d41004 	ldrb	r1, [r4, #4]
    fde4:	e1a03383 	lsl	r3, r3, #7
    fde8:	e18320a2 	orr	r2, r3, r2, lsr #1
    fdec:	e6e12072 	uxtab	r2, r1, r2
    fdf0:	e6ef3072 	uxtb	r3, r2
    fdf4:	e5d41005 	ldrb	r1, [r4, #5]
    fdf8:	e1a02382 	lsl	r2, r2, #7
    fdfc:	e18230a3 	orr	r3, r2, r3, lsr #1
    fe00:	e6e13073 	uxtab	r3, r1, r3
    fe04:	e6ef2073 	uxtb	r2, r3
    fe08:	e5d41006 	ldrb	r1, [r4, #6]
    fe0c:	e1a03383 	lsl	r3, r3, #7
    fe10:	e18320a2 	orr	r2, r3, r2, lsr #1
    fe14:	e6e12072 	uxtab	r2, r1, r2
    fe18:	e6ef3072 	uxtb	r3, r2
    fe1c:	e5d41007 	ldrb	r1, [r4, #7]
    fe20:	e1a02382 	lsl	r2, r2, #7
    fe24:	e18230a3 	orr	r3, r2, r3, lsr #1
    fe28:	e6e13073 	uxtab	r3, r1, r3
    fe2c:	e6ef2073 	uxtb	r2, r3
    fe30:	e5d41008 	ldrb	r1, [r4, #8]
    fe34:	e1a03383 	lsl	r3, r3, #7
    fe38:	e18320a2 	orr	r2, r3, r2, lsr #1
    fe3c:	e6e12072 	uxtab	r2, r1, r2
    fe40:	e6ef3072 	uxtb	r3, r2
    fe44:	e5d41009 	ldrb	r1, [r4, #9]
    fe48:	e1a02382 	lsl	r2, r2, #7
    fe4c:	e18230a3 	orr	r3, r2, r3, lsr #1
    fe50:	e6e13073 	uxtab	r3, r1, r3
    fe54:	e6ef1073 	uxtb	r1, r3
    fe58:	e5d4200a 	ldrb	r2, [r4, #10]
    fe5c:	e1a03383 	lsl	r3, r3, #7
    fe60:	e18330a1 	orr	r3, r3, r1, lsr #1
    fe64:	e6e23073 	uxtab	r3, r2, r3
    fe68:	e59d2004 	ldr	r2, [sp, #4]
    fe6c:	e6ef3073 	uxtb	r3, r3
    fe70:	e1530002 	cmp	r3, r2
    fe74:	0a000030 	beq	ff3c <dir_find.part.7+0x25c>
    fe78:	e5963018 	ldr	r3, [r6, #24]
    fe7c:	e1c6a2b0 	strh	sl, [r6, #32]
    fe80:	e5d3200b 	ldrb	r2, [r3, #11]
    fe84:	e3120001 	tst	r2, #1
    fe88:	1affffb8 	bne	fd70 <dir_find.part.7+0x90>
    fe8c:	e5d31000 	ldrb	r1, [r3]
    fe90:	e5d42000 	ldrb	r2, [r4]
    fe94:	e1510002 	cmp	r1, r2
    fe98:	1affffb4 	bne	fd70 <dir_find.part.7+0x90>
    fe9c:	e5d41001 	ldrb	r1, [r4, #1]
    fea0:	e5d32001 	ldrb	r2, [r3, #1]
    fea4:	e1510002 	cmp	r1, r2
    fea8:	1affffb0 	bne	fd70 <dir_find.part.7+0x90>
    feac:	e5d41002 	ldrb	r1, [r4, #2]
    feb0:	e5d32002 	ldrb	r2, [r3, #2]
    feb4:	e1510002 	cmp	r1, r2
    feb8:	1affffac 	bne	fd70 <dir_find.part.7+0x90>
    febc:	e5d41003 	ldrb	r1, [r4, #3]
    fec0:	e5d32003 	ldrb	r2, [r3, #3]
    fec4:	e1510002 	cmp	r1, r2
    fec8:	1affffa8 	bne	fd70 <dir_find.part.7+0x90>
    fecc:	e5d41004 	ldrb	r1, [r4, #4]
    fed0:	e5d32004 	ldrb	r2, [r3, #4]
    fed4:	e1510002 	cmp	r1, r2
    fed8:	1affffa4 	bne	fd70 <dir_find.part.7+0x90>
    fedc:	e5d41005 	ldrb	r1, [r4, #5]
    fee0:	e5d32005 	ldrb	r2, [r3, #5]
    fee4:	e1510002 	cmp	r1, r2
    fee8:	1affffa0 	bne	fd70 <dir_find.part.7+0x90>
    feec:	e5d41006 	ldrb	r1, [r4, #6]
    fef0:	e5d32006 	ldrb	r2, [r3, #6]
    fef4:	e1510002 	cmp	r1, r2
    fef8:	1affff9c 	bne	fd70 <dir_find.part.7+0x90>
    fefc:	e5d41007 	ldrb	r1, [r4, #7]
    ff00:	e5d32007 	ldrb	r2, [r3, #7]
    ff04:	e1510002 	cmp	r1, r2
    ff08:	1affff98 	bne	fd70 <dir_find.part.7+0x90>
    ff0c:	e5d41008 	ldrb	r1, [r4, #8]
    ff10:	e5d32008 	ldrb	r2, [r3, #8]
    ff14:	e1510002 	cmp	r1, r2
    ff18:	1affff94 	bne	fd70 <dir_find.part.7+0x90>
    ff1c:	e5d41009 	ldrb	r1, [r4, #9]
    ff20:	e5d32009 	ldrb	r2, [r3, #9]
    ff24:	e1510002 	cmp	r1, r2
    ff28:	1affff90 	bne	fd70 <dir_find.part.7+0x90>
    ff2c:	e5d4200a 	ldrb	r2, [r4, #10]
    ff30:	e5d3300a 	ldrb	r3, [r3, #10]
    ff34:	e1520003 	cmp	r2, r3
    ff38:	1affff8c 	bne	fd70 <dir_find.part.7+0x90>
    ff3c:	e3a00000 	mov	r0, #0
    ff40:	e28dd00c 	add	sp, sp, #12
    ff44:	e8bd8ff0 	pop	{r4, r5, r6, r7, r8, r9, sl, fp, pc}
    ff48:	e5967010 	ldr	r7, [r6, #16]
    ff4c:	e3570000 	cmp	r7, #0
    ff50:	0affff8c 	beq	fd88 <dir_find.part.7+0xa8>
    ff54:	e215b00f 	ands	fp, r5, #15
    ff58:	0a00005a 	beq	100c8 <dir_find.part.7+0x3e8>
    ff5c:	e5964000 	ldr	r4, [r6]
    ff60:	e084b28b 	add	fp, r4, fp, lsl #5
    ff64:	e28bb034 	add	fp, fp, #52	; 0x34
    ff68:	e586b014 	str	fp, [r6, #20]
    ff6c:	e1c650b6 	strh	r5, [r6, #6]
    ff70:	eaffff63 	b	fd04 <dir_find.part.7+0x24>
    ff74:	e1a0100b 	mov	r1, fp
    ff78:	e5d40001 	ldrb	r0, [r4, #1]
    ff7c:	e1a02005 	mov	r2, r5
    ff80:	e3a03001 	mov	r3, #1
    ff84:	eb001e90 	bl	179cc <disk_write>
    ff88:	e3500000 	cmp	r0, #0
    ff8c:	1a000016 	bne	ffec <dir_find.part.7+0x30c>
    ff90:	e5942024 	ldr	r2, [r4, #36]	; 0x24
    ff94:	e5c40004 	strb	r0, [r4, #4]
    ff98:	e1550002 	cmp	r5, r2
    ff9c:	3affff5f 	bcc	fd20 <dir_find.part.7+0x40>
    ffa0:	e594301c 	ldr	r3, [r4, #28]
    ffa4:	e0832002 	add	r2, r3, r2
    ffa8:	e1550002 	cmp	r5, r2
    ffac:	2affff5b 	bcs	fd20 <dir_find.part.7+0x40>
    ffb0:	e5d48003 	ldrb	r8, [r4, #3]
    ffb4:	e3580001 	cmp	r8, #1
    ffb8:	8a000001 	bhi	ffc4 <dir_find.part.7+0x2e4>
    ffbc:	eaffff57 	b	fd20 <dir_find.part.7+0x40>
    ffc0:	e594301c 	ldr	r3, [r4, #28]
    ffc4:	e0855003 	add	r5, r5, r3
    ffc8:	e2488001 	sub	r8, r8, #1
    ffcc:	e1a02005 	mov	r2, r5
    ffd0:	e5d40001 	ldrb	r0, [r4, #1]
    ffd4:	e1a0100b 	mov	r1, fp
    ffd8:	e3a03001 	mov	r3, #1
    ffdc:	eb001e7a 	bl	179cc <disk_write>
    ffe0:	e3580001 	cmp	r8, #1
    ffe4:	1afffff5 	bne	ffc0 <dir_find.part.7+0x2e0>
    ffe8:	eaffff4c 	b	fd20 <dir_find.part.7+0x40>
    ffec:	e3a00001 	mov	r0, #1
    fff0:	e28dd00c 	add	sp, sp, #12
    fff4:	e8bd8ff0 	pop	{r4, r5, r6, r7, r8, r9, sl, fp, pc}
    fff8:	e596501c 	ldr	r5, [r6, #28]
    fffc:	e3550000 	cmp	r5, #0
   10000:	0affff5b 	beq	fd74 <dir_find.part.7+0x94>
   10004:	e3130040 	tst	r3, #64	; 0x40
   10008:	0a00002b 	beq	100bc <dir_find.part.7+0x3dc>
   1000c:	e1d620b6 	ldrh	r2, [r6, #6]
   10010:	e20390bf 	and	r9, r3, #191	; 0xbf
   10014:	e5d4300d 	ldrb	r3, [r4, #13]
   10018:	e1c622b0 	strh	r2, [r6, #32]
   1001c:	e58d3004 	str	r3, [sp, #4]
   10020:	e5d4b00d 	ldrb	fp, [r4, #13]
   10024:	e59d2004 	ldr	r2, [sp, #4]
   10028:	e15b0002 	cmp	fp, r2
   1002c:	1affff4f 	bne	fd70 <dir_find.part.7+0x90>
   10030:	e5d43000 	ldrb	r3, [r4]
   10034:	e58d9004 	str	r9, [sp, #4]
   10038:	e3c33040 	bic	r3, r3, #64	; 0x40
   1003c:	e2433001 	sub	r3, r3, #1
   10040:	e0831083 	add	r1, r3, r3, lsl #1
   10044:	e0831101 	add	r1, r3, r1, lsl #2
   10048:	e59f7164 	ldr	r7, [pc, #356]	; 101b4 <dir_find.part.7+0x4d4>
   1004c:	e3a08001 	mov	r8, #1
   10050:	e1a09001 	mov	r9, r1
   10054:	ea000005 	b	10070 <dir_find.part.7+0x390>
   10058:	e59f3158 	ldr	r3, [pc, #344]	; 101b8 <dir_find.part.7+0x4d8>
   1005c:	e1500003 	cmp	r0, r3
   10060:	1a000038 	bne	10148 <dir_find.part.7+0x468>
   10064:	e59f2150 	ldr	r2, [pc, #336]	; 101bc <dir_find.part.7+0x4dc>
   10068:	e1570002 	cmp	r7, r2
   1006c:	0a00002a 	beq	1011c <dir_find.part.7+0x43c>
   10070:	e5f73001 	ldrb	r3, [r7, #1]!
   10074:	e3580000 	cmp	r8, #0
   10078:	e0842003 	add	r2, r4, r3
   1007c:	e5d22001 	ldrb	r2, [r2, #1]
   10080:	e7d43003 	ldrb	r3, [r4, r3]
   10084:	e1830402 	orr	r0, r3, r2, lsl #8
   10088:	0afffff2 	beq	10058 <dir_find.part.7+0x378>
   1008c:	eb001e0c 	bl	178c4 <ff_wtoupper>
   10090:	e359003f 	cmp	r9, #63	; 0x3f
   10094:	e1a08000 	mov	r8, r0
   10098:	e1a03089 	lsl	r3, r9, #1
   1009c:	8a000029 	bhi	10148 <dir_find.part.7+0x468>
   100a0:	e19500b3 	ldrh	r0, [r5, r3]
   100a4:	eb001e06 	bl	178c4 <ff_wtoupper>
   100a8:	e1580000 	cmp	r8, r0
   100ac:	e2891001 	add	r1, r9, #1
   100b0:	1a000024 	bne	10148 <dir_find.part.7+0x468>
   100b4:	e1a09001 	mov	r9, r1
   100b8:	eaffffe9 	b	10064 <dir_find.part.7+0x384>
   100bc:	e1530009 	cmp	r3, r9
   100c0:	1affff2a 	bne	fd70 <dir_find.part.7+0x90>
   100c4:	eaffffd5 	b	10020 <dir_find.part.7+0x340>
   100c8:	e596100c 	ldr	r1, [r6, #12]
   100cc:	e2877001 	add	r7, r7, #1
   100d0:	e3510000 	cmp	r1, #0
   100d4:	e5867010 	str	r7, [r6, #16]
   100d8:	e5964000 	ldr	r4, [r6]
   100dc:	1a000003 	bne	100f0 <dir_find.part.7+0x410>
   100e0:	e1d430b8 	ldrh	r3, [r4, #8]
   100e4:	e1530005 	cmp	r3, r5
   100e8:	9affff26 	bls	fd88 <dir_find.part.7+0xa8>
   100ec:	eaffff9b 	b	ff60 <dir_find.part.7+0x280>
   100f0:	e5d43002 	ldrb	r3, [r4, #2]
   100f4:	e2433001 	sub	r3, r3, #1
   100f8:	e0133225 	ands	r3, r3, r5, lsr #4
   100fc:	1affff97 	bne	ff60 <dir_find.part.7+0x280>
   10100:	e3510001 	cmp	r1, #1
   10104:	9a000002 	bls	10114 <dir_find.part.7+0x434>
   10108:	e5943018 	ldr	r3, [r4, #24]
   1010c:	e1510003 	cmp	r1, r3
   10110:	3a000013 	bcc	10164 <dir_find.part.7+0x484>
   10114:	e3a00002 	mov	r0, #2
   10118:	eaffff1b 	b	fd8c <dir_find.part.7+0xac>
   1011c:	e5d43000 	ldrb	r3, [r4]
   10120:	e1a01009 	mov	r1, r9
   10124:	e3130040 	tst	r3, #64	; 0x40
   10128:	e59d9004 	ldr	r9, [sp, #4]
   1012c:	0a000008 	beq	10154 <dir_find.part.7+0x474>
   10130:	e3580000 	cmp	r8, #0
   10134:	0a000006 	beq	10154 <dir_find.part.7+0x474>
   10138:	e1a01081 	lsl	r1, r1, #1
   1013c:	e19530b1 	ldrh	r3, [r5, r1]
   10140:	e3530000 	cmp	r3, #0
   10144:	0a000002 	beq	10154 <dir_find.part.7+0x474>
   10148:	e58db004 	str	fp, [sp, #4]
   1014c:	e3a090ff 	mov	r9, #255	; 0xff
   10150:	eaffff07 	b	fd74 <dir_find.part.7+0x94>
   10154:	e2499001 	sub	r9, r9, #1
   10158:	e6ef9079 	uxtb	r9, r9
   1015c:	e58db004 	str	fp, [sp, #4]
   10160:	eaffff03 	b	fd74 <dir_find.part.7+0x94>
   10164:	e1a00004 	mov	r0, r4
   10168:	ebfffa9a 	bl	ebd8 <get_fat.part.5>
   1016c:	e3500001 	cmp	r0, #1
   10170:	9affffe7 	bls	10114 <dir_find.part.7+0x434>
   10174:	e3700001 	cmn	r0, #1
   10178:	0affff9b 	beq	ffec <dir_find.part.7+0x30c>
   1017c:	e5964000 	ldr	r4, [r6]
   10180:	e5943018 	ldr	r3, [r4, #24]
   10184:	e1500003 	cmp	r0, r3
   10188:	2afffefe 	bcs	fd88 <dir_find.part.7+0xa8>
   1018c:	e2433002 	sub	r3, r3, #2
   10190:	e2402002 	sub	r2, r0, #2
   10194:	e1520003 	cmp	r2, r3
   10198:	e586000c 	str	r0, [r6, #12]
   1019c:	35d47002 	ldrbcc	r7, [r4, #2]
   101a0:	3594302c 	ldrcc	r3, [r4, #44]	; 0x2c
   101a4:	23a07000 	movcs	r7, #0
   101a8:	30273297 	mlacc	r7, r7, r2, r3
   101ac:	e5867010 	str	r7, [r6, #16]
   101b0:	eaffff6a 	b	ff60 <dir_find.part.7+0x280>
   101b4:	0001d687 	andeq	sp, r1, r7, lsl #13
   101b8:	0000ffff 	strdeq	pc, [r0], -pc	; <UNPREDICTABLE>
   101bc:	0001d694 	muleq	r1, r4, r6

000101c0 <follow_path>:
   101c0:	e92d4ff0 	push	{r4, r5, r6, r7, r8, r9, sl, fp, lr}
   101c4:	e5d13000 	ldrb	r3, [r1]
   101c8:	e3a07000 	mov	r7, #0
   101cc:	e353002f 	cmp	r3, #47	; 0x2f
   101d0:	1353005c 	cmpne	r3, #92	; 0x5c
   101d4:	e1a09001 	mov	r9, r1
   101d8:	e5807008 	str	r7, [r0, #8]
   101dc:	02819001 	addeq	r9, r1, #1
   101e0:	e1a05000 	mov	r5, r0
   101e4:	e5d90000 	ldrb	r0, [r9]
   101e8:	e24dd014 	sub	sp, sp, #20
   101ec:	e350001f 	cmp	r0, #31
   101f0:	859f8464 	ldrhi	r8, [pc, #1124]	; 1065c <follow_path+0x49c>
   101f4:	9a00010d 	bls	10630 <follow_path+0x470>
   101f8:	e350005c 	cmp	r0, #92	; 0x5c
   101fc:	1350002f 	cmpne	r0, #47	; 0x2f
   10200:	1a000006 	bne	10220 <follow_path+0x60>
   10204:	e2893001 	add	r3, r9, #1
   10208:	e5d30000 	ldrb	r0, [r3]
   1020c:	e1a09003 	mov	r9, r3
   10210:	e350002f 	cmp	r0, #47	; 0x2f
   10214:	1350005c 	cmpne	r0, #92	; 0x5c
   10218:	e2833001 	add	r3, r3, #1
   1021c:	0afffff9 	beq	10208 <follow_path+0x48>
   10220:	e350002f 	cmp	r0, #47	; 0x2f
   10224:	1350001f 	cmpne	r0, #31
   10228:	83a04000 	movhi	r4, #0
   1022c:	93a04001 	movls	r4, #1
   10230:	e595601c 	ldr	r6, [r5, #28]
   10234:	9a000025 	bls	102d0 <follow_path+0x110>
   10238:	e350005c 	cmp	r0, #92	; 0x5c
   1023c:	0a00003c 	beq	10334 <follow_path+0x174>
   10240:	e3a01001 	mov	r1, #1
   10244:	eb001d83 	bl	17858 <ff_convert>
   10248:	e3500000 	cmp	r0, #0
   1024c:	e246b002 	sub	fp, r6, #2
   10250:	e1a0a009 	mov	sl, r9
   10254:	e3a04001 	mov	r4, #1
   10258:	0a000019 	beq	102c4 <follow_path+0x104>
   1025c:	e350007f 	cmp	r0, #127	; 0x7f
   10260:	8a000008 	bhi	10288 <follow_path+0xc8>
   10264:	e3500022 	cmp	r0, #34	; 0x22
   10268:	0a000015 	beq	102c4 <follow_path+0x104>
   1026c:	e59f23ec 	ldr	r2, [pc, #1004]	; 10660 <follow_path+0x4a0>
   10270:	ea000001 	b	1027c <follow_path+0xbc>
   10274:	e1500003 	cmp	r0, r3
   10278:	0a000011 	beq	102c4 <follow_path+0x104>
   1027c:	e5f23001 	ldrb	r3, [r2, #1]!
   10280:	e3530000 	cmp	r3, #0
   10284:	1afffffa 	bne	10274 <follow_path+0xb4>
   10288:	e1eb00b2 	strh	r0, [fp, #2]!
   1028c:	e5fa0001 	ldrb	r0, [sl, #1]!
   10290:	e2843001 	add	r3, r4, #1
   10294:	e350002f 	cmp	r0, #47	; 0x2f
   10298:	1350001f 	cmpne	r0, #31
   1029c:	9a00000d 	bls	102d8 <follow_path+0x118>
   102a0:	e350005c 	cmp	r0, #92	; 0x5c
   102a4:	0a000023 	beq	10338 <follow_path+0x178>
   102a8:	e3530041 	cmp	r3, #65	; 0x41
   102ac:	0a000004 	beq	102c4 <follow_path+0x104>
   102b0:	e3a01001 	mov	r1, #1
   102b4:	e1a04003 	mov	r4, r3
   102b8:	eb001d66 	bl	17858 <ff_convert>
   102bc:	e3500000 	cmp	r0, #0
   102c0:	1affffe5 	bne	1025c <follow_path+0x9c>
   102c4:	e3a00006 	mov	r0, #6
   102c8:	e28dd014 	add	sp, sp, #20
   102cc:	e8bd8ff0 	pop	{r4, r5, r6, r7, r8, r9, sl, fp, pc}
   102d0:	e3a04000 	mov	r4, #0
   102d4:	e3a03001 	mov	r3, #1
   102d8:	e350001f 	cmp	r0, #31
   102dc:	e0899003 	add	r9, r9, r3
   102e0:	93a0b004 	movls	fp, #4
   102e4:	8a000014 	bhi	1033c <follow_path+0x17c>
   102e8:	e3540000 	cmp	r4, #0
   102ec:	0afffff4 	beq	102c4 <follow_path+0x104>
   102f0:	e2442106 	sub	r2, r4, #-2147483647	; 0x80000001
   102f4:	e1a02082 	lsl	r2, r2, #1
   102f8:	e19630b2 	ldrh	r3, [r6, r2]
   102fc:	e3530020 	cmp	r3, #32
   10300:	1353002e 	cmpne	r3, #46	; 0x2e
   10304:	1a00000e 	bne	10344 <follow_path+0x184>
   10308:	e2823002 	add	r3, r2, #2
   1030c:	e0863003 	add	r3, r6, r3
   10310:	ea000004 	b	10328 <follow_path+0x168>
   10314:	e15320b4 	ldrh	r2, [r3, #-4]
   10318:	e2433002 	sub	r3, r3, #2
   1031c:	e352002e 	cmp	r2, #46	; 0x2e
   10320:	13520020 	cmpne	r2, #32
   10324:	1a000006 	bne	10344 <follow_path+0x184>
   10328:	e2544001 	subs	r4, r4, #1
   1032c:	1afffff8 	bne	10314 <follow_path+0x154>
   10330:	eaffffe3 	b	102c4 <follow_path+0x104>
   10334:	e3a03001 	mov	r3, #1
   10338:	e0899003 	add	r9, r9, r3
   1033c:	e3a0b000 	mov	fp, #0
   10340:	eaffffe8 	b	102e8 <follow_path+0x128>
   10344:	e5953018 	ldr	r3, [r5, #24]
   10348:	e3a02020 	mov	r2, #32
   1034c:	e1a01084 	lsl	r1, r4, #1
   10350:	e18670b1 	strh	r7, [r6, r1]
   10354:	e5c32000 	strb	r2, [r3]
   10358:	e5c32001 	strb	r2, [r3, #1]
   1035c:	e5c32002 	strb	r2, [r3, #2]
   10360:	e5c32003 	strb	r2, [r3, #3]
   10364:	e5c32004 	strb	r2, [r3, #4]
   10368:	e5c32005 	strb	r2, [r3, #5]
   1036c:	e5c32006 	strb	r2, [r3, #6]
   10370:	e5c32007 	strb	r2, [r3, #7]
   10374:	e5c32008 	strb	r2, [r3, #8]
   10378:	e5c32009 	strb	r2, [r3, #9]
   1037c:	e5c3200a 	strb	r2, [r3, #10]
   10380:	e1d600b0 	ldrh	r0, [r6]
   10384:	e0863001 	add	r3, r6, r1
   10388:	e350002e 	cmp	r0, #46	; 0x2e
   1038c:	11500002 	cmpne	r0, r2
   10390:	13a0a000 	movne	sl, #0
   10394:	03a0a001 	moveq	sl, #1
   10398:	1a000007 	bne	103bc <follow_path+0x1fc>
   1039c:	e1a02006 	mov	r2, r6
   103a0:	e3a0a000 	mov	sl, #0
   103a4:	e1f200b2 	ldrh	r0, [r2, #2]!
   103a8:	e28aa001 	add	sl, sl, #1
   103ac:	e3500020 	cmp	r0, #32
   103b0:	1350002e 	cmpne	r0, #46	; 0x2e
   103b4:	0afffffa 	beq	103a4 <follow_path+0x1e4>
   103b8:	e38bb003 	orr	fp, fp, #3
   103bc:	e17320b2 	ldrh	r2, [r3, #-2]!
   103c0:	e352002e 	cmp	r2, #46	; 0x2e
   103c4:	0a000001 	beq	103d0 <follow_path+0x210>
   103c8:	e2544001 	subs	r4, r4, #1
   103cc:	1afffffa 	bne	103bc <follow_path+0x1fc>
   103d0:	e3a03000 	mov	r3, #0
   103d4:	e1a0c003 	mov	ip, r3
   103d8:	e3a02008 	mov	r2, #8
   103dc:	e3500000 	cmp	r0, #0
   103e0:	e28aa001 	add	sl, sl, #1
   103e4:	0a000014 	beq	1043c <follow_path+0x27c>
   103e8:	e3500020 	cmp	r0, #32
   103ec:	0a000047 	beq	10510 <follow_path+0x350>
   103f0:	e054e00a 	subs	lr, r4, sl
   103f4:	13a0e001 	movne	lr, #1
   103f8:	e350002e 	cmp	r0, #46	; 0x2e
   103fc:	13a01000 	movne	r1, #0
   10400:	020e1001 	andeq	r1, lr, #1
   10404:	e3510000 	cmp	r1, #0
   10408:	1a000040 	bne	10510 <follow_path+0x350>
   1040c:	e154000a 	cmp	r4, sl
   10410:	11530002 	cmpne	r3, r2
   10414:	33a01000 	movcc	r1, #0
   10418:	23a01001 	movcs	r1, #1
   1041c:	3a000047 	bcc	10540 <follow_path+0x380>
   10420:	e352000b 	cmp	r2, #11
   10424:	0a00008a 	beq	10654 <follow_path+0x494>
   10428:	e35e0000 	cmp	lr, #0
   1042c:	0a000068 	beq	105d4 <follow_path+0x414>
   10430:	e15a0004 	cmp	sl, r4
   10434:	e38bb003 	orr	fp, fp, #3
   10438:	9a000065 	bls	105d4 <follow_path+0x414>
   1043c:	e5953018 	ldr	r3, [r5, #24]
   10440:	e5d31000 	ldrb	r1, [r3]
   10444:	e35100e5 	cmp	r1, #229	; 0xe5
   10448:	03a01005 	moveq	r1, #5
   1044c:	05c31000 	strbeq	r1, [r3]
   10450:	05953018 	ldreq	r3, [r5, #24]
   10454:	e3520008 	cmp	r2, #8
   10458:	01a0c10c 	lsleq	ip, ip, #2
   1045c:	06efc07c 	uxtbeq	ip, ip
   10460:	e20c200c 	and	r2, ip, #12
   10464:	e352000c 	cmp	r2, #12
   10468:	0a00005f 	beq	105ec <follow_path+0x42c>
   1046c:	e20c1003 	and	r1, ip, #3
   10470:	e3510003 	cmp	r1, #3
   10474:	0a00005c 	beq	105ec <follow_path+0x42c>
   10478:	e31b0002 	tst	fp, #2
   1047c:	1a000004 	bne	10494 <follow_path+0x2d4>
   10480:	e20cc003 	and	ip, ip, #3
   10484:	e35c0001 	cmp	ip, #1
   10488:	038bb010 	orreq	fp, fp, #16
   1048c:	e3520004 	cmp	r2, #4
   10490:	038bb008 	orreq	fp, fp, #8
   10494:	e5c3b00b 	strb	fp, [r3, #11]
   10498:	e1a00005 	mov	r0, r5
   1049c:	e3a01000 	mov	r1, #0
   104a0:	ebfffabb 	bl	ef94 <dir_sdi>
   104a4:	e3500000 	cmp	r0, #0
   104a8:	1a00001c 	bne	10520 <follow_path+0x360>
   104ac:	e1a00005 	mov	r0, r5
   104b0:	ebfffe0a 	bl	fce0 <dir_find.part.7>
   104b4:	e5953018 	ldr	r3, [r5, #24]
   104b8:	e3500000 	cmp	r0, #0
   104bc:	e5d3300b 	ldrb	r3, [r3, #11]
   104c0:	1a000018 	bne	10528 <follow_path+0x368>
   104c4:	e3130004 	tst	r3, #4
   104c8:	1affff7e 	bne	102c8 <follow_path+0x108>
   104cc:	e5953014 	ldr	r3, [r5, #20]
   104d0:	e5d3200b 	ldrb	r2, [r3, #11]
   104d4:	e3120010 	tst	r2, #16
   104d8:	0a00005a 	beq	10648 <follow_path+0x488>
   104dc:	e5952000 	ldr	r2, [r5]
   104e0:	e5d3101b 	ldrb	r1, [r3, #27]
   104e4:	e5d20000 	ldrb	r0, [r2]
   104e8:	e5d3201a 	ldrb	r2, [r3, #26]
   104ec:	e3500003 	cmp	r0, #3
   104f0:	e1822401 	orr	r2, r2, r1, lsl #8
   104f4:	05d31015 	ldrbeq	r1, [r3, #21]
   104f8:	05d33014 	ldrbeq	r3, [r3, #20]
   104fc:	01833401 	orreq	r3, r3, r1, lsl #8
   10500:	01822803 	orreq	r2, r2, r3, lsl #16
   10504:	e5852008 	str	r2, [r5, #8]
   10508:	e5d90000 	ldrb	r0, [r9]
   1050c:	eaffff39 	b	101f8 <follow_path+0x38>
   10510:	e38bb003 	orr	fp, fp, #3
   10514:	e1a0108a 	lsl	r1, sl, #1
   10518:	e19600b1 	ldrh	r0, [r6, r1]
   1051c:	eaffffae 	b	103dc <follow_path+0x21c>
   10520:	e5953018 	ldr	r3, [r5, #24]
   10524:	e5d3300b 	ldrb	r3, [r3, #11]
   10528:	e3500004 	cmp	r0, #4
   1052c:	1affff65 	bne	102c8 <follow_path+0x108>
   10530:	e3130004 	tst	r3, #4
   10534:	03a00005 	moveq	r0, #5
   10538:	e28dd014 	add	sp, sp, #20
   1053c:	e8bd8ff0 	pop	{r4, r5, r6, r7, r8, r9, sl, fp, pc}
   10540:	e350007f 	cmp	r0, #127	; 0x7f
   10544:	8a000012 	bhi	10594 <follow_path+0x3d4>
   10548:	e350002b 	cmp	r0, #43	; 0x2b
   1054c:	0a00001a 	beq	105bc <follow_path+0x3fc>
   10550:	e59fe10c 	ldr	lr, [pc, #268]	; 10664 <follow_path+0x4a4>
   10554:	ea000001 	b	10560 <follow_path+0x3a0>
   10558:	e1500001 	cmp	r0, r1
   1055c:	0a000016 	beq	105bc <follow_path+0x3fc>
   10560:	e5fe1001 	ldrb	r1, [lr, #1]!
   10564:	e3510000 	cmp	r1, #0
   10568:	1afffffa 	bne	10558 <follow_path+0x398>
   1056c:	e2401041 	sub	r1, r0, #65	; 0x41
   10570:	e6ff1071 	uxth	r1, r1
   10574:	e3510019 	cmp	r1, #25
   10578:	938cc002 	orrls	ip, ip, #2
   1057c:	96ef0070 	uxtbls	r0, r0
   10580:	8a00001f 	bhi	10604 <follow_path+0x444>
   10584:	e5951018 	ldr	r1, [r5, #24]
   10588:	e7c10003 	strb	r0, [r1, r3]
   1058c:	e2833001 	add	r3, r3, #1
   10590:	eaffffdf 	b	10514 <follow_path+0x354>
   10594:	e98d100c 	stmib	sp, {r2, r3, ip}
   10598:	eb001cae 	bl	17858 <ff_convert>
   1059c:	e99d100c 	ldmib	sp, {r2, r3, ip}
   105a0:	e3500000 	cmp	r0, #0
   105a4:	0a000012 	beq	105f4 <follow_path+0x434>
   105a8:	e0881000 	add	r1, r8, r0
   105ac:	e5510070 	ldrb	r0, [r1, #-112]	; 0x70
   105b0:	e38bb002 	orr	fp, fp, #2
   105b4:	e3500000 	cmp	r0, #0
   105b8:	1affffe2 	bne	10548 <follow_path+0x388>
   105bc:	e38bb003 	orr	fp, fp, #3
   105c0:	e3a0005f 	mov	r0, #95	; 0x5f
   105c4:	e5951018 	ldr	r1, [r5, #24]
   105c8:	e7c10003 	strb	r0, [r1, r3]
   105cc:	e2833001 	add	r3, r3, #1
   105d0:	eaffffcf 	b	10514 <follow_path+0x354>
   105d4:	e1a0c10c 	lsl	ip, ip, #2
   105d8:	e6efc07c 	uxtb	ip, ip
   105dc:	e1a0a004 	mov	sl, r4
   105e0:	e3a0200b 	mov	r2, #11
   105e4:	e3a03008 	mov	r3, #8
   105e8:	eaffffc9 	b	10514 <follow_path+0x354>
   105ec:	e38bb002 	orr	fp, fp, #2
   105f0:	eaffffa0 	b	10478 <follow_path+0x2b8>
   105f4:	e38bb002 	orr	fp, fp, #2
   105f8:	e38bb003 	orr	fp, fp, #3
   105fc:	e3a0005f 	mov	r0, #95	; 0x5f
   10600:	eaffffef 	b	105c4 <follow_path+0x404>
   10604:	e2401061 	sub	r1, r0, #97	; 0x61
   10608:	e6ff1071 	uxth	r1, r1
   1060c:	e3510019 	cmp	r1, #25
   10610:	92400020 	subls	r0, r0, #32
   10614:	e5951018 	ldr	r1, [r5, #24]
   10618:	86ef0070 	uxtbhi	r0, r0
   1061c:	96ef0070 	uxtbls	r0, r0
   10620:	e7c10003 	strb	r0, [r1, r3]
   10624:	938cc001 	orrls	ip, ip, #1
   10628:	e2833001 	add	r3, r3, #1
   1062c:	eaffffb8 	b	10514 <follow_path+0x354>
   10630:	e1a00005 	mov	r0, r5
   10634:	e1a01007 	mov	r1, r7
   10638:	ebfffa55 	bl	ef94 <dir_sdi>
   1063c:	e5857014 	str	r7, [r5, #20]
   10640:	e28dd014 	add	sp, sp, #20
   10644:	e8bd8ff0 	pop	{r4, r5, r6, r7, r8, r9, sl, fp, pc}
   10648:	e3a00005 	mov	r0, #5
   1064c:	e28dd014 	add	sp, sp, #20
   10650:	e8bd8ff0 	pop	{r4, r5, r6, r7, r8, r9, sl, fp, pc}
   10654:	e38bb003 	orr	fp, fp, #3
   10658:	eaffff77 	b	1043c <follow_path+0x27c>
   1065c:	0001d688 	andeq	sp, r1, r8, lsl #13
   10660:	0001e4b8 			; <UNDEFINED> instruction: 0x0001e4b8
   10664:	0001e4c4 	andeq	lr, r1, r4, asr #9

00010668 <dir_register>:
   10668:	e92d4ff0 	push	{r4, r5, r6, r7, r8, r9, sl, fp, lr}
   1066c:	e590a018 	ldr	sl, [r0, #24]
   10670:	e24dd044 	sub	sp, sp, #68	; 0x44
   10674:	e31a0003 	tst	sl, #3
   10678:	e1a04000 	mov	r4, r0
   1067c:	e590601c 	ldr	r6, [r0, #28]
   10680:	1a000173 	bne	10c54 <dir_register+0x5ec>
   10684:	e89a000e 	ldm	sl, {r1, r2, r3}
   10688:	e58d1030 	str	r1, [sp, #48]	; 0x30
   1068c:	e58d2034 	str	r2, [sp, #52]	; 0x34
   10690:	e58d3038 	str	r3, [sp, #56]	; 0x38
   10694:	e5dd203b 	ldrb	r2, [sp, #59]	; 0x3b
   10698:	e3120001 	tst	r2, #1
   1069c:	e58d2024 	str	r2, [sp, #36]	; 0x24
   106a0:	0a0000d6 	beq	10a00 <dir_register+0x398>
   106a4:	e3a03000 	mov	r3, #0
   106a8:	e5ca300b 	strb	r3, [sl, #11]
   106ac:	e5ddc034 	ldrb	ip, [sp, #52]	; 0x34
   106b0:	e584301c 	str	r3, [r4, #28]
   106b4:	e5dd3033 	ldrb	r3, [sp, #51]	; 0x33
   106b8:	e5dd2035 	ldrb	r2, [sp, #53]	; 0x35
   106bc:	e58d3008 	str	r3, [sp, #8]
   106c0:	e58dc00c 	str	ip, [sp, #12]
   106c4:	e5dd3036 	ldrb	r3, [sp, #54]	; 0x36
   106c8:	e5ddc037 	ldrb	ip, [sp, #55]	; 0x37
   106cc:	e58d2010 	str	r2, [sp, #16]
   106d0:	e58d3014 	str	r3, [sp, #20]
   106d4:	e58dc018 	str	ip, [sp, #24]
   106d8:	e5dd2038 	ldrb	r2, [sp, #56]	; 0x38
   106dc:	e5dd3039 	ldrb	r3, [sp, #57]	; 0x39
   106e0:	e5ddc03a 	ldrb	ip, [sp, #58]	; 0x3a
   106e4:	e5dd9030 	ldrb	r9, [sp, #48]	; 0x30
   106e8:	e5dd8031 	ldrb	r8, [sp, #49]	; 0x31
   106ec:	e5dd7032 	ldrb	r7, [sp, #50]	; 0x32
   106f0:	e58d201c 	str	r2, [sp, #28]
   106f4:	e58d3020 	str	r3, [sp, #32]
   106f8:	e58dc004 	str	ip, [sp, #4]
   106fc:	e3a0b001 	mov	fp, #1
   10700:	e3a0507e 	mov	r5, #126	; 0x7e
   10704:	e59d2008 	ldr	r2, [sp, #8]
   10708:	e59d300c 	ldr	r3, [sp, #12]
   1070c:	e59dc010 	ldr	ip, [sp, #16]
   10710:	e5ca2003 	strb	r2, [sl, #3]
   10714:	e5ca3004 	strb	r3, [sl, #4]
   10718:	e59d2014 	ldr	r2, [sp, #20]
   1071c:	e59d3018 	ldr	r3, [sp, #24]
   10720:	e5cac005 	strb	ip, [sl, #5]
   10724:	e5ca2006 	strb	r2, [sl, #6]
   10728:	e5ca3007 	strb	r3, [sl, #7]
   1072c:	e59dc01c 	ldr	ip, [sp, #28]
   10730:	e59d3004 	ldr	r3, [sp, #4]
   10734:	e59d2020 	ldr	r2, [sp, #32]
   10738:	e35b0005 	cmp	fp, #5
   1073c:	e5ca300a 	strb	r3, [sl, #10]
   10740:	e5ca9000 	strb	r9, [sl]
   10744:	e5ca8001 	strb	r8, [sl, #1]
   10748:	e5ca7002 	strb	r7, [sl, #2]
   1074c:	e5cac008 	strb	ip, [sl, #8]
   10750:	e5ca2009 	strb	r2, [sl, #9]
   10754:	91a0300b 	movls	r3, fp
   10758:	9a00000b 	bls	1078c <dir_register+0x124>
   1075c:	e1a01006 	mov	r1, r6
   10760:	e1d600b0 	ldrh	r0, [r6]
   10764:	e1a0300b 	mov	r3, fp
   10768:	ea000000 	b	10770 <dir_register+0x108>
   1076c:	e1a00002 	mov	r0, r2
   10770:	e1a0c783 	lsl	ip, r3, #15
   10774:	e1f120b2 	ldrh	r2, [r1, #2]!
   10778:	e18c30a3 	orr	r3, ip, r3, lsr #1
   1077c:	e6f03073 	uxtah	r3, r0, r3
   10780:	e3520000 	cmp	r2, #0
   10784:	e6ff3073 	uxth	r3, r3
   10788:	1afffff7 	bne	1076c <dir_register+0x104>
   1078c:	e203100f 	and	r1, r3, #15
   10790:	e2812030 	add	r2, r1, #48	; 0x30
   10794:	e1a03223 	lsr	r3, r3, #4
   10798:	e3520039 	cmp	r2, #57	; 0x39
   1079c:	e6ff3073 	uxth	r3, r3
   107a0:	82812037 	addhi	r2, r1, #55	; 0x37
   107a4:	e3530000 	cmp	r3, #0
   107a8:	e5cd202f 	strb	r2, [sp, #47]	; 0x2f
   107ac:	0a00008b 	beq	109e0 <dir_register+0x378>
   107b0:	e203100f 	and	r1, r3, #15
   107b4:	e2812030 	add	r2, r1, #48	; 0x30
   107b8:	e3520039 	cmp	r2, #57	; 0x39
   107bc:	82812037 	addhi	r2, r1, #55	; 0x37
   107c0:	e1b03223 	lsrs	r3, r3, #4
   107c4:	e5cd202e 	strb	r2, [sp, #46]	; 0x2e
   107c8:	0a000081 	beq	109d4 <dir_register+0x36c>
   107cc:	e203200f 	and	r2, r3, #15
   107d0:	e2821030 	add	r1, r2, #48	; 0x30
   107d4:	e3510039 	cmp	r1, #57	; 0x39
   107d8:	82821037 	addhi	r1, r2, #55	; 0x37
   107dc:	e1b03223 	lsrs	r3, r3, #4
   107e0:	e5cd102d 	strb	r1, [sp, #45]	; 0x2d
   107e4:	0a000077 	beq	109c8 <dir_register+0x360>
   107e8:	e6ef3073 	uxtb	r3, r3
   107ec:	e2832030 	add	r2, r3, #48	; 0x30
   107f0:	e6ef2072 	uxtb	r2, r2
   107f4:	e3520039 	cmp	r2, #57	; 0x39
   107f8:	82833037 	addhi	r3, r3, #55	; 0x37
   107fc:	86ef2073 	uxtbhi	r2, r3
   10800:	e5cd202c 	strb	r2, [sp, #44]	; 0x2c
   10804:	e3a0e004 	mov	lr, #4
   10808:	e3a0c003 	mov	ip, #3
   1080c:	e28d0040 	add	r0, sp, #64	; 0x40
   10810:	e080300c 	add	r3, r0, ip
   10814:	e5435018 	strb	r5, [r3, #-24]
   10818:	e1a0100a 	mov	r1, sl
   1081c:	e3a03000 	mov	r3, #0
   10820:	e5d10000 	ldrb	r0, [r1]
   10824:	e1a02001 	mov	r2, r1
   10828:	e3500020 	cmp	r0, #32
   1082c:	e2811001 	add	r1, r1, #1
   10830:	0a000003 	beq	10844 <dir_register+0x1dc>
   10834:	e2833001 	add	r3, r3, #1
   10838:	e153000c 	cmp	r3, ip
   1083c:	3afffff7 	bcc	10820 <dir_register+0x1b8>
   10840:	e08a2003 	add	r2, sl, r3
   10844:	e2831001 	add	r1, r3, #1
   10848:	e3510007 	cmp	r1, #7
   1084c:	e5c25000 	strb	r5, [r2]
   10850:	8a00003f 	bhi	10954 <dir_register+0x2ec>
   10854:	e28d2040 	add	r2, sp, #64	; 0x40
   10858:	e082e00e 	add	lr, r2, lr
   1085c:	e55e2018 	ldrb	r2, [lr, #-24]
   10860:	e2830002 	add	r0, r3, #2
   10864:	e3500008 	cmp	r0, #8
   10868:	e7ca2001 	strb	r2, [sl, r1]
   1086c:	e28c2002 	add	r2, ip, #2
   10870:	0a000037 	beq	10954 <dir_register+0x2ec>
   10874:	e3520008 	cmp	r2, #8
   10878:	128de040 	addne	lr, sp, #64	; 0x40
   1087c:	108e2002 	addne	r2, lr, r2
   10880:	1552e018 	ldrbne	lr, [r2, #-24]
   10884:	e2831003 	add	r1, r3, #3
   10888:	03a0e020 	moveq	lr, #32
   1088c:	128c2003 	addne	r2, ip, #3
   10890:	e3510008 	cmp	r1, #8
   10894:	e7cae000 	strb	lr, [sl, r0]
   10898:	0a00002d 	beq	10954 <dir_register+0x2ec>
   1089c:	e3520008 	cmp	r2, #8
   108a0:	128de040 	addne	lr, sp, #64	; 0x40
   108a4:	108e0002 	addne	r0, lr, r2
   108a8:	15500018 	ldrbne	r0, [r0, #-24]
   108ac:	e283c004 	add	ip, r3, #4
   108b0:	03a00020 	moveq	r0, #32
   108b4:	12822001 	addne	r2, r2, #1
   108b8:	e35c0008 	cmp	ip, #8
   108bc:	e7ca0001 	strb	r0, [sl, r1]
   108c0:	0a000023 	beq	10954 <dir_register+0x2ec>
   108c4:	e3520008 	cmp	r2, #8
   108c8:	128de040 	addne	lr, sp, #64	; 0x40
   108cc:	108e1002 	addne	r1, lr, r2
   108d0:	15511018 	ldrbne	r1, [r1, #-24]
   108d4:	e2830005 	add	r0, r3, #5
   108d8:	03a01020 	moveq	r1, #32
   108dc:	12822001 	addne	r2, r2, #1
   108e0:	e3500008 	cmp	r0, #8
   108e4:	e7ca100c 	strb	r1, [sl, ip]
   108e8:	0a000019 	beq	10954 <dir_register+0x2ec>
   108ec:	e3520008 	cmp	r2, #8
   108f0:	128de040 	addne	lr, sp, #64	; 0x40
   108f4:	108ec002 	addne	ip, lr, r2
   108f8:	155cc018 	ldrbne	ip, [ip, #-24]
   108fc:	e2831006 	add	r1, r3, #6
   10900:	03a0c020 	moveq	ip, #32
   10904:	12822001 	addne	r2, r2, #1
   10908:	e3510008 	cmp	r1, #8
   1090c:	e7cac000 	strb	ip, [sl, r0]
   10910:	0a00000f 	beq	10954 <dir_register+0x2ec>
   10914:	e3520008 	cmp	r2, #8
   10918:	128de040 	addne	lr, sp, #64	; 0x40
   1091c:	108ec002 	addne	ip, lr, r2
   10920:	155cc018 	ldrbne	ip, [ip, #-24]
   10924:	e2830007 	add	r0, r3, #7
   10928:	03a0c020 	moveq	ip, #32
   1092c:	12822001 	addne	r2, r2, #1
   10930:	e3500008 	cmp	r0, #8
   10934:	e7cac001 	strb	ip, [sl, r1]
   10938:	0a000005 	beq	10954 <dir_register+0x2ec>
   1093c:	e3520008 	cmp	r2, #8
   10940:	1a000013 	bne	10994 <dir_register+0x32c>
   10944:	e3730001 	cmn	r3, #1
   10948:	e3a03020 	mov	r3, #32
   1094c:	e7ca3000 	strb	r3, [sl, r0]
   10950:	05ca3007 	strbeq	r3, [sl, #7]
   10954:	e1a00004 	mov	r0, r4
   10958:	e3a01000 	mov	r1, #0
   1095c:	ebfff98c 	bl	ef94 <dir_sdi>
   10960:	e3500000 	cmp	r0, #0
   10964:	1a000020 	bne	109ec <dir_register+0x384>
   10968:	e1a00004 	mov	r0, r4
   1096c:	ebfffcdb 	bl	fce0 <dir_find.part.7>
   10970:	e3500000 	cmp	r0, #0
   10974:	1a00001c 	bne	109ec <dir_register+0x384>
   10978:	e28bb001 	add	fp, fp, #1
   1097c:	e6ffb07b 	uxth	fp, fp
   10980:	e35b0064 	cmp	fp, #100	; 0x64
   10984:	1affff5e 	bne	10704 <dir_register+0x9c>
   10988:	e3a00007 	mov	r0, #7
   1098c:	e28dd044 	add	sp, sp, #68	; 0x44
   10990:	e8bd8ff0 	pop	{r4, r5, r6, r7, r8, r9, sl, fp, pc}
   10994:	e28dc040 	add	ip, sp, #64	; 0x40
   10998:	e08c1002 	add	r1, ip, r2
   1099c:	e5511018 	ldrb	r1, [r1, #-24]
   109a0:	e3730001 	cmn	r3, #1
   109a4:	e7ca1000 	strb	r1, [sl, r0]
   109a8:	e2822001 	add	r2, r2, #1
   109ac:	1affffe8 	bne	10954 <dir_register+0x2ec>
   109b0:	e3520008 	cmp	r2, #8
   109b4:	108c2002 	addne	r2, ip, r2
   109b8:	15523018 	ldrbne	r3, [r2, #-24]
   109bc:	03a03020 	moveq	r3, #32
   109c0:	e5ca3007 	strb	r3, [sl, #7]
   109c4:	eaffffe2 	b	10954 <dir_register+0x2ec>
   109c8:	e3a0e005 	mov	lr, #5
   109cc:	e3a0c004 	mov	ip, #4
   109d0:	eaffff8d 	b	1080c <dir_register+0x1a4>
   109d4:	e3a0e006 	mov	lr, #6
   109d8:	e3a0c005 	mov	ip, #5
   109dc:	eaffff8a 	b	1080c <dir_register+0x1a4>
   109e0:	e3a0e007 	mov	lr, #7
   109e4:	e3a0c006 	mov	ip, #6
   109e8:	eaffff87 	b	1080c <dir_register+0x1a4>
   109ec:	e3500004 	cmp	r0, #4
   109f0:	1a00002e 	bne	10ab0 <dir_register+0x448>
   109f4:	e59d9024 	ldr	r9, [sp, #36]	; 0x24
   109f8:	e5ca900b 	strb	r9, [sl, #11]
   109fc:	e584601c 	str	r6, [r4, #28]
   10a00:	e59dc024 	ldr	ip, [sp, #36]	; 0x24
   10a04:	e31c0002 	tst	ip, #2
   10a08:	1a00002a 	bne	10ab8 <dir_register+0x450>
   10a0c:	e3a0b001 	mov	fp, #1
   10a10:	e58db004 	str	fp, [sp, #4]
   10a14:	e1a00004 	mov	r0, r4
   10a18:	e3a01000 	mov	r1, #0
   10a1c:	ebfff95c 	bl	ef94 <dir_sdi>
   10a20:	e3500000 	cmp	r0, #0
   10a24:	1a000021 	bne	10ab0 <dir_register+0x448>
   10a28:	e5949000 	ldr	r9, [r4]
   10a2c:	e5947010 	ldr	r7, [r4, #16]
   10a30:	e1a05000 	mov	r5, r0
   10a34:	e5996030 	ldr	r6, [r9, #48]	; 0x30
   10a38:	e1560007 	cmp	r6, r7
   10a3c:	0a00000b 	beq	10a70 <dir_register+0x408>
   10a40:	e5d93004 	ldrb	r3, [r9, #4]
   10a44:	e2898034 	add	r8, r9, #52	; 0x34
   10a48:	e3530000 	cmp	r3, #0
   10a4c:	1a000051 	bne	10b98 <dir_register+0x530>
   10a50:	e1a01008 	mov	r1, r8
   10a54:	e5d90001 	ldrb	r0, [r9, #1]
   10a58:	e1a02007 	mov	r2, r7
   10a5c:	e3a03001 	mov	r3, #1
   10a60:	eb001bbb 	bl	17954 <disk_read>
   10a64:	e3500000 	cmp	r0, #0
   10a68:	1a000047 	bne	10b8c <dir_register+0x524>
   10a6c:	e5897030 	str	r7, [r9, #48]	; 0x30
   10a70:	e5943014 	ldr	r3, [r4, #20]
   10a74:	e5d33000 	ldrb	r3, [r3]
   10a78:	e35300e5 	cmp	r3, #229	; 0xe5
   10a7c:	13530000 	cmpne	r3, #0
   10a80:	13a03000 	movne	r3, #0
   10a84:	03a03001 	moveq	r3, #1
   10a88:	1a000028 	bne	10b30 <dir_register+0x4c8>
   10a8c:	e2855001 	add	r5, r5, #1
   10a90:	e155000b 	cmp	r5, fp
   10a94:	0a000027 	beq	10b38 <dir_register+0x4d0>
   10a98:	e1d460b6 	ldrh	r6, [r4, #6]
   10a9c:	e2866001 	add	r6, r6, #1
   10aa0:	e6ff6076 	uxth	r6, r6
   10aa4:	e3560000 	cmp	r6, #0
   10aa8:	1a000015 	bne	10b04 <dir_register+0x49c>
   10aac:	e3a00004 	mov	r0, #4
   10ab0:	e28dd044 	add	sp, sp, #68	; 0x44
   10ab4:	e8bd8ff0 	pop	{r4, r5, r6, r7, r8, r9, sl, fp, pc}
   10ab8:	e1d630b0 	ldrh	r3, [r6]
   10abc:	e3530000 	cmp	r3, #0
   10ac0:	0affffd1 	beq	10a0c <dir_register+0x3a4>
   10ac4:	e3a03000 	mov	r3, #0
   10ac8:	e2833001 	add	r3, r3, #1
   10acc:	e6ff3073 	uxth	r3, r3
   10ad0:	e1a02083 	lsl	r2, r3, #1
   10ad4:	e19620b2 	ldrh	r2, [r6, r2]
   10ad8:	e3520000 	cmp	r2, #0
   10adc:	1afffff9 	bne	10ac8 <dir_register+0x460>
   10ae0:	e59f289c 	ldr	r2, [pc, #2204]	; 11384 <dir_register+0xd1c>
   10ae4:	e2833019 	add	r3, r3, #25
   10ae8:	e0c2e392 	smull	lr, r2, r2, r3
   10aec:	e1a03fc3 	asr	r3, r3, #31
   10af0:	e0633142 	rsb	r3, r3, r2, asr #2
   10af4:	e6ff9073 	uxth	r9, r3
   10af8:	e1a0b003 	mov	fp, r3
   10afc:	e58d9004 	str	r9, [sp, #4]
   10b00:	eaffffc3 	b	10a14 <dir_register+0x3ac>
   10b04:	e5947010 	ldr	r7, [r4, #16]
   10b08:	e3570000 	cmp	r7, #0
   10b0c:	0affffe6 	beq	10aac <dir_register+0x444>
   10b10:	e216800f 	ands	r8, r6, #15
   10b14:	0a00003d 	beq	10c10 <dir_register+0x5a8>
   10b18:	e5949000 	ldr	r9, [r4]
   10b1c:	e0893288 	add	r3, r9, r8, lsl #5
   10b20:	e2833034 	add	r3, r3, #52	; 0x34
   10b24:	e5843014 	str	r3, [r4, #20]
   10b28:	e1c460b6 	strh	r6, [r4, #6]
   10b2c:	eaffffc0 	b	10a34 <dir_register+0x3cc>
   10b30:	e1a05003 	mov	r5, r3
   10b34:	eaffffd7 	b	10a98 <dir_register+0x430>
   10b38:	e59d9004 	ldr	r9, [sp, #4]
   10b3c:	e2493001 	sub	r3, r9, #1
   10b40:	e6ffb073 	uxth	fp, r3
   10b44:	e35b0000 	cmp	fp, #0
   10b48:	1a00005e 	bne	10cc8 <dir_register+0x660>
   10b4c:	e5945000 	ldr	r5, [r4]
   10b50:	e5949010 	ldr	r9, [r4, #16]
   10b54:	e5956030 	ldr	r6, [r5, #48]	; 0x30
   10b58:	e1590006 	cmp	r9, r6
   10b5c:	0a00010c 	beq	10f94 <dir_register+0x92c>
   10b60:	e5d53004 	ldrb	r3, [r5, #4]
   10b64:	e2857034 	add	r7, r5, #52	; 0x34
   10b68:	e3530000 	cmp	r3, #0
   10b6c:	1a000154 	bne	110c4 <dir_register+0xa5c>
   10b70:	e1a01007 	mov	r1, r7
   10b74:	e5d50001 	ldrb	r0, [r5, #1]
   10b78:	e1a02009 	mov	r2, r9
   10b7c:	e3a03001 	mov	r3, #1
   10b80:	eb001b73 	bl	17954 <disk_read>
   10b84:	e3500000 	cmp	r0, #0
   10b88:	0a000100 	beq	10f90 <dir_register+0x928>
   10b8c:	e3a00001 	mov	r0, #1
   10b90:	e28dd044 	add	sp, sp, #68	; 0x44
   10b94:	e8bd8ff0 	pop	{r4, r5, r6, r7, r8, r9, sl, fp, pc}
   10b98:	e1a01008 	mov	r1, r8
   10b9c:	e5d90001 	ldrb	r0, [r9, #1]
   10ba0:	e1a02006 	mov	r2, r6
   10ba4:	e3a03001 	mov	r3, #1
   10ba8:	eb001b87 	bl	179cc <disk_write>
   10bac:	e3500000 	cmp	r0, #0
   10bb0:	1afffff5 	bne	10b8c <dir_register+0x524>
   10bb4:	e5992024 	ldr	r2, [r9, #36]	; 0x24
   10bb8:	e5c90004 	strb	r0, [r9, #4]
   10bbc:	e1560002 	cmp	r6, r2
   10bc0:	3affffa2 	bcc	10a50 <dir_register+0x3e8>
   10bc4:	e599301c 	ldr	r3, [r9, #28]
   10bc8:	e0832002 	add	r2, r3, r2
   10bcc:	e1560002 	cmp	r6, r2
   10bd0:	2affff9e 	bcs	10a50 <dir_register+0x3e8>
   10bd4:	e5d9a003 	ldrb	sl, [r9, #3]
   10bd8:	e35a0001 	cmp	sl, #1
   10bdc:	8a000001 	bhi	10be8 <dir_register+0x580>
   10be0:	eaffff9a 	b	10a50 <dir_register+0x3e8>
   10be4:	e599301c 	ldr	r3, [r9, #28]
   10be8:	e0866003 	add	r6, r6, r3
   10bec:	e24aa001 	sub	sl, sl, #1
   10bf0:	e1a02006 	mov	r2, r6
   10bf4:	e5d90001 	ldrb	r0, [r9, #1]
   10bf8:	e1a01008 	mov	r1, r8
   10bfc:	e3a03001 	mov	r3, #1
   10c00:	eb001b71 	bl	179cc <disk_write>
   10c04:	e35a0001 	cmp	sl, #1
   10c08:	1afffff5 	bne	10be4 <dir_register+0x57c>
   10c0c:	eaffff8f 	b	10a50 <dir_register+0x3e8>
   10c10:	e594100c 	ldr	r1, [r4, #12]
   10c14:	e2877001 	add	r7, r7, #1
   10c18:	e3510000 	cmp	r1, #0
   10c1c:	e5847010 	str	r7, [r4, #16]
   10c20:	e5949000 	ldr	r9, [r4]
   10c24:	0a000023 	beq	10cb8 <dir_register+0x650>
   10c28:	e5d93002 	ldrb	r3, [r9, #2]
   10c2c:	e2433001 	sub	r3, r3, #1
   10c30:	e0133226 	ands	r3, r3, r6, lsr #4
   10c34:	1affffb8 	bne	10b1c <dir_register+0x4b4>
   10c38:	e3510001 	cmp	r1, #1
   10c3c:	9a000002 	bls	10c4c <dir_register+0x5e4>
   10c40:	e5993018 	ldr	r3, [r9, #24]
   10c44:	e1510003 	cmp	r1, r3
   10c48:	3a00013b 	bcc	1113c <dir_register+0xad4>
   10c4c:	e3a00002 	mov	r0, #2
   10c50:	eaffff96 	b	10ab0 <dir_register+0x448>
   10c54:	e5da3000 	ldrb	r3, [sl]
   10c58:	e5dab001 	ldrb	fp, [sl, #1]
   10c5c:	e5da9002 	ldrb	r9, [sl, #2]
   10c60:	e5da8003 	ldrb	r8, [sl, #3]
   10c64:	e5da7004 	ldrb	r7, [sl, #4]
   10c68:	e5da5005 	ldrb	r5, [sl, #5]
   10c6c:	e5dae006 	ldrb	lr, [sl, #6]
   10c70:	e5dac007 	ldrb	ip, [sl, #7]
   10c74:	e5da0008 	ldrb	r0, [sl, #8]
   10c78:	e5da1009 	ldrb	r1, [sl, #9]
   10c7c:	e5da200a 	ldrb	r2, [sl, #10]
   10c80:	e5cd3030 	strb	r3, [sp, #48]	; 0x30
   10c84:	e5da300b 	ldrb	r3, [sl, #11]
   10c88:	e5cdb031 	strb	fp, [sp, #49]	; 0x31
   10c8c:	e5cd9032 	strb	r9, [sp, #50]	; 0x32
   10c90:	e5cd8033 	strb	r8, [sp, #51]	; 0x33
   10c94:	e5cd7034 	strb	r7, [sp, #52]	; 0x34
   10c98:	e5cd5035 	strb	r5, [sp, #53]	; 0x35
   10c9c:	e5cde036 	strb	lr, [sp, #54]	; 0x36
   10ca0:	e5cdc037 	strb	ip, [sp, #55]	; 0x37
   10ca4:	e5cd0038 	strb	r0, [sp, #56]	; 0x38
   10ca8:	e5cd1039 	strb	r1, [sp, #57]	; 0x39
   10cac:	e5cd203a 	strb	r2, [sp, #58]	; 0x3a
   10cb0:	e5cd303b 	strb	r3, [sp, #59]	; 0x3b
   10cb4:	eafffe76 	b	10694 <dir_register+0x2c>
   10cb8:	e1d930b8 	ldrh	r3, [r9, #8]
   10cbc:	e1530006 	cmp	r3, r6
   10cc0:	9affff79 	bls	10aac <dir_register+0x444>
   10cc4:	eaffff94 	b	10b1c <dir_register+0x4b4>
   10cc8:	e1d410b6 	ldrh	r1, [r4, #6]
   10ccc:	e1a00004 	mov	r0, r4
   10cd0:	e06b1001 	rsb	r1, fp, r1
   10cd4:	e6ff1071 	uxth	r1, r1
   10cd8:	ebfff8ad 	bl	ef94 <dir_sdi>
   10cdc:	e3500000 	cmp	r0, #0
   10ce0:	1affff72 	bne	10ab0 <dir_register+0x448>
   10ce4:	e5943018 	ldr	r3, [r4, #24]
   10ce8:	e59f7698 	ldr	r7, [pc, #1688]	; 11388 <dir_register+0xd20>
   10cec:	e5d31000 	ldrb	r1, [r3]
   10cf0:	e5d32001 	ldrb	r2, [r3, #1]
   10cf4:	e1a0c381 	lsl	ip, r1, #7
   10cf8:	e18c10a1 	orr	r1, ip, r1, lsr #1
   10cfc:	e0812002 	add	r2, r1, r2
   10d00:	e6efc072 	uxtb	ip, r2
   10d04:	e5d31002 	ldrb	r1, [r3, #2]
   10d08:	e1a02382 	lsl	r2, r2, #7
   10d0c:	e18220ac 	orr	r2, r2, ip, lsr #1
   10d10:	e6e12072 	uxtab	r2, r1, r2
   10d14:	e6efc072 	uxtb	ip, r2
   10d18:	e5d31003 	ldrb	r1, [r3, #3]
   10d1c:	e1a02382 	lsl	r2, r2, #7
   10d20:	e18220ac 	orr	r2, r2, ip, lsr #1
   10d24:	e6e12072 	uxtab	r2, r1, r2
   10d28:	e6efc072 	uxtb	ip, r2
   10d2c:	e5d31004 	ldrb	r1, [r3, #4]
   10d30:	e1a02382 	lsl	r2, r2, #7
   10d34:	e18220ac 	orr	r2, r2, ip, lsr #1
   10d38:	e6e12072 	uxtab	r2, r1, r2
   10d3c:	e6efc072 	uxtb	ip, r2
   10d40:	e5d31005 	ldrb	r1, [r3, #5]
   10d44:	e1a02382 	lsl	r2, r2, #7
   10d48:	e18220ac 	orr	r2, r2, ip, lsr #1
   10d4c:	e6e12072 	uxtab	r2, r1, r2
   10d50:	e6efc072 	uxtb	ip, r2
   10d54:	e5d31006 	ldrb	r1, [r3, #6]
   10d58:	e1a02382 	lsl	r2, r2, #7
   10d5c:	e18220ac 	orr	r2, r2, ip, lsr #1
   10d60:	e6e12072 	uxtab	r2, r1, r2
   10d64:	e6efc072 	uxtb	ip, r2
   10d68:	e5d31007 	ldrb	r1, [r3, #7]
   10d6c:	e1a02382 	lsl	r2, r2, #7
   10d70:	e18220ac 	orr	r2, r2, ip, lsr #1
   10d74:	e6e12072 	uxtab	r2, r1, r2
   10d78:	e6efc072 	uxtb	ip, r2
   10d7c:	e5d31008 	ldrb	r1, [r3, #8]
   10d80:	e1a02382 	lsl	r2, r2, #7
   10d84:	e18220ac 	orr	r2, r2, ip, lsr #1
   10d88:	e6e12072 	uxtab	r2, r1, r2
   10d8c:	e6efc072 	uxtb	ip, r2
   10d90:	e5d31009 	ldrb	r1, [r3, #9]
   10d94:	e1a02382 	lsl	r2, r2, #7
   10d98:	e18220ac 	orr	r2, r2, ip, lsr #1
   10d9c:	e6e12072 	uxtab	r2, r1, r2
   10da0:	e6ef1072 	uxtb	r1, r2
   10da4:	e5d3300a 	ldrb	r3, [r3, #10]
   10da8:	e1a02382 	lsl	r2, r2, #7
   10dac:	e18220a1 	orr	r2, r2, r1, lsr #1
   10db0:	e6e33072 	uxtab	r3, r3, r2
   10db4:	e6ef3073 	uxtb	r3, r3
   10db8:	e59f65cc 	ldr	r6, [pc, #1484]	; 1138c <dir_register+0xd24>
   10dbc:	e1a0a000 	mov	sl, r0
   10dc0:	e58d300c 	str	r3, [sp, #12]
   10dc4:	e3e08000 	mvn	r8, #0
   10dc8:	e5949010 	ldr	r9, [r4, #16]
   10dcc:	e5945000 	ldr	r5, [r4]
   10dd0:	e58d9004 	str	r9, [sp, #4]
   10dd4:	e59dc004 	ldr	ip, [sp, #4]
   10dd8:	e5959030 	ldr	r9, [r5, #48]	; 0x30
   10ddc:	e15c0009 	cmp	ip, r9
   10de0:	0a00000d 	beq	10e1c <dir_register+0x7b4>
   10de4:	e5d53004 	ldrb	r3, [r5, #4]
   10de8:	e3530000 	cmp	r3, #0
   10dec:	02859034 	addeq	r9, r5, #52	; 0x34
   10df0:	058d9008 	streq	r9, [sp, #8]
   10df4:	1a000042 	bne	10f04 <dir_register+0x89c>
   10df8:	e59d1008 	ldr	r1, [sp, #8]
   10dfc:	e5d50001 	ldrb	r0, [r5, #1]
   10e00:	e59d2004 	ldr	r2, [sp, #4]
   10e04:	e3a03001 	mov	r3, #1
   10e08:	eb001ad1 	bl	17954 <disk_read>
   10e0c:	e3500000 	cmp	r0, #0
   10e10:	1affff5d 	bne	10b8c <dir_register+0x524>
   10e14:	e59dc004 	ldr	ip, [sp, #4]
   10e18:	e585c030 	str	ip, [r5, #48]	; 0x30
   10e1c:	e6ef907b 	uxtb	r9, fp
   10e20:	e594c014 	ldr	ip, [r4, #20]
   10e24:	e2492001 	sub	r2, r9, #1
   10e28:	e59de00c 	ldr	lr, [sp, #12]
   10e2c:	e0820082 	add	r0, r2, r2, lsl #1
   10e30:	e3a03000 	mov	r3, #0
   10e34:	e3a0100f 	mov	r1, #15
   10e38:	e594501c 	ldr	r5, [r4, #28]
   10e3c:	e0820100 	add	r0, r2, r0, lsl #2
   10e40:	e5cce00d 	strb	lr, [ip, #13]
   10e44:	e1a02003 	mov	r2, r3
   10e48:	e5cc100b 	strb	r1, [ip, #11]
   10e4c:	e5cca00c 	strb	sl, [ip, #12]
   10e50:	e5cca01a 	strb	sl, [ip, #26]
   10e54:	e5cca01b 	strb	sl, [ip, #27]
   10e58:	ea00000c 	b	10e90 <dir_register+0x828>
   10e5c:	e1a03080 	lsl	r3, r0, #1
   10e60:	e19530b3 	ldrh	r3, [r5, r3]
   10e64:	e7d7e002 	ldrb	lr, [r7, r2]
   10e68:	e1a0100c 	mov	r1, ip
   10e6c:	e3530000 	cmp	r3, #0
   10e70:	e2822001 	add	r2, r2, #1
   10e74:	e7e1300e 	strb	r3, [r1, lr]!
   10e78:	e1a0e423 	lsr	lr, r3, #8
   10e7c:	01a03006 	moveq	r3, r6
   10e80:	e352000d 	cmp	r2, #13
   10e84:	e2800001 	add	r0, r0, #1
   10e88:	e5c1e001 	strb	lr, [r1, #1]
   10e8c:	0a000008 	beq	10eb4 <dir_register+0x84c>
   10e90:	e1530006 	cmp	r3, r6
   10e94:	1afffff0 	bne	10e5c <dir_register+0x7f4>
   10e98:	e7d7e002 	ldrb	lr, [r7, r2]
   10e9c:	e1a0100c 	mov	r1, ip
   10ea0:	e2822001 	add	r2, r2, #1
   10ea4:	e7e1800e 	strb	r8, [r1, lr]!
   10ea8:	e352000d 	cmp	r2, #13
   10eac:	e5c18001 	strb	r8, [r1, #1]
   10eb0:	1afffff6 	bne	10e90 <dir_register+0x828>
   10eb4:	e1530006 	cmp	r3, r6
   10eb8:	0a000003 	beq	10ecc <dir_register+0x864>
   10ebc:	e1a00080 	lsl	r0, r0, #1
   10ec0:	e19530b0 	ldrh	r3, [r5, r0]
   10ec4:	e3530000 	cmp	r3, #0
   10ec8:	1a000000 	bne	10ed0 <dir_register+0x868>
   10ecc:	e3899040 	orr	r9, r9, #64	; 0x40
   10ed0:	e5cc9000 	strb	r9, [ip]
   10ed4:	e5943000 	ldr	r3, [r4]
   10ed8:	e3a02001 	mov	r2, #1
   10edc:	e1a00004 	mov	r0, r4
   10ee0:	e5c32004 	strb	r2, [r3, #4]
   10ee4:	ebfff9c3 	bl	f5f8 <dir_next.constprop.11>
   10ee8:	e3500000 	cmp	r0, #0
   10eec:	1afffeef 	bne	10ab0 <dir_register+0x448>
   10ef0:	e24b3001 	sub	r3, fp, #1
   10ef4:	e6ffb073 	uxth	fp, r3
   10ef8:	e35b0000 	cmp	fp, #0
   10efc:	1affffb1 	bne	10dc8 <dir_register+0x760>
   10f00:	eaffff11 	b	10b4c <dir_register+0x4e4>
   10f04:	e285c034 	add	ip, r5, #52	; 0x34
   10f08:	e1a0100c 	mov	r1, ip
   10f0c:	e5d50001 	ldrb	r0, [r5, #1]
   10f10:	e1a02009 	mov	r2, r9
   10f14:	e3a03001 	mov	r3, #1
   10f18:	e58dc008 	str	ip, [sp, #8]
   10f1c:	eb001aaa 	bl	179cc <disk_write>
   10f20:	e3500000 	cmp	r0, #0
   10f24:	1affff18 	bne	10b8c <dir_register+0x524>
   10f28:	e5952024 	ldr	r2, [r5, #36]	; 0x24
   10f2c:	e5c50004 	strb	r0, [r5, #4]
   10f30:	e1590002 	cmp	r9, r2
   10f34:	3affffaf 	bcc	10df8 <dir_register+0x790>
   10f38:	e595301c 	ldr	r3, [r5, #28]
   10f3c:	e0832002 	add	r2, r3, r2
   10f40:	e1590002 	cmp	r9, r2
   10f44:	2affffab 	bcs	10df8 <dir_register+0x790>
   10f48:	e5d5c003 	ldrb	ip, [r5, #3]
   10f4c:	e35c0001 	cmp	ip, #1
   10f50:	9affffa8 	bls	10df8 <dir_register+0x790>
   10f54:	e58d4010 	str	r4, [sp, #16]
   10f58:	e1a0400c 	mov	r4, ip
   10f5c:	ea000000 	b	10f64 <dir_register+0x8fc>
   10f60:	e595301c 	ldr	r3, [r5, #28]
   10f64:	e0899003 	add	r9, r9, r3
   10f68:	e2444001 	sub	r4, r4, #1
   10f6c:	e1a02009 	mov	r2, r9
   10f70:	e5d50001 	ldrb	r0, [r5, #1]
   10f74:	e59d1008 	ldr	r1, [sp, #8]
   10f78:	e3a03001 	mov	r3, #1
   10f7c:	eb001a92 	bl	179cc <disk_write>
   10f80:	e3540001 	cmp	r4, #1
   10f84:	1afffff5 	bne	10f60 <dir_register+0x8f8>
   10f88:	e59d4010 	ldr	r4, [sp, #16]
   10f8c:	eaffff99 	b	10df8 <dir_register+0x790>
   10f90:	e5859030 	str	r9, [r5, #48]	; 0x30
   10f94:	e5943014 	ldr	r3, [r4, #20]
   10f98:	e263c000 	rsb	ip, r3, #0
   10f9c:	e21cc003 	ands	ip, ip, #3
   10fa0:	0a0000c8 	beq	112c8 <dir_register+0xc60>
   10fa4:	e35c0001 	cmp	ip, #1
   10fa8:	e3a02000 	mov	r2, #0
   10fac:	e5c32000 	strb	r2, [r3]
   10fb0:	e2830001 	add	r0, r3, #1
   10fb4:	93a0501f 	movls	r5, #31
   10fb8:	9a000006 	bls	10fd8 <dir_register+0x970>
   10fbc:	e35c0002 	cmp	ip, #2
   10fc0:	e2830002 	add	r0, r3, #2
   10fc4:	e5c32001 	strb	r2, [r3, #1]
   10fc8:	85c32002 	strbhi	r2, [r3, #2]
   10fcc:	82830003 	addhi	r0, r3, #3
   10fd0:	83a0501d 	movhi	r5, #29
   10fd4:	93a0501e 	movls	r5, #30
   10fd8:	e26c8020 	rsb	r8, ip, #32
   10fdc:	e1a06128 	lsr	r6, r8, #2
   10fe0:	e3a02000 	mov	r2, #0
   10fe4:	e083100c 	add	r1, r3, ip
   10fe8:	e1a07106 	lsl	r7, r6, #2
   10fec:	e3560007 	cmp	r6, #7
   10ff0:	e783200c 	str	r2, [r3, ip]
   10ff4:	8581201c 	strhi	r2, [r1, #28]
   10ff8:	e1570008 	cmp	r7, r8
   10ffc:	e0675005 	rsb	r5, r7, r5
   11000:	e5812004 	str	r2, [r1, #4]
   11004:	e5812008 	str	r2, [r1, #8]
   11008:	e581200c 	str	r2, [r1, #12]
   1100c:	e5812010 	str	r2, [r1, #16]
   11010:	e5812014 	str	r2, [r1, #20]
   11014:	e5812018 	str	r2, [r1, #24]
   11018:	e0807007 	add	r7, r0, r7
   1101c:	0a000006 	beq	1103c <dir_register+0x9d4>
   11020:	e3a03000 	mov	r3, #0
   11024:	e3550001 	cmp	r5, #1
   11028:	e7c03106 	strb	r3, [r0, r6, lsl #2]
   1102c:	0a000002 	beq	1103c <dir_register+0x9d4>
   11030:	e3550002 	cmp	r5, #2
   11034:	e5c73001 	strb	r3, [r7, #1]
   11038:	15c73002 	strbne	r3, [r7, #2]
   1103c:	e5943014 	ldr	r3, [r4, #20]
   11040:	e5942018 	ldr	r2, [r4, #24]
   11044:	e2831004 	add	r1, r3, #4
   11048:	e1830002 	orr	r0, r3, r2
   1104c:	e3100003 	tst	r0, #3
   11050:	e282c004 	add	ip, r2, #4
   11054:	13a00000 	movne	r0, #0
   11058:	03a00001 	moveq	r0, #1
   1105c:	e1520001 	cmp	r2, r1
   11060:	3153000c 	cmpcc	r3, ip
   11064:	33a01000 	movcc	r1, #0
   11068:	23a01001 	movcs	r1, #1
   1106c:	e1100001 	tst	r0, r1
   11070:	0a000097 	beq	112d4 <dir_register+0xc6c>
   11074:	e5921000 	ldr	r1, [r2]
   11078:	e5831000 	str	r1, [r3]
   1107c:	e5921004 	ldr	r1, [r2, #4]
   11080:	e5831004 	str	r1, [r3, #4]
   11084:	e5d21008 	ldrb	r1, [r2, #8]
   11088:	e3a00000 	mov	r0, #0
   1108c:	e5c31008 	strb	r1, [r3, #8]
   11090:	e5d21009 	ldrb	r1, [r2, #9]
   11094:	e5c31009 	strb	r1, [r3, #9]
   11098:	e5d2200a 	ldrb	r2, [r2, #10]
   1109c:	e5c3200a 	strb	r2, [r3, #10]
   110a0:	e5942018 	ldr	r2, [r4, #24]
   110a4:	e5943014 	ldr	r3, [r4, #20]
   110a8:	e5d2100b 	ldrb	r1, [r2, #11]
   110ac:	e3a02001 	mov	r2, #1
   110b0:	e2011018 	and	r1, r1, #24
   110b4:	e5c3100c 	strb	r1, [r3, #12]
   110b8:	e5943000 	ldr	r3, [r4]
   110bc:	e5c32004 	strb	r2, [r3, #4]
   110c0:	eafffe7a 	b	10ab0 <dir_register+0x448>
   110c4:	e1a01007 	mov	r1, r7
   110c8:	e5d50001 	ldrb	r0, [r5, #1]
   110cc:	e1a02006 	mov	r2, r6
   110d0:	e3a03001 	mov	r3, #1
   110d4:	eb001a3c 	bl	179cc <disk_write>
   110d8:	e3500000 	cmp	r0, #0
   110dc:	1afffeaa 	bne	10b8c <dir_register+0x524>
   110e0:	e5952024 	ldr	r2, [r5, #36]	; 0x24
   110e4:	e5c50004 	strb	r0, [r5, #4]
   110e8:	e1560002 	cmp	r6, r2
   110ec:	3afffe9f 	bcc	10b70 <dir_register+0x508>
   110f0:	e595301c 	ldr	r3, [r5, #28]
   110f4:	e0832002 	add	r2, r3, r2
   110f8:	e1560002 	cmp	r6, r2
   110fc:	2afffe9b 	bcs	10b70 <dir_register+0x508>
   11100:	e5d58003 	ldrb	r8, [r5, #3]
   11104:	e3580001 	cmp	r8, #1
   11108:	8a000001 	bhi	11114 <dir_register+0xaac>
   1110c:	eafffe97 	b	10b70 <dir_register+0x508>
   11110:	e595301c 	ldr	r3, [r5, #28]
   11114:	e0866003 	add	r6, r6, r3
   11118:	e2488001 	sub	r8, r8, #1
   1111c:	e1a02006 	mov	r2, r6
   11120:	e5d50001 	ldrb	r0, [r5, #1]
   11124:	e1a01007 	mov	r1, r7
   11128:	e3a03001 	mov	r3, #1
   1112c:	eb001a26 	bl	179cc <disk_write>
   11130:	e3580001 	cmp	r8, #1
   11134:	1afffff5 	bne	11110 <dir_register+0xaa8>
   11138:	eafffe8c 	b	10b70 <dir_register+0x508>
   1113c:	e1a00009 	mov	r0, r9
   11140:	ebfff6a4 	bl	ebd8 <get_fat.part.5>
   11144:	e3500001 	cmp	r0, #1
   11148:	e1a07000 	mov	r7, r0
   1114c:	9afffebe 	bls	10c4c <dir_register+0x5e4>
   11150:	e3700001 	cmn	r0, #1
   11154:	0afffe8c 	beq	10b8c <dir_register+0x524>
   11158:	e5949000 	ldr	r9, [r4]
   1115c:	e5992018 	ldr	r2, [r9, #24]
   11160:	e1500002 	cmp	r0, r2
   11164:	32422002 	subcc	r2, r2, #2
   11168:	3240c002 	subcc	ip, r0, #2
   1116c:	3a000070 	bcc	11334 <dir_register+0xccc>
   11170:	e1a00009 	mov	r0, r9
   11174:	e594100c 	ldr	r1, [r4, #12]
   11178:	ebfff7d0 	bl	f0c0 <create_chain>
   1117c:	e2507000 	subs	r7, r0, #0
   11180:	0afffe00 	beq	10988 <dir_register+0x320>
   11184:	e3570001 	cmp	r7, #1
   11188:	0afffeaf 	beq	10c4c <dir_register+0x5e4>
   1118c:	e3770001 	cmn	r7, #1
   11190:	0afffe7d 	beq	10b8c <dir_register+0x524>
   11194:	e5940000 	ldr	r0, [r4]
   11198:	e5d03004 	ldrb	r3, [r0, #4]
   1119c:	e3530000 	cmp	r3, #0
   111a0:	1a00006b 	bne	11354 <dir_register+0xcec>
   111a4:	e280a034 	add	sl, r0, #52	; 0x34
   111a8:	e26a1000 	rsb	r1, sl, #0
   111ac:	e2111003 	ands	r1, r1, #3
   111b0:	0a000070 	beq	11378 <dir_register+0xd10>
   111b4:	e3a0c000 	mov	ip, #0
   111b8:	e3510001 	cmp	r1, #1
   111bc:	e5c0c034 	strb	ip, [r0, #52]	; 0x34
   111c0:	e2803035 	add	r3, r0, #53	; 0x35
   111c4:	0a000069 	beq	11370 <dir_register+0xd08>
   111c8:	e3510003 	cmp	r1, #3
   111cc:	e5c0c035 	strb	ip, [r0, #53]	; 0x35
   111d0:	e2803036 	add	r3, r0, #54	; 0x36
   111d4:	1a000063 	bne	11368 <dir_register+0xd00>
   111d8:	e59f21b0 	ldr	r2, [pc, #432]	; 11390 <dir_register+0xd28>
   111dc:	e5c0c036 	strb	ip, [r0, #54]	; 0x36
   111e0:	e2803037 	add	r3, r0, #55	; 0x37
   111e4:	e2610c02 	rsb	r0, r1, #512	; 0x200
   111e8:	e58d0008 	str	r0, [sp, #8]
   111ec:	e1a00120 	lsr	r0, r0, #2
   111f0:	e08aa001 	add	sl, sl, r1
   111f4:	e1a0c100 	lsl	ip, r0, #2
   111f8:	e3a09000 	mov	r9, #0
   111fc:	e2899001 	add	r9, r9, #1
   11200:	e3a01000 	mov	r1, #0
   11204:	e1500009 	cmp	r0, r9
   11208:	e48a1004 	str	r1, [sl], #4
   1120c:	8afffffa 	bhi	111fc <dir_register+0xb94>
   11210:	e59d9008 	ldr	r9, [sp, #8]
   11214:	e06c2002 	rsb	r2, ip, r2
   11218:	e15c0009 	cmp	ip, r9
   1121c:	e083c00c 	add	ip, r3, ip
   11220:	0a000005 	beq	1123c <dir_register+0xbd4>
   11224:	e3520001 	cmp	r2, #1
   11228:	e7c31100 	strb	r1, [r3, r0, lsl #2]
   1122c:	0a000002 	beq	1123c <dir_register+0xbd4>
   11230:	e3520002 	cmp	r2, #2
   11234:	e5cc1001 	strb	r1, [ip, #1]
   11238:	15cc1002 	strbne	r1, [ip, #2]
   1123c:	e5949000 	ldr	r9, [r4]
   11240:	e247c002 	sub	ip, r7, #2
   11244:	e5992018 	ldr	r2, [r9, #24]
   11248:	e5d91002 	ldrb	r1, [r9, #2]
   1124c:	e2422002 	sub	r2, r2, #2
   11250:	e15c0002 	cmp	ip, r2
   11254:	3599302c 	ldrcc	r3, [r9, #44]	; 0x2c
   11258:	23a03000 	movcs	r3, #0
   1125c:	30233c91 	mlacc	r3, r1, ip, r3
   11260:	e3510000 	cmp	r1, #0
   11264:	e5893030 	str	r3, [r9, #48]	; 0x30
   11268:	0a00002f 	beq	1132c <dir_register+0xcc4>
   1126c:	e1a00009 	mov	r0, r9
   11270:	e3a0a000 	mov	sl, #0
   11274:	e1a0900c 	mov	r9, ip
   11278:	ea000007 	b	1129c <dir_register+0xc34>
   1127c:	e5903030 	ldr	r3, [r0, #48]	; 0x30
   11280:	e28aa001 	add	sl, sl, #1
   11284:	e5d02002 	ldrb	r2, [r0, #2]
   11288:	e6efa07a 	uxtb	sl, sl
   1128c:	e2833001 	add	r3, r3, #1
   11290:	e152000a 	cmp	r2, sl
   11294:	e5803030 	str	r3, [r0, #48]	; 0x30
   11298:	9a00001e 	bls	11318 <dir_register+0xcb0>
   1129c:	e3a0c001 	mov	ip, #1
   112a0:	e5c0c004 	strb	ip, [r0, #4]
   112a4:	e5940000 	ldr	r0, [r4]
   112a8:	e5d03004 	ldrb	r3, [r0, #4]
   112ac:	e3530000 	cmp	r3, #0
   112b0:	0afffff1 	beq	1127c <dir_register+0xc14>
   112b4:	ebfff1f1 	bl	da80 <sync_window.part.2>
   112b8:	e3500000 	cmp	r0, #0
   112bc:	1afffe32 	bne	10b8c <dir_register+0x524>
   112c0:	e5940000 	ldr	r0, [r4]
   112c4:	eaffffec 	b	1127c <dir_register+0xc14>
   112c8:	e1a00003 	mov	r0, r3
   112cc:	e3a05020 	mov	r5, #32
   112d0:	eaffff40 	b	10fd8 <dir_register+0x970>
   112d4:	e5d21000 	ldrb	r1, [r2]
   112d8:	e5c31000 	strb	r1, [r3]
   112dc:	e5d21001 	ldrb	r1, [r2, #1]
   112e0:	e5c31001 	strb	r1, [r3, #1]
   112e4:	e5d21002 	ldrb	r1, [r2, #2]
   112e8:	e5c31002 	strb	r1, [r3, #2]
   112ec:	e5d21003 	ldrb	r1, [r2, #3]
   112f0:	e5c31003 	strb	r1, [r3, #3]
   112f4:	e5d21004 	ldrb	r1, [r2, #4]
   112f8:	e5c31004 	strb	r1, [r3, #4]
   112fc:	e5d21005 	ldrb	r1, [r2, #5]
   11300:	e5c31005 	strb	r1, [r3, #5]
   11304:	e5d21006 	ldrb	r1, [r2, #6]
   11308:	e5c31006 	strb	r1, [r3, #6]
   1130c:	e5d21007 	ldrb	r1, [r2, #7]
   11310:	e5c31007 	strb	r1, [r3, #7]
   11314:	eaffff5a 	b	11084 <dir_register+0xa1c>
   11318:	e5902018 	ldr	r2, [r0, #24]
   1131c:	e1a0c009 	mov	ip, r9
   11320:	e1a0100a 	mov	r1, sl
   11324:	e1a09000 	mov	r9, r0
   11328:	e2422002 	sub	r2, r2, #2
   1132c:	e0613003 	rsb	r3, r1, r3
   11330:	e5893030 	str	r3, [r9, #48]	; 0x30
   11334:	e15c0002 	cmp	ip, r2
   11338:	e584700c 	str	r7, [r4, #12]
   1133c:	35d97002 	ldrbcc	r7, [r9, #2]
   11340:	3599302c 	ldrcc	r3, [r9, #44]	; 0x2c
   11344:	23a07000 	movcs	r7, #0
   11348:	30273c97 	mlacc	r7, r7, ip, r3
   1134c:	e5847010 	str	r7, [r4, #16]
   11350:	eafffdf1 	b	10b1c <dir_register+0x4b4>
   11354:	ebfff1c9 	bl	da80 <sync_window.part.2>
   11358:	e3500000 	cmp	r0, #0
   1135c:	1afffe0a 	bne	10b8c <dir_register+0x524>
   11360:	e5940000 	ldr	r0, [r4]
   11364:	eaffff8e 	b	111a4 <dir_register+0xb3c>
   11368:	e59f2024 	ldr	r2, [pc, #36]	; 11394 <dir_register+0xd2c>
   1136c:	eaffff9c 	b	111e4 <dir_register+0xb7c>
   11370:	e59f2020 	ldr	r2, [pc, #32]	; 11398 <dir_register+0xd30>
   11374:	eaffff9a 	b	111e4 <dir_register+0xb7c>
   11378:	e1a0300a 	mov	r3, sl
   1137c:	e3a02c02 	mov	r2, #512	; 0x200
   11380:	eaffff97 	b	111e4 <dir_register+0xb7c>
   11384:	4ec4ec4f 	cdpmi	12, 12, cr14, cr4, cr15, {2}
   11388:	0001d688 	andeq	sp, r1, r8, lsl #13
   1138c:	0000ffff 	strdeq	pc, [r0], -pc	; <UNPREDICTABLE>
   11390:	000001fd 	strdeq	r0, [r0], -sp
   11394:	000001fe 	strdeq	r0, [r0], -lr
   11398:	000001ff 	strdeq	r0, [r0], -pc	; <UNPREDICTABLE>

0001139c <clust2sect>:
   1139c:	e5903018 	ldr	r3, [r0, #24]
   113a0:	e2411002 	sub	r1, r1, #2
   113a4:	e2433002 	sub	r3, r3, #2
   113a8:	e1510003 	cmp	r1, r3
   113ac:	35d02002 	ldrbcc	r2, [r0, #2]
   113b0:	3590302c 	ldrcc	r3, [r0, #44]	; 0x2c
   113b4:	30203192 	mlacc	r0, r2, r1, r3
   113b8:	23a00000 	movcs	r0, #0
   113bc:	e12fff1e 	bx	lr

000113c0 <get_fat>:
   113c0:	e3510001 	cmp	r1, #1
   113c4:	e92d4ff8 	push	{r3, r4, r5, r6, r7, r8, r9, sl, fp, lr}
   113c8:	e1a05001 	mov	r5, r1
   113cc:	e1a04000 	mov	r4, r0
   113d0:	9a00000b 	bls	11404 <get_fat+0x44>
   113d4:	e5903018 	ldr	r3, [r0, #24]
   113d8:	e1510003 	cmp	r1, r3
   113dc:	2a000008 	bcs	11404 <get_fat+0x44>
   113e0:	e5d03000 	ldrb	r3, [r0]
   113e4:	e3530002 	cmp	r3, #2
   113e8:	0a000056 	beq	11548 <get_fat+0x188>
   113ec:	e3530003 	cmp	r3, #3
   113f0:	0a000035 	beq	114cc <get_fat+0x10c>
   113f4:	e3530001 	cmp	r3, #1
   113f8:	0a000003 	beq	1140c <get_fat+0x4c>
   113fc:	e3e00000 	mvn	r0, #0
   11400:	e8bd8ff8 	pop	{r3, r4, r5, r6, r7, r8, r9, sl, fp, pc}
   11404:	e3a00001 	mov	r0, #1
   11408:	e8bd8ff8 	pop	{r3, r4, r5, r6, r7, r8, r9, sl, fp, pc}
   1140c:	e5901024 	ldr	r1, [r0, #36]	; 0x24
   11410:	e08580a5 	add	r8, r5, r5, lsr #1
   11414:	e5906030 	ldr	r6, [r0, #48]	; 0x30
   11418:	e08174a8 	add	r7, r1, r8, lsr #9
   1141c:	e1570006 	cmp	r7, r6
   11420:	0a0000bb 	beq	11714 <get_fat+0x354>
   11424:	e5d02004 	ldrb	r2, [r0, #4]
   11428:	e2809034 	add	r9, r0, #52	; 0x34
   1142c:	e3520000 	cmp	r2, #0
   11430:	1a00009a 	bne	116a0 <get_fat+0x2e0>
   11434:	e1a01009 	mov	r1, r9
   11438:	e5d40001 	ldrb	r0, [r4, #1]
   1143c:	e1a02007 	mov	r2, r7
   11440:	e3a03001 	mov	r3, #1
   11444:	eb001942 	bl	17954 <disk_read>
   11448:	e3500000 	cmp	r0, #0
   1144c:	1affffea 	bne	113fc <get_fat+0x3c>
   11450:	e5941024 	ldr	r1, [r4, #36]	; 0x24
   11454:	e5847030 	str	r7, [r4, #48]	; 0x30
   11458:	e1a06007 	mov	r6, r7
   1145c:	e288a001 	add	sl, r8, #1
   11460:	e08194aa 	add	r9, r1, sl, lsr #9
   11464:	e1a08b88 	lsl	r8, r8, #23
   11468:	e0848ba8 	add	r8, r4, r8, lsr #23
   1146c:	e1590007 	cmp	r9, r7
   11470:	e5d8b034 	ldrb	fp, [r8, #52]	; 0x34
   11474:	0a00000b 	beq	114a8 <get_fat+0xe8>
   11478:	e5d43004 	ldrb	r3, [r4, #4]
   1147c:	e2848034 	add	r8, r4, #52	; 0x34
   11480:	e3530000 	cmp	r3, #0
   11484:	1a0000a4 	bne	1171c <get_fat+0x35c>
   11488:	e1a01008 	mov	r1, r8
   1148c:	e5d40001 	ldrb	r0, [r4, #1]
   11490:	e1a02009 	mov	r2, r9
   11494:	e3a03001 	mov	r3, #1
   11498:	eb00192d 	bl	17954 <disk_read>
   1149c:	e3500000 	cmp	r0, #0
   114a0:	1affffd5 	bne	113fc <get_fat+0x3c>
   114a4:	e5849030 	str	r9, [r4, #48]	; 0x30
   114a8:	e1a0ab8a 	lsl	sl, sl, #23
   114ac:	e0844baa 	add	r4, r4, sl, lsr #23
   114b0:	e5d40034 	ldrb	r0, [r4, #52]	; 0x34
   114b4:	e3150001 	tst	r5, #1
   114b8:	e18b0400 	orr	r0, fp, r0, lsl #8
   114bc:	11a00220 	lsrne	r0, r0, #4
   114c0:	01a00a00 	lsleq	r0, r0, #20
   114c4:	01a00a20 	lsreq	r0, r0, #20
   114c8:	e8bd8ff8 	pop	{r3, r4, r5, r6, r7, r8, r9, sl, fp, pc}
   114cc:	e5907024 	ldr	r7, [r0, #36]	; 0x24
   114d0:	e5906030 	ldr	r6, [r0, #48]	; 0x30
   114d4:	e08773a1 	add	r7, r7, r1, lsr #7
   114d8:	e1570006 	cmp	r7, r6
   114dc:	0a00000b 	beq	11510 <get_fat+0x150>
   114e0:	e5d03004 	ldrb	r3, [r0, #4]
   114e4:	e2808034 	add	r8, r0, #52	; 0x34
   114e8:	e3530000 	cmp	r3, #0
   114ec:	1a00004d 	bne	11628 <get_fat+0x268>
   114f0:	e1a01008 	mov	r1, r8
   114f4:	e5d40001 	ldrb	r0, [r4, #1]
   114f8:	e1a02007 	mov	r2, r7
   114fc:	e3a03001 	mov	r3, #1
   11500:	eb001913 	bl	17954 <disk_read>
   11504:	e3500000 	cmp	r0, #0
   11508:	1affffbb 	bne	113fc <get_fat+0x3c>
   1150c:	e5847030 	str	r7, [r4, #48]	; 0x30
   11510:	e1a05105 	lsl	r5, r5, #2
   11514:	e2055f7f 	and	r5, r5, #508	; 0x1fc
   11518:	e0843005 	add	r3, r4, r5
   1151c:	e5d32037 	ldrb	r2, [r3, #55]	; 0x37
   11520:	e5d31036 	ldrb	r1, [r3, #54]	; 0x36
   11524:	e5d30035 	ldrb	r0, [r3, #53]	; 0x35
   11528:	e1a02c02 	lsl	r2, r2, #24
   1152c:	e1a04003 	mov	r4, r3
   11530:	e1822801 	orr	r2, r2, r1, lsl #16
   11534:	e5d33034 	ldrb	r3, [r3, #52]	; 0x34
   11538:	e1820400 	orr	r0, r2, r0, lsl #8
   1153c:	e1800003 	orr	r0, r0, r3
   11540:	e3c0020f 	bic	r0, r0, #-268435456	; 0xf0000000
   11544:	e8bd8ff8 	pop	{r3, r4, r5, r6, r7, r8, r9, sl, fp, pc}
   11548:	e5907024 	ldr	r7, [r0, #36]	; 0x24
   1154c:	e5906030 	ldr	r6, [r0, #48]	; 0x30
   11550:	e0877421 	add	r7, r7, r1, lsr #8
   11554:	e1570006 	cmp	r7, r6
   11558:	0a00000b 	beq	1158c <get_fat+0x1cc>
   1155c:	e5d03004 	ldrb	r3, [r0, #4]
   11560:	e2808034 	add	r8, r0, #52	; 0x34
   11564:	e3530000 	cmp	r3, #0
   11568:	1a000010 	bne	115b0 <get_fat+0x1f0>
   1156c:	e1a01008 	mov	r1, r8
   11570:	e5d40001 	ldrb	r0, [r4, #1]
   11574:	e1a02007 	mov	r2, r7
   11578:	e3a03001 	mov	r3, #1
   1157c:	eb0018f4 	bl	17954 <disk_read>
   11580:	e3500000 	cmp	r0, #0
   11584:	1affff9c 	bne	113fc <get_fat+0x3c>
   11588:	e5847030 	str	r7, [r4, #48]	; 0x30
   1158c:	e59f3200 	ldr	r3, [pc, #512]	; 11794 <get_fat+0x3d4>
   11590:	e1a05085 	lsl	r5, r5, #1
   11594:	e0053003 	and	r3, r5, r3
   11598:	e0842003 	add	r2, r4, r3
   1159c:	e1a03002 	mov	r3, r2
   115a0:	e5d30035 	ldrb	r0, [r3, #53]	; 0x35
   115a4:	e5d22034 	ldrb	r2, [r2, #52]	; 0x34
   115a8:	e1820400 	orr	r0, r2, r0, lsl #8
   115ac:	e8bd8ff8 	pop	{r3, r4, r5, r6, r7, r8, r9, sl, fp, pc}
   115b0:	e1a01008 	mov	r1, r8
   115b4:	e5d00001 	ldrb	r0, [r0, #1]
   115b8:	e1a02006 	mov	r2, r6
   115bc:	e3a03001 	mov	r3, #1
   115c0:	eb001901 	bl	179cc <disk_write>
   115c4:	e3500000 	cmp	r0, #0
   115c8:	1affff8b 	bne	113fc <get_fat+0x3c>
   115cc:	e5942024 	ldr	r2, [r4, #36]	; 0x24
   115d0:	e5c40004 	strb	r0, [r4, #4]
   115d4:	e1560002 	cmp	r6, r2
   115d8:	3affffe3 	bcc	1156c <get_fat+0x1ac>
   115dc:	e594301c 	ldr	r3, [r4, #28]
   115e0:	e0832002 	add	r2, r3, r2
   115e4:	e1560002 	cmp	r6, r2
   115e8:	2affffdf 	bcs	1156c <get_fat+0x1ac>
   115ec:	e5d49003 	ldrb	r9, [r4, #3]
   115f0:	e3590001 	cmp	r9, #1
   115f4:	8a000001 	bhi	11600 <get_fat+0x240>
   115f8:	eaffffdb 	b	1156c <get_fat+0x1ac>
   115fc:	e594301c 	ldr	r3, [r4, #28]
   11600:	e0866003 	add	r6, r6, r3
   11604:	e2499001 	sub	r9, r9, #1
   11608:	e1a02006 	mov	r2, r6
   1160c:	e5d40001 	ldrb	r0, [r4, #1]
   11610:	e1a01008 	mov	r1, r8
   11614:	e3a03001 	mov	r3, #1
   11618:	eb0018eb 	bl	179cc <disk_write>
   1161c:	e3590001 	cmp	r9, #1
   11620:	1afffff5 	bne	115fc <get_fat+0x23c>
   11624:	eaffffd0 	b	1156c <get_fat+0x1ac>
   11628:	e1a01008 	mov	r1, r8
   1162c:	e5d00001 	ldrb	r0, [r0, #1]
   11630:	e1a02006 	mov	r2, r6
   11634:	e3a03001 	mov	r3, #1
   11638:	eb0018e3 	bl	179cc <disk_write>
   1163c:	e3500000 	cmp	r0, #0
   11640:	1affff6d 	bne	113fc <get_fat+0x3c>
   11644:	e5942024 	ldr	r2, [r4, #36]	; 0x24
   11648:	e5c40004 	strb	r0, [r4, #4]
   1164c:	e1560002 	cmp	r6, r2
   11650:	3affffa6 	bcc	114f0 <get_fat+0x130>
   11654:	e594301c 	ldr	r3, [r4, #28]
   11658:	e0832002 	add	r2, r3, r2
   1165c:	e1560002 	cmp	r6, r2
   11660:	2affffa2 	bcs	114f0 <get_fat+0x130>
   11664:	e5d49003 	ldrb	r9, [r4, #3]
   11668:	e3590001 	cmp	r9, #1
   1166c:	8a000001 	bhi	11678 <get_fat+0x2b8>
   11670:	eaffff9e 	b	114f0 <get_fat+0x130>
   11674:	e594301c 	ldr	r3, [r4, #28]
   11678:	e0866003 	add	r6, r6, r3
   1167c:	e2499001 	sub	r9, r9, #1
   11680:	e1a02006 	mov	r2, r6
   11684:	e5d40001 	ldrb	r0, [r4, #1]
   11688:	e1a01008 	mov	r1, r8
   1168c:	e3a03001 	mov	r3, #1
   11690:	eb0018cd 	bl	179cc <disk_write>
   11694:	e3590001 	cmp	r9, #1
   11698:	1afffff5 	bne	11674 <get_fat+0x2b4>
   1169c:	eaffff93 	b	114f0 <get_fat+0x130>
   116a0:	e1a01009 	mov	r1, r9
   116a4:	e5d00001 	ldrb	r0, [r0, #1]
   116a8:	e1a02006 	mov	r2, r6
   116ac:	eb0018c6 	bl	179cc <disk_write>
   116b0:	e3500000 	cmp	r0, #0
   116b4:	1affff50 	bne	113fc <get_fat+0x3c>
   116b8:	e5942024 	ldr	r2, [r4, #36]	; 0x24
   116bc:	e5c40004 	strb	r0, [r4, #4]
   116c0:	e1560002 	cmp	r6, r2
   116c4:	3affff5a 	bcc	11434 <get_fat+0x74>
   116c8:	e594301c 	ldr	r3, [r4, #28]
   116cc:	e0832002 	add	r2, r3, r2
   116d0:	e1560002 	cmp	r6, r2
   116d4:	2affff56 	bcs	11434 <get_fat+0x74>
   116d8:	e5d4a003 	ldrb	sl, [r4, #3]
   116dc:	e35a0001 	cmp	sl, #1
   116e0:	8a000001 	bhi	116ec <get_fat+0x32c>
   116e4:	eaffff52 	b	11434 <get_fat+0x74>
   116e8:	e594301c 	ldr	r3, [r4, #28]
   116ec:	e0866003 	add	r6, r6, r3
   116f0:	e24aa001 	sub	sl, sl, #1
   116f4:	e1a02006 	mov	r2, r6
   116f8:	e5d40001 	ldrb	r0, [r4, #1]
   116fc:	e1a01009 	mov	r1, r9
   11700:	e3a03001 	mov	r3, #1
   11704:	eb0018b0 	bl	179cc <disk_write>
   11708:	e35a0001 	cmp	sl, #1
   1170c:	1afffff5 	bne	116e8 <get_fat+0x328>
   11710:	eaffff47 	b	11434 <get_fat+0x74>
   11714:	e1a06007 	mov	r6, r7
   11718:	eaffff4f 	b	1145c <get_fat+0x9c>
   1171c:	e1a01008 	mov	r1, r8
   11720:	e5d40001 	ldrb	r0, [r4, #1]
   11724:	e1a02007 	mov	r2, r7
   11728:	e3a03001 	mov	r3, #1
   1172c:	eb0018a6 	bl	179cc <disk_write>
   11730:	e3500000 	cmp	r0, #0
   11734:	1affff30 	bne	113fc <get_fat+0x3c>
   11738:	e5942024 	ldr	r2, [r4, #36]	; 0x24
   1173c:	e5c40004 	strb	r0, [r4, #4]
   11740:	e1520007 	cmp	r2, r7
   11744:	8affff4f 	bhi	11488 <get_fat+0xc8>
   11748:	e594301c 	ldr	r3, [r4, #28]
   1174c:	e0832002 	add	r2, r3, r2
   11750:	e1520007 	cmp	r2, r7
   11754:	9affff4b 	bls	11488 <get_fat+0xc8>
   11758:	e5d47003 	ldrb	r7, [r4, #3]
   1175c:	e3570001 	cmp	r7, #1
   11760:	8a000001 	bhi	1176c <get_fat+0x3ac>
   11764:	eaffff47 	b	11488 <get_fat+0xc8>
   11768:	e594301c 	ldr	r3, [r4, #28]
   1176c:	e0866003 	add	r6, r6, r3
   11770:	e2477001 	sub	r7, r7, #1
   11774:	e1a02006 	mov	r2, r6
   11778:	e5d40001 	ldrb	r0, [r4, #1]
   1177c:	e1a01008 	mov	r1, r8
   11780:	e3a03001 	mov	r3, #1
   11784:	eb001890 	bl	179cc <disk_write>
   11788:	e3570001 	cmp	r7, #1
   1178c:	1afffff5 	bne	11768 <get_fat+0x3a8>
   11790:	eaffff3c 	b	11488 <get_fat+0xc8>
   11794:	000001fe 	strdeq	r0, [r0], -lr

00011798 <put_fat>:
   11798:	e3510001 	cmp	r1, #1
   1179c:	e92d4ff8 	push	{r3, r4, r5, r6, r7, r8, r9, sl, fp, lr}
   117a0:	e1a05001 	mov	r5, r1
   117a4:	e1a04000 	mov	r4, r0
   117a8:	e1a06002 	mov	r6, r2
   117ac:	9a000002 	bls	117bc <put_fat+0x24>
   117b0:	e5903018 	ldr	r3, [r0, #24]
   117b4:	e1510003 	cmp	r1, r3
   117b8:	3a000001 	bcc	117c4 <put_fat+0x2c>
   117bc:	e3a00002 	mov	r0, #2
   117c0:	e8bd8ff8 	pop	{r3, r4, r5, r6, r7, r8, r9, sl, fp, pc}
   117c4:	e5d03000 	ldrb	r3, [r0]
   117c8:	e3530002 	cmp	r3, #2
   117cc:	0a000007 	beq	117f0 <put_fat+0x58>
   117d0:	e3530003 	cmp	r3, #3
   117d4:	0a000077 	beq	119b8 <put_fat+0x220>
   117d8:	e3530001 	cmp	r3, #1
   117dc:	13a00002 	movne	r0, #2
   117e0:	0a00001c 	beq	11858 <put_fat+0xc0>
   117e4:	e3a03001 	mov	r3, #1
   117e8:	e5c43004 	strb	r3, [r4, #4]
   117ec:	e8bd8ff8 	pop	{r3, r4, r5, r6, r7, r8, r9, sl, fp, pc}
   117f0:	e5908024 	ldr	r8, [r0, #36]	; 0x24
   117f4:	e5907030 	ldr	r7, [r0, #48]	; 0x30
   117f8:	e0888421 	add	r8, r8, r1, lsr #8
   117fc:	e1580007 	cmp	r8, r7
   11800:	0a00000b 	beq	11834 <put_fat+0x9c>
   11804:	e5d03004 	ldrb	r3, [r0, #4]
   11808:	e2809034 	add	r9, r0, #52	; 0x34
   1180c:	e3530000 	cmp	r3, #0
   11810:	1a0000aa 	bne	11ac0 <put_fat+0x328>
   11814:	e1a01009 	mov	r1, r9
   11818:	e5d40001 	ldrb	r0, [r4, #1]
   1181c:	e1a02008 	mov	r2, r8
   11820:	e3a03001 	mov	r3, #1
   11824:	eb00184a 	bl	17954 <disk_read>
   11828:	e3500000 	cmp	r0, #0
   1182c:	1a000083 	bne	11a40 <put_fat+0x2a8>
   11830:	e5848030 	str	r8, [r4, #48]	; 0x30
   11834:	e59f3378 	ldr	r3, [pc, #888]	; 11bb4 <put_fat+0x41c>
   11838:	e1a05085 	lsl	r5, r5, #1
   1183c:	e0053003 	and	r3, r5, r3
   11840:	e0841003 	add	r1, r4, r3
   11844:	e1a02426 	lsr	r2, r6, #8
   11848:	e5c16034 	strb	r6, [r1, #52]	; 0x34
   1184c:	e3a00000 	mov	r0, #0
   11850:	e5c12035 	strb	r2, [r1, #53]	; 0x35
   11854:	eaffffe2 	b	117e4 <put_fat+0x4c>
   11858:	e5941024 	ldr	r1, [r4, #36]	; 0x24
   1185c:	e08590a5 	add	r9, r5, r5, lsr #1
   11860:	e5947030 	ldr	r7, [r4, #48]	; 0x30
   11864:	e08184a9 	add	r8, r1, r9, lsr #9
   11868:	e1580007 	cmp	r8, r7
   1186c:	0a0000ce 	beq	11bac <put_fat+0x414>
   11870:	e5d42004 	ldrb	r2, [r4, #4]
   11874:	e284a034 	add	sl, r4, #52	; 0x34
   11878:	e3520000 	cmp	r2, #0
   1187c:	1a0000ad 	bne	11b38 <put_fat+0x3a0>
   11880:	e1a0100a 	mov	r1, sl
   11884:	e5d40001 	ldrb	r0, [r4, #1]
   11888:	e1a02008 	mov	r2, r8
   1188c:	e3a03001 	mov	r3, #1
   11890:	eb00182f 	bl	17954 <disk_read>
   11894:	e3500000 	cmp	r0, #0
   11898:	1a000068 	bne	11a40 <put_fat+0x2a8>
   1189c:	e5941024 	ldr	r1, [r4, #36]	; 0x24
   118a0:	e5848030 	str	r8, [r4, #48]	; 0x30
   118a4:	e1a07008 	mov	r7, r8
   118a8:	e1a02b89 	lsl	r2, r9, #23
   118ac:	e1a02ba2 	lsr	r2, r2, #23
   118b0:	e2155001 	ands	r5, r5, #1
   118b4:	e0842002 	add	r2, r4, r2
   118b8:	15d23034 	ldrbne	r3, [r2, #52]	; 0x34
   118bc:	16ef0076 	uxtbne	r0, r6
   118c0:	1203300f 	andne	r3, r3, #15
   118c4:	e2899001 	add	r9, r9, #1
   118c8:	11830200 	orrne	r0, r3, r0, lsl #4
   118cc:	e081a4a9 	add	sl, r1, r9, lsr #9
   118d0:	16ef0070 	uxtbne	r0, r0
   118d4:	06ef0076 	uxtbeq	r0, r6
   118d8:	e3a03001 	mov	r3, #1
   118dc:	e15a0008 	cmp	sl, r8
   118e0:	e5c20034 	strb	r0, [r2, #52]	; 0x34
   118e4:	e5c43004 	strb	r3, [r4, #4]
   118e8:	0a000024 	beq	11980 <put_fat+0x1e8>
   118ec:	e284b034 	add	fp, r4, #52	; 0x34
   118f0:	e1a0100b 	mov	r1, fp
   118f4:	e5d40001 	ldrb	r0, [r4, #1]
   118f8:	e1a02008 	mov	r2, r8
   118fc:	eb001832 	bl	179cc <disk_write>
   11900:	e3500000 	cmp	r0, #0
   11904:	1a00004d 	bne	11a40 <put_fat+0x2a8>
   11908:	e5942024 	ldr	r2, [r4, #36]	; 0x24
   1190c:	e5c40004 	strb	r0, [r4, #4]
   11910:	e1520008 	cmp	r2, r8
   11914:	8a000011 	bhi	11960 <put_fat+0x1c8>
   11918:	e594301c 	ldr	r3, [r4, #28]
   1191c:	e0832002 	add	r2, r3, r2
   11920:	e1520008 	cmp	r2, r8
   11924:	9a00000d 	bls	11960 <put_fat+0x1c8>
   11928:	e5d48003 	ldrb	r8, [r4, #3]
   1192c:	e3580001 	cmp	r8, #1
   11930:	8a000001 	bhi	1193c <put_fat+0x1a4>
   11934:	ea000009 	b	11960 <put_fat+0x1c8>
   11938:	e594301c 	ldr	r3, [r4, #28]
   1193c:	e0877003 	add	r7, r7, r3
   11940:	e2488001 	sub	r8, r8, #1
   11944:	e1a02007 	mov	r2, r7
   11948:	e5d40001 	ldrb	r0, [r4, #1]
   1194c:	e1a0100b 	mov	r1, fp
   11950:	e3a03001 	mov	r3, #1
   11954:	eb00181c 	bl	179cc <disk_write>
   11958:	e3580001 	cmp	r8, #1
   1195c:	1afffff5 	bne	11938 <put_fat+0x1a0>
   11960:	e1a0100b 	mov	r1, fp
   11964:	e5d40001 	ldrb	r0, [r4, #1]
   11968:	e1a0200a 	mov	r2, sl
   1196c:	e3a03001 	mov	r3, #1
   11970:	eb0017f7 	bl	17954 <disk_read>
   11974:	e3500000 	cmp	r0, #0
   11978:	0584a030 	streq	sl, [r4, #48]	; 0x30
   1197c:	1a00002f 	bne	11a40 <put_fat+0x2a8>
   11980:	e1a09b89 	lsl	r9, r9, #23
   11984:	e3550000 	cmp	r5, #0
   11988:	e1a03ba9 	lsr	r3, r9, #23
   1198c:	00843003 	addeq	r3, r4, r3
   11990:	05d32034 	ldrbeq	r2, [r3, #52]	; 0x34
   11994:	11a02226 	lsrne	r2, r6, #4
   11998:	03c2200f 	biceq	r2, r2, #15
   1199c:	01a06a06 	lsleq	r6, r6, #20
   119a0:	16ef2072 	uxtbne	r2, r2
   119a4:	10843003 	addne	r3, r4, r3
   119a8:	01822e26 	orreq	r2, r2, r6, lsr #28
   119ac:	e5c32034 	strb	r2, [r3, #52]	; 0x34
   119b0:	e3a00000 	mov	r0, #0
   119b4:	eaffff8a 	b	117e4 <put_fat+0x4c>
   119b8:	e5908024 	ldr	r8, [r0, #36]	; 0x24
   119bc:	e5907030 	ldr	r7, [r0, #48]	; 0x30
   119c0:	e08883a1 	add	r8, r8, r1, lsr #7
   119c4:	e1580007 	cmp	r8, r7
   119c8:	0a00000b 	beq	119fc <put_fat+0x264>
   119cc:	e5d03004 	ldrb	r3, [r0, #4]
   119d0:	e2809034 	add	r9, r0, #52	; 0x34
   119d4:	e3530000 	cmp	r3, #0
   119d8:	1a00001a 	bne	11a48 <put_fat+0x2b0>
   119dc:	e1a01009 	mov	r1, r9
   119e0:	e5d40001 	ldrb	r0, [r4, #1]
   119e4:	e1a02008 	mov	r2, r8
   119e8:	e3a03001 	mov	r3, #1
   119ec:	eb0017d8 	bl	17954 <disk_read>
   119f0:	e3500000 	cmp	r0, #0
   119f4:	1a000011 	bne	11a40 <put_fat+0x2a8>
   119f8:	e5848030 	str	r8, [r4, #48]	; 0x30
   119fc:	e1a05105 	lsl	r5, r5, #2
   11a00:	e2055f7f 	and	r5, r5, #508	; 0x1fc
   11a04:	e0843005 	add	r3, r4, r5
   11a08:	e5d32037 	ldrb	r2, [r3, #55]	; 0x37
   11a0c:	e1a05003 	mov	r5, r3
   11a10:	e1a02c02 	lsl	r2, r2, #24
   11a14:	e202220f 	and	r2, r2, #-268435456	; 0xf0000000
   11a18:	e1826006 	orr	r6, r2, r6
   11a1c:	e1a0c426 	lsr	ip, r6, #8
   11a20:	e1a01826 	lsr	r1, r6, #16
   11a24:	e1a02c26 	lsr	r2, r6, #24
   11a28:	e5c36034 	strb	r6, [r3, #52]	; 0x34
   11a2c:	e3a00000 	mov	r0, #0
   11a30:	e5c3c035 	strb	ip, [r3, #53]	; 0x35
   11a34:	e5c31036 	strb	r1, [r3, #54]	; 0x36
   11a38:	e5c32037 	strb	r2, [r3, #55]	; 0x37
   11a3c:	eaffff68 	b	117e4 <put_fat+0x4c>
   11a40:	e3a00001 	mov	r0, #1
   11a44:	eaffff66 	b	117e4 <put_fat+0x4c>
   11a48:	e1a01009 	mov	r1, r9
   11a4c:	e5d00001 	ldrb	r0, [r0, #1]
   11a50:	e1a02007 	mov	r2, r7
   11a54:	e3a03001 	mov	r3, #1
   11a58:	eb0017db 	bl	179cc <disk_write>
   11a5c:	e3500000 	cmp	r0, #0
   11a60:	1afffff6 	bne	11a40 <put_fat+0x2a8>
   11a64:	e5942024 	ldr	r2, [r4, #36]	; 0x24
   11a68:	e5c40004 	strb	r0, [r4, #4]
   11a6c:	e1570002 	cmp	r7, r2
   11a70:	3affffd9 	bcc	119dc <put_fat+0x244>
   11a74:	e594301c 	ldr	r3, [r4, #28]
   11a78:	e0832002 	add	r2, r3, r2
   11a7c:	e1570002 	cmp	r7, r2
   11a80:	2affffd5 	bcs	119dc <put_fat+0x244>
   11a84:	e5d4a003 	ldrb	sl, [r4, #3]
   11a88:	e35a0001 	cmp	sl, #1
   11a8c:	8a000001 	bhi	11a98 <put_fat+0x300>
   11a90:	eaffffd1 	b	119dc <put_fat+0x244>
   11a94:	e594301c 	ldr	r3, [r4, #28]
   11a98:	e0877003 	add	r7, r7, r3
   11a9c:	e24aa001 	sub	sl, sl, #1
   11aa0:	e1a02007 	mov	r2, r7
   11aa4:	e5d40001 	ldrb	r0, [r4, #1]
   11aa8:	e1a01009 	mov	r1, r9
   11aac:	e3a03001 	mov	r3, #1
   11ab0:	eb0017c5 	bl	179cc <disk_write>
   11ab4:	e35a0001 	cmp	sl, #1
   11ab8:	1afffff5 	bne	11a94 <put_fat+0x2fc>
   11abc:	eaffffc6 	b	119dc <put_fat+0x244>
   11ac0:	e1a01009 	mov	r1, r9
   11ac4:	e5d00001 	ldrb	r0, [r0, #1]
   11ac8:	e1a02007 	mov	r2, r7
   11acc:	e3a03001 	mov	r3, #1
   11ad0:	eb0017bd 	bl	179cc <disk_write>
   11ad4:	e3500000 	cmp	r0, #0
   11ad8:	1affffd8 	bne	11a40 <put_fat+0x2a8>
   11adc:	e5942024 	ldr	r2, [r4, #36]	; 0x24
   11ae0:	e5c40004 	strb	r0, [r4, #4]
   11ae4:	e1570002 	cmp	r7, r2
   11ae8:	3affff49 	bcc	11814 <put_fat+0x7c>
   11aec:	e594301c 	ldr	r3, [r4, #28]
   11af0:	e0832002 	add	r2, r3, r2
   11af4:	e1570002 	cmp	r7, r2
   11af8:	2affff45 	bcs	11814 <put_fat+0x7c>
   11afc:	e5d4a003 	ldrb	sl, [r4, #3]
   11b00:	e35a0001 	cmp	sl, #1
   11b04:	8a000001 	bhi	11b10 <put_fat+0x378>
   11b08:	eaffff41 	b	11814 <put_fat+0x7c>
   11b0c:	e594301c 	ldr	r3, [r4, #28]
   11b10:	e0877003 	add	r7, r7, r3
   11b14:	e24aa001 	sub	sl, sl, #1
   11b18:	e1a02007 	mov	r2, r7
   11b1c:	e5d40001 	ldrb	r0, [r4, #1]
   11b20:	e1a01009 	mov	r1, r9
   11b24:	e3a03001 	mov	r3, #1
   11b28:	eb0017a7 	bl	179cc <disk_write>
   11b2c:	e35a0001 	cmp	sl, #1
   11b30:	1afffff5 	bne	11b0c <put_fat+0x374>
   11b34:	eaffff36 	b	11814 <put_fat+0x7c>
   11b38:	e1a0100a 	mov	r1, sl
   11b3c:	e5d40001 	ldrb	r0, [r4, #1]
   11b40:	e1a02007 	mov	r2, r7
   11b44:	eb0017a0 	bl	179cc <disk_write>
   11b48:	e3500000 	cmp	r0, #0
   11b4c:	1affffbb 	bne	11a40 <put_fat+0x2a8>
   11b50:	e5942024 	ldr	r2, [r4, #36]	; 0x24
   11b54:	e5c40004 	strb	r0, [r4, #4]
   11b58:	e1570002 	cmp	r7, r2
   11b5c:	3affff47 	bcc	11880 <put_fat+0xe8>
   11b60:	e594301c 	ldr	r3, [r4, #28]
   11b64:	e0832002 	add	r2, r3, r2
   11b68:	e1570002 	cmp	r7, r2
   11b6c:	2affff43 	bcs	11880 <put_fat+0xe8>
   11b70:	e5d4b003 	ldrb	fp, [r4, #3]
   11b74:	e35b0001 	cmp	fp, #1
   11b78:	8a000001 	bhi	11b84 <put_fat+0x3ec>
   11b7c:	eaffff3f 	b	11880 <put_fat+0xe8>
   11b80:	e594301c 	ldr	r3, [r4, #28]
   11b84:	e0877003 	add	r7, r7, r3
   11b88:	e24bb001 	sub	fp, fp, #1
   11b8c:	e1a02007 	mov	r2, r7
   11b90:	e5d40001 	ldrb	r0, [r4, #1]
   11b94:	e1a0100a 	mov	r1, sl
   11b98:	e3a03001 	mov	r3, #1
   11b9c:	eb00178a 	bl	179cc <disk_write>
   11ba0:	e35b0001 	cmp	fp, #1
   11ba4:	1afffff5 	bne	11b80 <put_fat+0x3e8>
   11ba8:	eaffff34 	b	11880 <put_fat+0xe8>
   11bac:	e1a07008 	mov	r7, r8
   11bb0:	eaffff3c 	b	118a8 <put_fat+0x110>
   11bb4:	000001fe 	strdeq	r0, [r0], -lr

00011bb8 <gen_numname>:
   11bb8:	e92d0030 	push	{r4, r5}
   11bbc:	e180c001 	orr	ip, r0, r1
   11bc0:	e31c0003 	tst	ip, #3
   11bc4:	e2805004 	add	r5, r0, #4
   11bc8:	e281c004 	add	ip, r1, #4
   11bcc:	13a04000 	movne	r4, #0
   11bd0:	03a04001 	moveq	r4, #1
   11bd4:	e150000c 	cmp	r0, ip
   11bd8:	31510005 	cmpcc	r1, r5
   11bdc:	33a0c000 	movcc	ip, #0
   11be0:	23a0c001 	movcs	ip, #1
   11be4:	e114000c 	tst	r4, ip
   11be8:	e24dd008 	sub	sp, sp, #8
   11bec:	0a00007d 	beq	11de8 <gen_numname+0x230>
   11bf0:	e591c000 	ldr	ip, [r1]
   11bf4:	e580c000 	str	ip, [r0]
   11bf8:	e591c004 	ldr	ip, [r1, #4]
   11bfc:	e580c004 	str	ip, [r0, #4]
   11c00:	e5d1c008 	ldrb	ip, [r1, #8]
   11c04:	e3530005 	cmp	r3, #5
   11c08:	e5c0c008 	strb	ip, [r0, #8]
   11c0c:	e5d1c009 	ldrb	ip, [r1, #9]
   11c10:	e5c0c009 	strb	ip, [r0, #9]
   11c14:	e5d1100a 	ldrb	r1, [r1, #10]
   11c18:	e5c0100a 	strb	r1, [r0, #10]
   11c1c:	8a000066 	bhi	11dbc <gen_numname+0x204>
   11c20:	e203200f 	and	r2, r3, #15
   11c24:	e2821030 	add	r1, r2, #48	; 0x30
   11c28:	e3510039 	cmp	r1, #57	; 0x39
   11c2c:	82821037 	addhi	r1, r2, #55	; 0x37
   11c30:	e1b03223 	lsrs	r3, r3, #4
   11c34:	e5cd1007 	strb	r1, [sp, #7]
   11c38:	0a00007d 	beq	11e34 <gen_numname+0x27c>
   11c3c:	e203200f 	and	r2, r3, #15
   11c40:	e2821030 	add	r1, r2, #48	; 0x30
   11c44:	e1a03223 	lsr	r3, r3, #4
   11c48:	e3510039 	cmp	r1, #57	; 0x39
   11c4c:	e6ff3073 	uxth	r3, r3
   11c50:	82821037 	addhi	r1, r2, #55	; 0x37
   11c54:	e3530000 	cmp	r3, #0
   11c58:	e5cd1006 	strb	r1, [sp, #6]
   11c5c:	0a000076 	beq	11e3c <gen_numname+0x284>
   11c60:	e203200f 	and	r2, r3, #15
   11c64:	e2821030 	add	r1, r2, #48	; 0x30
   11c68:	e3510039 	cmp	r1, #57	; 0x39
   11c6c:	82821037 	addhi	r1, r2, #55	; 0x37
   11c70:	e1b03223 	lsrs	r3, r3, #4
   11c74:	e5cd1005 	strb	r1, [sp, #5]
   11c78:	0a00006b 	beq	11e2c <gen_numname+0x274>
   11c7c:	e6ef3073 	uxtb	r3, r3
   11c80:	e2832030 	add	r2, r3, #48	; 0x30
   11c84:	e6ef2072 	uxtb	r2, r2
   11c88:	e2833037 	add	r3, r3, #55	; 0x37
   11c8c:	e6ef3073 	uxtb	r3, r3
   11c90:	e3520039 	cmp	r2, #57	; 0x39
   11c94:	81a02003 	movhi	r2, r3
   11c98:	e5cd2004 	strb	r2, [sp, #4]
   11c9c:	e3a0c003 	mov	ip, #3
   11ca0:	e5d03000 	ldrb	r3, [r0]
   11ca4:	e28d1008 	add	r1, sp, #8
   11ca8:	e3530020 	cmp	r3, #32
   11cac:	e081200c 	add	r2, r1, ip
   11cb0:	e3a0307e 	mov	r3, #126	; 0x7e
   11cb4:	e5423008 	strb	r3, [r2, #-8]
   11cb8:	0a000061 	beq	11e44 <gen_numname+0x28c>
   11cbc:	e1a02000 	mov	r2, r0
   11cc0:	e3a03000 	mov	r3, #0
   11cc4:	ea000002 	b	11cd4 <gen_numname+0x11c>
   11cc8:	e5f21001 	ldrb	r1, [r2, #1]!
   11ccc:	e3510020 	cmp	r1, #32
   11cd0:	0a000002 	beq	11ce0 <gen_numname+0x128>
   11cd4:	e2833001 	add	r3, r3, #1
   11cd8:	e153000c 	cmp	r3, ip
   11cdc:	1afffff9 	bne	11cc8 <gen_numname+0x110>
   11ce0:	e2832001 	add	r2, r3, #1
   11ce4:	e3a0107e 	mov	r1, #126	; 0x7e
   11ce8:	e3520007 	cmp	r2, #7
   11cec:	e28cc001 	add	ip, ip, #1
   11cf0:	e7c01003 	strb	r1, [r0, r3]
   11cf4:	8a00002d 	bhi	11db0 <gen_numname+0x1f8>
   11cf8:	e28d5008 	add	r5, sp, #8
   11cfc:	e085300c 	add	r3, r5, ip
   11d00:	e5533008 	ldrb	r3, [r3, #-8]
   11d04:	e2824001 	add	r4, r2, #1
   11d08:	e3540008 	cmp	r4, #8
   11d0c:	e7c03002 	strb	r3, [r0, r2]
   11d10:	e28c3001 	add	r3, ip, #1
   11d14:	0a000025 	beq	11db0 <gen_numname+0x1f8>
   11d18:	e3530008 	cmp	r3, #8
   11d1c:	10853003 	addne	r3, r5, r3
   11d20:	15535008 	ldrbne	r5, [r3, #-8]
   11d24:	e2821002 	add	r1, r2, #2
   11d28:	03a05020 	moveq	r5, #32
   11d2c:	128c3002 	addne	r3, ip, #2
   11d30:	e3510008 	cmp	r1, #8
   11d34:	e7c05004 	strb	r5, [r0, r4]
   11d38:	0a00001c 	beq	11db0 <gen_numname+0x1f8>
   11d3c:	e3530008 	cmp	r3, #8
   11d40:	128d5008 	addne	r5, sp, #8
   11d44:	10854003 	addne	r4, r5, r3
   11d48:	15544008 	ldrbne	r4, [r4, #-8]
   11d4c:	e282c003 	add	ip, r2, #3
   11d50:	03a04020 	moveq	r4, #32
   11d54:	12833001 	addne	r3, r3, #1
   11d58:	e35c0008 	cmp	ip, #8
   11d5c:	e7c04001 	strb	r4, [r0, r1]
   11d60:	0a000012 	beq	11db0 <gen_numname+0x1f8>
   11d64:	e3530007 	cmp	r3, #7
   11d68:	05dd3007 	ldrbeq	r3, [sp, #7]
   11d6c:	e2821004 	add	r1, r2, #4
   11d70:	13a03020 	movne	r3, #32
   11d74:	e3510008 	cmp	r1, #8
   11d78:	e7c0300c 	strb	r3, [r0, ip]
   11d7c:	0a00000b 	beq	11db0 <gen_numname+0x1f8>
   11d80:	e282c005 	add	ip, r2, #5
   11d84:	e3a03020 	mov	r3, #32
   11d88:	e35c0008 	cmp	ip, #8
   11d8c:	e7c03001 	strb	r3, [r0, r1]
   11d90:	0a000006 	beq	11db0 <gen_numname+0x1f8>
   11d94:	e2821006 	add	r1, r2, #6
   11d98:	e3510008 	cmp	r1, #8
   11d9c:	e7c0300c 	strb	r3, [r0, ip]
   11da0:	0a000002 	beq	11db0 <gen_numname+0x1f8>
   11da4:	e3520000 	cmp	r2, #0
   11da8:	e7c03001 	strb	r3, [r0, r1]
   11dac:	05c03007 	strbeq	r3, [r0, #7]
   11db0:	e28dd008 	add	sp, sp, #8
   11db4:	e8bd0030 	pop	{r4, r5}
   11db8:	e12fff1e 	bx	lr
   11dbc:	e1d2c0b0 	ldrh	ip, [r2]
   11dc0:	ea000000 	b	11dc8 <gen_numname+0x210>
   11dc4:	e1a0c001 	mov	ip, r1
   11dc8:	e1a04783 	lsl	r4, r3, #15
   11dcc:	e1f210b2 	ldrh	r1, [r2, #2]!
   11dd0:	e18430a3 	orr	r3, r4, r3, lsr #1
   11dd4:	e6fc3073 	uxtah	r3, ip, r3
   11dd8:	e3510000 	cmp	r1, #0
   11ddc:	e6ff3073 	uxth	r3, r3
   11de0:	1afffff7 	bne	11dc4 <gen_numname+0x20c>
   11de4:	eaffff8d 	b	11c20 <gen_numname+0x68>
   11de8:	e5d1c000 	ldrb	ip, [r1]
   11dec:	e5c0c000 	strb	ip, [r0]
   11df0:	e5d1c001 	ldrb	ip, [r1, #1]
   11df4:	e5c0c001 	strb	ip, [r0, #1]
   11df8:	e5d1c002 	ldrb	ip, [r1, #2]
   11dfc:	e5c0c002 	strb	ip, [r0, #2]
   11e00:	e5d1c003 	ldrb	ip, [r1, #3]
   11e04:	e5c0c003 	strb	ip, [r0, #3]
   11e08:	e5d1c004 	ldrb	ip, [r1, #4]
   11e0c:	e5c0c004 	strb	ip, [r0, #4]
   11e10:	e5d1c005 	ldrb	ip, [r1, #5]
   11e14:	e5c0c005 	strb	ip, [r0, #5]
   11e18:	e5d1c006 	ldrb	ip, [r1, #6]
   11e1c:	e5c0c006 	strb	ip, [r0, #6]
   11e20:	e5d1c007 	ldrb	ip, [r1, #7]
   11e24:	e5c0c007 	strb	ip, [r0, #7]
   11e28:	eaffff74 	b	11c00 <gen_numname+0x48>
   11e2c:	e3a0c004 	mov	ip, #4
   11e30:	eaffff9a 	b	11ca0 <gen_numname+0xe8>
   11e34:	e3a0c006 	mov	ip, #6
   11e38:	eaffff98 	b	11ca0 <gen_numname+0xe8>
   11e3c:	e3a0c005 	mov	ip, #5
   11e40:	eaffff96 	b	11ca0 <gen_numname+0xe8>
   11e44:	e28cc001 	add	ip, ip, #1
   11e48:	e5c03000 	strb	r3, [r0]
   11e4c:	e3a02001 	mov	r2, #1
   11e50:	eaffffa8 	b	11cf8 <gen_numname+0x140>

00011e54 <f_mount>:
   11e54:	e3500000 	cmp	r0, #0
   11e58:	0a000001 	beq	11e64 <f_mount+0x10>
   11e5c:	e3a0000b 	mov	r0, #11
   11e60:	e12fff1e 	bx	lr
   11e64:	e59f3020 	ldr	r3, [pc, #32]	; 11e8c <f_mount+0x38>
   11e68:	e5932000 	ldr	r2, [r3]
   11e6c:	e5831000 	str	r1, [r3]
   11e70:	e3520000 	cmp	r2, #0
   11e74:	15c20000 	strbne	r0, [r2]
   11e78:	e3510000 	cmp	r1, #0
   11e7c:	13a02000 	movne	r2, #0
   11e80:	15c12000 	strbne	r2, [r1]
   11e84:	e3a00000 	mov	r0, #0
   11e88:	e12fff1e 	bx	lr
   11e8c:	000217dc 	ldrdeq	r1, [r2], -ip

00011e90 <f_open>:
   11e90:	e92d4ff0 	push	{r4, r5, r6, r7, r8, r9, sl, fp, lr}
   11e94:	e2504000 	subs	r4, r0, #0
   11e98:	e24dd04c 	sub	sp, sp, #76	; 0x4c
   11e9c:	e1a05001 	mov	r5, r1
   11ea0:	e1a06002 	mov	r6, r2
   11ea4:	03a00009 	moveq	r0, #9
   11ea8:	0a000018 	beq	11f10 <f_open+0x80>
   11eac:	e3a03000 	mov	r3, #0
   11eb0:	e5843000 	str	r3, [r4]
   11eb4:	e5d13000 	ldrb	r3, [r1]
   11eb8:	e2433030 	sub	r3, r3, #48	; 0x30
   11ebc:	e3530009 	cmp	r3, #9
   11ec0:	9a000014 	bls	11f18 <f_open+0x88>
   11ec4:	e59f86e4 	ldr	r8, [pc, #1764]	; 125b0 <f_open+0x720>
   11ec8:	e5987000 	ldr	r7, [r8]
   11ecc:	e3570000 	cmp	r7, #0
   11ed0:	03a0000c 	moveq	r0, #12
   11ed4:	0a00000d 	beq	11f10 <f_open+0x80>
   11ed8:	e58d7024 	str	r7, [sp, #36]	; 0x24
   11edc:	e5d73000 	ldrb	r3, [r7]
   11ee0:	e206901e 	and	r9, r6, #30
   11ee4:	e3530000 	cmp	r3, #0
   11ee8:	0a000012 	beq	11f38 <f_open+0xa8>
   11eec:	e5d70001 	ldrb	r0, [r7, #1]
   11ef0:	eb0016b7 	bl	179d4 <disk_status>
   11ef4:	e3100001 	tst	r0, #1
   11ef8:	1a00000e 	bne	11f38 <f_open+0xa8>
   11efc:	e3590000 	cmp	r9, #0
   11f00:	0a00009f 	beq	12184 <f_open+0x2f4>
   11f04:	e3100004 	tst	r0, #4
   11f08:	0a00009d 	beq	12184 <f_open+0x2f4>
   11f0c:	e3a0000a 	mov	r0, #10
   11f10:	e28dd04c 	add	sp, sp, #76	; 0x4c
   11f14:	e8bd8ff0 	pop	{r4, r5, r6, r7, r8, r9, sl, fp, pc}
   11f18:	e5d12001 	ldrb	r2, [r1, #1]
   11f1c:	e352003a 	cmp	r2, #58	; 0x3a
   11f20:	1affffe7 	bne	11ec4 <f_open+0x34>
   11f24:	e3530000 	cmp	r3, #0
   11f28:	13a0000b 	movne	r0, #11
   11f2c:	1afffff7 	bne	11f10 <f_open+0x80>
   11f30:	e2815002 	add	r5, r1, #2
   11f34:	eaffffe2 	b	11ec4 <f_open+0x34>
   11f38:	e3a00000 	mov	r0, #0
   11f3c:	e5c70000 	strb	r0, [r7]
   11f40:	e5c70001 	strb	r0, [r7, #1]
   11f44:	eb001671 	bl	17910 <disk_initialize>
   11f48:	e3100001 	tst	r0, #1
   11f4c:	13a00003 	movne	r0, #3
   11f50:	1affffee 	bne	11f10 <f_open+0x80>
   11f54:	e3590000 	cmp	r9, #0
   11f58:	0a000001 	beq	11f64 <f_open+0xd4>
   11f5c:	e3100004 	tst	r0, #4
   11f60:	1affffe9 	bne	11f0c <f_open+0x7c>
   11f64:	e2879034 	add	r9, r7, #52	; 0x34
   11f68:	e1a01009 	mov	r1, r9
   11f6c:	e5d70001 	ldrb	r0, [r7, #1]
   11f70:	e3a02000 	mov	r2, #0
   11f74:	e3a03001 	mov	r3, #1
   11f78:	eb001675 	bl	17954 <disk_read>
   11f7c:	e3500000 	cmp	r0, #0
   11f80:	13a00003 	movne	r0, #3
   11f84:	0a0000fa 	beq	12374 <f_open+0x4e4>
   11f88:	e3a0a000 	mov	sl, #0
   11f8c:	e3500003 	cmp	r0, #3
   11f90:	03a00001 	moveq	r0, #1
   11f94:	0affffdd 	beq	11f10 <f_open+0x80>
   11f98:	e3500000 	cmp	r0, #0
   11f9c:	0a000002 	beq	11fac <f_open+0x11c>
   11fa0:	e3a0000d 	mov	r0, #13
   11fa4:	eaffffd9 	b	11f10 <f_open+0x80>
   11fa8:	e1a0a000 	mov	sl, r0
   11fac:	e5d72040 	ldrb	r2, [r7, #64]	; 0x40
   11fb0:	e5d7303f 	ldrb	r3, [r7, #63]	; 0x3f
   11fb4:	e1833402 	orr	r3, r3, r2, lsl #8
   11fb8:	e3530c02 	cmp	r3, #512	; 0x200
   11fbc:	1afffff7 	bne	11fa0 <f_open+0x110>
   11fc0:	e5d7204b 	ldrb	r2, [r7, #75]	; 0x4b
   11fc4:	e5d7304a 	ldrb	r3, [r7, #74]	; 0x4a
   11fc8:	e1933402 	orrs	r3, r3, r2, lsl #8
   11fcc:	e58d3010 	str	r3, [sp, #16]
   11fd0:	1a000008 	bne	11ff8 <f_open+0x168>
   11fd4:	e5d7205a 	ldrb	r2, [r7, #90]	; 0x5a
   11fd8:	e5d7105b 	ldrb	r1, [r7, #91]	; 0x5b
   11fdc:	e1a02802 	lsl	r2, r2, #16
   11fe0:	e5d73058 	ldrb	r3, [r7, #88]	; 0x58
   11fe4:	e1821c01 	orr	r1, r2, r1, lsl #24
   11fe8:	e5d72059 	ldrb	r2, [r7, #89]	; 0x59
   11fec:	e1813003 	orr	r3, r1, r3
   11ff0:	e1832402 	orr	r2, r3, r2, lsl #8
   11ff4:	e58d2010 	str	r2, [sp, #16]
   11ff8:	e5d72044 	ldrb	r2, [r7, #68]	; 0x44
   11ffc:	e59d3010 	ldr	r3, [sp, #16]
   12000:	e5c72003 	strb	r2, [r7, #3]
   12004:	e587301c 	str	r3, [r7, #28]
   12008:	e2423001 	sub	r3, r2, #1
   1200c:	e3530001 	cmp	r3, #1
   12010:	8affffe2 	bhi	11fa0 <f_open+0x110>
   12014:	e5d71041 	ldrb	r1, [r7, #65]	; 0x41
   12018:	e3510000 	cmp	r1, #0
   1201c:	e5c71002 	strb	r1, [r7, #2]
   12020:	0affffde 	beq	11fa0 <f_open+0x110>
   12024:	e2413001 	sub	r3, r1, #1
   12028:	e1130001 	tst	r3, r1
   1202c:	1affffdb 	bne	11fa0 <f_open+0x110>
   12030:	e5d70046 	ldrb	r0, [r7, #70]	; 0x46
   12034:	e5d73045 	ldrb	r3, [r7, #69]	; 0x45
   12038:	e1833400 	orr	r3, r3, r0, lsl #8
   1203c:	e313000f 	tst	r3, #15
   12040:	e1c730b8 	strh	r3, [r7, #8]
   12044:	1affffd5 	bne	11fa0 <f_open+0x110>
   12048:	e5d7c048 	ldrb	ip, [r7, #72]	; 0x48
   1204c:	e5d70047 	ldrb	r0, [r7, #71]	; 0x47
   12050:	e190040c 	orrs	r0, r0, ip, lsl #8
   12054:	1a000007 	bne	12078 <f_open+0x1e8>
   12058:	e5d70056 	ldrb	r0, [r7, #86]	; 0x56
   1205c:	e5d7b057 	ldrb	fp, [r7, #87]	; 0x57
   12060:	e1a00800 	lsl	r0, r0, #16
   12064:	e5d7c054 	ldrb	ip, [r7, #84]	; 0x54
   12068:	e180bc0b 	orr	fp, r0, fp, lsl #24
   1206c:	e5d70055 	ldrb	r0, [r7, #85]	; 0x55
   12070:	e18bc00c 	orr	ip, fp, ip
   12074:	e18c0400 	orr	r0, ip, r0, lsl #8
   12078:	e5d7b043 	ldrb	fp, [r7, #67]	; 0x43
   1207c:	e5d7c042 	ldrb	ip, [r7, #66]	; 0x42
   12080:	e19cc40b 	orrs	ip, ip, fp, lsl #8
   12084:	0affffc5 	beq	11fa0 <f_open+0x110>
   12088:	e59db010 	ldr	fp, [sp, #16]
   1208c:	e0020b92 	mul	r2, r2, fp
   12090:	e58d2014 	str	r2, [sp, #20]
   12094:	e59db014 	ldr	fp, [sp, #20]
   12098:	e08c2223 	add	r2, ip, r3, lsr #4
   1209c:	e082200b 	add	r2, r2, fp
   120a0:	e1520000 	cmp	r2, r0
   120a4:	8affffbd 	bhi	11fa0 <f_open+0x110>
   120a8:	e0620000 	rsb	r0, r2, r0
   120ac:	e58d2004 	str	r2, [sp, #4]
   120b0:	e58d300c 	str	r3, [sp, #12]
   120b4:	e58dc008 	str	ip, [sp, #8]
   120b8:	eb0028f2 	bl	1c488 <__aeabi_uidiv>
   120bc:	e2501000 	subs	r1, r0, #0
   120c0:	e59d2004 	ldr	r2, [sp, #4]
   120c4:	e59d300c 	ldr	r3, [sp, #12]
   120c8:	e59dc008 	ldr	ip, [sp, #8]
   120cc:	0affffb3 	beq	11fa0 <f_open+0x110>
   120d0:	e59f04dc 	ldr	r0, [pc, #1244]	; 125b4 <f_open+0x724>
   120d4:	e1510000 	cmp	r1, r0
   120d8:	9a000132 	bls	125a8 <f_open+0x718>
   120dc:	e2800a0f 	add	r0, r0, #61440	; 0xf000
   120e0:	e1510000 	cmp	r1, r0
   120e4:	93a0b002 	movls	fp, #2
   120e8:	8a000119 	bhi	12554 <f_open+0x6c4>
   120ec:	e2811002 	add	r1, r1, #2
   120f0:	e08ac00c 	add	ip, sl, ip
   120f4:	e082200a 	add	r2, r2, sl
   120f8:	e3530000 	cmp	r3, #0
   120fc:	e5871018 	str	r1, [r7, #24]
   12100:	e587c024 	str	ip, [r7, #36]	; 0x24
   12104:	e587202c 	str	r2, [r7, #44]	; 0x2c
   12108:	e587a020 	str	sl, [r7, #32]
   1210c:	0affffa3 	beq	11fa0 <f_open+0x110>
   12110:	e59d2014 	ldr	r2, [sp, #20]
   12114:	e35b0002 	cmp	fp, #2
   12118:	10813081 	addne	r3, r1, r1, lsl #1
   1211c:	e082c00c 	add	ip, r2, ip
   12120:	12011001 	andne	r1, r1, #1
   12124:	e587c028 	str	ip, [r7, #40]	; 0x28
   12128:	01a01081 	lsleq	r1, r1, #1
   1212c:	108110a3 	addne	r1, r1, r3, lsr #1
   12130:	13a0b001 	movne	fp, #1
   12134:	e2813f7f 	add	r3, r1, #508	; 0x1fc
   12138:	e59d2010 	ldr	r2, [sp, #16]
   1213c:	e2833003 	add	r3, r3, #3
   12140:	e15204a3 	cmp	r2, r3, lsr #9
   12144:	3affff95 	bcc	11fa0 <f_open+0x110>
   12148:	e3e02000 	mvn	r2, #0
   1214c:	e3a03000 	mov	r3, #0
   12150:	e35b0003 	cmp	fp, #3
   12154:	e5872010 	str	r2, [r7, #16]
   12158:	e587300c 	str	r3, [r7, #12]
   1215c:	0a0000c0 	beq	12464 <f_open+0x5d4>
   12160:	e1d820b4 	ldrh	r2, [r8, #4]
   12164:	e3a03000 	mov	r3, #0
   12168:	e2822001 	add	r2, r2, #1
   1216c:	e6ff2072 	uxth	r2, r2
   12170:	e5c7b000 	strb	fp, [r7]
   12174:	e1c820b4 	strh	r2, [r8, #4]
   12178:	e1c720b6 	strh	r2, [r7, #6]
   1217c:	e5873030 	str	r3, [r7, #48]	; 0x30
   12180:	e5c73004 	strb	r3, [r7, #4]
   12184:	e59f342c 	ldr	r3, [pc, #1068]	; 125b8 <f_open+0x728>
   12188:	e1a01005 	mov	r1, r5
   1218c:	e58d3040 	str	r3, [sp, #64]	; 0x40
   12190:	e28d0024 	add	r0, sp, #36	; 0x24
   12194:	e28d3018 	add	r3, sp, #24
   12198:	e58d303c 	str	r3, [sp, #60]	; 0x3c
   1219c:	ebfff807 	bl	101c0 <follow_path>
   121a0:	e3500000 	cmp	r0, #0
   121a4:	e206701f 	and	r7, r6, #31
   121a8:	e59d5038 	ldr	r5, [sp, #56]	; 0x38
   121ac:	0a00002a 	beq	1225c <f_open+0x3cc>
   121b0:	e316001c 	tst	r6, #28
   121b4:	0affff55 	beq	11f10 <f_open+0x80>
   121b8:	e3500004 	cmp	r0, #4
   121bc:	1affff53 	bne	11f10 <f_open+0x80>
   121c0:	e28d0024 	add	r0, sp, #36	; 0x24
   121c4:	ebfff927 	bl	10668 <dir_register>
   121c8:	e3500000 	cmp	r0, #0
   121cc:	e3877008 	orr	r7, r7, #8
   121d0:	e59d5038 	ldr	r5, [sp, #56]	; 0x38
   121d4:	1affff4d 	bne	11f10 <f_open+0x80>
   121d8:	e3170008 	tst	r7, #8
   121dc:	059d3024 	ldreq	r3, [sp, #36]	; 0x24
   121e0:	1a00003a 	bne	122d0 <f_open+0x440>
   121e4:	e5932030 	ldr	r2, [r3, #48]	; 0x30
   121e8:	e5c47006 	strb	r7, [r4, #6]
   121ec:	e5845020 	str	r5, [r4, #32]
   121f0:	e584201c 	str	r2, [r4, #28]
   121f4:	e5d30000 	ldrb	r0, [r3]
   121f8:	e5d5101b 	ldrb	r1, [r5, #27]
   121fc:	e5d5201a 	ldrb	r2, [r5, #26]
   12200:	e3500003 	cmp	r0, #3
   12204:	05d50015 	ldrbeq	r0, [r5, #21]
   12208:	e1822401 	orr	r2, r2, r1, lsl #8
   1220c:	05d51014 	ldrbeq	r1, [r5, #20]
   12210:	01811400 	orreq	r1, r1, r0, lsl #8
   12214:	01822801 	orreq	r2, r2, r1, lsl #16
   12218:	e5842010 	str	r2, [r4, #16]
   1221c:	e5d5101e 	ldrb	r1, [r5, #30]
   12220:	e5d5001f 	ldrb	r0, [r5, #31]
   12224:	e5d5201c 	ldrb	r2, [r5, #28]
   12228:	e1a01801 	lsl	r1, r1, #16
   1222c:	e1811c00 	orr	r1, r1, r0, lsl #24
   12230:	e5d5001d 	ldrb	r0, [r5, #29]
   12234:	e1811002 	orr	r1, r1, r2
   12238:	e1d320b6 	ldrh	r2, [r3, #6]
   1223c:	e1811400 	orr	r1, r1, r0, lsl #8
   12240:	e3a00000 	mov	r0, #0
   12244:	e584100c 	str	r1, [r4, #12]
   12248:	e5843000 	str	r3, [r4]
   1224c:	e1c420b4 	strh	r2, [r4, #4]
   12250:	e5840008 	str	r0, [r4, #8]
   12254:	e5840018 	str	r0, [r4, #24]
   12258:	eaffff2c 	b	11f10 <f_open+0x80>
   1225c:	e3550000 	cmp	r5, #0
   12260:	0a000018 	beq	122c8 <f_open+0x438>
   12264:	e316001c 	tst	r6, #28
   12268:	e5d5300b 	ldrb	r3, [r5, #11]
   1226c:	0a000003 	beq	12280 <f_open+0x3f0>
   12270:	e3130011 	tst	r3, #17
   12274:	0a00000f 	beq	122b8 <f_open+0x428>
   12278:	e3a00007 	mov	r0, #7
   1227c:	eaffff23 	b	11f10 <f_open+0x80>
   12280:	e3130010 	tst	r3, #16
   12284:	13a00004 	movne	r0, #4
   12288:	1affff20 	bne	11f10 <f_open+0x80>
   1228c:	e3160002 	tst	r6, #2
   12290:	0a000001 	beq	1229c <f_open+0x40c>
   12294:	e3130001 	tst	r3, #1
   12298:	1afffff6 	bne	12278 <f_open+0x3e8>
   1229c:	e2062008 	and	r2, r6, #8
   122a0:	e6ef2072 	uxtb	r2, r2
   122a4:	e3520000 	cmp	r2, #0
   122a8:	e59d3024 	ldr	r3, [sp, #36]	; 0x24
   122ac:	0affffcc 	beq	121e4 <f_open+0x354>
   122b0:	e3877020 	orr	r7, r7, #32
   122b4:	eaffffca 	b	121e4 <f_open+0x354>
   122b8:	e3160004 	tst	r6, #4
   122bc:	13a00008 	movne	r0, #8
   122c0:	1affff12 	bne	11f10 <f_open+0x80>
   122c4:	eaffffc3 	b	121d8 <f_open+0x348>
   122c8:	e3a00006 	mov	r0, #6
   122cc:	eaffffb7 	b	121b0 <f_open+0x320>
   122d0:	eb0015de 	bl	17a50 <get_fattime>
   122d4:	e3a02000 	mov	r2, #0
   122d8:	e1a06420 	lsr	r6, r0, #8
   122dc:	e1a01c20 	lsr	r1, r0, #24
   122e0:	e59d3024 	ldr	r3, [sp, #36]	; 0x24
   122e4:	e1a0c820 	lsr	ip, r0, #16
   122e8:	e5c5600f 	strb	r6, [r5, #15]
   122ec:	e5c5200b 	strb	r2, [r5, #11]
   122f0:	e5c5201c 	strb	r2, [r5, #28]
   122f4:	e5c5201d 	strb	r2, [r5, #29]
   122f8:	e5c5201e 	strb	r2, [r5, #30]
   122fc:	e5c5201f 	strb	r2, [r5, #31]
   12300:	e5c5000e 	strb	r0, [r5, #14]
   12304:	e5c5c010 	strb	ip, [r5, #16]
   12308:	e5c51011 	strb	r1, [r5, #17]
   1230c:	e5d31000 	ldrb	r1, [r3]
   12310:	e5d5201a 	ldrb	r2, [r5, #26]
   12314:	e5d5601b 	ldrb	r6, [r5, #27]
   12318:	e3510003 	cmp	r1, #3
   1231c:	e1826406 	orr	r6, r2, r6, lsl #8
   12320:	05d51015 	ldrbeq	r1, [r5, #21]
   12324:	05d52014 	ldrbeq	r2, [r5, #20]
   12328:	01822401 	orreq	r2, r2, r1, lsl #8
   1232c:	01866802 	orreq	r6, r6, r2, lsl #16
   12330:	e3a01001 	mov	r1, #1
   12334:	e3a02000 	mov	r2, #0
   12338:	e3560000 	cmp	r6, #0
   1233c:	e5c5201a 	strb	r2, [r5, #26]
   12340:	e5c5201b 	strb	r2, [r5, #27]
   12344:	e5c52014 	strb	r2, [r5, #20]
   12348:	e5c52015 	strb	r2, [r5, #21]
   1234c:	e5c31004 	strb	r1, [r3, #4]
   12350:	0affffd6 	beq	122b0 <f_open+0x420>
   12354:	e1560001 	cmp	r6, r1
   12358:	e5938030 	ldr	r8, [r3, #48]	; 0x30
   1235c:	9a000002 	bls	1236c <f_open+0x4dc>
   12360:	e5932018 	ldr	r2, [r3, #24]
   12364:	e1560002 	cmp	r6, r2
   12368:	3a00002f 	bcc	1242c <f_open+0x59c>
   1236c:	e3a00002 	mov	r0, #2
   12370:	eafffee6 	b	11f10 <f_open+0x80>
   12374:	e5d71233 	ldrb	r1, [r7, #563]	; 0x233
   12378:	e5d72232 	ldrb	r2, [r7, #562]	; 0x232
   1237c:	e59f3238 	ldr	r3, [pc, #568]	; 125bc <f_open+0x72c>
   12380:	e1822401 	orr	r2, r2, r1, lsl #8
   12384:	e6bf2072 	sxth	r2, r2
   12388:	e1520003 	cmp	r2, r3
   1238c:	13a00002 	movne	r0, #2
   12390:	1afffefc 	bne	11f88 <f_open+0xf8>
   12394:	e5d7206c 	ldrb	r2, [r7, #108]	; 0x6c
   12398:	e5d7106d 	ldrb	r1, [r7, #109]	; 0x6d
   1239c:	e1a02802 	lsl	r2, r2, #16
   123a0:	e5d7306a 	ldrb	r3, [r7, #106]	; 0x6a
   123a4:	e1821c01 	orr	r1, r2, r1, lsl #24
   123a8:	e5d7206b 	ldrb	r2, [r7, #107]	; 0x6b
   123ac:	e1813003 	orr	r3, r1, r3
   123b0:	e1832402 	orr	r2, r3, r2, lsl #8
   123b4:	e59f3204 	ldr	r3, [pc, #516]	; 125c0 <f_open+0x730>
   123b8:	e3c224ff 	bic	r2, r2, #-16777216	; 0xff000000
   123bc:	e1520003 	cmp	r2, r3
   123c0:	0afffef0 	beq	11f88 <f_open+0xf8>
   123c4:	e5d71088 	ldrb	r1, [r7, #136]	; 0x88
   123c8:	e5d7c089 	ldrb	ip, [r7, #137]	; 0x89
   123cc:	e1a01801 	lsl	r1, r1, #16
   123d0:	e5d72086 	ldrb	r2, [r7, #134]	; 0x86
   123d4:	e181cc0c 	orr	ip, r1, ip, lsl #24
   123d8:	e5d71087 	ldrb	r1, [r7, #135]	; 0x87
   123dc:	e18c2002 	orr	r2, ip, r2
   123e0:	e1822401 	orr	r2, r2, r1, lsl #8
   123e4:	e3c224ff 	bic	r2, r2, #-16777216	; 0xff000000
   123e8:	e1520003 	cmp	r2, r3
   123ec:	0afffeed 	beq	11fa8 <f_open+0x118>
   123f0:	e5d731f6 	ldrb	r3, [r7, #502]	; 0x1f6
   123f4:	e3530000 	cmp	r3, #0
   123f8:	0afffee8 	beq	11fa0 <f_open+0x110>
   123fc:	e5d721fc 	ldrb	r2, [r7, #508]	; 0x1fc
   12400:	e5d711fd 	ldrb	r1, [r7, #509]	; 0x1fd
   12404:	e5d731fa 	ldrb	r3, [r7, #506]	; 0x1fa
   12408:	e1a02802 	lsl	r2, r2, #16
   1240c:	e1822c01 	orr	r2, r2, r1, lsl #24
   12410:	e5d7a1fb 	ldrb	sl, [r7, #507]	; 0x1fb
   12414:	e1823003 	orr	r3, r2, r3
   12418:	e183a40a 	orr	sl, r3, sl, lsl #8
   1241c:	e1a0100a 	mov	r1, sl
   12420:	e1a00007 	mov	r0, r7
   12424:	ebffed67 	bl	d9c8 <check_fs>
   12428:	eafffed7 	b	11f8c <f_open+0xfc>
   1242c:	e1a00003 	mov	r0, r3
   12430:	e1a01006 	mov	r1, r6
   12434:	ebffef77 	bl	e218 <remove_chain.part.8>
   12438:	e3500000 	cmp	r0, #0
   1243c:	1afffeb3 	bne	11f10 <f_open+0x80>
   12440:	e59d0024 	ldr	r0, [sp, #36]	; 0x24
   12444:	e2466001 	sub	r6, r6, #1
   12448:	e1a01008 	mov	r1, r8
   1244c:	e580600c 	str	r6, [r0, #12]
   12450:	ebffedaf 	bl	db14 <move_window>
   12454:	e3500000 	cmp	r0, #0
   12458:	059d3024 	ldreq	r3, [sp, #36]	; 0x24
   1245c:	0affff93 	beq	122b0 <f_open+0x420>
   12460:	eafffeaa 	b	11f10 <f_open+0x80>
   12464:	e5d71065 	ldrb	r1, [r7, #101]	; 0x65
   12468:	e5d72064 	ldrb	r2, [r7, #100]	; 0x64
   1246c:	e5c73005 	strb	r3, [r7, #5]
   12470:	e1822401 	orr	r2, r2, r1, lsl #8
   12474:	e08a2002 	add	r2, sl, r2
   12478:	e1a01009 	mov	r1, r9
   1247c:	e5872014 	str	r2, [r7, #20]
   12480:	e5d70001 	ldrb	r0, [r7, #1]
   12484:	e3a03001 	mov	r3, #1
   12488:	eb001531 	bl	17954 <disk_read>
   1248c:	e3500000 	cmp	r0, #0
   12490:	1affff32 	bne	12160 <f_open+0x2d0>
   12494:	e5d71233 	ldrb	r1, [r7, #563]	; 0x233
   12498:	e5d72232 	ldrb	r2, [r7, #562]	; 0x232
   1249c:	e59f3118 	ldr	r3, [pc, #280]	; 125bc <f_open+0x72c>
   124a0:	e1822401 	orr	r2, r2, r1, lsl #8
   124a4:	e6bf2072 	sxth	r2, r2
   124a8:	e1520003 	cmp	r2, r3
   124ac:	1affff2b 	bne	12160 <f_open+0x2d0>
   124b0:	e5d72036 	ldrb	r2, [r7, #54]	; 0x36
   124b4:	e5d71037 	ldrb	r1, [r7, #55]	; 0x37
   124b8:	e5d73034 	ldrb	r3, [r7, #52]	; 0x34
   124bc:	e1a02802 	lsl	r2, r2, #16
   124c0:	e1822c01 	orr	r2, r2, r1, lsl #24
   124c4:	e5d71035 	ldrb	r1, [r7, #53]	; 0x35
   124c8:	e1822003 	orr	r2, r2, r3
   124cc:	e59f30f0 	ldr	r3, [pc, #240]	; 125c4 <f_open+0x734>
   124d0:	e1822401 	orr	r2, r2, r1, lsl #8
   124d4:	e1520003 	cmp	r2, r3
   124d8:	1affff20 	bne	12160 <f_open+0x2d0>
   124dc:	e5d7221a 	ldrb	r2, [r7, #538]	; 0x21a
   124e0:	e5d7121b 	ldrb	r1, [r7, #539]	; 0x21b
   124e4:	e5d73218 	ldrb	r3, [r7, #536]	; 0x218
   124e8:	e1a02802 	lsl	r2, r2, #16
   124ec:	e1822c01 	orr	r2, r2, r1, lsl #24
   124f0:	e5d71219 	ldrb	r1, [r7, #537]	; 0x219
   124f4:	e1822003 	orr	r2, r2, r3
   124f8:	e59f30c8 	ldr	r3, [pc, #200]	; 125c8 <f_open+0x738>
   124fc:	e1822401 	orr	r2, r2, r1, lsl #8
   12500:	e1520003 	cmp	r2, r3
   12504:	1affff15 	bne	12160 <f_open+0x2d0>
   12508:	e5d70222 	ldrb	r0, [r7, #546]	; 0x222
   1250c:	e5d7121e 	ldrb	r1, [r7, #542]	; 0x21e
   12510:	e5d7e223 	ldrb	lr, [r7, #547]	; 0x223
   12514:	e5d7c21f 	ldrb	ip, [r7, #543]	; 0x21f
   12518:	e1a00800 	lsl	r0, r0, #16
   1251c:	e1a01801 	lsl	r1, r1, #16
   12520:	e5d72220 	ldrb	r2, [r7, #544]	; 0x220
   12524:	e5d7321c 	ldrb	r3, [r7, #540]	; 0x21c
   12528:	e180ec0e 	orr	lr, r0, lr, lsl #24
   1252c:	e181cc0c 	orr	ip, r1, ip, lsl #24
   12530:	e5d70221 	ldrb	r0, [r7, #545]	; 0x221
   12534:	e5d7121d 	ldrb	r1, [r7, #541]	; 0x21d
   12538:	e18e2002 	orr	r2, lr, r2
   1253c:	e18c3003 	orr	r3, ip, r3
   12540:	e1822400 	orr	r2, r2, r0, lsl #8
   12544:	e1833401 	orr	r3, r3, r1, lsl #8
   12548:	e587200c 	str	r2, [r7, #12]
   1254c:	e5873010 	str	r3, [r7, #16]
   12550:	eaffff02 	b	12160 <f_open+0x2d0>
   12554:	e2811002 	add	r1, r1, #2
   12558:	e08ac00c 	add	ip, sl, ip
   1255c:	e082200a 	add	r2, r2, sl
   12560:	e3530000 	cmp	r3, #0
   12564:	e5871018 	str	r1, [r7, #24]
   12568:	e587c024 	str	ip, [r7, #36]	; 0x24
   1256c:	e587202c 	str	r2, [r7, #44]	; 0x2c
   12570:	e587a020 	str	sl, [r7, #32]
   12574:	1afffe89 	bne	11fa0 <f_open+0x110>
   12578:	e5d72062 	ldrb	r2, [r7, #98]	; 0x62
   1257c:	e5d70063 	ldrb	r0, [r7, #99]	; 0x63
   12580:	e1a02802 	lsl	r2, r2, #16
   12584:	e5d73060 	ldrb	r3, [r7, #96]	; 0x60
   12588:	e1820c00 	orr	r0, r2, r0, lsl #24
   1258c:	e5d72061 	ldrb	r2, [r7, #97]	; 0x61
   12590:	e1803003 	orr	r3, r0, r3
   12594:	e1833402 	orr	r3, r3, r2, lsl #8
   12598:	e1a01101 	lsl	r1, r1, #2
   1259c:	e5873028 	str	r3, [r7, #40]	; 0x28
   125a0:	e3a0b003 	mov	fp, #3
   125a4:	eafffee2 	b	12134 <f_open+0x2a4>
   125a8:	e3a0b001 	mov	fp, #1
   125ac:	eafffece 	b	120ec <f_open+0x25c>
   125b0:	000217dc 	ldrdeq	r1, [r2], -ip
   125b4:	00000ff5 	strdeq	r0, [r0], -r5
   125b8:	000217e4 	andeq	r1, r2, r4, ror #15
   125bc:	ffffaa55 			; <UNDEFINED> instruction: 0xffffaa55
   125c0:	00544146 	subseq	r4, r4, r6, asr #2
   125c4:	41615252 	cmnmi	r1, r2, asr r2
   125c8:	61417272 	hvcvs	5922	; 0x1722

000125cc <f_read>:
   125cc:	e92d4ff0 	push	{r4, r5, r6, r7, r8, r9, sl, fp, lr}
   125d0:	e1a07003 	mov	r7, r3
   125d4:	e2504000 	subs	r4, r0, #0
   125d8:	e3a03000 	mov	r3, #0
   125dc:	e24dd014 	sub	sp, sp, #20
   125e0:	e1a05001 	mov	r5, r1
   125e4:	e5873000 	str	r3, [r7]
   125e8:	0a000005 	beq	12604 <f_read+0x38>
   125ec:	e5943000 	ldr	r3, [r4]
   125f0:	e3530000 	cmp	r3, #0
   125f4:	0a000002 	beq	12604 <f_read+0x38>
   125f8:	e5d31000 	ldrb	r1, [r3]
   125fc:	e3510000 	cmp	r1, #0
   12600:	1a000002 	bne	12610 <f_read+0x44>
   12604:	e3a00009 	mov	r0, #9
   12608:	e28dd014 	add	sp, sp, #20
   1260c:	e8bd8ff0 	pop	{r4, r5, r6, r7, r8, r9, sl, fp, pc}
   12610:	e1d300b6 	ldrh	r0, [r3, #6]
   12614:	e1d410b4 	ldrh	r1, [r4, #4]
   12618:	e1500001 	cmp	r0, r1
   1261c:	1afffff8 	bne	12604 <f_read+0x38>
   12620:	e5d30001 	ldrb	r0, [r3, #1]
   12624:	e58d2000 	str	r2, [sp]
   12628:	eb0014e9 	bl	179d4 <disk_status>
   1262c:	e3100001 	tst	r0, #1
   12630:	e59d2000 	ldr	r2, [sp]
   12634:	13a00003 	movne	r0, #3
   12638:	1afffff2 	bne	12608 <f_read+0x3c>
   1263c:	e5d43006 	ldrb	r3, [r4, #6]
   12640:	e3130080 	tst	r3, #128	; 0x80
   12644:	1a0000d8 	bne	129ac <f_read+0x3e0>
   12648:	e3130001 	tst	r3, #1
   1264c:	03a00007 	moveq	r0, #7
   12650:	0affffec 	beq	12608 <f_read+0x3c>
   12654:	e5941008 	ldr	r1, [r4, #8]
   12658:	e594600c 	ldr	r6, [r4, #12]
   1265c:	e0616006 	rsb	r6, r1, r6
   12660:	e1520006 	cmp	r2, r6
   12664:	31a06002 	movcc	r6, r2
   12668:	e3560000 	cmp	r6, #0
   1266c:	0a000053 	beq	127c0 <f_read+0x1f4>
   12670:	e284c028 	add	ip, r4, #40	; 0x28
   12674:	e284b024 	add	fp, r4, #36	; 0x24
   12678:	e58dc008 	str	ip, [sp, #8]
   1267c:	e284cf89 	add	ip, r4, #548	; 0x224
   12680:	e58dc00c 	str	ip, [sp, #12]
   12684:	e1a0a00b 	mov	sl, fp
   12688:	e1a03b81 	lsl	r3, r1, #23
   1268c:	e1b03ba3 	lsrs	r3, r3, #23
   12690:	1a000067 	bne	12834 <f_read+0x268>
   12694:	e5940000 	ldr	r0, [r4]
   12698:	e5d09002 	ldrb	r9, [r0, #2]
   1269c:	e2499001 	sub	r9, r9, #1
   126a0:	e00994a1 	and	r9, r9, r1, lsr #9
   126a4:	e21990ff 	ands	r9, r9, #255	; 0xff
   126a8:	0a000093 	beq	128fc <f_read+0x330>
   126ac:	e5942014 	ldr	r2, [r4, #20]
   126b0:	e5901018 	ldr	r1, [r0, #24]
   126b4:	e2422002 	sub	r2, r2, #2
   126b8:	e2411002 	sub	r1, r1, #2
   126bc:	e1520001 	cmp	r2, r1
   126c0:	2a0000a4 	bcs	12958 <f_read+0x38c>
   126c4:	e590c02c 	ldr	ip, [r0, #44]	; 0x2c
   126c8:	e5d01002 	ldrb	r1, [r0, #2]
   126cc:	e58dc004 	str	ip, [sp, #4]
   126d0:	e00c0291 	mul	ip, r1, r2
   126d4:	e59d3004 	ldr	r3, [sp, #4]
   126d8:	e09c8003 	adds	r8, ip, r3
   126dc:	0a00009d 	beq	12958 <f_read+0x38c>
   126e0:	e1b0b4a6 	lsrs	fp, r6, #9
   126e4:	e0888009 	add	r8, r8, r9
   126e8:	0a000036 	beq	127c8 <f_read+0x1fc>
   126ec:	e089200b 	add	r2, r9, fp
   126f0:	e1520001 	cmp	r2, r1
   126f4:	8069b001 	rsbhi	fp, r9, r1
   126f8:	e5d00001 	ldrb	r0, [r0, #1]
   126fc:	e6ef307b 	uxtb	r3, fp
   12700:	e1a01005 	mov	r1, r5
   12704:	e1a02008 	mov	r2, r8
   12708:	e58dc000 	str	ip, [sp]
   1270c:	eb001490 	bl	17954 <disk_read>
   12710:	e2503000 	subs	r3, r0, #0
   12714:	e59dc000 	ldr	ip, [sp]
   12718:	1a000094 	bne	12970 <f_read+0x3a4>
   1271c:	e5d42006 	ldrb	r2, [r4, #6]
   12720:	e3120040 	tst	r2, #64	; 0x40
   12724:	0a00001b 	beq	12798 <f_read+0x1cc>
   12728:	e5942018 	ldr	r2, [r4, #24]
   1272c:	e0681002 	rsb	r1, r8, r2
   12730:	e15b0001 	cmp	fp, r1
   12734:	9a000017 	bls	12798 <f_read+0x1cc>
   12738:	e59d0004 	ldr	r0, [sp, #4]
   1273c:	e0851481 	add	r1, r5, r1, lsl #9
   12740:	e0602002 	rsb	r2, r0, r2
   12744:	e0699002 	rsb	r9, r9, r2
   12748:	e06c9009 	rsb	r9, ip, r9
   1274c:	e0859489 	add	r9, r5, r9, lsl #9
   12750:	e189200a 	orr	r2, r9, sl
   12754:	e59dc008 	ldr	ip, [sp, #8]
   12758:	e3120003 	tst	r2, #3
   1275c:	e2892004 	add	r2, r9, #4
   12760:	13a00000 	movne	r0, #0
   12764:	03a00001 	moveq	r0, #1
   12768:	e159000c 	cmp	r9, ip
   1276c:	315a0002 	cmpcc	sl, r2
   12770:	33a02000 	movcc	r2, #0
   12774:	23a02001 	movcs	r2, #1
   12778:	e1100002 	tst	r0, r2
   1277c:	e1a0200a 	mov	r2, sl
   12780:	0a000083 	beq	12994 <f_read+0x3c8>
   12784:	e79a2003 	ldr	r2, [sl, r3]
   12788:	e7892003 	str	r2, [r9, r3]
   1278c:	e2833004 	add	r3, r3, #4
   12790:	e3530c02 	cmp	r3, #512	; 0x200
   12794:	1afffffa 	bne	12784 <f_read+0x1b8>
   12798:	e5941008 	ldr	r1, [r4, #8]
   1279c:	e1a0b48b 	lsl	fp, fp, #9
   127a0:	e5973000 	ldr	r3, [r7]
   127a4:	e081100b 	add	r1, r1, fp
   127a8:	e083300b 	add	r3, r3, fp
   127ac:	e056600b 	subs	r6, r6, fp
   127b0:	e5841008 	str	r1, [r4, #8]
   127b4:	e085500b 	add	r5, r5, fp
   127b8:	e5873000 	str	r3, [r7]
   127bc:	1affffb1 	bne	12688 <f_read+0xbc>
   127c0:	e3a00000 	mov	r0, #0
   127c4:	eaffff8f 	b	12608 <f_read+0x3c>
   127c8:	e5942018 	ldr	r2, [r4, #24]
   127cc:	e1520008 	cmp	r2, r8
   127d0:	0a000013 	beq	12824 <f_read+0x258>
   127d4:	e5d41006 	ldrb	r1, [r4, #6]
   127d8:	e3110040 	tst	r1, #64	; 0x40
   127dc:	0a000009 	beq	12808 <f_read+0x23c>
   127e0:	e5d00001 	ldrb	r0, [r0, #1]
   127e4:	e1a0100a 	mov	r1, sl
   127e8:	e3a03001 	mov	r3, #1
   127ec:	eb001476 	bl	179cc <disk_write>
   127f0:	e3500000 	cmp	r0, #0
   127f4:	1a00005d 	bne	12970 <f_read+0x3a4>
   127f8:	e5d42006 	ldrb	r2, [r4, #6]
   127fc:	e5940000 	ldr	r0, [r4]
   12800:	e3c22040 	bic	r2, r2, #64	; 0x40
   12804:	e5c42006 	strb	r2, [r4, #6]
   12808:	e5d00001 	ldrb	r0, [r0, #1]
   1280c:	e1a0100a 	mov	r1, sl
   12810:	e1a02008 	mov	r2, r8
   12814:	e3a03001 	mov	r3, #1
   12818:	eb00144d 	bl	17954 <disk_read>
   1281c:	e3500000 	cmp	r0, #0
   12820:	1a000052 	bne	12970 <f_read+0x3a4>
   12824:	e5941008 	ldr	r1, [r4, #8]
   12828:	e5848018 	str	r8, [r4, #24]
   1282c:	e1a03b81 	lsl	r3, r1, #23
   12830:	e1a03ba3 	lsr	r3, r3, #23
   12834:	e263bc02 	rsb	fp, r3, #512	; 0x200
   12838:	e15b0006 	cmp	fp, r6
   1283c:	21a0b006 	movcs	fp, r6
   12840:	e0843003 	add	r3, r4, r3
   12844:	e35b0000 	cmp	fp, #0
   12848:	e2833024 	add	r3, r3, #36	; 0x24
   1284c:	e24b9001 	sub	r9, fp, #1
   12850:	0affffd2 	beq	127a0 <f_read+0x1d4>
   12854:	e1852003 	orr	r2, r5, r3
   12858:	e3120003 	tst	r2, #3
   1285c:	e2850004 	add	r0, r5, #4
   12860:	e2832004 	add	r2, r3, #4
   12864:	13a01000 	movne	r1, #0
   12868:	03a01001 	moveq	r1, #1
   1286c:	e1550002 	cmp	r5, r2
   12870:	31530000 	cmpcc	r3, r0
   12874:	33a02000 	movcc	r2, #0
   12878:	23a02001 	movcs	r2, #1
   1287c:	e0012002 	and	r2, r1, r2
   12880:	e35b0009 	cmp	fp, #9
   12884:	93a02000 	movls	r2, #0
   12888:	82022001 	andhi	r2, r2, #1
   1288c:	e3520000 	cmp	r2, #0
   12890:	0a000023 	beq	12924 <f_read+0x358>
   12894:	e1a0012b 	lsr	r0, fp, #2
   12898:	e3a02000 	mov	r2, #0
   1289c:	e1a08100 	lsl	r8, r0, #2
   128a0:	e1a01002 	mov	r1, r2
   128a4:	e793c002 	ldr	ip, [r3, r2]
   128a8:	e2811001 	add	r1, r1, #1
   128ac:	e1510000 	cmp	r1, r0
   128b0:	e785c002 	str	ip, [r5, r2]
   128b4:	e2822004 	add	r2, r2, #4
   128b8:	3afffff9 	bcc	128a4 <f_read+0x2d8>
   128bc:	e15b0008 	cmp	fp, r8
   128c0:	e0689009 	rsb	r9, r8, r9
   128c4:	e0852008 	add	r2, r5, r8
   128c8:	e0838008 	add	r8, r3, r8
   128cc:	0a000008 	beq	128f4 <f_read+0x328>
   128d0:	e7d33100 	ldrb	r3, [r3, r0, lsl #2]
   128d4:	e3590000 	cmp	r9, #0
   128d8:	e7c53100 	strb	r3, [r5, r0, lsl #2]
   128dc:	0a000004 	beq	128f4 <f_read+0x328>
   128e0:	e5d83001 	ldrb	r3, [r8, #1]
   128e4:	e3590001 	cmp	r9, #1
   128e8:	e5c23001 	strb	r3, [r2, #1]
   128ec:	15d83002 	ldrbne	r3, [r8, #2]
   128f0:	15c23002 	strbne	r3, [r2, #2]
   128f4:	e5941008 	ldr	r1, [r4, #8]
   128f8:	eaffffa8 	b	127a0 <f_read+0x1d4>
   128fc:	e3510000 	cmp	r1, #0
   12900:	1a00000e 	bne	12940 <f_read+0x374>
   12904:	e5942010 	ldr	r2, [r4, #16]
   12908:	e3520001 	cmp	r2, #1
   1290c:	9a000011 	bls	12958 <f_read+0x38c>
   12910:	e3720001 	cmn	r2, #1
   12914:	0a000015 	beq	12970 <f_read+0x3a4>
   12918:	e5940000 	ldr	r0, [r4]
   1291c:	e5842014 	str	r2, [r4, #20]
   12920:	eaffff62 	b	126b0 <f_read+0xe4>
   12924:	e083000b 	add	r0, r3, fp
   12928:	e1a02005 	mov	r2, r5
   1292c:	e4d31001 	ldrb	r1, [r3], #1
   12930:	e1530000 	cmp	r3, r0
   12934:	e4c21001 	strb	r1, [r2], #1
   12938:	1afffffb 	bne	1292c <f_read+0x360>
   1293c:	eaffffec 	b	128f4 <f_read+0x328>
   12940:	e5941014 	ldr	r1, [r4, #20]
   12944:	e3510001 	cmp	r1, #1
   12948:	9a000002 	bls	12958 <f_read+0x38c>
   1294c:	e5902018 	ldr	r2, [r0, #24]
   12950:	e1510002 	cmp	r1, r2
   12954:	3a00000b 	bcc	12988 <f_read+0x3bc>
   12958:	e5d43006 	ldrb	r3, [r4, #6]
   1295c:	e3a00002 	mov	r0, #2
   12960:	e1e03c83 	mvn	r3, r3, lsl #25
   12964:	e1e03ca3 	mvn	r3, r3, lsr #25
   12968:	e5c43006 	strb	r3, [r4, #6]
   1296c:	eaffff25 	b	12608 <f_read+0x3c>
   12970:	e5d43006 	ldrb	r3, [r4, #6]
   12974:	e3a00001 	mov	r0, #1
   12978:	e1e03c83 	mvn	r3, r3, lsl #25
   1297c:	e1e03ca3 	mvn	r3, r3, lsr #25
   12980:	e5c43006 	strb	r3, [r4, #6]
   12984:	eaffff1f 	b	12608 <f_read+0x3c>
   12988:	ebfff092 	bl	ebd8 <get_fat.part.5>
   1298c:	e1a02000 	mov	r2, r0
   12990:	eaffffdc 	b	12908 <f_read+0x33c>
   12994:	e59d000c 	ldr	r0, [sp, #12]
   12998:	e4d23001 	ldrb	r3, [r2], #1
   1299c:	e1520000 	cmp	r2, r0
   129a0:	e4c13001 	strb	r3, [r1], #1
   129a4:	1afffffb 	bne	12998 <f_read+0x3cc>
   129a8:	eaffff7a 	b	12798 <f_read+0x1cc>
   129ac:	e3a00002 	mov	r0, #2
   129b0:	eaffff14 	b	12608 <f_read+0x3c>

000129b4 <f_write>:
   129b4:	e92d4ff0 	push	{r4, r5, r6, r7, r8, r9, sl, fp, lr}
   129b8:	e1a07003 	mov	r7, r3
   129bc:	e2504000 	subs	r4, r0, #0
   129c0:	e3a03000 	mov	r3, #0
   129c4:	e24dd014 	sub	sp, sp, #20
   129c8:	e1a05001 	mov	r5, r1
   129cc:	e1a06002 	mov	r6, r2
   129d0:	e5873000 	str	r3, [r7]
   129d4:	0a000005 	beq	129f0 <f_write+0x3c>
   129d8:	e5943000 	ldr	r3, [r4]
   129dc:	e3530000 	cmp	r3, #0
   129e0:	0a000002 	beq	129f0 <f_write+0x3c>
   129e4:	e5d32000 	ldrb	r2, [r3]
   129e8:	e3520000 	cmp	r2, #0
   129ec:	1a000002 	bne	129fc <f_write+0x48>
   129f0:	e3a00009 	mov	r0, #9
   129f4:	e28dd014 	add	sp, sp, #20
   129f8:	e8bd8ff0 	pop	{r4, r5, r6, r7, r8, r9, sl, fp, pc}
   129fc:	e1d310b6 	ldrh	r1, [r3, #6]
   12a00:	e1d420b4 	ldrh	r2, [r4, #4]
   12a04:	e1510002 	cmp	r1, r2
   12a08:	1afffff8 	bne	129f0 <f_write+0x3c>
   12a0c:	e5d30001 	ldrb	r0, [r3, #1]
   12a10:	eb0013ef 	bl	179d4 <disk_status>
   12a14:	e3100001 	tst	r0, #1
   12a18:	13a00003 	movne	r0, #3
   12a1c:	1afffff4 	bne	129f4 <f_write+0x40>
   12a20:	e5d43006 	ldrb	r3, [r4, #6]
   12a24:	e3130080 	tst	r3, #128	; 0x80
   12a28:	1a0000f5 	bne	12e04 <f_write+0x450>
   12a2c:	e3130002 	tst	r3, #2
   12a30:	03a00007 	moveq	r0, #7
   12a34:	0affffee 	beq	129f4 <f_write+0x40>
   12a38:	e594100c 	ldr	r1, [r4, #12]
   12a3c:	e5942008 	ldr	r2, [r4, #8]
   12a40:	e1760001 	cmn	r6, r1
   12a44:	3a000005 	bcc	12a60 <f_write+0xac>
   12a48:	e1510002 	cmp	r1, r2
   12a4c:	e3833020 	orr	r3, r3, #32
   12a50:	3584200c 	strcc	r2, [r4, #12]
   12a54:	e5c43006 	strb	r3, [r4, #6]
   12a58:	e3a00000 	mov	r0, #0
   12a5c:	eaffffe4 	b	129f4 <f_write+0x40>
   12a60:	e3560000 	cmp	r6, #0
   12a64:	12840028 	addne	r0, r4, #40	; 0x28
   12a68:	1284a024 	addne	sl, r4, #36	; 0x24
   12a6c:	158d000c 	strne	r0, [sp, #12]
   12a70:	0afffff4 	beq	12a48 <f_write+0x94>
   12a74:	e1a03b82 	lsl	r3, r2, #23
   12a78:	e1b03ba3 	lsrs	r3, r3, #23
   12a7c:	1a000066 	bne	12c1c <f_write+0x268>
   12a80:	e5943000 	ldr	r3, [r4]
   12a84:	e5d38002 	ldrb	r8, [r3, #2]
   12a88:	e2488001 	sub	r8, r8, #1
   12a8c:	e00884a2 	and	r8, r8, r2, lsr #9
   12a90:	e21880ff 	ands	r8, r8, #255	; 0xff
   12a94:	1a00000a 	bne	12ac4 <f_write+0x110>
   12a98:	e3520000 	cmp	r2, #0
   12a9c:	1a0000b0 	bne	12d64 <f_write+0x3b0>
   12aa0:	e5940010 	ldr	r0, [r4, #16]
   12aa4:	e3500000 	cmp	r0, #0
   12aa8:	0a0000b6 	beq	12d88 <f_write+0x3d4>
   12aac:	e3500001 	cmp	r0, #1
   12ab0:	0a0000cd 	beq	12dec <f_write+0x438>
   12ab4:	e3700001 	cmn	r0, #1
   12ab8:	0a0000a3 	beq	12d4c <f_write+0x398>
   12abc:	e5943000 	ldr	r3, [r4]
   12ac0:	e5840014 	str	r0, [r4, #20]
   12ac4:	e5d42006 	ldrb	r2, [r4, #6]
   12ac8:	e3120040 	tst	r2, #64	; 0x40
   12acc:	1a00008c 	bne	12d04 <f_write+0x350>
   12ad0:	e5949014 	ldr	r9, [r4, #20]
   12ad4:	e5931018 	ldr	r1, [r3, #24]
   12ad8:	e2499002 	sub	r9, r9, #2
   12adc:	e2411002 	sub	r1, r1, #2
   12ae0:	e1590001 	cmp	r9, r1
   12ae4:	2a0000b5 	bcs	12dc0 <f_write+0x40c>
   12ae8:	e5d31002 	ldrb	r1, [r3, #2]
   12aec:	e593002c 	ldr	r0, [r3, #44]	; 0x2c
   12af0:	e0090199 	mul	r9, r9, r1
   12af4:	e099b000 	adds	fp, r9, r0
   12af8:	e58d0008 	str	r0, [sp, #8]
   12afc:	0a0000af 	beq	12dc0 <f_write+0x40c>
   12b00:	e1b0c4a6 	lsrs	ip, r6, #9
   12b04:	e088b00b 	add	fp, r8, fp
   12b08:	0a000039 	beq	12bf4 <f_write+0x240>
   12b0c:	e088200c 	add	r2, r8, ip
   12b10:	e1520001 	cmp	r2, r1
   12b14:	8068c001 	rsbhi	ip, r8, r1
   12b18:	e5d30001 	ldrb	r0, [r3, #1]
   12b1c:	e1a01005 	mov	r1, r5
   12b20:	e6ef307c 	uxtb	r3, ip
   12b24:	e1a0200b 	mov	r2, fp
   12b28:	e58dc004 	str	ip, [sp, #4]
   12b2c:	eb0013a6 	bl	179cc <disk_write>
   12b30:	e3500000 	cmp	r0, #0
   12b34:	e59dc004 	ldr	ip, [sp, #4]
   12b38:	1a000083 	bne	12d4c <f_write+0x398>
   12b3c:	e5942018 	ldr	r2, [r4, #24]
   12b40:	e06bb002 	rsb	fp, fp, r2
   12b44:	e15c000b 	cmp	ip, fp
   12b48:	9a00001b 	bls	12bbc <f_write+0x208>
   12b4c:	e59d3008 	ldr	r3, [sp, #8]
   12b50:	e0632002 	rsb	r2, r3, r2
   12b54:	e0699002 	rsb	r9, r9, r2
   12b58:	e0688009 	rsb	r8, r8, r9
   12b5c:	e0858488 	add	r8, r5, r8, lsl #9
   12b60:	e188200a 	orr	r2, r8, sl
   12b64:	e59d300c 	ldr	r3, [sp, #12]
   12b68:	e3120003 	tst	r2, #3
   12b6c:	e2882004 	add	r2, r8, #4
   12b70:	13a01000 	movne	r1, #0
   12b74:	03a01001 	moveq	r1, #1
   12b78:	e1580003 	cmp	r8, r3
   12b7c:	315a0002 	cmpcc	sl, r2
   12b80:	33a02000 	movcc	r2, #0
   12b84:	23a02001 	movcs	r2, #1
   12b88:	e1110002 	tst	r1, r2
   12b8c:	e085248b 	add	r2, r5, fp, lsl #9
   12b90:	e1a0100a 	mov	r1, sl
   12b94:	0a00008e 	beq	12dd4 <f_write+0x420>
   12b98:	e1a03000 	mov	r3, r0
   12b9c:	e7982003 	ldr	r2, [r8, r3]
   12ba0:	e78a2003 	str	r2, [sl, r3]
   12ba4:	e2833004 	add	r3, r3, #4
   12ba8:	e3530c02 	cmp	r3, #512	; 0x200
   12bac:	1afffffa 	bne	12b9c <f_write+0x1e8>
   12bb0:	e5d43006 	ldrb	r3, [r4, #6]
   12bb4:	e3c33040 	bic	r3, r3, #64	; 0x40
   12bb8:	e5c43006 	strb	r3, [r4, #6]
   12bbc:	e1a0c48c 	lsl	ip, ip, #9
   12bc0:	e5942008 	ldr	r2, [r4, #8]
   12bc4:	e085100c 	add	r1, r5, ip
   12bc8:	e5973000 	ldr	r3, [r7]
   12bcc:	e082200c 	add	r2, r2, ip
   12bd0:	e056600c 	subs	r6, r6, ip
   12bd4:	e083c00c 	add	ip, r3, ip
   12bd8:	e5842008 	str	r2, [r4, #8]
   12bdc:	e1a05001 	mov	r5, r1
   12be0:	e587c000 	str	ip, [r7]
   12be4:	1affffa2 	bne	12a74 <f_write+0xc0>
   12be8:	e594100c 	ldr	r1, [r4, #12]
   12bec:	e5d43006 	ldrb	r3, [r4, #6]
   12bf0:	eaffff94 	b	12a48 <f_write+0x94>
   12bf4:	e5942018 	ldr	r2, [r4, #24]
   12bf8:	e152000b 	cmp	r2, fp
   12bfc:	e5942008 	ldr	r2, [r4, #8]
   12c00:	0a000002 	beq	12c10 <f_write+0x25c>
   12c04:	e594100c 	ldr	r1, [r4, #12]
   12c08:	e1520001 	cmp	r2, r1
   12c0c:	3a000062 	bcc	12d9c <f_write+0x3e8>
   12c10:	e1a03b82 	lsl	r3, r2, #23
   12c14:	e584b018 	str	fp, [r4, #24]
   12c18:	e1a03ba3 	lsr	r3, r3, #23
   12c1c:	e263cc02 	rsb	ip, r3, #512	; 0x200
   12c20:	e15c0006 	cmp	ip, r6
   12c24:	21a0c006 	movcs	ip, r6
   12c28:	e35c0000 	cmp	ip, #0
   12c2c:	e0843003 	add	r3, r4, r3
   12c30:	e2833024 	add	r3, r3, #36	; 0x24
   12c34:	e24c9001 	sub	r9, ip, #1
   12c38:	01a01005 	moveq	r1, r5
   12c3c:	0a00002a 	beq	12cec <f_write+0x338>
   12c40:	e1852003 	orr	r2, r5, r3
   12c44:	e3120003 	tst	r2, #3
   12c48:	e2850004 	add	r0, r5, #4
   12c4c:	e2832004 	add	r2, r3, #4
   12c50:	13a01000 	movne	r1, #0
   12c54:	03a01001 	moveq	r1, #1
   12c58:	e1550002 	cmp	r5, r2
   12c5c:	31530000 	cmpcc	r3, r0
   12c60:	33a02000 	movcc	r2, #0
   12c64:	23a02001 	movcs	r2, #1
   12c68:	e0012002 	and	r2, r1, r2
   12c6c:	e35c0009 	cmp	ip, #9
   12c70:	93a02000 	movls	r2, #0
   12c74:	82022001 	andhi	r2, r2, #1
   12c78:	e3520000 	cmp	r2, #0
   12c7c:	0a00002c 	beq	12d34 <f_write+0x380>
   12c80:	e1a0812c 	lsr	r8, ip, #2
   12c84:	e3a02000 	mov	r2, #0
   12c88:	e1a01108 	lsl	r1, r8, #2
   12c8c:	e1a00002 	mov	r0, r2
   12c90:	e795b002 	ldr	fp, [r5, r2]
   12c94:	e2800001 	add	r0, r0, #1
   12c98:	e1580000 	cmp	r8, r0
   12c9c:	e783b002 	str	fp, [r3, r2]
   12ca0:	e2822004 	add	r2, r2, #4
   12ca4:	8afffff9 	bhi	12c90 <f_write+0x2dc>
   12ca8:	e151000c 	cmp	r1, ip
   12cac:	e0619009 	rsb	r9, r1, r9
   12cb0:	e0832001 	add	r2, r3, r1
   12cb4:	e0851001 	add	r1, r5, r1
   12cb8:	0a00000a 	beq	12ce8 <f_write+0x334>
   12cbc:	e7d50108 	ldrb	r0, [r5, r8, lsl #2]
   12cc0:	e3590000 	cmp	r9, #0
   12cc4:	e7c30108 	strb	r0, [r3, r8, lsl #2]
   12cc8:	0a00000b 	beq	12cfc <f_write+0x348>
   12ccc:	e5d13001 	ldrb	r3, [r1, #1]
   12cd0:	e3590001 	cmp	r9, #1
   12cd4:	e5c23001 	strb	r3, [r2, #1]
   12cd8:	0a000007 	beq	12cfc <f_write+0x348>
   12cdc:	e5d13002 	ldrb	r3, [r1, #2]
   12ce0:	e085100c 	add	r1, r5, ip
   12ce4:	e5c23002 	strb	r3, [r2, #2]
   12ce8:	e5942008 	ldr	r2, [r4, #8]
   12cec:	e5d43006 	ldrb	r3, [r4, #6]
   12cf0:	e3833040 	orr	r3, r3, #64	; 0x40
   12cf4:	e5c43006 	strb	r3, [r4, #6]
   12cf8:	eaffffb2 	b	12bc8 <f_write+0x214>
   12cfc:	e085100c 	add	r1, r5, ip
   12d00:	eafffff8 	b	12ce8 <f_write+0x334>
   12d04:	e5d30001 	ldrb	r0, [r3, #1]
   12d08:	e1a0100a 	mov	r1, sl
   12d0c:	e5942018 	ldr	r2, [r4, #24]
   12d10:	e3a03001 	mov	r3, #1
   12d14:	eb00132c 	bl	179cc <disk_write>
   12d18:	e3500000 	cmp	r0, #0
   12d1c:	1a00000a 	bne	12d4c <f_write+0x398>
   12d20:	e5d42006 	ldrb	r2, [r4, #6]
   12d24:	e5943000 	ldr	r3, [r4]
   12d28:	e20220bf 	and	r2, r2, #191	; 0xbf
   12d2c:	e5c42006 	strb	r2, [r4, #6]
   12d30:	eaffff66 	b	12ad0 <f_write+0x11c>
   12d34:	e085100c 	add	r1, r5, ip
   12d38:	e4d52001 	ldrb	r2, [r5], #1
   12d3c:	e1550001 	cmp	r5, r1
   12d40:	e4c32001 	strb	r2, [r3], #1
   12d44:	1afffffb 	bne	12d38 <f_write+0x384>
   12d48:	eaffffe6 	b	12ce8 <f_write+0x334>
   12d4c:	e5d43006 	ldrb	r3, [r4, #6]
   12d50:	e3a00001 	mov	r0, #1
   12d54:	e1e03c83 	mvn	r3, r3, lsl #25
   12d58:	e1e03ca3 	mvn	r3, r3, lsr #25
   12d5c:	e5c43006 	strb	r3, [r4, #6]
   12d60:	eaffff23 	b	129f4 <f_write+0x40>
   12d64:	e1a00003 	mov	r0, r3
   12d68:	e5941014 	ldr	r1, [r4, #20]
   12d6c:	ebfff0d3 	bl	f0c0 <create_chain>
   12d70:	e3500000 	cmp	r0, #0
   12d74:	1affff4c 	bne	12aac <f_write+0xf8>
   12d78:	e5942008 	ldr	r2, [r4, #8]
   12d7c:	e594100c 	ldr	r1, [r4, #12]
   12d80:	e5d43006 	ldrb	r3, [r4, #6]
   12d84:	eaffff2f 	b	12a48 <f_write+0x94>
   12d88:	e1a00003 	mov	r0, r3
   12d8c:	e1a01008 	mov	r1, r8
   12d90:	ebfff0ca 	bl	f0c0 <create_chain>
   12d94:	e5840010 	str	r0, [r4, #16]
   12d98:	eafffff4 	b	12d70 <f_write+0x3bc>
   12d9c:	e5d30001 	ldrb	r0, [r3, #1]
   12da0:	e1a0100a 	mov	r1, sl
   12da4:	e1a0200b 	mov	r2, fp
   12da8:	e3a03001 	mov	r3, #1
   12dac:	eb0012e8 	bl	17954 <disk_read>
   12db0:	e3500000 	cmp	r0, #0
   12db4:	1affffe4 	bne	12d4c <f_write+0x398>
   12db8:	e5942008 	ldr	r2, [r4, #8]
   12dbc:	eaffff93 	b	12c10 <f_write+0x25c>
   12dc0:	e1e02c82 	mvn	r2, r2, lsl #25
   12dc4:	e1e02ca2 	mvn	r2, r2, lsr #25
   12dc8:	e5c42006 	strb	r2, [r4, #6]
   12dcc:	e3a00002 	mov	r0, #2
   12dd0:	eaffff07 	b	129f4 <f_write+0x40>
   12dd4:	e2820c02 	add	r0, r2, #512	; 0x200
   12dd8:	e4d23001 	ldrb	r3, [r2], #1
   12ddc:	e1520000 	cmp	r2, r0
   12de0:	e4c13001 	strb	r3, [r1], #1
   12de4:	1afffffb 	bne	12dd8 <f_write+0x424>
   12de8:	eaffff70 	b	12bb0 <f_write+0x1fc>
   12dec:	e5d43006 	ldrb	r3, [r4, #6]
   12df0:	e3a00002 	mov	r0, #2
   12df4:	e1e03c83 	mvn	r3, r3, lsl #25
   12df8:	e1e03ca3 	mvn	r3, r3, lsr #25
   12dfc:	e5c43006 	strb	r3, [r4, #6]
   12e00:	eafffefb 	b	129f4 <f_write+0x40>
   12e04:	e3a00002 	mov	r0, #2
   12e08:	eafffef9 	b	129f4 <f_write+0x40>

00012e0c <f_sync>:
   12e0c:	e92d43f8 	push	{r3, r4, r5, r6, r7, r8, r9, lr}
   12e10:	e2504000 	subs	r4, r0, #0
   12e14:	0a000005 	beq	12e30 <f_sync+0x24>
   12e18:	e5943000 	ldr	r3, [r4]
   12e1c:	e3530000 	cmp	r3, #0
   12e20:	0a000002 	beq	12e30 <f_sync+0x24>
   12e24:	e5d32000 	ldrb	r2, [r3]
   12e28:	e3520000 	cmp	r2, #0
   12e2c:	1a000001 	bne	12e38 <f_sync+0x2c>
   12e30:	e3a00009 	mov	r0, #9
   12e34:	e8bd83f8 	pop	{r3, r4, r5, r6, r7, r8, r9, pc}
   12e38:	e1d310b6 	ldrh	r1, [r3, #6]
   12e3c:	e1d420b4 	ldrh	r2, [r4, #4]
   12e40:	e1510002 	cmp	r1, r2
   12e44:	1afffff9 	bne	12e30 <f_sync+0x24>
   12e48:	e5d30001 	ldrb	r0, [r3, #1]
   12e4c:	eb0012e0 	bl	179d4 <disk_status>
   12e50:	e3100001 	tst	r0, #1
   12e54:	0a000001 	beq	12e60 <f_sync+0x54>
   12e58:	e3a00003 	mov	r0, #3
   12e5c:	e8bd83f8 	pop	{r3, r4, r5, r6, r7, r8, r9, pc}
   12e60:	e5d43006 	ldrb	r3, [r4, #6]
   12e64:	e2032020 	and	r2, r3, #32
   12e68:	e21200ff 	ands	r0, r2, #255	; 0xff
   12e6c:	1a000000 	bne	12e74 <f_sync+0x68>
   12e70:	e8bd83f8 	pop	{r3, r4, r5, r6, r7, r8, r9, pc}
   12e74:	e3130040 	tst	r3, #64	; 0x40
   12e78:	0a00000a 	beq	12ea8 <f_sync+0x9c>
   12e7c:	e1a01004 	mov	r1, r4
   12e80:	e4913024 	ldr	r3, [r1], #36	; 0x24
   12e84:	e5942018 	ldr	r2, [r4, #24]
   12e88:	e5d30001 	ldrb	r0, [r3, #1]
   12e8c:	e3a03001 	mov	r3, #1
   12e90:	eb0012cd 	bl	179cc <disk_write>
   12e94:	e3500000 	cmp	r0, #0
   12e98:	1a00003c 	bne	12f90 <f_sync+0x184>
   12e9c:	e5d43006 	ldrb	r3, [r4, #6]
   12ea0:	e3c33040 	bic	r3, r3, #64	; 0x40
   12ea4:	e5c43006 	strb	r3, [r4, #6]
   12ea8:	e5945000 	ldr	r5, [r4]
   12eac:	e594701c 	ldr	r7, [r4, #28]
   12eb0:	e5956030 	ldr	r6, [r5, #48]	; 0x30
   12eb4:	e1570006 	cmp	r7, r6
   12eb8:	0a00000b 	beq	12eec <f_sync+0xe0>
   12ebc:	e5d53004 	ldrb	r3, [r5, #4]
   12ec0:	e2858034 	add	r8, r5, #52	; 0x34
   12ec4:	e3530000 	cmp	r3, #0
   12ec8:	1a000032 	bne	12f98 <f_sync+0x18c>
   12ecc:	e1a01008 	mov	r1, r8
   12ed0:	e5d50001 	ldrb	r0, [r5, #1]
   12ed4:	e1a02007 	mov	r2, r7
   12ed8:	e3a03001 	mov	r3, #1
   12edc:	eb00129c 	bl	17954 <disk_read>
   12ee0:	e3500000 	cmp	r0, #0
   12ee4:	1a000029 	bne	12f90 <f_sync+0x184>
   12ee8:	e5857030 	str	r7, [r5, #48]	; 0x30
   12eec:	e5945020 	ldr	r5, [r4, #32]
   12ef0:	e5d5300b 	ldrb	r3, [r5, #11]
   12ef4:	e3833020 	orr	r3, r3, #32
   12ef8:	e5c5300b 	strb	r3, [r5, #11]
   12efc:	e594300c 	ldr	r3, [r4, #12]
   12f00:	e5c5301c 	strb	r3, [r5, #28]
   12f04:	e1d430bc 	ldrh	r3, [r4, #12]
   12f08:	e1a03423 	lsr	r3, r3, #8
   12f0c:	e5c5301d 	strb	r3, [r5, #29]
   12f10:	e1d430be 	ldrh	r3, [r4, #14]
   12f14:	e5c5301e 	strb	r3, [r5, #30]
   12f18:	e5d4300f 	ldrb	r3, [r4, #15]
   12f1c:	e5c5301f 	strb	r3, [r5, #31]
   12f20:	e5943010 	ldr	r3, [r4, #16]
   12f24:	e1a02823 	lsr	r2, r3, #16
   12f28:	e1a01422 	lsr	r1, r2, #8
   12f2c:	e1a00423 	lsr	r0, r3, #8
   12f30:	e5c5301a 	strb	r3, [r5, #26]
   12f34:	e5c52014 	strb	r2, [r5, #20]
   12f38:	e5c51015 	strb	r1, [r5, #21]
   12f3c:	e5c5001b 	strb	r0, [r5, #27]
   12f40:	eb0012c2 	bl	17a50 <get_fattime>
   12f44:	e3a03000 	mov	r3, #0
   12f48:	e1a01820 	lsr	r1, r0, #16
   12f4c:	e1a02c20 	lsr	r2, r0, #24
   12f50:	e1a0c420 	lsr	ip, r0, #8
   12f54:	e5c52019 	strb	r2, [r5, #25]
   12f58:	e5c50016 	strb	r0, [r5, #22]
   12f5c:	e5c5c017 	strb	ip, [r5, #23]
   12f60:	e5c51018 	strb	r1, [r5, #24]
   12f64:	e5c53012 	strb	r3, [r5, #18]
   12f68:	e5c53013 	strb	r3, [r5, #19]
   12f6c:	e5d41006 	ldrb	r1, [r4, #6]
   12f70:	e5943000 	ldr	r3, [r4]
   12f74:	e3c11020 	bic	r1, r1, #32
   12f78:	e3a02001 	mov	r2, #1
   12f7c:	e5c41006 	strb	r1, [r4, #6]
   12f80:	e5c32004 	strb	r2, [r3, #4]
   12f84:	e5940000 	ldr	r0, [r4]
   12f88:	e8bd43f8 	pop	{r3, r4, r5, r6, r7, r8, r9, lr}
   12f8c:	eaffeb15 	b	dbe8 <sync_fs>
   12f90:	e3a00001 	mov	r0, #1
   12f94:	e8bd83f8 	pop	{r3, r4, r5, r6, r7, r8, r9, pc}
   12f98:	e1a01008 	mov	r1, r8
   12f9c:	e5d50001 	ldrb	r0, [r5, #1]
   12fa0:	e1a02006 	mov	r2, r6
   12fa4:	e3a03001 	mov	r3, #1
   12fa8:	eb001287 	bl	179cc <disk_write>
   12fac:	e3500000 	cmp	r0, #0
   12fb0:	1afffff6 	bne	12f90 <f_sync+0x184>
   12fb4:	e5952024 	ldr	r2, [r5, #36]	; 0x24
   12fb8:	e5c50004 	strb	r0, [r5, #4]
   12fbc:	e1560002 	cmp	r6, r2
   12fc0:	3affffc1 	bcc	12ecc <f_sync+0xc0>
   12fc4:	e595301c 	ldr	r3, [r5, #28]
   12fc8:	e0832002 	add	r2, r3, r2
   12fcc:	e1560002 	cmp	r6, r2
   12fd0:	2affffbd 	bcs	12ecc <f_sync+0xc0>
   12fd4:	e5d59003 	ldrb	r9, [r5, #3]
   12fd8:	e3590001 	cmp	r9, #1
   12fdc:	8a000001 	bhi	12fe8 <f_sync+0x1dc>
   12fe0:	eaffffb9 	b	12ecc <f_sync+0xc0>
   12fe4:	e595301c 	ldr	r3, [r5, #28]
   12fe8:	e0866003 	add	r6, r6, r3
   12fec:	e2499001 	sub	r9, r9, #1
   12ff0:	e1a02006 	mov	r2, r6
   12ff4:	e5d50001 	ldrb	r0, [r5, #1]
   12ff8:	e1a01008 	mov	r1, r8
   12ffc:	e3a03001 	mov	r3, #1
   13000:	eb001271 	bl	179cc <disk_write>
   13004:	e3590001 	cmp	r9, #1
   13008:	1afffff5 	bne	12fe4 <f_sync+0x1d8>
   1300c:	eaffffae 	b	12ecc <f_sync+0xc0>

00013010 <f_close>:
   13010:	e92d43f8 	push	{r3, r4, r5, r6, r7, r8, r9, lr}
   13014:	e2504000 	subs	r4, r0, #0
   13018:	0a000005 	beq	13034 <f_close+0x24>
   1301c:	e5943000 	ldr	r3, [r4]
   13020:	e3530000 	cmp	r3, #0
   13024:	0a000002 	beq	13034 <f_close+0x24>
   13028:	e5d32000 	ldrb	r2, [r3]
   1302c:	e3520000 	cmp	r2, #0
   13030:	1a000001 	bne	1303c <f_close+0x2c>
   13034:	e3a00009 	mov	r0, #9
   13038:	e8bd83f8 	pop	{r3, r4, r5, r6, r7, r8, r9, pc}
   1303c:	e1d310b6 	ldrh	r1, [r3, #6]
   13040:	e1d420b4 	ldrh	r2, [r4, #4]
   13044:	e1510002 	cmp	r1, r2
   13048:	1afffff9 	bne	13034 <f_close+0x24>
   1304c:	e5d30001 	ldrb	r0, [r3, #1]
   13050:	eb00125f 	bl	179d4 <disk_status>
   13054:	e3100001 	tst	r0, #1
   13058:	0a000001 	beq	13064 <f_close+0x54>
   1305c:	e3a00003 	mov	r0, #3
   13060:	e8bd83f8 	pop	{r3, r4, r5, r6, r7, r8, r9, pc}
   13064:	e5d43006 	ldrb	r3, [r4, #6]
   13068:	e3130020 	tst	r3, #32
   1306c:	0a000047 	beq	13190 <f_close+0x180>
   13070:	e3130040 	tst	r3, #64	; 0x40
   13074:	0a00000a 	beq	130a4 <f_close+0x94>
   13078:	e1a01004 	mov	r1, r4
   1307c:	e4913024 	ldr	r3, [r1], #36	; 0x24
   13080:	e5942018 	ldr	r2, [r4, #24]
   13084:	e5d30001 	ldrb	r0, [r3, #1]
   13088:	e3a03001 	mov	r3, #1
   1308c:	eb00124e 	bl	179cc <disk_write>
   13090:	e3500000 	cmp	r0, #0
   13094:	1a000040 	bne	1319c <f_close+0x18c>
   13098:	e5d43006 	ldrb	r3, [r4, #6]
   1309c:	e3c33040 	bic	r3, r3, #64	; 0x40
   130a0:	e5c43006 	strb	r3, [r4, #6]
   130a4:	e5945000 	ldr	r5, [r4]
   130a8:	e594701c 	ldr	r7, [r4, #28]
   130ac:	e5956030 	ldr	r6, [r5, #48]	; 0x30
   130b0:	e1570006 	cmp	r7, r6
   130b4:	0a00000b 	beq	130e8 <f_close+0xd8>
   130b8:	e5d53004 	ldrb	r3, [r5, #4]
   130bc:	e2858034 	add	r8, r5, #52	; 0x34
   130c0:	e3530000 	cmp	r3, #0
   130c4:	1a000036 	bne	131a4 <f_close+0x194>
   130c8:	e1a01008 	mov	r1, r8
   130cc:	e5d50001 	ldrb	r0, [r5, #1]
   130d0:	e1a02007 	mov	r2, r7
   130d4:	e3a03001 	mov	r3, #1
   130d8:	eb00121d 	bl	17954 <disk_read>
   130dc:	e3500000 	cmp	r0, #0
   130e0:	1a00002d 	bne	1319c <f_close+0x18c>
   130e4:	e5857030 	str	r7, [r5, #48]	; 0x30
   130e8:	e5945020 	ldr	r5, [r4, #32]
   130ec:	e5d5300b 	ldrb	r3, [r5, #11]
   130f0:	e3833020 	orr	r3, r3, #32
   130f4:	e5c5300b 	strb	r3, [r5, #11]
   130f8:	e594300c 	ldr	r3, [r4, #12]
   130fc:	e5c5301c 	strb	r3, [r5, #28]
   13100:	e1d430bc 	ldrh	r3, [r4, #12]
   13104:	e1a03423 	lsr	r3, r3, #8
   13108:	e5c5301d 	strb	r3, [r5, #29]
   1310c:	e1d430be 	ldrh	r3, [r4, #14]
   13110:	e5c5301e 	strb	r3, [r5, #30]
   13114:	e5d4300f 	ldrb	r3, [r4, #15]
   13118:	e5c5301f 	strb	r3, [r5, #31]
   1311c:	e5943010 	ldr	r3, [r4, #16]
   13120:	e1a02823 	lsr	r2, r3, #16
   13124:	e1a01422 	lsr	r1, r2, #8
   13128:	e1a00423 	lsr	r0, r3, #8
   1312c:	e5c5301a 	strb	r3, [r5, #26]
   13130:	e5c52014 	strb	r2, [r5, #20]
   13134:	e5c51015 	strb	r1, [r5, #21]
   13138:	e5c5001b 	strb	r0, [r5, #27]
   1313c:	eb001243 	bl	17a50 <get_fattime>
   13140:	e3a03000 	mov	r3, #0
   13144:	e1a0c420 	lsr	ip, r0, #8
   13148:	e1a01820 	lsr	r1, r0, #16
   1314c:	e1a02c20 	lsr	r2, r0, #24
   13150:	e5c52019 	strb	r2, [r5, #25]
   13154:	e5c50016 	strb	r0, [r5, #22]
   13158:	e5c5c017 	strb	ip, [r5, #23]
   1315c:	e5c51018 	strb	r1, [r5, #24]
   13160:	e5c53012 	strb	r3, [r5, #18]
   13164:	e5c53013 	strb	r3, [r5, #19]
   13168:	e5d41006 	ldrb	r1, [r4, #6]
   1316c:	e5943000 	ldr	r3, [r4]
   13170:	e3c11020 	bic	r1, r1, #32
   13174:	e3a02001 	mov	r2, #1
   13178:	e5c41006 	strb	r1, [r4, #6]
   1317c:	e5c32004 	strb	r2, [r3, #4]
   13180:	e5940000 	ldr	r0, [r4]
   13184:	ebffea97 	bl	dbe8 <sync_fs>
   13188:	e3500000 	cmp	r0, #0
   1318c:	18bd83f8 	popne	{r3, r4, r5, r6, r7, r8, r9, pc}
   13190:	e3a00000 	mov	r0, #0
   13194:	e5840000 	str	r0, [r4]
   13198:	e8bd83f8 	pop	{r3, r4, r5, r6, r7, r8, r9, pc}
   1319c:	e3a00001 	mov	r0, #1
   131a0:	e8bd83f8 	pop	{r3, r4, r5, r6, r7, r8, r9, pc}
   131a4:	e1a01008 	mov	r1, r8
   131a8:	e5d50001 	ldrb	r0, [r5, #1]
   131ac:	e1a02006 	mov	r2, r6
   131b0:	e3a03001 	mov	r3, #1
   131b4:	eb001204 	bl	179cc <disk_write>
   131b8:	e3500000 	cmp	r0, #0
   131bc:	1afffff6 	bne	1319c <f_close+0x18c>
   131c0:	e5952024 	ldr	r2, [r5, #36]	; 0x24
   131c4:	e5c50004 	strb	r0, [r5, #4]
   131c8:	e1560002 	cmp	r6, r2
   131cc:	3affffbd 	bcc	130c8 <f_close+0xb8>
   131d0:	e595301c 	ldr	r3, [r5, #28]
   131d4:	e0832002 	add	r2, r3, r2
   131d8:	e1560002 	cmp	r6, r2
   131dc:	2affffb9 	bcs	130c8 <f_close+0xb8>
   131e0:	e5d59003 	ldrb	r9, [r5, #3]
   131e4:	e3590001 	cmp	r9, #1
   131e8:	8a000001 	bhi	131f4 <f_close+0x1e4>
   131ec:	eaffffb5 	b	130c8 <f_close+0xb8>
   131f0:	e595301c 	ldr	r3, [r5, #28]
   131f4:	e0866003 	add	r6, r6, r3
   131f8:	e2499001 	sub	r9, r9, #1
   131fc:	e1a02006 	mov	r2, r6
   13200:	e5d50001 	ldrb	r0, [r5, #1]
   13204:	e1a01008 	mov	r1, r8
   13208:	e3a03001 	mov	r3, #1
   1320c:	eb0011ee 	bl	179cc <disk_write>
   13210:	e3590001 	cmp	r9, #1
   13214:	1afffff5 	bne	131f0 <f_close+0x1e0>
   13218:	eaffffaa 	b	130c8 <f_close+0xb8>

0001321c <f_lseek>:
   1321c:	e92d43f8 	push	{r3, r4, r5, r6, r7, r8, r9, lr}
   13220:	e2504000 	subs	r4, r0, #0
   13224:	e1a05001 	mov	r5, r1
   13228:	0a000005 	beq	13244 <f_lseek+0x28>
   1322c:	e5943000 	ldr	r3, [r4]
   13230:	e3530000 	cmp	r3, #0
   13234:	0a000002 	beq	13244 <f_lseek+0x28>
   13238:	e5d32000 	ldrb	r2, [r3]
   1323c:	e3520000 	cmp	r2, #0
   13240:	1a000001 	bne	1324c <f_lseek+0x30>
   13244:	e3a00009 	mov	r0, #9
   13248:	e8bd83f8 	pop	{r3, r4, r5, r6, r7, r8, r9, pc}
   1324c:	e1d310b6 	ldrh	r1, [r3, #6]
   13250:	e1d420b4 	ldrh	r2, [r4, #4]
   13254:	e1510002 	cmp	r1, r2
   13258:	1afffff9 	bne	13244 <f_lseek+0x28>
   1325c:	e5d30001 	ldrb	r0, [r3, #1]
   13260:	eb0011db 	bl	179d4 <disk_status>
   13264:	e3100001 	tst	r0, #1
   13268:	0a000001 	beq	13274 <f_lseek+0x58>
   1326c:	e3a00003 	mov	r0, #3
   13270:	e8bd83f8 	pop	{r3, r4, r5, r6, r7, r8, r9, pc}
   13274:	e5d42006 	ldrb	r2, [r4, #6]
   13278:	e3120080 	tst	r2, #128	; 0x80
   1327c:	1a0000a1 	bne	13508 <f_lseek+0x2ec>
   13280:	e594300c 	ldr	r3, [r4, #12]
   13284:	e1530005 	cmp	r3, r5
   13288:	2a000001 	bcs	13294 <f_lseek+0x78>
   1328c:	e3120002 	tst	r2, #2
   13290:	01a05003 	moveq	r5, r3
   13294:	e3a03000 	mov	r3, #0
   13298:	e3550000 	cmp	r5, #0
   1329c:	e5942008 	ldr	r2, [r4, #8]
   132a0:	e5843008 	str	r3, [r4, #8]
   132a4:	0a00003e 	beq	133a4 <f_lseek+0x188>
   132a8:	e5947000 	ldr	r7, [r4]
   132ac:	e1520003 	cmp	r2, r3
   132b0:	e5d76002 	ldrb	r6, [r7, #2]
   132b4:	e1a06486 	lsl	r6, r6, #9
   132b8:	0a00003b 	beq	133ac <f_lseek+0x190>
   132bc:	e1a01006 	mov	r1, r6
   132c0:	e2450001 	sub	r0, r5, #1
   132c4:	e2428001 	sub	r8, r2, #1
   132c8:	eb00246e 	bl	1c488 <__aeabi_uidiv>
   132cc:	e1a01006 	mov	r1, r6
   132d0:	e1a09000 	mov	r9, r0
   132d4:	e1a00008 	mov	r0, r8
   132d8:	eb00246a 	bl	1c488 <__aeabi_uidiv>
   132dc:	e1590000 	cmp	r9, r0
   132e0:	3a000031 	bcc	133ac <f_lseek+0x190>
   132e4:	e2663000 	rsb	r3, r6, #0
   132e8:	e0038008 	and	r8, r3, r8
   132ec:	e5941014 	ldr	r1, [r4, #20]
   132f0:	e5848008 	str	r8, [r4, #8]
   132f4:	e0685005 	rsb	r5, r8, r5
   132f8:	e3510000 	cmp	r1, #0
   132fc:	1a00002f 	bne	133c0 <f_lseek+0x1a4>
   13300:	e5943008 	ldr	r3, [r4, #8]
   13304:	e1a05001 	mov	r5, r1
   13308:	e1b02b83 	lsls	r2, r3, #23
   1330c:	0a000074 	beq	134e4 <f_lseek+0x2c8>
   13310:	e5942018 	ldr	r2, [r4, #24]
   13314:	e1520005 	cmp	r2, r5
   13318:	0a000071 	beq	134e4 <f_lseek+0x2c8>
   1331c:	e5d43006 	ldrb	r3, [r4, #6]
   13320:	e3130040 	tst	r3, #64	; 0x40
   13324:	02846024 	addeq	r6, r4, #36	; 0x24
   13328:	0a00000a 	beq	13358 <f_lseek+0x13c>
   1332c:	e5943000 	ldr	r3, [r4]
   13330:	e2846024 	add	r6, r4, #36	; 0x24
   13334:	e5d30001 	ldrb	r0, [r3, #1]
   13338:	e1a01006 	mov	r1, r6
   1333c:	e3a03001 	mov	r3, #1
   13340:	eb0011a1 	bl	179cc <disk_write>
   13344:	e5d43006 	ldrb	r3, [r4, #6]
   13348:	e3500000 	cmp	r0, #0
   1334c:	03c33040 	biceq	r3, r3, #64	; 0x40
   13350:	05c43006 	strbeq	r3, [r4, #6]
   13354:	1a00005d 	bne	134d0 <f_lseek+0x2b4>
   13358:	e5943000 	ldr	r3, [r4]
   1335c:	e1a01006 	mov	r1, r6
   13360:	e5d30001 	ldrb	r0, [r3, #1]
   13364:	e1a02005 	mov	r2, r5
   13368:	e3a03001 	mov	r3, #1
   1336c:	eb001178 	bl	17954 <disk_read>
   13370:	e3500000 	cmp	r0, #0
   13374:	1a000054 	bne	134cc <f_lseek+0x2b0>
   13378:	e5943008 	ldr	r3, [r4, #8]
   1337c:	e594200c 	ldr	r2, [r4, #12]
   13380:	e5845018 	str	r5, [r4, #24]
   13384:	e1530002 	cmp	r3, r2
   13388:	9a000005 	bls	133a4 <f_lseek+0x188>
   1338c:	e5d42006 	ldrb	r2, [r4, #6]
   13390:	e584300c 	str	r3, [r4, #12]
   13394:	e3823020 	orr	r3, r2, #32
   13398:	e5c43006 	strb	r3, [r4, #6]
   1339c:	e3a00000 	mov	r0, #0
   133a0:	e8bd83f8 	pop	{r3, r4, r5, r6, r7, r8, r9, pc}
   133a4:	e3a00000 	mov	r0, #0
   133a8:	e8bd83f8 	pop	{r3, r4, r5, r6, r7, r8, r9, pc}
   133ac:	e5941010 	ldr	r1, [r4, #16]
   133b0:	e3510000 	cmp	r1, #0
   133b4:	0a00003c 	beq	134ac <f_lseek+0x290>
   133b8:	e5841014 	str	r1, [r4, #20]
   133bc:	eaffffcd 	b	132f8 <f_lseek+0xdc>
   133c0:	e1550006 	cmp	r5, r6
   133c4:	85940000 	ldrhi	r0, [r4]
   133c8:	9a00004c 	bls	13500 <f_lseek+0x2e4>
   133cc:	e5d43006 	ldrb	r3, [r4, #6]
   133d0:	e0665005 	rsb	r5, r6, r5
   133d4:	e3130002 	tst	r3, #2
   133d8:	1a000009 	bne	13404 <f_lseek+0x1e8>
   133dc:	e3510001 	cmp	r1, #1
   133e0:	9a000002 	bls	133f0 <f_lseek+0x1d4>
   133e4:	e5902018 	ldr	r2, [r0, #24]
   133e8:	e1510002 	cmp	r1, r2
   133ec:	3a00002b 	bcc	134a0 <f_lseek+0x284>
   133f0:	e1e03c83 	mvn	r3, r3, lsl #25
   133f4:	e1e03ca3 	mvn	r3, r3, lsr #25
   133f8:	e5c43006 	strb	r3, [r4, #6]
   133fc:	e3a00002 	mov	r0, #2
   13400:	e8bd83f8 	pop	{r3, r4, r5, r6, r7, r8, r9, pc}
   13404:	ebffef2d 	bl	f0c0 <create_chain>
   13408:	e2501000 	subs	r1, r0, #0
   1340c:	0a00003a 	beq	134fc <f_lseek+0x2e0>
   13410:	e3710001 	cmn	r1, #1
   13414:	0a00002c 	beq	134cc <f_lseek+0x2b0>
   13418:	e3510001 	cmp	r1, #1
   1341c:	9a000032 	bls	134ec <f_lseek+0x2d0>
   13420:	e5940000 	ldr	r0, [r4]
   13424:	e5903018 	ldr	r3, [r0, #24]
   13428:	e1510003 	cmp	r1, r3
   1342c:	2a00002e 	bcs	134ec <f_lseek+0x2d0>
   13430:	e5943008 	ldr	r3, [r4, #8]
   13434:	e1560005 	cmp	r6, r5
   13438:	e0863003 	add	r3, r6, r3
   1343c:	e5841014 	str	r1, [r4, #20]
   13440:	e5843008 	str	r3, [r4, #8]
   13444:	3affffe0 	bcc	133cc <f_lseek+0x1b0>
   13448:	e1a02b85 	lsl	r2, r5, #23
   1344c:	e0833005 	add	r3, r3, r5
   13450:	e1b02ba2 	lsrs	r2, r2, #23
   13454:	e5843008 	str	r3, [r4, #8]
   13458:	0a000025 	beq	134f4 <f_lseek+0x2d8>
   1345c:	e594c000 	ldr	ip, [r4]
   13460:	e2412002 	sub	r2, r1, #2
   13464:	e59c0018 	ldr	r0, [ip, #24]
   13468:	e2400002 	sub	r0, r0, #2
   1346c:	e1520000 	cmp	r2, r0
   13470:	2a000004 	bcs	13488 <f_lseek+0x26c>
   13474:	e5dc0002 	ldrb	r0, [ip, #2]
   13478:	e59c102c 	ldr	r1, [ip, #44]	; 0x2c
   1347c:	e0321290 	mlas	r2, r0, r2, r1
   13480:	108254a5 	addne	r5, r2, r5, lsr #9
   13484:	1affff9f 	bne	13308 <f_lseek+0xec>
   13488:	e5d43006 	ldrb	r3, [r4, #6]
   1348c:	e3a00002 	mov	r0, #2
   13490:	e1e03c83 	mvn	r3, r3, lsl #25
   13494:	e1e03ca3 	mvn	r3, r3, lsr #25
   13498:	e5c43006 	strb	r3, [r4, #6]
   1349c:	e8bd83f8 	pop	{r3, r4, r5, r6, r7, r8, r9, pc}
   134a0:	ebffedcc 	bl	ebd8 <get_fat.part.5>
   134a4:	e1a01000 	mov	r1, r0
   134a8:	eaffffd8 	b	13410 <f_lseek+0x1f4>
   134ac:	e1a00007 	mov	r0, r7
   134b0:	ebffef02 	bl	f0c0 <create_chain>
   134b4:	e3500001 	cmp	r0, #1
   134b8:	e1a01000 	mov	r1, r0
   134bc:	0afffff1 	beq	13488 <f_lseek+0x26c>
   134c0:	e3700001 	cmn	r0, #1
   134c4:	15840010 	strne	r0, [r4, #16]
   134c8:	1affffba 	bne	133b8 <f_lseek+0x19c>
   134cc:	e5d43006 	ldrb	r3, [r4, #6]
   134d0:	e1e03c83 	mvn	r3, r3, lsl #25
   134d4:	e1e03ca3 	mvn	r3, r3, lsr #25
   134d8:	e3a00001 	mov	r0, #1
   134dc:	e5c43006 	strb	r3, [r4, #6]
   134e0:	e8bd83f8 	pop	{r3, r4, r5, r6, r7, r8, r9, pc}
   134e4:	e594200c 	ldr	r2, [r4, #12]
   134e8:	eaffffa5 	b	13384 <f_lseek+0x168>
   134ec:	e5d43006 	ldrb	r3, [r4, #6]
   134f0:	eaffffbe 	b	133f0 <f_lseek+0x1d4>
   134f4:	e1a05002 	mov	r5, r2
   134f8:	eaffff82 	b	13308 <f_lseek+0xec>
   134fc:	e1a05006 	mov	r5, r6
   13500:	e5943008 	ldr	r3, [r4, #8]
   13504:	eaffffcf 	b	13448 <f_lseek+0x22c>
   13508:	e3a00002 	mov	r0, #2
   1350c:	e8bd83f8 	pop	{r3, r4, r5, r6, r7, r8, r9, pc}

00013510 <f_opendir>:
   13510:	e92d4ff0 	push	{r4, r5, r6, r7, r8, r9, sl, fp, lr}
   13514:	e2504000 	subs	r4, r0, #0
   13518:	e24dd024 	sub	sp, sp, #36	; 0x24
   1351c:	e1a05001 	mov	r5, r1
   13520:	03a00009 	moveq	r0, #9
   13524:	0a000034 	beq	135fc <f_opendir+0xec>
   13528:	e5d13000 	ldrb	r3, [r1]
   1352c:	e2433030 	sub	r3, r3, #48	; 0x30
   13530:	e3530009 	cmp	r3, #9
   13534:	9a000032 	bls	13604 <f_opendir+0xf4>
   13538:	e3a03000 	mov	r3, #0
   1353c:	e5843000 	str	r3, [r4]
   13540:	e59f7534 	ldr	r7, [pc, #1332]	; 13a7c <f_opendir+0x56c>
   13544:	e5976000 	ldr	r6, [r7]
   13548:	e3560000 	cmp	r6, #0
   1354c:	0a00004e 	beq	1368c <f_opendir+0x17c>
   13550:	e5846000 	str	r6, [r4]
   13554:	e5d63000 	ldrb	r3, [r6]
   13558:	e3530000 	cmp	r3, #0
   1355c:	0a000034 	beq	13634 <f_opendir+0x124>
   13560:	e5d60001 	ldrb	r0, [r6, #1]
   13564:	eb00111a 	bl	179d4 <disk_status>
   13568:	e3100001 	tst	r0, #1
   1356c:	1a000030 	bne	13634 <f_opendir+0x124>
   13570:	e59f2508 	ldr	r2, [pc, #1288]	; 13a80 <f_opendir+0x570>
   13574:	e28d3014 	add	r3, sp, #20
   13578:	e1a01005 	mov	r1, r5
   1357c:	e584201c 	str	r2, [r4, #28]
   13580:	e5843018 	str	r3, [r4, #24]
   13584:	e1a00004 	mov	r0, r4
   13588:	e5945000 	ldr	r5, [r4]
   1358c:	ebfff30b 	bl	101c0 <follow_path>
   13590:	e3500000 	cmp	r0, #0
   13594:	1a000014 	bne	135ec <f_opendir+0xdc>
   13598:	e5943014 	ldr	r3, [r4, #20]
   1359c:	e3530000 	cmp	r3, #0
   135a0:	0a00000c 	beq	135d8 <f_opendir+0xc8>
   135a4:	e5d3200b 	ldrb	r2, [r3, #11]
   135a8:	e3120010 	tst	r2, #16
   135ac:	0a000038 	beq	13694 <f_opendir+0x184>
   135b0:	e5d50000 	ldrb	r0, [r5]
   135b4:	e5d3101b 	ldrb	r1, [r3, #27]
   135b8:	e5d3201a 	ldrb	r2, [r3, #26]
   135bc:	e3500003 	cmp	r0, #3
   135c0:	e1822401 	orr	r2, r2, r1, lsl #8
   135c4:	05d31015 	ldrbeq	r1, [r3, #21]
   135c8:	05d33014 	ldrbeq	r3, [r3, #20]
   135cc:	01833401 	orreq	r3, r3, r1, lsl #8
   135d0:	01822803 	orreq	r2, r2, r3, lsl #16
   135d4:	e5842008 	str	r2, [r4, #8]
   135d8:	e1d530b6 	ldrh	r3, [r5, #6]
   135dc:	e1a00004 	mov	r0, r4
   135e0:	e1c430b4 	strh	r3, [r4, #4]
   135e4:	e3a01000 	mov	r1, #0
   135e8:	ebffee69 	bl	ef94 <dir_sdi>
   135ec:	e3500004 	cmp	r0, #4
   135f0:	0a000027 	beq	13694 <f_opendir+0x184>
   135f4:	e3500000 	cmp	r0, #0
   135f8:	1a000009 	bne	13624 <f_opendir+0x114>
   135fc:	e28dd024 	add	sp, sp, #36	; 0x24
   13600:	e8bd8ff0 	pop	{r4, r5, r6, r7, r8, r9, sl, fp, pc}
   13604:	e5d12001 	ldrb	r2, [r1, #1]
   13608:	e352003a 	cmp	r2, #58	; 0x3a
   1360c:	1affffc9 	bne	13538 <f_opendir+0x28>
   13610:	e3530000 	cmp	r3, #0
   13614:	e3a03000 	mov	r3, #0
   13618:	e5843000 	str	r3, [r4]
   1361c:	13a0000b 	movne	r0, #11
   13620:	0a000113 	beq	13a74 <f_opendir+0x564>
   13624:	e3a03000 	mov	r3, #0
   13628:	e5843000 	str	r3, [r4]
   1362c:	e28dd024 	add	sp, sp, #36	; 0x24
   13630:	e8bd8ff0 	pop	{r4, r5, r6, r7, r8, r9, sl, fp, pc}
   13634:	e3a00000 	mov	r0, #0
   13638:	e5c60000 	strb	r0, [r6]
   1363c:	e5c60001 	strb	r0, [r6, #1]
   13640:	eb0010b2 	bl	17910 <disk_initialize>
   13644:	e2102001 	ands	r2, r0, #1
   13648:	13a00003 	movne	r0, #3
   1364c:	1afffff4 	bne	13624 <f_opendir+0x114>
   13650:	e2868034 	add	r8, r6, #52	; 0x34
   13654:	e1a01008 	mov	r1, r8
   13658:	e5d60001 	ldrb	r0, [r6, #1]
   1365c:	e3a03001 	mov	r3, #1
   13660:	eb0010bb 	bl	17954 <disk_read>
   13664:	e3500000 	cmp	r0, #0
   13668:	13a00003 	movne	r0, #3
   1366c:	0a00000a 	beq	1369c <f_opendir+0x18c>
   13670:	e3a09000 	mov	r9, #0
   13674:	e3500003 	cmp	r0, #3
   13678:	0a0000a8 	beq	13920 <f_opendir+0x410>
   1367c:	e3500000 	cmp	r0, #0
   13680:	0a000034 	beq	13758 <f_opendir+0x248>
   13684:	e3a0000d 	mov	r0, #13
   13688:	eaffffe5 	b	13624 <f_opendir+0x114>
   1368c:	e3a0000c 	mov	r0, #12
   13690:	eaffffe3 	b	13624 <f_opendir+0x114>
   13694:	e3a00005 	mov	r0, #5
   13698:	eaffffe1 	b	13624 <f_opendir+0x114>
   1369c:	e5d61233 	ldrb	r1, [r6, #563]	; 0x233
   136a0:	e5d62232 	ldrb	r2, [r6, #562]	; 0x232
   136a4:	e59f33d8 	ldr	r3, [pc, #984]	; 13a84 <f_opendir+0x574>
   136a8:	e1822401 	orr	r2, r2, r1, lsl #8
   136ac:	e6bf2072 	sxth	r2, r2
   136b0:	e1520003 	cmp	r2, r3
   136b4:	13a00002 	movne	r0, #2
   136b8:	1affffec 	bne	13670 <f_opendir+0x160>
   136bc:	e5d6206c 	ldrb	r2, [r6, #108]	; 0x6c
   136c0:	e5d6106d 	ldrb	r1, [r6, #109]	; 0x6d
   136c4:	e1a02802 	lsl	r2, r2, #16
   136c8:	e5d6306a 	ldrb	r3, [r6, #106]	; 0x6a
   136cc:	e1821c01 	orr	r1, r2, r1, lsl #24
   136d0:	e5d6206b 	ldrb	r2, [r6, #107]	; 0x6b
   136d4:	e1813003 	orr	r3, r1, r3
   136d8:	e1832402 	orr	r2, r3, r2, lsl #8
   136dc:	e59f33a4 	ldr	r3, [pc, #932]	; 13a88 <f_opendir+0x578>
   136e0:	e3c224ff 	bic	r2, r2, #-16777216	; 0xff000000
   136e4:	e1520003 	cmp	r2, r3
   136e8:	0affffe0 	beq	13670 <f_opendir+0x160>
   136ec:	e5d61088 	ldrb	r1, [r6, #136]	; 0x88
   136f0:	e5d6c089 	ldrb	ip, [r6, #137]	; 0x89
   136f4:	e1a01801 	lsl	r1, r1, #16
   136f8:	e5d62086 	ldrb	r2, [r6, #134]	; 0x86
   136fc:	e181cc0c 	orr	ip, r1, ip, lsl #24
   13700:	e5d61087 	ldrb	r1, [r6, #135]	; 0x87
   13704:	e18c2002 	orr	r2, ip, r2
   13708:	e1822401 	orr	r2, r2, r1, lsl #8
   1370c:	e3c224ff 	bic	r2, r2, #-16777216	; 0xff000000
   13710:	e1520003 	cmp	r2, r3
   13714:	0a00000e 	beq	13754 <f_opendir+0x244>
   13718:	e5d631f6 	ldrb	r3, [r6, #502]	; 0x1f6
   1371c:	e3530000 	cmp	r3, #0
   13720:	0affffd7 	beq	13684 <f_opendir+0x174>
   13724:	e5d621fc 	ldrb	r2, [r6, #508]	; 0x1fc
   13728:	e5d611fd 	ldrb	r1, [r6, #509]	; 0x1fd
   1372c:	e5d631fa 	ldrb	r3, [r6, #506]	; 0x1fa
   13730:	e1a02802 	lsl	r2, r2, #16
   13734:	e1822c01 	orr	r2, r2, r1, lsl #24
   13738:	e5d691fb 	ldrb	r9, [r6, #507]	; 0x1fb
   1373c:	e1823003 	orr	r3, r2, r3
   13740:	e1839409 	orr	r9, r3, r9, lsl #8
   13744:	e1a01009 	mov	r1, r9
   13748:	e1a00006 	mov	r0, r6
   1374c:	ebffe89d 	bl	d9c8 <check_fs>
   13750:	eaffffc7 	b	13674 <f_opendir+0x164>
   13754:	e1a09000 	mov	r9, r0
   13758:	e5d62040 	ldrb	r2, [r6, #64]	; 0x40
   1375c:	e5d6303f 	ldrb	r3, [r6, #63]	; 0x3f
   13760:	e1833402 	orr	r3, r3, r2, lsl #8
   13764:	e3530c02 	cmp	r3, #512	; 0x200
   13768:	1affffc5 	bne	13684 <f_opendir+0x174>
   1376c:	e5d6204b 	ldrb	r2, [r6, #75]	; 0x4b
   13770:	e5d6304a 	ldrb	r3, [r6, #74]	; 0x4a
   13774:	e1933402 	orrs	r3, r3, r2, lsl #8
   13778:	1a000007 	bne	1379c <f_opendir+0x28c>
   1377c:	e5d6205a 	ldrb	r2, [r6, #90]	; 0x5a
   13780:	e5d6105b 	ldrb	r1, [r6, #91]	; 0x5b
   13784:	e1a02802 	lsl	r2, r2, #16
   13788:	e5d63058 	ldrb	r3, [r6, #88]	; 0x58
   1378c:	e1821c01 	orr	r1, r2, r1, lsl #24
   13790:	e5d62059 	ldrb	r2, [r6, #89]	; 0x59
   13794:	e1813003 	orr	r3, r1, r3
   13798:	e1833402 	orr	r3, r3, r2, lsl #8
   1379c:	e5d62044 	ldrb	r2, [r6, #68]	; 0x44
   137a0:	e586301c 	str	r3, [r6, #28]
   137a4:	e2421001 	sub	r1, r2, #1
   137a8:	e3510001 	cmp	r1, #1
   137ac:	e5c62003 	strb	r2, [r6, #3]
   137b0:	8affffb3 	bhi	13684 <f_opendir+0x174>
   137b4:	e5d61041 	ldrb	r1, [r6, #65]	; 0x41
   137b8:	e3510000 	cmp	r1, #0
   137bc:	e5c61002 	strb	r1, [r6, #2]
   137c0:	0affffaf 	beq	13684 <f_opendir+0x174>
   137c4:	e2410001 	sub	r0, r1, #1
   137c8:	e1100001 	tst	r0, r1
   137cc:	1affffac 	bne	13684 <f_opendir+0x174>
   137d0:	e5d6b046 	ldrb	fp, [r6, #70]	; 0x46
   137d4:	e5d60045 	ldrb	r0, [r6, #69]	; 0x45
   137d8:	e180b40b 	orr	fp, r0, fp, lsl #8
   137dc:	e31b000f 	tst	fp, #15
   137e0:	e1c6b0b8 	strh	fp, [r6, #8]
   137e4:	1affffa6 	bne	13684 <f_opendir+0x174>
   137e8:	e5d6c048 	ldrb	ip, [r6, #72]	; 0x48
   137ec:	e5d60047 	ldrb	r0, [r6, #71]	; 0x47
   137f0:	e190040c 	orrs	r0, r0, ip, lsl #8
   137f4:	1a000007 	bne	13818 <f_opendir+0x308>
   137f8:	e5d6c056 	ldrb	ip, [r6, #86]	; 0x56
   137fc:	e5d6a057 	ldrb	sl, [r6, #87]	; 0x57
   13800:	e1a0c80c 	lsl	ip, ip, #16
   13804:	e5d60054 	ldrb	r0, [r6, #84]	; 0x54
   13808:	e18cac0a 	orr	sl, ip, sl, lsl #24
   1380c:	e5d6c055 	ldrb	ip, [r6, #85]	; 0x55
   13810:	e18a0000 	orr	r0, sl, r0
   13814:	e180040c 	orr	r0, r0, ip, lsl #8
   13818:	e5d6a043 	ldrb	sl, [r6, #67]	; 0x43
   1381c:	e5d6c042 	ldrb	ip, [r6, #66]	; 0x42
   13820:	e19cc40a 	orrs	ip, ip, sl, lsl #8
   13824:	0affff96 	beq	13684 <f_opendir+0x174>
   13828:	e0020392 	mul	r2, r2, r3
   1382c:	e58d200c 	str	r2, [sp, #12]
   13830:	e59da00c 	ldr	sl, [sp, #12]
   13834:	e08c222b 	add	r2, ip, fp, lsr #4
   13838:	e082200a 	add	r2, r2, sl
   1383c:	e1520000 	cmp	r2, r0
   13840:	8affff8f 	bhi	13684 <f_opendir+0x174>
   13844:	e0620000 	rsb	r0, r2, r0
   13848:	e58d2000 	str	r2, [sp]
   1384c:	e58d3008 	str	r3, [sp, #8]
   13850:	e58dc004 	str	ip, [sp, #4]
   13854:	eb00230b 	bl	1c488 <__aeabi_uidiv>
   13858:	e2501000 	subs	r1, r0, #0
   1385c:	e59d2000 	ldr	r2, [sp]
   13860:	e59d3008 	ldr	r3, [sp, #8]
   13864:	e59dc004 	ldr	ip, [sp, #4]
   13868:	0affff85 	beq	13684 <f_opendir+0x174>
   1386c:	e59f0218 	ldr	r0, [pc, #536]	; 13a8c <f_opendir+0x57c>
   13870:	e1510000 	cmp	r1, r0
   13874:	9a00007c 	bls	13a6c <f_opendir+0x55c>
   13878:	e2800a0f 	add	r0, r0, #61440	; 0xf000
   1387c:	e1510000 	cmp	r1, r0
   13880:	93a0a002 	movls	sl, #2
   13884:	8a000063 	bhi	13a18 <f_opendir+0x508>
   13888:	e2811002 	add	r1, r1, #2
   1388c:	e089c00c 	add	ip, r9, ip
   13890:	e0822009 	add	r2, r2, r9
   13894:	e35b0000 	cmp	fp, #0
   13898:	e5861018 	str	r1, [r6, #24]
   1389c:	e586c024 	str	ip, [r6, #36]	; 0x24
   138a0:	e586202c 	str	r2, [r6, #44]	; 0x2c
   138a4:	e5869020 	str	r9, [r6, #32]
   138a8:	0affff75 	beq	13684 <f_opendir+0x174>
   138ac:	e59d200c 	ldr	r2, [sp, #12]
   138b0:	e35a0002 	cmp	sl, #2
   138b4:	e082c00c 	add	ip, r2, ip
   138b8:	10812081 	addne	r2, r1, r1, lsl #1
   138bc:	12011001 	andne	r1, r1, #1
   138c0:	e586c028 	str	ip, [r6, #40]	; 0x28
   138c4:	01a01081 	lsleq	r1, r1, #1
   138c8:	108110a2 	addne	r1, r1, r2, lsr #1
   138cc:	13a0a001 	movne	sl, #1
   138d0:	e2812f7f 	add	r2, r1, #508	; 0x1fc
   138d4:	e2822003 	add	r2, r2, #3
   138d8:	e15304a2 	cmp	r3, r2, lsr #9
   138dc:	3affff68 	bcc	13684 <f_opendir+0x174>
   138e0:	e3e02000 	mvn	r2, #0
   138e4:	e3a03000 	mov	r3, #0
   138e8:	e35a0003 	cmp	sl, #3
   138ec:	e5862010 	str	r2, [r6, #16]
   138f0:	e586300c 	str	r3, [r6, #12]
   138f4:	0a00000b 	beq	13928 <f_opendir+0x418>
   138f8:	e1d720b4 	ldrh	r2, [r7, #4]
   138fc:	e3a03000 	mov	r3, #0
   13900:	e2822001 	add	r2, r2, #1
   13904:	e6ff2072 	uxth	r2, r2
   13908:	e5c6a000 	strb	sl, [r6]
   1390c:	e1c720b4 	strh	r2, [r7, #4]
   13910:	e1c620b6 	strh	r2, [r6, #6]
   13914:	e5863030 	str	r3, [r6, #48]	; 0x30
   13918:	e5c63004 	strb	r3, [r6, #4]
   1391c:	eaffff13 	b	13570 <f_opendir+0x60>
   13920:	e3a00001 	mov	r0, #1
   13924:	eaffff3e 	b	13624 <f_opendir+0x114>
   13928:	e5d61065 	ldrb	r1, [r6, #101]	; 0x65
   1392c:	e5d62064 	ldrb	r2, [r6, #100]	; 0x64
   13930:	e5c63005 	strb	r3, [r6, #5]
   13934:	e1822401 	orr	r2, r2, r1, lsl #8
   13938:	e0892002 	add	r2, r9, r2
   1393c:	e1a01008 	mov	r1, r8
   13940:	e5862014 	str	r2, [r6, #20]
   13944:	e5d60001 	ldrb	r0, [r6, #1]
   13948:	e3a03001 	mov	r3, #1
   1394c:	eb001000 	bl	17954 <disk_read>
   13950:	e3500000 	cmp	r0, #0
   13954:	1affffe7 	bne	138f8 <f_opendir+0x3e8>
   13958:	e5d61233 	ldrb	r1, [r6, #563]	; 0x233
   1395c:	e5d62232 	ldrb	r2, [r6, #562]	; 0x232
   13960:	e59f311c 	ldr	r3, [pc, #284]	; 13a84 <f_opendir+0x574>
   13964:	e1822401 	orr	r2, r2, r1, lsl #8
   13968:	e6bf2072 	sxth	r2, r2
   1396c:	e1520003 	cmp	r2, r3
   13970:	1affffe0 	bne	138f8 <f_opendir+0x3e8>
   13974:	e5d62036 	ldrb	r2, [r6, #54]	; 0x36
   13978:	e5d61037 	ldrb	r1, [r6, #55]	; 0x37
   1397c:	e5d63034 	ldrb	r3, [r6, #52]	; 0x34
   13980:	e1a02802 	lsl	r2, r2, #16
   13984:	e1822c01 	orr	r2, r2, r1, lsl #24
   13988:	e5d61035 	ldrb	r1, [r6, #53]	; 0x35
   1398c:	e1822003 	orr	r2, r2, r3
   13990:	e59f30f8 	ldr	r3, [pc, #248]	; 13a90 <f_opendir+0x580>
   13994:	e1822401 	orr	r2, r2, r1, lsl #8
   13998:	e1520003 	cmp	r2, r3
   1399c:	1affffd5 	bne	138f8 <f_opendir+0x3e8>
   139a0:	e5d6221a 	ldrb	r2, [r6, #538]	; 0x21a
   139a4:	e5d6121b 	ldrb	r1, [r6, #539]	; 0x21b
   139a8:	e5d63218 	ldrb	r3, [r6, #536]	; 0x218
   139ac:	e1a02802 	lsl	r2, r2, #16
   139b0:	e1822c01 	orr	r2, r2, r1, lsl #24
   139b4:	e5d61219 	ldrb	r1, [r6, #537]	; 0x219
   139b8:	e1822003 	orr	r2, r2, r3
   139bc:	e59f30d0 	ldr	r3, [pc, #208]	; 13a94 <f_opendir+0x584>
   139c0:	e1822401 	orr	r2, r2, r1, lsl #8
   139c4:	e1520003 	cmp	r2, r3
   139c8:	1affffca 	bne	138f8 <f_opendir+0x3e8>
   139cc:	e5d60222 	ldrb	r0, [r6, #546]	; 0x222
   139d0:	e5d6121e 	ldrb	r1, [r6, #542]	; 0x21e
   139d4:	e5d6e223 	ldrb	lr, [r6, #547]	; 0x223
   139d8:	e5d6c21f 	ldrb	ip, [r6, #543]	; 0x21f
   139dc:	e1a00800 	lsl	r0, r0, #16
   139e0:	e1a01801 	lsl	r1, r1, #16
   139e4:	e5d62220 	ldrb	r2, [r6, #544]	; 0x220
   139e8:	e5d6321c 	ldrb	r3, [r6, #540]	; 0x21c
   139ec:	e180ec0e 	orr	lr, r0, lr, lsl #24
   139f0:	e181cc0c 	orr	ip, r1, ip, lsl #24
   139f4:	e5d60221 	ldrb	r0, [r6, #545]	; 0x221
   139f8:	e5d6121d 	ldrb	r1, [r6, #541]	; 0x21d
   139fc:	e18e2002 	orr	r2, lr, r2
   13a00:	e18c3003 	orr	r3, ip, r3
   13a04:	e1822400 	orr	r2, r2, r0, lsl #8
   13a08:	e1833401 	orr	r3, r3, r1, lsl #8
   13a0c:	e586200c 	str	r2, [r6, #12]
   13a10:	e5863010 	str	r3, [r6, #16]
   13a14:	eaffffb7 	b	138f8 <f_opendir+0x3e8>
   13a18:	e2811002 	add	r1, r1, #2
   13a1c:	e089c00c 	add	ip, r9, ip
   13a20:	e0822009 	add	r2, r2, r9
   13a24:	e35b0000 	cmp	fp, #0
   13a28:	e5861018 	str	r1, [r6, #24]
   13a2c:	e586c024 	str	ip, [r6, #36]	; 0x24
   13a30:	e586202c 	str	r2, [r6, #44]	; 0x2c
   13a34:	e5869020 	str	r9, [r6, #32]
   13a38:	1affff11 	bne	13684 <f_opendir+0x174>
   13a3c:	e5d60062 	ldrb	r0, [r6, #98]	; 0x62
   13a40:	e5d6c063 	ldrb	ip, [r6, #99]	; 0x63
   13a44:	e1a00800 	lsl	r0, r0, #16
   13a48:	e5d62060 	ldrb	r2, [r6, #96]	; 0x60
   13a4c:	e180cc0c 	orr	ip, r0, ip, lsl #24
   13a50:	e5d60061 	ldrb	r0, [r6, #97]	; 0x61
   13a54:	e18c2002 	orr	r2, ip, r2
   13a58:	e1822400 	orr	r2, r2, r0, lsl #8
   13a5c:	e1a01101 	lsl	r1, r1, #2
   13a60:	e5862028 	str	r2, [r6, #40]	; 0x28
   13a64:	e3a0a003 	mov	sl, #3
   13a68:	eaffff98 	b	138d0 <f_opendir+0x3c0>
   13a6c:	e3a0a001 	mov	sl, #1
   13a70:	eaffff84 	b	13888 <f_opendir+0x378>
   13a74:	e2815002 	add	r5, r1, #2
   13a78:	eafffeb0 	b	13540 <f_opendir+0x30>
   13a7c:	000217dc 	ldrdeq	r1, [r2], -ip
   13a80:	000217e4 	andeq	r1, r2, r4, ror #15
   13a84:	ffffaa55 			; <UNDEFINED> instruction: 0xffffaa55
   13a88:	00544146 	subseq	r4, r4, r6, asr #2
   13a8c:	00000ff5 	strdeq	r0, [r0], -r5
   13a90:	41615252 	cmnmi	r1, r2, asr r2
   13a94:	61417272 	hvcvs	5922	; 0x1722

00013a98 <f_readdir>:
   13a98:	e92d4070 	push	{r4, r5, r6, lr}
   13a9c:	e2504000 	subs	r4, r0, #0
   13aa0:	e24dd010 	sub	sp, sp, #16
   13aa4:	e1a05001 	mov	r5, r1
   13aa8:	0a000005 	beq	13ac4 <f_readdir+0x2c>
   13aac:	e5943000 	ldr	r3, [r4]
   13ab0:	e3530000 	cmp	r3, #0
   13ab4:	0a000002 	beq	13ac4 <f_readdir+0x2c>
   13ab8:	e5d32000 	ldrb	r2, [r3]
   13abc:	e3520000 	cmp	r2, #0
   13ac0:	1a000002 	bne	13ad0 <f_readdir+0x38>
   13ac4:	e3a00009 	mov	r0, #9
   13ac8:	e28dd010 	add	sp, sp, #16
   13acc:	e8bd8070 	pop	{r4, r5, r6, pc}
   13ad0:	e1d310b6 	ldrh	r1, [r3, #6]
   13ad4:	e1d420b4 	ldrh	r2, [r4, #4]
   13ad8:	e1510002 	cmp	r1, r2
   13adc:	1afffff8 	bne	13ac4 <f_readdir+0x2c>
   13ae0:	e5d30001 	ldrb	r0, [r3, #1]
   13ae4:	eb000fba 	bl	179d4 <disk_status>
   13ae8:	e2106001 	ands	r6, r0, #1
   13aec:	13a00003 	movne	r0, #3
   13af0:	1afffff4 	bne	13ac8 <f_readdir+0x30>
   13af4:	e3550000 	cmp	r5, #0
   13af8:	0a000014 	beq	13b50 <f_readdir+0xb8>
   13afc:	e59f205c 	ldr	r2, [pc, #92]	; 13b60 <f_readdir+0xc8>
   13b00:	e28d3004 	add	r3, sp, #4
   13b04:	e584201c 	str	r2, [r4, #28]
   13b08:	e5843018 	str	r3, [r4, #24]
   13b0c:	e1a00004 	mov	r0, r4
   13b10:	ebffef77 	bl	f8f4 <dir_read.constprop.10>
   13b14:	e3500004 	cmp	r0, #4
   13b18:	05846010 	streq	r6, [r4, #16]
   13b1c:	0a000001 	beq	13b28 <f_readdir+0x90>
   13b20:	e3500000 	cmp	r0, #0
   13b24:	1affffe7 	bne	13ac8 <f_readdir+0x30>
   13b28:	e1a01005 	mov	r1, r5
   13b2c:	e1a00004 	mov	r0, r4
   13b30:	ebffe696 	bl	d590 <get_fileinfo>
   13b34:	e1a00004 	mov	r0, r4
   13b38:	ebffeeae 	bl	f5f8 <dir_next.constprop.11>
   13b3c:	e3500004 	cmp	r0, #4
   13b40:	03a00000 	moveq	r0, #0
   13b44:	05840010 	streq	r0, [r4, #16]
   13b48:	e28dd010 	add	sp, sp, #16
   13b4c:	e8bd8070 	pop	{r4, r5, r6, pc}
   13b50:	e1a00004 	mov	r0, r4
   13b54:	e1a01005 	mov	r1, r5
   13b58:	ebffed0d 	bl	ef94 <dir_sdi>
   13b5c:	eaffffd9 	b	13ac8 <f_readdir+0x30>
   13b60:	000217e4 	andeq	r1, r2, r4, ror #15

00013b64 <f_stat>:
   13b64:	e92d4ff0 	push	{r4, r5, r6, r7, r8, r9, sl, fp, lr}
   13b68:	e5d03000 	ldrb	r3, [r0]
   13b6c:	e24dd044 	sub	sp, sp, #68	; 0x44
   13b70:	e2433030 	sub	r3, r3, #48	; 0x30
   13b74:	e3530009 	cmp	r3, #9
   13b78:	e1a04000 	mov	r4, r0
   13b7c:	e1a06001 	mov	r6, r1
   13b80:	9a00001f 	bls	13c04 <f_stat+0xa0>
   13b84:	e59f7550 	ldr	r7, [pc, #1360]	; 140dc <f_stat+0x578>
   13b88:	e5975000 	ldr	r5, [r7]
   13b8c:	e3550000 	cmp	r5, #0
   13b90:	03a0400c 	moveq	r4, #12
   13b94:	0a000017 	beq	13bf8 <f_stat+0x94>
   13b98:	e58d501c 	str	r5, [sp, #28]
   13b9c:	e5d53000 	ldrb	r3, [r5]
   13ba0:	e3530000 	cmp	r3, #0
   13ba4:	0a00001e 	beq	13c24 <f_stat+0xc0>
   13ba8:	e5d50001 	ldrb	r0, [r5, #1]
   13bac:	eb000f88 	bl	179d4 <disk_status>
   13bb0:	e3100001 	tst	r0, #1
   13bb4:	1a00001a 	bne	13c24 <f_stat+0xc0>
   13bb8:	e59f3520 	ldr	r3, [pc, #1312]	; 140e0 <f_stat+0x57c>
   13bbc:	e1a01004 	mov	r1, r4
   13bc0:	e28d001c 	add	r0, sp, #28
   13bc4:	e28da010 	add	sl, sp, #16
   13bc8:	e58d3038 	str	r3, [sp, #56]	; 0x38
   13bcc:	e58da034 	str	sl, [sp, #52]	; 0x34
   13bd0:	ebfff17a 	bl	101c0 <follow_path>
   13bd4:	e2504000 	subs	r4, r0, #0
   13bd8:	1a000006 	bne	13bf8 <f_stat+0x94>
   13bdc:	e59d3030 	ldr	r3, [sp, #48]	; 0x30
   13be0:	e3530000 	cmp	r3, #0
   13be4:	03a04006 	moveq	r4, #6
   13be8:	0a000002 	beq	13bf8 <f_stat+0x94>
   13bec:	e28d001c 	add	r0, sp, #28
   13bf0:	e1a01006 	mov	r1, r6
   13bf4:	ebffe665 	bl	d590 <get_fileinfo>
   13bf8:	e1a00004 	mov	r0, r4
   13bfc:	e28dd044 	add	sp, sp, #68	; 0x44
   13c00:	e8bd8ff0 	pop	{r4, r5, r6, r7, r8, r9, sl, fp, pc}
   13c04:	e5d02001 	ldrb	r2, [r0, #1]
   13c08:	e352003a 	cmp	r2, #58	; 0x3a
   13c0c:	1affffdc 	bne	13b84 <f_stat+0x20>
   13c10:	e3530000 	cmp	r3, #0
   13c14:	13a0400b 	movne	r4, #11
   13c18:	1afffff6 	bne	13bf8 <f_stat+0x94>
   13c1c:	e2844002 	add	r4, r4, #2
   13c20:	eaffffd7 	b	13b84 <f_stat+0x20>
   13c24:	e3a00000 	mov	r0, #0
   13c28:	e5c50000 	strb	r0, [r5]
   13c2c:	e5c50001 	strb	r0, [r5, #1]
   13c30:	eb000f36 	bl	17910 <disk_initialize>
   13c34:	e2102001 	ands	r2, r0, #1
   13c38:	13a04003 	movne	r4, #3
   13c3c:	1affffed 	bne	13bf8 <f_stat+0x94>
   13c40:	e2858034 	add	r8, r5, #52	; 0x34
   13c44:	e3a03001 	mov	r3, #1
   13c48:	e1a01008 	mov	r1, r8
   13c4c:	e5d50001 	ldrb	r0, [r5, #1]
   13c50:	eb000f3f 	bl	17954 <disk_read>
   13c54:	e3500000 	cmp	r0, #0
   13c58:	13a03003 	movne	r3, #3
   13c5c:	0a000006 	beq	13c7c <f_stat+0x118>
   13c60:	e3a09000 	mov	r9, #0
   13c64:	e3530003 	cmp	r3, #3
   13c68:	0a000034 	beq	13d40 <f_stat+0x1dc>
   13c6c:	e3530000 	cmp	r3, #0
   13c70:	0a000035 	beq	13d4c <f_stat+0x1e8>
   13c74:	e3a0400d 	mov	r4, #13
   13c78:	eaffffde 	b	13bf8 <f_stat+0x94>
   13c7c:	e5d5a233 	ldrb	sl, [r5, #563]	; 0x233
   13c80:	e5d52232 	ldrb	r2, [r5, #562]	; 0x232
   13c84:	e59f3458 	ldr	r3, [pc, #1112]	; 140e4 <f_stat+0x580>
   13c88:	e182a40a 	orr	sl, r2, sl, lsl #8
   13c8c:	e6bfa07a 	sxth	sl, sl
   13c90:	e15a0003 	cmp	sl, r3
   13c94:	13a03002 	movne	r3, #2
   13c98:	1afffff0 	bne	13c60 <f_stat+0xfc>
   13c9c:	e5d5206c 	ldrb	r2, [r5, #108]	; 0x6c
   13ca0:	e5d5106d 	ldrb	r1, [r5, #109]	; 0x6d
   13ca4:	e1a02802 	lsl	r2, r2, #16
   13ca8:	e5d5306a 	ldrb	r3, [r5, #106]	; 0x6a
   13cac:	e1821c01 	orr	r1, r2, r1, lsl #24
   13cb0:	e5d5206b 	ldrb	r2, [r5, #107]	; 0x6b
   13cb4:	e1813003 	orr	r3, r1, r3
   13cb8:	e1833402 	orr	r3, r3, r2, lsl #8
   13cbc:	e59fb424 	ldr	fp, [pc, #1060]	; 140e8 <f_stat+0x584>
   13cc0:	e3c334ff 	bic	r3, r3, #-16777216	; 0xff000000
   13cc4:	e153000b 	cmp	r3, fp
   13cc8:	0a0000ae 	beq	13f88 <f_stat+0x424>
   13ccc:	e5d52088 	ldrb	r2, [r5, #136]	; 0x88
   13cd0:	e5d51089 	ldrb	r1, [r5, #137]	; 0x89
   13cd4:	e1a02802 	lsl	r2, r2, #16
   13cd8:	e5d53086 	ldrb	r3, [r5, #134]	; 0x86
   13cdc:	e1821c01 	orr	r1, r2, r1, lsl #24
   13ce0:	e5d52087 	ldrb	r2, [r5, #135]	; 0x87
   13ce4:	e1813003 	orr	r3, r1, r3
   13ce8:	e1833402 	orr	r3, r3, r2, lsl #8
   13cec:	e3c334ff 	bic	r3, r3, #-16777216	; 0xff000000
   13cf0:	e153000b 	cmp	r3, fp
   13cf4:	0a000013 	beq	13d48 <f_stat+0x1e4>
   13cf8:	e5d531f6 	ldrb	r3, [r5, #502]	; 0x1f6
   13cfc:	e3530000 	cmp	r3, #0
   13d00:	0affffdb 	beq	13c74 <f_stat+0x110>
   13d04:	e5d521fc 	ldrb	r2, [r5, #508]	; 0x1fc
   13d08:	e5d511fd 	ldrb	r1, [r5, #509]	; 0x1fd
   13d0c:	e5d531fa 	ldrb	r3, [r5, #506]	; 0x1fa
   13d10:	e1a02802 	lsl	r2, r2, #16
   13d14:	e1822c01 	orr	r2, r2, r1, lsl #24
   13d18:	e5d591fb 	ldrb	r9, [r5, #507]	; 0x1fb
   13d1c:	e1823003 	orr	r3, r2, r3
   13d20:	e1839409 	orr	r9, r3, r9, lsl #8
   13d24:	e1a02009 	mov	r2, r9
   13d28:	e5d50001 	ldrb	r0, [r5, #1]
   13d2c:	e1a01008 	mov	r1, r8
   13d30:	e3a03001 	mov	r3, #1
   13d34:	eb000f06 	bl	17954 <disk_read>
   13d38:	e3500000 	cmp	r0, #0
   13d3c:	0a000074 	beq	13f14 <f_stat+0x3b0>
   13d40:	e3a04001 	mov	r4, #1
   13d44:	eaffffab 	b	13bf8 <f_stat+0x94>
   13d48:	e1a09000 	mov	r9, r0
   13d4c:	e5d52040 	ldrb	r2, [r5, #64]	; 0x40
   13d50:	e5d5303f 	ldrb	r3, [r5, #63]	; 0x3f
   13d54:	e1833402 	orr	r3, r3, r2, lsl #8
   13d58:	e3530c02 	cmp	r3, #512	; 0x200
   13d5c:	1affffc4 	bne	13c74 <f_stat+0x110>
   13d60:	e5d5b04b 	ldrb	fp, [r5, #75]	; 0x4b
   13d64:	e5d5304a 	ldrb	r3, [r5, #74]	; 0x4a
   13d68:	e193b40b 	orrs	fp, r3, fp, lsl #8
   13d6c:	1a000007 	bne	13d90 <f_stat+0x22c>
   13d70:	e5d5205a 	ldrb	r2, [r5, #90]	; 0x5a
   13d74:	e5d5105b 	ldrb	r1, [r5, #91]	; 0x5b
   13d78:	e1a02802 	lsl	r2, r2, #16
   13d7c:	e5d53058 	ldrb	r3, [r5, #88]	; 0x58
   13d80:	e1822c01 	orr	r2, r2, r1, lsl #24
   13d84:	e5d5b059 	ldrb	fp, [r5, #89]	; 0x59
   13d88:	e1823003 	orr	r3, r2, r3
   13d8c:	e183b40b 	orr	fp, r3, fp, lsl #8
   13d90:	e5d52044 	ldrb	r2, [r5, #68]	; 0x44
   13d94:	e585b01c 	str	fp, [r5, #28]
   13d98:	e2423001 	sub	r3, r2, #1
   13d9c:	e3530001 	cmp	r3, #1
   13da0:	e5c52003 	strb	r2, [r5, #3]
   13da4:	8affffb2 	bhi	13c74 <f_stat+0x110>
   13da8:	e5d51041 	ldrb	r1, [r5, #65]	; 0x41
   13dac:	e3510000 	cmp	r1, #0
   13db0:	e5c51002 	strb	r1, [r5, #2]
   13db4:	0affffae 	beq	13c74 <f_stat+0x110>
   13db8:	e2413001 	sub	r3, r1, #1
   13dbc:	e1130001 	tst	r3, r1
   13dc0:	1affffab 	bne	13c74 <f_stat+0x110>
   13dc4:	e5d50046 	ldrb	r0, [r5, #70]	; 0x46
   13dc8:	e5d53045 	ldrb	r3, [r5, #69]	; 0x45
   13dcc:	e1833400 	orr	r3, r3, r0, lsl #8
   13dd0:	e313000f 	tst	r3, #15
   13dd4:	e1c530b8 	strh	r3, [r5, #8]
   13dd8:	1affffa5 	bne	13c74 <f_stat+0x110>
   13ddc:	e5d5c048 	ldrb	ip, [r5, #72]	; 0x48
   13de0:	e5d50047 	ldrb	r0, [r5, #71]	; 0x47
   13de4:	e190040c 	orrs	r0, r0, ip, lsl #8
   13de8:	1a000007 	bne	13e0c <f_stat+0x2a8>
   13dec:	e5d5c056 	ldrb	ip, [r5, #86]	; 0x56
   13df0:	e5d5a057 	ldrb	sl, [r5, #87]	; 0x57
   13df4:	e1a0c80c 	lsl	ip, ip, #16
   13df8:	e5d50054 	ldrb	r0, [r5, #84]	; 0x54
   13dfc:	e18cac0a 	orr	sl, ip, sl, lsl #24
   13e00:	e5d5c055 	ldrb	ip, [r5, #85]	; 0x55
   13e04:	e18a0000 	orr	r0, sl, r0
   13e08:	e180040c 	orr	r0, r0, ip, lsl #8
   13e0c:	e5d5a043 	ldrb	sl, [r5, #67]	; 0x43
   13e10:	e5d5c042 	ldrb	ip, [r5, #66]	; 0x42
   13e14:	e19cc40a 	orrs	ip, ip, sl, lsl #8
   13e18:	0affff95 	beq	13c74 <f_stat+0x110>
   13e1c:	e0020b92 	mul	r2, r2, fp
   13e20:	e58d200c 	str	r2, [sp, #12]
   13e24:	e59da00c 	ldr	sl, [sp, #12]
   13e28:	e08c2223 	add	r2, ip, r3, lsr #4
   13e2c:	e082200a 	add	r2, r2, sl
   13e30:	e1520000 	cmp	r2, r0
   13e34:	8affff8e 	bhi	13c74 <f_stat+0x110>
   13e38:	e0620000 	rsb	r0, r2, r0
   13e3c:	e58d2000 	str	r2, [sp]
   13e40:	e58d3008 	str	r3, [sp, #8]
   13e44:	e58dc004 	str	ip, [sp, #4]
   13e48:	eb00218e 	bl	1c488 <__aeabi_uidiv>
   13e4c:	e2501000 	subs	r1, r0, #0
   13e50:	e59d2000 	ldr	r2, [sp]
   13e54:	e59d3008 	ldr	r3, [sp, #8]
   13e58:	e59dc004 	ldr	ip, [sp, #4]
   13e5c:	0affff84 	beq	13c74 <f_stat+0x110>
   13e60:	e59f0284 	ldr	r0, [pc, #644]	; 140ec <f_stat+0x588>
   13e64:	e1510000 	cmp	r1, r0
   13e68:	9a000099 	bls	140d4 <f_stat+0x570>
   13e6c:	e2800a0f 	add	r0, r0, #61440	; 0xf000
   13e70:	e1510000 	cmp	r1, r0
   13e74:	93a0a002 	movls	sl, #2
   13e78:	8a000080 	bhi	14080 <f_stat+0x51c>
   13e7c:	e2811002 	add	r1, r1, #2
   13e80:	e089c00c 	add	ip, r9, ip
   13e84:	e0822009 	add	r2, r2, r9
   13e88:	e3530000 	cmp	r3, #0
   13e8c:	e5851018 	str	r1, [r5, #24]
   13e90:	e585c024 	str	ip, [r5, #36]	; 0x24
   13e94:	e585202c 	str	r2, [r5, #44]	; 0x2c
   13e98:	e5859020 	str	r9, [r5, #32]
   13e9c:	0affff74 	beq	13c74 <f_stat+0x110>
   13ea0:	e59d300c 	ldr	r3, [sp, #12]
   13ea4:	e35a0002 	cmp	sl, #2
   13ea8:	e083c00c 	add	ip, r3, ip
   13eac:	10813081 	addne	r3, r1, r1, lsl #1
   13eb0:	12011001 	andne	r1, r1, #1
   13eb4:	e585c028 	str	ip, [r5, #40]	; 0x28
   13eb8:	01a01081 	lsleq	r1, r1, #1
   13ebc:	108110a3 	addne	r1, r1, r3, lsr #1
   13ec0:	13a0a001 	movne	sl, #1
   13ec4:	e2813f7f 	add	r3, r1, #508	; 0x1fc
   13ec8:	e2833003 	add	r3, r3, #3
   13ecc:	e15b04a3 	cmp	fp, r3, lsr #9
   13ed0:	3affff67 	bcc	13c74 <f_stat+0x110>
   13ed4:	e3e02000 	mvn	r2, #0
   13ed8:	e3a03000 	mov	r3, #0
   13edc:	e35a0003 	cmp	sl, #3
   13ee0:	e5852010 	str	r2, [r5, #16]
   13ee4:	e585300c 	str	r3, [r5, #12]
   13ee8:	0a000028 	beq	13f90 <f_stat+0x42c>
   13eec:	e1d720b4 	ldrh	r2, [r7, #4]
   13ef0:	e3a03000 	mov	r3, #0
   13ef4:	e2822001 	add	r2, r2, #1
   13ef8:	e6ff2072 	uxth	r2, r2
   13efc:	e5c5a000 	strb	sl, [r5]
   13f00:	e1c720b4 	strh	r2, [r7, #4]
   13f04:	e1c520b6 	strh	r2, [r5, #6]
   13f08:	e5853030 	str	r3, [r5, #48]	; 0x30
   13f0c:	e5c53004 	strb	r3, [r5, #4]
   13f10:	eaffff28 	b	13bb8 <f_stat+0x54>
   13f14:	e5d52233 	ldrb	r2, [r5, #563]	; 0x233
   13f18:	e5d53232 	ldrb	r3, [r5, #562]	; 0x232
   13f1c:	e1833402 	orr	r3, r3, r2, lsl #8
   13f20:	e6bf3073 	sxth	r3, r3
   13f24:	e153000a 	cmp	r3, sl
   13f28:	1affff51 	bne	13c74 <f_stat+0x110>
   13f2c:	e5d5206c 	ldrb	r2, [r5, #108]	; 0x6c
   13f30:	e5d5106d 	ldrb	r1, [r5, #109]	; 0x6d
   13f34:	e1a02802 	lsl	r2, r2, #16
   13f38:	e5d5306a 	ldrb	r3, [r5, #106]	; 0x6a
   13f3c:	e1821c01 	orr	r1, r2, r1, lsl #24
   13f40:	e5d5206b 	ldrb	r2, [r5, #107]	; 0x6b
   13f44:	e1813003 	orr	r3, r1, r3
   13f48:	e1833402 	orr	r3, r3, r2, lsl #8
   13f4c:	e3c334ff 	bic	r3, r3, #-16777216	; 0xff000000
   13f50:	e153000b 	cmp	r3, fp
   13f54:	0affff7c 	beq	13d4c <f_stat+0x1e8>
   13f58:	e5d52088 	ldrb	r2, [r5, #136]	; 0x88
   13f5c:	e5d51089 	ldrb	r1, [r5, #137]	; 0x89
   13f60:	e1a02802 	lsl	r2, r2, #16
   13f64:	e5d53086 	ldrb	r3, [r5, #134]	; 0x86
   13f68:	e1821c01 	orr	r1, r2, r1, lsl #24
   13f6c:	e5d52087 	ldrb	r2, [r5, #135]	; 0x87
   13f70:	e1813003 	orr	r3, r1, r3
   13f74:	e1833402 	orr	r3, r3, r2, lsl #8
   13f78:	e3c334ff 	bic	r3, r3, #-16777216	; 0xff000000
   13f7c:	e053300b 	subs	r3, r3, fp
   13f80:	13a03001 	movne	r3, #1
   13f84:	eaffff36 	b	13c64 <f_stat+0x100>
   13f88:	e1a03000 	mov	r3, r0
   13f8c:	eaffff33 	b	13c60 <f_stat+0xfc>
   13f90:	e5d51065 	ldrb	r1, [r5, #101]	; 0x65
   13f94:	e5d52064 	ldrb	r2, [r5, #100]	; 0x64
   13f98:	e5c53005 	strb	r3, [r5, #5]
   13f9c:	e1822401 	orr	r2, r2, r1, lsl #8
   13fa0:	e0892002 	add	r2, r9, r2
   13fa4:	e1a01008 	mov	r1, r8
   13fa8:	e5852014 	str	r2, [r5, #20]
   13fac:	e5d50001 	ldrb	r0, [r5, #1]
   13fb0:	e3a03001 	mov	r3, #1
   13fb4:	eb000e66 	bl	17954 <disk_read>
   13fb8:	e3500000 	cmp	r0, #0
   13fbc:	1affffca 	bne	13eec <f_stat+0x388>
   13fc0:	e5d51233 	ldrb	r1, [r5, #563]	; 0x233
   13fc4:	e5d52232 	ldrb	r2, [r5, #562]	; 0x232
   13fc8:	e59f3114 	ldr	r3, [pc, #276]	; 140e4 <f_stat+0x580>
   13fcc:	e1822401 	orr	r2, r2, r1, lsl #8
   13fd0:	e6bf2072 	sxth	r2, r2
   13fd4:	e1520003 	cmp	r2, r3
   13fd8:	1affffc3 	bne	13eec <f_stat+0x388>
   13fdc:	e5d52036 	ldrb	r2, [r5, #54]	; 0x36
   13fe0:	e5d51037 	ldrb	r1, [r5, #55]	; 0x37
   13fe4:	e5d53034 	ldrb	r3, [r5, #52]	; 0x34
   13fe8:	e1a02802 	lsl	r2, r2, #16
   13fec:	e1822c01 	orr	r2, r2, r1, lsl #24
   13ff0:	e5d51035 	ldrb	r1, [r5, #53]	; 0x35
   13ff4:	e1822003 	orr	r2, r2, r3
   13ff8:	e59f30f0 	ldr	r3, [pc, #240]	; 140f0 <f_stat+0x58c>
   13ffc:	e1822401 	orr	r2, r2, r1, lsl #8
   14000:	e1520003 	cmp	r2, r3
   14004:	1affffb8 	bne	13eec <f_stat+0x388>
   14008:	e5d5221a 	ldrb	r2, [r5, #538]	; 0x21a
   1400c:	e5d5121b 	ldrb	r1, [r5, #539]	; 0x21b
   14010:	e5d53218 	ldrb	r3, [r5, #536]	; 0x218
   14014:	e1a02802 	lsl	r2, r2, #16
   14018:	e1822c01 	orr	r2, r2, r1, lsl #24
   1401c:	e5d51219 	ldrb	r1, [r5, #537]	; 0x219
   14020:	e1822003 	orr	r2, r2, r3
   14024:	e59f30c8 	ldr	r3, [pc, #200]	; 140f4 <f_stat+0x590>
   14028:	e1822401 	orr	r2, r2, r1, lsl #8
   1402c:	e1520003 	cmp	r2, r3
   14030:	1affffad 	bne	13eec <f_stat+0x388>
   14034:	e5d50222 	ldrb	r0, [r5, #546]	; 0x222
   14038:	e5d5121e 	ldrb	r1, [r5, #542]	; 0x21e
   1403c:	e5d5e223 	ldrb	lr, [r5, #547]	; 0x223
   14040:	e5d5c21f 	ldrb	ip, [r5, #543]	; 0x21f
   14044:	e1a00800 	lsl	r0, r0, #16
   14048:	e1a01801 	lsl	r1, r1, #16
   1404c:	e5d52220 	ldrb	r2, [r5, #544]	; 0x220
   14050:	e5d5321c 	ldrb	r3, [r5, #540]	; 0x21c
   14054:	e180ec0e 	orr	lr, r0, lr, lsl #24
   14058:	e181cc0c 	orr	ip, r1, ip, lsl #24
   1405c:	e5d50221 	ldrb	r0, [r5, #545]	; 0x221
   14060:	e5d5121d 	ldrb	r1, [r5, #541]	; 0x21d
   14064:	e18e2002 	orr	r2, lr, r2
   14068:	e18c3003 	orr	r3, ip, r3
   1406c:	e1822400 	orr	r2, r2, r0, lsl #8
   14070:	e1833401 	orr	r3, r3, r1, lsl #8
   14074:	e585200c 	str	r2, [r5, #12]
   14078:	e5853010 	str	r3, [r5, #16]
   1407c:	eaffff9a 	b	13eec <f_stat+0x388>
   14080:	e2811002 	add	r1, r1, #2
   14084:	e089c00c 	add	ip, r9, ip
   14088:	e0822009 	add	r2, r2, r9
   1408c:	e3530000 	cmp	r3, #0
   14090:	e5851018 	str	r1, [r5, #24]
   14094:	e585c024 	str	ip, [r5, #36]	; 0x24
   14098:	e585202c 	str	r2, [r5, #44]	; 0x2c
   1409c:	e5859020 	str	r9, [r5, #32]
   140a0:	1afffef3 	bne	13c74 <f_stat+0x110>
   140a4:	e5d52062 	ldrb	r2, [r5, #98]	; 0x62
   140a8:	e5d50063 	ldrb	r0, [r5, #99]	; 0x63
   140ac:	e1a02802 	lsl	r2, r2, #16
   140b0:	e5d53060 	ldrb	r3, [r5, #96]	; 0x60
   140b4:	e1820c00 	orr	r0, r2, r0, lsl #24
   140b8:	e5d52061 	ldrb	r2, [r5, #97]	; 0x61
   140bc:	e1803003 	orr	r3, r0, r3
   140c0:	e1833402 	orr	r3, r3, r2, lsl #8
   140c4:	e1a01101 	lsl	r1, r1, #2
   140c8:	e5853028 	str	r3, [r5, #40]	; 0x28
   140cc:	e3a0a003 	mov	sl, #3
   140d0:	eaffff7b 	b	13ec4 <f_stat+0x360>
   140d4:	e3a0a001 	mov	sl, #1
   140d8:	eaffff67 	b	13e7c <f_stat+0x318>
   140dc:	000217dc 	ldrdeq	r1, [r2], -ip
   140e0:	000217e4 	andeq	r1, r2, r4, ror #15
   140e4:	ffffaa55 			; <UNDEFINED> instruction: 0xffffaa55
   140e8:	00544146 	subseq	r4, r4, r6, asr #2
   140ec:	00000ff5 	strdeq	r0, [r0], -r5
   140f0:	41615252 	cmnmi	r1, r2, asr r2
   140f4:	61417272 	hvcvs	5922	; 0x1722

000140f8 <f_getfree>:
   140f8:	e92d4ff0 	push	{r4, r5, r6, r7, r8, r9, sl, fp, lr}
   140fc:	e24dd014 	sub	sp, sp, #20
   14100:	e28d3010 	add	r3, sp, #16
   14104:	e5230004 	str	r0, [r3, #-4]!
   14108:	e1a04002 	mov	r4, r2
   1410c:	e58d1004 	str	r1, [sp, #4]
   14110:	e1a00003 	mov	r0, r3
   14114:	e1a01002 	mov	r1, r2
   14118:	e3a02000 	mov	r2, #0
   1411c:	ebffe94e 	bl	e65c <chk_mounted>
   14120:	e250b000 	subs	fp, r0, #0
   14124:	e5946000 	ldr	r6, [r4]
   14128:	1a00004f 	bne	1426c <f_getfree+0x174>
   1412c:	e5965018 	ldr	r5, [r6, #24]
   14130:	e5963010 	ldr	r3, [r6, #16]
   14134:	e2452002 	sub	r2, r5, #2
   14138:	e1530002 	cmp	r3, r2
   1413c:	9a00004d 	bls	14278 <f_getfree+0x180>
   14140:	e5d68000 	ldrb	r8, [r6]
   14144:	e3580001 	cmp	r8, #1
   14148:	0a000066 	beq	142e8 <f_getfree+0x1f0>
   1414c:	e596c024 	ldr	ip, [r6, #36]	; 0x24
   14150:	e1a0a00b 	mov	sl, fp
   14154:	e1a0400b 	mov	r4, fp
   14158:	e1a0700b 	mov	r7, fp
   1415c:	e58db008 	str	fp, [sp, #8]
   14160:	e1a0b00c 	mov	fp, ip
   14164:	ea000010 	b	141ac <f_getfree+0xb4>
   14168:	e3580002 	cmp	r8, #2
   1416c:	0a000026 	beq	1420c <f_getfree+0x114>
   14170:	e5da3002 	ldrb	r3, [sl, #2]
   14174:	e5da2003 	ldrb	r2, [sl, #3]
   14178:	e5da1000 	ldrb	r1, [sl]
   1417c:	e1a03803 	lsl	r3, r3, #16
   14180:	e1833c02 	orr	r3, r3, r2, lsl #24
   14184:	e5da2001 	ldrb	r2, [sl, #1]
   14188:	e1833001 	orr	r3, r3, r1
   1418c:	e1833402 	orr	r3, r3, r2, lsl #8
   14190:	e3c3320f 	bic	r3, r3, #-268435456	; 0xf0000000
   14194:	e3530000 	cmp	r3, #0
   14198:	02877001 	addeq	r7, r7, #1
   1419c:	e2555001 	subs	r5, r5, #1
   141a0:	e28aa004 	add	sl, sl, #4
   141a4:	e2444004 	sub	r4, r4, #4
   141a8:	0a00001f 	beq	1422c <f_getfree+0x134>
   141ac:	e3540000 	cmp	r4, #0
   141b0:	1affffec 	bne	14168 <f_getfree+0x70>
   141b4:	e5969030 	ldr	r9, [r6, #48]	; 0x30
   141b8:	e28b3001 	add	r3, fp, #1
   141bc:	e15b0009 	cmp	fp, r9
   141c0:	e58d3000 	str	r3, [sp]
   141c4:	0286a034 	addeq	sl, r6, #52	; 0x34
   141c8:	0a00000b 	beq	141fc <f_getfree+0x104>
   141cc:	e5d63004 	ldrb	r3, [r6, #4]
   141d0:	e286a034 	add	sl, r6, #52	; 0x34
   141d4:	e3530000 	cmp	r3, #0
   141d8:	1a000015 	bne	14234 <f_getfree+0x13c>
   141dc:	e5d60001 	ldrb	r0, [r6, #1]
   141e0:	e1a0100a 	mov	r1, sl
   141e4:	e1a0200b 	mov	r2, fp
   141e8:	e3a03001 	mov	r3, #1
   141ec:	eb000dd8 	bl	17954 <disk_read>
   141f0:	e3500000 	cmp	r0, #0
   141f4:	1a000015 	bne	14250 <f_getfree+0x158>
   141f8:	e586b030 	str	fp, [r6, #48]	; 0x30
   141fc:	e3580002 	cmp	r8, #2
   14200:	e59db000 	ldr	fp, [sp]
   14204:	e3a04c02 	mov	r4, #512	; 0x200
   14208:	1affffd8 	bne	14170 <f_getfree+0x78>
   1420c:	e5da2001 	ldrb	r2, [sl, #1]
   14210:	e5da3000 	ldrb	r3, [sl]
   14214:	e2444002 	sub	r4, r4, #2
   14218:	e1933402 	orrs	r3, r3, r2, lsl #8
   1421c:	02877001 	addeq	r7, r7, #1
   14220:	e2555001 	subs	r5, r5, #1
   14224:	e28aa002 	add	sl, sl, #2
   14228:	1affffdf 	bne	141ac <f_getfree+0xb4>
   1422c:	e59db008 	ldr	fp, [sp, #8]
   14230:	ea000007 	b	14254 <f_getfree+0x15c>
   14234:	e1a0100a 	mov	r1, sl
   14238:	e5d60001 	ldrb	r0, [r6, #1]
   1423c:	e1a02009 	mov	r2, r9
   14240:	e3a03001 	mov	r3, #1
   14244:	eb000de0 	bl	179cc <disk_write>
   14248:	e3500000 	cmp	r0, #0
   1424c:	0a00000e 	beq	1428c <f_getfree+0x194>
   14250:	e3a0b001 	mov	fp, #1
   14254:	e3580003 	cmp	r8, #3
   14258:	03a03001 	moveq	r3, #1
   1425c:	e5867010 	str	r7, [r6, #16]
   14260:	05c63005 	strbeq	r3, [r6, #5]
   14264:	e59d2004 	ldr	r2, [sp, #4]
   14268:	e5827000 	str	r7, [r2]
   1426c:	e1a0000b 	mov	r0, fp
   14270:	e28dd014 	add	sp, sp, #20
   14274:	e8bd8ff0 	pop	{r4, r5, r6, r7, r8, r9, sl, fp, pc}
   14278:	e59d2004 	ldr	r2, [sp, #4]
   1427c:	e1a0000b 	mov	r0, fp
   14280:	e5823000 	str	r3, [r2]
   14284:	e28dd014 	add	sp, sp, #20
   14288:	e8bd8ff0 	pop	{r4, r5, r6, r7, r8, r9, sl, fp, pc}
   1428c:	e5962024 	ldr	r2, [r6, #36]	; 0x24
   14290:	e5c64004 	strb	r4, [r6, #4]
   14294:	e1590002 	cmp	r9, r2
   14298:	3affffcf 	bcc	141dc <f_getfree+0xe4>
   1429c:	e596301c 	ldr	r3, [r6, #28]
   142a0:	e0832002 	add	r2, r3, r2
   142a4:	e1590002 	cmp	r9, r2
   142a8:	2affffcb 	bcs	141dc <f_getfree+0xe4>
   142ac:	e5d64003 	ldrb	r4, [r6, #3]
   142b0:	e3540001 	cmp	r4, #1
   142b4:	8a000001 	bhi	142c0 <f_getfree+0x1c8>
   142b8:	eaffffc7 	b	141dc <f_getfree+0xe4>
   142bc:	e596301c 	ldr	r3, [r6, #28]
   142c0:	e0899003 	add	r9, r9, r3
   142c4:	e2444001 	sub	r4, r4, #1
   142c8:	e1a02009 	mov	r2, r9
   142cc:	e5d60001 	ldrb	r0, [r6, #1]
   142d0:	e1a0100a 	mov	r1, sl
   142d4:	e3a03001 	mov	r3, #1
   142d8:	eb000dbb 	bl	179cc <disk_write>
   142dc:	e3540001 	cmp	r4, #1
   142e0:	1afffff5 	bne	142bc <f_getfree+0x1c4>
   142e4:	eaffffbc 	b	141dc <f_getfree+0xe4>
   142e8:	e3550002 	cmp	r5, #2
   142ec:	91a0700b 	movls	r7, fp
   142f0:	8a000002 	bhi	14300 <f_getfree+0x208>
   142f4:	e3a0b002 	mov	fp, #2
   142f8:	e5867010 	str	r7, [r6, #16]
   142fc:	eaffffd8 	b	14264 <f_getfree+0x16c>
   14300:	e3a04002 	mov	r4, #2
   14304:	e1a0700b 	mov	r7, fp
   14308:	ea000008 	b	14330 <f_getfree+0x238>
   1430c:	e3500001 	cmp	r0, #1
   14310:	0afffff7 	beq	142f4 <f_getfree+0x1fc>
   14314:	e5963018 	ldr	r3, [r6, #24]
   14318:	e3500000 	cmp	r0, #0
   1431c:	02877001 	addeq	r7, r7, #1
   14320:	e1540003 	cmp	r4, r3
   14324:	2afffff3 	bcs	142f8 <f_getfree+0x200>
   14328:	e3540001 	cmp	r4, #1
   1432c:	9afffff0 	bls	142f4 <f_getfree+0x1fc>
   14330:	e1a01004 	mov	r1, r4
   14334:	e1a00006 	mov	r0, r6
   14338:	ebffea26 	bl	ebd8 <get_fat.part.5>
   1433c:	e3700001 	cmn	r0, #1
   14340:	e2844001 	add	r4, r4, #1
   14344:	1afffff0 	bne	1430c <f_getfree+0x214>
   14348:	e3a0b001 	mov	fp, #1
   1434c:	eaffffe9 	b	142f8 <f_getfree+0x200>

00014350 <f_truncate>:
   14350:	e92d43f8 	push	{r3, r4, r5, r6, r7, r8, r9, lr}
   14354:	e2504000 	subs	r4, r0, #0
   14358:	0a000005 	beq	14374 <f_truncate+0x24>
   1435c:	e5943000 	ldr	r3, [r4]
   14360:	e3530000 	cmp	r3, #0
   14364:	0a000002 	beq	14374 <f_truncate+0x24>
   14368:	e5d32000 	ldrb	r2, [r3]
   1436c:	e3520000 	cmp	r2, #0
   14370:	1a000002 	bne	14380 <f_truncate+0x30>
   14374:	e3a05009 	mov	r5, #9
   14378:	e1a00005 	mov	r0, r5
   1437c:	e8bd83f8 	pop	{r3, r4, r5, r6, r7, r8, r9, pc}
   14380:	e1d310b6 	ldrh	r1, [r3, #6]
   14384:	e1d420b4 	ldrh	r2, [r4, #4]
   14388:	e1510002 	cmp	r1, r2
   1438c:	1afffff8 	bne	14374 <f_truncate+0x24>
   14390:	e5d30001 	ldrb	r0, [r3, #1]
   14394:	eb000d8e 	bl	179d4 <disk_status>
   14398:	e3100001 	tst	r0, #1
   1439c:	13a05003 	movne	r5, #3
   143a0:	1afffff4 	bne	14378 <f_truncate+0x28>
   143a4:	e5d43006 	ldrb	r3, [r4, #6]
   143a8:	e3130080 	tst	r3, #128	; 0x80
   143ac:	1a00008a 	bne	145dc <f_truncate+0x28c>
   143b0:	e3130002 	tst	r3, #2
   143b4:	03a05007 	moveq	r5, #7
   143b8:	0affffee 	beq	14378 <f_truncate+0x28>
   143bc:	e5942008 	ldr	r2, [r4, #8]
   143c0:	e594100c 	ldr	r1, [r4, #12]
   143c4:	e1510002 	cmp	r1, r2
   143c8:	8a000001 	bhi	143d4 <f_truncate+0x84>
   143cc:	e3a05000 	mov	r5, #0
   143d0:	eaffffe8 	b	14378 <f_truncate+0x28>
   143d4:	e3833020 	orr	r3, r3, #32
   143d8:	e3520000 	cmp	r2, #0
   143dc:	e5c43006 	strb	r3, [r4, #6]
   143e0:	e584200c 	str	r2, [r4, #12]
   143e4:	1a000031 	bne	144b0 <f_truncate+0x160>
   143e8:	e5945010 	ldr	r5, [r4, #16]
   143ec:	e5946000 	ldr	r6, [r4]
   143f0:	e3550001 	cmp	r5, #1
   143f4:	9a000003 	bls	14408 <f_truncate+0xb8>
   143f8:	e5963018 	ldr	r3, [r6, #24]
   143fc:	e1550003 	cmp	r5, r3
   14400:	33a08001 	movcc	r8, #1
   14404:	3a000023 	bcc	14498 <f_truncate+0x148>
   14408:	e3a05002 	mov	r5, #2
   1440c:	e3a03000 	mov	r3, #0
   14410:	e5843010 	str	r3, [r4, #16]
   14414:	e3550000 	cmp	r5, #0
   14418:	0affffd6 	beq	14378 <f_truncate+0x28>
   1441c:	e5d43006 	ldrb	r3, [r4, #6]
   14420:	e1e03c83 	mvn	r3, r3, lsl #25
   14424:	e1e03ca3 	mvn	r3, r3, lsr #25
   14428:	e5c43006 	strb	r3, [r4, #6]
   1442c:	e1a00005 	mov	r0, r5
   14430:	e8bd83f8 	pop	{r3, r4, r5, r6, r7, r8, r9, pc}
   14434:	e3550001 	cmp	r5, #1
   14438:	9afffff2 	bls	14408 <f_truncate+0xb8>
   1443c:	ebffe9e5 	bl	ebd8 <get_fat.part.5>
   14440:	e2507000 	subs	r7, r0, #0
   14444:	0a000017 	beq	144a8 <f_truncate+0x158>
   14448:	e3570001 	cmp	r7, #1
   1444c:	0affffed 	beq	14408 <f_truncate+0xb8>
   14450:	e3770001 	cmn	r7, #1
   14454:	0a00005e 	beq	145d4 <f_truncate+0x284>
   14458:	e5963018 	ldr	r3, [r6, #24]
   1445c:	e1550003 	cmp	r5, r3
   14460:	2affffe8 	bcs	14408 <f_truncate+0xb8>
   14464:	e1a01005 	mov	r1, r5
   14468:	e1a00006 	mov	r0, r6
   1446c:	e3a02000 	mov	r2, #0
   14470:	ebffe667 	bl	de14 <put_fat.part.6>
   14474:	e2505000 	subs	r5, r0, #0
   14478:	1affffe3 	bne	1440c <f_truncate+0xbc>
   1447c:	e5963010 	ldr	r3, [r6, #16]
   14480:	e1a05007 	mov	r5, r7
   14484:	e3730001 	cmn	r3, #1
   14488:	12833001 	addne	r3, r3, #1
   1448c:	15863010 	strne	r3, [r6, #16]
   14490:	e5963018 	ldr	r3, [r6, #24]
   14494:	15c68005 	strbne	r8, [r6, #5]
   14498:	e1550003 	cmp	r5, r3
   1449c:	e1a01005 	mov	r1, r5
   144a0:	e1a00006 	mov	r0, r6
   144a4:	3affffe2 	bcc	14434 <f_truncate+0xe4>
   144a8:	e3a05000 	mov	r5, #0
   144ac:	eaffffd6 	b	1440c <f_truncate+0xbc>
   144b0:	e5941014 	ldr	r1, [r4, #20]
   144b4:	e5940000 	ldr	r0, [r4]
   144b8:	e3510001 	cmp	r1, #1
   144bc:	9a000002 	bls	144cc <f_truncate+0x17c>
   144c0:	e5902018 	ldr	r2, [r0, #24]
   144c4:	e1510002 	cmp	r1, r2
   144c8:	3a000001 	bcc	144d4 <f_truncate+0x184>
   144cc:	e3a05002 	mov	r5, #2
   144d0:	eaffffd2 	b	14420 <f_truncate+0xd0>
   144d4:	ebffe9bf 	bl	ebd8 <get_fat.part.5>
   144d8:	e3700001 	cmn	r0, #1
   144dc:	e1a06000 	mov	r6, r0
   144e0:	05d43006 	ldrbeq	r3, [r4, #6]
   144e4:	03a05001 	moveq	r5, #1
   144e8:	0affffcc 	beq	14420 <f_truncate+0xd0>
   144ec:	e3500001 	cmp	r0, #1
   144f0:	05d43006 	ldrbeq	r3, [r4, #6]
   144f4:	0afffff4 	beq	144cc <f_truncate+0x17c>
   144f8:	e5940000 	ldr	r0, [r4]
   144fc:	e5903018 	ldr	r3, [r0, #24]
   14500:	e1530006 	cmp	r3, r6
   14504:	9affffb0 	bls	143cc <f_truncate+0x7c>
   14508:	e5941014 	ldr	r1, [r4, #20]
   1450c:	e3510001 	cmp	r1, #1
   14510:	9a000001 	bls	1451c <f_truncate+0x1cc>
   14514:	e1530001 	cmp	r3, r1
   14518:	8a000002 	bhi	14528 <f_truncate+0x1d8>
   1451c:	e5d43006 	ldrb	r3, [r4, #6]
   14520:	e3a05002 	mov	r5, #2
   14524:	eaffffbd 	b	14420 <f_truncate+0xd0>
   14528:	e3e0220f 	mvn	r2, #-268435456	; 0xf0000000
   1452c:	ebffe638 	bl	de14 <put_fat.part.6>
   14530:	e2505000 	subs	r5, r0, #0
   14534:	1affffb8 	bne	1441c <f_truncate+0xcc>
   14538:	e3560001 	cmp	r6, #1
   1453c:	e5947000 	ldr	r7, [r4]
   14540:	9afffff5 	bls	1451c <f_truncate+0x1cc>
   14544:	e5973018 	ldr	r3, [r7, #24]
   14548:	e1560003 	cmp	r6, r3
   1454c:	33a09001 	movcc	r9, #1
   14550:	2afffff1 	bcs	1451c <f_truncate+0x1cc>
   14554:	e1560003 	cmp	r6, r3
   14558:	e1a01006 	mov	r1, r6
   1455c:	e1a00007 	mov	r0, r7
   14560:	2affff84 	bcs	14378 <f_truncate+0x28>
   14564:	e3560001 	cmp	r6, #1
   14568:	9a000009 	bls	14594 <f_truncate+0x244>
   1456c:	ebffe999 	bl	ebd8 <get_fat.part.5>
   14570:	e2508000 	subs	r8, r0, #0
   14574:	0affff7f 	beq	14378 <f_truncate+0x28>
   14578:	e3580001 	cmp	r8, #1
   1457c:	0a000004 	beq	14594 <f_truncate+0x244>
   14580:	e3780001 	cmn	r8, #1
   14584:	0a000016 	beq	145e4 <f_truncate+0x294>
   14588:	e5973018 	ldr	r3, [r7, #24]
   1458c:	e1560003 	cmp	r6, r3
   14590:	3a000001 	bcc	1459c <f_truncate+0x24c>
   14594:	e3a05002 	mov	r5, #2
   14598:	eaffff9f 	b	1441c <f_truncate+0xcc>
   1459c:	e1a01006 	mov	r1, r6
   145a0:	e1a00007 	mov	r0, r7
   145a4:	e3a02000 	mov	r2, #0
   145a8:	ebffe619 	bl	de14 <put_fat.part.6>
   145ac:	e3500000 	cmp	r0, #0
   145b0:	1a00000d 	bne	145ec <f_truncate+0x29c>
   145b4:	e5973010 	ldr	r3, [r7, #16]
   145b8:	e1a06008 	mov	r6, r8
   145bc:	e3730001 	cmn	r3, #1
   145c0:	12833001 	addne	r3, r3, #1
   145c4:	15873010 	strne	r3, [r7, #16]
   145c8:	15c79005 	strbne	r9, [r7, #5]
   145cc:	e5973018 	ldr	r3, [r7, #24]
   145d0:	eaffffdf 	b	14554 <f_truncate+0x204>
   145d4:	e3a05001 	mov	r5, #1
   145d8:	eaffff8b 	b	1440c <f_truncate+0xbc>
   145dc:	e3a05002 	mov	r5, #2
   145e0:	eaffff64 	b	14378 <f_truncate+0x28>
   145e4:	e3a05001 	mov	r5, #1
   145e8:	eaffff8b 	b	1441c <f_truncate+0xcc>
   145ec:	e1a05000 	mov	r5, r0
   145f0:	eaffff87 	b	14414 <f_truncate+0xc4>

000145f4 <f_unlink>:
   145f4:	e92d4ff0 	push	{r4, r5, r6, r7, r8, r9, sl, fp, lr}
   145f8:	e5d03000 	ldrb	r3, [r0]
   145fc:	e24dd06c 	sub	sp, sp, #108	; 0x6c
   14600:	e2433030 	sub	r3, r3, #48	; 0x30
   14604:	e3530009 	cmp	r3, #9
   14608:	e1a04000 	mov	r4, r0
   1460c:	9a000011 	bls	14658 <f_unlink+0x64>
   14610:	e59f6660 	ldr	r6, [pc, #1632]	; 14c78 <f_unlink+0x684>
   14614:	e5965000 	ldr	r5, [r6]
   14618:	e3550000 	cmp	r5, #0
   1461c:	03a0000c 	moveq	r0, #12
   14620:	0a00000a 	beq	14650 <f_unlink+0x5c>
   14624:	e58d5020 	str	r5, [sp, #32]
   14628:	e5d53000 	ldrb	r3, [r5]
   1462c:	e3530000 	cmp	r3, #0
   14630:	0a000010 	beq	14678 <f_unlink+0x84>
   14634:	e5d50001 	ldrb	r0, [r5, #1]
   14638:	eb000ce5 	bl	179d4 <disk_status>
   1463c:	e3100001 	tst	r0, #1
   14640:	1a00000c 	bne	14678 <f_unlink+0x84>
   14644:	e3100004 	tst	r0, #4
   14648:	0a000092 	beq	14898 <f_unlink+0x2a4>
   1464c:	e3a0000a 	mov	r0, #10
   14650:	e28dd06c 	add	sp, sp, #108	; 0x6c
   14654:	e8bd8ff0 	pop	{r4, r5, r6, r7, r8, r9, sl, fp, pc}
   14658:	e5d02001 	ldrb	r2, [r0, #1]
   1465c:	e352003a 	cmp	r2, #58	; 0x3a
   14660:	1affffea 	bne	14610 <f_unlink+0x1c>
   14664:	e3530000 	cmp	r3, #0
   14668:	13a0000b 	movne	r0, #11
   1466c:	1afffff7 	bne	14650 <f_unlink+0x5c>
   14670:	e2844002 	add	r4, r4, #2
   14674:	eaffffe5 	b	14610 <f_unlink+0x1c>
   14678:	e3a00000 	mov	r0, #0
   1467c:	e5c50000 	strb	r0, [r5]
   14680:	e5c50001 	strb	r0, [r5, #1]
   14684:	eb000ca1 	bl	17910 <disk_initialize>
   14688:	e3100001 	tst	r0, #1
   1468c:	13a00003 	movne	r0, #3
   14690:	1affffee 	bne	14650 <f_unlink+0x5c>
   14694:	e2000004 	and	r0, r0, #4
   14698:	e21020ff 	ands	r2, r0, #255	; 0xff
   1469c:	1affffea 	bne	1464c <f_unlink+0x58>
   146a0:	e2857034 	add	r7, r5, #52	; 0x34
   146a4:	e3a03001 	mov	r3, #1
   146a8:	e1a01007 	mov	r1, r7
   146ac:	e5d50001 	ldrb	r0, [r5, #1]
   146b0:	eb000ca7 	bl	17954 <disk_read>
   146b4:	e2503000 	subs	r3, r0, #0
   146b8:	13a03003 	movne	r3, #3
   146bc:	0a0000c9 	beq	149e8 <f_unlink+0x3f4>
   146c0:	e3a08000 	mov	r8, #0
   146c4:	e3530003 	cmp	r3, #3
   146c8:	0a0000f7 	beq	14aac <f_unlink+0x4b8>
   146cc:	e3530000 	cmp	r3, #0
   146d0:	0a000002 	beq	146e0 <f_unlink+0xec>
   146d4:	e3a0000d 	mov	r0, #13
   146d8:	eaffffdc 	b	14650 <f_unlink+0x5c>
   146dc:	e1a08003 	mov	r8, r3
   146e0:	e5d52040 	ldrb	r2, [r5, #64]	; 0x40
   146e4:	e5d5303f 	ldrb	r3, [r5, #63]	; 0x3f
   146e8:	e1833402 	orr	r3, r3, r2, lsl #8
   146ec:	e3530c02 	cmp	r3, #512	; 0x200
   146f0:	1afffff7 	bne	146d4 <f_unlink+0xe0>
   146f4:	e5d5b04b 	ldrb	fp, [r5, #75]	; 0x4b
   146f8:	e5d5304a 	ldrb	r3, [r5, #74]	; 0x4a
   146fc:	e193b40b 	orrs	fp, r3, fp, lsl #8
   14700:	1a000007 	bne	14724 <f_unlink+0x130>
   14704:	e5d5205a 	ldrb	r2, [r5, #90]	; 0x5a
   14708:	e5d5105b 	ldrb	r1, [r5, #91]	; 0x5b
   1470c:	e1a02802 	lsl	r2, r2, #16
   14710:	e5d53058 	ldrb	r3, [r5, #88]	; 0x58
   14714:	e1822c01 	orr	r2, r2, r1, lsl #24
   14718:	e5d5b059 	ldrb	fp, [r5, #89]	; 0x59
   1471c:	e1823003 	orr	r3, r2, r3
   14720:	e183b40b 	orr	fp, r3, fp, lsl #8
   14724:	e5d5c044 	ldrb	ip, [r5, #68]	; 0x44
   14728:	e585b01c 	str	fp, [r5, #28]
   1472c:	e24c3001 	sub	r3, ip, #1
   14730:	e3530001 	cmp	r3, #1
   14734:	e5c5c003 	strb	ip, [r5, #3]
   14738:	8affffe5 	bhi	146d4 <f_unlink+0xe0>
   1473c:	e5d51041 	ldrb	r1, [r5, #65]	; 0x41
   14740:	e3510000 	cmp	r1, #0
   14744:	e5c51002 	strb	r1, [r5, #2]
   14748:	0affffe1 	beq	146d4 <f_unlink+0xe0>
   1474c:	e2413001 	sub	r3, r1, #1
   14750:	e1130001 	tst	r3, r1
   14754:	1affffde 	bne	146d4 <f_unlink+0xe0>
   14758:	e5d5a046 	ldrb	sl, [r5, #70]	; 0x46
   1475c:	e5d53045 	ldrb	r3, [r5, #69]	; 0x45
   14760:	e183a40a 	orr	sl, r3, sl, lsl #8
   14764:	e31a000f 	tst	sl, #15
   14768:	e1c5a0b8 	strh	sl, [r5, #8]
   1476c:	1affffd8 	bne	146d4 <f_unlink+0xe0>
   14770:	e5d50048 	ldrb	r0, [r5, #72]	; 0x48
   14774:	e5d53047 	ldrb	r3, [r5, #71]	; 0x47
   14778:	e1930400 	orrs	r0, r3, r0, lsl #8
   1477c:	1a000007 	bne	147a0 <f_unlink+0x1ac>
   14780:	e5d52056 	ldrb	r2, [r5, #86]	; 0x56
   14784:	e5d50057 	ldrb	r0, [r5, #87]	; 0x57
   14788:	e1a02802 	lsl	r2, r2, #16
   1478c:	e5d53054 	ldrb	r3, [r5, #84]	; 0x54
   14790:	e1822c00 	orr	r2, r2, r0, lsl #24
   14794:	e5d50055 	ldrb	r0, [r5, #85]	; 0x55
   14798:	e1823003 	orr	r3, r2, r3
   1479c:	e1830400 	orr	r0, r3, r0, lsl #8
   147a0:	e5d52043 	ldrb	r2, [r5, #67]	; 0x43
   147a4:	e5d53042 	ldrb	r3, [r5, #66]	; 0x42
   147a8:	e1932402 	orrs	r2, r3, r2, lsl #8
   147ac:	0affffc8 	beq	146d4 <f_unlink+0xe0>
   147b0:	e00c0b9c 	mul	ip, ip, fp
   147b4:	e082322a 	add	r3, r2, sl, lsr #4
   147b8:	e083300c 	add	r3, r3, ip
   147bc:	e1530000 	cmp	r3, r0
   147c0:	8affffc3 	bhi	146d4 <f_unlink+0xe0>
   147c4:	e0630000 	rsb	r0, r3, r0
   147c8:	e58d2008 	str	r2, [sp, #8]
   147cc:	e58d3004 	str	r3, [sp, #4]
   147d0:	e58dc00c 	str	ip, [sp, #12]
   147d4:	eb001f2b 	bl	1c488 <__aeabi_uidiv>
   147d8:	e2501000 	subs	r1, r0, #0
   147dc:	e59d2008 	ldr	r2, [sp, #8]
   147e0:	e59d3004 	ldr	r3, [sp, #4]
   147e4:	e59dc00c 	ldr	ip, [sp, #12]
   147e8:	0affffb9 	beq	146d4 <f_unlink+0xe0>
   147ec:	e59f0488 	ldr	r0, [pc, #1160]	; 14c7c <f_unlink+0x688>
   147f0:	e1510000 	cmp	r1, r0
   147f4:	9a00011d 	bls	14c70 <f_unlink+0x67c>
   147f8:	e2800a0f 	add	r0, r0, #61440	; 0xf000
   147fc:	e1510000 	cmp	r1, r0
   14800:	93a09002 	movls	r9, #2
   14804:	8a000104 	bhi	14c1c <f_unlink+0x628>
   14808:	e2811002 	add	r1, r1, #2
   1480c:	e0882002 	add	r2, r8, r2
   14810:	e0833008 	add	r3, r3, r8
   14814:	e35a0000 	cmp	sl, #0
   14818:	e5851018 	str	r1, [r5, #24]
   1481c:	e5852024 	str	r2, [r5, #36]	; 0x24
   14820:	e585302c 	str	r3, [r5, #44]	; 0x2c
   14824:	e5858020 	str	r8, [r5, #32]
   14828:	0affffa9 	beq	146d4 <f_unlink+0xe0>
   1482c:	e3590002 	cmp	r9, #2
   14830:	10813081 	addne	r3, r1, r1, lsl #1
   14834:	e08c2002 	add	r2, ip, r2
   14838:	12011001 	andne	r1, r1, #1
   1483c:	e5852028 	str	r2, [r5, #40]	; 0x28
   14840:	01a01081 	lsleq	r1, r1, #1
   14844:	108110a3 	addne	r1, r1, r3, lsr #1
   14848:	13a09001 	movne	r9, #1
   1484c:	e2813f7f 	add	r3, r1, #508	; 0x1fc
   14850:	e2833003 	add	r3, r3, #3
   14854:	e15b04a3 	cmp	fp, r3, lsr #9
   14858:	3affff9d 	bcc	146d4 <f_unlink+0xe0>
   1485c:	e3e02000 	mvn	r2, #0
   14860:	e3a03000 	mov	r3, #0
   14864:	e3590003 	cmp	r9, #3
   14868:	e5852010 	str	r2, [r5, #16]
   1486c:	e585300c 	str	r3, [r5, #12]
   14870:	0a0000ad 	beq	14b2c <f_unlink+0x538>
   14874:	e1d620b4 	ldrh	r2, [r6, #4]
   14878:	e3a03000 	mov	r3, #0
   1487c:	e2822001 	add	r2, r2, #1
   14880:	e6ff2072 	uxth	r2, r2
   14884:	e5c59000 	strb	r9, [r5]
   14888:	e1c620b4 	strh	r2, [r6, #4]
   1488c:	e1c520b6 	strh	r2, [r5, #6]
   14890:	e5853030 	str	r3, [r5, #48]	; 0x30
   14894:	e5c53004 	strb	r3, [r5, #4]
   14898:	e59f23e0 	ldr	r2, [pc, #992]	; 14c80 <f_unlink+0x68c>
   1489c:	e28d3014 	add	r3, sp, #20
   148a0:	e1a01004 	mov	r1, r4
   148a4:	e28d0020 	add	r0, sp, #32
   148a8:	e58d203c 	str	r2, [sp, #60]	; 0x3c
   148ac:	e58d3038 	str	r3, [sp, #56]	; 0x38
   148b0:	ebffee42 	bl	101c0 <follow_path>
   148b4:	e3500000 	cmp	r0, #0
   148b8:	1affff64 	bne	14650 <f_unlink+0x5c>
   148bc:	e59d3034 	ldr	r3, [sp, #52]	; 0x34
   148c0:	e3530000 	cmp	r3, #0
   148c4:	03a00006 	moveq	r0, #6
   148c8:	0a000002 	beq	148d8 <f_unlink+0x2e4>
   148cc:	e5d3000b 	ldrb	r0, [r3, #11]
   148d0:	e2100001 	ands	r0, r0, #1
   148d4:	13a00007 	movne	r0, #7
   148d8:	e59d2020 	ldr	r2, [sp, #32]
   148dc:	e5d3401b 	ldrb	r4, [r3, #27]
   148e0:	e5d21000 	ldrb	r1, [r2]
   148e4:	e5d3201a 	ldrb	r2, [r3, #26]
   148e8:	e3510003 	cmp	r1, #3
   148ec:	e1824404 	orr	r4, r2, r4, lsl #8
   148f0:	05d31015 	ldrbeq	r1, [r3, #21]
   148f4:	05d32014 	ldrbeq	r2, [r3, #20]
   148f8:	01822401 	orreq	r2, r2, r1, lsl #8
   148fc:	01844802 	orreq	r4, r4, r2, lsl #16
   14900:	e3500000 	cmp	r0, #0
   14904:	1affff51 	bne	14650 <f_unlink+0x5c>
   14908:	e5d3300b 	ldrb	r3, [r3, #11]
   1490c:	e3130010 	tst	r3, #16
   14910:	0a00001e 	beq	14990 <f_unlink+0x39c>
   14914:	e3540001 	cmp	r4, #1
   14918:	9a000025 	bls	149b4 <f_unlink+0x3c0>
   1491c:	e59d8020 	ldr	r8, [sp, #32]
   14920:	e59d7024 	ldr	r7, [sp, #36]	; 0x24
   14924:	e59d602c 	ldr	r6, [sp, #44]	; 0x2c
   14928:	e59d5030 	ldr	r5, [sp, #48]	; 0x30
   1492c:	e59de034 	ldr	lr, [sp, #52]	; 0x34
   14930:	e59dc038 	ldr	ip, [sp, #56]	; 0x38
   14934:	e59d203c 	ldr	r2, [sp, #60]	; 0x3c
   14938:	e59d3040 	ldr	r3, [sp, #64]	; 0x40
   1493c:	e28d0044 	add	r0, sp, #68	; 0x44
   14940:	e3a01002 	mov	r1, #2
   14944:	e58d404c 	str	r4, [sp, #76]	; 0x4c
   14948:	e58d8044 	str	r8, [sp, #68]	; 0x44
   1494c:	e58d7048 	str	r7, [sp, #72]	; 0x48
   14950:	e58d6050 	str	r6, [sp, #80]	; 0x50
   14954:	e58d5054 	str	r5, [sp, #84]	; 0x54
   14958:	e58de058 	str	lr, [sp, #88]	; 0x58
   1495c:	e58dc05c 	str	ip, [sp, #92]	; 0x5c
   14960:	e58d2060 	str	r2, [sp, #96]	; 0x60
   14964:	e58d3064 	str	r3, [sp, #100]	; 0x64
   14968:	ebffe989 	bl	ef94 <dir_sdi>
   1496c:	e3500000 	cmp	r0, #0
   14970:	1affff36 	bne	14650 <f_unlink+0x5c>
   14974:	e28d0044 	add	r0, sp, #68	; 0x44
   14978:	ebffebdd 	bl	f8f4 <dir_read.constprop.10>
   1497c:	e3500000 	cmp	r0, #0
   14980:	03a00007 	moveq	r0, #7
   14984:	0affff31 	beq	14650 <f_unlink+0x5c>
   14988:	e3500004 	cmp	r0, #4
   1498c:	1affff2f 	bne	14650 <f_unlink+0x5c>
   14990:	e28d0020 	add	r0, sp, #32
   14994:	ebffeb57 	bl	f6f8 <dir_remove>
   14998:	e3500000 	cmp	r0, #0
   1499c:	1affff2b 	bne	14650 <f_unlink+0x5c>
   149a0:	e3540000 	cmp	r4, #0
   149a4:	1a000004 	bne	149bc <f_unlink+0x3c8>
   149a8:	e59d0020 	ldr	r0, [sp, #32]
   149ac:	ebffe48d 	bl	dbe8 <sync_fs>
   149b0:	eaffff26 	b	14650 <f_unlink+0x5c>
   149b4:	e3a00002 	mov	r0, #2
   149b8:	eaffff24 	b	14650 <f_unlink+0x5c>
   149bc:	e3540001 	cmp	r4, #1
   149c0:	e59d0020 	ldr	r0, [sp, #32]
   149c4:	9afffffa 	bls	149b4 <f_unlink+0x3c0>
   149c8:	e5903018 	ldr	r3, [r0, #24]
   149cc:	e1540003 	cmp	r4, r3
   149d0:	2afffff7 	bcs	149b4 <f_unlink+0x3c0>
   149d4:	e1a01004 	mov	r1, r4
   149d8:	ebffe60e 	bl	e218 <remove_chain.part.8>
   149dc:	e3500000 	cmp	r0, #0
   149e0:	1affff1a 	bne	14650 <f_unlink+0x5c>
   149e4:	eaffffef 	b	149a8 <f_unlink+0x3b4>
   149e8:	e5d59233 	ldrb	r9, [r5, #563]	; 0x233
   149ec:	e5d51232 	ldrb	r1, [r5, #562]	; 0x232
   149f0:	e59f228c 	ldr	r2, [pc, #652]	; 14c84 <f_unlink+0x690>
   149f4:	e1819409 	orr	r9, r1, r9, lsl #8
   149f8:	e6bf9079 	sxth	r9, r9
   149fc:	e1590002 	cmp	r9, r2
   14a00:	13a03002 	movne	r3, #2
   14a04:	1affff2d 	bne	146c0 <f_unlink+0xcc>
   14a08:	e5d5106c 	ldrb	r1, [r5, #108]	; 0x6c
   14a0c:	e5d5006d 	ldrb	r0, [r5, #109]	; 0x6d
   14a10:	e1a01801 	lsl	r1, r1, #16
   14a14:	e5d5206a 	ldrb	r2, [r5, #106]	; 0x6a
   14a18:	e1810c00 	orr	r0, r1, r0, lsl #24
   14a1c:	e5d5106b 	ldrb	r1, [r5, #107]	; 0x6b
   14a20:	e1802002 	orr	r2, r0, r2
   14a24:	e1822401 	orr	r2, r2, r1, lsl #8
   14a28:	e59fa258 	ldr	sl, [pc, #600]	; 14c88 <f_unlink+0x694>
   14a2c:	e3c224ff 	bic	r2, r2, #-16777216	; 0xff000000
   14a30:	e152000a 	cmp	r2, sl
   14a34:	0affff21 	beq	146c0 <f_unlink+0xcc>
   14a38:	e5d51088 	ldrb	r1, [r5, #136]	; 0x88
   14a3c:	e5d50089 	ldrb	r0, [r5, #137]	; 0x89
   14a40:	e1a01801 	lsl	r1, r1, #16
   14a44:	e5d52086 	ldrb	r2, [r5, #134]	; 0x86
   14a48:	e1810c00 	orr	r0, r1, r0, lsl #24
   14a4c:	e5d51087 	ldrb	r1, [r5, #135]	; 0x87
   14a50:	e1802002 	orr	r2, r0, r2
   14a54:	e1822401 	orr	r2, r2, r1, lsl #8
   14a58:	e3c224ff 	bic	r2, r2, #-16777216	; 0xff000000
   14a5c:	e152000a 	cmp	r2, sl
   14a60:	0affff1d 	beq	146dc <f_unlink+0xe8>
   14a64:	e5d531f6 	ldrb	r3, [r5, #502]	; 0x1f6
   14a68:	e3530000 	cmp	r3, #0
   14a6c:	0affff18 	beq	146d4 <f_unlink+0xe0>
   14a70:	e5d521fc 	ldrb	r2, [r5, #508]	; 0x1fc
   14a74:	e5d511fd 	ldrb	r1, [r5, #509]	; 0x1fd
   14a78:	e5d531fa 	ldrb	r3, [r5, #506]	; 0x1fa
   14a7c:	e1a02802 	lsl	r2, r2, #16
   14a80:	e1822c01 	orr	r2, r2, r1, lsl #24
   14a84:	e5d581fb 	ldrb	r8, [r5, #507]	; 0x1fb
   14a88:	e1823003 	orr	r3, r2, r3
   14a8c:	e1838408 	orr	r8, r3, r8, lsl #8
   14a90:	e1a02008 	mov	r2, r8
   14a94:	e5d50001 	ldrb	r0, [r5, #1]
   14a98:	e1a01007 	mov	r1, r7
   14a9c:	e3a03001 	mov	r3, #1
   14aa0:	eb000bab 	bl	17954 <disk_read>
   14aa4:	e3500000 	cmp	r0, #0
   14aa8:	0a000001 	beq	14ab4 <f_unlink+0x4c0>
   14aac:	e3a00001 	mov	r0, #1
   14ab0:	eafffee6 	b	14650 <f_unlink+0x5c>
   14ab4:	e5d52233 	ldrb	r2, [r5, #563]	; 0x233
   14ab8:	e5d53232 	ldrb	r3, [r5, #562]	; 0x232
   14abc:	e1833402 	orr	r3, r3, r2, lsl #8
   14ac0:	e6bf3073 	sxth	r3, r3
   14ac4:	e1530009 	cmp	r3, r9
   14ac8:	1affff01 	bne	146d4 <f_unlink+0xe0>
   14acc:	e5d5206c 	ldrb	r2, [r5, #108]	; 0x6c
   14ad0:	e5d5106d 	ldrb	r1, [r5, #109]	; 0x6d
   14ad4:	e1a02802 	lsl	r2, r2, #16
   14ad8:	e5d5306a 	ldrb	r3, [r5, #106]	; 0x6a
   14adc:	e1821c01 	orr	r1, r2, r1, lsl #24
   14ae0:	e5d5206b 	ldrb	r2, [r5, #107]	; 0x6b
   14ae4:	e1813003 	orr	r3, r1, r3
   14ae8:	e1833402 	orr	r3, r3, r2, lsl #8
   14aec:	e3c334ff 	bic	r3, r3, #-16777216	; 0xff000000
   14af0:	e153000a 	cmp	r3, sl
   14af4:	0afffef9 	beq	146e0 <f_unlink+0xec>
   14af8:	e5d52088 	ldrb	r2, [r5, #136]	; 0x88
   14afc:	e5d51089 	ldrb	r1, [r5, #137]	; 0x89
   14b00:	e1a02802 	lsl	r2, r2, #16
   14b04:	e5d53086 	ldrb	r3, [r5, #134]	; 0x86
   14b08:	e1821c01 	orr	r1, r2, r1, lsl #24
   14b0c:	e5d52087 	ldrb	r2, [r5, #135]	; 0x87
   14b10:	e1813003 	orr	r3, r1, r3
   14b14:	e1832402 	orr	r2, r3, r2, lsl #8
   14b18:	e59f3168 	ldr	r3, [pc, #360]	; 14c88 <f_unlink+0x694>
   14b1c:	e3c224ff 	bic	r2, r2, #-16777216	; 0xff000000
   14b20:	e0523003 	subs	r3, r2, r3
   14b24:	13a03001 	movne	r3, #1
   14b28:	eafffee5 	b	146c4 <f_unlink+0xd0>
   14b2c:	e5d51065 	ldrb	r1, [r5, #101]	; 0x65
   14b30:	e5d52064 	ldrb	r2, [r5, #100]	; 0x64
   14b34:	e5c53005 	strb	r3, [r5, #5]
   14b38:	e1822401 	orr	r2, r2, r1, lsl #8
   14b3c:	e0882002 	add	r2, r8, r2
   14b40:	e1a01007 	mov	r1, r7
   14b44:	e5852014 	str	r2, [r5, #20]
   14b48:	e5d50001 	ldrb	r0, [r5, #1]
   14b4c:	e3a03001 	mov	r3, #1
   14b50:	eb000b7f 	bl	17954 <disk_read>
   14b54:	e3500000 	cmp	r0, #0
   14b58:	1affff45 	bne	14874 <f_unlink+0x280>
   14b5c:	e5d51233 	ldrb	r1, [r5, #563]	; 0x233
   14b60:	e5d52232 	ldrb	r2, [r5, #562]	; 0x232
   14b64:	e59f3118 	ldr	r3, [pc, #280]	; 14c84 <f_unlink+0x690>
   14b68:	e1822401 	orr	r2, r2, r1, lsl #8
   14b6c:	e6bf2072 	sxth	r2, r2
   14b70:	e1520003 	cmp	r2, r3
   14b74:	1affff3e 	bne	14874 <f_unlink+0x280>
   14b78:	e5d52036 	ldrb	r2, [r5, #54]	; 0x36
   14b7c:	e5d51037 	ldrb	r1, [r5, #55]	; 0x37
   14b80:	e5d53034 	ldrb	r3, [r5, #52]	; 0x34
   14b84:	e1a02802 	lsl	r2, r2, #16
   14b88:	e1822c01 	orr	r2, r2, r1, lsl #24
   14b8c:	e5d51035 	ldrb	r1, [r5, #53]	; 0x35
   14b90:	e1822003 	orr	r2, r2, r3
   14b94:	e59f30f0 	ldr	r3, [pc, #240]	; 14c8c <f_unlink+0x698>
   14b98:	e1822401 	orr	r2, r2, r1, lsl #8
   14b9c:	e1520003 	cmp	r2, r3
   14ba0:	1affff33 	bne	14874 <f_unlink+0x280>
   14ba4:	e5d5221a 	ldrb	r2, [r5, #538]	; 0x21a
   14ba8:	e5d5121b 	ldrb	r1, [r5, #539]	; 0x21b
   14bac:	e5d53218 	ldrb	r3, [r5, #536]	; 0x218
   14bb0:	e1a02802 	lsl	r2, r2, #16
   14bb4:	e1822c01 	orr	r2, r2, r1, lsl #24
   14bb8:	e5d51219 	ldrb	r1, [r5, #537]	; 0x219
   14bbc:	e1822003 	orr	r2, r2, r3
   14bc0:	e59f30c8 	ldr	r3, [pc, #200]	; 14c90 <f_unlink+0x69c>
   14bc4:	e1822401 	orr	r2, r2, r1, lsl #8
   14bc8:	e1520003 	cmp	r2, r3
   14bcc:	1affff28 	bne	14874 <f_unlink+0x280>
   14bd0:	e5d50222 	ldrb	r0, [r5, #546]	; 0x222
   14bd4:	e5d5121e 	ldrb	r1, [r5, #542]	; 0x21e
   14bd8:	e5d5e223 	ldrb	lr, [r5, #547]	; 0x223
   14bdc:	e5d5c21f 	ldrb	ip, [r5, #543]	; 0x21f
   14be0:	e1a00800 	lsl	r0, r0, #16
   14be4:	e1a01801 	lsl	r1, r1, #16
   14be8:	e5d52220 	ldrb	r2, [r5, #544]	; 0x220
   14bec:	e5d5321c 	ldrb	r3, [r5, #540]	; 0x21c
   14bf0:	e180ec0e 	orr	lr, r0, lr, lsl #24
   14bf4:	e181cc0c 	orr	ip, r1, ip, lsl #24
   14bf8:	e5d50221 	ldrb	r0, [r5, #545]	; 0x221
   14bfc:	e5d5121d 	ldrb	r1, [r5, #541]	; 0x21d
   14c00:	e18e2002 	orr	r2, lr, r2
   14c04:	e18c3003 	orr	r3, ip, r3
   14c08:	e1822400 	orr	r2, r2, r0, lsl #8
   14c0c:	e1833401 	orr	r3, r3, r1, lsl #8
   14c10:	e585200c 	str	r2, [r5, #12]
   14c14:	e5853010 	str	r3, [r5, #16]
   14c18:	eaffff15 	b	14874 <f_unlink+0x280>
   14c1c:	e2811002 	add	r1, r1, #2
   14c20:	e0882002 	add	r2, r8, r2
   14c24:	e0833008 	add	r3, r3, r8
   14c28:	e35a0000 	cmp	sl, #0
   14c2c:	e5851018 	str	r1, [r5, #24]
   14c30:	e5852024 	str	r2, [r5, #36]	; 0x24
   14c34:	e585302c 	str	r3, [r5, #44]	; 0x2c
   14c38:	e5858020 	str	r8, [r5, #32]
   14c3c:	1afffea4 	bne	146d4 <f_unlink+0xe0>
   14c40:	e5d52062 	ldrb	r2, [r5, #98]	; 0x62
   14c44:	e5d50063 	ldrb	r0, [r5, #99]	; 0x63
   14c48:	e1a02802 	lsl	r2, r2, #16
   14c4c:	e5d53060 	ldrb	r3, [r5, #96]	; 0x60
   14c50:	e1820c00 	orr	r0, r2, r0, lsl #24
   14c54:	e5d52061 	ldrb	r2, [r5, #97]	; 0x61
   14c58:	e1803003 	orr	r3, r0, r3
   14c5c:	e1833402 	orr	r3, r3, r2, lsl #8
   14c60:	e1a01101 	lsl	r1, r1, #2
   14c64:	e5853028 	str	r3, [r5, #40]	; 0x28
   14c68:	e3a09003 	mov	r9, #3
   14c6c:	eafffef6 	b	1484c <f_unlink+0x258>
   14c70:	e3a09001 	mov	r9, #1
   14c74:	eafffee3 	b	14808 <f_unlink+0x214>
   14c78:	000217dc 	ldrdeq	r1, [r2], -ip
   14c7c:	00000ff5 	strdeq	r0, [r0], -r5
   14c80:	000217e4 	andeq	r1, r2, r4, ror #15
   14c84:	ffffaa55 			; <UNDEFINED> instruction: 0xffffaa55
   14c88:	00544146 	subseq	r4, r4, r6, asr #2
   14c8c:	41615252 	cmnmi	r1, r2, asr r2
   14c90:	61417272 	hvcvs	5922	; 0x1722

00014c94 <f_mkdir>:
   14c94:	e92d4ff0 	push	{r4, r5, r6, r7, r8, r9, sl, fp, lr}
   14c98:	e24dd064 	sub	sp, sp, #100	; 0x64
   14c9c:	e28d4060 	add	r4, sp, #96	; 0x60
   14ca0:	e5240034 	str	r0, [r4, #-52]!	; 0x34
   14ca4:	eb000b69 	bl	17a50 <get_fattime>
   14ca8:	e28d103c 	add	r1, sp, #60	; 0x3c
   14cac:	e1a05000 	mov	r5, r0
   14cb0:	e3a02001 	mov	r2, #1
   14cb4:	e1a00004 	mov	r0, r4
   14cb8:	ebffe667 	bl	e65c <chk_mounted>
   14cbc:	e3500000 	cmp	r0, #0
   14cc0:	e1a04000 	mov	r4, r0
   14cc4:	e1a06000 	mov	r6, r0
   14cc8:	0a000002 	beq	14cd8 <f_mkdir+0x44>
   14ccc:	e1a00004 	mov	r0, r4
   14cd0:	e28dd064 	add	sp, sp, #100	; 0x64
   14cd4:	e8bd8ff0 	pop	{r4, r5, r6, r7, r8, r9, sl, fp, pc}
   14cd8:	e59f284c 	ldr	r2, [pc, #2124]	; 1552c <f_mkdir+0x898>
   14cdc:	e28d3030 	add	r3, sp, #48	; 0x30
   14ce0:	e28d003c 	add	r0, sp, #60	; 0x3c
   14ce4:	e59d102c 	ldr	r1, [sp, #44]	; 0x2c
   14ce8:	e58d2058 	str	r2, [sp, #88]	; 0x58
   14cec:	e58d3054 	str	r3, [sp, #84]	; 0x54
   14cf0:	ebffed32 	bl	101c0 <follow_path>
   14cf4:	e2504000 	subs	r4, r0, #0
   14cf8:	03a04008 	moveq	r4, #8
   14cfc:	0afffff2 	beq	14ccc <f_mkdir+0x38>
   14d00:	e3540004 	cmp	r4, #4
   14d04:	1afffff0 	bne	14ccc <f_mkdir+0x38>
   14d08:	e1a01006 	mov	r1, r6
   14d0c:	e59d003c 	ldr	r0, [sp, #60]	; 0x3c
   14d10:	ebffe8ea 	bl	f0c0 <create_chain>
   14d14:	e250a000 	subs	sl, r0, #0
   14d18:	1a000014 	bne	14d70 <f_mkdir+0xdc>
   14d1c:	e3a04007 	mov	r4, #7
   14d20:	e35a0001 	cmp	sl, #1
   14d24:	e59d503c 	ldr	r5, [sp, #60]	; 0x3c
   14d28:	9affffe7 	bls	14ccc <f_mkdir+0x38>
   14d2c:	e5953018 	ldr	r3, [r5, #24]
   14d30:	e15a0003 	cmp	sl, r3
   14d34:	358d4000 	strcc	r4, [sp]
   14d38:	2affffe3 	bcs	14ccc <f_mkdir+0x38>
   14d3c:	e15a0003 	cmp	sl, r3
   14d40:	2a000008 	bcs	14d68 <f_mkdir+0xd4>
   14d44:	e35a0001 	cmp	sl, #1
   14d48:	9a000006 	bls	14d68 <f_mkdir+0xd4>
   14d4c:	e5d53000 	ldrb	r3, [r5]
   14d50:	e3530002 	cmp	r3, #2
   14d54:	0a00006f 	beq	14f18 <f_mkdir+0x284>
   14d58:	e3530003 	cmp	r3, #3
   14d5c:	0a00004f 	beq	14ea0 <f_mkdir+0x20c>
   14d60:	e3530001 	cmp	r3, #1
   14d64:	0a000008 	beq	14d8c <f_mkdir+0xf8>
   14d68:	e59d4000 	ldr	r4, [sp]
   14d6c:	eaffffd6 	b	14ccc <f_mkdir+0x38>
   14d70:	e35a0001 	cmp	sl, #1
   14d74:	03a04002 	moveq	r4, #2
   14d78:	0affffe8 	beq	14d20 <f_mkdir+0x8c>
   14d7c:	e37a0001 	cmn	sl, #1
   14d80:	1a0000d9 	bne	150ec <f_mkdir+0x458>
   14d84:	e3a04001 	mov	r4, #1
   14d88:	eaffffe4 	b	14d20 <f_mkdir+0x8c>
   14d8c:	e5958024 	ldr	r8, [r5, #36]	; 0x24
   14d90:	e08a90aa 	add	r9, sl, sl, lsr #1
   14d94:	e5957030 	ldr	r7, [r5, #48]	; 0x30
   14d98:	e08864a9 	add	r6, r8, r9, lsr #9
   14d9c:	e1560007 	cmp	r6, r7
   14da0:	0a0000cf 	beq	150e4 <f_mkdir+0x450>
   14da4:	e5d52004 	ldrb	r2, [r5, #4]
   14da8:	e2858034 	add	r8, r5, #52	; 0x34
   14dac:	e3520000 	cmp	r2, #0
   14db0:	1a0000ae 	bne	15070 <f_mkdir+0x3dc>
   14db4:	e1a01008 	mov	r1, r8
   14db8:	e5d50001 	ldrb	r0, [r5, #1]
   14dbc:	e1a02006 	mov	r2, r6
   14dc0:	e3a03001 	mov	r3, #1
   14dc4:	eb000ae2 	bl	17954 <disk_read>
   14dc8:	e3500000 	cmp	r0, #0
   14dcc:	1affffe5 	bne	14d68 <f_mkdir+0xd4>
   14dd0:	e5958024 	ldr	r8, [r5, #36]	; 0x24
   14dd4:	e5856030 	str	r6, [r5, #48]	; 0x30
   14dd8:	e1a07006 	mov	r7, r6
   14ddc:	e289b001 	add	fp, r9, #1
   14de0:	e1a03b89 	lsl	r3, r9, #23
   14de4:	e08884ab 	add	r8, r8, fp, lsr #9
   14de8:	e0853ba3 	add	r3, r5, r3, lsr #23
   14dec:	e1580006 	cmp	r8, r6
   14df0:	e5d39034 	ldrb	r9, [r3, #52]	; 0x34
   14df4:	0a00000b 	beq	14e28 <f_mkdir+0x194>
   14df8:	e5d53004 	ldrb	r3, [r5, #4]
   14dfc:	e2854034 	add	r4, r5, #52	; 0x34
   14e00:	e3530000 	cmp	r3, #0
   14e04:	1a0001ab 	bne	154b8 <f_mkdir+0x824>
   14e08:	e1a01004 	mov	r1, r4
   14e0c:	e5d50001 	ldrb	r0, [r5, #1]
   14e10:	e1a02008 	mov	r2, r8
   14e14:	e3a03001 	mov	r3, #1
   14e18:	eb000acd 	bl	17954 <disk_read>
   14e1c:	e3500000 	cmp	r0, #0
   14e20:	1affffd0 	bne	14d68 <f_mkdir+0xd4>
   14e24:	e5858030 	str	r8, [r5, #48]	; 0x30
   14e28:	e1a03b8b 	lsl	r3, fp, #23
   14e2c:	e0853ba3 	add	r3, r5, r3, lsr #23
   14e30:	e5d36034 	ldrb	r6, [r3, #52]	; 0x34
   14e34:	e31a0001 	tst	sl, #1
   14e38:	e1896406 	orr	r6, r9, r6, lsl #8
   14e3c:	01a06a06 	lsleq	r6, r6, #20
   14e40:	11a06226 	lsrne	r6, r6, #4
   14e44:	01a06a26 	lsreq	r6, r6, #20
   14e48:	e3560000 	cmp	r6, #0
   14e4c:	0affffc5 	beq	14d68 <f_mkdir+0xd4>
   14e50:	e3560001 	cmp	r6, #1
   14e54:	0affffc3 	beq	14d68 <f_mkdir+0xd4>
   14e58:	e5953018 	ldr	r3, [r5, #24]
   14e5c:	e15a0003 	cmp	sl, r3
   14e60:	2affffc0 	bcs	14d68 <f_mkdir+0xd4>
   14e64:	e1a0100a 	mov	r1, sl
   14e68:	e1a00005 	mov	r0, r5
   14e6c:	e3a02000 	mov	r2, #0
   14e70:	ebffe3e7 	bl	de14 <put_fat.part.6>
   14e74:	e3500000 	cmp	r0, #0
   14e78:	1affffba 	bne	14d68 <f_mkdir+0xd4>
   14e7c:	e5953010 	ldr	r3, [r5, #16]
   14e80:	e1a0a006 	mov	sl, r6
   14e84:	e3730001 	cmn	r3, #1
   14e88:	12833001 	addne	r3, r3, #1
   14e8c:	13a0c001 	movne	ip, #1
   14e90:	15853010 	strne	r3, [r5, #16]
   14e94:	15c5c005 	strbne	ip, [r5, #5]
   14e98:	e5953018 	ldr	r3, [r5, #24]
   14e9c:	eaffffa6 	b	14d3c <f_mkdir+0xa8>
   14ea0:	e5959024 	ldr	r9, [r5, #36]	; 0x24
   14ea4:	e5956030 	ldr	r6, [r5, #48]	; 0x30
   14ea8:	e08993aa 	add	r9, r9, sl, lsr #7
   14eac:	e1590006 	cmp	r9, r6
   14eb0:	0a00000b 	beq	14ee4 <f_mkdir+0x250>
   14eb4:	e5d53004 	ldrb	r3, [r5, #4]
   14eb8:	e2857034 	add	r7, r5, #52	; 0x34
   14ebc:	e3530000 	cmp	r3, #0
   14ec0:	1a00002e 	bne	14f80 <f_mkdir+0x2ec>
   14ec4:	e1a01007 	mov	r1, r7
   14ec8:	e5d50001 	ldrb	r0, [r5, #1]
   14ecc:	e1a02009 	mov	r2, r9
   14ed0:	e3a03001 	mov	r3, #1
   14ed4:	eb000a9e 	bl	17954 <disk_read>
   14ed8:	e3500000 	cmp	r0, #0
   14edc:	1affffa1 	bne	14d68 <f_mkdir+0xd4>
   14ee0:	e5859030 	str	r9, [r5, #48]	; 0x30
   14ee4:	e1a0210a 	lsl	r2, sl, #2
   14ee8:	e2022f7f 	and	r2, r2, #508	; 0x1fc
   14eec:	e0853002 	add	r3, r5, r2
   14ef0:	e5d31037 	ldrb	r1, [r3, #55]	; 0x37
   14ef4:	e5d30036 	ldrb	r0, [r3, #54]	; 0x36
   14ef8:	e5d36035 	ldrb	r6, [r3, #53]	; 0x35
   14efc:	e1a01c01 	lsl	r1, r1, #24
   14f00:	e5d33034 	ldrb	r3, [r3, #52]	; 0x34
   14f04:	e1812800 	orr	r2, r1, r0, lsl #16
   14f08:	e1826406 	orr	r6, r2, r6, lsl #8
   14f0c:	e1866003 	orr	r6, r6, r3
   14f10:	e3c6620f 	bic	r6, r6, #-268435456	; 0xf0000000
   14f14:	eaffffcb 	b	14e48 <f_mkdir+0x1b4>
   14f18:	e5959024 	ldr	r9, [r5, #36]	; 0x24
   14f1c:	e5956030 	ldr	r6, [r5, #48]	; 0x30
   14f20:	e089942a 	add	r9, r9, sl, lsr #8
   14f24:	e1590006 	cmp	r9, r6
   14f28:	0a00000b 	beq	14f5c <f_mkdir+0x2c8>
   14f2c:	e5d53004 	ldrb	r3, [r5, #4]
   14f30:	e2857034 	add	r7, r5, #52	; 0x34
   14f34:	e3530000 	cmp	r3, #0
   14f38:	1a00002e 	bne	14ff8 <f_mkdir+0x364>
   14f3c:	e1a01007 	mov	r1, r7
   14f40:	e5d50001 	ldrb	r0, [r5, #1]
   14f44:	e1a02009 	mov	r2, r9
   14f48:	e3a03001 	mov	r3, #1
   14f4c:	eb000a80 	bl	17954 <disk_read>
   14f50:	e3500000 	cmp	r0, #0
   14f54:	1affff83 	bne	14d68 <f_mkdir+0xd4>
   14f58:	e5859030 	str	r9, [r5, #48]	; 0x30
   14f5c:	e59f35cc 	ldr	r3, [pc, #1484]	; 15530 <f_mkdir+0x89c>
   14f60:	e1a0208a 	lsl	r2, sl, #1
   14f64:	e0023003 	and	r3, r2, r3
   14f68:	e0852003 	add	r2, r5, r3
   14f6c:	e1a03002 	mov	r3, r2
   14f70:	e5d36035 	ldrb	r6, [r3, #53]	; 0x35
   14f74:	e5d22034 	ldrb	r2, [r2, #52]	; 0x34
   14f78:	e1826406 	orr	r6, r2, r6, lsl #8
   14f7c:	eaffffb1 	b	14e48 <f_mkdir+0x1b4>
   14f80:	e1a01007 	mov	r1, r7
   14f84:	e5d50001 	ldrb	r0, [r5, #1]
   14f88:	e1a02006 	mov	r2, r6
   14f8c:	e3a03001 	mov	r3, #1
   14f90:	eb000a8d 	bl	179cc <disk_write>
   14f94:	e3500000 	cmp	r0, #0
   14f98:	1affff72 	bne	14d68 <f_mkdir+0xd4>
   14f9c:	e5952024 	ldr	r2, [r5, #36]	; 0x24
   14fa0:	e5c50004 	strb	r0, [r5, #4]
   14fa4:	e1560002 	cmp	r6, r2
   14fa8:	3affffc5 	bcc	14ec4 <f_mkdir+0x230>
   14fac:	e595301c 	ldr	r3, [r5, #28]
   14fb0:	e0832002 	add	r2, r3, r2
   14fb4:	e1560002 	cmp	r6, r2
   14fb8:	2affffc1 	bcs	14ec4 <f_mkdir+0x230>
   14fbc:	e5d58003 	ldrb	r8, [r5, #3]
   14fc0:	e3580001 	cmp	r8, #1
   14fc4:	8a000001 	bhi	14fd0 <f_mkdir+0x33c>
   14fc8:	eaffffbd 	b	14ec4 <f_mkdir+0x230>
   14fcc:	e595301c 	ldr	r3, [r5, #28]
   14fd0:	e0866003 	add	r6, r6, r3
   14fd4:	e2488001 	sub	r8, r8, #1
   14fd8:	e1a02006 	mov	r2, r6
   14fdc:	e5d50001 	ldrb	r0, [r5, #1]
   14fe0:	e1a01007 	mov	r1, r7
   14fe4:	e3a03001 	mov	r3, #1
   14fe8:	eb000a77 	bl	179cc <disk_write>
   14fec:	e3580001 	cmp	r8, #1
   14ff0:	1afffff5 	bne	14fcc <f_mkdir+0x338>
   14ff4:	eaffffb2 	b	14ec4 <f_mkdir+0x230>
   14ff8:	e1a01007 	mov	r1, r7
   14ffc:	e5d50001 	ldrb	r0, [r5, #1]
   15000:	e1a02006 	mov	r2, r6
   15004:	e3a03001 	mov	r3, #1
   15008:	eb000a6f 	bl	179cc <disk_write>
   1500c:	e3500000 	cmp	r0, #0
   15010:	1affff54 	bne	14d68 <f_mkdir+0xd4>
   15014:	e5952024 	ldr	r2, [r5, #36]	; 0x24
   15018:	e5c50004 	strb	r0, [r5, #4]
   1501c:	e1560002 	cmp	r6, r2
   15020:	3affffc5 	bcc	14f3c <f_mkdir+0x2a8>
   15024:	e595301c 	ldr	r3, [r5, #28]
   15028:	e0832002 	add	r2, r3, r2
   1502c:	e1560002 	cmp	r6, r2
   15030:	2affffc1 	bcs	14f3c <f_mkdir+0x2a8>
   15034:	e5d58003 	ldrb	r8, [r5, #3]
   15038:	e3580001 	cmp	r8, #1
   1503c:	8a000001 	bhi	15048 <f_mkdir+0x3b4>
   15040:	eaffffbd 	b	14f3c <f_mkdir+0x2a8>
   15044:	e595301c 	ldr	r3, [r5, #28]
   15048:	e0866003 	add	r6, r6, r3
   1504c:	e2488001 	sub	r8, r8, #1
   15050:	e1a02006 	mov	r2, r6
   15054:	e5d50001 	ldrb	r0, [r5, #1]
   15058:	e1a01007 	mov	r1, r7
   1505c:	e3a03001 	mov	r3, #1
   15060:	eb000a59 	bl	179cc <disk_write>
   15064:	e3580001 	cmp	r8, #1
   15068:	1afffff5 	bne	15044 <f_mkdir+0x3b0>
   1506c:	eaffffb2 	b	14f3c <f_mkdir+0x2a8>
   15070:	e1a01008 	mov	r1, r8
   15074:	e5d50001 	ldrb	r0, [r5, #1]
   15078:	e1a02007 	mov	r2, r7
   1507c:	eb000a52 	bl	179cc <disk_write>
   15080:	e3500000 	cmp	r0, #0
   15084:	1affff37 	bne	14d68 <f_mkdir+0xd4>
   15088:	e5952024 	ldr	r2, [r5, #36]	; 0x24
   1508c:	e5c50004 	strb	r0, [r5, #4]
   15090:	e1570002 	cmp	r7, r2
   15094:	3affff46 	bcc	14db4 <f_mkdir+0x120>
   15098:	e595301c 	ldr	r3, [r5, #28]
   1509c:	e0832002 	add	r2, r3, r2
   150a0:	e1570002 	cmp	r7, r2
   150a4:	2affff42 	bcs	14db4 <f_mkdir+0x120>
   150a8:	e5d5b003 	ldrb	fp, [r5, #3]
   150ac:	e35b0001 	cmp	fp, #1
   150b0:	8a000001 	bhi	150bc <f_mkdir+0x428>
   150b4:	eaffff3e 	b	14db4 <f_mkdir+0x120>
   150b8:	e595301c 	ldr	r3, [r5, #28]
   150bc:	e0877003 	add	r7, r7, r3
   150c0:	e24bb001 	sub	fp, fp, #1
   150c4:	e1a02007 	mov	r2, r7
   150c8:	e5d50001 	ldrb	r0, [r5, #1]
   150cc:	e1a01008 	mov	r1, r8
   150d0:	e3a03001 	mov	r3, #1
   150d4:	eb000a3c 	bl	179cc <disk_write>
   150d8:	e35b0001 	cmp	fp, #1
   150dc:	1afffff5 	bne	150b8 <f_mkdir+0x424>
   150e0:	eaffff33 	b	14db4 <f_mkdir+0x120>
   150e4:	e1a07006 	mov	r7, r6
   150e8:	eaffff3b 	b	14ddc <f_mkdir+0x148>
   150ec:	e59d803c 	ldr	r8, [sp, #60]	; 0x3c
   150f0:	e5d83004 	ldrb	r3, [r8, #4]
   150f4:	e3530000 	cmp	r3, #0
   150f8:	1a0000c7 	bne	1541c <f_mkdir+0x788>
   150fc:	e5982018 	ldr	r2, [r8, #24]
   15100:	e24a3002 	sub	r3, sl, #2
   15104:	e2422002 	sub	r2, r2, #2
   15108:	e1530002 	cmp	r3, r2
   1510c:	3598202c 	ldrcc	r2, [r8, #44]	; 0x2c
   15110:	35d87002 	ldrbcc	r7, [r8, #2]
   15114:	23a07000 	movcs	r7, #0
   15118:	30272397 	mlacc	r7, r7, r3, r2
   1511c:	e2882034 	add	r2, r8, #52	; 0x34
   15120:	e58d2028 	str	r2, [sp, #40]	; 0x28
   15124:	e1a03002 	mov	r3, r2
   15128:	e2884f8d 	add	r4, r8, #564	; 0x234
   1512c:	e3a01000 	mov	r1, #0
   15130:	e4831004 	str	r1, [r3], #4
   15134:	e1530004 	cmp	r3, r4
   15138:	1afffffc 	bne	15130 <f_mkdir+0x49c>
   1513c:	e6ff6075 	uxth	r6, r5
   15140:	e1a0082a 	lsr	r0, sl, #16
   15144:	e1a06426 	lsr	r6, r6, #8
   15148:	e1a0e825 	lsr	lr, r5, #16
   1514c:	e58d600c 	str	r6, [sp, #12]
   15150:	e6ef6070 	uxtb	r6, r0
   15154:	e6efe07e 	uxtb	lr, lr
   15158:	e58d6020 	str	r6, [sp, #32]
   1515c:	e59d600c 	ldr	r6, [sp, #12]
   15160:	e58de010 	str	lr, [sp, #16]
   15164:	e6ffc07a 	uxth	ip, sl
   15168:	e1a0c42c 	lsr	ip, ip, #8
   1516c:	e5c8604b 	strb	r6, [r8, #75]	; 0x4b
   15170:	e59d6010 	ldr	r6, [sp, #16]
   15174:	e58dc01c 	str	ip, [sp, #28]
   15178:	e5c8604c 	strb	r6, [r8, #76]	; 0x4c
   1517c:	e59d601c 	ldr	r6, [sp, #28]
   15180:	e2883054 	add	r3, r8, #84	; 0x54
   15184:	e2889038 	add	r9, r8, #56	; 0x38
   15188:	e2881058 	add	r1, r8, #88	; 0x58
   1518c:	e1a00420 	lsr	r0, r0, #8
   15190:	e5c8604f 	strb	r6, [r8, #79]	; 0x4f
   15194:	e59d6020 	ldr	r6, [sp, #32]
   15198:	e1520001 	cmp	r2, r1
   1519c:	31530009 	cmpcc	r3, r9
   151a0:	e58d0024 	str	r0, [sp, #36]	; 0x24
   151a4:	33a09000 	movcc	r9, #0
   151a8:	23a09001 	movcs	r9, #1
   151ac:	e59f1380 	ldr	r1, [pc, #896]	; 15534 <f_mkdir+0x8a0>
   151b0:	e3130003 	tst	r3, #3
   151b4:	e5c86048 	strb	r6, [r8, #72]	; 0x48
   151b8:	e59d6024 	ldr	r6, [sp, #36]	; 0x24
   151bc:	e3a0c02e 	mov	ip, #46	; 0x2e
   151c0:	13a09000 	movne	r9, #0
   151c4:	02099001 	andeq	r9, r9, #1
   151c8:	e3a00020 	mov	r0, #32
   151cc:	e3a0e010 	mov	lr, #16
   151d0:	e5881034 	str	r1, [r8, #52]	; 0x34
   151d4:	e5c86049 	strb	r6, [r8, #73]	; 0x49
   151d8:	e5c8c034 	strb	ip, [r8, #52]	; 0x34
   151dc:	e6ef6075 	uxtb	r6, r5
   151e0:	e6efc07a 	uxtb	ip, sl
   151e4:	e1a05c25 	lsr	r5, r5, #24
   151e8:	e3590000 	cmp	r9, #0
   151ec:	e5881038 	str	r1, [r8, #56]	; 0x38
   151f0:	e5c8003c 	strb	r0, [r8, #60]	; 0x3c
   151f4:	e5c8003d 	strb	r0, [r8, #61]	; 0x3d
   151f8:	e5c8003e 	strb	r0, [r8, #62]	; 0x3e
   151fc:	e58d6008 	str	r6, [sp, #8]
   15200:	e58d5014 	str	r5, [sp, #20]
   15204:	e58dc018 	str	ip, [sp, #24]
   15208:	e5c8e03f 	strb	lr, [r8, #63]	; 0x3f
   1520c:	e5c8604a 	strb	r6, [r8, #74]	; 0x4a
   15210:	e5c8504d 	strb	r5, [r8, #77]	; 0x4d
   15214:	e5c8c04e 	strb	ip, [r8, #78]	; 0x4e
   15218:	0a0000a0 	beq	154a0 <f_mkdir+0x80c>
   1521c:	e5983034 	ldr	r3, [r8, #52]	; 0x34
   15220:	e598203c 	ldr	r2, [r8, #60]	; 0x3c
   15224:	e5883054 	str	r3, [r8, #84]	; 0x54
   15228:	e5983040 	ldr	r3, [r8, #64]	; 0x40
   1522c:	e588205c 	str	r2, [r8, #92]	; 0x5c
   15230:	e5883060 	str	r3, [r8, #96]	; 0x60
   15234:	e5982044 	ldr	r2, [r8, #68]	; 0x44
   15238:	e5983048 	ldr	r3, [r8, #72]	; 0x48
   1523c:	e5882064 	str	r2, [r8, #100]	; 0x64
   15240:	e5883068 	str	r3, [r8, #104]	; 0x68
   15244:	e598204c 	ldr	r2, [r8, #76]	; 0x4c
   15248:	e5983050 	ldr	r3, [r8, #80]	; 0x50
   1524c:	e5881058 	str	r1, [r8, #88]	; 0x58
   15250:	e588206c 	str	r2, [r8, #108]	; 0x6c
   15254:	e5883070 	str	r3, [r8, #112]	; 0x70
   15258:	e3a0302e 	mov	r3, #46	; 0x2e
   1525c:	e59d603c 	ldr	r6, [sp, #60]	; 0x3c
   15260:	e5c83055 	strb	r3, [r8, #85]	; 0x55
   15264:	e5d62000 	ldrb	r2, [r6]
   15268:	e59d3044 	ldr	r3, [sp, #68]	; 0x44
   1526c:	e3520003 	cmp	r2, #3
   15270:	0a000061 	beq	153fc <f_mkdir+0x768>
   15274:	e1a02823 	lsr	r2, r3, #16
   15278:	e6ff0073 	uxth	r0, r3
   1527c:	e6ef1072 	uxtb	r1, r2
   15280:	e1a00420 	lsr	r0, r0, #8
   15284:	e6ef3073 	uxtb	r3, r3
   15288:	e1a02422 	lsr	r2, r2, #8
   1528c:	e5c8306e 	strb	r3, [r8, #110]	; 0x6e
   15290:	e5c8006f 	strb	r0, [r8, #111]	; 0x6f
   15294:	e5c81068 	strb	r1, [r8, #104]	; 0x68
   15298:	e5c82069 	strb	r2, [r8, #105]	; 0x69
   1529c:	e5d63002 	ldrb	r3, [r6, #2]
   152a0:	e3530000 	cmp	r3, #0
   152a4:	0a000036 	beq	15384 <f_mkdir+0x6f0>
   152a8:	e2433001 	sub	r3, r3, #1
   152ac:	e6efb073 	uxtb	fp, r3
   152b0:	e28bb001 	add	fp, fp, #1
   152b4:	e08bb007 	add	fp, fp, r7
   152b8:	e58db000 	str	fp, [sp]
   152bc:	e59db028 	ldr	fp, [sp, #40]	; 0x28
   152c0:	e3a05000 	mov	r5, #0
   152c4:	e58da004 	str	sl, [sp, #4]
   152c8:	e3a0c001 	mov	ip, #1
   152cc:	e2869034 	add	r9, r6, #52	; 0x34
   152d0:	e5867030 	str	r7, [r6, #48]	; 0x30
   152d4:	e5c6c004 	strb	ip, [r6, #4]
   152d8:	e1a01009 	mov	r1, r9
   152dc:	e5d60001 	ldrb	r0, [r6, #1]
   152e0:	e1a02007 	mov	r2, r7
   152e4:	e3a03001 	mov	r3, #1
   152e8:	eb0009b7 	bl	179cc <disk_write>
   152ec:	e3500000 	cmp	r0, #0
   152f0:	e2878001 	add	r8, r7, #1
   152f4:	1a00001f 	bne	15378 <f_mkdir+0x6e4>
   152f8:	e5962024 	ldr	r2, [r6, #36]	; 0x24
   152fc:	e5c60004 	strb	r0, [r6, #4]
   15300:	e1520007 	cmp	r2, r7
   15304:	8a000011 	bhi	15350 <f_mkdir+0x6bc>
   15308:	e596301c 	ldr	r3, [r6, #28]
   1530c:	e0832002 	add	r2, r3, r2
   15310:	e1520007 	cmp	r2, r7
   15314:	9a00000d 	bls	15350 <f_mkdir+0x6bc>
   15318:	e5d6a003 	ldrb	sl, [r6, #3]
   1531c:	e35a0001 	cmp	sl, #1
   15320:	8a000001 	bhi	1532c <f_mkdir+0x698>
   15324:	ea000009 	b	15350 <f_mkdir+0x6bc>
   15328:	e596301c 	ldr	r3, [r6, #28]
   1532c:	e0877003 	add	r7, r7, r3
   15330:	e24aa001 	sub	sl, sl, #1
   15334:	e1a02007 	mov	r2, r7
   15338:	e5d60001 	ldrb	r0, [r6, #1]
   1533c:	e1a01009 	mov	r1, r9
   15340:	e3a03001 	mov	r3, #1
   15344:	eb0009a0 	bl	179cc <disk_write>
   15348:	e35a0001 	cmp	sl, #1
   1534c:	1afffff5 	bne	15328 <f_mkdir+0x694>
   15350:	e1a0300b 	mov	r3, fp
   15354:	e4835004 	str	r5, [r3], #4
   15358:	e1530004 	cmp	r3, r4
   1535c:	1afffffc 	bne	15354 <f_mkdir+0x6c0>
   15360:	e59d6000 	ldr	r6, [sp]
   15364:	e1580006 	cmp	r8, r6
   15368:	0a000004 	beq	15380 <f_mkdir+0x6ec>
   1536c:	e1a07008 	mov	r7, r8
   15370:	e59d603c 	ldr	r6, [sp, #60]	; 0x3c
   15374:	eaffffd3 	b	152c8 <f_mkdir+0x634>
   15378:	e59da004 	ldr	sl, [sp, #4]
   1537c:	eafffe80 	b	14d84 <f_mkdir+0xf0>
   15380:	e59da004 	ldr	sl, [sp, #4]
   15384:	e28d003c 	add	r0, sp, #60	; 0x3c
   15388:	ebffecb6 	bl	10668 <dir_register>
   1538c:	e2504000 	subs	r4, r0, #0
   15390:	1afffe62 	bne	14d20 <f_mkdir+0x8c>
   15394:	e59d3050 	ldr	r3, [sp, #80]	; 0x50
   15398:	e59d6008 	ldr	r6, [sp, #8]
   1539c:	e59dc00c 	ldr	ip, [sp, #12]
   153a0:	e5c36016 	strb	r6, [r3, #22]
   153a4:	e5c3c017 	strb	ip, [r3, #23]
   153a8:	e59d6010 	ldr	r6, [sp, #16]
   153ac:	e59dc014 	ldr	ip, [sp, #20]
   153b0:	e5c36018 	strb	r6, [r3, #24]
   153b4:	e5c3c019 	strb	ip, [r3, #25]
   153b8:	e59d6018 	ldr	r6, [sp, #24]
   153bc:	e59dc01c 	ldr	ip, [sp, #28]
   153c0:	e59d203c 	ldr	r2, [sp, #60]	; 0x3c
   153c4:	e5c3601a 	strb	r6, [r3, #26]
   153c8:	e5c3c01b 	strb	ip, [r3, #27]
   153cc:	e59d6020 	ldr	r6, [sp, #32]
   153d0:	e59dc024 	ldr	ip, [sp, #36]	; 0x24
   153d4:	e3a00010 	mov	r0, #16
   153d8:	e3a01001 	mov	r1, #1
   153dc:	e5c3000b 	strb	r0, [r3, #11]
   153e0:	e5c36014 	strb	r6, [r3, #20]
   153e4:	e5c3c015 	strb	ip, [r3, #21]
   153e8:	e1a00002 	mov	r0, r2
   153ec:	e5c21004 	strb	r1, [r2, #4]
   153f0:	ebffe1fc 	bl	dbe8 <sync_fs>
   153f4:	e1a04000 	mov	r4, r0
   153f8:	eafffe33 	b	14ccc <f_mkdir+0x38>
   153fc:	e5962028 	ldr	r2, [r6, #40]	; 0x28
   15400:	e1520003 	cmp	r2, r3
   15404:	1affff9a 	bne	15274 <f_mkdir+0x5e0>
   15408:	e3a02000 	mov	r2, #0
   1540c:	e1a01002 	mov	r1, r2
   15410:	e1a00002 	mov	r0, r2
   15414:	e1a03002 	mov	r3, r2
   15418:	eaffff9b 	b	1528c <f_mkdir+0x5f8>
   1541c:	e5984030 	ldr	r4, [r8, #48]	; 0x30
   15420:	e2887034 	add	r7, r8, #52	; 0x34
   15424:	e1a02004 	mov	r2, r4
   15428:	e1a01007 	mov	r1, r7
   1542c:	e5d80001 	ldrb	r0, [r8, #1]
   15430:	e3a03001 	mov	r3, #1
   15434:	eb000964 	bl	179cc <disk_write>
   15438:	e3500000 	cmp	r0, #0
   1543c:	1afffe50 	bne	14d84 <f_mkdir+0xf0>
   15440:	e5982024 	ldr	r2, [r8, #36]	; 0x24
   15444:	e5c80004 	strb	r0, [r8, #4]
   15448:	e1540002 	cmp	r4, r2
   1544c:	3a000011 	bcc	15498 <f_mkdir+0x804>
   15450:	e598301c 	ldr	r3, [r8, #28]
   15454:	e0832002 	add	r2, r3, r2
   15458:	e1540002 	cmp	r4, r2
   1545c:	2a00000d 	bcs	15498 <f_mkdir+0x804>
   15460:	e5d86003 	ldrb	r6, [r8, #3]
   15464:	e3560001 	cmp	r6, #1
   15468:	8a000001 	bhi	15474 <f_mkdir+0x7e0>
   1546c:	ea000009 	b	15498 <f_mkdir+0x804>
   15470:	e598301c 	ldr	r3, [r8, #28]
   15474:	e0844003 	add	r4, r4, r3
   15478:	e2466001 	sub	r6, r6, #1
   1547c:	e1a02004 	mov	r2, r4
   15480:	e5d80001 	ldrb	r0, [r8, #1]
   15484:	e1a01007 	mov	r1, r7
   15488:	e3a03001 	mov	r3, #1
   1548c:	eb00094e 	bl	179cc <disk_write>
   15490:	e3560001 	cmp	r6, #1
   15494:	1afffff5 	bne	15470 <f_mkdir+0x7dc>
   15498:	e59d803c 	ldr	r8, [sp, #60]	; 0x3c
   1549c:	eaffff16 	b	150fc <f_mkdir+0x468>
   154a0:	e2880074 	add	r0, r8, #116	; 0x74
   154a4:	e4d21001 	ldrb	r1, [r2], #1
   154a8:	e4c31001 	strb	r1, [r3], #1
   154ac:	e1530000 	cmp	r3, r0
   154b0:	1afffffb 	bne	154a4 <f_mkdir+0x810>
   154b4:	eaffff67 	b	15258 <f_mkdir+0x5c4>
   154b8:	e1a01004 	mov	r1, r4
   154bc:	e5d50001 	ldrb	r0, [r5, #1]
   154c0:	e1a02006 	mov	r2, r6
   154c4:	e3a03001 	mov	r3, #1
   154c8:	eb00093f 	bl	179cc <disk_write>
   154cc:	e3500000 	cmp	r0, #0
   154d0:	1afffe24 	bne	14d68 <f_mkdir+0xd4>
   154d4:	e5952024 	ldr	r2, [r5, #36]	; 0x24
   154d8:	e5c50004 	strb	r0, [r5, #4]
   154dc:	e1520006 	cmp	r2, r6
   154e0:	8afffe48 	bhi	14e08 <f_mkdir+0x174>
   154e4:	e595301c 	ldr	r3, [r5, #28]
   154e8:	e0832002 	add	r2, r3, r2
   154ec:	e1520006 	cmp	r2, r6
   154f0:	9afffe44 	bls	14e08 <f_mkdir+0x174>
   154f4:	e5d56003 	ldrb	r6, [r5, #3]
   154f8:	e3560001 	cmp	r6, #1
   154fc:	9afffe41 	bls	14e08 <f_mkdir+0x174>
   15500:	e0877003 	add	r7, r7, r3
   15504:	e2466001 	sub	r6, r6, #1
   15508:	e1a02007 	mov	r2, r7
   1550c:	e5d50001 	ldrb	r0, [r5, #1]
   15510:	e1a01004 	mov	r1, r4
   15514:	e3a03001 	mov	r3, #1
   15518:	eb00092b 	bl	179cc <disk_write>
   1551c:	e3560001 	cmp	r6, #1
   15520:	0afffe38 	beq	14e08 <f_mkdir+0x174>
   15524:	e595301c 	ldr	r3, [r5, #28]
   15528:	eafffff4 	b	15500 <f_mkdir+0x86c>
   1552c:	000217e4 	andeq	r1, r2, r4, ror #15
   15530:	000001fe 	strdeq	r0, [r0], -lr
   15534:	20202020 	eorcs	r2, r0, r0, lsr #32

00015538 <f_chmod>:
   15538:	e92d4ff0 	push	{r4, r5, r6, r7, r8, r9, sl, fp, lr}
   1553c:	e5d03000 	ldrb	r3, [r0]
   15540:	e24dd04c 	sub	sp, sp, #76	; 0x4c
   15544:	e2433030 	sub	r3, r3, #48	; 0x30
   15548:	e3530009 	cmp	r3, #9
   1554c:	e1a04000 	mov	r4, r0
   15550:	e1a06001 	mov	r6, r1
   15554:	e1a07002 	mov	r7, r2
   15558:	9a000011 	bls	155a4 <f_chmod+0x6c>
   1555c:	e59f85a8 	ldr	r8, [pc, #1448]	; 15b0c <f_chmod+0x5d4>
   15560:	e5985000 	ldr	r5, [r8]
   15564:	e3550000 	cmp	r5, #0
   15568:	03a0000c 	moveq	r0, #12
   1556c:	0a00000a 	beq	1559c <f_chmod+0x64>
   15570:	e58d5024 	str	r5, [sp, #36]	; 0x24
   15574:	e5d53000 	ldrb	r3, [r5]
   15578:	e3530000 	cmp	r3, #0
   1557c:	0a000010 	beq	155c4 <f_chmod+0x8c>
   15580:	e5d50001 	ldrb	r0, [r5, #1]
   15584:	eb000912 	bl	179d4 <disk_status>
   15588:	e3100001 	tst	r0, #1
   1558c:	1a00000c 	bne	155c4 <f_chmod+0x8c>
   15590:	e3100004 	tst	r0, #4
   15594:	0a00009a 	beq	15804 <f_chmod+0x2cc>
   15598:	e3a0000a 	mov	r0, #10
   1559c:	e28dd04c 	add	sp, sp, #76	; 0x4c
   155a0:	e8bd8ff0 	pop	{r4, r5, r6, r7, r8, r9, sl, fp, pc}
   155a4:	e5d02001 	ldrb	r2, [r0, #1]
   155a8:	e352003a 	cmp	r2, #58	; 0x3a
   155ac:	1affffea 	bne	1555c <f_chmod+0x24>
   155b0:	e3530000 	cmp	r3, #0
   155b4:	13a0000b 	movne	r0, #11
   155b8:	1afffff7 	bne	1559c <f_chmod+0x64>
   155bc:	e2844002 	add	r4, r4, #2
   155c0:	eaffffe5 	b	1555c <f_chmod+0x24>
   155c4:	e3a00000 	mov	r0, #0
   155c8:	e5c50000 	strb	r0, [r5]
   155cc:	e5c50001 	strb	r0, [r5, #1]
   155d0:	eb0008ce 	bl	17910 <disk_initialize>
   155d4:	e3100001 	tst	r0, #1
   155d8:	13a00003 	movne	r0, #3
   155dc:	1affffee 	bne	1559c <f_chmod+0x64>
   155e0:	e2000004 	and	r0, r0, #4
   155e4:	e21020ff 	ands	r2, r0, #255	; 0xff
   155e8:	1affffea 	bne	15598 <f_chmod+0x60>
   155ec:	e2859034 	add	r9, r5, #52	; 0x34
   155f0:	e3a03001 	mov	r3, #1
   155f4:	e1a01009 	mov	r1, r9
   155f8:	e5d50001 	ldrb	r0, [r5, #1]
   155fc:	eb0008d4 	bl	17954 <disk_read>
   15600:	e3500000 	cmp	r0, #0
   15604:	13a03003 	movne	r3, #3
   15608:	0a000097 	beq	1586c <f_chmod+0x334>
   1560c:	e3a0a000 	mov	sl, #0
   15610:	e3530003 	cmp	r3, #3
   15614:	0a0000c7 	beq	15938 <f_chmod+0x400>
   15618:	e3530000 	cmp	r3, #0
   1561c:	0a000002 	beq	1562c <f_chmod+0xf4>
   15620:	e3a0000d 	mov	r0, #13
   15624:	eaffffdc 	b	1559c <f_chmod+0x64>
   15628:	e1a0a000 	mov	sl, r0
   1562c:	e5d52040 	ldrb	r2, [r5, #64]	; 0x40
   15630:	e5d5303f 	ldrb	r3, [r5, #63]	; 0x3f
   15634:	e1833402 	orr	r3, r3, r2, lsl #8
   15638:	e3530c02 	cmp	r3, #512	; 0x200
   1563c:	1afffff7 	bne	15620 <f_chmod+0xe8>
   15640:	e5d5204b 	ldrb	r2, [r5, #75]	; 0x4b
   15644:	e5d5304a 	ldrb	r3, [r5, #74]	; 0x4a
   15648:	e1933402 	orrs	r3, r3, r2, lsl #8
   1564c:	e58d3010 	str	r3, [sp, #16]
   15650:	1a000008 	bne	15678 <f_chmod+0x140>
   15654:	e5d5205a 	ldrb	r2, [r5, #90]	; 0x5a
   15658:	e5d5105b 	ldrb	r1, [r5, #91]	; 0x5b
   1565c:	e1a02802 	lsl	r2, r2, #16
   15660:	e5d53058 	ldrb	r3, [r5, #88]	; 0x58
   15664:	e1821c01 	orr	r1, r2, r1, lsl #24
   15668:	e5d52059 	ldrb	r2, [r5, #89]	; 0x59
   1566c:	e1813003 	orr	r3, r1, r3
   15670:	e1832402 	orr	r2, r3, r2, lsl #8
   15674:	e58d2010 	str	r2, [sp, #16]
   15678:	e5d52044 	ldrb	r2, [r5, #68]	; 0x44
   1567c:	e59d3010 	ldr	r3, [sp, #16]
   15680:	e5c52003 	strb	r2, [r5, #3]
   15684:	e585301c 	str	r3, [r5, #28]
   15688:	e2423001 	sub	r3, r2, #1
   1568c:	e3530001 	cmp	r3, #1
   15690:	8affffe2 	bhi	15620 <f_chmod+0xe8>
   15694:	e5d51041 	ldrb	r1, [r5, #65]	; 0x41
   15698:	e3510000 	cmp	r1, #0
   1569c:	e5c51002 	strb	r1, [r5, #2]
   156a0:	0affffde 	beq	15620 <f_chmod+0xe8>
   156a4:	e2413001 	sub	r3, r1, #1
   156a8:	e1130001 	tst	r3, r1
   156ac:	1affffdb 	bne	15620 <f_chmod+0xe8>
   156b0:	e5d50046 	ldrb	r0, [r5, #70]	; 0x46
   156b4:	e5d53045 	ldrb	r3, [r5, #69]	; 0x45
   156b8:	e1833400 	orr	r3, r3, r0, lsl #8
   156bc:	e313000f 	tst	r3, #15
   156c0:	e1c530b8 	strh	r3, [r5, #8]
   156c4:	1affffd5 	bne	15620 <f_chmod+0xe8>
   156c8:	e5d5c048 	ldrb	ip, [r5, #72]	; 0x48
   156cc:	e5d50047 	ldrb	r0, [r5, #71]	; 0x47
   156d0:	e190040c 	orrs	r0, r0, ip, lsl #8
   156d4:	1a000007 	bne	156f8 <f_chmod+0x1c0>
   156d8:	e5d50056 	ldrb	r0, [r5, #86]	; 0x56
   156dc:	e5d5b057 	ldrb	fp, [r5, #87]	; 0x57
   156e0:	e1a00800 	lsl	r0, r0, #16
   156e4:	e5d5c054 	ldrb	ip, [r5, #84]	; 0x54
   156e8:	e180bc0b 	orr	fp, r0, fp, lsl #24
   156ec:	e5d50055 	ldrb	r0, [r5, #85]	; 0x55
   156f0:	e18bc00c 	orr	ip, fp, ip
   156f4:	e18c0400 	orr	r0, ip, r0, lsl #8
   156f8:	e5d5b043 	ldrb	fp, [r5, #67]	; 0x43
   156fc:	e5d5c042 	ldrb	ip, [r5, #66]	; 0x42
   15700:	e19cc40b 	orrs	ip, ip, fp, lsl #8
   15704:	0affffc5 	beq	15620 <f_chmod+0xe8>
   15708:	e59db010 	ldr	fp, [sp, #16]
   1570c:	e0020b92 	mul	r2, r2, fp
   15710:	e58d2014 	str	r2, [sp, #20]
   15714:	e59db014 	ldr	fp, [sp, #20]
   15718:	e08c2223 	add	r2, ip, r3, lsr #4
   1571c:	e082200b 	add	r2, r2, fp
   15720:	e1520000 	cmp	r2, r0
   15724:	8affffbd 	bhi	15620 <f_chmod+0xe8>
   15728:	e0620000 	rsb	r0, r2, r0
   1572c:	e58d2008 	str	r2, [sp, #8]
   15730:	e58d300c 	str	r3, [sp, #12]
   15734:	e58dc004 	str	ip, [sp, #4]
   15738:	eb001b52 	bl	1c488 <__aeabi_uidiv>
   1573c:	e2501000 	subs	r1, r0, #0
   15740:	e59d2008 	ldr	r2, [sp, #8]
   15744:	e59d300c 	ldr	r3, [sp, #12]
   15748:	e59dc004 	ldr	ip, [sp, #4]
   1574c:	0affffb3 	beq	15620 <f_chmod+0xe8>
   15750:	e59f03b8 	ldr	r0, [pc, #952]	; 15b10 <f_chmod+0x5d8>
   15754:	e1510000 	cmp	r1, r0
   15758:	9a0000e9 	bls	15b04 <f_chmod+0x5cc>
   1575c:	e2800a0f 	add	r0, r0, #61440	; 0xf000
   15760:	e1510000 	cmp	r1, r0
   15764:	93a0b002 	movls	fp, #2
   15768:	8a0000d0 	bhi	15ab0 <f_chmod+0x578>
   1576c:	e2811002 	add	r1, r1, #2
   15770:	e08ac00c 	add	ip, sl, ip
   15774:	e082200a 	add	r2, r2, sl
   15778:	e3530000 	cmp	r3, #0
   1577c:	e5851018 	str	r1, [r5, #24]
   15780:	e585c024 	str	ip, [r5, #36]	; 0x24
   15784:	e585202c 	str	r2, [r5, #44]	; 0x2c
   15788:	e585a020 	str	sl, [r5, #32]
   1578c:	0affffa3 	beq	15620 <f_chmod+0xe8>
   15790:	e59d2014 	ldr	r2, [sp, #20]
   15794:	e35b0002 	cmp	fp, #2
   15798:	10813081 	addne	r3, r1, r1, lsl #1
   1579c:	e082c00c 	add	ip, r2, ip
   157a0:	12011001 	andne	r1, r1, #1
   157a4:	e585c028 	str	ip, [r5, #40]	; 0x28
   157a8:	01a01081 	lsleq	r1, r1, #1
   157ac:	108110a3 	addne	r1, r1, r3, lsr #1
   157b0:	13a0b001 	movne	fp, #1
   157b4:	e2813f7f 	add	r3, r1, #508	; 0x1fc
   157b8:	e59d2010 	ldr	r2, [sp, #16]
   157bc:	e2833003 	add	r3, r3, #3
   157c0:	e15204a3 	cmp	r2, r3, lsr #9
   157c4:	3affff95 	bcc	15620 <f_chmod+0xe8>
   157c8:	e3e02000 	mvn	r2, #0
   157cc:	e3a03000 	mov	r3, #0
   157d0:	e35b0003 	cmp	fp, #3
   157d4:	e5852010 	str	r2, [r5, #16]
   157d8:	e585300c 	str	r3, [r5, #12]
   157dc:	0a000077 	beq	159c0 <f_chmod+0x488>
   157e0:	e1d820b4 	ldrh	r2, [r8, #4]
   157e4:	e3a03000 	mov	r3, #0
   157e8:	e2822001 	add	r2, r2, #1
   157ec:	e6ff2072 	uxth	r2, r2
   157f0:	e5c5b000 	strb	fp, [r5]
   157f4:	e1c820b4 	strh	r2, [r8, #4]
   157f8:	e1c520b6 	strh	r2, [r5, #6]
   157fc:	e5853030 	str	r3, [r5, #48]	; 0x30
   15800:	e5c53004 	strb	r3, [r5, #4]
   15804:	e59f3308 	ldr	r3, [pc, #776]	; 15b14 <f_chmod+0x5dc>
   15808:	e1a01004 	mov	r1, r4
   1580c:	e58d3040 	str	r3, [sp, #64]	; 0x40
   15810:	e28d0024 	add	r0, sp, #36	; 0x24
   15814:	e28d3018 	add	r3, sp, #24
   15818:	e58d303c 	str	r3, [sp, #60]	; 0x3c
   1581c:	ebffea67 	bl	101c0 <follow_path>
   15820:	e3500000 	cmp	r0, #0
   15824:	1affff5c 	bne	1559c <f_chmod+0x64>
   15828:	e59d3038 	ldr	r3, [sp, #56]	; 0x38
   1582c:	e3530000 	cmp	r3, #0
   15830:	03a00006 	moveq	r0, #6
   15834:	0affff58 	beq	1559c <f_chmod+0x64>
   15838:	e5d3200b 	ldrb	r2, [r3, #11]
   1583c:	e2077027 	and	r7, r7, #39	; 0x27
   15840:	e0076006 	and	r6, r7, r6
   15844:	e1c27007 	bic	r7, r2, r7
   15848:	e59d2024 	ldr	r2, [sp, #36]	; 0x24
   1584c:	e3a01001 	mov	r1, #1
   15850:	e1877006 	orr	r7, r7, r6
   15854:	e5c3700b 	strb	r7, [r3, #11]
   15858:	e1a00002 	mov	r0, r2
   1585c:	e5c21004 	strb	r1, [r2, #4]
   15860:	ebffe0e0 	bl	dbe8 <sync_fs>
   15864:	e28dd04c 	add	sp, sp, #76	; 0x4c
   15868:	e8bd8ff0 	pop	{r4, r5, r6, r7, r8, r9, sl, fp, pc}
   1586c:	e5d5b233 	ldrb	fp, [r5, #563]	; 0x233
   15870:	e5d52232 	ldrb	r2, [r5, #562]	; 0x232
   15874:	e59f329c 	ldr	r3, [pc, #668]	; 15b18 <f_chmod+0x5e0>
   15878:	e182b40b 	orr	fp, r2, fp, lsl #8
   1587c:	e6bfb07b 	sxth	fp, fp
   15880:	e15b0003 	cmp	fp, r3
   15884:	13a03002 	movne	r3, #2
   15888:	1affff5f 	bne	1560c <f_chmod+0xd4>
   1588c:	e5d5206c 	ldrb	r2, [r5, #108]	; 0x6c
   15890:	e5d5106d 	ldrb	r1, [r5, #109]	; 0x6d
   15894:	e1a02802 	lsl	r2, r2, #16
   15898:	e5d5306a 	ldrb	r3, [r5, #106]	; 0x6a
   1589c:	e1821c01 	orr	r1, r2, r1, lsl #24
   158a0:	e5d5206b 	ldrb	r2, [r5, #107]	; 0x6b
   158a4:	e1813003 	orr	r3, r1, r3
   158a8:	e1833402 	orr	r3, r3, r2, lsl #8
   158ac:	e59fc268 	ldr	ip, [pc, #616]	; 15b1c <f_chmod+0x5e4>
   158b0:	e3c334ff 	bic	r3, r3, #-16777216	; 0xff000000
   158b4:	e153000c 	cmp	r3, ip
   158b8:	0a00003e 	beq	159b8 <f_chmod+0x480>
   158bc:	e5d52088 	ldrb	r2, [r5, #136]	; 0x88
   158c0:	e5d51089 	ldrb	r1, [r5, #137]	; 0x89
   158c4:	e1a02802 	lsl	r2, r2, #16
   158c8:	e5d53086 	ldrb	r3, [r5, #134]	; 0x86
   158cc:	e1821c01 	orr	r1, r2, r1, lsl #24
   158d0:	e5d52087 	ldrb	r2, [r5, #135]	; 0x87
   158d4:	e1813003 	orr	r3, r1, r3
   158d8:	e1833402 	orr	r3, r3, r2, lsl #8
   158dc:	e3c334ff 	bic	r3, r3, #-16777216	; 0xff000000
   158e0:	e153000c 	cmp	r3, ip
   158e4:	0affff4f 	beq	15628 <f_chmod+0xf0>
   158e8:	e5d531f6 	ldrb	r3, [r5, #502]	; 0x1f6
   158ec:	e3530000 	cmp	r3, #0
   158f0:	0affff4a 	beq	15620 <f_chmod+0xe8>
   158f4:	e5d521fc 	ldrb	r2, [r5, #508]	; 0x1fc
   158f8:	e5d511fd 	ldrb	r1, [r5, #509]	; 0x1fd
   158fc:	e5d531fa 	ldrb	r3, [r5, #506]	; 0x1fa
   15900:	e1a02802 	lsl	r2, r2, #16
   15904:	e1822c01 	orr	r2, r2, r1, lsl #24
   15908:	e5d5a1fb 	ldrb	sl, [r5, #507]	; 0x1fb
   1590c:	e1823003 	orr	r3, r2, r3
   15910:	e183a40a 	orr	sl, r3, sl, lsl #8
   15914:	e5d50001 	ldrb	r0, [r5, #1]
   15918:	e1a0200a 	mov	r2, sl
   1591c:	e1a01009 	mov	r1, r9
   15920:	e3a03001 	mov	r3, #1
   15924:	e58dc004 	str	ip, [sp, #4]
   15928:	eb000809 	bl	17954 <disk_read>
   1592c:	e3500000 	cmp	r0, #0
   15930:	e59dc004 	ldr	ip, [sp, #4]
   15934:	0a000001 	beq	15940 <f_chmod+0x408>
   15938:	e3a00001 	mov	r0, #1
   1593c:	eaffff16 	b	1559c <f_chmod+0x64>
   15940:	e5d52233 	ldrb	r2, [r5, #563]	; 0x233
   15944:	e5d53232 	ldrb	r3, [r5, #562]	; 0x232
   15948:	e1833402 	orr	r3, r3, r2, lsl #8
   1594c:	e6bf3073 	sxth	r3, r3
   15950:	e153000b 	cmp	r3, fp
   15954:	1affff31 	bne	15620 <f_chmod+0xe8>
   15958:	e5d5206c 	ldrb	r2, [r5, #108]	; 0x6c
   1595c:	e5d5106d 	ldrb	r1, [r5, #109]	; 0x6d
   15960:	e1a02802 	lsl	r2, r2, #16
   15964:	e5d5306a 	ldrb	r3, [r5, #106]	; 0x6a
   15968:	e1821c01 	orr	r1, r2, r1, lsl #24
   1596c:	e5d5206b 	ldrb	r2, [r5, #107]	; 0x6b
   15970:	e1813003 	orr	r3, r1, r3
   15974:	e1833402 	orr	r3, r3, r2, lsl #8
   15978:	e3c334ff 	bic	r3, r3, #-16777216	; 0xff000000
   1597c:	e153000c 	cmp	r3, ip
   15980:	0affff29 	beq	1562c <f_chmod+0xf4>
   15984:	e5d52088 	ldrb	r2, [r5, #136]	; 0x88
   15988:	e5d51089 	ldrb	r1, [r5, #137]	; 0x89
   1598c:	e1a02802 	lsl	r2, r2, #16
   15990:	e5d53086 	ldrb	r3, [r5, #134]	; 0x86
   15994:	e1821c01 	orr	r1, r2, r1, lsl #24
   15998:	e5d52087 	ldrb	r2, [r5, #135]	; 0x87
   1599c:	e1813003 	orr	r3, r1, r3
   159a0:	e1832402 	orr	r2, r3, r2, lsl #8
   159a4:	e59f3170 	ldr	r3, [pc, #368]	; 15b1c <f_chmod+0x5e4>
   159a8:	e3c224ff 	bic	r2, r2, #-16777216	; 0xff000000
   159ac:	e0523003 	subs	r3, r2, r3
   159b0:	13a03001 	movne	r3, #1
   159b4:	eaffff15 	b	15610 <f_chmod+0xd8>
   159b8:	e1a03000 	mov	r3, r0
   159bc:	eaffff12 	b	1560c <f_chmod+0xd4>
   159c0:	e5d51065 	ldrb	r1, [r5, #101]	; 0x65
   159c4:	e5d52064 	ldrb	r2, [r5, #100]	; 0x64
   159c8:	e5c53005 	strb	r3, [r5, #5]
   159cc:	e1822401 	orr	r2, r2, r1, lsl #8
   159d0:	e08a2002 	add	r2, sl, r2
   159d4:	e1a01009 	mov	r1, r9
   159d8:	e5852014 	str	r2, [r5, #20]
   159dc:	e5d50001 	ldrb	r0, [r5, #1]
   159e0:	e3a03001 	mov	r3, #1
   159e4:	eb0007da 	bl	17954 <disk_read>
   159e8:	e3500000 	cmp	r0, #0
   159ec:	1affff7b 	bne	157e0 <f_chmod+0x2a8>
   159f0:	e5d51233 	ldrb	r1, [r5, #563]	; 0x233
   159f4:	e5d52232 	ldrb	r2, [r5, #562]	; 0x232
   159f8:	e59f3118 	ldr	r3, [pc, #280]	; 15b18 <f_chmod+0x5e0>
   159fc:	e1822401 	orr	r2, r2, r1, lsl #8
   15a00:	e6bf2072 	sxth	r2, r2
   15a04:	e1520003 	cmp	r2, r3
   15a08:	1affff74 	bne	157e0 <f_chmod+0x2a8>
   15a0c:	e5d52036 	ldrb	r2, [r5, #54]	; 0x36
   15a10:	e5d51037 	ldrb	r1, [r5, #55]	; 0x37
   15a14:	e5d53034 	ldrb	r3, [r5, #52]	; 0x34
   15a18:	e1a02802 	lsl	r2, r2, #16
   15a1c:	e1822c01 	orr	r2, r2, r1, lsl #24
   15a20:	e5d51035 	ldrb	r1, [r5, #53]	; 0x35
   15a24:	e1822003 	orr	r2, r2, r3
   15a28:	e59f30f0 	ldr	r3, [pc, #240]	; 15b20 <f_chmod+0x5e8>
   15a2c:	e1822401 	orr	r2, r2, r1, lsl #8
   15a30:	e1520003 	cmp	r2, r3
   15a34:	1affff69 	bne	157e0 <f_chmod+0x2a8>
   15a38:	e5d5221a 	ldrb	r2, [r5, #538]	; 0x21a
   15a3c:	e5d5121b 	ldrb	r1, [r5, #539]	; 0x21b
   15a40:	e5d53218 	ldrb	r3, [r5, #536]	; 0x218
   15a44:	e1a02802 	lsl	r2, r2, #16
   15a48:	e1822c01 	orr	r2, r2, r1, lsl #24
   15a4c:	e5d51219 	ldrb	r1, [r5, #537]	; 0x219
   15a50:	e1822003 	orr	r2, r2, r3
   15a54:	e59f30c8 	ldr	r3, [pc, #200]	; 15b24 <f_chmod+0x5ec>
   15a58:	e1822401 	orr	r2, r2, r1, lsl #8
   15a5c:	e1520003 	cmp	r2, r3
   15a60:	1affff5e 	bne	157e0 <f_chmod+0x2a8>
   15a64:	e5d50222 	ldrb	r0, [r5, #546]	; 0x222
   15a68:	e5d5121e 	ldrb	r1, [r5, #542]	; 0x21e
   15a6c:	e5d5e223 	ldrb	lr, [r5, #547]	; 0x223
   15a70:	e5d5c21f 	ldrb	ip, [r5, #543]	; 0x21f
   15a74:	e1a00800 	lsl	r0, r0, #16
   15a78:	e1a01801 	lsl	r1, r1, #16
   15a7c:	e5d52220 	ldrb	r2, [r5, #544]	; 0x220
   15a80:	e5d5321c 	ldrb	r3, [r5, #540]	; 0x21c
   15a84:	e180ec0e 	orr	lr, r0, lr, lsl #24
   15a88:	e181cc0c 	orr	ip, r1, ip, lsl #24
   15a8c:	e5d50221 	ldrb	r0, [r5, #545]	; 0x221
   15a90:	e5d5121d 	ldrb	r1, [r5, #541]	; 0x21d
   15a94:	e18e2002 	orr	r2, lr, r2
   15a98:	e18c3003 	orr	r3, ip, r3
   15a9c:	e1822400 	orr	r2, r2, r0, lsl #8
   15aa0:	e1833401 	orr	r3, r3, r1, lsl #8
   15aa4:	e585200c 	str	r2, [r5, #12]
   15aa8:	e5853010 	str	r3, [r5, #16]
   15aac:	eaffff4b 	b	157e0 <f_chmod+0x2a8>
   15ab0:	e2811002 	add	r1, r1, #2
   15ab4:	e08ac00c 	add	ip, sl, ip
   15ab8:	e082200a 	add	r2, r2, sl
   15abc:	e3530000 	cmp	r3, #0
   15ac0:	e5851018 	str	r1, [r5, #24]
   15ac4:	e585c024 	str	ip, [r5, #36]	; 0x24
   15ac8:	e585202c 	str	r2, [r5, #44]	; 0x2c
   15acc:	e585a020 	str	sl, [r5, #32]
   15ad0:	1afffed2 	bne	15620 <f_chmod+0xe8>
   15ad4:	e5d52062 	ldrb	r2, [r5, #98]	; 0x62
   15ad8:	e5d50063 	ldrb	r0, [r5, #99]	; 0x63
   15adc:	e1a02802 	lsl	r2, r2, #16
   15ae0:	e5d53060 	ldrb	r3, [r5, #96]	; 0x60
   15ae4:	e1820c00 	orr	r0, r2, r0, lsl #24
   15ae8:	e5d52061 	ldrb	r2, [r5, #97]	; 0x61
   15aec:	e1803003 	orr	r3, r0, r3
   15af0:	e1833402 	orr	r3, r3, r2, lsl #8
   15af4:	e1a01101 	lsl	r1, r1, #2
   15af8:	e5853028 	str	r3, [r5, #40]	; 0x28
   15afc:	e3a0b003 	mov	fp, #3
   15b00:	eaffff2b 	b	157b4 <f_chmod+0x27c>
   15b04:	e3a0b001 	mov	fp, #1
   15b08:	eaffff17 	b	1576c <f_chmod+0x234>
   15b0c:	000217dc 	ldrdeq	r1, [r2], -ip
   15b10:	00000ff5 	strdeq	r0, [r0], -r5
   15b14:	000217e4 	andeq	r1, r2, r4, ror #15
   15b18:	ffffaa55 			; <UNDEFINED> instruction: 0xffffaa55
   15b1c:	00544146 	subseq	r4, r4, r6, asr #2
   15b20:	41615252 	cmnmi	r1, r2, asr r2
   15b24:	61417272 	hvcvs	5922	; 0x1722

00015b28 <f_utime>:
   15b28:	e92d4ff0 	push	{r4, r5, r6, r7, r8, r9, sl, fp, lr}
   15b2c:	e5d03000 	ldrb	r3, [r0]
   15b30:	e24dd044 	sub	sp, sp, #68	; 0x44
   15b34:	e2433030 	sub	r3, r3, #48	; 0x30
   15b38:	e3530009 	cmp	r3, #9
   15b3c:	e1a04000 	mov	r4, r0
   15b40:	e1a06001 	mov	r6, r1
   15b44:	9a000011 	bls	15b90 <f_utime+0x68>
   15b48:	e59f759c 	ldr	r7, [pc, #1436]	; 160ec <f_utime+0x5c4>
   15b4c:	e5975000 	ldr	r5, [r7]
   15b50:	e3550000 	cmp	r5, #0
   15b54:	03a0000c 	moveq	r0, #12
   15b58:	0a00000a 	beq	15b88 <f_utime+0x60>
   15b5c:	e58d501c 	str	r5, [sp, #28]
   15b60:	e5d53000 	ldrb	r3, [r5]
   15b64:	e3530000 	cmp	r3, #0
   15b68:	0a000010 	beq	15bb0 <f_utime+0x88>
   15b6c:	e5d50001 	ldrb	r0, [r5, #1]
   15b70:	eb000797 	bl	179d4 <disk_status>
   15b74:	e3100001 	tst	r0, #1
   15b78:	1a00000c 	bne	15bb0 <f_utime+0x88>
   15b7c:	e3100004 	tst	r0, #4
   15b80:	0a000095 	beq	15ddc <f_utime+0x2b4>
   15b84:	e3a0000a 	mov	r0, #10
   15b88:	e28dd044 	add	sp, sp, #68	; 0x44
   15b8c:	e8bd8ff0 	pop	{r4, r5, r6, r7, r8, r9, sl, fp, pc}
   15b90:	e5d02001 	ldrb	r2, [r0, #1]
   15b94:	e352003a 	cmp	r2, #58	; 0x3a
   15b98:	1affffea 	bne	15b48 <f_utime+0x20>
   15b9c:	e3530000 	cmp	r3, #0
   15ba0:	13a0000b 	movne	r0, #11
   15ba4:	1afffff7 	bne	15b88 <f_utime+0x60>
   15ba8:	e2844002 	add	r4, r4, #2
   15bac:	eaffffe5 	b	15b48 <f_utime+0x20>
   15bb0:	e3a00000 	mov	r0, #0
   15bb4:	e5c50000 	strb	r0, [r5]
   15bb8:	e5c50001 	strb	r0, [r5, #1]
   15bbc:	eb000753 	bl	17910 <disk_initialize>
   15bc0:	e3100001 	tst	r0, #1
   15bc4:	13a00003 	movne	r0, #3
   15bc8:	1affffee 	bne	15b88 <f_utime+0x60>
   15bcc:	e2000004 	and	r0, r0, #4
   15bd0:	e21020ff 	ands	r2, r0, #255	; 0xff
   15bd4:	1affffea 	bne	15b84 <f_utime+0x5c>
   15bd8:	e2858034 	add	r8, r5, #52	; 0x34
   15bdc:	e3a03001 	mov	r3, #1
   15be0:	e1a01008 	mov	r1, r8
   15be4:	e5d50001 	ldrb	r0, [r5, #1]
   15be8:	eb000759 	bl	17954 <disk_read>
   15bec:	e3500000 	cmp	r0, #0
   15bf0:	13a03003 	movne	r3, #3
   15bf4:	0a000096 	beq	15e54 <f_utime+0x32c>
   15bf8:	e3a09000 	mov	r9, #0
   15bfc:	e3530003 	cmp	r3, #3
   15c00:	0a0000c4 	beq	15f18 <f_utime+0x3f0>
   15c04:	e3530000 	cmp	r3, #0
   15c08:	0a000002 	beq	15c18 <f_utime+0xf0>
   15c0c:	e3a0000d 	mov	r0, #13
   15c10:	eaffffdc 	b	15b88 <f_utime+0x60>
   15c14:	e1a09000 	mov	r9, r0
   15c18:	e5d52040 	ldrb	r2, [r5, #64]	; 0x40
   15c1c:	e5d5303f 	ldrb	r3, [r5, #63]	; 0x3f
   15c20:	e1833402 	orr	r3, r3, r2, lsl #8
   15c24:	e3530c02 	cmp	r3, #512	; 0x200
   15c28:	1afffff7 	bne	15c0c <f_utime+0xe4>
   15c2c:	e5d5204b 	ldrb	r2, [r5, #75]	; 0x4b
   15c30:	e5d5304a 	ldrb	r3, [r5, #74]	; 0x4a
   15c34:	e1933402 	orrs	r3, r3, r2, lsl #8
   15c38:	1a000007 	bne	15c5c <f_utime+0x134>
   15c3c:	e5d5205a 	ldrb	r2, [r5, #90]	; 0x5a
   15c40:	e5d5105b 	ldrb	r1, [r5, #91]	; 0x5b
   15c44:	e1a02802 	lsl	r2, r2, #16
   15c48:	e5d53058 	ldrb	r3, [r5, #88]	; 0x58
   15c4c:	e1821c01 	orr	r1, r2, r1, lsl #24
   15c50:	e5d52059 	ldrb	r2, [r5, #89]	; 0x59
   15c54:	e1813003 	orr	r3, r1, r3
   15c58:	e1833402 	orr	r3, r3, r2, lsl #8
   15c5c:	e5d52044 	ldrb	r2, [r5, #68]	; 0x44
   15c60:	e585301c 	str	r3, [r5, #28]
   15c64:	e2421001 	sub	r1, r2, #1
   15c68:	e3510001 	cmp	r1, #1
   15c6c:	e5c52003 	strb	r2, [r5, #3]
   15c70:	8affffe5 	bhi	15c0c <f_utime+0xe4>
   15c74:	e5d51041 	ldrb	r1, [r5, #65]	; 0x41
   15c78:	e3510000 	cmp	r1, #0
   15c7c:	e5c51002 	strb	r1, [r5, #2]
   15c80:	0affffe1 	beq	15c0c <f_utime+0xe4>
   15c84:	e2410001 	sub	r0, r1, #1
   15c88:	e1100001 	tst	r0, r1
   15c8c:	1affffde 	bne	15c0c <f_utime+0xe4>
   15c90:	e5d5b046 	ldrb	fp, [r5, #70]	; 0x46
   15c94:	e5d50045 	ldrb	r0, [r5, #69]	; 0x45
   15c98:	e180b40b 	orr	fp, r0, fp, lsl #8
   15c9c:	e31b000f 	tst	fp, #15
   15ca0:	e1c5b0b8 	strh	fp, [r5, #8]
   15ca4:	1affffd8 	bne	15c0c <f_utime+0xe4>
   15ca8:	e5d5c048 	ldrb	ip, [r5, #72]	; 0x48
   15cac:	e5d50047 	ldrb	r0, [r5, #71]	; 0x47
   15cb0:	e190040c 	orrs	r0, r0, ip, lsl #8
   15cb4:	1a000007 	bne	15cd8 <f_utime+0x1b0>
   15cb8:	e5d5c056 	ldrb	ip, [r5, #86]	; 0x56
   15cbc:	e5d5a057 	ldrb	sl, [r5, #87]	; 0x57
   15cc0:	e1a0c80c 	lsl	ip, ip, #16
   15cc4:	e5d50054 	ldrb	r0, [r5, #84]	; 0x54
   15cc8:	e18cac0a 	orr	sl, ip, sl, lsl #24
   15ccc:	e5d5c055 	ldrb	ip, [r5, #85]	; 0x55
   15cd0:	e18a0000 	orr	r0, sl, r0
   15cd4:	e180040c 	orr	r0, r0, ip, lsl #8
   15cd8:	e5d5a043 	ldrb	sl, [r5, #67]	; 0x43
   15cdc:	e5d5c042 	ldrb	ip, [r5, #66]	; 0x42
   15ce0:	e19cc40a 	orrs	ip, ip, sl, lsl #8
   15ce4:	0affffc8 	beq	15c0c <f_utime+0xe4>
   15ce8:	e0020392 	mul	r2, r2, r3
   15cec:	e58d200c 	str	r2, [sp, #12]
   15cf0:	e59da00c 	ldr	sl, [sp, #12]
   15cf4:	e08c222b 	add	r2, ip, fp, lsr #4
   15cf8:	e082200a 	add	r2, r2, sl
   15cfc:	e1520000 	cmp	r2, r0
   15d00:	8affffc1 	bhi	15c0c <f_utime+0xe4>
   15d04:	e0620000 	rsb	r0, r2, r0
   15d08:	e58d2000 	str	r2, [sp]
   15d0c:	e58d3008 	str	r3, [sp, #8]
   15d10:	e58dc004 	str	ip, [sp, #4]
   15d14:	eb0019db 	bl	1c488 <__aeabi_uidiv>
   15d18:	e2501000 	subs	r1, r0, #0
   15d1c:	e59d2000 	ldr	r2, [sp]
   15d20:	e59d3008 	ldr	r3, [sp, #8]
   15d24:	e59dc004 	ldr	ip, [sp, #4]
   15d28:	0affffb7 	beq	15c0c <f_utime+0xe4>
   15d2c:	e59f03bc 	ldr	r0, [pc, #956]	; 160f0 <f_utime+0x5c8>
   15d30:	e1510000 	cmp	r1, r0
   15d34:	9a0000ea 	bls	160e4 <f_utime+0x5bc>
   15d38:	e2800a0f 	add	r0, r0, #61440	; 0xf000
   15d3c:	e1510000 	cmp	r1, r0
   15d40:	93a0a002 	movls	sl, #2
   15d44:	8a0000d1 	bhi	16090 <f_utime+0x568>
   15d48:	e2811002 	add	r1, r1, #2
   15d4c:	e089c00c 	add	ip, r9, ip
   15d50:	e0822009 	add	r2, r2, r9
   15d54:	e35b0000 	cmp	fp, #0
   15d58:	e5851018 	str	r1, [r5, #24]
   15d5c:	e585c024 	str	ip, [r5, #36]	; 0x24
   15d60:	e585202c 	str	r2, [r5, #44]	; 0x2c
   15d64:	e5859020 	str	r9, [r5, #32]
   15d68:	0affffa7 	beq	15c0c <f_utime+0xe4>
   15d6c:	e59d200c 	ldr	r2, [sp, #12]
   15d70:	e35a0002 	cmp	sl, #2
   15d74:	e082c00c 	add	ip, r2, ip
   15d78:	10812081 	addne	r2, r1, r1, lsl #1
   15d7c:	12011001 	andne	r1, r1, #1
   15d80:	e585c028 	str	ip, [r5, #40]	; 0x28
   15d84:	01a01081 	lsleq	r1, r1, #1
   15d88:	108110a2 	addne	r1, r1, r2, lsr #1
   15d8c:	13a0a001 	movne	sl, #1
   15d90:	e2812f7f 	add	r2, r1, #508	; 0x1fc
   15d94:	e2822003 	add	r2, r2, #3
   15d98:	e15304a2 	cmp	r3, r2, lsr #9
   15d9c:	3affff9a 	bcc	15c0c <f_utime+0xe4>
   15da0:	e3e02000 	mvn	r2, #0
   15da4:	e3a03000 	mov	r3, #0
   15da8:	e35a0003 	cmp	sl, #3
   15dac:	e5852010 	str	r2, [r5, #16]
   15db0:	e585300c 	str	r3, [r5, #12]
   15db4:	0a000079 	beq	15fa0 <f_utime+0x478>
   15db8:	e1d720b4 	ldrh	r2, [r7, #4]
   15dbc:	e3a03000 	mov	r3, #0
   15dc0:	e2822001 	add	r2, r2, #1
   15dc4:	e6ff2072 	uxth	r2, r2
   15dc8:	e5c5a000 	strb	sl, [r5]
   15dcc:	e1c720b4 	strh	r2, [r7, #4]
   15dd0:	e1c520b6 	strh	r2, [r5, #6]
   15dd4:	e5853030 	str	r3, [r5, #48]	; 0x30
   15dd8:	e5c53004 	strb	r3, [r5, #4]
   15ddc:	e59f3310 	ldr	r3, [pc, #784]	; 160f4 <f_utime+0x5cc>
   15de0:	e1a01004 	mov	r1, r4
   15de4:	e58d3038 	str	r3, [sp, #56]	; 0x38
   15de8:	e28d001c 	add	r0, sp, #28
   15dec:	e28d3010 	add	r3, sp, #16
   15df0:	e58d3034 	str	r3, [sp, #52]	; 0x34
   15df4:	ebffe8f1 	bl	101c0 <follow_path>
   15df8:	e3500000 	cmp	r0, #0
   15dfc:	1affff61 	bne	15b88 <f_utime+0x60>
   15e00:	e59d3030 	ldr	r3, [sp, #48]	; 0x30
   15e04:	e3530000 	cmp	r3, #0
   15e08:	03a00006 	moveq	r0, #6
   15e0c:	0affff5d 	beq	15b88 <f_utime+0x60>
   15e10:	e1d610b6 	ldrh	r1, [r6, #6]
   15e14:	e59d201c 	ldr	r2, [sp, #28]
   15e18:	e5c31016 	strb	r1, [r3, #22]
   15e1c:	e1d600b6 	ldrh	r0, [r6, #6]
   15e20:	e3a01001 	mov	r1, #1
   15e24:	e1a00420 	lsr	r0, r0, #8
   15e28:	e5c30017 	strb	r0, [r3, #23]
   15e2c:	e1d6c0b4 	ldrh	ip, [r6, #4]
   15e30:	e1a00002 	mov	r0, r2
   15e34:	e5c3c018 	strb	ip, [r3, #24]
   15e38:	e1d6c0b4 	ldrh	ip, [r6, #4]
   15e3c:	e1a0c42c 	lsr	ip, ip, #8
   15e40:	e5c3c019 	strb	ip, [r3, #25]
   15e44:	e5c21004 	strb	r1, [r2, #4]
   15e48:	ebffdf66 	bl	dbe8 <sync_fs>
   15e4c:	e28dd044 	add	sp, sp, #68	; 0x44
   15e50:	e8bd8ff0 	pop	{r4, r5, r6, r7, r8, r9, sl, fp, pc}
   15e54:	e5d5a233 	ldrb	sl, [r5, #563]	; 0x233
   15e58:	e5d52232 	ldrb	r2, [r5, #562]	; 0x232
   15e5c:	e59f3294 	ldr	r3, [pc, #660]	; 160f8 <f_utime+0x5d0>
   15e60:	e182a40a 	orr	sl, r2, sl, lsl #8
   15e64:	e6bfa07a 	sxth	sl, sl
   15e68:	e15a0003 	cmp	sl, r3
   15e6c:	13a03002 	movne	r3, #2
   15e70:	1affff60 	bne	15bf8 <f_utime+0xd0>
   15e74:	e5d5206c 	ldrb	r2, [r5, #108]	; 0x6c
   15e78:	e5d5106d 	ldrb	r1, [r5, #109]	; 0x6d
   15e7c:	e1a02802 	lsl	r2, r2, #16
   15e80:	e5d5306a 	ldrb	r3, [r5, #106]	; 0x6a
   15e84:	e1821c01 	orr	r1, r2, r1, lsl #24
   15e88:	e5d5206b 	ldrb	r2, [r5, #107]	; 0x6b
   15e8c:	e1813003 	orr	r3, r1, r3
   15e90:	e1833402 	orr	r3, r3, r2, lsl #8
   15e94:	e59fb260 	ldr	fp, [pc, #608]	; 160fc <f_utime+0x5d4>
   15e98:	e3c334ff 	bic	r3, r3, #-16777216	; 0xff000000
   15e9c:	e153000b 	cmp	r3, fp
   15ea0:	0a00003c 	beq	15f98 <f_utime+0x470>
   15ea4:	e5d52088 	ldrb	r2, [r5, #136]	; 0x88
   15ea8:	e5d51089 	ldrb	r1, [r5, #137]	; 0x89
   15eac:	e1a02802 	lsl	r2, r2, #16
   15eb0:	e5d53086 	ldrb	r3, [r5, #134]	; 0x86
   15eb4:	e1821c01 	orr	r1, r2, r1, lsl #24
   15eb8:	e5d52087 	ldrb	r2, [r5, #135]	; 0x87
   15ebc:	e1813003 	orr	r3, r1, r3
   15ec0:	e1833402 	orr	r3, r3, r2, lsl #8
   15ec4:	e3c334ff 	bic	r3, r3, #-16777216	; 0xff000000
   15ec8:	e153000b 	cmp	r3, fp
   15ecc:	0affff50 	beq	15c14 <f_utime+0xec>
   15ed0:	e5d531f6 	ldrb	r3, [r5, #502]	; 0x1f6
   15ed4:	e3530000 	cmp	r3, #0
   15ed8:	0affff4b 	beq	15c0c <f_utime+0xe4>
   15edc:	e5d521fc 	ldrb	r2, [r5, #508]	; 0x1fc
   15ee0:	e5d511fd 	ldrb	r1, [r5, #509]	; 0x1fd
   15ee4:	e5d531fa 	ldrb	r3, [r5, #506]	; 0x1fa
   15ee8:	e1a02802 	lsl	r2, r2, #16
   15eec:	e1822c01 	orr	r2, r2, r1, lsl #24
   15ef0:	e5d591fb 	ldrb	r9, [r5, #507]	; 0x1fb
   15ef4:	e1823003 	orr	r3, r2, r3
   15ef8:	e1839409 	orr	r9, r3, r9, lsl #8
   15efc:	e1a02009 	mov	r2, r9
   15f00:	e5d50001 	ldrb	r0, [r5, #1]
   15f04:	e1a01008 	mov	r1, r8
   15f08:	e3a03001 	mov	r3, #1
   15f0c:	eb000690 	bl	17954 <disk_read>
   15f10:	e3500000 	cmp	r0, #0
   15f14:	0a000001 	beq	15f20 <f_utime+0x3f8>
   15f18:	e3a00001 	mov	r0, #1
   15f1c:	eaffff19 	b	15b88 <f_utime+0x60>
   15f20:	e5d52233 	ldrb	r2, [r5, #563]	; 0x233
   15f24:	e5d53232 	ldrb	r3, [r5, #562]	; 0x232
   15f28:	e1833402 	orr	r3, r3, r2, lsl #8
   15f2c:	e6bf3073 	sxth	r3, r3
   15f30:	e153000a 	cmp	r3, sl
   15f34:	1affff34 	bne	15c0c <f_utime+0xe4>
   15f38:	e5d5206c 	ldrb	r2, [r5, #108]	; 0x6c
   15f3c:	e5d5106d 	ldrb	r1, [r5, #109]	; 0x6d
   15f40:	e1a02802 	lsl	r2, r2, #16
   15f44:	e5d5306a 	ldrb	r3, [r5, #106]	; 0x6a
   15f48:	e1821c01 	orr	r1, r2, r1, lsl #24
   15f4c:	e5d5206b 	ldrb	r2, [r5, #107]	; 0x6b
   15f50:	e1813003 	orr	r3, r1, r3
   15f54:	e1833402 	orr	r3, r3, r2, lsl #8
   15f58:	e3c334ff 	bic	r3, r3, #-16777216	; 0xff000000
   15f5c:	e153000b 	cmp	r3, fp
   15f60:	0affff2c 	beq	15c18 <f_utime+0xf0>
   15f64:	e5d52088 	ldrb	r2, [r5, #136]	; 0x88
   15f68:	e5d51089 	ldrb	r1, [r5, #137]	; 0x89
   15f6c:	e1a02802 	lsl	r2, r2, #16
   15f70:	e5d53086 	ldrb	r3, [r5, #134]	; 0x86
   15f74:	e1821c01 	orr	r1, r2, r1, lsl #24
   15f78:	e5d52087 	ldrb	r2, [r5, #135]	; 0x87
   15f7c:	e1813003 	orr	r3, r1, r3
   15f80:	e1832402 	orr	r2, r3, r2, lsl #8
   15f84:	e59f3170 	ldr	r3, [pc, #368]	; 160fc <f_utime+0x5d4>
   15f88:	e3c224ff 	bic	r2, r2, #-16777216	; 0xff000000
   15f8c:	e0523003 	subs	r3, r2, r3
   15f90:	13a03001 	movne	r3, #1
   15f94:	eaffff18 	b	15bfc <f_utime+0xd4>
   15f98:	e1a03000 	mov	r3, r0
   15f9c:	eaffff15 	b	15bf8 <f_utime+0xd0>
   15fa0:	e5d51065 	ldrb	r1, [r5, #101]	; 0x65
   15fa4:	e5d52064 	ldrb	r2, [r5, #100]	; 0x64
   15fa8:	e5c53005 	strb	r3, [r5, #5]
   15fac:	e1822401 	orr	r2, r2, r1, lsl #8
   15fb0:	e0892002 	add	r2, r9, r2
   15fb4:	e1a01008 	mov	r1, r8
   15fb8:	e5852014 	str	r2, [r5, #20]
   15fbc:	e5d50001 	ldrb	r0, [r5, #1]
   15fc0:	e3a03001 	mov	r3, #1
   15fc4:	eb000662 	bl	17954 <disk_read>
   15fc8:	e3500000 	cmp	r0, #0
   15fcc:	1affff79 	bne	15db8 <f_utime+0x290>
   15fd0:	e5d51233 	ldrb	r1, [r5, #563]	; 0x233
   15fd4:	e5d52232 	ldrb	r2, [r5, #562]	; 0x232
   15fd8:	e59f3118 	ldr	r3, [pc, #280]	; 160f8 <f_utime+0x5d0>
   15fdc:	e1822401 	orr	r2, r2, r1, lsl #8
   15fe0:	e6bf2072 	sxth	r2, r2
   15fe4:	e1520003 	cmp	r2, r3
   15fe8:	1affff72 	bne	15db8 <f_utime+0x290>
   15fec:	e5d52036 	ldrb	r2, [r5, #54]	; 0x36
   15ff0:	e5d51037 	ldrb	r1, [r5, #55]	; 0x37
   15ff4:	e5d53034 	ldrb	r3, [r5, #52]	; 0x34
   15ff8:	e1a02802 	lsl	r2, r2, #16
   15ffc:	e1822c01 	orr	r2, r2, r1, lsl #24
   16000:	e5d51035 	ldrb	r1, [r5, #53]	; 0x35
   16004:	e1822003 	orr	r2, r2, r3
   16008:	e59f30f0 	ldr	r3, [pc, #240]	; 16100 <f_utime+0x5d8>
   1600c:	e1822401 	orr	r2, r2, r1, lsl #8
   16010:	e1520003 	cmp	r2, r3
   16014:	1affff67 	bne	15db8 <f_utime+0x290>
   16018:	e5d5221a 	ldrb	r2, [r5, #538]	; 0x21a
   1601c:	e5d5121b 	ldrb	r1, [r5, #539]	; 0x21b
   16020:	e5d53218 	ldrb	r3, [r5, #536]	; 0x218
   16024:	e1a02802 	lsl	r2, r2, #16
   16028:	e1822c01 	orr	r2, r2, r1, lsl #24
   1602c:	e5d51219 	ldrb	r1, [r5, #537]	; 0x219
   16030:	e1822003 	orr	r2, r2, r3
   16034:	e59f30c8 	ldr	r3, [pc, #200]	; 16104 <f_utime+0x5dc>
   16038:	e1822401 	orr	r2, r2, r1, lsl #8
   1603c:	e1520003 	cmp	r2, r3
   16040:	1affff5c 	bne	15db8 <f_utime+0x290>
   16044:	e5d50222 	ldrb	r0, [r5, #546]	; 0x222
   16048:	e5d5121e 	ldrb	r1, [r5, #542]	; 0x21e
   1604c:	e5d5e223 	ldrb	lr, [r5, #547]	; 0x223
   16050:	e5d5c21f 	ldrb	ip, [r5, #543]	; 0x21f
   16054:	e1a00800 	lsl	r0, r0, #16
   16058:	e1a01801 	lsl	r1, r1, #16
   1605c:	e5d52220 	ldrb	r2, [r5, #544]	; 0x220
   16060:	e5d5321c 	ldrb	r3, [r5, #540]	; 0x21c
   16064:	e180ec0e 	orr	lr, r0, lr, lsl #24
   16068:	e181cc0c 	orr	ip, r1, ip, lsl #24
   1606c:	e5d50221 	ldrb	r0, [r5, #545]	; 0x221
   16070:	e5d5121d 	ldrb	r1, [r5, #541]	; 0x21d
   16074:	e18e2002 	orr	r2, lr, r2
   16078:	e18c3003 	orr	r3, ip, r3
   1607c:	e1822400 	orr	r2, r2, r0, lsl #8
   16080:	e1833401 	orr	r3, r3, r1, lsl #8
   16084:	e585200c 	str	r2, [r5, #12]
   16088:	e5853010 	str	r3, [r5, #16]
   1608c:	eaffff49 	b	15db8 <f_utime+0x290>
   16090:	e2811002 	add	r1, r1, #2
   16094:	e089c00c 	add	ip, r9, ip
   16098:	e0822009 	add	r2, r2, r9
   1609c:	e35b0000 	cmp	fp, #0
   160a0:	e5851018 	str	r1, [r5, #24]
   160a4:	e585c024 	str	ip, [r5, #36]	; 0x24
   160a8:	e585202c 	str	r2, [r5, #44]	; 0x2c
   160ac:	e5859020 	str	r9, [r5, #32]
   160b0:	1afffed5 	bne	15c0c <f_utime+0xe4>
   160b4:	e5d50062 	ldrb	r0, [r5, #98]	; 0x62
   160b8:	e5d5c063 	ldrb	ip, [r5, #99]	; 0x63
   160bc:	e1a00800 	lsl	r0, r0, #16
   160c0:	e5d52060 	ldrb	r2, [r5, #96]	; 0x60
   160c4:	e180cc0c 	orr	ip, r0, ip, lsl #24
   160c8:	e5d50061 	ldrb	r0, [r5, #97]	; 0x61
   160cc:	e18c2002 	orr	r2, ip, r2
   160d0:	e1822400 	orr	r2, r2, r0, lsl #8
   160d4:	e1a01101 	lsl	r1, r1, #2
   160d8:	e5852028 	str	r2, [r5, #40]	; 0x28
   160dc:	e3a0a003 	mov	sl, #3
   160e0:	eaffff2a 	b	15d90 <f_utime+0x268>
   160e4:	e3a0a001 	mov	sl, #1
   160e8:	eaffff16 	b	15d48 <f_utime+0x220>
   160ec:	000217dc 	ldrdeq	r1, [r2], -ip
   160f0:	00000ff5 	strdeq	r0, [r0], -r5
   160f4:	000217e4 	andeq	r1, r2, r4, ror #15
   160f8:	ffffaa55 			; <UNDEFINED> instruction: 0xffffaa55
   160fc:	00544146 	subseq	r4, r4, r6, asr #2
   16100:	41615252 	cmnmi	r1, r2, asr r2
   16104:	61417272 	hvcvs	5922	; 0x1722

00016108 <f_rename>:
   16108:	e92d4ff0 	push	{r4, r5, r6, r7, r8, r9, sl, fp, lr}
   1610c:	e5d03000 	ldrb	r3, [r0]
   16110:	e24dd084 	sub	sp, sp, #132	; 0x84
   16114:	e2433030 	sub	r3, r3, #48	; 0x30
   16118:	e3530009 	cmp	r3, #9
   1611c:	e1a04000 	mov	r4, r0
   16120:	e1a06001 	mov	r6, r1
   16124:	9a000011 	bls	16170 <f_rename+0x68>
   16128:	e59f7750 	ldr	r7, [pc, #1872]	; 16880 <f_rename+0x778>
   1612c:	e5975000 	ldr	r5, [r7]
   16130:	e3550000 	cmp	r5, #0
   16134:	03a0000c 	moveq	r0, #12
   16138:	0a00000a 	beq	16168 <f_rename+0x60>
   1613c:	e58d5038 	str	r5, [sp, #56]	; 0x38
   16140:	e5d53000 	ldrb	r3, [r5]
   16144:	e3530000 	cmp	r3, #0
   16148:	0a000010 	beq	16190 <f_rename+0x88>
   1614c:	e5d50001 	ldrb	r0, [r5, #1]
   16150:	eb00061f 	bl	179d4 <disk_status>
   16154:	e3100001 	tst	r0, #1
   16158:	1a00000c 	bne	16190 <f_rename+0x88>
   1615c:	e3100004 	tst	r0, #4
   16160:	0a000095 	beq	163bc <f_rename+0x2b4>
   16164:	e3a0000a 	mov	r0, #10
   16168:	e28dd084 	add	sp, sp, #132	; 0x84
   1616c:	e8bd8ff0 	pop	{r4, r5, r6, r7, r8, r9, sl, fp, pc}
   16170:	e5d02001 	ldrb	r2, [r0, #1]
   16174:	e352003a 	cmp	r2, #58	; 0x3a
   16178:	1affffea 	bne	16128 <f_rename+0x20>
   1617c:	e3530000 	cmp	r3, #0
   16180:	13a0000b 	movne	r0, #11
   16184:	1afffff7 	bne	16168 <f_rename+0x60>
   16188:	e2844002 	add	r4, r4, #2
   1618c:	eaffffe5 	b	16128 <f_rename+0x20>
   16190:	e3a00000 	mov	r0, #0
   16194:	e5c50000 	strb	r0, [r5]
   16198:	e5c50001 	strb	r0, [r5, #1]
   1619c:	eb0005db 	bl	17910 <disk_initialize>
   161a0:	e3100001 	tst	r0, #1
   161a4:	13a00003 	movne	r0, #3
   161a8:	1affffee 	bne	16168 <f_rename+0x60>
   161ac:	e2000004 	and	r0, r0, #4
   161b0:	e21020ff 	ands	r2, r0, #255	; 0xff
   161b4:	1affffea 	bne	16164 <f_rename+0x5c>
   161b8:	e2859034 	add	r9, r5, #52	; 0x34
   161bc:	e3a03001 	mov	r3, #1
   161c0:	e1a01009 	mov	r1, r9
   161c4:	e5d50001 	ldrb	r0, [r5, #1]
   161c8:	eb0005e1 	bl	17954 <disk_read>
   161cc:	e2503000 	subs	r3, r0, #0
   161d0:	13a03003 	movne	r3, #3
   161d4:	0a0000f0 	beq	1659c <f_rename+0x494>
   161d8:	e3a08000 	mov	r8, #0
   161dc:	e3530003 	cmp	r3, #3
   161e0:	0a00011e 	beq	16660 <f_rename+0x558>
   161e4:	e3530000 	cmp	r3, #0
   161e8:	0a000002 	beq	161f8 <f_rename+0xf0>
   161ec:	e3a0000d 	mov	r0, #13
   161f0:	eaffffdc 	b	16168 <f_rename+0x60>
   161f4:	e1a08003 	mov	r8, r3
   161f8:	e5d52040 	ldrb	r2, [r5, #64]	; 0x40
   161fc:	e5d5303f 	ldrb	r3, [r5, #63]	; 0x3f
   16200:	e1833402 	orr	r3, r3, r2, lsl #8
   16204:	e3530c02 	cmp	r3, #512	; 0x200
   16208:	1afffff7 	bne	161ec <f_rename+0xe4>
   1620c:	e5d5204b 	ldrb	r2, [r5, #75]	; 0x4b
   16210:	e5d5304a 	ldrb	r3, [r5, #74]	; 0x4a
   16214:	e1933402 	orrs	r3, r3, r2, lsl #8
   16218:	1a000007 	bne	1623c <f_rename+0x134>
   1621c:	e5d5205a 	ldrb	r2, [r5, #90]	; 0x5a
   16220:	e5d5105b 	ldrb	r1, [r5, #91]	; 0x5b
   16224:	e1a02802 	lsl	r2, r2, #16
   16228:	e5d53058 	ldrb	r3, [r5, #88]	; 0x58
   1622c:	e1821c01 	orr	r1, r2, r1, lsl #24
   16230:	e5d52059 	ldrb	r2, [r5, #89]	; 0x59
   16234:	e1813003 	orr	r3, r1, r3
   16238:	e1833402 	orr	r3, r3, r2, lsl #8
   1623c:	e5d52044 	ldrb	r2, [r5, #68]	; 0x44
   16240:	e585301c 	str	r3, [r5, #28]
   16244:	e2421001 	sub	r1, r2, #1
   16248:	e3510001 	cmp	r1, #1
   1624c:	e5c52003 	strb	r2, [r5, #3]
   16250:	8affffe5 	bhi	161ec <f_rename+0xe4>
   16254:	e0020392 	mul	r2, r2, r3
   16258:	e5d51041 	ldrb	r1, [r5, #65]	; 0x41
   1625c:	e58d200c 	str	r2, [sp, #12]
   16260:	e3510000 	cmp	r1, #0
   16264:	e5c51002 	strb	r1, [r5, #2]
   16268:	0affffdf 	beq	161ec <f_rename+0xe4>
   1626c:	e2412001 	sub	r2, r1, #1
   16270:	e1120001 	tst	r2, r1
   16274:	1affffdc 	bne	161ec <f_rename+0xe4>
   16278:	e5d5b046 	ldrb	fp, [r5, #70]	; 0x46
   1627c:	e5d52045 	ldrb	r2, [r5, #69]	; 0x45
   16280:	e182b40b 	orr	fp, r2, fp, lsl #8
   16284:	e31b000f 	tst	fp, #15
   16288:	e1c5b0b8 	strh	fp, [r5, #8]
   1628c:	1affffd6 	bne	161ec <f_rename+0xe4>
   16290:	e5d50048 	ldrb	r0, [r5, #72]	; 0x48
   16294:	e5d52047 	ldrb	r2, [r5, #71]	; 0x47
   16298:	e1920400 	orrs	r0, r2, r0, lsl #8
   1629c:	1a000007 	bne	162c0 <f_rename+0x1b8>
   162a0:	e5d50056 	ldrb	r0, [r5, #86]	; 0x56
   162a4:	e5d5c057 	ldrb	ip, [r5, #87]	; 0x57
   162a8:	e1a00800 	lsl	r0, r0, #16
   162ac:	e5d52054 	ldrb	r2, [r5, #84]	; 0x54
   162b0:	e180cc0c 	orr	ip, r0, ip, lsl #24
   162b4:	e5d50055 	ldrb	r0, [r5, #85]	; 0x55
   162b8:	e18c2002 	orr	r2, ip, r2
   162bc:	e1820400 	orr	r0, r2, r0, lsl #8
   162c0:	e5d5c043 	ldrb	ip, [r5, #67]	; 0x43
   162c4:	e5d52042 	ldrb	r2, [r5, #66]	; 0x42
   162c8:	e192c40c 	orrs	ip, r2, ip, lsl #8
   162cc:	0affffc6 	beq	161ec <f_rename+0xe4>
   162d0:	e59da00c 	ldr	sl, [sp, #12]
   162d4:	e08c222b 	add	r2, ip, fp, lsr #4
   162d8:	e082200a 	add	r2, r2, sl
   162dc:	e1520000 	cmp	r2, r0
   162e0:	8affffc1 	bhi	161ec <f_rename+0xe4>
   162e4:	e0620000 	rsb	r0, r2, r0
   162e8:	e58d2000 	str	r2, [sp]
   162ec:	e58d3008 	str	r3, [sp, #8]
   162f0:	e58dc004 	str	ip, [sp, #4]
   162f4:	eb001863 	bl	1c488 <__aeabi_uidiv>
   162f8:	e2501000 	subs	r1, r0, #0
   162fc:	e59d2000 	ldr	r2, [sp]
   16300:	e59d3008 	ldr	r3, [sp, #8]
   16304:	e59dc004 	ldr	ip, [sp, #4]
   16308:	0affffb7 	beq	161ec <f_rename+0xe4>
   1630c:	e59f0570 	ldr	r0, [pc, #1392]	; 16884 <f_rename+0x77c>
   16310:	e1510000 	cmp	r1, r0
   16314:	9a000157 	bls	16878 <f_rename+0x770>
   16318:	e2800a0f 	add	r0, r0, #61440	; 0xf000
   1631c:	e1510000 	cmp	r1, r0
   16320:	93a0a002 	movls	sl, #2
   16324:	8a00013e 	bhi	16824 <f_rename+0x71c>
   16328:	e2811002 	add	r1, r1, #2
   1632c:	e088c00c 	add	ip, r8, ip
   16330:	e0822008 	add	r2, r2, r8
   16334:	e35b0000 	cmp	fp, #0
   16338:	e5851018 	str	r1, [r5, #24]
   1633c:	e585c024 	str	ip, [r5, #36]	; 0x24
   16340:	e585202c 	str	r2, [r5, #44]	; 0x2c
   16344:	e5858020 	str	r8, [r5, #32]
   16348:	0affffa7 	beq	161ec <f_rename+0xe4>
   1634c:	e59d200c 	ldr	r2, [sp, #12]
   16350:	e35a0002 	cmp	sl, #2
   16354:	e082c00c 	add	ip, r2, ip
   16358:	10812081 	addne	r2, r1, r1, lsl #1
   1635c:	12011001 	andne	r1, r1, #1
   16360:	e585c028 	str	ip, [r5, #40]	; 0x28
   16364:	01a01081 	lsleq	r1, r1, #1
   16368:	108110a2 	addne	r1, r1, r2, lsr #1
   1636c:	13a0a001 	movne	sl, #1
   16370:	e2812f7f 	add	r2, r1, #508	; 0x1fc
   16374:	e2822003 	add	r2, r2, #3
   16378:	e15304a2 	cmp	r3, r2, lsr #9
   1637c:	3affff9a 	bcc	161ec <f_rename+0xe4>
   16380:	e3e02000 	mvn	r2, #0
   16384:	e3a03000 	mov	r3, #0
   16388:	e35a0003 	cmp	sl, #3
   1638c:	e5852010 	str	r2, [r5, #16]
   16390:	e585300c 	str	r3, [r5, #12]
   16394:	0a0000e6 	beq	16734 <f_rename+0x62c>
   16398:	e1d720b4 	ldrh	r2, [r7, #4]
   1639c:	e3a03000 	mov	r3, #0
   163a0:	e2822001 	add	r2, r2, #1
   163a4:	e6ff2072 	uxth	r2, r2
   163a8:	e5c5a000 	strb	sl, [r5]
   163ac:	e1c720b4 	strh	r2, [r7, #4]
   163b0:	e1c520b6 	strh	r2, [r5, #6]
   163b4:	e5853030 	str	r3, [r5, #48]	; 0x30
   163b8:	e5c53004 	strb	r3, [r5, #4]
   163bc:	e59dc038 	ldr	ip, [sp, #56]	; 0x38
   163c0:	e59f24c0 	ldr	r2, [pc, #1216]	; 16888 <f_rename+0x780>
   163c4:	e28d3014 	add	r3, sp, #20
   163c8:	e1a01004 	mov	r1, r4
   163cc:	e28d0038 	add	r0, sp, #56	; 0x38
   163d0:	e58dc05c 	str	ip, [sp, #92]	; 0x5c
   163d4:	e58d2054 	str	r2, [sp, #84]	; 0x54
   163d8:	e58d3050 	str	r3, [sp, #80]	; 0x50
   163dc:	ebffe777 	bl	101c0 <follow_path>
   163e0:	e3500000 	cmp	r0, #0
   163e4:	1affff5f 	bne	16168 <f_rename+0x60>
   163e8:	e59d204c 	ldr	r2, [sp, #76]	; 0x4c
   163ec:	e3520000 	cmp	r2, #0
   163f0:	03a00004 	moveq	r0, #4
   163f4:	0affff5b 	beq	16168 <f_rename+0x60>
   163f8:	e282300b 	add	r3, r2, #11
   163fc:	e3130003 	tst	r3, #3
   16400:	1a00005e 	bne	16580 <f_rename+0x478>
   16404:	e592400b 	ldr	r4, [r2, #11]
   16408:	e592e00f 	ldr	lr, [r2, #15]
   1640c:	e592c013 	ldr	ip, [r2, #19]
   16410:	e5920017 	ldr	r0, [r2, #23]
   16414:	e592101b 	ldr	r1, [r2, #27]
   16418:	e5d2301f 	ldrb	r3, [r2, #31]
   1641c:	e58d4020 	str	r4, [sp, #32]
   16420:	e58de024 	str	lr, [sp, #36]	; 0x24
   16424:	e58dc028 	str	ip, [sp, #40]	; 0x28
   16428:	e58d002c 	str	r0, [sp, #44]	; 0x2c
   1642c:	e58d1030 	str	r1, [sp, #48]	; 0x30
   16430:	e5cd3034 	strb	r3, [sp, #52]	; 0x34
   16434:	e59d9038 	ldr	r9, [sp, #56]	; 0x38
   16438:	e59d803c 	ldr	r8, [sp, #60]	; 0x3c
   1643c:	e59d7040 	ldr	r7, [sp, #64]	; 0x40
   16440:	e59d5044 	ldr	r5, [sp, #68]	; 0x44
   16444:	e59d4048 	ldr	r4, [sp, #72]	; 0x48
   16448:	e59de04c 	ldr	lr, [sp, #76]	; 0x4c
   1644c:	e59dc050 	ldr	ip, [sp, #80]	; 0x50
   16450:	e59d2054 	ldr	r2, [sp, #84]	; 0x54
   16454:	e59d3058 	ldr	r3, [sp, #88]	; 0x58
   16458:	e1a01006 	mov	r1, r6
   1645c:	e28d005c 	add	r0, sp, #92	; 0x5c
   16460:	e58d905c 	str	r9, [sp, #92]	; 0x5c
   16464:	e58d8060 	str	r8, [sp, #96]	; 0x60
   16468:	e58d7064 	str	r7, [sp, #100]	; 0x64
   1646c:	e58d5068 	str	r5, [sp, #104]	; 0x68
   16470:	e58d406c 	str	r4, [sp, #108]	; 0x6c
   16474:	e58de070 	str	lr, [sp, #112]	; 0x70
   16478:	e58dc074 	str	ip, [sp, #116]	; 0x74
   1647c:	e58d2078 	str	r2, [sp, #120]	; 0x78
   16480:	e58d307c 	str	r3, [sp, #124]	; 0x7c
   16484:	ebffe74d 	bl	101c0 <follow_path>
   16488:	e3500000 	cmp	r0, #0
   1648c:	03a00008 	moveq	r0, #8
   16490:	0affff34 	beq	16168 <f_rename+0x60>
   16494:	e3500004 	cmp	r0, #4
   16498:	1affff32 	bne	16168 <f_rename+0x60>
   1649c:	e28d005c 	add	r0, sp, #92	; 0x5c
   164a0:	ebffe870 	bl	10668 <dir_register>
   164a4:	e3500000 	cmp	r0, #0
   164a8:	1affff2e 	bne	16168 <f_rename+0x60>
   164ac:	e59dc070 	ldr	ip, [sp, #112]	; 0x70
   164b0:	e28d3022 	add	r3, sp, #34	; 0x22
   164b4:	e28c200d 	add	r2, ip, #13
   164b8:	e28d0035 	add	r0, sp, #53	; 0x35
   164bc:	e4d31001 	ldrb	r1, [r3], #1
   164c0:	e1530000 	cmp	r3, r0
   164c4:	e4c21001 	strb	r1, [r2], #1
   164c8:	1afffffb 	bne	164bc <f_rename+0x3b4>
   164cc:	e5dd2020 	ldrb	r2, [sp, #32]
   164d0:	e59d0038 	ldr	r0, [sp, #56]	; 0x38
   164d4:	e3822020 	orr	r2, r2, #32
   164d8:	e3a03001 	mov	r3, #1
   164dc:	e5cc200b 	strb	r2, [ip, #11]
   164e0:	e5c03004 	strb	r3, [r0, #4]
   164e4:	e59d2040 	ldr	r2, [sp, #64]	; 0x40
   164e8:	e59d3064 	ldr	r3, [sp, #100]	; 0x64
   164ec:	e1520003 	cmp	r2, r3
   164f0:	0a00001b 	beq	16564 <f_rename+0x45c>
   164f4:	e5dc300b 	ldrb	r3, [ip, #11]
   164f8:	e3130010 	tst	r3, #16
   164fc:	0a000018 	beq	16564 <f_rename+0x45c>
   16500:	e5d01000 	ldrb	r1, [r0]
   16504:	e5dc201b 	ldrb	r2, [ip, #27]
   16508:	e5dc301a 	ldrb	r3, [ip, #26]
   1650c:	e3510003 	cmp	r1, #3
   16510:	e1833402 	orr	r3, r3, r2, lsl #8
   16514:	05dc1015 	ldrbeq	r1, [ip, #21]
   16518:	05dc2014 	ldrbeq	r2, [ip, #20]
   1651c:	01822401 	orreq	r2, r2, r1, lsl #8
   16520:	01833802 	orreq	r3, r3, r2, lsl #16
   16524:	e5902018 	ldr	r2, [r0, #24]
   16528:	e2433002 	sub	r3, r3, #2
   1652c:	e2422002 	sub	r2, r2, #2
   16530:	e1530002 	cmp	r3, r2
   16534:	2a00004b 	bcs	16668 <f_rename+0x560>
   16538:	e5d01002 	ldrb	r1, [r0, #2]
   1653c:	e590202c 	ldr	r2, [r0, #44]	; 0x2c
   16540:	e0312193 	mlas	r1, r3, r1, r2
   16544:	0a000047 	beq	16668 <f_rename+0x560>
   16548:	ebffdd71 	bl	db14 <move_window>
   1654c:	e3500000 	cmp	r0, #0
   16550:	e59d3038 	ldr	r3, [sp, #56]	; 0x38
   16554:	1affff03 	bne	16168 <f_rename+0x60>
   16558:	e5d32055 	ldrb	r2, [r3, #85]	; 0x55
   1655c:	e352002e 	cmp	r2, #46	; 0x2e
   16560:	0a000060 	beq	166e8 <f_rename+0x5e0>
   16564:	e28d0038 	add	r0, sp, #56	; 0x38
   16568:	ebffe462 	bl	f6f8 <dir_remove>
   1656c:	e3500000 	cmp	r0, #0
   16570:	1afffefc 	bne	16168 <f_rename+0x60>
   16574:	e59d0038 	ldr	r0, [sp, #56]	; 0x38
   16578:	ebffdd9a 	bl	dbe8 <sync_fs>
   1657c:	eafffef9 	b	16168 <f_rename+0x60>
   16580:	e2820020 	add	r0, r2, #32
   16584:	e28d2020 	add	r2, sp, #32
   16588:	e4d31001 	ldrb	r1, [r3], #1
   1658c:	e1530000 	cmp	r3, r0
   16590:	e4c21001 	strb	r1, [r2], #1
   16594:	1afffffb 	bne	16588 <f_rename+0x480>
   16598:	eaffffa5 	b	16434 <f_rename+0x32c>
   1659c:	e5d5b233 	ldrb	fp, [r5, #563]	; 0x233
   165a0:	e5d51232 	ldrb	r1, [r5, #562]	; 0x232
   165a4:	e59f22e0 	ldr	r2, [pc, #736]	; 1688c <f_rename+0x784>
   165a8:	e181b40b 	orr	fp, r1, fp, lsl #8
   165ac:	e6bfb07b 	sxth	fp, fp
   165b0:	e15b0002 	cmp	fp, r2
   165b4:	13a03002 	movne	r3, #2
   165b8:	1affff06 	bne	161d8 <f_rename+0xd0>
   165bc:	e5d5106c 	ldrb	r1, [r5, #108]	; 0x6c
   165c0:	e5d5006d 	ldrb	r0, [r5, #109]	; 0x6d
   165c4:	e1a01801 	lsl	r1, r1, #16
   165c8:	e5d5206a 	ldrb	r2, [r5, #106]	; 0x6a
   165cc:	e1810c00 	orr	r0, r1, r0, lsl #24
   165d0:	e5d5106b 	ldrb	r1, [r5, #107]	; 0x6b
   165d4:	e1802002 	orr	r2, r0, r2
   165d8:	e1822401 	orr	r2, r2, r1, lsl #8
   165dc:	e59fa2ac 	ldr	sl, [pc, #684]	; 16890 <f_rename+0x788>
   165e0:	e3c224ff 	bic	r2, r2, #-16777216	; 0xff000000
   165e4:	e152000a 	cmp	r2, sl
   165e8:	0afffefa 	beq	161d8 <f_rename+0xd0>
   165ec:	e5d51088 	ldrb	r1, [r5, #136]	; 0x88
   165f0:	e5d50089 	ldrb	r0, [r5, #137]	; 0x89
   165f4:	e1a01801 	lsl	r1, r1, #16
   165f8:	e5d52086 	ldrb	r2, [r5, #134]	; 0x86
   165fc:	e1810c00 	orr	r0, r1, r0, lsl #24
   16600:	e5d51087 	ldrb	r1, [r5, #135]	; 0x87
   16604:	e1802002 	orr	r2, r0, r2
   16608:	e1822401 	orr	r2, r2, r1, lsl #8
   1660c:	e3c224ff 	bic	r2, r2, #-16777216	; 0xff000000
   16610:	e152000a 	cmp	r2, sl
   16614:	0afffef6 	beq	161f4 <f_rename+0xec>
   16618:	e5d531f6 	ldrb	r3, [r5, #502]	; 0x1f6
   1661c:	e3530000 	cmp	r3, #0
   16620:	0afffef1 	beq	161ec <f_rename+0xe4>
   16624:	e5d521fc 	ldrb	r2, [r5, #508]	; 0x1fc
   16628:	e5d511fd 	ldrb	r1, [r5, #509]	; 0x1fd
   1662c:	e5d531fa 	ldrb	r3, [r5, #506]	; 0x1fa
   16630:	e1a02802 	lsl	r2, r2, #16
   16634:	e1822c01 	orr	r2, r2, r1, lsl #24
   16638:	e5d581fb 	ldrb	r8, [r5, #507]	; 0x1fb
   1663c:	e1823003 	orr	r3, r2, r3
   16640:	e1838408 	orr	r8, r3, r8, lsl #8
   16644:	e1a02008 	mov	r2, r8
   16648:	e5d50001 	ldrb	r0, [r5, #1]
   1664c:	e1a01009 	mov	r1, r9
   16650:	e3a03001 	mov	r3, #1
   16654:	eb0004be 	bl	17954 <disk_read>
   16658:	e3500000 	cmp	r0, #0
   1665c:	0a000003 	beq	16670 <f_rename+0x568>
   16660:	e3a00001 	mov	r0, #1
   16664:	eafffebf 	b	16168 <f_rename+0x60>
   16668:	e3a00002 	mov	r0, #2
   1666c:	eafffebd 	b	16168 <f_rename+0x60>
   16670:	e5d52233 	ldrb	r2, [r5, #563]	; 0x233
   16674:	e5d53232 	ldrb	r3, [r5, #562]	; 0x232
   16678:	e1833402 	orr	r3, r3, r2, lsl #8
   1667c:	e6bf3073 	sxth	r3, r3
   16680:	e153000b 	cmp	r3, fp
   16684:	1afffed8 	bne	161ec <f_rename+0xe4>
   16688:	e5d5206c 	ldrb	r2, [r5, #108]	; 0x6c
   1668c:	e5d5106d 	ldrb	r1, [r5, #109]	; 0x6d
   16690:	e1a02802 	lsl	r2, r2, #16
   16694:	e5d5306a 	ldrb	r3, [r5, #106]	; 0x6a
   16698:	e1821c01 	orr	r1, r2, r1, lsl #24
   1669c:	e5d5206b 	ldrb	r2, [r5, #107]	; 0x6b
   166a0:	e1813003 	orr	r3, r1, r3
   166a4:	e1833402 	orr	r3, r3, r2, lsl #8
   166a8:	e3c334ff 	bic	r3, r3, #-16777216	; 0xff000000
   166ac:	e153000a 	cmp	r3, sl
   166b0:	0afffed0 	beq	161f8 <f_rename+0xf0>
   166b4:	e5d52088 	ldrb	r2, [r5, #136]	; 0x88
   166b8:	e5d51089 	ldrb	r1, [r5, #137]	; 0x89
   166bc:	e1a02802 	lsl	r2, r2, #16
   166c0:	e5d53086 	ldrb	r3, [r5, #134]	; 0x86
   166c4:	e1821c01 	orr	r1, r2, r1, lsl #24
   166c8:	e5d52087 	ldrb	r2, [r5, #135]	; 0x87
   166cc:	e1813003 	orr	r3, r1, r3
   166d0:	e1832402 	orr	r2, r3, r2, lsl #8
   166d4:	e59f31b4 	ldr	r3, [pc, #436]	; 16890 <f_rename+0x788>
   166d8:	e3c224ff 	bic	r2, r2, #-16777216	; 0xff000000
   166dc:	e0523003 	subs	r3, r2, r3
   166e0:	13a03001 	movne	r3, #1
   166e4:	eafffebc 	b	161dc <f_rename+0xd4>
   166e8:	e5d32000 	ldrb	r2, [r3]
   166ec:	e3520003 	cmp	r2, #3
   166f0:	e59d2064 	ldr	r2, [sp, #100]	; 0x64
   166f4:	0a00000a 	beq	16724 <f_rename+0x61c>
   166f8:	e1a00002 	mov	r0, r2
   166fc:	e1a02820 	lsr	r2, r0, #16
   16700:	e1a0e422 	lsr	lr, r2, #8
   16704:	e1a0c420 	lsr	ip, r0, #8
   16708:	e3a01001 	mov	r1, #1
   1670c:	e5c3006e 	strb	r0, [r3, #110]	; 0x6e
   16710:	e5c32068 	strb	r2, [r3, #104]	; 0x68
   16714:	e5c3e069 	strb	lr, [r3, #105]	; 0x69
   16718:	e5c3c06f 	strb	ip, [r3, #111]	; 0x6f
   1671c:	e5c31004 	strb	r1, [r3, #4]
   16720:	eaffff8f 	b	16564 <f_rename+0x45c>
   16724:	e5931028 	ldr	r1, [r3, #40]	; 0x28
   16728:	e1520001 	cmp	r2, r1
   1672c:	1afffff1 	bne	166f8 <f_rename+0x5f0>
   16730:	eafffff1 	b	166fc <f_rename+0x5f4>
   16734:	e5d51065 	ldrb	r1, [r5, #101]	; 0x65
   16738:	e5d52064 	ldrb	r2, [r5, #100]	; 0x64
   1673c:	e5c53005 	strb	r3, [r5, #5]
   16740:	e1822401 	orr	r2, r2, r1, lsl #8
   16744:	e0882002 	add	r2, r8, r2
   16748:	e1a01009 	mov	r1, r9
   1674c:	e5852014 	str	r2, [r5, #20]
   16750:	e5d50001 	ldrb	r0, [r5, #1]
   16754:	e3a03001 	mov	r3, #1
   16758:	eb00047d 	bl	17954 <disk_read>
   1675c:	e3500000 	cmp	r0, #0
   16760:	1affff0c 	bne	16398 <f_rename+0x290>
   16764:	e5d51233 	ldrb	r1, [r5, #563]	; 0x233
   16768:	e5d52232 	ldrb	r2, [r5, #562]	; 0x232
   1676c:	e59f3118 	ldr	r3, [pc, #280]	; 1688c <f_rename+0x784>
   16770:	e1822401 	orr	r2, r2, r1, lsl #8
   16774:	e6bf2072 	sxth	r2, r2
   16778:	e1520003 	cmp	r2, r3
   1677c:	1affff05 	bne	16398 <f_rename+0x290>
   16780:	e5d52036 	ldrb	r2, [r5, #54]	; 0x36
   16784:	e5d51037 	ldrb	r1, [r5, #55]	; 0x37
   16788:	e5d53034 	ldrb	r3, [r5, #52]	; 0x34
   1678c:	e1a02802 	lsl	r2, r2, #16
   16790:	e1822c01 	orr	r2, r2, r1, lsl #24
   16794:	e5d51035 	ldrb	r1, [r5, #53]	; 0x35
   16798:	e1822003 	orr	r2, r2, r3
   1679c:	e59f30f0 	ldr	r3, [pc, #240]	; 16894 <f_rename+0x78c>
   167a0:	e1822401 	orr	r2, r2, r1, lsl #8
   167a4:	e1520003 	cmp	r2, r3
   167a8:	1afffefa 	bne	16398 <f_rename+0x290>
   167ac:	e5d5221a 	ldrb	r2, [r5, #538]	; 0x21a
   167b0:	e5d5121b 	ldrb	r1, [r5, #539]	; 0x21b
   167b4:	e5d53218 	ldrb	r3, [r5, #536]	; 0x218
   167b8:	e1a02802 	lsl	r2, r2, #16
   167bc:	e1822c01 	orr	r2, r2, r1, lsl #24
   167c0:	e5d51219 	ldrb	r1, [r5, #537]	; 0x219
   167c4:	e1822003 	orr	r2, r2, r3
   167c8:	e59f30c8 	ldr	r3, [pc, #200]	; 16898 <f_rename+0x790>
   167cc:	e1822401 	orr	r2, r2, r1, lsl #8
   167d0:	e1520003 	cmp	r2, r3
   167d4:	1afffeef 	bne	16398 <f_rename+0x290>
   167d8:	e5d50222 	ldrb	r0, [r5, #546]	; 0x222
   167dc:	e5d5121e 	ldrb	r1, [r5, #542]	; 0x21e
   167e0:	e5d5e223 	ldrb	lr, [r5, #547]	; 0x223
   167e4:	e5d5c21f 	ldrb	ip, [r5, #543]	; 0x21f
   167e8:	e1a00800 	lsl	r0, r0, #16
   167ec:	e1a01801 	lsl	r1, r1, #16
   167f0:	e5d52220 	ldrb	r2, [r5, #544]	; 0x220
   167f4:	e5d5321c 	ldrb	r3, [r5, #540]	; 0x21c
   167f8:	e180ec0e 	orr	lr, r0, lr, lsl #24
   167fc:	e181cc0c 	orr	ip, r1, ip, lsl #24
   16800:	e5d50221 	ldrb	r0, [r5, #545]	; 0x221
   16804:	e5d5121d 	ldrb	r1, [r5, #541]	; 0x21d
   16808:	e18e2002 	orr	r2, lr, r2
   1680c:	e18c3003 	orr	r3, ip, r3
   16810:	e1822400 	orr	r2, r2, r0, lsl #8
   16814:	e1833401 	orr	r3, r3, r1, lsl #8
   16818:	e585200c 	str	r2, [r5, #12]
   1681c:	e5853010 	str	r3, [r5, #16]
   16820:	eafffedc 	b	16398 <f_rename+0x290>
   16824:	e2811002 	add	r1, r1, #2
   16828:	e088c00c 	add	ip, r8, ip
   1682c:	e0822008 	add	r2, r2, r8
   16830:	e35b0000 	cmp	fp, #0
   16834:	e5851018 	str	r1, [r5, #24]
   16838:	e585c024 	str	ip, [r5, #36]	; 0x24
   1683c:	e585202c 	str	r2, [r5, #44]	; 0x2c
   16840:	e5858020 	str	r8, [r5, #32]
   16844:	1afffe68 	bne	161ec <f_rename+0xe4>
   16848:	e5d50062 	ldrb	r0, [r5, #98]	; 0x62
   1684c:	e5d5c063 	ldrb	ip, [r5, #99]	; 0x63
   16850:	e1a00800 	lsl	r0, r0, #16
   16854:	e5d52060 	ldrb	r2, [r5, #96]	; 0x60
   16858:	e180cc0c 	orr	ip, r0, ip, lsl #24
   1685c:	e5d50061 	ldrb	r0, [r5, #97]	; 0x61
   16860:	e18c2002 	orr	r2, ip, r2
   16864:	e1822400 	orr	r2, r2, r0, lsl #8
   16868:	e1a01101 	lsl	r1, r1, #2
   1686c:	e5852028 	str	r2, [r5, #40]	; 0x28
   16870:	e3a0a003 	mov	sl, #3
   16874:	eafffebd 	b	16370 <f_rename+0x268>
   16878:	e3a0a001 	mov	sl, #1
   1687c:	eafffea9 	b	16328 <f_rename+0x220>
   16880:	000217dc 	ldrdeq	r1, [r2], -ip
   16884:	00000ff5 	strdeq	r0, [r0], -r5
   16888:	000217e4 	andeq	r1, r2, r4, ror #15
   1688c:	ffffaa55 			; <UNDEFINED> instruction: 0xffffaa55
   16890:	00544146 	subseq	r4, r4, r6, asr #2
   16894:	41615252 	cmnmi	r1, r2, asr r2
   16898:	61417272 	hvcvs	5922	; 0x1722

0001689c <f_gets>:
   1689c:	e92d4ff0 	push	{r4, r5, r6, r7, r8, r9, sl, fp, lr}
   168a0:	e1a08000 	mov	r8, r0
   168a4:	e24dd00c 	sub	sp, sp, #12
   168a8:	e1a04002 	mov	r4, r2
   168ac:	e2419001 	sub	r9, r1, #1
   168b0:	e1a06000 	mov	r6, r0
   168b4:	e2827024 	add	r7, r2, #36	; 0x24
   168b8:	e3a05000 	mov	r5, #0
   168bc:	e1550009 	cmp	r5, r9
   168c0:	aa000007 	bge	168e4 <f_gets+0x48>
   168c4:	e3540000 	cmp	r4, #0
   168c8:	0a000005 	beq	168e4 <f_gets+0x48>
   168cc:	e5943000 	ldr	r3, [r4]
   168d0:	e3530000 	cmp	r3, #0
   168d4:	0a000002 	beq	168e4 <f_gets+0x48>
   168d8:	e5d32000 	ldrb	r2, [r3]
   168dc:	e3520000 	cmp	r2, #0
   168e0:	1a000006 	bne	16900 <f_gets+0x64>
   168e4:	e3a03000 	mov	r3, #0
   168e8:	e1550003 	cmp	r5, r3
   168ec:	11a00008 	movne	r0, r8
   168f0:	01a00003 	moveq	r0, r3
   168f4:	e5c63000 	strb	r3, [r6]
   168f8:	e28dd00c 	add	sp, sp, #12
   168fc:	e8bd8ff0 	pop	{r4, r5, r6, r7, r8, r9, sl, fp, pc}
   16900:	e1d310b6 	ldrh	r1, [r3, #6]
   16904:	e1d420b4 	ldrh	r2, [r4, #4]
   16908:	e1510002 	cmp	r1, r2
   1690c:	1afffff4 	bne	168e4 <f_gets+0x48>
   16910:	e5d30001 	ldrb	r0, [r3, #1]
   16914:	eb00042e 	bl	179d4 <disk_status>
   16918:	e3100001 	tst	r0, #1
   1691c:	1afffff0 	bne	168e4 <f_gets+0x48>
   16920:	e5d40006 	ldrb	r0, [r4, #6]
   16924:	e3100080 	tst	r0, #128	; 0x80
   16928:	1affffed 	bne	168e4 <f_gets+0x48>
   1692c:	e3100001 	tst	r0, #1
   16930:	0affffeb 	beq	168e4 <f_gets+0x48>
   16934:	e5943008 	ldr	r3, [r4, #8]
   16938:	e594200c 	ldr	r2, [r4, #12]
   1693c:	e1520003 	cmp	r2, r3
   16940:	0affffe7 	beq	168e4 <f_gets+0x48>
   16944:	e1a02b83 	lsl	r2, r3, #23
   16948:	e1b02ba2 	lsrs	r2, r2, #23
   1694c:	1a00002b 	bne	16a00 <f_gets+0x164>
   16950:	e594c000 	ldr	ip, [r4]
   16954:	e5dc2002 	ldrb	r2, [ip, #2]
   16958:	e2422001 	sub	r2, r2, #1
   1695c:	e00224a3 	and	r2, r2, r3, lsr #9
   16960:	e212b0ff 	ands	fp, r2, #255	; 0xff
   16964:	0a000031 	beq	16a30 <f_gets+0x194>
   16968:	e5943014 	ldr	r3, [r4, #20]
   1696c:	e59c2018 	ldr	r2, [ip, #24]
   16970:	e2433002 	sub	r3, r3, #2
   16974:	e2422002 	sub	r2, r2, #2
   16978:	e1530002 	cmp	r3, r2
   1697c:	2a000040 	bcs	16a84 <f_gets+0x1e8>
   16980:	e5dca002 	ldrb	sl, [ip, #2]
   16984:	e59c102c 	ldr	r1, [ip, #44]	; 0x2c
   16988:	e03a1a93 	mlas	sl, r3, sl, r1
   1698c:	0a00003c 	beq	16a84 <f_gets+0x1e8>
   16990:	e5942018 	ldr	r2, [r4, #24]
   16994:	e08aa00b 	add	sl, sl, fp
   16998:	e15a0002 	cmp	sl, r2
   1699c:	0a000013 	beq	169f0 <f_gets+0x154>
   169a0:	e5d43006 	ldrb	r3, [r4, #6]
   169a4:	e3130040 	tst	r3, #64	; 0x40
   169a8:	0a000009 	beq	169d4 <f_gets+0x138>
   169ac:	e3a03001 	mov	r3, #1
   169b0:	e5dc0001 	ldrb	r0, [ip, #1]
   169b4:	e1a01007 	mov	r1, r7
   169b8:	eb000403 	bl	179cc <disk_write>
   169bc:	e3500000 	cmp	r0, #0
   169c0:	e5d43006 	ldrb	r3, [r4, #6]
   169c4:	1a00002f 	bne	16a88 <f_gets+0x1ec>
   169c8:	e3c33040 	bic	r3, r3, #64	; 0x40
   169cc:	e594c000 	ldr	ip, [r4]
   169d0:	e5c43006 	strb	r3, [r4, #6]
   169d4:	e5dc0001 	ldrb	r0, [ip, #1]
   169d8:	e1a01007 	mov	r1, r7
   169dc:	e1a0200a 	mov	r2, sl
   169e0:	e3a03001 	mov	r3, #1
   169e4:	eb0003da 	bl	17954 <disk_read>
   169e8:	e3500000 	cmp	r0, #0
   169ec:	1a000024 	bne	16a84 <f_gets+0x1e8>
   169f0:	e5943008 	ldr	r3, [r4, #8]
   169f4:	e584a018 	str	sl, [r4, #24]
   169f8:	e1a02b83 	lsl	r2, r3, #23
   169fc:	e1a02ba2 	lsr	r2, r2, #23
   16a00:	e0842002 	add	r2, r4, r2
   16a04:	e5d21024 	ldrb	r1, [r2, #36]	; 0x24
   16a08:	e2833001 	add	r3, r3, #1
   16a0c:	e351000d 	cmp	r1, #13
   16a10:	e5cd1000 	strb	r1, [sp]
   16a14:	e5843008 	str	r3, [r4, #8]
   16a18:	0affffa7 	beq	168bc <f_gets+0x20>
   16a1c:	e351000a 	cmp	r1, #10
   16a20:	e4c61001 	strb	r1, [r6], #1
   16a24:	e2855001 	add	r5, r5, #1
   16a28:	1affffa3 	bne	168bc <f_gets+0x20>
   16a2c:	eaffffac 	b	168e4 <f_gets+0x48>
   16a30:	e3530000 	cmp	r3, #0
   16a34:	1a000008 	bne	16a5c <f_gets+0x1c0>
   16a38:	e5940010 	ldr	r0, [r4, #16]
   16a3c:	e3500001 	cmp	r0, #1
   16a40:	9a000017 	bls	16aa4 <f_gets+0x208>
   16a44:	e3700001 	cmn	r0, #1
   16a48:	0a00000d 	beq	16a84 <f_gets+0x1e8>
   16a4c:	e594c000 	ldr	ip, [r4]
   16a50:	e5840014 	str	r0, [r4, #20]
   16a54:	e1a03000 	mov	r3, r0
   16a58:	eaffffc3 	b	1696c <f_gets+0xd0>
   16a5c:	e5941014 	ldr	r1, [r4, #20]
   16a60:	e3510001 	cmp	r1, #1
   16a64:	9a000002 	bls	16a74 <f_gets+0x1d8>
   16a68:	e59c3018 	ldr	r3, [ip, #24]
   16a6c:	e1510003 	cmp	r1, r3
   16a70:	3a000008 	bcc	16a98 <f_gets+0x1fc>
   16a74:	e1e00c80 	mvn	r0, r0, lsl #25
   16a78:	e1e00ca0 	mvn	r0, r0, lsr #25
   16a7c:	e5c40006 	strb	r0, [r4, #6]
   16a80:	eaffff97 	b	168e4 <f_gets+0x48>
   16a84:	e5d43006 	ldrb	r3, [r4, #6]
   16a88:	e1e03c83 	mvn	r3, r3, lsl #25
   16a8c:	e1e03ca3 	mvn	r3, r3, lsr #25
   16a90:	e5c43006 	strb	r3, [r4, #6]
   16a94:	eaffff92 	b	168e4 <f_gets+0x48>
   16a98:	e1a0000c 	mov	r0, ip
   16a9c:	ebffe04d 	bl	ebd8 <get_fat.part.5>
   16aa0:	eaffffe5 	b	16a3c <f_gets+0x1a0>
   16aa4:	e5d40006 	ldrb	r0, [r4, #6]
   16aa8:	eafffff1 	b	16a74 <f_gets+0x1d8>

00016aac <f_putc>:
   16aac:	e92d4070 	push	{r4, r5, r6, lr}
   16ab0:	e350000a 	cmp	r0, #10
   16ab4:	e24dd010 	sub	sp, sp, #16
   16ab8:	e1a05000 	mov	r5, r0
   16abc:	e1a04001 	mov	r4, r1
   16ac0:	0a000056 	beq	16c20 <f_putc+0x174>
   16ac4:	e3540000 	cmp	r4, #0
   16ac8:	e5cd5008 	strb	r5, [sp, #8]
   16acc:	0a000005 	beq	16ae8 <f_putc+0x3c>
   16ad0:	e5943000 	ldr	r3, [r4]
   16ad4:	e3530000 	cmp	r3, #0
   16ad8:	0a000002 	beq	16ae8 <f_putc+0x3c>
   16adc:	e5d32000 	ldrb	r2, [r3]
   16ae0:	e3520000 	cmp	r2, #0
   16ae4:	1a000002 	bne	16af4 <f_putc+0x48>
   16ae8:	e3e00000 	mvn	r0, #0
   16aec:	e28dd010 	add	sp, sp, #16
   16af0:	e8bd8070 	pop	{r4, r5, r6, pc}
   16af4:	e1d310b6 	ldrh	r1, [r3, #6]
   16af8:	e1d420b4 	ldrh	r2, [r4, #4]
   16afc:	e1510002 	cmp	r1, r2
   16b00:	1afffff8 	bne	16ae8 <f_putc+0x3c>
   16b04:	e5d30001 	ldrb	r0, [r3, #1]
   16b08:	eb0003b1 	bl	179d4 <disk_status>
   16b0c:	e2100001 	ands	r0, r0, #1
   16b10:	1afffff4 	bne	16ae8 <f_putc+0x3c>
   16b14:	e5d43006 	ldrb	r3, [r4, #6]
   16b18:	e3130080 	tst	r3, #128	; 0x80
   16b1c:	1afffff1 	bne	16ae8 <f_putc+0x3c>
   16b20:	e3130002 	tst	r3, #2
   16b24:	0affffef 	beq	16ae8 <f_putc+0x3c>
   16b28:	e594600c 	ldr	r6, [r4, #12]
   16b2c:	e5941008 	ldr	r1, [r4, #8]
   16b30:	e3760001 	cmn	r6, #1
   16b34:	2a000032 	bcs	16c04 <f_putc+0x158>
   16b38:	e1a02b81 	lsl	r2, r1, #23
   16b3c:	e1b02ba2 	lsrs	r2, r2, #23
   16b40:	1a000028 	bne	16be8 <f_putc+0x13c>
   16b44:	e5940000 	ldr	r0, [r4]
   16b48:	e5d02002 	ldrb	r2, [r0, #2]
   16b4c:	e2422001 	sub	r2, r2, #1
   16b50:	e00224a1 	and	r2, r2, r1, lsr #9
   16b54:	e21250ff 	ands	r5, r2, #255	; 0xff
   16b58:	1a00000a 	bne	16b88 <f_putc+0xdc>
   16b5c:	e3510000 	cmp	r1, #0
   16b60:	1a000043 	bne	16c74 <f_putc+0x1c8>
   16b64:	e594c010 	ldr	ip, [r4, #16]
   16b68:	e35c0000 	cmp	ip, #0
   16b6c:	0a00004b 	beq	16ca0 <f_putc+0x1f4>
   16b70:	e35c0001 	cmp	ip, #1
   16b74:	0a000058 	beq	16cdc <f_putc+0x230>
   16b78:	e37c0001 	cmn	ip, #1
   16b7c:	15940000 	ldrne	r0, [r4]
   16b80:	1584c014 	strne	ip, [r4, #20]
   16b84:	0a000054 	beq	16cdc <f_putc+0x230>
   16b88:	e3130040 	tst	r3, #64	; 0x40
   16b8c:	1a00002c 	bne	16c44 <f_putc+0x198>
   16b90:	e5942014 	ldr	r2, [r4, #20]
   16b94:	e5901018 	ldr	r1, [r0, #24]
   16b98:	e2422002 	sub	r2, r2, #2
   16b9c:	e2411002 	sub	r1, r1, #2
   16ba0:	e1520001 	cmp	r2, r1
   16ba4:	2a00004c 	bcs	16cdc <f_putc+0x230>
   16ba8:	e5d0c002 	ldrb	ip, [r0, #2]
   16bac:	e590102c 	ldr	r1, [r0, #44]	; 0x2c
   16bb0:	e032129c 	mlas	r2, ip, r2, r1
   16bb4:	0a000048 	beq	16cdc <f_putc+0x230>
   16bb8:	e5946018 	ldr	r6, [r4, #24]
   16bbc:	e0855002 	add	r5, r5, r2
   16bc0:	e1550006 	cmp	r5, r6
   16bc4:	e5941008 	ldr	r1, [r4, #8]
   16bc8:	e594600c 	ldr	r6, [r4, #12]
   16bcc:	0a000001 	beq	16bd8 <f_putc+0x12c>
   16bd0:	e1510006 	cmp	r1, r6
   16bd4:	3a000035 	bcc	16cb0 <f_putc+0x204>
   16bd8:	e1a02b81 	lsl	r2, r1, #23
   16bdc:	e5845018 	str	r5, [r4, #24]
   16be0:	e5dd5008 	ldrb	r5, [sp, #8]
   16be4:	e1a02ba2 	lsr	r2, r2, #23
   16be8:	e0842002 	add	r2, r4, r2
   16bec:	e3833040 	orr	r3, r3, #64	; 0x40
   16bf0:	e2811001 	add	r1, r1, #1
   16bf4:	e5c25024 	strb	r5, [r2, #36]	; 0x24
   16bf8:	e3a00001 	mov	r0, #1
   16bfc:	e5c43006 	strb	r3, [r4, #6]
   16c00:	e5841008 	str	r1, [r4, #8]
   16c04:	e1560001 	cmp	r6, r1
   16c08:	3584100c 	strcc	r1, [r4, #12]
   16c0c:	e3833020 	orr	r3, r3, #32
   16c10:	e3500001 	cmp	r0, #1
   16c14:	e5c43006 	strb	r3, [r4, #6]
   16c18:	0affffb3 	beq	16aec <f_putc+0x40>
   16c1c:	eaffffb1 	b	16ae8 <f_putc+0x3c>
   16c20:	e28d1010 	add	r1, sp, #16
   16c24:	e3a0300d 	mov	r3, #13
   16c28:	e5613010 	strb	r3, [r1, #-16]!
   16c2c:	e1a00004 	mov	r0, r4
   16c30:	e1a0100d 	mov	r1, sp
   16c34:	e3a02001 	mov	r2, #1
   16c38:	e28d3008 	add	r3, sp, #8
   16c3c:	ebffef5c 	bl	129b4 <f_write>
   16c40:	eaffff9f 	b	16ac4 <f_putc+0x18>
   16c44:	e3a03001 	mov	r3, #1
   16c48:	e5d00001 	ldrb	r0, [r0, #1]
   16c4c:	e2841024 	add	r1, r4, #36	; 0x24
   16c50:	e5942018 	ldr	r2, [r4, #24]
   16c54:	eb00035c 	bl	179cc <disk_write>
   16c58:	e3500000 	cmp	r0, #0
   16c5c:	e5d43006 	ldrb	r3, [r4, #6]
   16c60:	1a00001d 	bne	16cdc <f_putc+0x230>
   16c64:	e20330bf 	and	r3, r3, #191	; 0xbf
   16c68:	e5940000 	ldr	r0, [r4]
   16c6c:	e5c43006 	strb	r3, [r4, #6]
   16c70:	eaffffc6 	b	16b90 <f_putc+0xe4>
   16c74:	e5941014 	ldr	r1, [r4, #20]
   16c78:	ebffe110 	bl	f0c0 <create_chain>
   16c7c:	e1a0c000 	mov	ip, r0
   16c80:	e35c0000 	cmp	ip, #0
   16c84:	15d43006 	ldrbne	r3, [r4, #6]
   16c88:	1affffb8 	bne	16b70 <f_putc+0xc4>
   16c8c:	e1a0000c 	mov	r0, ip
   16c90:	e5941008 	ldr	r1, [r4, #8]
   16c94:	e594600c 	ldr	r6, [r4, #12]
   16c98:	e5d43006 	ldrb	r3, [r4, #6]
   16c9c:	eaffffd8 	b	16c04 <f_putc+0x158>
   16ca0:	ebffe106 	bl	f0c0 <create_chain>
   16ca4:	e1a0c000 	mov	ip, r0
   16ca8:	e5840010 	str	r0, [r4, #16]
   16cac:	eafffff3 	b	16c80 <f_putc+0x1d4>
   16cb0:	e5d00001 	ldrb	r0, [r0, #1]
   16cb4:	e2841024 	add	r1, r4, #36	; 0x24
   16cb8:	e1a02005 	mov	r2, r5
   16cbc:	e3a03001 	mov	r3, #1
   16cc0:	eb000323 	bl	17954 <disk_read>
   16cc4:	e3500000 	cmp	r0, #0
   16cc8:	05941008 	ldreq	r1, [r4, #8]
   16ccc:	0594600c 	ldreq	r6, [r4, #12]
   16cd0:	05d43006 	ldrbeq	r3, [r4, #6]
   16cd4:	0affffbf 	beq	16bd8 <f_putc+0x12c>
   16cd8:	e5d43006 	ldrb	r3, [r4, #6]
   16cdc:	e1e03c83 	mvn	r3, r3, lsl #25
   16ce0:	e1e03ca3 	mvn	r3, r3, lsr #25
   16ce4:	e5c43006 	strb	r3, [r4, #6]
   16ce8:	eaffff7e 	b	16ae8 <f_putc+0x3c>

00016cec <f_puts>:
   16cec:	e92d47f0 	push	{r4, r5, r6, r7, r8, r9, sl, lr}
   16cf0:	e5d05000 	ldrb	r5, [r0]
   16cf4:	e24dd010 	sub	sp, sp, #16
   16cf8:	e3550000 	cmp	r5, #0
   16cfc:	e1a04001 	mov	r4, r1
   16d00:	0a000092 	beq	16f50 <f_puts+0x264>
   16d04:	e1a07000 	mov	r7, r0
   16d08:	e3a06000 	mov	r6, #0
   16d0c:	e3a0900d 	mov	r9, #13
   16d10:	e2818024 	add	r8, r1, #36	; 0x24
   16d14:	e355000a 	cmp	r5, #10
   16d18:	0a00005b 	beq	16e8c <f_puts+0x1a0>
   16d1c:	e3540000 	cmp	r4, #0
   16d20:	e5cd5008 	strb	r5, [sp, #8]
   16d24:	0a000005 	beq	16d40 <f_puts+0x54>
   16d28:	e5943000 	ldr	r3, [r4]
   16d2c:	e3530000 	cmp	r3, #0
   16d30:	0a000002 	beq	16d40 <f_puts+0x54>
   16d34:	e5d32000 	ldrb	r2, [r3]
   16d38:	e3520000 	cmp	r2, #0
   16d3c:	1a000002 	bne	16d4c <f_puts+0x60>
   16d40:	e3e00000 	mvn	r0, #0
   16d44:	e28dd010 	add	sp, sp, #16
   16d48:	e8bd87f0 	pop	{r4, r5, r6, r7, r8, r9, sl, pc}
   16d4c:	e1d310b6 	ldrh	r1, [r3, #6]
   16d50:	e1d420b4 	ldrh	r2, [r4, #4]
   16d54:	e1510002 	cmp	r1, r2
   16d58:	1afffff8 	bne	16d40 <f_puts+0x54>
   16d5c:	e5d30001 	ldrb	r0, [r3, #1]
   16d60:	eb00031b 	bl	179d4 <disk_status>
   16d64:	e2100001 	ands	r0, r0, #1
   16d68:	1afffff4 	bne	16d40 <f_puts+0x54>
   16d6c:	e5d4c006 	ldrb	ip, [r4, #6]
   16d70:	e31c0080 	tst	ip, #128	; 0x80
   16d74:	1afffff1 	bne	16d40 <f_puts+0x54>
   16d78:	e31c0002 	tst	ip, #2
   16d7c:	0affffef 	beq	16d40 <f_puts+0x54>
   16d80:	e594a00c 	ldr	sl, [r4, #12]
   16d84:	e5943008 	ldr	r3, [r4, #8]
   16d88:	e37a0001 	cmn	sl, #1
   16d8c:	2a000032 	bcs	16e5c <f_puts+0x170>
   16d90:	e1a02b83 	lsl	r2, r3, #23
   16d94:	e1b02ba2 	lsrs	r2, r2, #23
   16d98:	1a000028 	bne	16e40 <f_puts+0x154>
   16d9c:	e5941000 	ldr	r1, [r4]
   16da0:	e5d15002 	ldrb	r5, [r1, #2]
   16da4:	e2455001 	sub	r5, r5, #1
   16da8:	e00554a3 	and	r5, r5, r3, lsr #9
   16dac:	e21550ff 	ands	r5, r5, #255	; 0xff
   16db0:	1a00000a 	bne	16de0 <f_puts+0xf4>
   16db4:	e3530000 	cmp	r3, #0
   16db8:	1a000046 	bne	16ed8 <f_puts+0x1ec>
   16dbc:	e5940010 	ldr	r0, [r4, #16]
   16dc0:	e3500000 	cmp	r0, #0
   16dc4:	0a000051 	beq	16f10 <f_puts+0x224>
   16dc8:	e3500001 	cmp	r0, #1
   16dcc:	0a00004b 	beq	16f00 <f_puts+0x214>
   16dd0:	e3700001 	cmn	r0, #1
   16dd4:	0a000049 	beq	16f00 <f_puts+0x214>
   16dd8:	e5941000 	ldr	r1, [r4]
   16ddc:	e5840014 	str	r0, [r4, #20]
   16de0:	e31c0040 	tst	ip, #64	; 0x40
   16de4:	1a00002f 	bne	16ea8 <f_puts+0x1bc>
   16de8:	e5943014 	ldr	r3, [r4, #20]
   16dec:	e5912018 	ldr	r2, [r1, #24]
   16df0:	e2433002 	sub	r3, r3, #2
   16df4:	e2422002 	sub	r2, r2, #2
   16df8:	e1530002 	cmp	r3, r2
   16dfc:	2a00003f 	bcs	16f00 <f_puts+0x214>
   16e00:	e5d10002 	ldrb	r0, [r1, #2]
   16e04:	e591202c 	ldr	r2, [r1, #44]	; 0x2c
   16e08:	e0332390 	mlas	r3, r0, r3, r2
   16e0c:	0a00003b 	beq	16f00 <f_puts+0x214>
   16e10:	e594a018 	ldr	sl, [r4, #24]
   16e14:	e0855003 	add	r5, r5, r3
   16e18:	e155000a 	cmp	r5, sl
   16e1c:	e5943008 	ldr	r3, [r4, #8]
   16e20:	e594a00c 	ldr	sl, [r4, #12]
   16e24:	0a000001 	beq	16e30 <f_puts+0x144>
   16e28:	e153000a 	cmp	r3, sl
   16e2c:	3a00003c 	bcc	16f24 <f_puts+0x238>
   16e30:	e1a02b83 	lsl	r2, r3, #23
   16e34:	e5845018 	str	r5, [r4, #24]
   16e38:	e5dd5008 	ldrb	r5, [sp, #8]
   16e3c:	e1a02ba2 	lsr	r2, r2, #23
   16e40:	e0842002 	add	r2, r4, r2
   16e44:	e38cc040 	orr	ip, ip, #64	; 0x40
   16e48:	e2833001 	add	r3, r3, #1
   16e4c:	e5c25024 	strb	r5, [r2, #36]	; 0x24
   16e50:	e3a00001 	mov	r0, #1
   16e54:	e5c4c006 	strb	ip, [r4, #6]
   16e58:	e5843008 	str	r3, [r4, #8]
   16e5c:	e15a0003 	cmp	sl, r3
   16e60:	3584300c 	strcc	r3, [r4, #12]
   16e64:	e38cc020 	orr	ip, ip, #32
   16e68:	e3500001 	cmp	r0, #1
   16e6c:	e5c4c006 	strb	ip, [r4, #6]
   16e70:	1affffb2 	bne	16d40 <f_puts+0x54>
   16e74:	e5f75001 	ldrb	r5, [r7, #1]!
   16e78:	e2866001 	add	r6, r6, #1
   16e7c:	e3550000 	cmp	r5, #0
   16e80:	1affffa3 	bne	16d14 <f_puts+0x28>
   16e84:	e1a00006 	mov	r0, r6
   16e88:	eaffffad 	b	16d44 <f_puts+0x58>
   16e8c:	e1a00004 	mov	r0, r4
   16e90:	e1a0100d 	mov	r1, sp
   16e94:	e3a02001 	mov	r2, #1
   16e98:	e28d3008 	add	r3, sp, #8
   16e9c:	e5cd9000 	strb	r9, [sp]
   16ea0:	ebffeec3 	bl	129b4 <f_write>
   16ea4:	eaffff9c 	b	16d1c <f_puts+0x30>
   16ea8:	e5d10001 	ldrb	r0, [r1, #1]
   16eac:	e5942018 	ldr	r2, [r4, #24]
   16eb0:	e1a01008 	mov	r1, r8
   16eb4:	e3a03001 	mov	r3, #1
   16eb8:	eb0002c3 	bl	179cc <disk_write>
   16ebc:	e3500000 	cmp	r0, #0
   16ec0:	1a000024 	bne	16f58 <f_puts+0x26c>
   16ec4:	e5d4c006 	ldrb	ip, [r4, #6]
   16ec8:	e5941000 	ldr	r1, [r4]
   16ecc:	e20cc0bf 	and	ip, ip, #191	; 0xbf
   16ed0:	e5c4c006 	strb	ip, [r4, #6]
   16ed4:	eaffffc3 	b	16de8 <f_puts+0xfc>
   16ed8:	e1a00001 	mov	r0, r1
   16edc:	e5941014 	ldr	r1, [r4, #20]
   16ee0:	ebffe076 	bl	f0c0 <create_chain>
   16ee4:	e3500000 	cmp	r0, #0
   16ee8:	15d4c006 	ldrbne	ip, [r4, #6]
   16eec:	1affffb5 	bne	16dc8 <f_puts+0xdc>
   16ef0:	e5943008 	ldr	r3, [r4, #8]
   16ef4:	e594a00c 	ldr	sl, [r4, #12]
   16ef8:	e5d4c006 	ldrb	ip, [r4, #6]
   16efc:	eaffffd6 	b	16e5c <f_puts+0x170>
   16f00:	e1e0cc8c 	mvn	ip, ip, lsl #25
   16f04:	e1e0ccac 	mvn	ip, ip, lsr #25
   16f08:	e5c4c006 	strb	ip, [r4, #6]
   16f0c:	eaffff8b 	b	16d40 <f_puts+0x54>
   16f10:	e1a00001 	mov	r0, r1
   16f14:	e1a01003 	mov	r1, r3
   16f18:	ebffe068 	bl	f0c0 <create_chain>
   16f1c:	e5840010 	str	r0, [r4, #16]
   16f20:	eaffffef 	b	16ee4 <f_puts+0x1f8>
   16f24:	e5d10001 	ldrb	r0, [r1, #1]
   16f28:	e1a02005 	mov	r2, r5
   16f2c:	e1a01008 	mov	r1, r8
   16f30:	e3a03001 	mov	r3, #1
   16f34:	eb000286 	bl	17954 <disk_read>
   16f38:	e3500000 	cmp	r0, #0
   16f3c:	1a000005 	bne	16f58 <f_puts+0x26c>
   16f40:	e5943008 	ldr	r3, [r4, #8]
   16f44:	e594a00c 	ldr	sl, [r4, #12]
   16f48:	e5d4c006 	ldrb	ip, [r4, #6]
   16f4c:	eaffffb7 	b	16e30 <f_puts+0x144>
   16f50:	e1a00005 	mov	r0, r5
   16f54:	eaffff7a 	b	16d44 <f_puts+0x58>
   16f58:	e5d43006 	ldrb	r3, [r4, #6]
   16f5c:	e1e03c83 	mvn	r3, r3, lsl #25
   16f60:	e1e03ca3 	mvn	r3, r3, lsr #25
   16f64:	e5c43006 	strb	r3, [r4, #6]
   16f68:	eaffff74 	b	16d40 <f_puts+0x54>

00016f6c <f_printf>:
   16f6c:	e92d000e 	push	{r1, r2, r3}
   16f70:	e92d4ff0 	push	{r4, r5, r6, r7, r8, r9, sl, fp, lr}
   16f74:	e24dd030 	sub	sp, sp, #48	; 0x30
   16f78:	e28d3058 	add	r3, sp, #88	; 0x58
   16f7c:	e3a0c000 	mov	ip, #0
   16f80:	e59d8054 	ldr	r8, [sp, #84]	; 0x54
   16f84:	e1a07000 	mov	r7, r0
   16f88:	e58d3014 	str	r3, [sp, #20]
   16f8c:	e58dc00c 	str	ip, [sp, #12]
   16f90:	e5d84000 	ldrb	r4, [r8]
   16f94:	e3540000 	cmp	r4, #0
   16f98:	0a000015 	beq	16ff4 <f_printf+0x88>
   16f9c:	e3540025 	cmp	r4, #37	; 0x25
   16fa0:	0a000018 	beq	17008 <f_printf+0x9c>
   16fa4:	e354000a 	cmp	r4, #10
   16fa8:	0a0001c6 	beq	176c8 <f_printf+0x75c>
   16fac:	e28d9010 	add	r9, sp, #16
   16fb0:	e28da018 	add	sl, sp, #24
   16fb4:	e1a0300a 	mov	r3, sl
   16fb8:	e1a01009 	mov	r1, r9
   16fbc:	e1a00007 	mov	r0, r7
   16fc0:	e3a02001 	mov	r2, #1
   16fc4:	e5cd4010 	strb	r4, [sp, #16]
   16fc8:	ebffee79 	bl	129b4 <f_write>
   16fcc:	e59d3018 	ldr	r3, [sp, #24]
   16fd0:	e3530001 	cmp	r3, #1
   16fd4:	1a000120 	bne	1745c <f_printf+0x4f0>
   16fd8:	e2888001 	add	r8, r8, #1
   16fdc:	e59dc00c 	ldr	ip, [sp, #12]
   16fe0:	e5d84000 	ldrb	r4, [r8]
   16fe4:	e28cc001 	add	ip, ip, #1
   16fe8:	e3540000 	cmp	r4, #0
   16fec:	e58dc00c 	str	ip, [sp, #12]
   16ff0:	1affffe9 	bne	16f9c <f_printf+0x30>
   16ff4:	e59d000c 	ldr	r0, [sp, #12]
   16ff8:	e28dd030 	add	sp, sp, #48	; 0x30
   16ffc:	e8bd4ff0 	pop	{r4, r5, r6, r7, r8, r9, sl, fp, lr}
   17000:	e28dd00c 	add	sp, sp, #12
   17004:	e12fff1e 	bx	lr
   17008:	e5d80001 	ldrb	r0, [r8, #1]
   1700c:	e3500030 	cmp	r0, #48	; 0x30
   17010:	0a000143 	beq	17524 <f_printf+0x5b8>
   17014:	e350002d 	cmp	r0, #45	; 0x2d
   17018:	0a0001a3 	beq	176ac <f_printf+0x740>
   1701c:	e3a02000 	mov	r2, #0
   17020:	e58d2008 	str	r2, [sp, #8]
   17024:	e58d2004 	str	r2, [sp, #4]
   17028:	e2888002 	add	r8, r8, #2
   1702c:	e3a02004 	mov	r2, #4
   17030:	e2403030 	sub	r3, r0, #48	; 0x30
   17034:	e3530009 	cmp	r3, #9
   17038:	e3a05000 	mov	r5, #0
   1703c:	8a000006 	bhi	1705c <f_printf+0xf0>
   17040:	e0855105 	add	r5, r5, r5, lsl #2
   17044:	e0805085 	add	r5, r0, r5, lsl #1
   17048:	e4d80001 	ldrb	r0, [r8], #1
   1704c:	e2455030 	sub	r5, r5, #48	; 0x30
   17050:	e2403030 	sub	r3, r0, #48	; 0x30
   17054:	e3530009 	cmp	r3, #9
   17058:	9afffff8 	bls	17040 <f_printf+0xd4>
   1705c:	e20030df 	and	r3, r0, #223	; 0xdf
   17060:	e353004c 	cmp	r3, #76	; 0x4c
   17064:	05d80000 	ldrbeq	r0, [r8]
   17068:	058d2004 	streq	r2, [sp, #4]
   1706c:	03a01004 	moveq	r1, #4
   17070:	02888001 	addeq	r8, r8, #1
   17074:	13a01000 	movne	r1, #0
   17078:	e3500000 	cmp	r0, #0
   1707c:	0affffdc 	beq	16ff4 <f_printf+0x88>
   17080:	e2403061 	sub	r3, r0, #97	; 0x61
   17084:	e3530019 	cmp	r3, #25
   17088:	92402020 	subls	r2, r0, #32
   1708c:	96ef2072 	uxtbls	r2, r2
   17090:	81a02000 	movhi	r2, r0
   17094:	e2423042 	sub	r3, r2, #66	; 0x42
   17098:	e3530016 	cmp	r3, #22
   1709c:	979ff103 	ldrls	pc, [pc, r3, lsl #2]
   170a0:	ea000101 	b	174ac <f_printf+0x540>
   170a4:	000174a4 	andeq	r7, r1, r4, lsr #9
   170a8:	00017470 	andeq	r7, r1, r0, ror r4
   170ac:	00017468 	andeq	r7, r1, r8, ror #8
   170b0:	000174ac 	andeq	r7, r1, ip, lsr #9
   170b4:	000174ac 	andeq	r7, r1, ip, lsr #9
   170b8:	000174ac 	andeq	r7, r1, ip, lsr #9
   170bc:	000174ac 	andeq	r7, r1, ip, lsr #9
   170c0:	000174ac 	andeq	r7, r1, ip, lsr #9
   170c4:	000174ac 	andeq	r7, r1, ip, lsr #9
   170c8:	000174ac 	andeq	r7, r1, ip, lsr #9
   170cc:	000174ac 	andeq	r7, r1, ip, lsr #9
   170d0:	000174ac 	andeq	r7, r1, ip, lsr #9
   170d4:	000174ac 	andeq	r7, r1, ip, lsr #9
   170d8:	00017154 	andeq	r7, r1, r4, asr r1
   170dc:	000174ac 	andeq	r7, r1, ip, lsr #9
   170e0:	000174ac 	andeq	r7, r1, ip, lsr #9
   170e4:	000174ac 	andeq	r7, r1, ip, lsr #9
   170e8:	00017364 	andeq	r7, r1, r4, ror #6
   170ec:	000174ac 	andeq	r7, r1, ip, lsr #9
   170f0:	00017468 	andeq	r7, r1, r8, ror #8
   170f4:	000174ac 	andeq	r7, r1, ip, lsr #9
   170f8:	000174ac 	andeq	r7, r1, ip, lsr #9
   170fc:	00017100 	andeq	r7, r1, r0, lsl #2
   17100:	e3a0a010 	mov	sl, #16
   17104:	e3510000 	cmp	r1, #0
   17108:	0a000016 	beq	17168 <f_printf+0x1fc>
   1710c:	e59d3014 	ldr	r3, [sp, #20]
   17110:	e2831004 	add	r1, r3, #4
   17114:	e58d1014 	str	r1, [sp, #20]
   17118:	e5939000 	ldr	r9, [r3]
   1711c:	e2523044 	subs	r3, r2, #68	; 0x44
   17120:	e2732000 	rsbs	r2, r3, #0
   17124:	e0b22003 	adcs	r2, r2, r3
   17128:	e0122fa9 	ands	r2, r2, r9, lsr #31
   1712c:	0a000011 	beq	17178 <f_printf+0x20c>
   17130:	e59d2004 	ldr	r2, [sp, #4]
   17134:	e2699000 	rsb	r9, r9, #0
   17138:	e3823008 	orr	r3, r2, #8
   1713c:	e2026002 	and	r6, r2, #2
   17140:	e6ef6076 	uxtb	r6, r6
   17144:	e6ef3073 	uxtb	r3, r3
   17148:	e58d6008 	str	r6, [sp, #8]
   1714c:	e58d3004 	str	r3, [sp, #4]
   17150:	ea000008 	b	17178 <f_printf+0x20c>
   17154:	e3a0a008 	mov	sl, #8
   17158:	e3510000 	cmp	r1, #0
   1715c:	1affffea 	bne	1710c <f_printf+0x1a0>
   17160:	e3520044 	cmp	r2, #68	; 0x44
   17164:	0affffe8 	beq	1710c <f_printf+0x1a0>
   17168:	e59d3014 	ldr	r3, [sp, #20]
   1716c:	e2832004 	add	r2, r3, #4
   17170:	e5939000 	ldr	r9, [r3]
   17174:	e58d2014 	str	r2, [sp, #20]
   17178:	e3500078 	cmp	r0, #120	; 0x78
   1717c:	e28db01f 	add	fp, sp, #31
   17180:	e3a06000 	mov	r6, #0
   17184:	1a000001 	bne	17190 <f_printf+0x224>
   17188:	ea00005e 	b	17308 <f_printf+0x39c>
   1718c:	e1a06003 	mov	r6, r3
   17190:	e1a00009 	mov	r0, r9
   17194:	e1a0100a 	mov	r1, sl
   17198:	eb0014f7 	bl	1c57c <__aeabi_uidivmod>
   1719c:	e1a00009 	mov	r0, r9
   171a0:	e6ef4071 	uxtb	r4, r1
   171a4:	e1a0100a 	mov	r1, sl
   171a8:	eb0014b6 	bl	1c488 <__aeabi_uidiv>
   171ac:	e2843007 	add	r3, r4, #7
   171b0:	e6ef2073 	uxtb	r2, r3
   171b4:	e3540009 	cmp	r4, #9
   171b8:	e2863001 	add	r3, r6, #1
   171bc:	81a04002 	movhi	r4, r2
   171c0:	e353000f 	cmp	r3, #15
   171c4:	83a02000 	movhi	r2, #0
   171c8:	93a02001 	movls	r2, #1
   171cc:	e3500000 	cmp	r0, #0
   171d0:	03a02000 	moveq	r2, #0
   171d4:	e2844030 	add	r4, r4, #48	; 0x30
   171d8:	e3520000 	cmp	r2, #0
   171dc:	e1a09000 	mov	r9, r0
   171e0:	e5eb4001 	strb	r4, [fp, #1]!
   171e4:	1affffe8 	bne	1718c <f_printf+0x220>
   171e8:	e1a04003 	mov	r4, r3
   171ec:	e59d3004 	ldr	r3, [sp, #4]
   171f0:	e3130008 	tst	r3, #8
   171f4:	0a000005 	beq	17210 <f_printf+0x2a4>
   171f8:	e28dc030 	add	ip, sp, #48	; 0x30
   171fc:	e08c4004 	add	r4, ip, r4
   17200:	e3a0202d 	mov	r2, #45	; 0x2d
   17204:	e59d3004 	ldr	r3, [sp, #4]
   17208:	e5442010 	strb	r2, [r4, #-16]
   1720c:	e2864002 	add	r4, r6, #2
   17210:	e59d2008 	ldr	r2, [sp, #8]
   17214:	e3130001 	tst	r3, #1
   17218:	03a0c020 	moveq	ip, #32
   1721c:	13a0c030 	movne	ip, #48	; 0x30
   17220:	e3520000 	cmp	r2, #0
   17224:	1a00014d 	bne	17760 <f_printf+0x7f4>
   17228:	e2843001 	add	r3, r4, #1
   1722c:	e1540005 	cmp	r4, r5
   17230:	e58d3004 	str	r3, [sp, #4]
   17234:	2a00014e 	bcs	17774 <f_printf+0x808>
   17238:	e1a0b004 	mov	fp, r4
   1723c:	e58d4004 	str	r4, [sp, #4]
   17240:	e1a06002 	mov	r6, r2
   17244:	e28d9010 	add	r9, sp, #16
   17248:	e28da018 	add	sl, sp, #24
   1724c:	e1a0400c 	mov	r4, ip
   17250:	e1a0300a 	mov	r3, sl
   17254:	e1a00007 	mov	r0, r7
   17258:	e1a01009 	mov	r1, r9
   1725c:	e3a02001 	mov	r2, #1
   17260:	e5cd4010 	strb	r4, [sp, #16]
   17264:	ebffedd2 	bl	129b4 <f_write>
   17268:	e59d3018 	ldr	r3, [sp, #24]
   1726c:	e28bb001 	add	fp, fp, #1
   17270:	e3530001 	cmp	r3, #1
   17274:	03a03001 	moveq	r3, #1
   17278:	13e03000 	mvnne	r3, #0
   1727c:	e155000b 	cmp	r5, fp
   17280:	e0866003 	add	r6, r6, r3
   17284:	8afffff1 	bhi	17250 <f_printf+0x2e4>
   17288:	e285c001 	add	ip, r5, #1
   1728c:	e59d4004 	ldr	r4, [sp, #4]
   17290:	e58dc004 	str	ip, [sp, #4]
   17294:	e28db020 	add	fp, sp, #32
   17298:	e58d5008 	str	r5, [sp, #8]
   1729c:	ea00000c 	b	172d4 <f_printf+0x368>
   172a0:	e1a0300a 	mov	r3, sl
   172a4:	e1a00007 	mov	r0, r7
   172a8:	e1a01009 	mov	r1, r9
   172ac:	e3a02001 	mov	r2, #1
   172b0:	e5cd5010 	strb	r5, [sp, #16]
   172b4:	ebffedbe 	bl	129b4 <f_write>
   172b8:	e59d3018 	ldr	r3, [sp, #24]
   172bc:	e3530001 	cmp	r3, #1
   172c0:	13e03000 	mvnne	r3, #0
   172c4:	03a03001 	moveq	r3, #1
   172c8:	e3540000 	cmp	r4, #0
   172cc:	e0866003 	add	r6, r6, r3
   172d0:	0a000079 	beq	174bc <f_printf+0x550>
   172d4:	e2444001 	sub	r4, r4, #1
   172d8:	e7db5004 	ldrb	r5, [fp, r4]
   172dc:	e355000a 	cmp	r5, #10
   172e0:	1affffee 	bne	172a0 <f_printf+0x334>
   172e4:	e3a0c00d 	mov	ip, #13
   172e8:	e1a00007 	mov	r0, r7
   172ec:	e1a01009 	mov	r1, r9
   172f0:	e3a02001 	mov	r2, #1
   172f4:	e1a0300a 	mov	r3, sl
   172f8:	e5cdc010 	strb	ip, [sp, #16]
   172fc:	ebffedac 	bl	129b4 <f_write>
   17300:	eaffffe6 	b	172a0 <f_printf+0x334>
   17304:	e1a06003 	mov	r6, r3
   17308:	e1a00009 	mov	r0, r9
   1730c:	e1a0100a 	mov	r1, sl
   17310:	eb001499 	bl	1c57c <__aeabi_uidivmod>
   17314:	e1a00009 	mov	r0, r9
   17318:	e6ef4071 	uxtb	r4, r1
   1731c:	e1a0100a 	mov	r1, sl
   17320:	eb001458 	bl	1c488 <__aeabi_uidiv>
   17324:	e2843027 	add	r3, r4, #39	; 0x27
   17328:	e6ef2073 	uxtb	r2, r3
   1732c:	e3540009 	cmp	r4, #9
   17330:	e2863001 	add	r3, r6, #1
   17334:	81a04002 	movhi	r4, r2
   17338:	e353000f 	cmp	r3, #15
   1733c:	83a02000 	movhi	r2, #0
   17340:	93a02001 	movls	r2, #1
   17344:	e3500000 	cmp	r0, #0
   17348:	03a02000 	moveq	r2, #0
   1734c:	e2844030 	add	r4, r4, #48	; 0x30
   17350:	e3520000 	cmp	r2, #0
   17354:	e1a09000 	mov	r9, r0
   17358:	e5eb4001 	strb	r4, [fp, #1]!
   1735c:	1affffe8 	bne	17304 <f_printf+0x398>
   17360:	eaffffa0 	b	171e8 <f_printf+0x27c>
   17364:	e59d3014 	ldr	r3, [sp, #20]
   17368:	e593b000 	ldr	fp, [r3]
   1736c:	e2833004 	add	r3, r3, #4
   17370:	e5db9000 	ldrb	r9, [fp]
   17374:	e58d3014 	str	r3, [sp, #20]
   17378:	e3590000 	cmp	r9, #0
   1737c:	0a000100 	beq	17784 <f_printf+0x818>
   17380:	e1a0300b 	mov	r3, fp
   17384:	e3a0c000 	mov	ip, #0
   17388:	e5f32001 	ldrb	r2, [r3, #1]!
   1738c:	e28cc001 	add	ip, ip, #1
   17390:	e3520000 	cmp	r2, #0
   17394:	1afffffb 	bne	17388 <f_printf+0x41c>
   17398:	e28c4001 	add	r4, ip, #1
   1739c:	e59d2008 	ldr	r2, [sp, #8]
   173a0:	e3520000 	cmp	r2, #0
   173a4:	13a06000 	movne	r6, #0
   173a8:	0a0000d0 	beq	176f0 <f_printf+0x784>
   173ac:	e3590000 	cmp	r9, #0
   173b0:	0a000120 	beq	17838 <f_printf+0x8cc>
   173b4:	e2872024 	add	r2, r7, #36	; 0x24
   173b8:	e58db004 	str	fp, [sp, #4]
   173bc:	e58d2008 	str	r2, [sp, #8]
   173c0:	e3a0b000 	mov	fp, #0
   173c4:	e1a0a00c 	mov	sl, ip
   173c8:	e359000a 	cmp	r9, #10
   173cc:	0a0000ae 	beq	1768c <f_printf+0x720>
   173d0:	e3570000 	cmp	r7, #0
   173d4:	e5cd9018 	strb	r9, [sp, #24]
   173d8:	0a000005 	beq	173f4 <f_printf+0x488>
   173dc:	e5973000 	ldr	r3, [r7]
   173e0:	e3530000 	cmp	r3, #0
   173e4:	0a000002 	beq	173f4 <f_printf+0x488>
   173e8:	e5d32000 	ldrb	r2, [r3]
   173ec:	e3520000 	cmp	r2, #0
   173f0:	1a000053 	bne	17544 <f_printf+0x5d8>
   173f4:	e1a0c00a 	mov	ip, sl
   173f8:	e3e0b000 	mvn	fp, #0
   173fc:	e15c0005 	cmp	ip, r5
   17400:	e086600b 	add	r6, r6, fp
   17404:	2a000012 	bcs	17454 <f_printf+0x4e8>
   17408:	e28d9010 	add	r9, sp, #16
   1740c:	e28da018 	add	sl, sp, #24
   17410:	ea000000 	b	17418 <f_printf+0x4ac>
   17414:	e1a04002 	mov	r4, r2
   17418:	e3a02001 	mov	r2, #1
   1741c:	e1a0300a 	mov	r3, sl
   17420:	e3a0c020 	mov	ip, #32
   17424:	e1a00007 	mov	r0, r7
   17428:	e1a01009 	mov	r1, r9
   1742c:	e5cdc010 	strb	ip, [sp, #16]
   17430:	ebffed5f 	bl	129b4 <f_write>
   17434:	e59d3018 	ldr	r3, [sp, #24]
   17438:	e2842001 	add	r2, r4, #1
   1743c:	e3530001 	cmp	r3, #1
   17440:	13e0b000 	mvnne	fp, #0
   17444:	03a0b001 	moveq	fp, #1
   17448:	e1550004 	cmp	r5, r4
   1744c:	e086600b 	add	r6, r6, fp
   17450:	8affffef 	bhi	17414 <f_printf+0x4a8>
   17454:	e37b0001 	cmn	fp, #1
   17458:	1a00000b 	bne	1748c <f_printf+0x520>
   1745c:	e3e0c000 	mvn	ip, #0
   17460:	e58dc00c 	str	ip, [sp, #12]
   17464:	eafffee2 	b	16ff4 <f_printf+0x88>
   17468:	e3a0a00a 	mov	sl, #10
   1746c:	eaffff39 	b	17158 <f_printf+0x1ec>
   17470:	e59d3014 	ldr	r3, [sp, #20]
   17474:	e1a01007 	mov	r1, r7
   17478:	e2832004 	add	r2, r3, #4
   1747c:	e5d30000 	ldrb	r0, [r3]
   17480:	e58d2014 	str	r2, [sp, #20]
   17484:	ebfffd88 	bl	16aac <f_putc>
   17488:	e1a06000 	mov	r6, r0
   1748c:	e59dc00c 	ldr	ip, [sp, #12]
   17490:	e3760001 	cmn	r6, #1
   17494:	e08cc006 	add	ip, ip, r6
   17498:	e58dc00c 	str	ip, [sp, #12]
   1749c:	1afffebb 	bne	16f90 <f_printf+0x24>
   174a0:	eaffffed 	b	1745c <f_printf+0x4f0>
   174a4:	e3a0a002 	mov	sl, #2
   174a8:	eaffff15 	b	17104 <f_printf+0x198>
   174ac:	e1a01007 	mov	r1, r7
   174b0:	ebfffd7d 	bl	16aac <f_putc>
   174b4:	e1a06000 	mov	r6, r0
   174b8:	eafffff3 	b	1748c <f_printf+0x520>
   174bc:	e59d5008 	ldr	r5, [sp, #8]
   174c0:	e59dc004 	ldr	ip, [sp, #4]
   174c4:	e15c0005 	cmp	ip, r5
   174c8:	2a000010 	bcs	17510 <f_printf+0x5a4>
   174cc:	e1a0400c 	mov	r4, ip
   174d0:	e3a02001 	mov	r2, #1
   174d4:	e1a0300a 	mov	r3, sl
   174d8:	e3a0c020 	mov	ip, #32
   174dc:	e1a00007 	mov	r0, r7
   174e0:	e1a01009 	mov	r1, r9
   174e4:	e5cdc010 	strb	ip, [sp, #16]
   174e8:	ebffed31 	bl	129b4 <f_write>
   174ec:	e59d3018 	ldr	r3, [sp, #24]
   174f0:	e2844001 	add	r4, r4, #1
   174f4:	e3530001 	cmp	r3, #1
   174f8:	13e02000 	mvnne	r2, #0
   174fc:	03a02001 	moveq	r2, #1
   17500:	e1550004 	cmp	r5, r4
   17504:	e0866002 	add	r6, r6, r2
   17508:	8afffff0 	bhi	174d0 <f_printf+0x564>
   1750c:	e1a03002 	mov	r3, r2
   17510:	e3730001 	cmn	r3, #1
   17514:	1affffdc 	bne	1748c <f_printf+0x520>
   17518:	e3e0c000 	mvn	ip, #0
   1751c:	e58dc00c 	str	ip, [sp, #12]
   17520:	eafffeb3 	b	16ff4 <f_printf+0x88>
   17524:	e3a03000 	mov	r3, #0
   17528:	e3a0c001 	mov	ip, #1
   1752c:	e5d80002 	ldrb	r0, [r8, #2]
   17530:	e58d3008 	str	r3, [sp, #8]
   17534:	e2888003 	add	r8, r8, #3
   17538:	e3a02005 	mov	r2, #5
   1753c:	e58dc004 	str	ip, [sp, #4]
   17540:	eafffeba 	b	17030 <f_printf+0xc4>
   17544:	e1d310b6 	ldrh	r1, [r3, #6]
   17548:	e1d720b4 	ldrh	r2, [r7, #4]
   1754c:	e1510002 	cmp	r1, r2
   17550:	1affffa7 	bne	173f4 <f_printf+0x488>
   17554:	e5d30001 	ldrb	r0, [r3, #1]
   17558:	eb00011d 	bl	179d4 <disk_status>
   1755c:	e2100001 	ands	r0, r0, #1
   17560:	1affffa3 	bne	173f4 <f_printf+0x488>
   17564:	e5d73006 	ldrb	r3, [r7, #6]
   17568:	e3130080 	tst	r3, #128	; 0x80
   1756c:	1affffa0 	bne	173f4 <f_printf+0x488>
   17570:	e3130002 	tst	r3, #2
   17574:	0affff9e 	beq	173f4 <f_printf+0x488>
   17578:	e597c00c 	ldr	ip, [r7, #12]
   1757c:	e5971008 	ldr	r1, [r7, #8]
   17580:	e37c0001 	cmn	ip, #1
   17584:	2a000032 	bcs	17654 <f_printf+0x6e8>
   17588:	e1a02b81 	lsl	r2, r1, #23
   1758c:	e1b02ba2 	lsrs	r2, r2, #23
   17590:	1a000028 	bne	17638 <f_printf+0x6cc>
   17594:	e5972000 	ldr	r2, [r7]
   17598:	e5d29002 	ldrb	r9, [r2, #2]
   1759c:	e2499001 	sub	r9, r9, #1
   175a0:	e00994a1 	and	r9, r9, r1, lsr #9
   175a4:	e21990ff 	ands	r9, r9, #255	; 0xff
   175a8:	1a00000a 	bne	175d8 <f_printf+0x66c>
   175ac:	e3510000 	cmp	r1, #0
   175b0:	1a000082 	bne	177c0 <f_printf+0x854>
   175b4:	e5970010 	ldr	r0, [r7, #16]
   175b8:	e3500000 	cmp	r0, #0
   175bc:	0a00008e 	beq	177fc <f_printf+0x890>
   175c0:	e3500001 	cmp	r0, #1
   175c4:	0a000087 	beq	177e8 <f_printf+0x87c>
   175c8:	e3700001 	cmn	r0, #1
   175cc:	0a000085 	beq	177e8 <f_printf+0x87c>
   175d0:	e5972000 	ldr	r2, [r7]
   175d4:	e5870014 	str	r0, [r7, #20]
   175d8:	e3130040 	tst	r3, #64	; 0x40
   175dc:	1a00006b 	bne	17790 <f_printf+0x824>
   175e0:	e5971014 	ldr	r1, [r7, #20]
   175e4:	e5920018 	ldr	r0, [r2, #24]
   175e8:	e2411002 	sub	r1, r1, #2
   175ec:	e2400002 	sub	r0, r0, #2
   175f0:	e1510000 	cmp	r1, r0
   175f4:	2a00007b 	bcs	177e8 <f_printf+0x87c>
   175f8:	e5d2c002 	ldrb	ip, [r2, #2]
   175fc:	e592002c 	ldr	r0, [r2, #44]	; 0x2c
   17600:	e031019c 	mlas	r1, ip, r1, r0
   17604:	0a000077 	beq	177e8 <f_printf+0x87c>
   17608:	e5970018 	ldr	r0, [r7, #24]
   1760c:	e0899001 	add	r9, r9, r1
   17610:	e1590000 	cmp	r9, r0
   17614:	e5971008 	ldr	r1, [r7, #8]
   17618:	e597c00c 	ldr	ip, [r7, #12]
   1761c:	0a000001 	beq	17628 <f_printf+0x6bc>
   17620:	e151000c 	cmp	r1, ip
   17624:	3a000078 	bcc	1780c <f_printf+0x8a0>
   17628:	e1a02b81 	lsl	r2, r1, #23
   1762c:	e5879018 	str	r9, [r7, #24]
   17630:	e5dd9018 	ldrb	r9, [sp, #24]
   17634:	e1a02ba2 	lsr	r2, r2, #23
   17638:	e0872002 	add	r2, r7, r2
   1763c:	e3833040 	orr	r3, r3, #64	; 0x40
   17640:	e2811001 	add	r1, r1, #1
   17644:	e5c29024 	strb	r9, [r2, #36]	; 0x24
   17648:	e3a00001 	mov	r0, #1
   1764c:	e5c73006 	strb	r3, [r7, #6]
   17650:	e5871008 	str	r1, [r7, #8]
   17654:	e15c0001 	cmp	ip, r1
   17658:	3587100c 	strcc	r1, [r7, #12]
   1765c:	e3833020 	orr	r3, r3, #32
   17660:	e3500001 	cmp	r0, #1
   17664:	e5c73006 	strb	r3, [r7, #6]
   17668:	1affff61 	bne	173f4 <f_printf+0x488>
   1766c:	e59dc004 	ldr	ip, [sp, #4]
   17670:	e28bb001 	add	fp, fp, #1
   17674:	e5fc9001 	ldrb	r9, [ip, #1]!
   17678:	e3590000 	cmp	r9, #0
   1767c:	e58dc004 	str	ip, [sp, #4]
   17680:	1affff50 	bne	173c8 <f_printf+0x45c>
   17684:	e1a0c00a 	mov	ip, sl
   17688:	eaffff5b 	b	173fc <f_printf+0x490>
   1768c:	e3a0c00d 	mov	ip, #13
   17690:	e1a00007 	mov	r0, r7
   17694:	e28d1010 	add	r1, sp, #16
   17698:	e3a02001 	mov	r2, #1
   1769c:	e28d3018 	add	r3, sp, #24
   176a0:	e5cdc010 	strb	ip, [sp, #16]
   176a4:	ebffecc2 	bl	129b4 <f_write>
   176a8:	eaffff48 	b	173d0 <f_printf+0x464>
   176ac:	e3a03002 	mov	r3, #2
   176b0:	e5d80002 	ldrb	r0, [r8, #2]
   176b4:	e58d3008 	str	r3, [sp, #8]
   176b8:	e58d3004 	str	r3, [sp, #4]
   176bc:	e3a02006 	mov	r2, #6
   176c0:	e2888003 	add	r8, r8, #3
   176c4:	eafffe59 	b	17030 <f_printf+0xc4>
   176c8:	e28d9030 	add	r9, sp, #48	; 0x30
   176cc:	e3a0200d 	mov	r2, #13
   176d0:	e5692020 	strb	r2, [r9, #-32]!
   176d4:	e28da018 	add	sl, sp, #24
   176d8:	e1a01009 	mov	r1, r9
   176dc:	e1a0300a 	mov	r3, sl
   176e0:	e1a00007 	mov	r0, r7
   176e4:	e3a02001 	mov	r2, #1
   176e8:	ebffecb1 	bl	129b4 <f_write>
   176ec:	eafffe30 	b	16fb4 <f_printf+0x48>
   176f0:	e155000c 	cmp	r5, ip
   176f4:	91a0c004 	movls	ip, r4
   176f8:	91a06002 	movls	r6, r2
   176fc:	92844001 	addls	r4, r4, #1
   17700:	9affff29 	bls	173ac <f_printf+0x440>
   17704:	e59d6008 	ldr	r6, [sp, #8]
   17708:	e28d9010 	add	r9, sp, #16
   1770c:	e28da018 	add	sl, sp, #24
   17710:	ea000000 	b	17718 <f_printf+0x7ac>
   17714:	e1a0400c 	mov	r4, ip
   17718:	e3a0c020 	mov	ip, #32
   1771c:	e1a0300a 	mov	r3, sl
   17720:	e1a00007 	mov	r0, r7
   17724:	e1a01009 	mov	r1, r9
   17728:	e3a02001 	mov	r2, #1
   1772c:	e5cdc010 	strb	ip, [sp, #16]
   17730:	ebffec9f 	bl	129b4 <f_write>
   17734:	e59d3018 	ldr	r3, [sp, #24]
   17738:	e284c001 	add	ip, r4, #1
   1773c:	e3530001 	cmp	r3, #1
   17740:	13e03000 	mvnne	r3, #0
   17744:	03a03001 	moveq	r3, #1
   17748:	e1550004 	cmp	r5, r4
   1774c:	e0866003 	add	r6, r6, r3
   17750:	8affffef 	bhi	17714 <f_printf+0x7a8>
   17754:	e5db9000 	ldrb	r9, [fp]
   17758:	e28c4001 	add	r4, ip, #1
   1775c:	eaffff12 	b	173ac <f_printf+0x440>
   17760:	e58d4004 	str	r4, [sp, #4]
   17764:	e3a06000 	mov	r6, #0
   17768:	e28d9010 	add	r9, sp, #16
   1776c:	e28da018 	add	sl, sp, #24
   17770:	eafffec7 	b	17294 <f_printf+0x328>
   17774:	e59d6008 	ldr	r6, [sp, #8]
   17778:	e28d9010 	add	r9, sp, #16
   1777c:	e28da018 	add	sl, sp, #24
   17780:	eafffec3 	b	17294 <f_printf+0x328>
   17784:	e3a04001 	mov	r4, #1
   17788:	e1a0c009 	mov	ip, r9
   1778c:	eaffff02 	b	1739c <f_printf+0x430>
   17790:	e5d20001 	ldrb	r0, [r2, #1]
   17794:	e59d1008 	ldr	r1, [sp, #8]
   17798:	e5972018 	ldr	r2, [r7, #24]
   1779c:	e3a03001 	mov	r3, #1
   177a0:	eb000089 	bl	179cc <disk_write>
   177a4:	e3500000 	cmp	r0, #0
   177a8:	1a000024 	bne	17840 <f_printf+0x8d4>
   177ac:	e5d73006 	ldrb	r3, [r7, #6]
   177b0:	e5972000 	ldr	r2, [r7]
   177b4:	e20330bf 	and	r3, r3, #191	; 0xbf
   177b8:	e5c73006 	strb	r3, [r7, #6]
   177bc:	eaffff87 	b	175e0 <f_printf+0x674>
   177c0:	e1a00002 	mov	r0, r2
   177c4:	e5971014 	ldr	r1, [r7, #20]
   177c8:	ebffde3c 	bl	f0c0 <create_chain>
   177cc:	e3500000 	cmp	r0, #0
   177d0:	15d73006 	ldrbne	r3, [r7, #6]
   177d4:	1affff79 	bne	175c0 <f_printf+0x654>
   177d8:	e5971008 	ldr	r1, [r7, #8]
   177dc:	e597c00c 	ldr	ip, [r7, #12]
   177e0:	e5d73006 	ldrb	r3, [r7, #6]
   177e4:	eaffff9a 	b	17654 <f_printf+0x6e8>
   177e8:	e1e03c83 	mvn	r3, r3, lsl #25
   177ec:	e1e03ca3 	mvn	r3, r3, lsr #25
   177f0:	e1a0c00a 	mov	ip, sl
   177f4:	e5c73006 	strb	r3, [r7, #6]
   177f8:	eafffefe 	b	173f8 <f_printf+0x48c>
   177fc:	e1a00002 	mov	r0, r2
   17800:	ebffde2e 	bl	f0c0 <create_chain>
   17804:	e5870010 	str	r0, [r7, #16]
   17808:	eaffffef 	b	177cc <f_printf+0x860>
   1780c:	e5d20001 	ldrb	r0, [r2, #1]
   17810:	e59d1008 	ldr	r1, [sp, #8]
   17814:	e1a02009 	mov	r2, r9
   17818:	e3a03001 	mov	r3, #1
   1781c:	eb00004c 	bl	17954 <disk_read>
   17820:	e3500000 	cmp	r0, #0
   17824:	1a000005 	bne	17840 <f_printf+0x8d4>
   17828:	e5971008 	ldr	r1, [r7, #8]
   1782c:	e597c00c 	ldr	ip, [r7, #12]
   17830:	e5d73006 	ldrb	r3, [r7, #6]
   17834:	eaffff7b 	b	17628 <f_printf+0x6bc>
   17838:	e1a0b009 	mov	fp, r9
   1783c:	eafffeee 	b	173fc <f_printf+0x490>
   17840:	e5d73006 	ldrb	r3, [r7, #6]
   17844:	e1a0c00a 	mov	ip, sl
   17848:	e1e03c83 	mvn	r3, r3, lsl #25
   1784c:	e1e03ca3 	mvn	r3, r3, lsr #25
   17850:	e5c73006 	strb	r3, [r7, #6]
   17854:	eafffee7 	b	173f8 <f_printf+0x48c>

00017858 <ff_convert>:
   17858:	e350007f 	cmp	r0, #127	; 0x7f
   1785c:	912fff1e 	bxls	lr
   17860:	e3510000 	cmp	r1, #0
   17864:	1a00000b 	bne	17898 <ff_convert+0x40>
   17868:	e59f304c 	ldr	r3, [pc, #76]	; 178bc <ff_convert+0x64>
   1786c:	ea000002 	b	1787c <ff_convert+0x24>
   17870:	e6ff107c 	uxth	r1, ip
   17874:	e3510080 	cmp	r1, #128	; 0x80
   17878:	0a00000d 	beq	178b4 <ff_convert+0x5c>
   1787c:	e1f320b2 	ldrh	r2, [r3, #2]!
   17880:	e281c001 	add	ip, r1, #1
   17884:	e1520000 	cmp	r2, r0
   17888:	1afffff8 	bne	17870 <ff_convert+0x18>
   1788c:	e2811080 	add	r1, r1, #128	; 0x80
   17890:	e6ff0071 	uxth	r0, r1
   17894:	e12fff1e 	bx	lr
   17898:	e35000ff 	cmp	r0, #255	; 0xff
   1789c:	8a000004 	bhi	178b4 <ff_convert+0x5c>
   178a0:	e59f3018 	ldr	r3, [pc, #24]	; 178c0 <ff_convert+0x68>
   178a4:	e2400080 	sub	r0, r0, #128	; 0x80
   178a8:	e1a00080 	lsl	r0, r0, #1
   178ac:	e19300b0 	ldrh	r0, [r3, r0]
   178b0:	e12fff1e 	bx	lr
   178b4:	e3a00000 	mov	r0, #0
   178b8:	e12fff1e 	bx	lr
   178bc:	0001d716 	andeq	sp, r1, r6, lsl r7
   178c0:	0001d718 	andeq	sp, r1, r8, lsl r7

000178c4 <ff_wtoupper>:
   178c4:	e3500061 	cmp	r0, #97	; 0x61
   178c8:	0a00000c 	beq	17900 <ff_wtoupper+0x3c>
   178cc:	e59f1034 	ldr	r1, [pc, #52]	; 17908 <ff_wtoupper+0x44>
   178d0:	e3a02000 	mov	r2, #0
   178d4:	e1f130b2 	ldrh	r3, [r1, #2]!
   178d8:	e2822001 	add	r2, r2, #1
   178dc:	e3530000 	cmp	r3, #0
   178e0:	012fff1e 	bxeq	lr
   178e4:	e1530000 	cmp	r3, r0
   178e8:	1afffff9 	bne	178d4 <ff_wtoupper+0x10>
   178ec:	e59f3018 	ldr	r3, [pc, #24]	; 1790c <ff_wtoupper+0x48>
   178f0:	e0832082 	add	r2, r3, r2, lsl #1
   178f4:	e2822e2e 	add	r2, r2, #736	; 0x2e0
   178f8:	e1d200b0 	ldrh	r0, [r2]
   178fc:	e12fff1e 	bx	lr
   17900:	e3a02000 	mov	r2, #0
   17904:	eafffff8 	b	178ec <ff_wtoupper+0x28>
   17908:	0001d818 	andeq	sp, r1, r8, lsl r8
   1790c:	0001d718 	andeq	sp, r1, r8, lsl r7

00017910 <disk_initialize>:
   17910:	e3500000 	cmp	r0, #0
   17914:	e92d4008 	push	{r3, lr}
   17918:	0a000003 	beq	1792c <disk_initialize+0x1c>
   1791c:	e59f3028 	ldr	r3, [pc, #40]	; 1794c <disk_initialize+0x3c>
   17920:	e5d30000 	ldrb	r0, [r3]
   17924:	e6ef0070 	uxtb	r0, r0
   17928:	e8bd8008 	pop	{r3, pc}
   1792c:	e59f001c 	ldr	r0, [pc, #28]	; 17950 <disk_initialize+0x40>
   17930:	eb000060 	bl	17ab8 <sd_card_init>
   17934:	e59f3010 	ldr	r3, [pc, #16]	; 1794c <disk_initialize+0x3c>
   17938:	e3500000 	cmp	r0, #0
   1793c:	05d32000 	ldrbeq	r2, [r3]
   17940:	020220fe 	andeq	r2, r2, #254	; 0xfe
   17944:	05c32000 	strbeq	r2, [r3]
   17948:	eafffff4 	b	17920 <disk_initialize+0x10>
   1794c:	0001e9d2 	ldrdeq	lr, [r1], -r2
   17950:	00021868 	andeq	r1, r2, r8, ror #16

00017954 <disk_read>:
   17954:	e16fcf13 	clz	ip, r3
   17958:	e1a0c2ac 	lsr	ip, ip, #5
   1795c:	e3500000 	cmp	r0, #0
   17960:	01a0000c 	moveq	r0, ip
   17964:	138c0001 	orrne	r0, ip, #1
   17968:	e3500000 	cmp	r0, #0
   1796c:	0a000001 	beq	17978 <disk_read+0x24>
   17970:	e3a00004 	mov	r0, #4
   17974:	e12fff1e 	bx	lr
   17978:	e59f0044 	ldr	r0, [pc, #68]	; 179c4 <disk_read+0x70>
   1797c:	e5d00000 	ldrb	r0, [r0]
   17980:	e3100001 	tst	r0, #1
   17984:	0a000001 	beq	17990 <disk_read+0x3c>
   17988:	e3a00003 	mov	r0, #3
   1798c:	e12fff1e 	bx	lr
   17990:	e92d4010 	push	{r4, lr}
   17994:	e1a04003 	mov	r4, r3
   17998:	e1a03002 	mov	r3, r2
   1799c:	e59f2024 	ldr	r2, [pc, #36]	; 179c8 <disk_read+0x74>
   179a0:	e5920000 	ldr	r0, [r2]
   179a4:	e5902010 	ldr	r2, [r0, #16]
   179a8:	e0040492 	mul	r4, r2, r4
   179ac:	e1a02004 	mov	r2, r4
   179b0:	eb000258 	bl	18318 <sd_read>
   179b4:	e1540000 	cmp	r4, r0
   179b8:	93a00000 	movls	r0, #0
   179bc:	83a00001 	movhi	r0, #1
   179c0:	e8bd8010 	pop	{r4, pc}
   179c4:	0001e9d2 	ldrdeq	lr, [r1], -r2
   179c8:	00021868 	andeq	r1, r2, r8, ror #16

000179cc <disk_write>:
   179cc:	e3a00000 	mov	r0, #0
   179d0:	e12fff1e 	bx	lr

000179d4 <disk_status>:
   179d4:	e3500000 	cmp	r0, #0
   179d8:	059f300c 	ldreq	r3, [pc, #12]	; 179ec <disk_status+0x18>
   179dc:	05d30000 	ldrbeq	r0, [r3]
   179e0:	06ef0070 	uxtbeq	r0, r0
   179e4:	13a00001 	movne	r0, #1
   179e8:	e12fff1e 	bx	lr
   179ec:	0001e9d2 	ldrdeq	lr, [r1], -r2

000179f0 <disk_ioctl>:
   179f0:	e3510003 	cmp	r1, #3
   179f4:	979ff101 	ldrls	pc, [pc, r1, lsl #2]
   179f8:	ea000011 	b	17a44 <disk_ioctl+0x54>
   179fc:	00017a24 	andeq	r7, r1, r4, lsr #20
   17a00:	00017a2c 	andeq	r7, r1, ip, lsr #20
   17a04:	00017a0c 	andeq	r7, r1, ip, lsl #20
   17a08:	00017a0c 	andeq	r7, r1, ip, lsl #20
   17a0c:	e59f3038 	ldr	r3, [pc, #56]	; 17a4c <disk_ioctl+0x5c>
   17a10:	e3a00000 	mov	r0, #0
   17a14:	e5933000 	ldr	r3, [r3]
   17a18:	e5933010 	ldr	r3, [r3, #16]
   17a1c:	e5823000 	str	r3, [r2]
   17a20:	e12fff1e 	bx	lr
   17a24:	e3a00000 	mov	r0, #0
   17a28:	e12fff1e 	bx	lr
   17a2c:	e59f3018 	ldr	r3, [pc, #24]	; 17a4c <disk_ioctl+0x5c>
   17a30:	e3a00000 	mov	r0, #0
   17a34:	e5933000 	ldr	r3, [r3]
   17a38:	e5933014 	ldr	r3, [r3, #20]
   17a3c:	e5823000 	str	r3, [r2]
   17a40:	e12fff1e 	bx	lr
   17a44:	e3a00004 	mov	r0, #4
   17a48:	e12fff1e 	bx	lr
   17a4c:	00021868 	andeq	r1, r2, r8, ror #16

00017a50 <get_fattime>:
   17a50:	e3a03000 	mov	r3, #0
   17a54:	e52de004 	push	{lr}		; (str lr, [sp, #-4]!)
   17a58:	e1a00003 	mov	r0, r3
   17a5c:	e24dd00c 	sub	sp, sp, #12
   17a60:	e58d3004 	str	r3, [sp, #4]
   17a64:	eb000754 	bl	197bc <sys_time>
   17a68:	e28d3008 	add	r3, sp, #8
   17a6c:	e5230004 	str	r0, [r3, #-4]!
   17a70:	e1a00003 	mov	r0, r3
   17a74:	eb000a9f 	bl	1a4f8 <localtime>
   17a78:	e590100c 	ldr	r1, [r0, #12]
   17a7c:	e5903008 	ldr	r3, [r0, #8]
   17a80:	e5902004 	ldr	r2, [r0, #4]
   17a84:	e1a01801 	lsl	r1, r1, #16
   17a88:	e1811583 	orr	r1, r1, r3, lsl #11
   17a8c:	e590c000 	ldr	ip, [r0]
   17a90:	e5903014 	ldr	r3, [r0, #20]
   17a94:	e1812282 	orr	r2, r1, r2, lsl #5
   17a98:	e5900010 	ldr	r0, [r0, #16]
   17a9c:	e18220ac 	orr	r2, r2, ip, lsr #1
   17aa0:	e2433050 	sub	r3, r3, #80	; 0x50
   17aa4:	e1823c83 	orr	r3, r2, r3, lsl #25
   17aa8:	e2800001 	add	r0, r0, #1
   17aac:	e1830a80 	orr	r0, r3, r0, lsl #21
   17ab0:	e28dd00c 	add	sp, sp, #12
   17ab4:	e49df004 	pop	{pc}		; (ldr pc, [sp], #4)

00017ab8 <sd_card_init>:
   17ab8:	e92d40f8 	push	{r3, r4, r5, r6, r7, lr}
   17abc:	e1a05000 	mov	r5, r0
   17ac0:	eb00036e 	bl	18880 <bcm2825_emmc_init>
   17ac4:	e3500000 	cmp	r0, #0
   17ac8:	1a000101 	bne	17ed4 <sd_card_init+0x41c>
   17acc:	eb000567 	bl	19070 <bcm2835_emmc_enable_all_interrupts_not_arm>
   17ad0:	e3a00e7d 	mov	r0, #2000	; 0x7d0
   17ad4:	eb000a79 	bl	1a4c0 <udelay>
   17ad8:	e5954000 	ldr	r4, [r5]
   17adc:	e3540000 	cmp	r4, #0
   17ae0:	0a0000fe 	beq	17ee0 <sd_card_init+0x428>
   17ae4:	e3a01000 	mov	r1, #0
   17ae8:	e3a02068 	mov	r2, #104	; 0x68
   17aec:	e1a00004 	mov	r0, r4
   17af0:	eb000cf9 	bl	1aedc <memset>
   17af4:	e3a06001 	mov	r6, #1
   17af8:	e3a02c02 	mov	r2, #512	; 0x200
   17afc:	e59f3788 	ldr	r3, [pc, #1928]	; 1828c <sd_card_init+0x7d4>
   17b00:	e5842010 	str	r2, [r4, #16]
   17b04:	e5843008 	str	r3, [r4, #8]
   17b08:	e5846000 	str	r6, [r4]
   17b0c:	e5846004 	str	r6, [r4, #4]
   17b10:	e1a00004 	mov	r0, r4
   17b14:	eb0004fb 	bl	18f08 <bcm2835_emmc_handle_interrupts>
   17b18:	e5947064 	ldr	r7, [r4, #100]	; 0x64
   17b1c:	e3570000 	cmp	r7, #0
   17b20:	13a03000 	movne	r3, #0
   17b24:	15843040 	strne	r3, [r4, #64]	; 0x40
   17b28:	1a00014b 	bne	1805c <sd_card_init+0x5a4>
   17b2c:	e59f375c 	ldr	r3, [pc, #1884]	; 18290 <sd_card_init+0x7d8>
   17b30:	e584703c 	str	r7, [r4, #60]	; 0x3c
   17b34:	e1a00004 	mov	r0, r4
   17b38:	e1a01007 	mov	r1, r7
   17b3c:	e1a02007 	mov	r2, r7
   17b40:	eb0003c7 	bl	18a64 <bcm2835_emmc_issue_command>
   17b44:	e5943040 	ldr	r3, [r4, #64]	; 0x40
   17b48:	e3530000 	cmp	r3, #0
   17b4c:	0a000142 	beq	1805c <sd_card_init+0x5a4>
   17b50:	e1a00004 	mov	r0, r4
   17b54:	eb0004eb 	bl	18f08 <bcm2835_emmc_handle_interrupts>
   17b58:	e5943064 	ldr	r3, [r4, #100]	; 0x64
   17b5c:	e3530000 	cmp	r3, #0
   17b60:	15847040 	strne	r7, [r4, #64]	; 0x40
   17b64:	1a000023 	bne	17bf8 <sd_card_init+0x140>
   17b68:	e3a03008 	mov	r3, #8
   17b6c:	e59f7720 	ldr	r7, [pc, #1824]	; 18294 <sd_card_init+0x7dc>
   17b70:	e584303c 	str	r3, [r4, #60]	; 0x3c
   17b74:	e1a02007 	mov	r2, r7
   17b78:	e59f3710 	ldr	r3, [pc, #1808]	; 18290 <sd_card_init+0x7d8>
   17b7c:	e1a00004 	mov	r0, r4
   17b80:	e59f1710 	ldr	r1, [pc, #1808]	; 18298 <sd_card_init+0x7e0>
   17b84:	eb0003b6 	bl	18a64 <bcm2835_emmc_issue_command>
   17b88:	e5943040 	ldr	r3, [r4, #64]	; 0x40
   17b8c:	e3530000 	cmp	r3, #0
   17b90:	0a000018 	beq	17bf8 <sd_card_init+0x140>
   17b94:	e5943044 	ldr	r3, [r4, #68]	; 0x44
   17b98:	e1a03a03 	lsl	r3, r3, #20
   17b9c:	e1570a23 	cmp	r7, r3, lsr #20
   17ba0:	1a000131 	bne	1806c <sd_card_init+0x5b4>
   17ba4:	e1a00004 	mov	r0, r4
   17ba8:	eb0004d6 	bl	18f08 <bcm2835_emmc_handle_interrupts>
   17bac:	e5942064 	ldr	r2, [r4, #100]	; 0x64
   17bb0:	e3520000 	cmp	r2, #0
   17bb4:	13a03000 	movne	r3, #0
   17bb8:	15843040 	strne	r3, [r4, #64]	; 0x40
   17bbc:	1a000017 	bne	17c20 <sd_card_init+0x168>
   17bc0:	e3a03005 	mov	r3, #5
   17bc4:	e1a00004 	mov	r0, r4
   17bc8:	e584303c 	str	r3, [r4, #60]	; 0x3c
   17bcc:	e59f16c8 	ldr	r1, [pc, #1736]	; 1829c <sd_card_init+0x7e4>
   17bd0:	e59f36c8 	ldr	r3, [pc, #1736]	; 182a0 <sd_card_init+0x7e8>
   17bd4:	eb0003a2 	bl	18a64 <bcm2835_emmc_issue_command>
   17bd8:	e5943040 	ldr	r3, [r4, #64]	; 0x40
   17bdc:	e3530000 	cmp	r3, #0
   17be0:	0a00000e 	beq	17c20 <sd_card_init+0x168>
   17be4:	e59f06b8 	ldr	r0, [pc, #1720]	; 182a4 <sd_card_init+0x7ec>
   17be8:	ebffd446 	bl	cd08 <printf>
   17bec:	e3e06000 	mvn	r6, #0
   17bf0:	e1a00006 	mov	r0, r6
   17bf4:	e8bd80f8 	pop	{r3, r4, r5, r6, r7, pc}
   17bf8:	e594302c 	ldr	r3, [r4, #44]	; 0x2c
   17bfc:	e3530000 	cmp	r3, #0
   17c00:	0a000028 	beq	17ca8 <sd_card_init+0x1f0>
   17c04:	e3130801 	tst	r3, #65536	; 0x10000
   17c08:	1a000023 	bne	17c9c <sd_card_init+0x1e4>
   17c0c:	e5941028 	ldr	r1, [r4, #40]	; 0x28
   17c10:	e59f0690 	ldr	r0, [pc, #1680]	; 182a8 <sd_card_init+0x7f0>
   17c14:	ebffd43b 	bl	cd08 <printf>
   17c18:	e3e06000 	mvn	r6, #0
   17c1c:	eafffff3 	b	17bf0 <sd_card_init+0x138>
   17c20:	e594302c 	ldr	r3, [r4, #44]	; 0x2c
   17c24:	e3530000 	cmp	r3, #0
   17c28:	0a000004 	beq	17c40 <sd_card_init+0x188>
   17c2c:	e3130801 	tst	r3, #65536	; 0x10000
   17c30:	0affffeb 	beq	17be4 <sd_card_init+0x12c>
   17c34:	eb0002a3 	bl	186c8 <bcm2835_emmc_reset_cmd>
   17c38:	e3700001 	cmn	r0, #1
   17c3c:	0a0000a4 	beq	17ed4 <sd_card_init+0x41c>
   17c40:	e1a00004 	mov	r0, r4
   17c44:	eb0004af 	bl	18f08 <bcm2835_emmc_handle_interrupts>
   17c48:	e5943064 	ldr	r3, [r4, #100]	; 0x64
   17c4c:	e3530000 	cmp	r3, #0
   17c50:	13a03000 	movne	r3, #0
   17c54:	15843040 	strne	r3, [r4, #64]	; 0x40
   17c58:	1a00000b 	bne	17c8c <sd_card_init+0x1d4>
   17c5c:	e3a03037 	mov	r3, #55	; 0x37
   17c60:	e5942024 	ldr	r2, [r4, #36]	; 0x24
   17c64:	e584303c 	str	r3, [r4, #60]	; 0x3c
   17c68:	e3520000 	cmp	r2, #0
   17c6c:	11a02802 	lslne	r2, r2, #16
   17c70:	e59f3618 	ldr	r3, [pc, #1560]	; 18290 <sd_card_init+0x7d8>
   17c74:	e1a00004 	mov	r0, r4
   17c78:	e59f162c 	ldr	r1, [pc, #1580]	; 182ac <sd_card_init+0x7f4>
   17c7c:	eb000378 	bl	18a64 <bcm2835_emmc_issue_command>
   17c80:	e5943040 	ldr	r3, [r4, #64]	; 0x40
   17c84:	e3530000 	cmp	r3, #0
   17c88:	1a000098 	bne	17ef0 <sd_card_init+0x438>
   17c8c:	e59f061c 	ldr	r0, [pc, #1564]	; 182b0 <sd_card_init+0x7f8>
   17c90:	ebffd41c 	bl	cd08 <printf>
   17c94:	e3e06000 	mvn	r6, #0
   17c98:	eaffffd4 	b	17bf0 <sd_card_init+0x138>
   17c9c:	eb000289 	bl	186c8 <bcm2835_emmc_reset_cmd>
   17ca0:	e3700001 	cmn	r0, #1
   17ca4:	0a00008a 	beq	17ed4 <sd_card_init+0x41c>
   17ca8:	e3a06000 	mov	r6, #0
   17cac:	eaffffbc 	b	17ba4 <sd_card_init+0xec>
   17cb0:	e1a02423 	lsr	r2, r3, #8
   17cb4:	e1a03f23 	lsr	r3, r3, #30
   17cb8:	e6ff2072 	uxth	r2, r2
   17cbc:	e2033001 	and	r3, r3, #1
   17cc0:	e5842020 	str	r2, [r4, #32]
   17cc4:	e5843018 	str	r3, [r4, #24]
   17cc8:	e59f05e4 	ldr	r0, [pc, #1508]	; 182b4 <sd_card_init+0x7fc>
   17ccc:	eb0002b3 	bl	187a0 <bcm2835_emmc_set_clock>
   17cd0:	e59f05e0 	ldr	r0, [pc, #1504]	; 182b8 <sd_card_init+0x800>
   17cd4:	eb0009f9 	bl	1a4c0 <udelay>
   17cd8:	e1a00004 	mov	r0, r4
   17cdc:	eb000489 	bl	18f08 <bcm2835_emmc_handle_interrupts>
   17ce0:	e5946064 	ldr	r6, [r4, #100]	; 0x64
   17ce4:	e3560000 	cmp	r6, #0
   17ce8:	1a0000d5 	bne	18044 <sd_card_init+0x58c>
   17cec:	e3a03002 	mov	r3, #2
   17cf0:	e1a00004 	mov	r0, r4
   17cf4:	e584303c 	str	r3, [r4, #60]	; 0x3c
   17cf8:	e59f15bc 	ldr	r1, [pc, #1468]	; 182bc <sd_card_init+0x804>
   17cfc:	e59f358c 	ldr	r3, [pc, #1420]	; 18290 <sd_card_init+0x7d8>
   17d00:	e1a02006 	mov	r2, r6
   17d04:	eb000356 	bl	18a64 <bcm2835_emmc_issue_command>
   17d08:	e5943040 	ldr	r3, [r4, #64]	; 0x40
   17d0c:	e3530000 	cmp	r3, #0
   17d10:	0a0000cd 	beq	1804c <sd_card_init+0x594>
   17d14:	e1a00004 	mov	r0, r4
   17d18:	eb00047a 	bl	18f08 <bcm2835_emmc_handle_interrupts>
   17d1c:	e5942064 	ldr	r2, [r4, #100]	; 0x64
   17d20:	e3520000 	cmp	r2, #0
   17d24:	15846040 	strne	r6, [r4, #64]	; 0x40
   17d28:	1a000138 	bne	18210 <sd_card_init+0x758>
   17d2c:	e3a03003 	mov	r3, #3
   17d30:	e1a00004 	mov	r0, r4
   17d34:	e584303c 	str	r3, [r4, #60]	; 0x3c
   17d38:	e59f1580 	ldr	r1, [pc, #1408]	; 182c0 <sd_card_init+0x808>
   17d3c:	e59f354c 	ldr	r3, [pc, #1356]	; 18290 <sd_card_init+0x7d8>
   17d40:	eb000347 	bl	18a64 <bcm2835_emmc_issue_command>
   17d44:	e5943040 	ldr	r3, [r4, #64]	; 0x40
   17d48:	e3530000 	cmp	r3, #0
   17d4c:	0a00012f 	beq	18210 <sd_card_init+0x758>
   17d50:	e5943044 	ldr	r3, [r4, #68]	; 0x44
   17d54:	e1a07823 	lsr	r7, r3, #16
   17d58:	e1a01723 	lsr	r1, r3, #14
   17d5c:	e1a066a3 	lsr	r6, r3, #13
   17d60:	e3130902 	tst	r3, #32768	; 0x8000
   17d64:	e1a03423 	lsr	r3, r3, #8
   17d68:	e5847024 	str	r7, [r4, #36]	; 0x24
   17d6c:	e2011001 	and	r1, r1, #1
   17d70:	e2066001 	and	r6, r6, #1
   17d74:	e2033001 	and	r3, r3, #1
   17d78:	1a00011e 	bne	181f8 <sd_card_init+0x740>
   17d7c:	e3510000 	cmp	r1, #0
   17d80:	1a000116 	bne	181e0 <sd_card_init+0x728>
   17d84:	e3560000 	cmp	r6, #0
   17d88:	1a00010e 	bne	181c8 <sd_card_init+0x710>
   17d8c:	e3530000 	cmp	r3, #0
   17d90:	0a000106 	beq	181b0 <sd_card_init+0x6f8>
   17d94:	e1a00004 	mov	r0, r4
   17d98:	eb00045a 	bl	18f08 <bcm2835_emmc_handle_interrupts>
   17d9c:	e5943064 	ldr	r3, [r4, #100]	; 0x64
   17da0:	e3530000 	cmp	r3, #0
   17da4:	15846040 	strne	r6, [r4, #64]	; 0x40
   17da8:	1a00011e 	bne	18228 <sd_card_init+0x770>
   17dac:	e3a03007 	mov	r3, #7
   17db0:	e1a02807 	lsl	r2, r7, #16
   17db4:	e584303c 	str	r3, [r4, #60]	; 0x3c
   17db8:	e1a00004 	mov	r0, r4
   17dbc:	e59f34cc 	ldr	r3, [pc, #1228]	; 18290 <sd_card_init+0x7d8>
   17dc0:	e59f14fc 	ldr	r1, [pc, #1276]	; 182c4 <sd_card_init+0x80c>
   17dc4:	eb000326 	bl	18a64 <bcm2835_emmc_issue_command>
   17dc8:	e5943040 	ldr	r3, [r4, #64]	; 0x40
   17dcc:	e3530000 	cmp	r3, #0
   17dd0:	0a000114 	beq	18228 <sd_card_init+0x770>
   17dd4:	e5941044 	ldr	r1, [r4, #68]	; 0x44
   17dd8:	e1a014a1 	lsr	r1, r1, #9
   17ddc:	e201100f 	and	r1, r1, #15
   17de0:	e2413003 	sub	r3, r1, #3
   17de4:	e3530001 	cmp	r3, #1
   17de8:	8a0000a3 	bhi	1807c <sd_card_init+0x5c4>
   17dec:	e5946018 	ldr	r6, [r4, #24]
   17df0:	e3560000 	cmp	r6, #0
   17df4:	1a00000f 	bne	17e38 <sd_card_init+0x380>
   17df8:	e1a00004 	mov	r0, r4
   17dfc:	eb000441 	bl	18f08 <bcm2835_emmc_handle_interrupts>
   17e00:	e5943064 	ldr	r3, [r4, #100]	; 0x64
   17e04:	e3530000 	cmp	r3, #0
   17e08:	15846040 	strne	r6, [r4, #64]	; 0x40
   17e0c:	1a000118 	bne	18274 <sd_card_init+0x7bc>
   17e10:	e3a03010 	mov	r3, #16
   17e14:	e1a00004 	mov	r0, r4
   17e18:	e584303c 	str	r3, [r4, #60]	; 0x3c
   17e1c:	e59f14a4 	ldr	r1, [pc, #1188]	; 182c8 <sd_card_init+0x810>
   17e20:	e59f3468 	ldr	r3, [pc, #1128]	; 18290 <sd_card_init+0x7d8>
   17e24:	e3a02c02 	mov	r2, #512	; 0x200
   17e28:	eb00030d 	bl	18a64 <bcm2835_emmc_issue_command>
   17e2c:	e5943040 	ldr	r3, [r4, #64]	; 0x40
   17e30:	e3530000 	cmp	r3, #0
   17e34:	0a00010e 	beq	18274 <sd_card_init+0x7bc>
   17e38:	e3a00c02 	mov	r0, #512	; 0x200
   17e3c:	e584005c 	str	r0, [r4, #92]	; 0x5c
   17e40:	eb0004a0 	bl	190c8 <bcm2835_emmc_set_block_size>
   17e44:	e3a00010 	mov	r0, #16
   17e48:	eb0009b7 	bl	1a52c <malloc>
   17e4c:	e3a03001 	mov	r3, #1
   17e50:	e3a02008 	mov	r2, #8
   17e54:	e5840030 	str	r0, [r4, #48]	; 0x30
   17e58:	e5840054 	str	r0, [r4, #84]	; 0x54
   17e5c:	e5843058 	str	r3, [r4, #88]	; 0x58
   17e60:	e584205c 	str	r2, [r4, #92]	; 0x5c
   17e64:	e1a00004 	mov	r0, r4
   17e68:	eb000426 	bl	18f08 <bcm2835_emmc_handle_interrupts>
   17e6c:	e5946064 	ldr	r6, [r4, #100]	; 0x64
   17e70:	e3560000 	cmp	r6, #0
   17e74:	13a03000 	movne	r3, #0
   17e78:	15843040 	strne	r3, [r4, #64]	; 0x40
   17e7c:	1a00000c 	bne	17eb4 <sd_card_init+0x3fc>
   17e80:	e3a02037 	mov	r2, #55	; 0x37
   17e84:	e5943024 	ldr	r3, [r4, #36]	; 0x24
   17e88:	e584203c 	str	r2, [r4, #60]	; 0x3c
   17e8c:	e3530000 	cmp	r3, #0
   17e90:	11a02803 	lslne	r2, r3, #16
   17e94:	01a02006 	moveq	r2, r6
   17e98:	e59f33f0 	ldr	r3, [pc, #1008]	; 18290 <sd_card_init+0x7d8>
   17e9c:	e1a00004 	mov	r0, r4
   17ea0:	e59f1404 	ldr	r1, [pc, #1028]	; 182ac <sd_card_init+0x7f4>
   17ea4:	eb0002ee 	bl	18a64 <bcm2835_emmc_issue_command>
   17ea8:	e5943040 	ldr	r3, [r4, #64]	; 0x40
   17eac:	e3530000 	cmp	r3, #0
   17eb0:	1a000077 	bne	18094 <sd_card_init+0x5dc>
   17eb4:	e3a03c02 	mov	r3, #512	; 0x200
   17eb8:	e584305c 	str	r3, [r4, #92]	; 0x5c
   17ebc:	e59f0408 	ldr	r0, [pc, #1032]	; 182cc <sd_card_init+0x814>
   17ec0:	ebffd390 	bl	cd08 <printf>
   17ec4:	e5940030 	ldr	r0, [r4, #48]	; 0x30
   17ec8:	eb00099f 	bl	1a54c <free>
   17ecc:	e1a00004 	mov	r0, r4
   17ed0:	eb00099d 	bl	1a54c <free>
   17ed4:	e3e06000 	mvn	r6, #0
   17ed8:	e1a00006 	mov	r0, r6
   17edc:	e8bd80f8 	pop	{r3, r4, r5, r6, r7, pc}
   17ee0:	e3a00068 	mov	r0, #104	; 0x68
   17ee4:	eb000990 	bl	1a52c <malloc>
   17ee8:	e1a04000 	mov	r4, r0
   17eec:	eafffefc 	b	17ae4 <sd_card_init+0x2c>
   17ef0:	e3a031a6 	mov	r3, #-2147483607	; 0x80000029
   17ef4:	e1a00004 	mov	r0, r4
   17ef8:	e584303c 	str	r3, [r4, #60]	; 0x3c
   17efc:	e59f13cc 	ldr	r1, [pc, #972]	; 182d0 <sd_card_init+0x818>
   17f00:	e59f3388 	ldr	r3, [pc, #904]	; 18290 <sd_card_init+0x7d8>
   17f04:	e3a02000 	mov	r2, #0
   17f08:	eb0002d5 	bl	18a64 <bcm2835_emmc_issue_command>
   17f0c:	e5943040 	ldr	r3, [r4, #64]	; 0x40
   17f10:	e3530000 	cmp	r3, #0
   17f14:	0affff5c 	beq	17c8c <sd_card_init+0x1d4>
   17f18:	e3560000 	cmp	r6, #0
   17f1c:	e3a06037 	mov	r6, #55	; 0x37
   17f20:	1a000014 	bne	17f78 <sd_card_init+0x4c0>
   17f24:	e1a00004 	mov	r0, r4
   17f28:	eb0003f6 	bl	18f08 <bcm2835_emmc_handle_interrupts>
   17f2c:	e5943064 	ldr	r3, [r4, #100]	; 0x64
   17f30:	e3530000 	cmp	r3, #0
   17f34:	1a00002f 	bne	17ff8 <sd_card_init+0x540>
   17f38:	e5942024 	ldr	r2, [r4, #36]	; 0x24
   17f3c:	e59f334c 	ldr	r3, [pc, #844]	; 18290 <sd_card_init+0x7d8>
   17f40:	e3520000 	cmp	r2, #0
   17f44:	11a02802 	lslne	r2, r2, #16
   17f48:	e584603c 	str	r6, [r4, #60]	; 0x3c
   17f4c:	e1a00004 	mov	r0, r4
   17f50:	e59f1354 	ldr	r1, [pc, #852]	; 182ac <sd_card_init+0x7f4>
   17f54:	eb0002c2 	bl	18a64 <bcm2835_emmc_issue_command>
   17f58:	e5943040 	ldr	r3, [r4, #64]	; 0x40
   17f5c:	e3530000 	cmp	r3, #0
   17f60:	1a000027 	bne	18004 <sd_card_init+0x54c>
   17f64:	e3e06000 	mvn	r6, #0
   17f68:	e59f0364 	ldr	r0, [pc, #868]	; 182d4 <sd_card_init+0x81c>
   17f6c:	ebffd365 	bl	cd08 <printf>
   17f70:	e1a00006 	mov	r0, r6
   17f74:	e8bd80f8 	pop	{r3, r4, r5, r6, r7, pc}
   17f78:	e1a00004 	mov	r0, r4
   17f7c:	eb0003e1 	bl	18f08 <bcm2835_emmc_handle_interrupts>
   17f80:	e5943064 	ldr	r3, [r4, #100]	; 0x64
   17f84:	e3530000 	cmp	r3, #0
   17f88:	1a00001a 	bne	17ff8 <sd_card_init+0x540>
   17f8c:	e5942024 	ldr	r2, [r4, #36]	; 0x24
   17f90:	e59f32f8 	ldr	r3, [pc, #760]	; 18290 <sd_card_init+0x7d8>
   17f94:	e3520000 	cmp	r2, #0
   17f98:	11a02802 	lslne	r2, r2, #16
   17f9c:	e584603c 	str	r6, [r4, #60]	; 0x3c
   17fa0:	e1a00004 	mov	r0, r4
   17fa4:	e59f1300 	ldr	r1, [pc, #768]	; 182ac <sd_card_init+0x7f4>
   17fa8:	eb0002ad 	bl	18a64 <bcm2835_emmc_issue_command>
   17fac:	e5943040 	ldr	r3, [r4, #64]	; 0x40
   17fb0:	e3530000 	cmp	r3, #0
   17fb4:	0affffea 	beq	17f64 <sd_card_init+0x4ac>
   17fb8:	e3a031a6 	mov	r3, #-2147483607	; 0x80000029
   17fbc:	e1a00004 	mov	r0, r4
   17fc0:	e584303c 	str	r3, [r4, #60]	; 0x3c
   17fc4:	e59f1304 	ldr	r1, [pc, #772]	; 182d0 <sd_card_init+0x818>
   17fc8:	e59f32c0 	ldr	r3, [pc, #704]	; 18290 <sd_card_init+0x7d8>
   17fcc:	e59f2304 	ldr	r2, [pc, #772]	; 182d8 <sd_card_init+0x820>
   17fd0:	eb0002a3 	bl	18a64 <bcm2835_emmc_issue_command>
   17fd4:	e5943040 	ldr	r3, [r4, #64]	; 0x40
   17fd8:	e59f02b0 	ldr	r0, [pc, #688]	; 18290 <sd_card_init+0x7d8>
   17fdc:	e3530000 	cmp	r3, #0
   17fe0:	0affffdf 	beq	17f64 <sd_card_init+0x4ac>
   17fe4:	e5943044 	ldr	r3, [r4, #68]	; 0x44
   17fe8:	e3530000 	cmp	r3, #0
   17fec:	baffff2f 	blt	17cb0 <sd_card_init+0x1f8>
   17ff0:	eb000932 	bl	1a4c0 <udelay>
   17ff4:	eaffffdf 	b	17f78 <sd_card_init+0x4c0>
   17ff8:	e3a03000 	mov	r3, #0
   17ffc:	e5843040 	str	r3, [r4, #64]	; 0x40
   18000:	eaffffd7 	b	17f64 <sd_card_init+0x4ac>
   18004:	e3a031a6 	mov	r3, #-2147483607	; 0x80000029
   18008:	e1a00004 	mov	r0, r4
   1800c:	e584303c 	str	r3, [r4, #60]	; 0x3c
   18010:	e59f12b8 	ldr	r1, [pc, #696]	; 182d0 <sd_card_init+0x818>
   18014:	e59f3274 	ldr	r3, [pc, #628]	; 18290 <sd_card_init+0x7d8>
   18018:	e59f22bc 	ldr	r2, [pc, #700]	; 182dc <sd_card_init+0x824>
   1801c:	eb000290 	bl	18a64 <bcm2835_emmc_issue_command>
   18020:	e5943040 	ldr	r3, [r4, #64]	; 0x40
   18024:	e59f0264 	ldr	r0, [pc, #612]	; 18290 <sd_card_init+0x7d8>
   18028:	e3530000 	cmp	r3, #0
   1802c:	0affffcc 	beq	17f64 <sd_card_init+0x4ac>
   18030:	e5943044 	ldr	r3, [r4, #68]	; 0x44
   18034:	e3530000 	cmp	r3, #0
   18038:	baffff1c 	blt	17cb0 <sd_card_init+0x1f8>
   1803c:	eb00091f 	bl	1a4c0 <udelay>
   18040:	eaffffb7 	b	17f24 <sd_card_init+0x46c>
   18044:	e3a03000 	mov	r3, #0
   18048:	e5843040 	str	r3, [r4, #64]	; 0x40
   1804c:	e59f028c 	ldr	r0, [pc, #652]	; 182e0 <sd_card_init+0x828>
   18050:	ebffd32c 	bl	cd08 <printf>
   18054:	e3e06000 	mvn	r6, #0
   18058:	eafffee4 	b	17bf0 <sd_card_init+0x138>
   1805c:	e59f0280 	ldr	r0, [pc, #640]	; 182e4 <sd_card_init+0x82c>
   18060:	ebffd328 	bl	cd08 <printf>
   18064:	e3e06000 	mvn	r6, #0
   18068:	eafffee0 	b	17bf0 <sd_card_init+0x138>
   1806c:	e59f0274 	ldr	r0, [pc, #628]	; 182e8 <sd_card_init+0x830>
   18070:	ebffd324 	bl	cd08 <printf>
   18074:	e3e06000 	mvn	r6, #0
   18078:	eafffedc 	b	17bf0 <sd_card_init+0x138>
   1807c:	e59f0268 	ldr	r0, [pc, #616]	; 182ec <sd_card_init+0x834>
   18080:	ebffd320 	bl	cd08 <printf>
   18084:	e1a00004 	mov	r0, r4
   18088:	eb00092f 	bl	1a54c <free>
   1808c:	e3e06000 	mvn	r6, #0
   18090:	eafffed6 	b	17bf0 <sd_card_init+0x138>
   18094:	e3a031ce 	mov	r3, #-2147483597	; 0x80000033
   18098:	e3a02000 	mov	r2, #0
   1809c:	e584303c 	str	r3, [r4, #60]	; 0x3c
   180a0:	e1a00004 	mov	r0, r4
   180a4:	e59f31e4 	ldr	r3, [pc, #484]	; 18290 <sd_card_init+0x7d8>
   180a8:	e59f1240 	ldr	r1, [pc, #576]	; 182f0 <sd_card_init+0x838>
   180ac:	eb00026c 	bl	18a64 <bcm2835_emmc_issue_command>
   180b0:	e3a02c02 	mov	r2, #512	; 0x200
   180b4:	e5943040 	ldr	r3, [r4, #64]	; 0x40
   180b8:	e584205c 	str	r2, [r4, #92]	; 0x5c
   180bc:	e3530000 	cmp	r3, #0
   180c0:	0affff7d 	beq	17ebc <sd_card_init+0x404>
   180c4:	e3a02000 	mov	r2, #0
   180c8:	e5941030 	ldr	r1, [r4, #48]	; 0x30
   180cc:	e5913000 	ldr	r3, [r1]
   180d0:	e581200c 	str	r2, [r1, #12]
   180d4:	e6bf3f33 	rev	r3, r3
   180d8:	e1a02c23 	lsr	r2, r3, #24
   180dc:	e212200f 	ands	r2, r2, #15
   180e0:	e1a00823 	lsr	r0, r3, #16
   180e4:	03a03001 	moveq	r3, #1
   180e8:	e200c00f 	and	ip, r0, #15
   180ec:	e581c008 	str	ip, [r1, #8]
   180f0:	0581300c 	streq	r3, [r1, #12]
   180f4:	0a000005 	beq	18110 <sd_card_init+0x658>
   180f8:	e3520001 	cmp	r2, #1
   180fc:	03a03002 	moveq	r3, #2
   18100:	0581300c 	streq	r3, [r1, #12]
   18104:	0a000001 	beq	18110 <sd_card_init+0x658>
   18108:	e3520002 	cmp	r2, #2
   1810c:	0a00001e 	beq	1818c <sd_card_init+0x6d4>
   18110:	e3100004 	tst	r0, #4
   18114:	1a000003 	bne	18128 <sd_card_init+0x670>
   18118:	eb0003f2 	bl	190e8 <bcm2835_emmc_reset_interrupt_register>
   1811c:	e5854000 	str	r4, [r5]
   18120:	e1a00006 	mov	r0, r6
   18124:	e8bd80f8 	pop	{r3, r4, r5, r6, r7, pc}
   18128:	eb0003d9 	bl	19094 <bcm2835_emmc_disable_card_interrupt>
   1812c:	e1a07000 	mov	r7, r0
   18130:	e1a00004 	mov	r0, r4
   18134:	eb000373 	bl	18f08 <bcm2835_emmc_handle_interrupts>
   18138:	e5943064 	ldr	r3, [r4, #100]	; 0x64
   1813c:	e3530000 	cmp	r3, #0
   18140:	13a03000 	movne	r3, #0
   18144:	15843040 	strne	r3, [r4, #64]	; 0x40
   18148:	1a00000c 	bne	18180 <sd_card_init+0x6c8>
   1814c:	e3a02037 	mov	r2, #55	; 0x37
   18150:	e5943024 	ldr	r3, [r4, #36]	; 0x24
   18154:	e584203c 	str	r2, [r4, #60]	; 0x3c
   18158:	e3530000 	cmp	r3, #0
   1815c:	11a02803 	lslne	r2, r3, #16
   18160:	01a02003 	moveq	r2, r3
   18164:	e1a00004 	mov	r0, r4
   18168:	e59f3120 	ldr	r3, [pc, #288]	; 18290 <sd_card_init+0x7d8>
   1816c:	e59f1138 	ldr	r1, [pc, #312]	; 182ac <sd_card_init+0x7f4>
   18170:	eb00023b 	bl	18a64 <bcm2835_emmc_issue_command>
   18174:	e5943040 	ldr	r3, [r4, #64]	; 0x40
   18178:	e3530000 	cmp	r3, #0
   1817c:	1a00002f 	bne	18240 <sd_card_init+0x788>
   18180:	e59f016c 	ldr	r0, [pc, #364]	; 182f4 <sd_card_init+0x83c>
   18184:	ebffd2df 	bl	cd08 <printf>
   18188:	eaffffe2 	b	18118 <sd_card_init+0x660>
   1818c:	e3130902 	tst	r3, #32768	; 0x8000
   18190:	03a03003 	moveq	r3, #3
   18194:	0581300c 	streq	r3, [r1, #12]
   18198:	0affffdc 	beq	18110 <sd_card_init+0x658>
   1819c:	e3130b01 	tst	r3, #1024	; 0x400
   181a0:	03a03004 	moveq	r3, #4
   181a4:	13a03005 	movne	r3, #5
   181a8:	e581300c 	str	r3, [r1, #12]
   181ac:	eaffffd7 	b	18110 <sd_card_init+0x658>
   181b0:	e59f0140 	ldr	r0, [pc, #320]	; 182f8 <sd_card_init+0x840>
   181b4:	ebffd2d3 	bl	cd08 <printf>
   181b8:	e1a00004 	mov	r0, r4
   181bc:	eb0008e2 	bl	1a54c <free>
   181c0:	e3e06000 	mvn	r6, #0
   181c4:	eafffe89 	b	17bf0 <sd_card_init+0x138>
   181c8:	e59f012c 	ldr	r0, [pc, #300]	; 182fc <sd_card_init+0x844>
   181cc:	ebffd2cd 	bl	cd08 <printf>
   181d0:	e1a00004 	mov	r0, r4
   181d4:	eb0008dc 	bl	1a54c <free>
   181d8:	e3e06000 	mvn	r6, #0
   181dc:	eafffe83 	b	17bf0 <sd_card_init+0x138>
   181e0:	e59f0118 	ldr	r0, [pc, #280]	; 18300 <sd_card_init+0x848>
   181e4:	ebffd2c7 	bl	cd08 <printf>
   181e8:	e1a00004 	mov	r0, r4
   181ec:	eb0008d6 	bl	1a54c <free>
   181f0:	e3e06000 	mvn	r6, #0
   181f4:	eafffe7d 	b	17bf0 <sd_card_init+0x138>
   181f8:	e59f0104 	ldr	r0, [pc, #260]	; 18304 <sd_card_init+0x84c>
   181fc:	ebffd2c1 	bl	cd08 <printf>
   18200:	e1a00004 	mov	r0, r4
   18204:	eb0008d0 	bl	1a54c <free>
   18208:	e3e06000 	mvn	r6, #0
   1820c:	eafffe77 	b	17bf0 <sd_card_init+0x138>
   18210:	e59f00f0 	ldr	r0, [pc, #240]	; 18308 <sd_card_init+0x850>
   18214:	ebffd2bb 	bl	cd08 <printf>
   18218:	e1a00004 	mov	r0, r4
   1821c:	eb0008ca 	bl	1a54c <free>
   18220:	e3e06000 	mvn	r6, #0
   18224:	eafffe71 	b	17bf0 <sd_card_init+0x138>
   18228:	e59f00dc 	ldr	r0, [pc, #220]	; 1830c <sd_card_init+0x854>
   1822c:	ebffd2b5 	bl	cd08 <printf>
   18230:	e1a00004 	mov	r0, r4
   18234:	eb0008c4 	bl	1a54c <free>
   18238:	e3e06000 	mvn	r6, #0
   1823c:	eafffe6b 	b	17bf0 <sd_card_init+0x138>
   18240:	e3a0311a 	mov	r3, #-2147483642	; 0x80000006
   18244:	e1a00004 	mov	r0, r4
   18248:	e584303c 	str	r3, [r4, #60]	; 0x3c
   1824c:	e59f10bc 	ldr	r1, [pc, #188]	; 18310 <sd_card_init+0x858>
   18250:	e59f3038 	ldr	r3, [pc, #56]	; 18290 <sd_card_init+0x7d8>
   18254:	e3a02002 	mov	r2, #2
   18258:	eb000201 	bl	18a64 <bcm2835_emmc_issue_command>
   1825c:	e5943040 	ldr	r3, [r4, #64]	; 0x40
   18260:	e3530000 	cmp	r3, #0
   18264:	0affffc5 	beq	18180 <sd_card_init+0x6c8>
   18268:	e1a00007 	mov	r0, r7
   1826c:	eb00038e 	bl	190ac <bcm2835_emmc_4bit_mode_change_bit>
   18270:	eaffffa8 	b	18118 <sd_card_init+0x660>
   18274:	e59f0098 	ldr	r0, [pc, #152]	; 18314 <sd_card_init+0x85c>
   18278:	ebffd2a2 	bl	cd08 <printf>
   1827c:	e1a00004 	mov	r0, r4
   18280:	eb0008b1 	bl	1a54c <free>
   18284:	e3e06000 	mvn	r6, #0
   18288:	eafffe58 	b	17bf0 <sd_card_init+0x138>
   1828c:	00018318 	andeq	r8, r1, r8, lsl r3
   18290:	0007a120 	andeq	sl, r7, r0, lsr #2
   18294:	000001aa 	andeq	r0, r0, sl, lsr #3
   18298:	080a0000 	stmdaeq	sl, {}	; <UNPREDICTABLE>
   1829c:	05010000 	streq	r0, [r1, #-0]
   182a0:	00002710 	andeq	r2, r0, r0, lsl r7
   182a4:	0001e51c 	andeq	lr, r1, ip, lsl r5
   182a8:	0001e4e4 	andeq	lr, r1, r4, ror #9
   182ac:	370a0000 	strcc	r0, [sl, -r0]
   182b0:	0001e550 	andeq	lr, r1, r0, asr r5
   182b4:	02faf080 	rscseq	pc, sl, #128	; 0x80
   182b8:	00001388 	andeq	r1, r0, r8, lsl #7
   182bc:	02090000 	andeq	r0, r9, #0
   182c0:	030a0000 	movweq	r0, #40960	; 0xa000
   182c4:	070b0000 	streq	r0, [fp, -r0]
   182c8:	100a0000 	andne	r0, sl, r0
   182cc:	0001e678 	andeq	lr, r1, r8, ror r6
   182d0:	29020000 	stmdbcs	r2, {}	; <UNPREDICTABLE>
   182d4:	0001e56c 	andeq	lr, r1, ip, ror #10
   182d8:	50ff8000 	rscspl	r8, pc, r0
   182dc:	00ff8000 	rscseq	r8, pc, r0
   182e0:	0001e588 	andeq	lr, r1, r8, lsl #11
   182e4:	0001e4cc 	andeq	lr, r1, ip, asr #9
   182e8:	0001e508 	andeq	lr, r1, r8, lsl #10
   182ec:	0001e63c 	andeq	lr, r1, ip, lsr r6
   182f0:	332a0010 	teqcc	sl, #16
   182f4:	0001e694 	muleq	r1, r4, r6
   182f8:	0001e60c 	andeq	lr, r1, ip, lsl #12
   182fc:	0001e5f8 	strdeq	lr, [r1], -r8
   18300:	0001e5e0 	andeq	lr, r1, r0, ror #11
   18304:	0001e5d0 	ldrdeq	lr, [r1], -r0
   18308:	0001e5a8 	andeq	lr, r1, r8, lsr #11
   1830c:	0001e624 	andeq	lr, r1, r4, lsr #12
   18310:	060a0000 	streq	r0, [sl], -r0
   18314:	0001e658 	andeq	lr, r1, r8, asr r6

00018318 <sd_read>:
   18318:	e92d4ff0 	push	{r4, r5, r6, r7, r8, r9, sl, fp, lr}
   1831c:	e5909024 	ldr	r9, [r0, #36]	; 0x24
   18320:	e24dd014 	sub	sp, sp, #20
   18324:	e3590000 	cmp	r9, #0
   18328:	e1a04000 	mov	r4, r0
   1832c:	e58d000c 	str	r0, [sp, #12]
   18330:	e1a07001 	mov	r7, r1
   18334:	e1a06002 	mov	r6, r2
   18338:	e1a08003 	mov	r8, r3
   1833c:	1a000006 	bne	1835c <sd_read+0x44>
   18340:	e28d000c 	add	r0, sp, #12
   18344:	ebfffddb 	bl	17ab8 <sd_card_init>
   18348:	e3500000 	cmp	r0, #0
   1834c:	1a00007e 	bne	1854c <sd_read+0x234>
   18350:	e59d500c 	ldr	r5, [sp, #12]
   18354:	e5959024 	ldr	r9, [r5, #36]	; 0x24
   18358:	ea000000 	b	18360 <sd_read+0x48>
   1835c:	e1a05000 	mov	r5, r0
   18360:	e1a00005 	mov	r0, r5
   18364:	eb0002e7 	bl	18f08 <bcm2835_emmc_handle_interrupts>
   18368:	e5953064 	ldr	r3, [r5, #100]	; 0x64
   1836c:	e3530000 	cmp	r3, #0
   18370:	13a03000 	movne	r3, #0
   18374:	15853040 	strne	r3, [r5, #64]	; 0x40
   18378:	1a000006 	bne	18398 <sd_read+0x80>
   1837c:	e3a0300d 	mov	r3, #13
   18380:	e1a02809 	lsl	r2, r9, #16
   18384:	e585303c 	str	r3, [r5, #60]	; 0x3c
   18388:	e1a00005 	mov	r0, r5
   1838c:	e59f12e8 	ldr	r1, [pc, #744]	; 1867c <sd_read+0x364>
   18390:	e59f32e8 	ldr	r3, [pc, #744]	; 18680 <sd_read+0x368>
   18394:	eb0001b2 	bl	18a64 <bcm2835_emmc_issue_command>
   18398:	e59d500c 	ldr	r5, [sp, #12]
   1839c:	e5959040 	ldr	r9, [r5, #64]	; 0x40
   183a0:	e3590000 	cmp	r9, #0
   183a4:	0a0000a6 	beq	18644 <sd_read+0x32c>
   183a8:	e595c044 	ldr	ip, [r5, #68]	; 0x44
   183ac:	e1a0c4ac 	lsr	ip, ip, #9
   183b0:	e20cc00f 	and	ip, ip, #15
   183b4:	e35c0003 	cmp	ip, #3
   183b8:	0a000066 	beq	18558 <sd_read+0x240>
   183bc:	e35c0005 	cmp	ip, #5
   183c0:	0a00007c 	beq	185b8 <sd_read+0x2a0>
   183c4:	e35c0004 	cmp	ip, #4
   183c8:	0a00001c 	beq	18440 <sd_read+0x128>
   183cc:	e28d000c 	add	r0, sp, #12
   183d0:	ebfffdb8 	bl	17ab8 <sd_card_init>
   183d4:	e3500000 	cmp	r0, #0
   183d8:	1a00005b 	bne	1854c <sd_read+0x234>
   183dc:	e59d500c 	ldr	r5, [sp, #12]
   183e0:	e1a00005 	mov	r0, r5
   183e4:	e5959024 	ldr	r9, [r5, #36]	; 0x24
   183e8:	eb0002c6 	bl	18f08 <bcm2835_emmc_handle_interrupts>
   183ec:	e5953064 	ldr	r3, [r5, #100]	; 0x64
   183f0:	e3530000 	cmp	r3, #0
   183f4:	13a03000 	movne	r3, #0
   183f8:	15853040 	strne	r3, [r5, #64]	; 0x40
   183fc:	1a000006 	bne	1841c <sd_read+0x104>
   18400:	e3a0300d 	mov	r3, #13
   18404:	e1a02809 	lsl	r2, r9, #16
   18408:	e585303c 	str	r3, [r5, #60]	; 0x3c
   1840c:	e1a00005 	mov	r0, r5
   18410:	e59f1264 	ldr	r1, [pc, #612]	; 1867c <sd_read+0x364>
   18414:	e59f3264 	ldr	r3, [pc, #612]	; 18680 <sd_read+0x368>
   18418:	eb000191 	bl	18a64 <bcm2835_emmc_issue_command>
   1841c:	e59d300c 	ldr	r3, [sp, #12]
   18420:	e5935040 	ldr	r5, [r3, #64]	; 0x40
   18424:	e3550000 	cmp	r5, #0
   18428:	0a00008a 	beq	18658 <sd_read+0x340>
   1842c:	e5931044 	ldr	r1, [r3, #68]	; 0x44
   18430:	e1a014a1 	lsr	r1, r1, #9
   18434:	e201100f 	and	r1, r1, #15
   18438:	e3510004 	cmp	r1, #4
   1843c:	1a000070 	bne	18604 <sd_read+0x2ec>
   18440:	e5943018 	ldr	r3, [r4, #24]
   18444:	e594505c 	ldr	r5, [r4, #92]	; 0x5c
   18448:	e3530000 	cmp	r3, #0
   1844c:	01a08488 	lsleq	r8, r8, #9
   18450:	e1560005 	cmp	r6, r5
   18454:	3a000070 	bcc	1861c <sd_read+0x304>
   18458:	e1a01005 	mov	r1, r5
   1845c:	e1a00006 	mov	r0, r6
   18460:	eb001008 	bl	1c488 <__aeabi_uidiv>
   18464:	e1a01005 	mov	r1, r5
   18468:	e5840058 	str	r0, [r4, #88]	; 0x58
   1846c:	e1a09000 	mov	r9, r0
   18470:	e1a00006 	mov	r0, r6
   18474:	eb001040 	bl	1c57c <__aeabi_uidivmod>
   18478:	e3510000 	cmp	r1, #0
   1847c:	1a00006b 	bne	18630 <sd_read+0x318>
   18480:	e3590001 	cmp	r9, #1
   18484:	d3a09011 	movle	r9, #17
   18488:	c3a09012 	movgt	r9, #18
   1848c:	e5847054 	str	r7, [r4, #84]	; 0x54
   18490:	e1a0a009 	mov	sl, r9
   18494:	e3a05003 	mov	r5, #3
   18498:	e59fb1e4 	ldr	fp, [pc, #484]	; 18684 <sd_read+0x36c>
   1849c:	ea000010 	b	184e4 <sd_read+0x1cc>
   184a0:	e584903c 	str	r9, [r4, #60]	; 0x3c
   184a4:	e1a00004 	mov	r0, r4
   184a8:	e1a02008 	mov	r2, r8
   184ac:	eb00016c 	bl	18a64 <bcm2835_emmc_issue_command>
   184b0:	e5943040 	ldr	r3, [r4, #64]	; 0x40
   184b4:	e3530000 	cmp	r3, #0
   184b8:	1a00001c 	bne	18530 <sd_read+0x218>
   184bc:	e1a0100a 	mov	r1, sl
   184c0:	e59f01c0 	ldr	r0, [pc, #448]	; 18688 <sd_read+0x370>
   184c4:	ebffd20f 	bl	cd08 <printf>
   184c8:	e59f01bc 	ldr	r0, [pc, #444]	; 1868c <sd_read+0x374>
   184cc:	e594102c 	ldr	r1, [r4, #44]	; 0x2c
   184d0:	ebffd20c 	bl	cd08 <printf>
   184d4:	e2555001 	subs	r5, r5, #1
   184d8:	e59f01b0 	ldr	r0, [pc, #432]	; 18690 <sd_read+0x378>
   184dc:	0a000062 	beq	1866c <sd_read+0x354>
   184e0:	ebffd208 	bl	cd08 <printf>
   184e4:	e3a07000 	mov	r7, #0
   184e8:	e1a00004 	mov	r0, r4
   184ec:	e5847060 	str	r7, [r4, #96]	; 0x60
   184f0:	eb000284 	bl	18f08 <bcm2835_emmc_handle_interrupts>
   184f4:	e5942064 	ldr	r2, [r4, #100]	; 0x64
   184f8:	e59f3194 	ldr	r3, [pc, #404]	; 18694 <sd_read+0x37c>
   184fc:	e1520007 	cmp	r2, r7
   18500:	15847040 	strne	r7, [r4, #64]	; 0x40
   18504:	1affffec 	bne	184bc <sd_read+0x1a4>
   18508:	e79b1109 	ldr	r1, [fp, r9, lsl #2]
   1850c:	e3710001 	cmn	r1, #1
   18510:	1affffe2 	bne	184a0 <sd_read+0x188>
   18514:	e59f017c 	ldr	r0, [pc, #380]	; 18698 <sd_read+0x380>
   18518:	e1a01009 	mov	r1, r9
   1851c:	e58d2004 	str	r2, [sp, #4]
   18520:	ebffd1f8 	bl	cd08 <printf>
   18524:	e59d2004 	ldr	r2, [sp, #4]
   18528:	e5842040 	str	r2, [r4, #64]	; 0x40
   1852c:	eaffffe2 	b	184bc <sd_read+0x1a4>
   18530:	e1a00006 	mov	r0, r6
   18534:	e28dd014 	add	sp, sp, #20
   18538:	e8bd8ff0 	pop	{r4, r5, r6, r7, r8, r9, sl, fp, pc}
   1853c:	e59f0158 	ldr	r0, [pc, #344]	; 1869c <sd_read+0x384>
   18540:	ebffd1f0 	bl	cd08 <printf>
   18544:	e59d300c 	ldr	r3, [sp, #12]
   18548:	e5835024 	str	r5, [r3, #36]	; 0x24
   1854c:	e3e00000 	mvn	r0, #0
   18550:	e28dd014 	add	sp, sp, #20
   18554:	e8bd8ff0 	pop	{r4, r5, r6, r7, r8, r9, sl, fp, pc}
   18558:	e1a00005 	mov	r0, r5
   1855c:	e5959024 	ldr	r9, [r5, #36]	; 0x24
   18560:	eb000268 	bl	18f08 <bcm2835_emmc_handle_interrupts>
   18564:	e5953064 	ldr	r3, [r5, #100]	; 0x64
   18568:	e3530000 	cmp	r3, #0
   1856c:	13a03000 	movne	r3, #0
   18570:	15853040 	strne	r3, [r5, #64]	; 0x40
   18574:	1a000006 	bne	18594 <sd_read+0x27c>
   18578:	e3a03007 	mov	r3, #7
   1857c:	e1a02809 	lsl	r2, r9, #16
   18580:	e585303c 	str	r3, [r5, #60]	; 0x3c
   18584:	e1a00005 	mov	r0, r5
   18588:	e59f1110 	ldr	r1, [pc, #272]	; 186a0 <sd_read+0x388>
   1858c:	e59f30ec 	ldr	r3, [pc, #236]	; 18680 <sd_read+0x368>
   18590:	eb000133 	bl	18a64 <bcm2835_emmc_issue_command>
   18594:	e59d500c 	ldr	r5, [sp, #12]
   18598:	e5959040 	ldr	r9, [r5, #64]	; 0x40
   1859c:	e3590000 	cmp	r9, #0
   185a0:	1affff8e 	bne	183e0 <sd_read+0xc8>
   185a4:	e59f00f8 	ldr	r0, [pc, #248]	; 186a4 <sd_read+0x38c>
   185a8:	ebffd1d6 	bl	cd08 <printf>
   185ac:	e59d300c 	ldr	r3, [sp, #12]
   185b0:	e5839024 	str	r9, [r3, #36]	; 0x24
   185b4:	eaffffe4 	b	1854c <sd_read+0x234>
   185b8:	e1a00005 	mov	r0, r5
   185bc:	eb000251 	bl	18f08 <bcm2835_emmc_handle_interrupts>
   185c0:	e5952064 	ldr	r2, [r5, #100]	; 0x64
   185c4:	e3520000 	cmp	r2, #0
   185c8:	13a03000 	movne	r3, #0
   185cc:	15853040 	strne	r3, [r5, #64]	; 0x40
   185d0:	1a000005 	bne	185ec <sd_read+0x2d4>
   185d4:	e3a0300c 	mov	r3, #12
   185d8:	e1a00005 	mov	r0, r5
   185dc:	e585303c 	str	r3, [r5, #60]	; 0x3c
   185e0:	e59f10c0 	ldr	r1, [pc, #192]	; 186a8 <sd_read+0x390>
   185e4:	e59f3094 	ldr	r3, [pc, #148]	; 18680 <sd_read+0x368>
   185e8:	eb00011d 	bl	18a64 <bcm2835_emmc_issue_command>
   185ec:	e59d300c 	ldr	r3, [sp, #12]
   185f0:	e5935040 	ldr	r5, [r3, #64]	; 0x40
   185f4:	e3550000 	cmp	r5, #0
   185f8:	0affffcf 	beq	1853c <sd_read+0x224>
   185fc:	eb00004d 	bl	18738 <bcm2835_emmc_reset_dat>
   18600:	eaffff75 	b	183dc <sd_read+0xc4>
   18604:	e59f00a0 	ldr	r0, [pc, #160]	; 186ac <sd_read+0x394>
   18608:	ebffd1be 	bl	cd08 <printf>
   1860c:	e3a02000 	mov	r2, #0
   18610:	e59d300c 	ldr	r3, [sp, #12]
   18614:	e5832024 	str	r2, [r3, #36]	; 0x24
   18618:	eaffffcb 	b	1854c <sd_read+0x234>
   1861c:	e1a01006 	mov	r1, r6
   18620:	e1a02005 	mov	r2, r5
   18624:	e59f0084 	ldr	r0, [pc, #132]	; 186b0 <sd_read+0x398>
   18628:	ebffd1b6 	bl	cd08 <printf>
   1862c:	eaffffc6 	b	1854c <sd_read+0x234>
   18630:	e1a01006 	mov	r1, r6
   18634:	e1a02005 	mov	r2, r5
   18638:	e59f0074 	ldr	r0, [pc, #116]	; 186b4 <sd_read+0x39c>
   1863c:	ebffd1b1 	bl	cd08 <printf>
   18640:	eaffffc1 	b	1854c <sd_read+0x234>
   18644:	e59f006c 	ldr	r0, [pc, #108]	; 186b8 <sd_read+0x3a0>
   18648:	ebffd1ae 	bl	cd08 <printf>
   1864c:	e59d300c 	ldr	r3, [sp, #12]
   18650:	e5839024 	str	r9, [r3, #36]	; 0x24
   18654:	eaffffbc 	b	1854c <sd_read+0x234>
   18658:	e59f005c 	ldr	r0, [pc, #92]	; 186bc <sd_read+0x3a4>
   1865c:	ebffd1a9 	bl	cd08 <printf>
   18660:	e59d300c 	ldr	r3, [sp, #12]
   18664:	e5835024 	str	r5, [r3, #36]	; 0x24
   18668:	eaffffb7 	b	1854c <sd_read+0x234>
   1866c:	e59f004c 	ldr	r0, [pc, #76]	; 186c0 <sd_read+0x3a8>
   18670:	ebffd1a4 	bl	cd08 <printf>
   18674:	e5845024 	str	r5, [r4, #36]	; 0x24
   18678:	eaffffb3 	b	1854c <sd_read+0x234>
   1867c:	0d0a0000 	stceq	0, cr0, [sl, #-0]
   18680:	0007a120 	andeq	sl, r7, r0, lsr #2
   18684:	0001dbd8 	ldrdeq	sp, [r1], -r8
   18688:	0001e880 	andeq	lr, r1, r0, lsl #17
   1868c:	0001e89c 	muleq	r1, ip, r8
   18690:	0001e8ac 	andeq	lr, r1, ip, lsr #17
   18694:	004c4b40 	subeq	r4, ip, r0, asr #22
   18698:	0001e864 	andeq	lr, r1, r4, ror #16
   1869c:	0001e718 	andeq	lr, r1, r8, lsl r7
   186a0:	070b0000 	streq	r0, [fp, -r0]
   186a4:	0001e6e8 	andeq	lr, r1, r8, ror #13
   186a8:	0ccb0000 	stcleq	0, cr0, [fp], {0}
   186ac:	0001e778 	andeq	lr, r1, r8, ror r7
   186b0:	0001e7b4 			; <UNDEFINED> instruction: 0x0001e7b4
   186b4:	0001e804 	andeq	lr, r1, r4, lsl #16
   186b8:	0001e6bc 			; <UNDEFINED> instruction: 0x0001e6bc
   186bc:	0001e748 	andeq	lr, r1, r8, asr #14
   186c0:	0001e8bc 			; <UNDEFINED> instruction: 0x0001e8bc

000186c4 <bcm2835_emmc_sdcard_power_off>:
   186c4:	e12fff1e 	bx	lr

000186c8 <bcm2835_emmc_reset_cmd>:
   186c8:	e59f3060 	ldr	r3, [pc, #96]	; 18730 <bcm2835_emmc_reset_cmd+0x68>
   186cc:	e59fc060 	ldr	ip, [pc, #96]	; 18734 <bcm2835_emmc_reset_cmd+0x6c>
   186d0:	e593202c 	ldr	r2, [r3, #44]	; 0x2c
   186d4:	e1a01003 	mov	r1, r3
   186d8:	e3822402 	orr	r2, r2, #33554432	; 0x2000000
   186dc:	e583202c 	str	r2, [r3, #44]	; 0x2c
   186e0:	e59c3004 	ldr	r3, [ip, #4]
   186e4:	e1a0000c 	mov	r0, ip
   186e8:	e5932000 	ldr	r2, [r3]
   186ec:	e282293d 	add	r2, r2, #999424	; 0xf4000
   186f0:	e2822d09 	add	r2, r2, #576	; 0x240
   186f4:	ea000003 	b	18708 <bcm2835_emmc_reset_cmd+0x40>
   186f8:	e5903004 	ldr	r3, [r0, #4]
   186fc:	e5933000 	ldr	r3, [r3]
   18700:	e1520003 	cmp	r2, r3
   18704:	9a000002 	bls	18714 <bcm2835_emmc_reset_cmd+0x4c>
   18708:	e591302c 	ldr	r3, [r1, #44]	; 0x2c
   1870c:	e3130402 	tst	r3, #33554432	; 0x2000000
   18710:	1afffff8 	bne	186f8 <bcm2835_emmc_reset_cmd+0x30>
   18714:	e59f3014 	ldr	r3, [pc, #20]	; 18730 <bcm2835_emmc_reset_cmd+0x68>
   18718:	e593002c 	ldr	r0, [r3, #44]	; 0x2c
   1871c:	e2100402 	ands	r0, r0, #33554432	; 0x2000000
   18720:	03a02801 	moveq	r2, #65536	; 0x10000
   18724:	05832030 	streq	r2, [r3, #48]	; 0x30
   18728:	13e00000 	mvnne	r0, #0
   1872c:	e12fff1e 	bx	lr
   18730:	20300000 	eorscs	r0, r0, r0
   18734:	20003000 	andcs	r3, r0, r0

00018738 <bcm2835_emmc_reset_dat>:
   18738:	e59f3058 	ldr	r3, [pc, #88]	; 18798 <bcm2835_emmc_reset_dat+0x60>
   1873c:	e59fc058 	ldr	ip, [pc, #88]	; 1879c <bcm2835_emmc_reset_dat+0x64>
   18740:	e593202c 	ldr	r2, [r3, #44]	; 0x2c
   18744:	e1a01003 	mov	r1, r3
   18748:	e3822301 	orr	r2, r2, #67108864	; 0x4000000
   1874c:	e583202c 	str	r2, [r3, #44]	; 0x2c
   18750:	e59c3004 	ldr	r3, [ip, #4]
   18754:	e1a0000c 	mov	r0, ip
   18758:	e5932000 	ldr	r2, [r3]
   1875c:	e282293d 	add	r2, r2, #999424	; 0xf4000
   18760:	e2822d09 	add	r2, r2, #576	; 0x240
   18764:	ea000003 	b	18778 <bcm2835_emmc_reset_dat+0x40>
   18768:	e5903004 	ldr	r3, [r0, #4]
   1876c:	e5933000 	ldr	r3, [r3]
   18770:	e1520003 	cmp	r2, r3
   18774:	9a000002 	bls	18784 <bcm2835_emmc_reset_dat+0x4c>
   18778:	e591302c 	ldr	r3, [r1, #44]	; 0x2c
   1877c:	e3130301 	tst	r3, #67108864	; 0x4000000
   18780:	1afffff8 	bne	18768 <bcm2835_emmc_reset_dat+0x30>
   18784:	e59f300c 	ldr	r3, [pc, #12]	; 18798 <bcm2835_emmc_reset_dat+0x60>
   18788:	e593002c 	ldr	r0, [r3, #44]	; 0x2c
   1878c:	e2100301 	ands	r0, r0, #67108864	; 0x4000000
   18790:	13e00000 	mvnne	r0, #0
   18794:	e12fff1e 	bx	lr
   18798:	20300000 	eorscs	r0, r0, r0
   1879c:	20003000 	andcs	r3, r0, r0

000187a0 <bcm2835_emmc_set_clock>:
   187a0:	e92d41f0 	push	{r4, r5, r6, r7, r8, lr}
   187a4:	e1a06000 	mov	r6, r0
   187a8:	e3a00004 	mov	r0, #4
   187ac:	eb0005b4 	bl	19e84 <bcm2835_vc_get_clock_rate>
   187b0:	e1500006 	cmp	r0, r6
   187b4:	93a04000 	movls	r4, #0
   187b8:	e1a05000 	mov	r5, r0
   187bc:	91a08004 	movls	r8, r4
   187c0:	9a00000f 	bls	18804 <bcm2835_emmc_set_clock+0x64>
   187c4:	e3a04002 	mov	r4, #2
   187c8:	e59f70a8 	ldr	r7, [pc, #168]	; 18878 <bcm2835_emmc_set_clock+0xd8>
   187cc:	ea000002 	b	187dc <bcm2835_emmc_set_clock+0x3c>
   187d0:	e2844002 	add	r4, r4, #2
   187d4:	e1540007 	cmp	r4, r7
   187d8:	0a000023 	beq	1886c <bcm2835_emmc_set_clock+0xcc>
   187dc:	e1a00005 	mov	r0, r5
   187e0:	e1a01004 	mov	r1, r4
   187e4:	eb000f27 	bl	1c488 <__aeabi_uidiv>
   187e8:	e1560000 	cmp	r6, r0
   187ec:	3afffff7 	bcc	187d0 <bcm2835_emmc_set_clock+0x30>
   187f0:	e1a040c4 	asr	r4, r4, #1
   187f4:	e1a08404 	lsl	r8, r4, #8
   187f8:	e2043c03 	and	r3, r4, #768	; 0x300
   187fc:	e6ff8078 	uxth	r8, r8
   18800:	e1a04123 	lsr	r4, r3, #2
   18804:	e59f3070 	ldr	r3, [pc, #112]	; 1887c <bcm2835_emmc_set_clock+0xdc>
   18808:	e5930024 	ldr	r0, [r3, #36]	; 0x24
   1880c:	e59f6068 	ldr	r6, [pc, #104]	; 1887c <bcm2835_emmc_set_clock+0xdc>
   18810:	e2105001 	ands	r5, r0, #1
   18814:	1afffffb 	bne	18808 <bcm2835_emmc_set_clock+0x68>
   18818:	e596702c 	ldr	r7, [r6, #44]	; 0x2c
   1881c:	e1884004 	orr	r4, r8, r4
   18820:	e3c73004 	bic	r3, r7, #4
   18824:	e3c77cff 	bic	r7, r7, #65280	; 0xff00
   18828:	e3c770e4 	bic	r7, r7, #228	; 0xe4
   1882c:	e586302c 	str	r3, [r6, #44]	; 0x2c
   18830:	e1844007 	orr	r4, r4, r7
   18834:	e3a00e7d 	mov	r0, #2000	; 0x7d0
   18838:	e3a01000 	mov	r1, #0
   1883c:	eb00071f 	bl	1a4c0 <udelay>
   18840:	e586402c 	str	r4, [r6, #44]	; 0x2c
   18844:	e3a00e7d 	mov	r0, #2000	; 0x7d0
   18848:	e3a01000 	mov	r1, #0
   1884c:	e3844004 	orr	r4, r4, #4
   18850:	eb00071a 	bl	1a4c0 <udelay>
   18854:	e586402c 	str	r4, [r6, #44]	; 0x2c
   18858:	e3a00e7d 	mov	r0, #2000	; 0x7d0
   1885c:	e3a01000 	mov	r1, #0
   18860:	eb000716 	bl	1a4c0 <udelay>
   18864:	e1a00005 	mov	r0, r5
   18868:	e8bd81f0 	pop	{r4, r5, r6, r7, r8, pc}
   1886c:	e3a040c0 	mov	r4, #192	; 0xc0
   18870:	e3a08cff 	mov	r8, #65280	; 0xff00
   18874:	eaffffe2 	b	18804 <bcm2835_emmc_set_clock+0x64>
   18878:	000007fe 	strdeq	r0, [r0], -lr
   1887c:	20300000 	eorscs	r0, r0, r0

00018880 <bcm2825_emmc_init>:
   18880:	e92d43f8 	push	{r3, r4, r5, r6, r7, r8, r9, lr}
   18884:	e3a00000 	mov	r0, #0
   18888:	eb00060e 	bl	1a0c8 <bcm2835_vc_get_power_state>
   1888c:	e3500000 	cmp	r0, #0
   18890:	0a00000a 	beq	188c0 <bcm2825_emmc_init+0x40>
   18894:	e3a00000 	mov	r0, #0
   18898:	e3a01002 	mov	r1, #2
   1889c:	eb00062f 	bl	1a160 <bcm2835_vc_set_power_state>
   188a0:	e2403001 	sub	r3, r0, #1
   188a4:	e16f3f13 	clz	r3, r3
   188a8:	e1a032a3 	lsr	r3, r3, #5
   188ac:	e1933fa0 	orrs	r3, r3, r0, lsr #31
   188b0:	1a000007 	bne	188d4 <bcm2825_emmc_init+0x54>
   188b4:	e59f0194 	ldr	r0, [pc, #404]	; 18a50 <bcm2825_emmc_init+0x1d0>
   188b8:	e3a01000 	mov	r1, #0
   188bc:	eb0006ff 	bl	1a4c0 <udelay>
   188c0:	e3a00000 	mov	r0, #0
   188c4:	e3a01003 	mov	r1, #3
   188c8:	eb000624 	bl	1a160 <bcm2835_vc_set_power_state>
   188cc:	e3500001 	cmp	r0, #1
   188d0:	0a000002 	beq	188e0 <bcm2825_emmc_init+0x60>
   188d4:	e3e04000 	mvn	r4, #0
   188d8:	e1a00004 	mov	r0, r4
   188dc:	e8bd83f8 	pop	{r3, r4, r5, r6, r7, r8, r9, pc}
   188e0:	e59f216c 	ldr	r2, [pc, #364]	; 18a54 <bcm2825_emmc_init+0x1d4>
   188e4:	e59230fc 	ldr	r3, [r2, #252]	; 0xfc
   188e8:	e1a03823 	lsr	r3, r3, #16
   188ec:	e6ef3073 	uxtb	r3, r3
   188f0:	e3530001 	cmp	r3, #1
   188f4:	9afffff6 	bls	188d4 <bcm2825_emmc_init+0x54>
   188f8:	e592302c 	ldr	r3, [r2, #44]	; 0x2c
   188fc:	e59fc154 	ldr	ip, [pc, #340]	; 18a58 <bcm2825_emmc_init+0x1d8>
   18900:	e3c33005 	bic	r3, r3, #5
   18904:	e3833401 	orr	r3, r3, #16777216	; 0x1000000
   18908:	e582302c 	str	r3, [r2, #44]	; 0x2c
   1890c:	e59c3004 	ldr	r3, [ip, #4]
   18910:	e1a01002 	mov	r1, r2
   18914:	e5932000 	ldr	r2, [r3]
   18918:	e1a0000c 	mov	r0, ip
   1891c:	e282293d 	add	r2, r2, #999424	; 0xf4000
   18920:	e2822d09 	add	r2, r2, #576	; 0x240
   18924:	ea000003 	b	18938 <bcm2825_emmc_init+0xb8>
   18928:	e5903004 	ldr	r3, [r0, #4]
   1892c:	e5933000 	ldr	r3, [r3]
   18930:	e1520003 	cmp	r2, r3
   18934:	9a000002 	bls	18944 <bcm2825_emmc_init+0xc4>
   18938:	e591302c 	ldr	r3, [r1, #44]	; 0x2c
   1893c:	e3130407 	tst	r3, #117440512	; 0x7000000
   18940:	1afffff8 	bne	18928 <bcm2825_emmc_init+0xa8>
   18944:	e59f3108 	ldr	r3, [pc, #264]	; 18a54 <bcm2825_emmc_init+0x1d4>
   18948:	e593402c 	ldr	r4, [r3, #44]	; 0x2c
   1894c:	e2144407 	ands	r4, r4, #117440512	; 0x7000000
   18950:	1affffdf 	bne	188d4 <bcm2825_emmc_init+0x54>
   18954:	e583403c 	str	r4, [r3, #60]	; 0x3c
   18958:	e3a00004 	mov	r0, #4
   1895c:	e593702c 	ldr	r7, [r3, #44]	; 0x2c
   18960:	eb000547 	bl	19e84 <bcm2835_vc_get_clock_rate>
   18964:	e59f60f0 	ldr	r6, [pc, #240]	; 18a5c <bcm2825_emmc_init+0x1dc>
   18968:	e1a08000 	mov	r8, r0
   1896c:	e1500006 	cmp	r0, r6
   18970:	91a03004 	movls	r3, r4
   18974:	91a02004 	movls	r2, r4
   18978:	9a00000f 	bls	189bc <bcm2825_emmc_init+0x13c>
   1897c:	e3a05002 	mov	r5, #2
   18980:	e59f90d8 	ldr	r9, [pc, #216]	; 18a60 <bcm2825_emmc_init+0x1e0>
   18984:	ea000002 	b	18994 <bcm2825_emmc_init+0x114>
   18988:	e2855002 	add	r5, r5, #2
   1898c:	e1550009 	cmp	r5, r9
   18990:	0a00002b 	beq	18a44 <bcm2825_emmc_init+0x1c4>
   18994:	e1a00008 	mov	r0, r8
   18998:	e1a01005 	mov	r1, r5
   1899c:	eb000eb9 	bl	1c488 <__aeabi_uidiv>
   189a0:	e1500006 	cmp	r0, r6
   189a4:	8afffff7 	bhi	18988 <bcm2825_emmc_init+0x108>
   189a8:	e1a050c5 	asr	r5, r5, #1
   189ac:	e1a02405 	lsl	r2, r5, #8
   189b0:	e2055c03 	and	r5, r5, #768	; 0x300
   189b4:	e6ff2072 	uxth	r2, r2
   189b8:	e1a03125 	lsr	r3, r5, #2
   189bc:	e387c807 	orr	ip, r7, #458752	; 0x70000
   189c0:	e38cc001 	orr	ip, ip, #1
   189c4:	e59f5088 	ldr	r5, [pc, #136]	; 18a54 <bcm2825_emmc_init+0x1d4>
   189c8:	e18c2002 	orr	r2, ip, r2
   189cc:	e1823003 	orr	r3, r2, r3
   189d0:	e59fe080 	ldr	lr, [pc, #128]	; 18a58 <bcm2825_emmc_init+0x1d8>
   189d4:	e585302c 	str	r3, [r5, #44]	; 0x2c
   189d8:	e59e3004 	ldr	r3, [lr, #4]
   189dc:	e1a01005 	mov	r1, r5
   189e0:	e5932000 	ldr	r2, [r3]
   189e4:	e1a0000e 	mov	r0, lr
   189e8:	e2822401 	add	r2, r2, #16777216	; 0x1000000
   189ec:	ea000003 	b	18a00 <bcm2825_emmc_init+0x180>
   189f0:	e5903004 	ldr	r3, [r0, #4]
   189f4:	e5933000 	ldr	r3, [r3]
   189f8:	e1520003 	cmp	r2, r3
   189fc:	9a000002 	bls	18a0c <bcm2825_emmc_init+0x18c>
   18a00:	e591302c 	ldr	r3, [r1, #44]	; 0x2c
   18a04:	e3130002 	tst	r3, #2
   18a08:	0afffff8 	beq	189f0 <bcm2825_emmc_init+0x170>
   18a0c:	e59f5040 	ldr	r5, [pc, #64]	; 18a54 <bcm2825_emmc_init+0x1d4>
   18a10:	e595302c 	ldr	r3, [r5, #44]	; 0x2c
   18a14:	e3130002 	tst	r3, #2
   18a18:	0affffad 	beq	188d4 <bcm2825_emmc_init+0x54>
   18a1c:	e3a00e7d 	mov	r0, #2000	; 0x7d0
   18a20:	e3a01000 	mov	r1, #0
   18a24:	eb0006a5 	bl	1a4c0 <udelay>
   18a28:	e595302c 	ldr	r3, [r5, #44]	; 0x2c
   18a2c:	e3a00e7d 	mov	r0, #2000	; 0x7d0
   18a30:	e3833004 	orr	r3, r3, #4
   18a34:	e3a01000 	mov	r1, #0
   18a38:	e585302c 	str	r3, [r5, #44]	; 0x2c
   18a3c:	eb00069f 	bl	1a4c0 <udelay>
   18a40:	eaffffa4 	b	188d8 <bcm2825_emmc_init+0x58>
   18a44:	e3a030c0 	mov	r3, #192	; 0xc0
   18a48:	e3a02cff 	mov	r2, #65280	; 0xff00
   18a4c:	eaffffda 	b	189bc <bcm2825_emmc_init+0x13c>
   18a50:	00001388 	andeq	r1, r0, r8, lsl #7
   18a54:	20300000 	eorscs	r0, r0, r0
   18a58:	20003000 	andcs	r3, r0, r0
   18a5c:	003d0900 	eorseq	r0, sp, r0, lsl #18
   18a60:	000007fe 	strdeq	r0, [r0], -lr

00018a64 <bcm2835_emmc_issue_command>:
   18a64:	e92d4ff0 	push	{r4, r5, r6, r7, r8, r9, sl, fp, lr}
   18a68:	e1a06000 	mov	r6, r0
   18a6c:	e1a04001 	mov	r4, r1
   18a70:	e3a00000 	mov	r0, #0
   18a74:	e1a08003 	mov	r8, r3
   18a78:	e59f144c 	ldr	r1, [pc, #1100]	; 18ecc <bcm2835_emmc_issue_command+0x468>
   18a7c:	e24dd01c 	sub	sp, sp, #28
   18a80:	e5864038 	str	r4, [r6, #56]	; 0x38
   18a84:	e5860040 	str	r0, [r6, #64]	; 0x40
   18a88:	e5913024 	ldr	r3, [r1, #36]	; 0x24
   18a8c:	e3130001 	tst	r3, #1
   18a90:	1afffffc 	bne	18a88 <bcm2835_emmc_issue_command+0x24>
   18a94:	e2043803 	and	r3, r4, #196608	; 0x30000
   18a98:	e3530803 	cmp	r3, #196608	; 0x30000
   18a9c:	0a000043 	beq	18bb0 <bcm2835_emmc_issue_command+0x14c>
   18aa0:	e3140602 	tst	r4, #2097152	; 0x200000
   18aa4:	0a000012 	beq	18af4 <bcm2835_emmc_issue_command+0x90>
   18aa8:	e5963060 	ldr	r3, [r6, #96]	; 0x60
   18aac:	e3530000 	cmp	r3, #0
   18ab0:	0a00000f 	beq	18af4 <bcm2835_emmc_issue_command+0x90>
   18ab4:	e5961058 	ldr	r1, [r6, #88]	; 0x58
   18ab8:	e59f340c 	ldr	r3, [pc, #1036]	; 18ecc <bcm2835_emmc_issue_command+0x468>
   18abc:	e59f040c 	ldr	r0, [pc, #1036]	; 18ed0 <bcm2835_emmc_issue_command+0x46c>
   18ac0:	e3510801 	cmp	r1, #65536	; 0x10000
   18ac4:	e5830000 	str	r0, [r3]
   18ac8:	aa000036 	bge	18ba8 <bcm2835_emmc_issue_command+0x144>
   18acc:	e596005c 	ldr	r0, [r6, #92]	; 0x5c
   18ad0:	e3844001 	orr	r4, r4, #1
   18ad4:	e1801801 	orr	r1, r0, r1, lsl #16
   18ad8:	e5831004 	str	r1, [r3, #4]
   18adc:	e3a01000 	mov	r1, #0
   18ae0:	e58d100c 	str	r1, [sp, #12]
   18ae4:	e5832008 	str	r2, [r3, #8]
   18ae8:	e3a03001 	mov	r3, #1
   18aec:	e58d3010 	str	r3, [sp, #16]
   18af0:	ea00000b 	b	18b24 <bcm2835_emmc_issue_command+0xc0>
   18af4:	e5963058 	ldr	r3, [r6, #88]	; 0x58
   18af8:	e3530801 	cmp	r3, #65536	; 0x10000
   18afc:	aa000029 	bge	18ba8 <bcm2835_emmc_issue_command+0x144>
   18b00:	e596105c 	ldr	r1, [r6, #92]	; 0x5c
   18b04:	e59f03c0 	ldr	r0, [pc, #960]	; 18ecc <bcm2835_emmc_issue_command+0x468>
   18b08:	e1813803 	orr	r3, r1, r3, lsl #16
   18b0c:	e5803004 	str	r3, [r0, #4]
   18b10:	e3a03001 	mov	r3, #1
   18b14:	e58d300c 	str	r3, [sp, #12]
   18b18:	e3a03000 	mov	r3, #0
   18b1c:	e5802008 	str	r2, [r0, #8]
   18b20:	e58d3010 	str	r3, [sp, #16]
   18b24:	e59f53a0 	ldr	r5, [pc, #928]	; 18ecc <bcm2835_emmc_issue_command+0x468>
   18b28:	e3a00e7d 	mov	r0, #2000	; 0x7d0
   18b2c:	e3a01000 	mov	r1, #0
   18b30:	e585400c 	str	r4, [r5, #12]
   18b34:	eb000661 	bl	1a4c0 <udelay>
   18b38:	e59f3394 	ldr	r3, [pc, #916]	; 18ed4 <bcm2835_emmc_issue_command+0x470>
   18b3c:	e1a01005 	mov	r1, r5
   18b40:	e1a0c003 	mov	ip, r3
   18b44:	e5933004 	ldr	r3, [r3, #4]
   18b48:	e5930000 	ldr	r0, [r3]
   18b4c:	e0880000 	add	r0, r8, r0
   18b50:	ea000003 	b	18b64 <bcm2835_emmc_issue_command+0x100>
   18b54:	e59c3004 	ldr	r3, [ip, #4]
   18b58:	e5933000 	ldr	r3, [r3]
   18b5c:	e1500003 	cmp	r0, r3
   18b60:	9a000004 	bls	18b78 <bcm2835_emmc_issue_command+0x114>
   18b64:	e5912030 	ldr	r2, [r1, #48]	; 0x30
   18b68:	e59f3368 	ldr	r3, [pc, #872]	; 18ed8 <bcm2835_emmc_issue_command+0x474>
   18b6c:	e0033002 	and	r3, r3, r2
   18b70:	e3530000 	cmp	r3, #0
   18b74:	0afffff6 	beq	18b54 <bcm2835_emmc_issue_command+0xf0>
   18b78:	e59f234c 	ldr	r2, [pc, #844]	; 18ecc <bcm2835_emmc_issue_command+0x468>
   18b7c:	e59f3358 	ldr	r3, [pc, #856]	; 18edc <bcm2835_emmc_issue_command+0x478>
   18b80:	e5921030 	ldr	r1, [r2, #48]	; 0x30
   18b84:	e5823030 	str	r3, [r2, #48]	; 0x30
   18b88:	e3c13cff 	bic	r3, r1, #65280	; 0xff00
   18b8c:	e3c330fe 	bic	r3, r3, #254	; 0xfe
   18b90:	e3530001 	cmp	r3, #1
   18b94:	0a00000d 	beq	18bd0 <bcm2835_emmc_issue_command+0x16c>
   18b98:	e1a03821 	lsr	r3, r1, #16
   18b9c:	e1a03803 	lsl	r3, r3, #16
   18ba0:	e5861028 	str	r1, [r6, #40]	; 0x28
   18ba4:	e586302c 	str	r3, [r6, #44]	; 0x2c
   18ba8:	e28dd01c 	add	sp, sp, #28
   18bac:	e8bd8ff0 	pop	{r4, r5, r6, r7, r8, r9, sl, fp, pc}
   18bb0:	e2043503 	and	r3, r4, #12582912	; 0xc00000
   18bb4:	e3530503 	cmp	r3, #12582912	; 0xc00000
   18bb8:	0affffb8 	beq	18aa0 <bcm2835_emmc_issue_command+0x3c>
   18bbc:	e59f1308 	ldr	r1, [pc, #776]	; 18ecc <bcm2835_emmc_issue_command+0x468>
   18bc0:	e5913024 	ldr	r3, [r1, #36]	; 0x24
   18bc4:	e3130002 	tst	r3, #2
   18bc8:	1afffffc 	bne	18bc0 <bcm2835_emmc_issue_command+0x15c>
   18bcc:	eaffffb3 	b	18aa0 <bcm2835_emmc_issue_command+0x3c>
   18bd0:	e204a803 	and	sl, r4, #196608	; 0x30000
   18bd4:	e35a0802 	cmp	sl, #131072	; 0x20000
   18bd8:	0a000065 	beq	18d74 <bcm2835_emmc_issue_command+0x310>
   18bdc:	e35a0803 	cmp	sl, #196608	; 0x30000
   18be0:	0a000063 	beq	18d74 <bcm2835_emmc_issue_command+0x310>
   18be4:	e35a0801 	cmp	sl, #65536	; 0x10000
   18be8:	1a000007 	bne	18c0c <bcm2835_emmc_issue_command+0x1a8>
   18bec:	e5923010 	ldr	r3, [r2, #16]
   18bf0:	e5863044 	str	r3, [r6, #68]	; 0x44
   18bf4:	e5923014 	ldr	r3, [r2, #20]
   18bf8:	e5863048 	str	r3, [r6, #72]	; 0x48
   18bfc:	e5923018 	ldr	r3, [r2, #24]
   18c00:	e586304c 	str	r3, [r6, #76]	; 0x4c
   18c04:	e592301c 	ldr	r3, [r2, #28]
   18c08:	e5863050 	str	r3, [r6, #80]	; 0x50
   18c0c:	e1a03aa4 	lsr	r3, r4, #21
   18c10:	e59d200c 	ldr	r2, [sp, #12]
   18c14:	e2033001 	and	r3, r3, #1
   18c18:	e1130002 	tst	r3, r2
   18c1c:	e58d3008 	str	r3, [sp, #8]
   18c20:	0a000037 	beq	18d04 <bcm2835_emmc_issue_command+0x2a0>
   18c24:	e59f32b4 	ldr	r3, [pc, #692]	; 18ee0 <bcm2835_emmc_issue_command+0x47c>
   18c28:	e2044010 	and	r4, r4, #16
   18c2c:	e3540000 	cmp	r4, #0
   18c30:	13a03000 	movne	r3, #0
   18c34:	e59fe2a8 	ldr	lr, [pc, #680]	; 18ee4 <bcm2835_emmc_issue_command+0x480>
   18c38:	01a0e003 	moveq	lr, r3
   18c3c:	03a03001 	moveq	r3, #1
   18c40:	e58d3004 	str	r3, [sp, #4]
   18c44:	13a03020 	movne	r3, #32
   18c48:	03a03010 	moveq	r3, #16
   18c4c:	e59f2294 	ldr	r2, [pc, #660]	; 18ee8 <bcm2835_emmc_issue_command+0x484>
   18c50:	e596b058 	ldr	fp, [r6, #88]	; 0x58
   18c54:	e59f9290 	ldr	r9, [pc, #656]	; 18eec <bcm2835_emmc_issue_command+0x488>
   18c58:	01a09002 	moveq	r9, r2
   18c5c:	e35b0000 	cmp	fp, #0
   18c60:	e1a02003 	mov	r2, r3
   18c64:	e5965054 	ldr	r5, [r6, #84]	; 0x54
   18c68:	da000025 	ble	18d04 <bcm2835_emmc_issue_command+0x2a0>
   18c6c:	e58da014 	str	sl, [sp, #20]
   18c70:	e3a03000 	mov	r3, #0
   18c74:	e1a0a002 	mov	sl, r2
   18c78:	e59fc254 	ldr	ip, [pc, #596]	; 18ed4 <bcm2835_emmc_issue_command+0x470>
   18c7c:	e59f1248 	ldr	r1, [pc, #584]	; 18ecc <bcm2835_emmc_issue_command+0x468>
   18c80:	e59c2004 	ldr	r2, [ip, #4]
   18c84:	e5920000 	ldr	r0, [r2]
   18c88:	e0800008 	add	r0, r0, r8
   18c8c:	ea000003 	b	18ca0 <bcm2835_emmc_issue_command+0x23c>
   18c90:	e59c2004 	ldr	r2, [ip, #4]
   18c94:	e5922000 	ldr	r2, [r2]
   18c98:	e1500002 	cmp	r0, r2
   18c9c:	9a000002 	bls	18cac <bcm2835_emmc_issue_command+0x248>
   18ca0:	e5912030 	ldr	r2, [r1, #48]	; 0x30
   18ca4:	e11e0002 	tst	lr, r2
   18ca8:	0afffff8 	beq	18c90 <bcm2835_emmc_issue_command+0x22c>
   18cac:	e5912030 	ldr	r2, [r1, #48]	; 0x30
   18cb0:	e5819030 	str	r9, [r1, #48]	; 0x30
   18cb4:	e0090002 	and	r0, r9, r2
   18cb8:	e150000a 	cmp	r0, sl
   18cbc:	1a000078 	bne	18ea4 <bcm2835_emmc_issue_command+0x440>
   18cc0:	e596005c 	ldr	r0, [r6, #92]	; 0x5c
   18cc4:	e3500000 	cmp	r0, #0
   18cc8:	0a000009 	beq	18cf4 <bcm2835_emmc_issue_command+0x290>
   18ccc:	e59d2004 	ldr	r2, [sp, #4]
   18cd0:	e3520000 	cmp	r2, #0
   18cd4:	e1a02005 	mov	r2, r5
   18cd8:	1a000015 	bne	18d34 <bcm2835_emmc_issue_command+0x2d0>
   18cdc:	e5914020 	ldr	r4, [r1, #32]
   18ce0:	e4824004 	str	r4, [r2], #4
   18ce4:	e0654002 	rsb	r4, r5, r2
   18ce8:	e1540000 	cmp	r4, r0
   18cec:	3afffffa 	bcc	18cdc <bcm2835_emmc_issue_command+0x278>
   18cf0:	e1a05002 	mov	r5, r2
   18cf4:	e2833001 	add	r3, r3, #1
   18cf8:	e153000b 	cmp	r3, fp
   18cfc:	1affffdf 	bne	18c80 <bcm2835_emmc_issue_command+0x21c>
   18d00:	e59da014 	ldr	sl, [sp, #20]
   18d04:	e59d3008 	ldr	r3, [sp, #8]
   18d08:	e35a0803 	cmp	sl, #196608	; 0x30000
   18d0c:	03833001 	orreq	r3, r3, #1
   18d10:	e3530000 	cmp	r3, #0
   18d14:	1a00000c 	bne	18d4c <bcm2835_emmc_issue_command+0x2e8>
   18d18:	e59d3010 	ldr	r3, [sp, #16]
   18d1c:	e3530000 	cmp	r3, #0
   18d20:	1a000017 	bne	18d84 <bcm2835_emmc_issue_command+0x320>
   18d24:	e3a03001 	mov	r3, #1
   18d28:	e5863040 	str	r3, [r6, #64]	; 0x40
   18d2c:	e28dd01c 	add	sp, sp, #28
   18d30:	e8bd8ff0 	pop	{r4, r5, r6, r7, r8, r9, sl, fp, pc}
   18d34:	e4924004 	ldr	r4, [r2], #4
   18d38:	e0657002 	rsb	r7, r5, r2
   18d3c:	e1570000 	cmp	r7, r0
   18d40:	e5814020 	str	r4, [r1, #32]
   18d44:	3afffffa 	bcc	18d34 <bcm2835_emmc_issue_command+0x2d0>
   18d48:	eaffffe8 	b	18cf0 <bcm2835_emmc_issue_command+0x28c>
   18d4c:	e59d300c 	ldr	r3, [sp, #12]
   18d50:	e3530000 	cmp	r3, #0
   18d54:	0a00000a 	beq	18d84 <bcm2835_emmc_issue_command+0x320>
   18d58:	e59f116c 	ldr	r1, [pc, #364]	; 18ecc <bcm2835_emmc_issue_command+0x468>
   18d5c:	e5913024 	ldr	r3, [r1, #36]	; 0x24
   18d60:	e3130002 	tst	r3, #2
   18d64:	1a000035 	bne	18e40 <bcm2835_emmc_issue_command+0x3dc>
   18d68:	e59f3180 	ldr	r3, [pc, #384]	; 18ef0 <bcm2835_emmc_issue_command+0x48c>
   18d6c:	e5813030 	str	r3, [r1, #48]	; 0x30
   18d70:	eaffffeb 	b	18d24 <bcm2835_emmc_issue_command+0x2c0>
   18d74:	e59f3150 	ldr	r3, [pc, #336]	; 18ecc <bcm2835_emmc_issue_command+0x468>
   18d78:	e5933010 	ldr	r3, [r3, #16]
   18d7c:	e5863044 	str	r3, [r6, #68]	; 0x44
   18d80:	eaffffa1 	b	18c0c <bcm2835_emmc_issue_command+0x1a8>
   18d84:	e59f1140 	ldr	r1, [pc, #320]	; 18ecc <bcm2835_emmc_issue_command+0x468>
   18d88:	e5913024 	ldr	r3, [r1, #36]	; 0x24
   18d8c:	e3130002 	tst	r3, #2
   18d90:	059f315c 	ldreq	r3, [pc, #348]	; 18ef4 <bcm2835_emmc_issue_command+0x490>
   18d94:	05813030 	streq	r3, [r1, #48]	; 0x30
   18d98:	0affffe1 	beq	18d24 <bcm2835_emmc_issue_command+0x2c0>
   18d9c:	e59f3130 	ldr	r3, [pc, #304]	; 18ed4 <bcm2835_emmc_issue_command+0x470>
   18da0:	e1a00003 	mov	r0, r3
   18da4:	e5933004 	ldr	r3, [r3, #4]
   18da8:	e5933000 	ldr	r3, [r3]
   18dac:	e0838008 	add	r8, r3, r8
   18db0:	ea000003 	b	18dc4 <bcm2835_emmc_issue_command+0x360>
   18db4:	e5903004 	ldr	r3, [r0, #4]
   18db8:	e5933000 	ldr	r3, [r3]
   18dbc:	e1580003 	cmp	r8, r3
   18dc0:	9a000004 	bls	18dd8 <bcm2835_emmc_issue_command+0x374>
   18dc4:	e5912030 	ldr	r2, [r1, #48]	; 0x30
   18dc8:	e59f3128 	ldr	r3, [pc, #296]	; 18ef8 <bcm2835_emmc_issue_command+0x494>
   18dcc:	e0033002 	and	r3, r3, r2
   18dd0:	e3530000 	cmp	r3, #0
   18dd4:	0afffff6 	beq	18db4 <bcm2835_emmc_issue_command+0x350>
   18dd8:	e59f10ec 	ldr	r1, [pc, #236]	; 18ecc <bcm2835_emmc_issue_command+0x468>
   18ddc:	e59f2118 	ldr	r2, [pc, #280]	; 18efc <bcm2835_emmc_issue_command+0x498>
   18de0:	e5913030 	ldr	r3, [r1, #48]	; 0x30
   18de4:	e59f0108 	ldr	r0, [pc, #264]	; 18ef4 <bcm2835_emmc_issue_command+0x490>
   18de8:	e0022003 	and	r2, r2, r3
   18dec:	e3520902 	cmp	r2, #32768	; 0x8000
   18df0:	e5810030 	str	r0, [r1, #48]	; 0x30
   18df4:	0a00000c 	beq	18e2c <bcm2835_emmc_issue_command+0x3c8>
   18df8:	e203200a 	and	r2, r3, #10
   18dfc:	e3520008 	cmp	r2, #8
   18e00:	0a000009 	beq	18e2c <bcm2835_emmc_issue_command+0x3c8>
   18e04:	e3130002 	tst	r3, #2
   18e08:	1a00002a 	bne	18eb8 <bcm2835_emmc_issue_command+0x454>
   18e0c:	e3530000 	cmp	r3, #0
   18e10:	1a000005 	bne	18e2c <bcm2835_emmc_issue_command+0x3c8>
   18e14:	e5912024 	ldr	r2, [r1, #36]	; 0x24
   18e18:	e2022003 	and	r2, r2, #3
   18e1c:	e3520002 	cmp	r2, #2
   18e20:	059f20d8 	ldreq	r2, [pc, #216]	; 18f00 <bcm2835_emmc_issue_command+0x49c>
   18e24:	05922030 	ldreq	r2, [r2, #48]	; 0x30
   18e28:	0581200c 	streq	r2, [r1, #12]
   18e2c:	e1a02823 	lsr	r2, r3, #16
   18e30:	e1a02802 	lsl	r2, r2, #16
   18e34:	e5863028 	str	r3, [r6, #40]	; 0x28
   18e38:	e586202c 	str	r2, [r6, #44]	; 0x2c
   18e3c:	eaffff59 	b	18ba8 <bcm2835_emmc_issue_command+0x144>
   18e40:	e59f308c 	ldr	r3, [pc, #140]	; 18ed4 <bcm2835_emmc_issue_command+0x470>
   18e44:	e1a00003 	mov	r0, r3
   18e48:	e5933004 	ldr	r3, [r3, #4]
   18e4c:	e5933000 	ldr	r3, [r3]
   18e50:	e0838008 	add	r8, r3, r8
   18e54:	ea000003 	b	18e68 <bcm2835_emmc_issue_command+0x404>
   18e58:	e5903004 	ldr	r3, [r0, #4]
   18e5c:	e5933000 	ldr	r3, [r3]
   18e60:	e1580003 	cmp	r8, r3
   18e64:	9a000004 	bls	18e7c <bcm2835_emmc_issue_command+0x418>
   18e68:	e5912030 	ldr	r2, [r1, #48]	; 0x30
   18e6c:	e59f3088 	ldr	r3, [pc, #136]	; 18efc <bcm2835_emmc_issue_command+0x498>
   18e70:	e0033002 	and	r3, r3, r2
   18e74:	e3530000 	cmp	r3, #0
   18e78:	0afffff6 	beq	18e58 <bcm2835_emmc_issue_command+0x3f4>
   18e7c:	e59f2048 	ldr	r2, [pc, #72]	; 18ecc <bcm2835_emmc_issue_command+0x468>
   18e80:	e59f307c 	ldr	r3, [pc, #124]	; 18f04 <bcm2835_emmc_issue_command+0x4a0>
   18e84:	e5921030 	ldr	r1, [r2, #48]	; 0x30
   18e88:	e59f0060 	ldr	r0, [pc, #96]	; 18ef0 <bcm2835_emmc_issue_command+0x48c>
   18e8c:	e0033001 	and	r3, r3, r1
   18e90:	e3530002 	cmp	r3, #2
   18e94:	e5820030 	str	r0, [r2, #48]	; 0x30
   18e98:	05820030 	streq	r0, [r2, #48]	; 0x30
   18e9c:	0affffa0 	beq	18d24 <bcm2835_emmc_issue_command+0x2c0>
   18ea0:	eaffff3c 	b	18b98 <bcm2835_emmc_issue_command+0x134>
   18ea4:	e1a03822 	lsr	r3, r2, #16
   18ea8:	e1a03803 	lsl	r3, r3, #16
   18eac:	e5862028 	str	r2, [r6, #40]	; 0x28
   18eb0:	e586302c 	str	r3, [r6, #44]	; 0x2c
   18eb4:	eaffff3b 	b	18ba8 <bcm2835_emmc_issue_command+0x144>
   18eb8:	e5960054 	ldr	r0, [r6, #84]	; 0x54
   18ebc:	e3a01a06 	mov	r1, #24576	; 0x6000
   18ec0:	e596205c 	ldr	r2, [r6, #92]	; 0x5c
   18ec4:	eb00077b 	bl	1acb8 <memcpy>
   18ec8:	eaffff95 	b	18d24 <bcm2835_emmc_issue_command+0x2c0>
   18ecc:	20300000 	eorscs	r0, r0, r0
   18ed0:	c0006000 	andgt	r6, r0, r0
   18ed4:	20003000 	andcs	r3, r0, r0
   18ed8:	00008001 	andeq	r8, r0, r1
   18edc:	ffff0001 			; <UNDEFINED> instruction: 0xffff0001
   18ee0:	00008010 	andeq	r8, r0, r0, lsl r0
   18ee4:	00008020 	andeq	r8, r0, r0, lsr #32
   18ee8:	ffff0010 			; <UNDEFINED> instruction: 0xffff0010
   18eec:	ffff0020 			; <UNDEFINED> instruction: 0xffff0020
   18ef0:	ffff0002 			; <UNDEFINED> instruction: 0xffff0002
   18ef4:	ffff000a 			; <UNDEFINED> instruction: 0xffff000a
   18ef8:	0000800a 	andeq	r8, r0, sl
   18efc:	00008002 	andeq	r8, r0, r2
   18f00:	0001dbd8 	ldrdeq	sp, [r1], -r8
   18f04:	ffef0002 			; <UNDEFINED> instruction: 0xffef0002

00018f08 <bcm2835_emmc_handle_interrupts>:
   18f08:	e92d4038 	push	{r3, r4, r5, lr}
   18f0c:	e59f314c 	ldr	r3, [pc, #332]	; 19060 <bcm2835_emmc_handle_interrupts+0x158>
   18f10:	e5935030 	ldr	r5, [r3, #48]	; 0x30
   18f14:	e2054001 	and	r4, r5, #1
   18f18:	e3150002 	tst	r5, #2
   18f1c:	13844002 	orrne	r4, r4, #2
   18f20:	e3150004 	tst	r5, #4
   18f24:	13844004 	orrne	r4, r4, #4
   18f28:	e3150008 	tst	r5, #8
   18f2c:	13844008 	orrne	r4, r4, #8
   18f30:	e3150010 	tst	r5, #16
   18f34:	1a00000f 	bne	18f78 <bcm2835_emmc_handle_interrupts+0x70>
   18f38:	e3150020 	tst	r5, #32
   18f3c:	1a000025 	bne	18fd8 <bcm2835_emmc_handle_interrupts+0xd0>
   18f40:	e3150040 	tst	r5, #64	; 0x40
   18f44:	13844040 	orrne	r4, r4, #64	; 0x40
   18f48:	e3150080 	tst	r5, #128	; 0x80
   18f4c:	13a03001 	movne	r3, #1
   18f50:	13844080 	orrne	r4, r4, #128	; 0x80
   18f54:	15803064 	strne	r3, [r0, #100]	; 0x64
   18f58:	e3150c01 	tst	r5, #256	; 0x100
   18f5c:	1a000034 	bne	19034 <bcm2835_emmc_handle_interrupts+0x12c>
   18f60:	e3150902 	tst	r5, #32768	; 0x8000
   18f64:	11e04804 	mvnne	r4, r4, lsl #16
   18f68:	11e04824 	mvnne	r4, r4, lsr #16
   18f6c:	e59f30ec 	ldr	r3, [pc, #236]	; 19060 <bcm2835_emmc_handle_interrupts+0x158>
   18f70:	e5834030 	str	r4, [r3, #48]	; 0x30
   18f74:	e8bd8038 	pop	{r3, r4, r5, pc}
   18f78:	e59f30e0 	ldr	r3, [pc, #224]	; 19060 <bcm2835_emmc_handle_interrupts+0x158>
   18f7c:	e59fe0e0 	ldr	lr, [pc, #224]	; 19064 <bcm2835_emmc_handle_interrupts+0x15c>
   18f80:	e593202c 	ldr	r2, [r3, #44]	; 0x2c
   18f84:	e1a01003 	mov	r1, r3
   18f88:	e3822301 	orr	r2, r2, #67108864	; 0x4000000
   18f8c:	e583202c 	str	r2, [r3, #44]	; 0x2c
   18f90:	e59e3004 	ldr	r3, [lr, #4]
   18f94:	e1a0c00e 	mov	ip, lr
   18f98:	e5932000 	ldr	r2, [r3]
   18f9c:	e3844010 	orr	r4, r4, #16
   18fa0:	e282293d 	add	r2, r2, #999424	; 0xf4000
   18fa4:	e2822d09 	add	r2, r2, #576	; 0x240
   18fa8:	ea000003 	b	18fbc <bcm2835_emmc_handle_interrupts+0xb4>
   18fac:	e59c3004 	ldr	r3, [ip, #4]
   18fb0:	e5933000 	ldr	r3, [r3]
   18fb4:	e1520003 	cmp	r2, r3
   18fb8:	9a000002 	bls	18fc8 <bcm2835_emmc_handle_interrupts+0xc0>
   18fbc:	e591302c 	ldr	r3, [r1, #44]	; 0x2c
   18fc0:	e3130301 	tst	r3, #67108864	; 0x4000000
   18fc4:	1afffff8 	bne	18fac <bcm2835_emmc_handle_interrupts+0xa4>
   18fc8:	e59f3090 	ldr	r3, [pc, #144]	; 19060 <bcm2835_emmc_handle_interrupts+0x158>
   18fcc:	e3150020 	tst	r5, #32
   18fd0:	e593302c 	ldr	r3, [r3, #44]	; 0x2c
   18fd4:	0affffd9 	beq	18f40 <bcm2835_emmc_handle_interrupts+0x38>
   18fd8:	e59f3080 	ldr	r3, [pc, #128]	; 19060 <bcm2835_emmc_handle_interrupts+0x158>
   18fdc:	e59fe080 	ldr	lr, [pc, #128]	; 19064 <bcm2835_emmc_handle_interrupts+0x15c>
   18fe0:	e593202c 	ldr	r2, [r3, #44]	; 0x2c
   18fe4:	e1a01003 	mov	r1, r3
   18fe8:	e3822301 	orr	r2, r2, #67108864	; 0x4000000
   18fec:	e583202c 	str	r2, [r3, #44]	; 0x2c
   18ff0:	e59e3004 	ldr	r3, [lr, #4]
   18ff4:	e1a0c00e 	mov	ip, lr
   18ff8:	e5932000 	ldr	r2, [r3]
   18ffc:	e3844020 	orr	r4, r4, #32
   19000:	e282293d 	add	r2, r2, #999424	; 0xf4000
   19004:	e2822d09 	add	r2, r2, #576	; 0x240
   19008:	ea000003 	b	1901c <bcm2835_emmc_handle_interrupts+0x114>
   1900c:	e59c3004 	ldr	r3, [ip, #4]
   19010:	e5933000 	ldr	r3, [r3]
   19014:	e1520003 	cmp	r2, r3
   19018:	9a000002 	bls	19028 <bcm2835_emmc_handle_interrupts+0x120>
   1901c:	e591302c 	ldr	r3, [r1, #44]	; 0x2c
   19020:	e3130301 	tst	r3, #67108864	; 0x4000000
   19024:	1afffff8 	bne	1900c <bcm2835_emmc_handle_interrupts+0x104>
   19028:	e59f3030 	ldr	r3, [pc, #48]	; 19060 <bcm2835_emmc_handle_interrupts+0x158>
   1902c:	e593302c 	ldr	r3, [r3, #44]	; 0x2c
   19030:	eaffffc2 	b	18f40 <bcm2835_emmc_handle_interrupts+0x38>
   19034:	e5902024 	ldr	r2, [r0, #36]	; 0x24
   19038:	e3520000 	cmp	r2, #0
   1903c:	03844c01 	orreq	r4, r4, #256	; 0x100
   19040:	0affffc6 	beq	18f60 <bcm2835_emmc_handle_interrupts+0x58>
   19044:	e59f301c 	ldr	r3, [pc, #28]	; 19068 <bcm2835_emmc_handle_interrupts+0x160>
   19048:	e1a02802 	lsl	r2, r2, #16
   1904c:	e5931034 	ldr	r1, [r3, #52]	; 0x34
   19050:	e59f3014 	ldr	r3, [pc, #20]	; 1906c <bcm2835_emmc_handle_interrupts+0x164>
   19054:	ebfffe82 	bl	18a64 <bcm2835_emmc_issue_command>
   19058:	e3844c01 	orr	r4, r4, #256	; 0x100
   1905c:	eaffffbf 	b	18f60 <bcm2835_emmc_handle_interrupts+0x58>
   19060:	20300000 	eorscs	r0, r0, r0
   19064:	20003000 	andcs	r3, r0, r0
   19068:	0001dbd8 	ldrdeq	sp, [r1], -r8
   1906c:	0007a120 	andeq	sl, r7, r0, lsr #2

00019070 <bcm2835_emmc_enable_all_interrupts_not_arm>:
   19070:	e3a00000 	mov	r0, #0
   19074:	e3e01000 	mvn	r1, #0
   19078:	e3e02c01 	mvn	r2, #256	; 0x100
   1907c:	e59f300c 	ldr	r3, [pc, #12]	; 19090 <bcm2835_emmc_enable_all_interrupts_not_arm+0x20>
   19080:	e5830038 	str	r0, [r3, #56]	; 0x38
   19084:	e5831030 	str	r1, [r3, #48]	; 0x30
   19088:	e5832034 	str	r2, [r3, #52]	; 0x34
   1908c:	e12fff1e 	bx	lr
   19090:	20300000 	eorscs	r0, r0, r0

00019094 <bcm2835_emmc_disable_card_interrupt>:
   19094:	e59f300c 	ldr	r3, [pc, #12]	; 190a8 <bcm2835_emmc_disable_card_interrupt+0x14>
   19098:	e5930034 	ldr	r0, [r3, #52]	; 0x34
   1909c:	e3c02c01 	bic	r2, r0, #256	; 0x100
   190a0:	e5832034 	str	r2, [r3, #52]	; 0x34
   190a4:	e12fff1e 	bx	lr
   190a8:	20300000 	eorscs	r0, r0, r0

000190ac <bcm2835_emmc_4bit_mode_change_bit>:
   190ac:	e59f3010 	ldr	r3, [pc, #16]	; 190c4 <bcm2835_emmc_4bit_mode_change_bit+0x18>
   190b0:	e5932028 	ldr	r2, [r3, #40]	; 0x28
   190b4:	e3822002 	orr	r2, r2, #2
   190b8:	e5832028 	str	r2, [r3, #40]	; 0x28
   190bc:	e5830034 	str	r0, [r3, #52]	; 0x34
   190c0:	e12fff1e 	bx	lr
   190c4:	20300000 	eorscs	r0, r0, r0

000190c8 <bcm2835_emmc_set_block_size>:
   190c8:	e59f2014 	ldr	r2, [pc, #20]	; 190e4 <bcm2835_emmc_set_block_size+0x1c>
   190cc:	e5923004 	ldr	r3, [r2, #4]
   190d0:	e3c33eff 	bic	r3, r3, #4080	; 0xff0
   190d4:	e3c3300f 	bic	r3, r3, #15
   190d8:	e1800003 	orr	r0, r0, r3
   190dc:	e5820004 	str	r0, [r2, #4]
   190e0:	e12fff1e 	bx	lr
   190e4:	20300000 	eorscs	r0, r0, r0

000190e8 <bcm2835_emmc_reset_interrupt_register>:
   190e8:	e3e02000 	mvn	r2, #0
   190ec:	e59f3004 	ldr	r3, [pc, #4]	; 190f8 <bcm2835_emmc_reset_interrupt_register+0x10>
   190f0:	e5832030 	str	r2, [r3, #48]	; 0x30
   190f4:	e12fff1e 	bx	lr
   190f8:	20300000 	eorscs	r0, r0, r0

000190fc <FT245RL_init>:
   190fc:	e3a00502 	mov	r0, #8388608	; 0x800000
   19100:	e3a01501 	mov	r1, #4194304	; 0x400000
   19104:	e59f201c 	ldr	r2, [pc, #28]	; 19128 <FT245RL_init+0x2c>
   19108:	e5923008 	ldr	r3, [r2, #8]
   1910c:	e3c33bff 	bic	r3, r3, #261120	; 0x3fc00
   19110:	e3c33d0f 	bic	r3, r3, #960	; 0x3c0
   19114:	e3833d09 	orr	r3, r3, #576	; 0x240
   19118:	e5823008 	str	r3, [r2, #8]
   1911c:	e582001c 	str	r0, [r2, #28]
   19120:	e5821028 	str	r1, [r2, #40]	; 0x28
   19124:	e12fff1e 	bx	lr
   19128:	20200000 	eorcs	r0, r0, r0

0001912c <FT245RL_write_data>:
   1912c:	e3a01501 	mov	r1, #4194304	; 0x400000
   19130:	e59f3058 	ldr	r3, [pc, #88]	; 19190 <FT245RL_write_data+0x64>
   19134:	e59f2058 	ldr	r2, [pc, #88]	; 19194 <FT245RL_write_data+0x68>
   19138:	e593c000 	ldr	ip, [r3]
   1913c:	e002200c 	and	r2, r2, ip
   19140:	e3822692 	orr	r2, r2, #153092096	; 0x9200000
   19144:	e3822d49 	orr	r2, r2, #4672	; 0x1240
   19148:	e5832000 	str	r2, [r3]
   1914c:	e5932004 	ldr	r2, [r3, #4]
   19150:	e3c2203f 	bic	r2, r2, #63	; 0x3f
   19154:	e3822009 	orr	r2, r2, #9
   19158:	e5832004 	str	r2, [r3, #4]
   1915c:	e583101c 	str	r1, [r3, #28]
   19160:	e320f000 	nop	{0}
   19164:	e3c02007 	bic	r2, r0, #7
   19168:	e1a02202 	lsl	r2, r2, #4
   1916c:	e2000007 	and	r0, r0, #7
   19170:	e1820100 	orr	r0, r2, r0, lsl #2
   19174:	e2202ef9 	eor	r2, r0, #3984	; 0xf90
   19178:	e222200c 	eor	r2, r2, #12
   1917c:	e583001c 	str	r0, [r3, #28]
   19180:	e5832028 	str	r2, [r3, #40]	; 0x28
   19184:	e320f000 	nop	{0}
   19188:	e5831028 	str	r1, [r3, #40]	; 0x28
   1918c:	e12fff1e 	bx	lr
   19190:	20200000 	eorcs	r0, r0, r0
   19194:	c01f803f 	andsgt	r8, pc, pc, lsr r0	; <UNPREDICTABLE>

00019198 <FT245RL_read_data>:
   19198:	e3a01502 	mov	r1, #8388608	; 0x800000
   1919c:	e59f204c 	ldr	r2, [pc, #76]	; 191f0 <FT245RL_read_data+0x58>
   191a0:	e59f304c 	ldr	r3, [pc, #76]	; 191f4 <FT245RL_read_data+0x5c>
   191a4:	e5920000 	ldr	r0, [r2]
   191a8:	e0033000 	and	r3, r3, r0
   191ac:	e5823000 	str	r3, [r2]
   191b0:	e5923004 	ldr	r3, [r2, #4]
   191b4:	e3c3303f 	bic	r3, r3, #63	; 0x3f
   191b8:	e5823004 	str	r3, [r2, #4]
   191bc:	e5821028 	str	r1, [r2, #40]	; 0x28
   191c0:	e320f000 	nop	{0}
   191c4:	e59f302c 	ldr	r3, [pc, #44]	; 191f8 <FT245RL_read_data+0x60>
   191c8:	e5920034 	ldr	r0, [r2, #52]	; 0x34
   191cc:	e582101c 	str	r1, [r2, #28]
   191d0:	e0033000 	and	r3, r3, r0
   191d4:	e1a00123 	lsr	r0, r3, #2
   191d8:	e320f000 	nop	{0}
   191dc:	e1a03223 	lsr	r3, r3, #4
   191e0:	e3c33007 	bic	r3, r3, #7
   191e4:	e200000f 	and	r0, r0, #15
   191e8:	e1830000 	orr	r0, r3, r0
   191ec:	e12fff1e 	bx	lr
   191f0:	20200000 	eorcs	r0, r0, r0
   191f4:	c01f803f 	andsgt	r8, pc, pc, lsr r0	; <UNPREDICTABLE>
   191f8:	00000f9c 	muleq	r0, ip, pc	; <UNPREDICTABLE>
   191fc:	00000000 	andeq	r0, r0, r0

00019200 <hardware_uptime_seconds>:
   19200:	e59f1040 	ldr	r1, [pc, #64]	; 19248 <hardware_uptime_seconds+0x48>
   19204:	e59f0040 	ldr	r0, [pc, #64]	; 1924c <hardware_uptime_seconds+0x4c>
   19208:	e5912004 	ldr	r2, [r1, #4]
   1920c:	e92d4008 	push	{r3, lr}
   19210:	e5913008 	ldr	r3, [r1, #8]
   19214:	e1c000d0 	ldrd	r0, [r0]
   19218:	e0520000 	subs	r0, r2, r0
   1921c:	e0c31001 	sbc	r1, r3, r1
   19220:	eb000e1a 	bl	1ca90 <__aeabi_ul2d>
   19224:	ed9f7b05 	vldr	d7, [pc, #20]	; 19240 <hardware_uptime_seconds+0x40>
   19228:	ec410b16 	vmov	d6, r0, r1
   1922c:	ee867b07 	vdiv.f64	d7, d6, d7
   19230:	ec510b17 	vmov	r0, r1, d7
   19234:	eb000e41 	bl	1cb40 <__aeabi_d2ulz>
   19238:	e8bd8008 	pop	{r3, pc}
   1923c:	e320f000 	nop	{0}
   19240:	00000000 	andeq	r0, r0, r0
   19244:	412e8480 	smlawbmi	lr, r0, r4, r8
   19248:	20003000 	andcs	r3, r0, r0
   1924c:	00021870 	andeq	r1, r2, r0, ror r8

00019250 <hardware_get_firmware_revision>:
   19250:	ea000417 	b	1a2b4 <bcm2835_vc_get_get_firmware_revision>

00019254 <hardware_get_firmware_copyright>:
   19254:	e59f0000 	ldr	r0, [pc]	; 1925c <hardware_get_firmware_copyright+0x8>
   19258:	e12fff1e 	bx	lr
   1925c:	0001dcd8 	ldrdeq	sp, [r1], -r8

00019260 <hardware_get_firmware_copyright_length>:
   19260:	e3a0001b 	mov	r0, #27
   19264:	e12fff1e 	bx	lr

00019268 <hardware_get_board_model_id>:
   19268:	ea000448 	b	1a390 <bcm2835_vc_get_get_board_revision>

0001926c <hardware_get_board_model>:
   1926c:	e92d4008 	push	{r3, lr}
   19270:	eb000446 	bl	1a390 <bcm2835_vc_get_get_board_revision>
   19274:	e3500000 	cmp	r0, #0
   19278:	da000022 	ble	19308 <hardware_get_board_model+0x9c>
   1927c:	e3500002 	cmp	r0, #2
   19280:	0a00002a 	beq	19330 <hardware_get_board_model+0xc4>
   19284:	e3500003 	cmp	r0, #3
   19288:	0a00002a 	beq	19338 <hardware_get_board_model+0xcc>
   1928c:	e3500004 	cmp	r0, #4
   19290:	0a00002a 	beq	19340 <hardware_get_board_model+0xd4>
   19294:	e3500005 	cmp	r0, #5
   19298:	0a00002a 	beq	19348 <hardware_get_board_model+0xdc>
   1929c:	e3500006 	cmp	r0, #6
   192a0:	0a00002a 	beq	19350 <hardware_get_board_model+0xe4>
   192a4:	e3500007 	cmp	r0, #7
   192a8:	0a00002a 	beq	19358 <hardware_get_board_model+0xec>
   192ac:	e3500008 	cmp	r0, #8
   192b0:	0a00002a 	beq	19360 <hardware_get_board_model+0xf4>
   192b4:	e3500009 	cmp	r0, #9
   192b8:	0a00002a 	beq	19368 <hardware_get_board_model+0xfc>
   192bc:	e350000d 	cmp	r0, #13
   192c0:	0a00002a 	beq	19370 <hardware_get_board_model+0x104>
   192c4:	e350000e 	cmp	r0, #14
   192c8:	0a00002a 	beq	19378 <hardware_get_board_model+0x10c>
   192cc:	e350000f 	cmp	r0, #15
   192d0:	0a000014 	beq	19328 <hardware_get_board_model+0xbc>
   192d4:	e3500010 	cmp	r0, #16
   192d8:	0a000028 	beq	19380 <hardware_get_board_model+0x114>
   192dc:	e3500011 	cmp	r0, #17
   192e0:	0a000028 	beq	19388 <hardware_get_board_model+0x11c>
   192e4:	e3500012 	cmp	r0, #18
   192e8:	0a000028 	beq	19390 <hardware_get_board_model+0x124>
   192ec:	e59f30a4 	ldr	r3, [pc, #164]	; 19398 <hardware_get_board_model+0x12c>
   192f0:	e1500003 	cmp	r0, r3
   192f4:	0a000005 	beq	19310 <hardware_get_board_model+0xa4>
   192f8:	e2833802 	add	r3, r3, #131072	; 0x20000
   192fc:	e1500003 	cmp	r0, r3
   19300:	03a00010 	moveq	r0, #16
   19304:	0a000002 	beq	19314 <hardware_get_board_model+0xa8>
   19308:	e59f008c 	ldr	r0, [pc, #140]	; 1939c <hardware_get_board_model+0x130>
   1930c:	e8bd8008 	pop	{r3, pc}
   19310:	e3a0000f 	mov	r0, #15
   19314:	e59f3084 	ldr	r3, [pc, #132]	; 193a0 <hardware_get_board_model+0x134>
   19318:	e0600180 	rsb	r0, r0, r0, lsl #3
   1931c:	e0830100 	add	r0, r3, r0, lsl #2
   19320:	e2800004 	add	r0, r0, #4
   19324:	e8bd8008 	pop	{r3, pc}
   19328:	e3a0000b 	mov	r0, #11
   1932c:	eafffff8 	b	19314 <hardware_get_board_model+0xa8>
   19330:	e3a00001 	mov	r0, #1
   19334:	eafffff6 	b	19314 <hardware_get_board_model+0xa8>
   19338:	e3a00002 	mov	r0, #2
   1933c:	eafffff4 	b	19314 <hardware_get_board_model+0xa8>
   19340:	e3a00003 	mov	r0, #3
   19344:	eafffff2 	b	19314 <hardware_get_board_model+0xa8>
   19348:	e3a00004 	mov	r0, #4
   1934c:	eafffff0 	b	19314 <hardware_get_board_model+0xa8>
   19350:	e3a00005 	mov	r0, #5
   19354:	eaffffee 	b	19314 <hardware_get_board_model+0xa8>
   19358:	e3a00006 	mov	r0, #6
   1935c:	eaffffec 	b	19314 <hardware_get_board_model+0xa8>
   19360:	e3a00007 	mov	r0, #7
   19364:	eaffffea 	b	19314 <hardware_get_board_model+0xa8>
   19368:	e3a00008 	mov	r0, #8
   1936c:	eaffffe8 	b	19314 <hardware_get_board_model+0xa8>
   19370:	e3a00009 	mov	r0, #9
   19374:	eaffffe6 	b	19314 <hardware_get_board_model+0xa8>
   19378:	e3a0000a 	mov	r0, #10
   1937c:	eaffffe4 	b	19314 <hardware_get_board_model+0xa8>
   19380:	e3a0000c 	mov	r0, #12
   19384:	eaffffe2 	b	19314 <hardware_get_board_model+0xa8>
   19388:	e3a0000d 	mov	r0, #13
   1938c:	eaffffe0 	b	19314 <hardware_get_board_model+0xa8>
   19390:	e3a0000e 	mov	r0, #14
   19394:	eaffffde 	b	19314 <hardware_get_board_model+0xa8>
   19398:	00a01041 	adceq	r1, r0, r1, asr #32
   1939c:	0001dcf8 	strdeq	sp, [r1], -r8
   193a0:	0001dcf4 	strdeq	sp, [r1], -r4

000193a4 <hardware_get_board_model_length>:
   193a4:	e3a00014 	mov	r0, #20
   193a8:	e12fff1e 	bx	lr

000193ac <hardware_led_init>:
   193ac:	e59f3004 	ldr	r3, [pc, #4]	; 193b8 <hardware_led_init+0xc>
   193b0:	e5933000 	ldr	r3, [r3]
   193b4:	e12fff13 	bx	r3
   193b8:	0001e9d4 	ldrdeq	lr, [r1], -r4

000193bc <hardware_led_set>:
   193bc:	e59f3004 	ldr	r3, [pc, #4]	; 193c8 <hardware_led_set+0xc>
   193c0:	e5933004 	ldr	r3, [r3, #4]
   193c4:	e12fff13 	bx	r3
   193c8:	0001e9d4 	ldrdeq	lr, [r1], -r4

000193cc <hardware_rtc_set>:
   193cc:	e92d4070 	push	{r4, r5, r6, lr}
   193d0:	e1d030b6 	ldrh	r3, [r0, #6]
   193d4:	e5d04002 	ldrb	r4, [r0, #2]
   193d8:	e5d0e001 	ldrb	lr, [r0, #1]
   193dc:	e5d0c000 	ldrb	ip, [r0]
   193e0:	e5d01003 	ldrb	r1, [r0, #3]
   193e4:	e5d02004 	ldrb	r2, [r0, #4]
   193e8:	e24dd048 	sub	sp, sp, #72	; 0x48
   193ec:	e2433e7d 	sub	r3, r3, #2000	; 0x7d0
   193f0:	e3a00000 	mov	r0, #0
   193f4:	e58d3014 	str	r3, [sp, #20]
   193f8:	e58d4008 	str	r4, [sp, #8]
   193fc:	e88d5000 	stm	sp, {ip, lr}
   19400:	e58d100c 	str	r1, [sp, #12]
   19404:	e58d2010 	str	r2, [sp, #16]
   19408:	eb00010a 	bl	19838 <mcp7941x_start>
   1940c:	e3500001 	cmp	r0, #1
   19410:	0a000001 	beq	1941c <hardware_rtc_set+0x50>
   19414:	e1a0000d 	mov	r0, sp
   19418:	eb000166 	bl	199b8 <mcp7941x_set_date_time>
   1941c:	e99d0030 	ldmib	sp, {r4, r5}
   19420:	e3a06000 	mov	r6, #0
   19424:	e59de000 	ldr	lr, [sp]
   19428:	e59dc00c 	ldr	ip, [sp, #12]
   1942c:	e59d1018 	ldr	r1, [sp, #24]
   19430:	e59d2010 	ldr	r2, [sp, #16]
   19434:	e59d3014 	ldr	r3, [sp, #20]
   19438:	e28d0024 	add	r0, sp, #36	; 0x24
   1943c:	e58d6044 	str	r6, [sp, #68]	; 0x44
   19440:	e58d502c 	str	r5, [sp, #44]	; 0x2c
   19444:	e58d4028 	str	r4, [sp, #40]	; 0x28
   19448:	e58de024 	str	lr, [sp, #36]	; 0x24
   1944c:	e58dc030 	str	ip, [sp, #48]	; 0x30
   19450:	e58d103c 	str	r1, [sp, #60]	; 0x3c
   19454:	e58d2034 	str	r2, [sp, #52]	; 0x34
   19458:	e58d3038 	str	r3, [sp, #56]	; 0x38
   1945c:	eb0000cb 	bl	19790 <sys_time_set>
   19460:	e28dd048 	add	sp, sp, #72	; 0x48
   19464:	e8bd8070 	pop	{r4, r5, r6, pc}

00019468 <hardware_print_board_model>:
   19468:	e92d4008 	push	{r3, lr}
   1946c:	eb0003c7 	bl	1a390 <bcm2835_vc_get_get_board_revision>
   19470:	e3500000 	cmp	r0, #0
   19474:	da000022 	ble	19504 <hardware_print_board_model+0x9c>
   19478:	e3500002 	cmp	r0, #2
   1947c:	0a00002c 	beq	19534 <hardware_print_board_model+0xcc>
   19480:	e3500003 	cmp	r0, #3
   19484:	0a00002c 	beq	1953c <hardware_print_board_model+0xd4>
   19488:	e3500004 	cmp	r0, #4
   1948c:	0a00002c 	beq	19544 <hardware_print_board_model+0xdc>
   19490:	e3500005 	cmp	r0, #5
   19494:	0a00002c 	beq	1954c <hardware_print_board_model+0xe4>
   19498:	e3500006 	cmp	r0, #6
   1949c:	0a00002c 	beq	19554 <hardware_print_board_model+0xec>
   194a0:	e3500007 	cmp	r0, #7
   194a4:	0a00002c 	beq	1955c <hardware_print_board_model+0xf4>
   194a8:	e3500008 	cmp	r0, #8
   194ac:	0a00002c 	beq	19564 <hardware_print_board_model+0xfc>
   194b0:	e3500009 	cmp	r0, #9
   194b4:	0a00002c 	beq	1956c <hardware_print_board_model+0x104>
   194b8:	e350000d 	cmp	r0, #13
   194bc:	0a00002c 	beq	19574 <hardware_print_board_model+0x10c>
   194c0:	e350000e 	cmp	r0, #14
   194c4:	0a00002c 	beq	1957c <hardware_print_board_model+0x114>
   194c8:	e350000f 	cmp	r0, #15
   194cc:	0a000016 	beq	1952c <hardware_print_board_model+0xc4>
   194d0:	e3500010 	cmp	r0, #16
   194d4:	0a00002a 	beq	19584 <hardware_print_board_model+0x11c>
   194d8:	e3500011 	cmp	r0, #17
   194dc:	0a00002a 	beq	1958c <hardware_print_board_model+0x124>
   194e0:	e3500012 	cmp	r0, #18
   194e4:	0a00002a 	beq	19594 <hardware_print_board_model+0x12c>
   194e8:	e59f30ac 	ldr	r3, [pc, #172]	; 1959c <hardware_print_board_model+0x134>
   194ec:	e1500003 	cmp	r0, r3
   194f0:	0a000006 	beq	19510 <hardware_print_board_model+0xa8>
   194f4:	e2833802 	add	r3, r3, #131072	; 0x20000
   194f8:	e1500003 	cmp	r0, r3
   194fc:	03a00010 	moveq	r0, #16
   19500:	0a000003 	beq	19514 <hardware_print_board_model+0xac>
   19504:	e8bd4008 	pop	{r3, lr}
   19508:	e59f0090 	ldr	r0, [pc, #144]	; 195a0 <hardware_print_board_model+0x138>
   1950c:	eaffcade 	b	c08c <console_puts>
   19510:	e3a0000f 	mov	r0, #15
   19514:	e59f3088 	ldr	r3, [pc, #136]	; 195a4 <hardware_print_board_model+0x13c>
   19518:	e0600180 	rsb	r0, r0, r0, lsl #3
   1951c:	e0830100 	add	r0, r3, r0, lsl #2
   19520:	e2800004 	add	r0, r0, #4
   19524:	e8bd4008 	pop	{r3, lr}
   19528:	eaffcad7 	b	c08c <console_puts>
   1952c:	e3a0000b 	mov	r0, #11
   19530:	eafffff7 	b	19514 <hardware_print_board_model+0xac>
   19534:	e3a00001 	mov	r0, #1
   19538:	eafffff5 	b	19514 <hardware_print_board_model+0xac>
   1953c:	e3a00002 	mov	r0, #2
   19540:	eafffff3 	b	19514 <hardware_print_board_model+0xac>
   19544:	e3a00003 	mov	r0, #3
   19548:	eafffff1 	b	19514 <hardware_print_board_model+0xac>
   1954c:	e3a00004 	mov	r0, #4
   19550:	eaffffef 	b	19514 <hardware_print_board_model+0xac>
   19554:	e3a00005 	mov	r0, #5
   19558:	eaffffed 	b	19514 <hardware_print_board_model+0xac>
   1955c:	e3a00006 	mov	r0, #6
   19560:	eaffffeb 	b	19514 <hardware_print_board_model+0xac>
   19564:	e3a00007 	mov	r0, #7
   19568:	eaffffe9 	b	19514 <hardware_print_board_model+0xac>
   1956c:	e3a00008 	mov	r0, #8
   19570:	eaffffe7 	b	19514 <hardware_print_board_model+0xac>
   19574:	e3a00009 	mov	r0, #9
   19578:	eaffffe5 	b	19514 <hardware_print_board_model+0xac>
   1957c:	e3a0000a 	mov	r0, #10
   19580:	eaffffe3 	b	19514 <hardware_print_board_model+0xac>
   19584:	e3a0000c 	mov	r0, #12
   19588:	eaffffe1 	b	19514 <hardware_print_board_model+0xac>
   1958c:	e3a0000d 	mov	r0, #13
   19590:	eaffffdf 	b	19514 <hardware_print_board_model+0xac>
   19594:	e3a0000e 	mov	r0, #14
   19598:	eaffffdd 	b	19514 <hardware_print_board_model+0xac>
   1959c:	00a01041 	adceq	r1, r0, r1, asr #32
   195a0:	0001dcf8 	strdeq	sp, [r1], -r8
   195a4:	0001dcf4 	strdeq	sp, [r1], -r4

000195a8 <hardware_get_core_temperature>:
   195a8:	e92d4008 	push	{r3, lr}
   195ac:	eb00027d 	bl	19fa8 <bcm2835_vc_get_temperature>
   195b0:	e59f200c 	ldr	r2, [pc, #12]	; 195c4 <hardware_get_core_temperature+0x1c>
   195b4:	e1a03fc0 	asr	r3, r0, #31
   195b8:	e0c02092 	smull	r2, r0, r2, r0
   195bc:	e0630340 	rsb	r0, r3, r0, asr #6
   195c0:	e8bd8008 	pop	{r3, pc}
   195c4:	10624dd3 	ldrdne	r4, [r2], #-211	; 0xffffff2d	; <UNPREDICTABLE>

000195c8 <hardware_init>:
   195c8:	e59f1054 	ldr	r1, [pc, #84]	; 19624 <hardware_init+0x5c>
   195cc:	e59f0054 	ldr	r0, [pc, #84]	; 19628 <hardware_init+0x60>
   195d0:	e5912004 	ldr	r2, [r1, #4]
   195d4:	e5913008 	ldr	r3, [r1, #8]
   195d8:	e92d4010 	push	{r4, lr}
   195dc:	e1c020f0 	strd	r2, [r0]
   195e0:	eb000038 	bl	196c8 <sys_time_init>
   195e4:	ebffcb63 	bl	c378 <console_init>
   195e8:	eb000368 	bl	1a390 <bcm2835_vc_get_get_board_revision>
   195ec:	e350000f 	cmp	r0, #15
   195f0:	d59f4034 	ldrle	r4, [pc, #52]	; 1962c <hardware_init+0x64>
   195f4:	c59f2034 	ldrgt	r2, [pc, #52]	; 19630 <hardware_init+0x68>
   195f8:	c59f402c 	ldrgt	r4, [pc, #44]	; 1962c <hardware_init+0x64>
   195fc:	c59f1030 	ldrgt	r1, [pc, #48]	; 19634 <hardware_init+0x6c>
   19600:	d5943000 	ldrle	r3, [r4]
   19604:	c1a03002 	movgt	r3, r2
   19608:	c5842000 	strgt	r2, [r4]
   1960c:	c5841004 	strgt	r1, [r4, #4]
   19610:	e12fff33 	blx	r3
   19614:	e5943004 	ldr	r3, [r4, #4]
   19618:	e3a00001 	mov	r0, #1
   1961c:	e8bd4010 	pop	{r4, lr}
   19620:	e12fff13 	bx	r3
   19624:	20003000 	andcs	r3, r0, r0
   19628:	00021870 	andeq	r1, r2, r0, ror r8
   1962c:	0001e9d4 	ldrdeq	lr, [r1], -r4
   19630:	00019e0c 	andeq	r9, r1, ip, lsl #28
   19634:	00019df0 	strdeq	r9, [r1], -r0

00019638 <hardware_reboot>:
   19638:	e92d4008 	push	{r3, lr}
   1963c:	e59f3010 	ldr	r3, [pc, #16]	; 19654 <hardware_reboot+0x1c>
   19640:	e3a00001 	mov	r0, #1
   19644:	e5933004 	ldr	r3, [r3, #4]
   19648:	e12fff33 	blx	r3
   1964c:	eb000371 	bl	1a418 <watchdog_init>
   19650:	eafffffe 	b	19650 <hardware_reboot+0x18>
   19654:	0001e9d4 	ldrdeq	lr, [r1], -r4

00019658 <led_set_ticks_per_second>:
   19658:	e59f3004 	ldr	r3, [pc, #4]	; 19664 <led_set_ticks_per_second+0xc>
   1965c:	e5830000 	str	r0, [r3]
   19660:	e12fff1e 	bx	lr
   19664:	0001e9dc 	ldrdeq	lr, [r1], -ip

00019668 <led_get_ticks_per_second>:
   19668:	e59f3004 	ldr	r3, [pc, #4]	; 19674 <led_get_ticks_per_second+0xc>
   1966c:	e5930000 	ldr	r0, [r3]
   19670:	e12fff1e 	bx	lr
   19674:	0001e9dc 	ldrdeq	lr, [r1], -ip

00019678 <led_blink>:
   19678:	e92d4038 	push	{r3, r4, r5, lr}
   1967c:	e59f3038 	ldr	r3, [pc, #56]	; 196bc <led_blink+0x44>
   19680:	e59f4038 	ldr	r4, [pc, #56]	; 196c0 <led_blink+0x48>
   19684:	e59f2038 	ldr	r2, [pc, #56]	; 196c4 <led_blink+0x4c>
   19688:	e5935004 	ldr	r5, [r3, #4]
   1968c:	e5943000 	ldr	r3, [r4]
   19690:	e5922000 	ldr	r2, [r2]
   19694:	e0633005 	rsb	r3, r3, r5
   19698:	e1530002 	cmp	r3, r2
   1969c:	38bd8038 	popcc	{r3, r4, r5, pc}
   196a0:	e5940004 	ldr	r0, [r4, #4]
   196a4:	e2803001 	add	r3, r0, #1
   196a8:	e2000001 	and	r0, r0, #1
   196ac:	e5843004 	str	r3, [r4, #4]
   196b0:	ebffff41 	bl	193bc <hardware_led_set>
   196b4:	e5845000 	str	r5, [r4]
   196b8:	e8bd8038 	pop	{r3, r4, r5, pc}
   196bc:	20003000 	andcs	r3, r0, r0
   196c0:	00021878 	andeq	r1, r2, r8, ror r8
   196c4:	0001e9dc 	ldrdeq	lr, [r1], -ip

000196c8 <sys_time_init>:
   196c8:	e92d40f0 	push	{r4, r5, r6, r7, lr}
   196cc:	e59f10b4 	ldr	r1, [pc, #180]	; 19788 <sys_time_init+0xc0>
   196d0:	e59f40b4 	ldr	r4, [pc, #180]	; 1978c <sys_time_init+0xc4>
   196d4:	e5912004 	ldr	r2, [r1, #4]
   196d8:	e5913008 	ldr	r3, [r1, #8]
   196dc:	e24dd04c 	sub	sp, sp, #76	; 0x4c
   196e0:	e3a00000 	mov	r0, #0
   196e4:	e1c420f0 	strd	r2, [r4]
   196e8:	eb000052 	bl	19838 <mcp7941x_start>
   196ec:	e3500001 	cmp	r0, #1
   196f0:	e1a03000 	mov	r3, r0
   196f4:	0a000015 	beq	19750 <sys_time_init+0x88>
   196f8:	e3a07000 	mov	r7, #0
   196fc:	e1a0000d 	mov	r0, sp
   19700:	eb000062 	bl	19890 <mcp7941x_get_date_time>
   19704:	e99d0060 	ldmib	sp, {r5, r6}
   19708:	e59de000 	ldr	lr, [sp]
   1970c:	e59dc00c 	ldr	ip, [sp, #12]
   19710:	e59d1018 	ldr	r1, [sp, #24]
   19714:	e59d2010 	ldr	r2, [sp, #16]
   19718:	e59d3014 	ldr	r3, [sp, #20]
   1971c:	e28d0024 	add	r0, sp, #36	; 0x24
   19720:	e58d7044 	str	r7, [sp, #68]	; 0x44
   19724:	e58d602c 	str	r6, [sp, #44]	; 0x2c
   19728:	e58d5028 	str	r5, [sp, #40]	; 0x28
   1972c:	e58de024 	str	lr, [sp, #36]	; 0x24
   19730:	e58dc030 	str	ip, [sp, #48]	; 0x30
   19734:	e58d103c 	str	r1, [sp, #60]	; 0x3c
   19738:	e58d2034 	str	r2, [sp, #52]	; 0x34
   1973c:	e58d3038 	str	r3, [sp, #56]	; 0x38
   19740:	eb0006f2 	bl	1b310 <mktime>
   19744:	e5840008 	str	r0, [r4, #8]
   19748:	e28dd04c 	add	sp, sp, #76	; 0x4c
   1974c:	e8bd80f0 	pop	{r4, r5, r6, r7, pc}
   19750:	e3a02000 	mov	r2, #0
   19754:	e3a0100f 	mov	r1, #15
   19758:	e28d0024 	add	r0, sp, #36	; 0x24
   1975c:	e58d3030 	str	r3, [sp, #48]	; 0x30
   19760:	e58d3034 	str	r3, [sp, #52]	; 0x34
   19764:	e58d202c 	str	r2, [sp, #44]	; 0x2c
   19768:	e58d2028 	str	r2, [sp, #40]	; 0x28
   1976c:	e58d2024 	str	r2, [sp, #36]	; 0x24
   19770:	e58d2044 	str	r2, [sp, #68]	; 0x44
   19774:	e58d1038 	str	r1, [sp, #56]	; 0x38
   19778:	eb0006e4 	bl	1b310 <mktime>
   1977c:	e5840008 	str	r0, [r4, #8]
   19780:	e28dd04c 	add	sp, sp, #76	; 0x4c
   19784:	e8bd80f0 	pop	{r4, r5, r6, r7, pc}
   19788:	20003000 	andcs	r3, r0, r0
   1978c:	00021880 	andeq	r1, r2, r0, lsl #17

00019790 <sys_time_set>:
   19790:	e59f101c 	ldr	r1, [pc, #28]	; 197b4 <sys_time_set+0x24>
   19794:	e92d4010 	push	{r4, lr}
   19798:	e5912004 	ldr	r2, [r1, #4]
   1979c:	e59f4014 	ldr	r4, [pc, #20]	; 197b8 <sys_time_set+0x28>
   197a0:	e5913008 	ldr	r3, [r1, #8]
   197a4:	e1c420f0 	strd	r2, [r4]
   197a8:	eb0006d8 	bl	1b310 <mktime>
   197ac:	e5840008 	str	r0, [r4, #8]
   197b0:	e8bd8010 	pop	{r4, pc}
   197b4:	20003000 	andcs	r3, r0, r0
   197b8:	00021880 	andeq	r1, r2, r0, lsl #17

000197bc <sys_time>:
   197bc:	e59f1054 	ldr	r1, [pc, #84]	; 19818 <sys_time+0x5c>
   197c0:	e59fc054 	ldr	ip, [pc, #84]	; 1981c <sys_time+0x60>
   197c4:	e5912004 	ldr	r2, [r1, #4]
   197c8:	e92d4038 	push	{r3, r4, r5, lr}
   197cc:	e5913008 	ldr	r3, [r1, #8]
   197d0:	e1a04000 	mov	r4, r0
   197d4:	e1cc00d0 	ldrd	r0, [ip]
   197d8:	e0520000 	subs	r0, r2, r0
   197dc:	e0c31001 	sbc	r1, r3, r1
   197e0:	e59c5008 	ldr	r5, [ip, #8]
   197e4:	eb000ca9 	bl	1ca90 <__aeabi_ul2d>
   197e8:	ed9f7b08 	vldr	d7, [pc, #32]	; 19810 <sys_time+0x54>
   197ec:	ec410b16 	vmov	d6, r0, r1
   197f0:	ee867b07 	vdiv.f64	d7, d6, d7
   197f4:	eebd7bc7 	vcvt.s32.f64	s14, d7
   197f8:	ee173a10 	vmov	r3, s14
   197fc:	e3540000 	cmp	r4, #0
   19800:	e0830005 	add	r0, r3, r5
   19804:	15840000 	strne	r0, [r4]
   19808:	e8bd8038 	pop	{r3, r4, r5, pc}
   1980c:	e320f000 	nop	{0}
   19810:	00000000 	andeq	r0, r0, r0
   19814:	412e8480 	smlawbmi	lr, r0, r4, r8
   19818:	20003000 	andcs	r3, r0, r0
   1981c:	00021880 	andeq	r1, r2, r0, lsl #17

00019820 <usb_send_byte>:
   19820:	e59f200c 	ldr	r2, [pc, #12]	; 19834 <usb_send_byte+0x14>
   19824:	e5923034 	ldr	r3, [r2, #52]	; 0x34
   19828:	e3130401 	tst	r3, #16777216	; 0x1000000
   1982c:	1afffffc 	bne	19824 <usb_send_byte+0x4>
   19830:	eafffe3d 	b	1912c <FT245RL_write_data>
   19834:	20200000 	eorcs	r0, r0, r0

00019838 <mcp7941x_start>:
   19838:	e92d4010 	push	{r4, lr}
   1983c:	e1a04000 	mov	r4, r0
   19840:	eb0000b9 	bl	19b2c <bcm2835_i2c_begin>
   19844:	e3540000 	cmp	r4, #0
   19848:	11a03004 	movne	r3, r4
   1984c:	03a0306f 	moveq	r3, #111	; 0x6f
   19850:	e3a00000 	mov	r0, #0
   19854:	e59f2024 	ldr	r2, [pc, #36]	; 19880 <mcp7941x_start+0x48>
   19858:	e59fc024 	ldr	ip, [pc, #36]	; 19884 <mcp7941x_start+0x4c>
   1985c:	e59f1024 	ldr	r1, [pc, #36]	; 19888 <mcp7941x_start+0x50>
   19860:	e5c13000 	strb	r3, [r1]
   19864:	e582300c 	str	r3, [r2, #12]
   19868:	e1a01000 	mov	r1, r0
   1986c:	e582c014 	str	ip, [r2, #20]
   19870:	eb0000c2 	bl	19b80 <bcm2835_i2c_write>
   19874:	e2900000 	adds	r0, r0, #0
   19878:	13a00001 	movne	r0, #1
   1987c:	e8bd8010 	pop	{r4, pc}
   19880:	20804000 	addcs	r4, r0, r0
   19884:	000009c4 	andeq	r0, r0, r4, asr #19
   19888:	0001e9e0 	andeq	lr, r1, r0, ror #19

0001988c <mcp7941x_end>:
   1988c:	ea0000b5 	b	19b68 <bcm2835_i2c_end>

00019890 <mcp7941x_get_date_time>:
   19890:	e3a03000 	mov	r3, #0
   19894:	e92d4ff0 	push	{r4, r5, r6, r7, r8, r9, sl, fp, lr}
   19898:	e59f110c 	ldr	r1, [pc, #268]	; 199ac <mcp7941x_get_date_time+0x11c>
   1989c:	e59f210c 	ldr	r2, [pc, #268]	; 199b0 <mcp7941x_get_date_time+0x120>
   198a0:	e5d11000 	ldrb	r1, [r1]
   198a4:	e59fc108 	ldr	ip, [pc, #264]	; 199b4 <mcp7941x_get_date_time+0x124>
   198a8:	e3a0a00a 	mov	sl, #10
   198ac:	e24dd014 	sub	sp, sp, #20
   198b0:	e1a04000 	mov	r4, r0
   198b4:	e5cd3004 	strb	r3, [sp, #4]
   198b8:	e5cd3008 	strb	r3, [sp, #8]
   198bc:	e5cd3009 	strb	r3, [sp, #9]
   198c0:	e5cd300a 	strb	r3, [sp, #10]
   198c4:	e5cd300b 	strb	r3, [sp, #11]
   198c8:	e5cd300c 	strb	r3, [sp, #12]
   198cc:	e5cd300d 	strb	r3, [sp, #13]
   198d0:	e5cd300e 	strb	r3, [sp, #14]
   198d4:	e28d0004 	add	r0, sp, #4
   198d8:	e582100c 	str	r1, [r2, #12]
   198dc:	e582c014 	str	ip, [r2, #20]
   198e0:	e3a01001 	mov	r1, #1
   198e4:	eb0000a5 	bl	19b80 <bcm2835_i2c_write>
   198e8:	e28d0008 	add	r0, sp, #8
   198ec:	e3a01007 	mov	r1, #7
   198f0:	eb0000ea 	bl	19ca0 <bcm2835_i2c_read>
   198f4:	e5dd300d 	ldrb	r3, [sp, #13]
   198f8:	e5dde00e 	ldrb	lr, [sp, #14]
   198fc:	e5ddc008 	ldrb	ip, [sp, #8]
   19900:	e5dd0009 	ldrb	r0, [sp, #9]
   19904:	e5dd100a 	ldrb	r1, [sp, #10]
   19908:	e5dd200c 	ldrb	r2, [sp, #12]
   1990c:	e203801f 	and	r8, r3, #31
   19910:	e20e900f 	and	r9, lr, #15
   19914:	e1a0e22e 	lsr	lr, lr, #4
   19918:	e1099e8a 	smlabb	r9, sl, lr, r9
   1991c:	e20c707f 	and	r7, ip, #127	; 0x7f
   19920:	e200607f 	and	r6, r0, #127	; 0x7f
   19924:	e201503f 	and	r5, r1, #63	; 0x3f
   19928:	e1a08248 	asr	r8, r8, #4
   1992c:	e202e03f 	and	lr, r2, #63	; 0x3f
   19930:	e5dda00b 	ldrb	sl, [sp, #11]
   19934:	e1a0b108 	lsl	fp, r8, #2
   19938:	e1a07247 	asr	r7, r7, #4
   1993c:	e1a06246 	asr	r6, r6, #4
   19940:	e1a05245 	asr	r5, r5, #4
   19944:	e1a0e24e 	asr	lr, lr, #4
   19948:	e20cc00f 	and	ip, ip, #15
   1994c:	e200000f 	and	r0, r0, #15
   19950:	e201100f 	and	r1, r1, #15
   19954:	e202200f 	and	r2, r2, #15
   19958:	e203300f 	and	r3, r3, #15
   1995c:	e08b8008 	add	r8, fp, r8
   19960:	e0877107 	add	r7, r7, r7, lsl #2
   19964:	e0866106 	add	r6, r6, r6, lsl #2
   19968:	e0855105 	add	r5, r5, r5, lsl #2
   1996c:	e08ee10e 	add	lr, lr, lr, lsl #2
   19970:	e08c7087 	add	r7, ip, r7, lsl #1
   19974:	e0806086 	add	r6, r0, r6, lsl #1
   19978:	e0815085 	add	r5, r1, r5, lsl #1
   1997c:	e20aa007 	and	sl, sl, #7
   19980:	e082e08e 	add	lr, r2, lr, lsl #1
   19984:	e0838088 	add	r8, r3, r8, lsl #1
   19988:	e5847000 	str	r7, [r4]
   1998c:	e5846004 	str	r6, [r4, #4]
   19990:	e5845008 	str	r5, [r4, #8]
   19994:	e584a018 	str	sl, [r4, #24]
   19998:	e584e00c 	str	lr, [r4, #12]
   1999c:	e5848010 	str	r8, [r4, #16]
   199a0:	e5849014 	str	r9, [r4, #20]
   199a4:	e28dd014 	add	sp, sp, #20
   199a8:	e8bd8ff0 	pop	{r4, r5, r6, r7, r8, r9, sl, fp, pc}
   199ac:	0001e9e0 	andeq	lr, r1, r0, ror #19
   199b0:	20804000 	addcs	r4, r0, r0
   199b4:	000009c4 	andeq	r0, r0, r4, asr #19

000199b8 <mcp7941x_set_date_time>:
   199b8:	e5902000 	ldr	r2, [r0]
   199bc:	e92d4ff0 	push	{r4, r5, r6, r7, r8, r9, sl, fp, lr}
   199c0:	e59f510c 	ldr	r5, [pc, #268]	; 19ad4 <mcp7941x_set_date_time+0x11c>
   199c4:	e202207f 	and	r2, r2, #127	; 0x7f
   199c8:	e0c31295 	smull	r1, r3, r5, r2
   199cc:	e1a03123 	lsr	r3, r3, #2
   199d0:	e0831103 	add	r1, r3, r3, lsl #2
   199d4:	e0422081 	sub	r2, r2, r1, lsl #1
   199d8:	e0823203 	add	r3, r2, r3, lsl #4
   199dc:	e1e03c83 	mvn	r3, r3, lsl #25
   199e0:	e1a0e000 	mov	lr, r0
   199e4:	e1e03ca3 	mvn	r3, r3, lsr #25
   199e8:	e3a0a000 	mov	sl, #0
   199ec:	e590c004 	ldr	ip, [r0, #4]
   199f0:	e2801008 	add	r1, r0, #8
   199f4:	e8910816 	ldm	r1, {r1, r2, r4, fp}
   199f8:	e20cc07f 	and	ip, ip, #127	; 0x7f
   199fc:	e201101f 	and	r1, r1, #31
   19a00:	e202203f 	and	r2, r2, #63	; 0x3f
   19a04:	e204401f 	and	r4, r4, #31
   19a08:	e0c90c95 	smull	r0, r9, r5, ip
   19a0c:	e0c80195 	smull	r0, r8, r5, r1
   19a10:	e0c70295 	smull	r0, r7, r5, r2
   19a14:	e0c60495 	smull	r0, r6, r5, r4
   19a18:	e0c50b95 	smull	r0, r5, r5, fp
   19a1c:	e1a00fcb 	asr	r0, fp, #31
   19a20:	e0605145 	rsb	r5, r0, r5, asr #2
   19a24:	e59f00ac 	ldr	r0, [pc, #172]	; 19ad8 <mcp7941x_set_date_time+0x120>
   19a28:	e24dd014 	sub	sp, sp, #20
   19a2c:	e5d00000 	ldrb	r0, [r0]
   19a30:	e1a09129 	lsr	r9, r9, #2
   19a34:	e58d0004 	str	r0, [sp, #4]
   19a38:	e1a08128 	lsr	r8, r8, #2
   19a3c:	e0890109 	add	r0, r9, r9, lsl #2
   19a40:	e1a07127 	lsr	r7, r7, #2
   19a44:	e04cc080 	sub	ip, ip, r0, lsl #1
   19a48:	e0880108 	add	r0, r8, r8, lsl #2
   19a4c:	e1a06126 	lsr	r6, r6, #2
   19a50:	e0411080 	sub	r1, r1, r0, lsl #1
   19a54:	e0870107 	add	r0, r7, r7, lsl #2
   19a58:	e59ee018 	ldr	lr, [lr, #24]
   19a5c:	e0422080 	sub	r2, r2, r0, lsl #1
   19a60:	e0860106 	add	r0, r6, r6, lsl #2
   19a64:	e0444080 	sub	r4, r4, r0, lsl #1
   19a68:	e0850105 	add	r0, r5, r5, lsl #2
   19a6c:	e5cd3009 	strb	r3, [sp, #9]
   19a70:	e08cc209 	add	ip, ip, r9, lsl #4
   19a74:	e59d3004 	ldr	r3, [sp, #4]
   19a78:	e59f905c 	ldr	r9, [pc, #92]	; 19adc <mcp7941x_set_date_time+0x124>
   19a7c:	e04b0080 	sub	r0, fp, r0, lsl #1
   19a80:	e20ee007 	and	lr, lr, #7
   19a84:	e59fb054 	ldr	fp, [pc, #84]	; 19ae0 <mcp7941x_set_date_time+0x128>
   19a88:	e0811208 	add	r1, r1, r8, lsl #4
   19a8c:	e0822207 	add	r2, r2, r7, lsl #4
   19a90:	e38ee008 	orr	lr, lr, #8
   19a94:	e0800205 	add	r0, r0, r5, lsl #4
   19a98:	e0844206 	add	r4, r4, r6, lsl #4
   19a9c:	e5cd100b 	strb	r1, [sp, #11]
   19aa0:	e5cd000f 	strb	r0, [sp, #15]
   19aa4:	e5cdc00a 	strb	ip, [sp, #10]
   19aa8:	e5cd200d 	strb	r2, [sp, #13]
   19aac:	e5cd400e 	strb	r4, [sp, #14]
   19ab0:	e5cde00c 	strb	lr, [sp, #12]
   19ab4:	e5cda008 	strb	sl, [sp, #8]
   19ab8:	e28d0008 	add	r0, sp, #8
   19abc:	e589300c 	str	r3, [r9, #12]
   19ac0:	e3a01008 	mov	r1, #8
   19ac4:	e589b014 	str	fp, [r9, #20]
   19ac8:	eb00002c 	bl	19b80 <bcm2835_i2c_write>
   19acc:	e28dd014 	add	sp, sp, #20
   19ad0:	e8bd8ff0 	pop	{r4, r5, r6, r7, r8, r9, sl, fp, pc}
   19ad4:	66666667 	strbtvs	r6, [r6], -r7, ror #12
   19ad8:	0001e9e0 	andeq	lr, r1, r0, ror #19
   19adc:	20804000 	addcs	r4, r0, r0
   19ae0:	000009c4 	andeq	r0, r0, r4, asr #19

00019ae4 <bcm2835_gpio_set_pud>:
   19ae4:	e92d4038 	push	{r3, r4, r5, lr}
   19ae8:	e59f4038 	ldr	r4, [pc, #56]	; 19b28 <bcm2835_gpio_set_pud+0x44>
   19aec:	e1a05000 	mov	r5, r0
   19af0:	e5841094 	str	r1, [r4, #148]	; 0x94
   19af4:	e3a0000a 	mov	r0, #10
   19af8:	e3a01000 	mov	r1, #0
   19afc:	eb00026f 	bl	1a4c0 <udelay>
   19b00:	e3a03001 	mov	r3, #1
   19b04:	e1a00513 	lsl	r0, r3, r5
   19b08:	e5840098 	str	r0, [r4, #152]	; 0x98
   19b0c:	e3a01000 	mov	r1, #0
   19b10:	e3a0000a 	mov	r0, #10
   19b14:	eb000269 	bl	1a4c0 <udelay>
   19b18:	e3a03000 	mov	r3, #0
   19b1c:	e5843094 	str	r3, [r4, #148]	; 0x94
   19b20:	e5843098 	str	r3, [r4, #152]	; 0x98
   19b24:	e8bd8038 	pop	{r3, r4, r5, pc}
   19b28:	20200000 	eorcs	r0, r0, r0

00019b2c <bcm2835_i2c_begin>:
   19b2c:	e59f2028 	ldr	r2, [pc, #40]	; 19b5c <bcm2835_i2c_begin+0x30>
   19b30:	e59f1028 	ldr	r1, [pc, #40]	; 19b60 <bcm2835_i2c_begin+0x34>
   19b34:	e5923000 	ldr	r3, [r2]
   19b38:	e59f0024 	ldr	r0, [pc, #36]	; 19b64 <bcm2835_i2c_begin+0x38>
   19b3c:	e3c33d3f 	bic	r3, r3, #4032	; 0xfc0
   19b40:	e5823000 	str	r3, [r2]
   19b44:	e5923000 	ldr	r3, [r2]
   19b48:	e3c33d3f 	bic	r3, r3, #4032	; 0xfc0
   19b4c:	e3833c09 	orr	r3, r3, #2304	; 0x900
   19b50:	e5823000 	str	r3, [r2]
   19b54:	e5810014 	str	r0, [r1, #20]
   19b58:	e12fff1e 	bx	lr
   19b5c:	20200000 	eorcs	r0, r0, r0
   19b60:	20804000 	addcs	r4, r0, r0
   19b64:	000009c4 	andeq	r0, r0, r4, asr #19

00019b68 <bcm2835_i2c_end>:
   19b68:	e59f200c 	ldr	r2, [pc, #12]	; 19b7c <bcm2835_i2c_end+0x14>
   19b6c:	e5923000 	ldr	r3, [r2]
   19b70:	e3c33d3f 	bic	r3, r3, #4032	; 0xfc0
   19b74:	e5823000 	str	r3, [r2]
   19b78:	e12fff1e 	bx	lr
   19b7c:	20200000 	eorcs	r0, r0, r0

00019b80 <bcm2835_i2c_write>:
   19b80:	e3a02020 	mov	r2, #32
   19b84:	e92d4010 	push	{r4, lr}
   19b88:	e59f3104 	ldr	r3, [pc, #260]	; 19c94 <bcm2835_i2c_write+0x114>
   19b8c:	e59f4104 	ldr	r4, [pc, #260]	; 19c98 <bcm2835_i2c_write+0x118>
   19b90:	e3510000 	cmp	r1, #0
   19b94:	e5842000 	str	r2, [r4]
   19b98:	e5843004 	str	r3, [r4, #4]
   19b9c:	e5841008 	str	r1, [r4, #8]
   19ba0:	0a000039 	beq	19c8c <bcm2835_i2c_write+0x10c>
   19ba4:	e3a03000 	mov	r3, #0
   19ba8:	e240c001 	sub	ip, r0, #1
   19bac:	e2511001 	subs	r1, r1, #1
   19bb0:	13a02001 	movne	r2, #1
   19bb4:	03a02000 	moveq	r2, #0
   19bb8:	e2833001 	add	r3, r3, #1
   19bbc:	e353000f 	cmp	r3, #15
   19bc0:	83a02000 	movhi	r2, #0
   19bc4:	92022001 	andls	r2, r2, #1
   19bc8:	e5fce001 	ldrb	lr, [ip, #1]!
   19bcc:	e3520000 	cmp	r2, #0
   19bd0:	e584e010 	str	lr, [r4, #16]
   19bd4:	1afffff4 	bne	19bac <bcm2835_i2c_write+0x2c>
   19bd8:	e59fc0b8 	ldr	ip, [pc, #184]	; 19c98 <bcm2835_i2c_write+0x118>
   19bdc:	e59fe0b8 	ldr	lr, [pc, #184]	; 19c9c <bcm2835_i2c_write+0x11c>
   19be0:	e1a0200c 	mov	r2, ip
   19be4:	e58ce000 	str	lr, [ip]
   19be8:	e592c004 	ldr	ip, [r2, #4]
   19bec:	e59fe0a4 	ldr	lr, [pc, #164]	; 19c98 <bcm2835_i2c_write+0x118>
   19bf0:	e31c0002 	tst	ip, #2
   19bf4:	1a000011 	bne	19c40 <bcm2835_i2c_write+0xc0>
   19bf8:	e3510000 	cmp	r1, #0
   19bfc:	0afffff9 	beq	19be8 <bcm2835_i2c_write+0x68>
   19c00:	e592c004 	ldr	ip, [r2, #4]
   19c04:	e31c0010 	tst	ip, #16
   19c08:	0afffff6 	beq	19be8 <bcm2835_i2c_write+0x68>
   19c0c:	e080c003 	add	ip, r0, r3
   19c10:	e4dce001 	ldrb	lr, [ip], #1
   19c14:	e2511001 	subs	r1, r1, #1
   19c18:	e2833001 	add	r3, r3, #1
   19c1c:	e582e010 	str	lr, [r2, #16]
   19c20:	0afffff0 	beq	19be8 <bcm2835_i2c_write+0x68>
   19c24:	e592e004 	ldr	lr, [r2, #4]
   19c28:	e31e0010 	tst	lr, #16
   19c2c:	1afffff7 	bne	19c10 <bcm2835_i2c_write+0x90>
   19c30:	e592c004 	ldr	ip, [r2, #4]
   19c34:	e59fe05c 	ldr	lr, [pc, #92]	; 19c98 <bcm2835_i2c_write+0x118>
   19c38:	e31c0002 	tst	ip, #2
   19c3c:	0affffed 	beq	19bf8 <bcm2835_i2c_write+0x78>
   19c40:	e59e3004 	ldr	r3, [lr, #4]
   19c44:	e3130c01 	tst	r3, #256	; 0x100
   19c48:	1a00000b 	bne	19c7c <bcm2835_i2c_write+0xfc>
   19c4c:	e59e3004 	ldr	r3, [lr, #4]
   19c50:	e3130c02 	tst	r3, #512	; 0x200
   19c54:	13a00002 	movne	r0, #2
   19c58:	0a000003 	beq	19c6c <bcm2835_i2c_write+0xec>
   19c5c:	e3a02002 	mov	r2, #2
   19c60:	e59f3030 	ldr	r3, [pc, #48]	; 19c98 <bcm2835_i2c_write+0x118>
   19c64:	e5832000 	str	r2, [r3]
   19c68:	e8bd8010 	pop	{r4, pc}
   19c6c:	e3510000 	cmp	r1, #0
   19c70:	13a00004 	movne	r0, #4
   19c74:	03a00000 	moveq	r0, #0
   19c78:	eafffff7 	b	19c5c <bcm2835_i2c_write+0xdc>
   19c7c:	e3a03c01 	mov	r3, #256	; 0x100
   19c80:	e3a00001 	mov	r0, #1
   19c84:	e58e3004 	str	r3, [lr, #4]
   19c88:	eafffff3 	b	19c5c <bcm2835_i2c_write+0xdc>
   19c8c:	e1a03001 	mov	r3, r1
   19c90:	eaffffd0 	b	19bd8 <bcm2835_i2c_write+0x58>
   19c94:	00000302 	andeq	r0, r0, r2, lsl #6
   19c98:	20804000 	addcs	r4, r0, r0
   19c9c:	00008080 	andeq	r8, r0, r0, lsl #1

00019ca0 <bcm2835_i2c_read>:
   19ca0:	e3a03020 	mov	r3, #32
   19ca4:	e59fc100 	ldr	ip, [pc, #256]	; 19dac <bcm2835_i2c_read+0x10c>
   19ca8:	e59f2100 	ldr	r2, [pc, #256]	; 19db0 <bcm2835_i2c_read+0x110>
   19cac:	e52de004 	push	{lr}		; (str lr, [sp, #-4]!)
   19cb0:	e58c3000 	str	r3, [ip]
   19cb4:	e58c2004 	str	r2, [ip, #4]
   19cb8:	e1a03001 	mov	r3, r1
   19cbc:	e58c1008 	str	r1, [ip, #8]
   19cc0:	e1a0200c 	mov	r2, ip
   19cc4:	e3a01000 	mov	r1, #0
   19cc8:	e59fe0e4 	ldr	lr, [pc, #228]	; 19db4 <bcm2835_i2c_read+0x114>
   19ccc:	e58ce000 	str	lr, [ip]
   19cd0:	e592e004 	ldr	lr, [r2, #4]
   19cd4:	e59fc0d0 	ldr	ip, [pc, #208]	; 19dac <bcm2835_i2c_read+0x10c>
   19cd8:	e31e0002 	tst	lr, #2
   19cdc:	1a00000e 	bne	19d1c <bcm2835_i2c_read+0x7c>
   19ce0:	e592c004 	ldr	ip, [r2, #4]
   19ce4:	e31c0020 	tst	ip, #32
   19ce8:	0afffff8 	beq	19cd0 <bcm2835_i2c_read+0x30>
   19cec:	e080c001 	add	ip, r0, r1
   19cf0:	e592e010 	ldr	lr, [r2, #16]
   19cf4:	e2811001 	add	r1, r1, #1
   19cf8:	e4cce001 	strb	lr, [ip], #1
   19cfc:	e592e004 	ldr	lr, [r2, #4]
   19d00:	e2433001 	sub	r3, r3, #1
   19d04:	e31e0020 	tst	lr, #32
   19d08:	1afffff8 	bne	19cf0 <bcm2835_i2c_read+0x50>
   19d0c:	e592e004 	ldr	lr, [r2, #4]
   19d10:	e59fc094 	ldr	ip, [pc, #148]	; 19dac <bcm2835_i2c_read+0x10c>
   19d14:	e31e0002 	tst	lr, #2
   19d18:	0afffff0 	beq	19ce0 <bcm2835_i2c_read+0x40>
   19d1c:	e3530000 	cmp	r3, #0
   19d20:	0a00000c 	beq	19d58 <bcm2835_i2c_read+0xb8>
   19d24:	e59c2004 	ldr	r2, [ip, #4]
   19d28:	e3120020 	tst	r2, #32
   19d2c:	0a00000a 	beq	19d5c <bcm2835_i2c_read+0xbc>
   19d30:	e1a0200c 	mov	r2, ip
   19d34:	e0801001 	add	r1, r0, r1
   19d38:	ea000002 	b	19d48 <bcm2835_i2c_read+0xa8>
   19d3c:	e5920004 	ldr	r0, [r2, #4]
   19d40:	e3100020 	tst	r0, #32
   19d44:	0a000004 	beq	19d5c <bcm2835_i2c_read+0xbc>
   19d48:	e5920010 	ldr	r0, [r2, #16]
   19d4c:	e2533001 	subs	r3, r3, #1
   19d50:	e4c10001 	strb	r0, [r1], #1
   19d54:	1afffff8 	bne	19d3c <bcm2835_i2c_read+0x9c>
   19d58:	e3a03000 	mov	r3, #0
   19d5c:	e59f2048 	ldr	r2, [pc, #72]	; 19dac <bcm2835_i2c_read+0x10c>
   19d60:	e5921004 	ldr	r1, [r2, #4]
   19d64:	e3110c01 	tst	r1, #256	; 0x100
   19d68:	1a00000b 	bne	19d9c <bcm2835_i2c_read+0xfc>
   19d6c:	e5922004 	ldr	r2, [r2, #4]
   19d70:	e3120c02 	tst	r2, #512	; 0x200
   19d74:	13a00002 	movne	r0, #2
   19d78:	0a000003 	beq	19d8c <bcm2835_i2c_read+0xec>
   19d7c:	e3a02002 	mov	r2, #2
   19d80:	e59f3024 	ldr	r3, [pc, #36]	; 19dac <bcm2835_i2c_read+0x10c>
   19d84:	e5832000 	str	r2, [r3]
   19d88:	e49df004 	pop	{pc}		; (ldr pc, [sp], #4)
   19d8c:	e3530000 	cmp	r3, #0
   19d90:	13a00004 	movne	r0, #4
   19d94:	03a00000 	moveq	r0, #0
   19d98:	eafffff7 	b	19d7c <bcm2835_i2c_read+0xdc>
   19d9c:	e3a03c01 	mov	r3, #256	; 0x100
   19da0:	e3a00001 	mov	r0, #1
   19da4:	e5823004 	str	r3, [r2, #4]
   19da8:	eafffff3 	b	19d7c <bcm2835_i2c_read+0xdc>
   19dac:	20804000 	addcs	r4, r0, r0
   19db0:	00000302 	andeq	r0, r0, r2, lsl #6
   19db4:	00008081 	andeq	r8, r0, r1, lsl #1

00019db8 <led_set>:
   19db8:	e3a02801 	mov	r2, #65536	; 0x10000
   19dbc:	e59f300c 	ldr	r3, [pc, #12]	; 19dd0 <led_set+0x18>
   19dc0:	e3500000 	cmp	r0, #0
   19dc4:	1583201c 	strne	r2, [r3, #28]
   19dc8:	05832028 	streq	r2, [r3, #40]	; 0x28
   19dcc:	e12fff1e 	bx	lr
   19dd0:	20200000 	eorcs	r0, r0, r0

00019dd4 <led_init>:
   19dd4:	e59f2010 	ldr	r2, [pc, #16]	; 19dec <led_init+0x18>
   19dd8:	e5923004 	ldr	r3, [r2, #4]
   19ddc:	e3c33707 	bic	r3, r3, #1835008	; 0x1c0000
   19de0:	e3833701 	orr	r3, r3, #262144	; 0x40000
   19de4:	e5823004 	str	r3, [r2, #4]
   19de8:	e12fff1e 	bx	lr
   19dec:	20200000 	eorcs	r0, r0, r0

00019df0 <led_rpiplus_set>:
   19df0:	e3a02902 	mov	r2, #32768	; 0x8000
   19df4:	e59f300c 	ldr	r3, [pc, #12]	; 19e08 <led_rpiplus_set+0x18>
   19df8:	e3500000 	cmp	r0, #0
   19dfc:	15832020 	strne	r2, [r3, #32]
   19e00:	0583202c 	streq	r2, [r3, #44]	; 0x2c
   19e04:	e12fff1e 	bx	lr
   19e08:	20200000 	eorcs	r0, r0, r0

00019e0c <led_rpiplus_init>:
   19e0c:	e59f2010 	ldr	r2, [pc, #16]	; 19e24 <led_rpiplus_init+0x18>
   19e10:	e5923010 	ldr	r3, [r2, #16]
   19e14:	e3c3360e 	bic	r3, r3, #14680064	; 0xe00000
   19e18:	e3833602 	orr	r3, r3, #2097152	; 0x200000
   19e1c:	e5823010 	str	r3, [r2, #16]
   19e20:	e12fff1e 	bx	lr
   19e24:	20200000 	eorcs	r0, r0, r0

00019e28 <bcm2835_mailbox_read>:
   19e28:	e59f1024 	ldr	r1, [pc, #36]	; 19e54 <bcm2835_mailbox_read+0x2c>
   19e2c:	e5913098 	ldr	r3, [r1, #152]	; 0x98
   19e30:	e59f201c 	ldr	r2, [pc, #28]	; 19e54 <bcm2835_mailbox_read+0x2c>
   19e34:	e3130101 	tst	r3, #1073741824	; 0x40000000
   19e38:	1afffffb 	bne	19e2c <bcm2835_mailbox_read+0x4>
   19e3c:	e5923080 	ldr	r3, [r2, #128]	; 0x80
   19e40:	e203200f 	and	r2, r3, #15
   19e44:	e1520000 	cmp	r2, r0
   19e48:	1afffff7 	bne	19e2c <bcm2835_mailbox_read+0x4>
   19e4c:	e3c3000f 	bic	r0, r3, #15
   19e50:	e12fff1e 	bx	lr
   19e54:	2000b800 	andcs	fp, r0, r0, lsl #16

00019e58 <bcm2835_mailbox_write>:
   19e58:	e59fc020 	ldr	ip, [pc, #32]	; 19e80 <bcm2835_mailbox_write+0x28>
   19e5c:	e59c3098 	ldr	r3, [ip, #152]	; 0x98
   19e60:	e59f2018 	ldr	r2, [pc, #24]	; 19e80 <bcm2835_mailbox_write+0x28>
   19e64:	e3530000 	cmp	r3, #0
   19e68:	bafffffb 	blt	19e5c <bcm2835_mailbox_write+0x4>
   19e6c:	e200000f 	and	r0, r0, #15
   19e70:	e3c1100f 	bic	r1, r1, #15
   19e74:	e1801001 	orr	r1, r0, r1
   19e78:	e58210a0 	str	r1, [r2, #160]	; 0xa0
   19e7c:	e12fff1e 	bx	lr
   19e80:	2000b800 	andcs	fp, r0, r0, lsl #16

00019e84 <bcm2835_vc_get_clock_rate>:
   19e84:	e92d4878 	push	{r3, r4, r5, r6, fp, lr}
   19e88:	e3a02004 	mov	r2, #4
   19e8c:	e3a03000 	mov	r3, #0
   19e90:	e3a05008 	mov	r5, #8
   19e94:	e3a0e020 	mov	lr, #32
   19e98:	e1a06000 	mov	r6, r0
   19e9c:	e28db014 	add	fp, sp, #20
   19ea0:	e24dd030 	sub	sp, sp, #48	; 0x30
   19ea4:	e59fc068 	ldr	ip, [pc, #104]	; 19f14 <bcm2835_vc_get_clock_rate+0x90>
   19ea8:	e28d400f 	add	r4, sp, #15
   19eac:	e3c4400f 	bic	r4, r4, #15
   19eb0:	e5843004 	str	r3, [r4, #4]
   19eb4:	e5843018 	str	r3, [r4, #24]
   19eb8:	e584301c 	str	r3, [r4, #28]
   19ebc:	e1a01004 	mov	r1, r4
   19ec0:	e1a00005 	mov	r0, r5
   19ec4:	e584e000 	str	lr, [r4]
   19ec8:	e584c008 	str	ip, [r4, #8]
   19ecc:	e5842010 	str	r2, [r4, #16]
   19ed0:	e5846014 	str	r6, [r4, #20]
   19ed4:	e584500c 	str	r5, [r4, #12]
   19ed8:	ebffffde 	bl	19e58 <bcm2835_mailbox_write>
   19edc:	e1a00005 	mov	r0, r5
   19ee0:	ebffffd0 	bl	19e28 <bcm2835_mailbox_read>
   19ee4:	e5943004 	ldr	r3, [r4, #4]
   19ee8:	e3530102 	cmp	r3, #-2147483648	; 0x80000000
   19eec:	1a000005 	bne	19f08 <bcm2835_vc_get_clock_rate+0x84>
   19ef0:	e5943014 	ldr	r3, [r4, #20]
   19ef4:	e1560003 	cmp	r6, r3
   19ef8:	1a000002 	bne	19f08 <bcm2835_vc_get_clock_rate+0x84>
   19efc:	e5940018 	ldr	r0, [r4, #24]
   19f00:	e24bd014 	sub	sp, fp, #20
   19f04:	e8bd8878 	pop	{r3, r4, r5, r6, fp, pc}
   19f08:	e3e00000 	mvn	r0, #0
   19f0c:	e24bd014 	sub	sp, fp, #20
   19f10:	e8bd8878 	pop	{r3, r4, r5, r6, fp, pc}
   19f14:	00030002 	andeq	r0, r3, r2

00019f18 <bcm2835_vc_set_clock_rate>:
   19f18:	e92d4878 	push	{r3, r4, r5, r6, fp, lr}
   19f1c:	e3a0c020 	mov	ip, #32
   19f20:	e3a03000 	mov	r3, #0
   19f24:	e3a05008 	mov	r5, #8
   19f28:	e1a06000 	mov	r6, r0
   19f2c:	e28db014 	add	fp, sp, #20
   19f30:	e24dd030 	sub	sp, sp, #48	; 0x30
   19f34:	e59f2068 	ldr	r2, [pc, #104]	; 19fa4 <bcm2835_vc_set_clock_rate+0x8c>
   19f38:	e28d400f 	add	r4, sp, #15
   19f3c:	e3c4400f 	bic	r4, r4, #15
   19f40:	e5843004 	str	r3, [r4, #4]
   19f44:	e584301c 	str	r3, [r4, #28]
   19f48:	e5841018 	str	r1, [r4, #24]
   19f4c:	e1a00005 	mov	r0, r5
   19f50:	e1a01004 	mov	r1, r4
   19f54:	e584c000 	str	ip, [r4]
   19f58:	e5842008 	str	r2, [r4, #8]
   19f5c:	e5846014 	str	r6, [r4, #20]
   19f60:	e584500c 	str	r5, [r4, #12]
   19f64:	e5845010 	str	r5, [r4, #16]
   19f68:	ebffffba 	bl	19e58 <bcm2835_mailbox_write>
   19f6c:	e1a00005 	mov	r0, r5
   19f70:	ebffffac 	bl	19e28 <bcm2835_mailbox_read>
   19f74:	e5943004 	ldr	r3, [r4, #4]
   19f78:	e3530102 	cmp	r3, #-2147483648	; 0x80000000
   19f7c:	1a000005 	bne	19f98 <bcm2835_vc_set_clock_rate+0x80>
   19f80:	e5943014 	ldr	r3, [r4, #20]
   19f84:	e1560003 	cmp	r6, r3
   19f88:	1a000002 	bne	19f98 <bcm2835_vc_set_clock_rate+0x80>
   19f8c:	e5940018 	ldr	r0, [r4, #24]
   19f90:	e24bd014 	sub	sp, fp, #20
   19f94:	e8bd8878 	pop	{r3, r4, r5, r6, fp, pc}
   19f98:	e3e00000 	mvn	r0, #0
   19f9c:	e24bd014 	sub	sp, fp, #20
   19fa0:	e8bd8878 	pop	{r3, r4, r5, r6, fp, pc}
   19fa4:	00038002 	andeq	r8, r3, r2

00019fa8 <bcm2835_vc_get_temperature>:
   19fa8:	e92d4830 	push	{r4, r5, fp, lr}
   19fac:	e3a03000 	mov	r3, #0
   19fb0:	e3a05008 	mov	r5, #8
   19fb4:	e3a0e020 	mov	lr, #32
   19fb8:	e3a02004 	mov	r2, #4
   19fbc:	e28db00c 	add	fp, sp, #12
   19fc0:	e24dd030 	sub	sp, sp, #48	; 0x30
   19fc4:	e59fc068 	ldr	ip, [pc, #104]	; 1a034 <bcm2835_vc_get_temperature+0x8c>
   19fc8:	e28d400f 	add	r4, sp, #15
   19fcc:	e3c4400f 	bic	r4, r4, #15
   19fd0:	e5843004 	str	r3, [r4, #4]
   19fd4:	e5843014 	str	r3, [r4, #20]
   19fd8:	e5843018 	str	r3, [r4, #24]
   19fdc:	e584301c 	str	r3, [r4, #28]
   19fe0:	e1a01004 	mov	r1, r4
   19fe4:	e1a00005 	mov	r0, r5
   19fe8:	e584e000 	str	lr, [r4]
   19fec:	e584c008 	str	ip, [r4, #8]
   19ff0:	e5842010 	str	r2, [r4, #16]
   19ff4:	e584500c 	str	r5, [r4, #12]
   19ff8:	ebffff96 	bl	19e58 <bcm2835_mailbox_write>
   19ffc:	e1a00005 	mov	r0, r5
   1a000:	ebffff88 	bl	19e28 <bcm2835_mailbox_read>
   1a004:	e5943004 	ldr	r3, [r4, #4]
   1a008:	e3530102 	cmp	r3, #-2147483648	; 0x80000000
   1a00c:	1a000005 	bne	1a028 <bcm2835_vc_get_temperature+0x80>
   1a010:	e5943014 	ldr	r3, [r4, #20]
   1a014:	e3530000 	cmp	r3, #0
   1a018:	1a000002 	bne	1a028 <bcm2835_vc_get_temperature+0x80>
   1a01c:	e5940018 	ldr	r0, [r4, #24]
   1a020:	e24bd00c 	sub	sp, fp, #12
   1a024:	e8bd8830 	pop	{r4, r5, fp, pc}
   1a028:	e3e00000 	mvn	r0, #0
   1a02c:	e24bd00c 	sub	sp, fp, #12
   1a030:	e8bd8830 	pop	{r4, r5, fp, pc}
   1a034:	00030006 	andeq	r0, r3, r6

0001a038 <bcm2835_vc_get_temperature_max>:
   1a038:	e92d4830 	push	{r4, r5, fp, lr}
   1a03c:	e3a03000 	mov	r3, #0
   1a040:	e3a05008 	mov	r5, #8
   1a044:	e3a0e020 	mov	lr, #32
   1a048:	e3a02004 	mov	r2, #4
   1a04c:	e28db00c 	add	fp, sp, #12
   1a050:	e24dd030 	sub	sp, sp, #48	; 0x30
   1a054:	e59fc068 	ldr	ip, [pc, #104]	; 1a0c4 <bcm2835_vc_get_temperature_max+0x8c>
   1a058:	e28d400f 	add	r4, sp, #15
   1a05c:	e3c4400f 	bic	r4, r4, #15
   1a060:	e5843004 	str	r3, [r4, #4]
   1a064:	e5843014 	str	r3, [r4, #20]
   1a068:	e5843018 	str	r3, [r4, #24]
   1a06c:	e584301c 	str	r3, [r4, #28]
   1a070:	e1a01004 	mov	r1, r4
   1a074:	e1a00005 	mov	r0, r5
   1a078:	e584e000 	str	lr, [r4]
   1a07c:	e584c008 	str	ip, [r4, #8]
   1a080:	e5842010 	str	r2, [r4, #16]
   1a084:	e584500c 	str	r5, [r4, #12]
   1a088:	ebffff72 	bl	19e58 <bcm2835_mailbox_write>
   1a08c:	e1a00005 	mov	r0, r5
   1a090:	ebffff64 	bl	19e28 <bcm2835_mailbox_read>
   1a094:	e5943004 	ldr	r3, [r4, #4]
   1a098:	e3530102 	cmp	r3, #-2147483648	; 0x80000000
   1a09c:	1a000005 	bne	1a0b8 <bcm2835_vc_get_temperature_max+0x80>
   1a0a0:	e5943014 	ldr	r3, [r4, #20]
   1a0a4:	e3530000 	cmp	r3, #0
   1a0a8:	1a000002 	bne	1a0b8 <bcm2835_vc_get_temperature_max+0x80>
   1a0ac:	e5940018 	ldr	r0, [r4, #24]
   1a0b0:	e24bd00c 	sub	sp, fp, #12
   1a0b4:	e8bd8830 	pop	{r4, r5, fp, pc}
   1a0b8:	e3e00000 	mvn	r0, #0
   1a0bc:	e24bd00c 	sub	sp, fp, #12
   1a0c0:	e8bd8830 	pop	{r4, r5, fp, pc}
   1a0c4:	0003000a 	andeq	r0, r3, sl

0001a0c8 <bcm2835_vc_get_power_state>:
   1a0c8:	e92d4878 	push	{r3, r4, r5, r6, fp, lr}
   1a0cc:	e3a02004 	mov	r2, #4
   1a0d0:	e3a03000 	mov	r3, #0
   1a0d4:	e3a05008 	mov	r5, #8
   1a0d8:	e3a0e020 	mov	lr, #32
   1a0dc:	e1a06000 	mov	r6, r0
   1a0e0:	e28db014 	add	fp, sp, #20
   1a0e4:	e24dd030 	sub	sp, sp, #48	; 0x30
   1a0e8:	e59fc06c 	ldr	ip, [pc, #108]	; 1a15c <bcm2835_vc_get_power_state+0x94>
   1a0ec:	e28d400f 	add	r4, sp, #15
   1a0f0:	e3c4400f 	bic	r4, r4, #15
   1a0f4:	e5843004 	str	r3, [r4, #4]
   1a0f8:	e5843018 	str	r3, [r4, #24]
   1a0fc:	e584301c 	str	r3, [r4, #28]
   1a100:	e1a01004 	mov	r1, r4
   1a104:	e1a00005 	mov	r0, r5
   1a108:	e584e000 	str	lr, [r4]
   1a10c:	e584c008 	str	ip, [r4, #8]
   1a110:	e5842010 	str	r2, [r4, #16]
   1a114:	e5846014 	str	r6, [r4, #20]
   1a118:	e584500c 	str	r5, [r4, #12]
   1a11c:	ebffff4d 	bl	19e58 <bcm2835_mailbox_write>
   1a120:	e1a00005 	mov	r0, r5
   1a124:	ebffff3f 	bl	19e28 <bcm2835_mailbox_read>
   1a128:	e5943004 	ldr	r3, [r4, #4]
   1a12c:	e3530102 	cmp	r3, #-2147483648	; 0x80000000
   1a130:	1a000006 	bne	1a150 <bcm2835_vc_get_power_state+0x88>
   1a134:	e5943014 	ldr	r3, [r4, #20]
   1a138:	e1560003 	cmp	r6, r3
   1a13c:	1a000003 	bne	1a150 <bcm2835_vc_get_power_state+0x88>
   1a140:	e5940018 	ldr	r0, [r4, #24]
   1a144:	e2000003 	and	r0, r0, #3
   1a148:	e24bd014 	sub	sp, fp, #20
   1a14c:	e8bd8878 	pop	{r3, r4, r5, r6, fp, pc}
   1a150:	e3a00003 	mov	r0, #3
   1a154:	e24bd014 	sub	sp, fp, #20
   1a158:	e8bd8878 	pop	{r3, r4, r5, r6, fp, pc}
   1a15c:	00020001 	andeq	r0, r2, r1

0001a160 <bcm2835_vc_set_power_state>:
   1a160:	e92d4878 	push	{r3, r4, r5, r6, fp, lr}
   1a164:	e3a0c020 	mov	ip, #32
   1a168:	e3a03000 	mov	r3, #0
   1a16c:	e3a05008 	mov	r5, #8
   1a170:	e1a06000 	mov	r6, r0
   1a174:	e28db014 	add	fp, sp, #20
   1a178:	e24dd030 	sub	sp, sp, #48	; 0x30
   1a17c:	e59f2068 	ldr	r2, [pc, #104]	; 1a1ec <bcm2835_vc_set_power_state+0x8c>
   1a180:	e28d400f 	add	r4, sp, #15
   1a184:	e3c4400f 	bic	r4, r4, #15
   1a188:	e5843004 	str	r3, [r4, #4]
   1a18c:	e584301c 	str	r3, [r4, #28]
   1a190:	e5841018 	str	r1, [r4, #24]
   1a194:	e1a00005 	mov	r0, r5
   1a198:	e1a01004 	mov	r1, r4
   1a19c:	e584c000 	str	ip, [r4]
   1a1a0:	e5842008 	str	r2, [r4, #8]
   1a1a4:	e5846014 	str	r6, [r4, #20]
   1a1a8:	e584500c 	str	r5, [r4, #12]
   1a1ac:	e5845010 	str	r5, [r4, #16]
   1a1b0:	ebffff28 	bl	19e58 <bcm2835_mailbox_write>
   1a1b4:	e1a00005 	mov	r0, r5
   1a1b8:	ebffff1a 	bl	19e28 <bcm2835_mailbox_read>
   1a1bc:	e5943004 	ldr	r3, [r4, #4]
   1a1c0:	e3530102 	cmp	r3, #-2147483648	; 0x80000000
   1a1c4:	1a000005 	bne	1a1e0 <bcm2835_vc_set_power_state+0x80>
   1a1c8:	e5943014 	ldr	r3, [r4, #20]
   1a1cc:	e1560003 	cmp	r6, r3
   1a1d0:	1a000002 	bne	1a1e0 <bcm2835_vc_set_power_state+0x80>
   1a1d4:	e5940018 	ldr	r0, [r4, #24]
   1a1d8:	e24bd014 	sub	sp, fp, #20
   1a1dc:	e8bd8878 	pop	{r3, r4, r5, r6, fp, pc}
   1a1e0:	e3e00000 	mvn	r0, #0
   1a1e4:	e24bd014 	sub	sp, fp, #20
   1a1e8:	e8bd8878 	pop	{r3, r4, r5, r6, fp, pc}
   1a1ec:	00028001 	andeq	r8, r2, r1

0001a1f0 <bcm2835_vc_get_board_mac_address>:
   1a1f0:	e92d4878 	push	{r3, r4, r5, r6, fp, lr}
   1a1f4:	e3a0c020 	mov	ip, #32
   1a1f8:	e3a03006 	mov	r3, #6
   1a1fc:	e3a05000 	mov	r5, #0
   1a200:	e28db014 	add	fp, sp, #20
   1a204:	e24dd030 	sub	sp, sp, #48	; 0x30
   1a208:	e59f20a0 	ldr	r2, [pc, #160]	; 1a2b0 <bcm2835_vc_get_board_mac_address+0xc0>
   1a20c:	e28d400f 	add	r4, sp, #15
   1a210:	e3c4400f 	bic	r4, r4, #15
   1a214:	e584300c 	str	r3, [r4, #12]
   1a218:	e1a01004 	mov	r1, r4
   1a21c:	e584c000 	str	ip, [r4]
   1a220:	e5842008 	str	r2, [r4, #8]
   1a224:	e1a06000 	mov	r6, r0
   1a228:	e5845004 	str	r5, [r4, #4]
   1a22c:	e3a00008 	mov	r0, #8
   1a230:	e5845010 	str	r5, [r4, #16]
   1a234:	e5c45014 	strb	r5, [r4, #20]
   1a238:	e584501c 	str	r5, [r4, #28]
   1a23c:	ebffff05 	bl	19e58 <bcm2835_mailbox_write>
   1a240:	e3a00008 	mov	r0, #8
   1a244:	ebfffef7 	bl	19e28 <bcm2835_mailbox_read>
   1a248:	e5943004 	ldr	r3, [r4, #4]
   1a24c:	e3530102 	cmp	r3, #-2147483648	; 0x80000000
   1a250:	1a00000e 	bne	1a290 <bcm2835_vc_get_board_mac_address+0xa0>
   1a254:	e5d4e014 	ldrb	lr, [r4, #20]
   1a258:	e5d4c015 	ldrb	ip, [r4, #21]
   1a25c:	e5d40016 	ldrb	r0, [r4, #22]
   1a260:	e5d41017 	ldrb	r1, [r4, #23]
   1a264:	e5d42018 	ldrb	r2, [r4, #24]
   1a268:	e5d43019 	ldrb	r3, [r4, #25]
   1a26c:	e5c6e000 	strb	lr, [r6]
   1a270:	e5c6c001 	strb	ip, [r6, #1]
   1a274:	e5c60002 	strb	r0, [r6, #2]
   1a278:	e5c61003 	strb	r1, [r6, #3]
   1a27c:	e5c62004 	strb	r2, [r6, #4]
   1a280:	e5c63005 	strb	r3, [r6, #5]
   1a284:	e1a00005 	mov	r0, r5
   1a288:	e24bd014 	sub	sp, fp, #20
   1a28c:	e8bd8878 	pop	{r3, r4, r5, r6, fp, pc}
   1a290:	e5c65000 	strb	r5, [r6]
   1a294:	e5c65001 	strb	r5, [r6, #1]
   1a298:	e5c65002 	strb	r5, [r6, #2]
   1a29c:	e5c65003 	strb	r5, [r6, #3]
   1a2a0:	e5c65004 	strb	r5, [r6, #4]
   1a2a4:	e5c65005 	strb	r5, [r6, #5]
   1a2a8:	e3e05000 	mvn	r5, #0
   1a2ac:	eafffff4 	b	1a284 <bcm2835_vc_get_board_mac_address+0x94>
   1a2b0:	00010003 	andeq	r0, r1, r3

0001a2b4 <bcm2835_vc_get_get_firmware_revision>:
   1a2b4:	e92d4818 	push	{r3, r4, fp, lr}
   1a2b8:	e3a0c001 	mov	ip, #1
   1a2bc:	e3a03000 	mov	r3, #0
   1a2c0:	e3a0e01c 	mov	lr, #28
   1a2c4:	e3a02004 	mov	r2, #4
   1a2c8:	e28db00c 	add	fp, sp, #12
   1a2cc:	e24dd030 	sub	sp, sp, #48	; 0x30
   1a2d0:	e28d400f 	add	r4, sp, #15
   1a2d4:	e3c4400f 	bic	r4, r4, #15
   1a2d8:	e5843004 	str	r3, [r4, #4]
   1a2dc:	e5843010 	str	r3, [r4, #16]
   1a2e0:	e5843014 	str	r3, [r4, #20]
   1a2e4:	e5843018 	str	r3, [r4, #24]
   1a2e8:	e1a01004 	mov	r1, r4
   1a2ec:	e584e000 	str	lr, [r4]
   1a2f0:	e584c008 	str	ip, [r4, #8]
   1a2f4:	e584200c 	str	r2, [r4, #12]
   1a2f8:	e3a00008 	mov	r0, #8
   1a2fc:	ebfffed5 	bl	19e58 <bcm2835_mailbox_write>
   1a300:	e3a00008 	mov	r0, #8
   1a304:	ebfffec7 	bl	19e28 <bcm2835_mailbox_read>
   1a308:	e5943004 	ldr	r3, [r4, #4]
   1a30c:	e3530102 	cmp	r3, #-2147483648	; 0x80000000
   1a310:	13e00000 	mvnne	r0, #0
   1a314:	05940014 	ldreq	r0, [r4, #20]
   1a318:	e24bd00c 	sub	sp, fp, #12
   1a31c:	e8bd8818 	pop	{r3, r4, fp, pc}

0001a320 <bcm2835_vc_get_get_board_model>:
   1a320:	e92d4818 	push	{r3, r4, fp, lr}
   1a324:	e3a02004 	mov	r2, #4
   1a328:	e3a03000 	mov	r3, #0
   1a32c:	e3a0e01c 	mov	lr, #28
   1a330:	e28db00c 	add	fp, sp, #12
   1a334:	e24dd030 	sub	sp, sp, #48	; 0x30
   1a338:	e59fc04c 	ldr	ip, [pc, #76]	; 1a38c <bcm2835_vc_get_get_board_model+0x6c>
   1a33c:	e28d400f 	add	r4, sp, #15
   1a340:	e3c4400f 	bic	r4, r4, #15
   1a344:	e5843004 	str	r3, [r4, #4]
   1a348:	e5843010 	str	r3, [r4, #16]
   1a34c:	e5843014 	str	r3, [r4, #20]
   1a350:	e5843018 	str	r3, [r4, #24]
   1a354:	e1a01004 	mov	r1, r4
   1a358:	e584e000 	str	lr, [r4]
   1a35c:	e584c008 	str	ip, [r4, #8]
   1a360:	e584200c 	str	r2, [r4, #12]
   1a364:	e3a00008 	mov	r0, #8
   1a368:	ebfffeba 	bl	19e58 <bcm2835_mailbox_write>
   1a36c:	e3a00008 	mov	r0, #8
   1a370:	ebfffeac 	bl	19e28 <bcm2835_mailbox_read>
   1a374:	e5943004 	ldr	r3, [r4, #4]
   1a378:	e3530102 	cmp	r3, #-2147483648	; 0x80000000
   1a37c:	13e00000 	mvnne	r0, #0
   1a380:	05940014 	ldreq	r0, [r4, #20]
   1a384:	e24bd00c 	sub	sp, fp, #12
   1a388:	e8bd8818 	pop	{r3, r4, fp, pc}
   1a38c:	00010001 	andeq	r0, r1, r1

0001a390 <bcm2835_vc_get_get_board_revision>:
   1a390:	e92d4818 	push	{r3, r4, fp, lr}
   1a394:	e3a02004 	mov	r2, #4
   1a398:	e3a03000 	mov	r3, #0
   1a39c:	e3a0e01c 	mov	lr, #28
   1a3a0:	e28db00c 	add	fp, sp, #12
   1a3a4:	e24dd030 	sub	sp, sp, #48	; 0x30
   1a3a8:	e59fc04c 	ldr	ip, [pc, #76]	; 1a3fc <bcm2835_vc_get_get_board_revision+0x6c>
   1a3ac:	e28d400f 	add	r4, sp, #15
   1a3b0:	e3c4400f 	bic	r4, r4, #15
   1a3b4:	e5843004 	str	r3, [r4, #4]
   1a3b8:	e5843010 	str	r3, [r4, #16]
   1a3bc:	e5843014 	str	r3, [r4, #20]
   1a3c0:	e5843018 	str	r3, [r4, #24]
   1a3c4:	e1a01004 	mov	r1, r4
   1a3c8:	e584e000 	str	lr, [r4]
   1a3cc:	e584c008 	str	ip, [r4, #8]
   1a3d0:	e584200c 	str	r2, [r4, #12]
   1a3d4:	e3a00008 	mov	r0, #8
   1a3d8:	ebfffe9e 	bl	19e58 <bcm2835_mailbox_write>
   1a3dc:	e3a00008 	mov	r0, #8
   1a3e0:	ebfffe90 	bl	19e28 <bcm2835_mailbox_read>
   1a3e4:	e5943004 	ldr	r3, [r4, #4]
   1a3e8:	e3530102 	cmp	r3, #-2147483648	; 0x80000000
   1a3ec:	13e00000 	mvnne	r0, #0
   1a3f0:	05940014 	ldreq	r0, [r4, #20]
   1a3f4:	e24bd00c 	sub	sp, fp, #12
   1a3f8:	e8bd8818 	pop	{r3, r4, fp, pc}
   1a3fc:	00010002 	andeq	r0, r1, r2

0001a400 <watchdog_stop>:
   1a400:	e59f3008 	ldr	r3, [pc, #8]	; 1a410 <watchdog_stop+0x10>
   1a404:	e59f2008 	ldr	r2, [pc, #8]	; 1a414 <watchdog_stop+0x14>
   1a408:	e583201c 	str	r2, [r3, #28]
   1a40c:	e12fff1e 	bx	lr
   1a410:	20100000 	andscs	r0, r0, r0
   1a414:	5a000102 	bpl	1a824 <_malloc_r+0x2b8>

0001a418 <watchdog_init>:
   1a418:	e59f2020 	ldr	r2, [pc, #32]	; 1a440 <watchdog_init+0x28>
   1a41c:	e59f3020 	ldr	r3, [pc, #32]	; 1a444 <watchdog_init+0x2c>
   1a420:	e5823024 	str	r3, [r2, #36]	; 0x24
   1a424:	e592301c 	ldr	r3, [r2, #28]
   1a428:	e3c3345a 	bic	r3, r3, #1509949440	; 0x5a000000
   1a42c:	e3c33030 	bic	r3, r3, #48	; 0x30
   1a430:	e383345a 	orr	r3, r3, #1509949440	; 0x5a000000
   1a434:	e3833020 	orr	r3, r3, #32
   1a438:	e582301c 	str	r3, [r2, #28]
   1a43c:	e12fff1e 	bx	lr
   1a440:	20100000 	andscs	r0, r0, r0
   1a444:	5a00ffff 	bpl	5a448 <__sys_stack_top+0x37170>

0001a448 <watchdog_feed>:
   1a448:	e59f2020 	ldr	r2, [pc, #32]	; 1a470 <watchdog_feed+0x28>
   1a44c:	e59f3020 	ldr	r3, [pc, #32]	; 1a474 <watchdog_feed+0x2c>
   1a450:	e5823024 	str	r3, [r2, #36]	; 0x24
   1a454:	e592301c 	ldr	r3, [r2, #28]
   1a458:	e3c3345a 	bic	r3, r3, #1509949440	; 0x5a000000
   1a45c:	e3c33030 	bic	r3, r3, #48	; 0x30
   1a460:	e383345a 	orr	r3, r3, #1509949440	; 0x5a000000
   1a464:	e3833020 	orr	r3, r3, #32
   1a468:	e582301c 	str	r3, [r2, #28]
   1a46c:	e12fff1e 	bx	lr
   1a470:	20100000 	andscs	r0, r0, r0
   1a474:	5a00ffff 	bpl	5a478 <__sys_stack_top+0x371a0>

0001a478 <bcm2835_gpio_fsel>:
   1a478:	e52de004 	push	{lr}		; (str lr, [sp, #-4]!)
   1a47c:	e1a03000 	mov	r3, r0
   1a480:	e59f0034 	ldr	r0, [pc, #52]	; 1a4bc <bcm2835_gpio_fsel+0x44>
   1a484:	e3530009 	cmp	r3, #9
   1a488:	8243300a 	subhi	r3, r3, #10
   1a48c:	82800004 	addhi	r0, r0, #4
   1a490:	8afffffb 	bhi	1a484 <bcm2835_gpio_fsel+0xc>
   1a494:	e0833083 	add	r3, r3, r3, lsl #1
   1a498:	e3a02007 	mov	r2, #7
   1a49c:	e1a02312 	lsl	r2, r2, r3
   1a4a0:	e1a01311 	lsl	r1, r1, r3
   1a4a4:	e5903000 	ldr	r3, [r0]
   1a4a8:	e0021001 	and	r1, r2, r1
   1a4ac:	e1c33002 	bic	r3, r3, r2
   1a4b0:	e1833001 	orr	r3, r3, r1
   1a4b4:	e5803000 	str	r3, [r0]
   1a4b8:	e49df004 	pop	{pc}		; (ldr pc, [sp], #4)
   1a4bc:	20200000 	eorcs	r0, r0, r0

0001a4c0 <udelay>:
   1a4c0:	e92d4030 	push	{r4, r5, lr}
   1a4c4:	e1a05000 	mov	r5, r0
   1a4c8:	e59f4014 	ldr	r4, [pc, #20]	; 1a4e4 <udelay+0x24>
   1a4cc:	e1c420d4 	ldrd	r2, [r4, #4]
   1a4d0:	e1c400d4 	ldrd	r0, [r4, #4]
   1a4d4:	e0401002 	sub	r1, r0, r2
   1a4d8:	e1510005 	cmp	r1, r5
   1a4dc:	9afffffb 	bls	1a4d0 <udelay+0x10>
   1a4e0:	e8bd8030 	pop	{r4, r5, pc}
   1a4e4:	20003000 	andcs	r3, r0, r0

0001a4e8 <__errno>:
   1a4e8:	e59f3004 	ldr	r3, [pc, #4]	; 1a4f4 <__errno+0xc>
   1a4ec:	e5930000 	ldr	r0, [r3]
   1a4f0:	e12fff1e 	bx	lr
   1a4f4:	0001ee10 	andeq	lr, r1, r0, lsl lr

0001a4f8 <localtime>:
   1a4f8:	e92d4008 	push	{r3, lr}
   1a4fc:	e59f3010 	ldr	r3, [pc, #16]	; 1a514 <localtime+0x1c>
   1a500:	e5931000 	ldr	r1, [r3]
   1a504:	e281107c 	add	r1, r1, #124	; 0x7c
   1a508:	eb000002 	bl	1a518 <localtime_r>
   1a50c:	e8bd4008 	pop	{r3, lr}
   1a510:	e12fff1e 	bx	lr
   1a514:	0001ee10 	andeq	lr, r1, r0, lsl lr

0001a518 <localtime_r>:
   1a518:	e92d4008 	push	{r3, lr}
   1a51c:	e3a02000 	mov	r2, #0
   1a520:	eb00053d 	bl	1ba1c <_mktm_r>
   1a524:	e8bd4008 	pop	{r3, lr}
   1a528:	e12fff1e 	bx	lr

0001a52c <malloc>:
   1a52c:	e92d4008 	push	{r3, lr}
   1a530:	e59f3010 	ldr	r3, [pc, #16]	; 1a548 <malloc+0x1c>
   1a534:	e1a01000 	mov	r1, r0
   1a538:	e5930000 	ldr	r0, [r3]
   1a53c:	eb00000a 	bl	1a56c <_malloc_r>
   1a540:	e8bd4008 	pop	{r3, lr}
   1a544:	e12fff1e 	bx	lr
   1a548:	0001ee10 	andeq	lr, r1, r0, lsl lr

0001a54c <free>:
   1a54c:	e92d4008 	push	{r3, lr}
   1a550:	e59f3010 	ldr	r3, [pc, #16]	; 1a568 <free+0x1c>
   1a554:	e1a01000 	mov	r1, r0
   1a558:	e5930000 	ldr	r0, [r3]
   1a55c:	eb0006de 	bl	1c0dc <_free_r>
   1a560:	e8bd4008 	pop	{r3, lr}
   1a564:	e12fff1e 	bx	lr
   1a568:	0001ee10 	andeq	lr, r1, r0, lsl lr

0001a56c <_malloc_r>:
   1a56c:	e92d4ff0 	push	{r4, r5, r6, r7, r8, r9, sl, fp, lr}
   1a570:	e281500b 	add	r5, r1, #11
   1a574:	e3550016 	cmp	r5, #22
   1a578:	83c55007 	bichi	r5, r5, #7
   1a57c:	81a03fa5 	lsrhi	r3, r5, #31
   1a580:	93a03000 	movls	r3, #0
   1a584:	93a05010 	movls	r5, #16
   1a588:	e1550001 	cmp	r5, r1
   1a58c:	21a01003 	movcs	r1, r3
   1a590:	33831001 	orrcc	r1, r3, #1
   1a594:	e3510000 	cmp	r1, #0
   1a598:	13a0300c 	movne	r3, #12
   1a59c:	e24dd00c 	sub	sp, sp, #12
   1a5a0:	e1a06000 	mov	r6, r0
   1a5a4:	15803000 	strne	r3, [r0]
   1a5a8:	13a04000 	movne	r4, #0
   1a5ac:	1a000015 	bne	1a608 <_malloc_r+0x9c>
   1a5b0:	eb00065b 	bl	1bf24 <__malloc_lock>
   1a5b4:	e3550f7e 	cmp	r5, #504	; 0x1f8
   1a5b8:	2a000016 	bcs	1a618 <_malloc_r+0xac>
   1a5bc:	e59f76d8 	ldr	r7, [pc, #1752]	; 1ac9c <_malloc_r+0x730>
   1a5c0:	e1a0e1a5 	lsr	lr, r5, #3
   1a5c4:	e087318e 	add	r3, r7, lr, lsl #3
   1a5c8:	e593400c 	ldr	r4, [r3, #12]
   1a5cc:	e1540003 	cmp	r4, r3
   1a5d0:	0a000149 	beq	1aafc <_malloc_r+0x590>
   1a5d4:	e5943004 	ldr	r3, [r4, #4]
   1a5d8:	e3c33003 	bic	r3, r3, #3
   1a5dc:	e0843003 	add	r3, r4, r3
   1a5e0:	e593c004 	ldr	ip, [r3, #4]
   1a5e4:	e2841008 	add	r1, r4, #8
   1a5e8:	e8910006 	ldm	r1, {r1, r2}
   1a5ec:	e38cc001 	orr	ip, ip, #1
   1a5f0:	e581200c 	str	r2, [r1, #12]
   1a5f4:	e1a00006 	mov	r0, r6
   1a5f8:	e5821008 	str	r1, [r2, #8]
   1a5fc:	e583c004 	str	ip, [r3, #4]
   1a600:	eb000648 	bl	1bf28 <__malloc_unlock>
   1a604:	e2844008 	add	r4, r4, #8
   1a608:	e1a00004 	mov	r0, r4
   1a60c:	e28dd00c 	add	sp, sp, #12
   1a610:	e8bd4ff0 	pop	{r4, r5, r6, r7, r8, r9, sl, fp, lr}
   1a614:	e12fff1e 	bx	lr
   1a618:	e1b0e4a5 	lsrs	lr, r5, #9
   1a61c:	03a0107e 	moveq	r1, #126	; 0x7e
   1a620:	03a0e03f 	moveq	lr, #63	; 0x3f
   1a624:	1a000061 	bne	1a7b0 <_malloc_r+0x244>
   1a628:	e59f766c 	ldr	r7, [pc, #1644]	; 1ac9c <_malloc_r+0x730>
   1a62c:	e0871101 	add	r1, r7, r1, lsl #2
   1a630:	e591400c 	ldr	r4, [r1, #12]
   1a634:	e1510004 	cmp	r1, r4
   1a638:	1a000005 	bne	1a654 <_malloc_r+0xe8>
   1a63c:	ea00000a 	b	1a66c <_malloc_r+0x100>
   1a640:	e3530000 	cmp	r3, #0
   1a644:	aa0000e2 	bge	1a9d4 <_malloc_r+0x468>
   1a648:	e594400c 	ldr	r4, [r4, #12]
   1a64c:	e1510004 	cmp	r1, r4
   1a650:	0a000005 	beq	1a66c <_malloc_r+0x100>
   1a654:	e5942004 	ldr	r2, [r4, #4]
   1a658:	e3c22003 	bic	r2, r2, #3
   1a65c:	e0653002 	rsb	r3, r5, r2
   1a660:	e353000f 	cmp	r3, #15
   1a664:	dafffff5 	ble	1a640 <_malloc_r+0xd4>
   1a668:	e24ee001 	sub	lr, lr, #1
   1a66c:	e28ee001 	add	lr, lr, #1
   1a670:	e59f3624 	ldr	r3, [pc, #1572]	; 1ac9c <_malloc_r+0x730>
   1a674:	e5974010 	ldr	r4, [r7, #16]
   1a678:	e2838008 	add	r8, r3, #8
   1a67c:	e1540008 	cmp	r4, r8
   1a680:	05931004 	ldreq	r1, [r3, #4]
   1a684:	0a000016 	beq	1a6e4 <_malloc_r+0x178>
   1a688:	e5942004 	ldr	r2, [r4, #4]
   1a68c:	e3c22003 	bic	r2, r2, #3
   1a690:	e0651002 	rsb	r1, r5, r2
   1a694:	e351000f 	cmp	r1, #15
   1a698:	ca000105 	bgt	1aab4 <_malloc_r+0x548>
   1a69c:	e3510000 	cmp	r1, #0
   1a6a0:	e5838014 	str	r8, [r3, #20]
   1a6a4:	e5838010 	str	r8, [r3, #16]
   1a6a8:	aa000046 	bge	1a7c8 <_malloc_r+0x25c>
   1a6ac:	e3520c02 	cmp	r2, #512	; 0x200
   1a6b0:	2a0000e0 	bcs	1aa38 <_malloc_r+0x4cc>
   1a6b4:	e5930004 	ldr	r0, [r3, #4]
   1a6b8:	e1a021a2 	lsr	r2, r2, #3
   1a6bc:	e1a01142 	asr	r1, r2, #2
   1a6c0:	e3a0c001 	mov	ip, #1
   1a6c4:	e180111c 	orr	r1, r0, ip, lsl r1
   1a6c8:	e0832182 	add	r2, r3, r2, lsl #3
   1a6cc:	e5920008 	ldr	r0, [r2, #8]
   1a6d0:	e5831004 	str	r1, [r3, #4]
   1a6d4:	e5840008 	str	r0, [r4, #8]
   1a6d8:	e584200c 	str	r2, [r4, #12]
   1a6dc:	e5824008 	str	r4, [r2, #8]
   1a6e0:	e580400c 	str	r4, [r0, #12]
   1a6e4:	e1a0314e 	asr	r3, lr, #2
   1a6e8:	e3a00001 	mov	r0, #1
   1a6ec:	e1a00310 	lsl	r0, r0, r3
   1a6f0:	e1500001 	cmp	r0, r1
   1a6f4:	8a00003e 	bhi	1a7f4 <_malloc_r+0x288>
   1a6f8:	e1110000 	tst	r1, r0
   1a6fc:	1a000008 	bne	1a724 <_malloc_r+0x1b8>
   1a700:	e1a00080 	lsl	r0, r0, #1
   1a704:	e3cee003 	bic	lr, lr, #3
   1a708:	e1110000 	tst	r1, r0
   1a70c:	e28ee004 	add	lr, lr, #4
   1a710:	1a000003 	bne	1a724 <_malloc_r+0x1b8>
   1a714:	e1a00080 	lsl	r0, r0, #1
   1a718:	e1110000 	tst	r1, r0
   1a71c:	e28ee004 	add	lr, lr, #4
   1a720:	0afffffb 	beq	1a714 <_malloc_r+0x1a8>
   1a724:	e087418e 	add	r4, r7, lr, lsl #3
   1a728:	e1a0c004 	mov	ip, r4
   1a72c:	e1a0900e 	mov	r9, lr
   1a730:	e59c300c 	ldr	r3, [ip, #12]
   1a734:	e15c0003 	cmp	ip, r3
   1a738:	1a000005 	bne	1a754 <_malloc_r+0x1e8>
   1a73c:	ea0000e9 	b	1aae8 <_malloc_r+0x57c>
   1a740:	e3520000 	cmp	r2, #0
   1a744:	aa0000f2 	bge	1ab14 <_malloc_r+0x5a8>
   1a748:	e593300c 	ldr	r3, [r3, #12]
   1a74c:	e15c0003 	cmp	ip, r3
   1a750:	0a0000e4 	beq	1aae8 <_malloc_r+0x57c>
   1a754:	e5931004 	ldr	r1, [r3, #4]
   1a758:	e3c11003 	bic	r1, r1, #3
   1a75c:	e0652001 	rsb	r2, r5, r1
   1a760:	e352000f 	cmp	r2, #15
   1a764:	dafffff5 	ble	1a740 <_malloc_r+0x1d4>
   1a768:	e1a04003 	mov	r4, r3
   1a76c:	e5b4c008 	ldr	ip, [r4, #8]!
   1a770:	e593100c 	ldr	r1, [r3, #12]
   1a774:	e3859001 	orr	r9, r5, #1
   1a778:	e382e001 	orr	lr, r2, #1
   1a77c:	e0835005 	add	r5, r3, r5
   1a780:	e5839004 	str	r9, [r3, #4]
   1a784:	e1a00006 	mov	r0, r6
   1a788:	e58c100c 	str	r1, [ip, #12]
   1a78c:	e581c008 	str	ip, [r1, #8]
   1a790:	e5875014 	str	r5, [r7, #20]
   1a794:	e5875010 	str	r5, [r7, #16]
   1a798:	e585800c 	str	r8, [r5, #12]
   1a79c:	e5858008 	str	r8, [r5, #8]
   1a7a0:	e585e004 	str	lr, [r5, #4]
   1a7a4:	e7852002 	str	r2, [r5, r2]
   1a7a8:	eb0005de 	bl	1bf28 <__malloc_unlock>
   1a7ac:	eaffff95 	b	1a608 <_malloc_r+0x9c>
   1a7b0:	e35e0004 	cmp	lr, #4
   1a7b4:	8a000095 	bhi	1aa10 <_malloc_r+0x4a4>
   1a7b8:	e1a0e325 	lsr	lr, r5, #6
   1a7bc:	e28ee038 	add	lr, lr, #56	; 0x38
   1a7c0:	e1a0108e 	lsl	r1, lr, #1
   1a7c4:	eaffff97 	b	1a628 <_malloc_r+0xbc>
   1a7c8:	e0842002 	add	r2, r4, r2
   1a7cc:	e5923004 	ldr	r3, [r2, #4]
   1a7d0:	e3833001 	orr	r3, r3, #1
   1a7d4:	e1a00006 	mov	r0, r6
   1a7d8:	e5823004 	str	r3, [r2, #4]
   1a7dc:	eb0005d1 	bl	1bf28 <__malloc_unlock>
   1a7e0:	e2844008 	add	r4, r4, #8
   1a7e4:	e1a00004 	mov	r0, r4
   1a7e8:	e28dd00c 	add	sp, sp, #12
   1a7ec:	e8bd4ff0 	pop	{r4, r5, r6, r7, r8, r9, sl, fp, lr}
   1a7f0:	e12fff1e 	bx	lr
   1a7f4:	e5974008 	ldr	r4, [r7, #8]
   1a7f8:	e5949004 	ldr	r9, [r4, #4]
   1a7fc:	e3c99003 	bic	r9, r9, #3
   1a800:	e1550009 	cmp	r5, r9
   1a804:	8a000002 	bhi	1a814 <_malloc_r+0x2a8>
   1a808:	e0653009 	rsb	r3, r5, r9
   1a80c:	e353000f 	cmp	r3, #15
   1a810:	ca000062 	bgt	1a9a0 <_malloc_r+0x434>
   1a814:	e59fc484 	ldr	ip, [pc, #1156]	; 1aca0 <_malloc_r+0x734>
   1a818:	e59f2484 	ldr	r2, [pc, #1156]	; 1aca4 <_malloc_r+0x738>
   1a81c:	e59c3000 	ldr	r3, [ip]
   1a820:	e592b000 	ldr	fp, [r2]
   1a824:	e3730001 	cmn	r3, #1
   1a828:	e085b00b 	add	fp, r5, fp
   1a82c:	128bba01 	addne	fp, fp, #4096	; 0x1000
   1a830:	128bb00f 	addne	fp, fp, #15
   1a834:	13cbbeff 	bicne	fp, fp, #4080	; 0xff0
   1a838:	028bb010 	addeq	fp, fp, #16
   1a83c:	13cbb00f 	bicne	fp, fp, #15
   1a840:	e0842009 	add	r2, r4, r9
   1a844:	e1a00006 	mov	r0, r6
   1a848:	e1a0100b 	mov	r1, fp
   1a84c:	e58d2004 	str	r2, [sp, #4]
   1a850:	e58dc000 	str	ip, [sp]
   1a854:	eb0005b4 	bl	1bf2c <_sbrk_r>
   1a858:	e3700001 	cmn	r0, #1
   1a85c:	e1a08000 	mov	r8, r0
   1a860:	e59d2004 	ldr	r2, [sp, #4]
   1a864:	e59dc000 	ldr	ip, [sp]
   1a868:	0a0000bb 	beq	1ab5c <_malloc_r+0x5f0>
   1a86c:	e1520000 	cmp	r2, r0
   1a870:	8a0000b7 	bhi	1ab54 <_malloc_r+0x5e8>
   1a874:	e59fa42c 	ldr	sl, [pc, #1068]	; 1aca8 <_malloc_r+0x73c>
   1a878:	e59a3000 	ldr	r3, [sl]
   1a87c:	e1520008 	cmp	r2, r8
   1a880:	e08b3003 	add	r3, fp, r3
   1a884:	e58a3000 	str	r3, [sl]
   1a888:	0a0000e8 	beq	1ac30 <_malloc_r+0x6c4>
   1a88c:	e59c1000 	ldr	r1, [ip]
   1a890:	e3710001 	cmn	r1, #1
   1a894:	10622008 	rsbne	r2, r2, r8
   1a898:	e59f1400 	ldr	r1, [pc, #1024]	; 1aca0 <_malloc_r+0x734>
   1a89c:	10833002 	addne	r3, r3, r2
   1a8a0:	05818000 	streq	r8, [r1]
   1a8a4:	158a3000 	strne	r3, [sl]
   1a8a8:	e2183007 	ands	r3, r8, #7
   1a8ac:	12632008 	rsbne	r2, r3, #8
   1a8b0:	10888002 	addne	r8, r8, r2
   1a8b4:	12633a01 	rsbne	r3, r3, #4096	; 0x1000
   1a8b8:	12832008 	addne	r2, r3, #8
   1a8bc:	e088300b 	add	r3, r8, fp
   1a8c0:	03a02a01 	moveq	r2, #4096	; 0x1000
   1a8c4:	e1a03a03 	lsl	r3, r3, #20
   1a8c8:	e042ba23 	sub	fp, r2, r3, lsr #20
   1a8cc:	e1a0100b 	mov	r1, fp
   1a8d0:	e1a00006 	mov	r0, r6
   1a8d4:	eb000594 	bl	1bf2c <_sbrk_r>
   1a8d8:	e3700001 	cmn	r0, #1
   1a8dc:	10682000 	rsbne	r2, r8, r0
   1a8e0:	e59a3000 	ldr	r3, [sl]
   1a8e4:	108b2002 	addne	r2, fp, r2
   1a8e8:	03a0b000 	moveq	fp, #0
   1a8ec:	13822001 	orrne	r2, r2, #1
   1a8f0:	03a02001 	moveq	r2, #1
   1a8f4:	e08b3003 	add	r3, fp, r3
   1a8f8:	e1540007 	cmp	r4, r7
   1a8fc:	e5878008 	str	r8, [r7, #8]
   1a900:	e58a3000 	str	r3, [sl]
   1a904:	e5882004 	str	r2, [r8, #4]
   1a908:	e59fa398 	ldr	sl, [pc, #920]	; 1aca8 <_malloc_r+0x73c>
   1a90c:	0a00000d 	beq	1a948 <_malloc_r+0x3dc>
   1a910:	e359000f 	cmp	r9, #15
   1a914:	9a0000b1 	bls	1abe0 <_malloc_r+0x674>
   1a918:	e5940004 	ldr	r0, [r4, #4]
   1a91c:	e249200c 	sub	r2, r9, #12
   1a920:	e3c22007 	bic	r2, r2, #7
   1a924:	e2000001 	and	r0, r0, #1
   1a928:	e1820000 	orr	r0, r2, r0
   1a92c:	e3a01005 	mov	r1, #5
   1a930:	e352000f 	cmp	r2, #15
   1a934:	e0842002 	add	r2, r4, r2
   1a938:	e5840004 	str	r0, [r4, #4]
   1a93c:	e5821004 	str	r1, [r2, #4]
   1a940:	e5821008 	str	r1, [r2, #8]
   1a944:	8a0000c0 	bhi	1ac4c <_malloc_r+0x6e0>
   1a948:	e59f235c 	ldr	r2, [pc, #860]	; 1acac <_malloc_r+0x740>
   1a94c:	e5921000 	ldr	r1, [r2]
   1a950:	e1530001 	cmp	r3, r1
   1a954:	85823000 	strhi	r3, [r2]
   1a958:	e59f2350 	ldr	r2, [pc, #848]	; 1acb0 <_malloc_r+0x744>
   1a95c:	e5921000 	ldr	r1, [r2]
   1a960:	e5974008 	ldr	r4, [r7, #8]
   1a964:	e1530001 	cmp	r3, r1
   1a968:	95943004 	ldrls	r3, [r4, #4]
   1a96c:	85941004 	ldrhi	r1, [r4, #4]
   1a970:	85823000 	strhi	r3, [r2]
   1a974:	93c33003 	bicls	r3, r3, #3
   1a978:	83c13003 	bichi	r3, r1, #3
   1a97c:	e1550003 	cmp	r5, r3
   1a980:	e0653003 	rsb	r3, r5, r3
   1a984:	8a000001 	bhi	1a990 <_malloc_r+0x424>
   1a988:	e353000f 	cmp	r3, #15
   1a98c:	ca000003 	bgt	1a9a0 <_malloc_r+0x434>
   1a990:	e1a00006 	mov	r0, r6
   1a994:	eb000563 	bl	1bf28 <__malloc_unlock>
   1a998:	e3a04000 	mov	r4, #0
   1a99c:	eaffff19 	b	1a608 <_malloc_r+0x9c>
   1a9a0:	e3852001 	orr	r2, r5, #1
   1a9a4:	e3833001 	orr	r3, r3, #1
   1a9a8:	e0845005 	add	r5, r4, r5
   1a9ac:	e5842004 	str	r2, [r4, #4]
   1a9b0:	e1a00006 	mov	r0, r6
   1a9b4:	e5875008 	str	r5, [r7, #8]
   1a9b8:	e5853004 	str	r3, [r5, #4]
   1a9bc:	eb000559 	bl	1bf28 <__malloc_unlock>
   1a9c0:	e2844008 	add	r4, r4, #8
   1a9c4:	e1a00004 	mov	r0, r4
   1a9c8:	e28dd00c 	add	sp, sp, #12
   1a9cc:	e8bd4ff0 	pop	{r4, r5, r6, r7, r8, r9, sl, fp, lr}
   1a9d0:	e12fff1e 	bx	lr
   1a9d4:	e0842002 	add	r2, r4, r2
   1a9d8:	e592c004 	ldr	ip, [r2, #4]
   1a9dc:	e2841008 	add	r1, r4, #8
   1a9e0:	e891000a 	ldm	r1, {r1, r3}
   1a9e4:	e38cc001 	orr	ip, ip, #1
   1a9e8:	e581300c 	str	r3, [r1, #12]
   1a9ec:	e1a00006 	mov	r0, r6
   1a9f0:	e5831008 	str	r1, [r3, #8]
   1a9f4:	e582c004 	str	ip, [r2, #4]
   1a9f8:	eb00054a 	bl	1bf28 <__malloc_unlock>
   1a9fc:	e2844008 	add	r4, r4, #8
   1aa00:	e1a00004 	mov	r0, r4
   1aa04:	e28dd00c 	add	sp, sp, #12
   1aa08:	e8bd4ff0 	pop	{r4, r5, r6, r7, r8, r9, sl, fp, lr}
   1aa0c:	e12fff1e 	bx	lr
   1aa10:	e35e0014 	cmp	lr, #20
   1aa14:	928ee05b 	addls	lr, lr, #91	; 0x5b
   1aa18:	91a0108e 	lslls	r1, lr, #1
   1aa1c:	9affff01 	bls	1a628 <_malloc_r+0xbc>
   1aa20:	e35e0054 	cmp	lr, #84	; 0x54
   1aa24:	8a000067 	bhi	1abc8 <_malloc_r+0x65c>
   1aa28:	e1a0e625 	lsr	lr, r5, #12
   1aa2c:	e28ee06e 	add	lr, lr, #110	; 0x6e
   1aa30:	e1a0108e 	lsl	r1, lr, #1
   1aa34:	eafffefb 	b	1a628 <_malloc_r+0xbc>
   1aa38:	e1a034a2 	lsr	r3, r2, #9
   1aa3c:	e3530004 	cmp	r3, #4
   1aa40:	9a00003f 	bls	1ab44 <_malloc_r+0x5d8>
   1aa44:	e3530014 	cmp	r3, #20
   1aa48:	9283105b 	addls	r1, r3, #91	; 0x5b
   1aa4c:	91a00081 	lslls	r0, r1, #1
   1aa50:	9a000004 	bls	1aa68 <_malloc_r+0x4fc>
   1aa54:	e3530054 	cmp	r3, #84	; 0x54
   1aa58:	8a000080 	bhi	1ac60 <_malloc_r+0x6f4>
   1aa5c:	e1a01622 	lsr	r1, r2, #12
   1aa60:	e281106e 	add	r1, r1, #110	; 0x6e
   1aa64:	e1a00081 	lsl	r0, r1, #1
   1aa68:	e0870100 	add	r0, r7, r0, lsl #2
   1aa6c:	e5903008 	ldr	r3, [r0, #8]
   1aa70:	e1530000 	cmp	r3, r0
   1aa74:	e59fc220 	ldr	ip, [pc, #544]	; 1ac9c <_malloc_r+0x730>
   1aa78:	0a00005d 	beq	1abf4 <_malloc_r+0x688>
   1aa7c:	e5931004 	ldr	r1, [r3, #4]
   1aa80:	e3c11003 	bic	r1, r1, #3
   1aa84:	e1520001 	cmp	r2, r1
   1aa88:	2a000002 	bcs	1aa98 <_malloc_r+0x52c>
   1aa8c:	e5933008 	ldr	r3, [r3, #8]
   1aa90:	e1500003 	cmp	r0, r3
   1aa94:	1afffff8 	bne	1aa7c <_malloc_r+0x510>
   1aa98:	e593200c 	ldr	r2, [r3, #12]
   1aa9c:	e5971004 	ldr	r1, [r7, #4]
   1aaa0:	e584200c 	str	r2, [r4, #12]
   1aaa4:	e5843008 	str	r3, [r4, #8]
   1aaa8:	e5824008 	str	r4, [r2, #8]
   1aaac:	e583400c 	str	r4, [r3, #12]
   1aab0:	eaffff0b 	b	1a6e4 <_malloc_r+0x178>
   1aab4:	e385c001 	orr	ip, r5, #1
   1aab8:	e3812001 	orr	r2, r1, #1
   1aabc:	e0845005 	add	r5, r4, r5
   1aac0:	e584c004 	str	ip, [r4, #4]
   1aac4:	e1a00006 	mov	r0, r6
   1aac8:	e5835014 	str	r5, [r3, #20]
   1aacc:	e5835010 	str	r5, [r3, #16]
   1aad0:	e585800c 	str	r8, [r5, #12]
   1aad4:	e9850104 	stmib	r5, {r2, r8}
   1aad8:	e7851001 	str	r1, [r5, r1]
   1aadc:	e2844008 	add	r4, r4, #8
   1aae0:	eb000510 	bl	1bf28 <__malloc_unlock>
   1aae4:	eafffec7 	b	1a608 <_malloc_r+0x9c>
   1aae8:	e2899001 	add	r9, r9, #1
   1aaec:	e3190003 	tst	r9, #3
   1aaf0:	e28cc008 	add	ip, ip, #8
   1aaf4:	1affff0d 	bne	1a730 <_malloc_r+0x1c4>
   1aaf8:	ea00001f 	b	1ab7c <_malloc_r+0x610>
   1aafc:	e2843008 	add	r3, r4, #8
   1ab00:	e5944014 	ldr	r4, [r4, #20]
   1ab04:	e1530004 	cmp	r3, r4
   1ab08:	028ee002 	addeq	lr, lr, #2
   1ab0c:	0afffed7 	beq	1a670 <_malloc_r+0x104>
   1ab10:	eafffeaf 	b	1a5d4 <_malloc_r+0x68>
   1ab14:	e0831001 	add	r1, r3, r1
   1ab18:	e591c004 	ldr	ip, [r1, #4]
   1ab1c:	e1a04003 	mov	r4, r3
   1ab20:	e5b42008 	ldr	r2, [r4, #8]!
   1ab24:	e593300c 	ldr	r3, [r3, #12]
   1ab28:	e38cc001 	orr	ip, ip, #1
   1ab2c:	e581c004 	str	ip, [r1, #4]
   1ab30:	e1a00006 	mov	r0, r6
   1ab34:	e582300c 	str	r3, [r2, #12]
   1ab38:	e5832008 	str	r2, [r3, #8]
   1ab3c:	eb0004f9 	bl	1bf28 <__malloc_unlock>
   1ab40:	eafffeb0 	b	1a608 <_malloc_r+0x9c>
   1ab44:	e1a01322 	lsr	r1, r2, #6
   1ab48:	e2811038 	add	r1, r1, #56	; 0x38
   1ab4c:	e1a00081 	lsl	r0, r1, #1
   1ab50:	eaffffc4 	b	1aa68 <_malloc_r+0x4fc>
   1ab54:	e1540007 	cmp	r4, r7
   1ab58:	0affff45 	beq	1a874 <_malloc_r+0x308>
   1ab5c:	e5974008 	ldr	r4, [r7, #8]
   1ab60:	e5943004 	ldr	r3, [r4, #4]
   1ab64:	e3c33003 	bic	r3, r3, #3
   1ab68:	eaffff83 	b	1a97c <_malloc_r+0x410>
   1ab6c:	e5944000 	ldr	r4, [r4]
   1ab70:	e1540003 	cmp	r4, r3
   1ab74:	e24ee001 	sub	lr, lr, #1
   1ab78:	1a000045 	bne	1ac94 <_malloc_r+0x728>
   1ab7c:	e31e0003 	tst	lr, #3
   1ab80:	e2443008 	sub	r3, r4, #8
   1ab84:	1afffff8 	bne	1ab6c <_malloc_r+0x600>
   1ab88:	e5973004 	ldr	r3, [r7, #4]
   1ab8c:	e1c33000 	bic	r3, r3, r0
   1ab90:	e5873004 	str	r3, [r7, #4]
   1ab94:	e1a00080 	lsl	r0, r0, #1
   1ab98:	e1500003 	cmp	r0, r3
   1ab9c:	8affff14 	bhi	1a7f4 <_malloc_r+0x288>
   1aba0:	e3500000 	cmp	r0, #0
   1aba4:	0affff12 	beq	1a7f4 <_malloc_r+0x288>
   1aba8:	e1130000 	tst	r3, r0
   1abac:	e1a0e009 	mov	lr, r9
   1abb0:	1afffedb 	bne	1a724 <_malloc_r+0x1b8>
   1abb4:	e1a00080 	lsl	r0, r0, #1
   1abb8:	e1130000 	tst	r3, r0
   1abbc:	e28ee004 	add	lr, lr, #4
   1abc0:	0afffffb 	beq	1abb4 <_malloc_r+0x648>
   1abc4:	eafffed6 	b	1a724 <_malloc_r+0x1b8>
   1abc8:	e35e0f55 	cmp	lr, #340	; 0x154
   1abcc:	8a00000f 	bhi	1ac10 <_malloc_r+0x6a4>
   1abd0:	e1a0e7a5 	lsr	lr, r5, #15
   1abd4:	e28ee077 	add	lr, lr, #119	; 0x77
   1abd8:	e1a0108e 	lsl	r1, lr, #1
   1abdc:	eafffe91 	b	1a628 <_malloc_r+0xbc>
   1abe0:	e3a03001 	mov	r3, #1
   1abe4:	e5883004 	str	r3, [r8, #4]
   1abe8:	e1a04008 	mov	r4, r8
   1abec:	e3a03000 	mov	r3, #0
   1abf0:	eaffff61 	b	1a97c <_malloc_r+0x410>
   1abf4:	e59c2004 	ldr	r2, [ip, #4]
   1abf8:	e1a01141 	asr	r1, r1, #2
   1abfc:	e3a00001 	mov	r0, #1
   1ac00:	e1821110 	orr	r1, r2, r0, lsl r1
   1ac04:	e1a02003 	mov	r2, r3
   1ac08:	e58c1004 	str	r1, [ip, #4]
   1ac0c:	eaffffa3 	b	1aaa0 <_malloc_r+0x534>
   1ac10:	e59f309c 	ldr	r3, [pc, #156]	; 1acb4 <_malloc_r+0x748>
   1ac14:	e15e0003 	cmp	lr, r3
   1ac18:	91a0e925 	lsrls	lr, r5, #18
   1ac1c:	928ee07c 	addls	lr, lr, #124	; 0x7c
   1ac20:	91a0108e 	lslls	r1, lr, #1
   1ac24:	83a010fc 	movhi	r1, #252	; 0xfc
   1ac28:	83a0e07e 	movhi	lr, #126	; 0x7e
   1ac2c:	eafffe7d 	b	1a628 <_malloc_r+0xbc>
   1ac30:	e1b01a02 	lsls	r1, r2, #20
   1ac34:	1affff14 	bne	1a88c <_malloc_r+0x320>
   1ac38:	e08b1009 	add	r1, fp, r9
   1ac3c:	e5972008 	ldr	r2, [r7, #8]
   1ac40:	e3811001 	orr	r1, r1, #1
   1ac44:	e5821004 	str	r1, [r2, #4]
   1ac48:	eaffff3e 	b	1a948 <_malloc_r+0x3dc>
   1ac4c:	e2841008 	add	r1, r4, #8
   1ac50:	e1a00006 	mov	r0, r6
   1ac54:	eb000520 	bl	1c0dc <_free_r>
   1ac58:	e59a3000 	ldr	r3, [sl]
   1ac5c:	eaffff39 	b	1a948 <_malloc_r+0x3dc>
   1ac60:	e3530f55 	cmp	r3, #340	; 0x154
   1ac64:	91a017a2 	lsrls	r1, r2, #15
   1ac68:	92811077 	addls	r1, r1, #119	; 0x77
   1ac6c:	91a00081 	lslls	r0, r1, #1
   1ac70:	9affff7c 	bls	1aa68 <_malloc_r+0x4fc>
   1ac74:	e59f1038 	ldr	r1, [pc, #56]	; 1acb4 <_malloc_r+0x748>
   1ac78:	e1530001 	cmp	r3, r1
   1ac7c:	91a01922 	lsrls	r1, r2, #18
   1ac80:	9281107c 	addls	r1, r1, #124	; 0x7c
   1ac84:	91a00081 	lslls	r0, r1, #1
   1ac88:	83a000fc 	movhi	r0, #252	; 0xfc
   1ac8c:	83a0107e 	movhi	r1, #126	; 0x7e
   1ac90:	eaffff74 	b	1aa68 <_malloc_r+0x4fc>
   1ac94:	e5973004 	ldr	r3, [r7, #4]
   1ac98:	eaffffbd 	b	1ab94 <_malloc_r+0x628>
   1ac9c:	0001ee14 	andeq	lr, r1, r4, lsl lr
   1aca0:	0001f220 	andeq	pc, r1, r0, lsr #4
   1aca4:	00021898 	muleq	r2, r8, r8
   1aca8:	0002189c 	muleq	r2, ip, r8
   1acac:	00021894 	muleq	r2, r4, r8
   1acb0:	00021890 	muleq	r2, r0, r8
   1acb4:	00000554 	andeq	r0, r0, r4, asr r5

0001acb8 <memcpy>:
   1acb8:	e352000f 	cmp	r2, #15
   1acbc:	e92d00f0 	push	{r4, r5, r6, r7}
   1acc0:	9a00002a 	bls	1ad70 <memcpy+0xb8>
   1acc4:	e1803001 	orr	r3, r0, r1
   1acc8:	e3130003 	tst	r3, #3
   1accc:	1a000031 	bne	1ad98 <memcpy+0xe0>
   1acd0:	e2426010 	sub	r6, r2, #16
   1acd4:	e1a06226 	lsr	r6, r6, #4
   1acd8:	e0805206 	add	r5, r0, r6, lsl #4
   1acdc:	e2855010 	add	r5, r5, #16
   1ace0:	e1a0c001 	mov	ip, r1
   1ace4:	e1a03000 	mov	r3, r0
   1ace8:	e59c4000 	ldr	r4, [ip]
   1acec:	e5834000 	str	r4, [r3]
   1acf0:	e59c4004 	ldr	r4, [ip, #4]
   1acf4:	e5834004 	str	r4, [r3, #4]
   1acf8:	e59c4008 	ldr	r4, [ip, #8]
   1acfc:	e5834008 	str	r4, [r3, #8]
   1ad00:	e59c400c 	ldr	r4, [ip, #12]
   1ad04:	e2833010 	add	r3, r3, #16
   1ad08:	e5034004 	str	r4, [r3, #-4]
   1ad0c:	e1530005 	cmp	r3, r5
   1ad10:	e28cc010 	add	ip, ip, #16
   1ad14:	1afffff3 	bne	1ace8 <memcpy+0x30>
   1ad18:	e2863001 	add	r3, r6, #1
   1ad1c:	e202700f 	and	r7, r2, #15
   1ad20:	e1a03203 	lsl	r3, r3, #4
   1ad24:	e3570003 	cmp	r7, #3
   1ad28:	e0811003 	add	r1, r1, r3
   1ad2c:	e0803003 	add	r3, r0, r3
   1ad30:	9a00001a 	bls	1ada0 <memcpy+0xe8>
   1ad34:	e1a05001 	mov	r5, r1
   1ad38:	e1a04003 	mov	r4, r3
   1ad3c:	e1a0c007 	mov	ip, r7
   1ad40:	e24cc004 	sub	ip, ip, #4
   1ad44:	e4956004 	ldr	r6, [r5], #4
   1ad48:	e35c0003 	cmp	ip, #3
   1ad4c:	e4846004 	str	r6, [r4], #4
   1ad50:	8afffffa 	bhi	1ad40 <memcpy+0x88>
   1ad54:	e247c004 	sub	ip, r7, #4
   1ad58:	e3ccc003 	bic	ip, ip, #3
   1ad5c:	e28cc004 	add	ip, ip, #4
   1ad60:	e083300c 	add	r3, r3, ip
   1ad64:	e081100c 	add	r1, r1, ip
   1ad68:	e2022003 	and	r2, r2, #3
   1ad6c:	ea000000 	b	1ad74 <memcpy+0xbc>
   1ad70:	e1a03000 	mov	r3, r0
   1ad74:	e3520000 	cmp	r2, #0
   1ad78:	0a000004 	beq	1ad90 <memcpy+0xd8>
   1ad7c:	e0812002 	add	r2, r1, r2
   1ad80:	e4d1c001 	ldrb	ip, [r1], #1
   1ad84:	e1510002 	cmp	r1, r2
   1ad88:	e4c3c001 	strb	ip, [r3], #1
   1ad8c:	1afffffb 	bne	1ad80 <memcpy+0xc8>
   1ad90:	e8bd00f0 	pop	{r4, r5, r6, r7}
   1ad94:	e12fff1e 	bx	lr
   1ad98:	e1a03000 	mov	r3, r0
   1ad9c:	eafffff6 	b	1ad7c <memcpy+0xc4>
   1ada0:	e1a02007 	mov	r2, r7
   1ada4:	eafffff2 	b	1ad74 <memcpy+0xbc>

0001ada8 <memmove>:
   1ada8:	e1500001 	cmp	r0, r1
   1adac:	e92d00f0 	push	{r4, r5, r6, r7}
   1adb0:	9a00000e 	bls	1adf0 <memmove+0x48>
   1adb4:	e081c002 	add	ip, r1, r2
   1adb8:	e150000c 	cmp	r0, ip
   1adbc:	2a00000b 	bcs	1adf0 <memmove+0x48>
   1adc0:	e3520000 	cmp	r2, #0
   1adc4:	e0803002 	add	r3, r0, r2
   1adc8:	e2422001 	sub	r2, r2, #1
   1adcc:	0a000005 	beq	1ade8 <memmove+0x40>
   1add0:	e1a0100c 	mov	r1, ip
   1add4:	e2422001 	sub	r2, r2, #1
   1add8:	e571c001 	ldrb	ip, [r1, #-1]!
   1addc:	e3720001 	cmn	r2, #1
   1ade0:	e563c001 	strb	ip, [r3, #-1]!
   1ade4:	1afffffa 	bne	1add4 <memmove+0x2c>
   1ade8:	e8bd00f0 	pop	{r4, r5, r6, r7}
   1adec:	e12fff1e 	bx	lr
   1adf0:	e352000f 	cmp	r2, #15
   1adf4:	8a000009 	bhi	1ae20 <memmove+0x78>
   1adf8:	e1a03000 	mov	r3, r0
   1adfc:	e3520000 	cmp	r2, #0
   1ae00:	0afffff8 	beq	1ade8 <memmove+0x40>
   1ae04:	e0832002 	add	r2, r3, r2
   1ae08:	e4d1c001 	ldrb	ip, [r1], #1
   1ae0c:	e4c3c001 	strb	ip, [r3], #1
   1ae10:	e1530002 	cmp	r3, r2
   1ae14:	1afffffb 	bne	1ae08 <memmove+0x60>
   1ae18:	e8bd00f0 	pop	{r4, r5, r6, r7}
   1ae1c:	e12fff1e 	bx	lr
   1ae20:	e1803001 	orr	r3, r0, r1
   1ae24:	e3130003 	tst	r3, #3
   1ae28:	1a000027 	bne	1aecc <memmove+0x124>
   1ae2c:	e2426010 	sub	r6, r2, #16
   1ae30:	e1a06226 	lsr	r6, r6, #4
   1ae34:	e0805206 	add	r5, r0, r6, lsl #4
   1ae38:	e2855010 	add	r5, r5, #16
   1ae3c:	e1a0c001 	mov	ip, r1
   1ae40:	e1a03000 	mov	r3, r0
   1ae44:	e59c4000 	ldr	r4, [ip]
   1ae48:	e5834000 	str	r4, [r3]
   1ae4c:	e59c4004 	ldr	r4, [ip, #4]
   1ae50:	e5834004 	str	r4, [r3, #4]
   1ae54:	e59c4008 	ldr	r4, [ip, #8]
   1ae58:	e5834008 	str	r4, [r3, #8]
   1ae5c:	e59c400c 	ldr	r4, [ip, #12]
   1ae60:	e2833010 	add	r3, r3, #16
   1ae64:	e5034004 	str	r4, [r3, #-4]
   1ae68:	e1530005 	cmp	r3, r5
   1ae6c:	e28cc010 	add	ip, ip, #16
   1ae70:	1afffff3 	bne	1ae44 <memmove+0x9c>
   1ae74:	e2863001 	add	r3, r6, #1
   1ae78:	e202700f 	and	r7, r2, #15
   1ae7c:	e1a03203 	lsl	r3, r3, #4
   1ae80:	e3570003 	cmp	r7, #3
   1ae84:	e0811003 	add	r1, r1, r3
   1ae88:	e0803003 	add	r3, r0, r3
   1ae8c:	9a000010 	bls	1aed4 <memmove+0x12c>
   1ae90:	e1a05001 	mov	r5, r1
   1ae94:	e1a04003 	mov	r4, r3
   1ae98:	e1a0c007 	mov	ip, r7
   1ae9c:	e24cc004 	sub	ip, ip, #4
   1aea0:	e4956004 	ldr	r6, [r5], #4
   1aea4:	e35c0003 	cmp	ip, #3
   1aea8:	e4846004 	str	r6, [r4], #4
   1aeac:	8afffffa 	bhi	1ae9c <memmove+0xf4>
   1aeb0:	e247c004 	sub	ip, r7, #4
   1aeb4:	e3ccc003 	bic	ip, ip, #3
   1aeb8:	e28cc004 	add	ip, ip, #4
   1aebc:	e083300c 	add	r3, r3, ip
   1aec0:	e081100c 	add	r1, r1, ip
   1aec4:	e2022003 	and	r2, r2, #3
   1aec8:	eaffffcb 	b	1adfc <memmove+0x54>
   1aecc:	e1a03000 	mov	r3, r0
   1aed0:	eaffffcb 	b	1ae04 <memmove+0x5c>
   1aed4:	e1a02007 	mov	r2, r7
   1aed8:	eaffffc7 	b	1adfc <memmove+0x54>

0001aedc <memset>:
   1aedc:	e3100003 	tst	r0, #3
   1aee0:	e92d0070 	push	{r4, r5, r6}
   1aee4:	0a000037 	beq	1afc8 <memset+0xec>
   1aee8:	e3520000 	cmp	r2, #0
   1aeec:	e2422001 	sub	r2, r2, #1
   1aef0:	0a000032 	beq	1afc0 <memset+0xe4>
   1aef4:	e201c0ff 	and	ip, r1, #255	; 0xff
   1aef8:	e1a03000 	mov	r3, r0
   1aefc:	ea000002 	b	1af0c <memset+0x30>
   1af00:	e3520000 	cmp	r2, #0
   1af04:	e2422001 	sub	r2, r2, #1
   1af08:	0a00002c 	beq	1afc0 <memset+0xe4>
   1af0c:	e4c3c001 	strb	ip, [r3], #1
   1af10:	e3130003 	tst	r3, #3
   1af14:	1afffff9 	bne	1af00 <memset+0x24>
   1af18:	e3520003 	cmp	r2, #3
   1af1c:	9a000020 	bls	1afa4 <memset+0xc8>
   1af20:	e20140ff 	and	r4, r1, #255	; 0xff
   1af24:	e1844404 	orr	r4, r4, r4, lsl #8
   1af28:	e352000f 	cmp	r2, #15
   1af2c:	e1844804 	orr	r4, r4, r4, lsl #16
   1af30:	9a000010 	bls	1af78 <memset+0x9c>
   1af34:	e2426010 	sub	r6, r2, #16
   1af38:	e1a06226 	lsr	r6, r6, #4
   1af3c:	e2835010 	add	r5, r3, #16
   1af40:	e0855206 	add	r5, r5, r6, lsl #4
   1af44:	e1a0c003 	mov	ip, r3
   1af48:	e58c4000 	str	r4, [ip]
   1af4c:	e58c4004 	str	r4, [ip, #4]
   1af50:	e58c4008 	str	r4, [ip, #8]
   1af54:	e58c400c 	str	r4, [ip, #12]
   1af58:	e28cc010 	add	ip, ip, #16
   1af5c:	e15c0005 	cmp	ip, r5
   1af60:	1afffff8 	bne	1af48 <memset+0x6c>
   1af64:	e202200f 	and	r2, r2, #15
   1af68:	e2866001 	add	r6, r6, #1
   1af6c:	e3520003 	cmp	r2, #3
   1af70:	e0833206 	add	r3, r3, r6, lsl #4
   1af74:	9a00000a 	bls	1afa4 <memset+0xc8>
   1af78:	e1a05003 	mov	r5, r3
   1af7c:	e1a0c002 	mov	ip, r2
   1af80:	e24cc004 	sub	ip, ip, #4
   1af84:	e35c0003 	cmp	ip, #3
   1af88:	e4854004 	str	r4, [r5], #4
   1af8c:	8afffffb 	bhi	1af80 <memset+0xa4>
   1af90:	e242c004 	sub	ip, r2, #4
   1af94:	e3ccc003 	bic	ip, ip, #3
   1af98:	e28cc004 	add	ip, ip, #4
   1af9c:	e083300c 	add	r3, r3, ip
   1afa0:	e2022003 	and	r2, r2, #3
   1afa4:	e3520000 	cmp	r2, #0
   1afa8:	120110ff 	andne	r1, r1, #255	; 0xff
   1afac:	10832002 	addne	r2, r3, r2
   1afb0:	0a000002 	beq	1afc0 <memset+0xe4>
   1afb4:	e4c31001 	strb	r1, [r3], #1
   1afb8:	e1530002 	cmp	r3, r2
   1afbc:	1afffffc 	bne	1afb4 <memset+0xd8>
   1afc0:	e8bd0070 	pop	{r4, r5, r6}
   1afc4:	e12fff1e 	bx	lr
   1afc8:	e1a03000 	mov	r3, r0
   1afcc:	eaffffd1 	b	1af18 <memset+0x3c>

0001afd0 <validate_structure>:
   1afd0:	e92d41f0 	push	{r4, r5, r6, r7, r8, lr}
   1afd4:	e5901000 	ldr	r1, [r0]
   1afd8:	e351003b 	cmp	r1, #59	; 0x3b
   1afdc:	e24dd008 	sub	sp, sp, #8
   1afe0:	e1a04000 	mov	r4, r0
   1afe4:	8a000082 	bhi	1b1f4 <validate_structure+0x224>
   1afe8:	e5901004 	ldr	r1, [r0, #4]
   1afec:	e351003b 	cmp	r1, #59	; 0x3b
   1aff0:	8a00008e 	bhi	1b230 <validate_structure+0x260>
   1aff4:	e5941008 	ldr	r1, [r4, #8]
   1aff8:	e3510017 	cmp	r1, #23
   1affc:	8a00009b 	bhi	1b270 <validate_structure+0x2a0>
   1b000:	e594c010 	ldr	ip, [r4, #16]
   1b004:	e35c000b 	cmp	ip, #11
   1b008:	8a00006a 	bhi	1b1b8 <validate_structure+0x1e8>
   1b00c:	e5943014 	ldr	r3, [r4, #20]
   1b010:	e3130003 	tst	r3, #3
   1b014:	13a0501c 	movne	r5, #28
   1b018:	1a000008 	bne	1b040 <validate_structure+0x70>
   1b01c:	e59f12e4 	ldr	r1, [pc, #740]	; 1b308 <validate_structure+0x338>
   1b020:	e0c02391 	smull	r2, r0, r1, r3
   1b024:	e1a02fc3 	asr	r2, r3, #31
   1b028:	e06222c0 	rsb	r2, r2, r0, asr #5
   1b02c:	e0822102 	add	r2, r2, r2, lsl #2
   1b030:	e0822102 	add	r2, r2, r2, lsl #2
   1b034:	e1530102 	cmp	r3, r2, lsl #2
   1b038:	13a0501d 	movne	r5, #29
   1b03c:	0a000031 	beq	1b108 <validate_structure+0x138>
   1b040:	e594200c 	ldr	r2, [r4, #12]
   1b044:	e3520000 	cmp	r2, #0
   1b048:	e59f62bc 	ldr	r6, [pc, #700]	; 1b30c <validate_structure+0x33c>
   1b04c:	da00003b 	ble	1b140 <validate_structure+0x170>
   1b050:	e59f82b0 	ldr	r8, [pc, #688]	; 1b308 <validate_structure+0x338>
   1b054:	e3a07000 	mov	r7, #0
   1b058:	e28c3001 	add	r3, ip, #1
   1b05c:	e3a01000 	mov	r1, #0
   1b060:	e086c10c 	add	ip, r6, ip, lsl #2
   1b064:	ea000009 	b	1b090 <validate_structure+0xc0>
   1b068:	e79c0001 	ldr	r0, [ip, r1]
   1b06c:	e1500002 	cmp	r0, r2
   1b070:	e0602002 	rsb	r2, r0, r2
   1b074:	aa00000f 	bge	1b0b8 <validate_structure+0xe8>
   1b078:	e353000c 	cmp	r3, #12
   1b07c:	e584200c 	str	r2, [r4, #12]
   1b080:	e5843010 	str	r3, [r4, #16]
   1b084:	0a00000e 	beq	1b0c4 <validate_structure+0xf4>
   1b088:	e2833001 	add	r3, r3, #1
   1b08c:	e2811004 	add	r1, r1, #4
   1b090:	e3530002 	cmp	r3, #2
   1b094:	1afffff3 	bne	1b068 <validate_structure+0x98>
   1b098:	e1550002 	cmp	r5, r2
   1b09c:	aa000005 	bge	1b0b8 <validate_structure+0xe8>
   1b0a0:	e0652002 	rsb	r2, r5, r2
   1b0a4:	e584200c 	str	r2, [r4, #12]
   1b0a8:	e5843010 	str	r3, [r4, #16]
   1b0ac:	eafffff5 	b	1b088 <validate_structure+0xb8>
   1b0b0:	e5843010 	str	r3, [r4, #16]
   1b0b4:	e584200c 	str	r2, [r4, #12]
   1b0b8:	e28dd008 	add	sp, sp, #8
   1b0bc:	e8bd41f0 	pop	{r4, r5, r6, r7, r8, lr}
   1b0c0:	e12fff1e 	bx	lr
   1b0c4:	e5941014 	ldr	r1, [r4, #20]
   1b0c8:	e2813001 	add	r3, r1, #1
   1b0cc:	e3130003 	tst	r3, #3
   1b0d0:	e5847010 	str	r7, [r4, #16]
   1b0d4:	e5843014 	str	r3, [r4, #20]
   1b0d8:	13a0501c 	movne	r5, #28
   1b0dc:	1a000007 	bne	1b100 <validate_structure+0x130>
   1b0e0:	e0cc0398 	smull	r0, ip, r8, r3
   1b0e4:	e1a00fc3 	asr	r0, r3, #31
   1b0e8:	e06002cc 	rsb	r0, r0, ip, asr #5
   1b0ec:	e0800100 	add	r0, r0, r0, lsl #2
   1b0f0:	e0800100 	add	r0, r0, r0, lsl #2
   1b0f4:	e1530100 	cmp	r3, r0, lsl #2
   1b0f8:	13a0501d 	movne	r5, #29
   1b0fc:	0a000075 	beq	1b2d8 <validate_structure+0x308>
   1b100:	e3a0c000 	mov	ip, #0
   1b104:	eaffffd3 	b	1b058 <validate_structure+0x88>
   1b108:	e2833e76 	add	r3, r3, #1888	; 0x760
   1b10c:	e283300c 	add	r3, r3, #12
   1b110:	e0c10193 	smull	r0, r1, r3, r1
   1b114:	e1a02fc3 	asr	r2, r3, #31
   1b118:	e06223c1 	rsb	r2, r2, r1, asr #7
   1b11c:	e0822102 	add	r2, r2, r2, lsl #2
   1b120:	e0822102 	add	r2, r2, r2, lsl #2
   1b124:	e1530202 	cmp	r3, r2, lsl #4
   1b128:	e594200c 	ldr	r2, [r4, #12]
   1b12c:	03a0501d 	moveq	r5, #29
   1b130:	13a0501c 	movne	r5, #28
   1b134:	e3520000 	cmp	r2, #0
   1b138:	e59f61cc 	ldr	r6, [pc, #460]	; 1b30c <validate_structure+0x33c>
   1b13c:	caffffc3 	bgt	1b050 <validate_structure+0x80>
   1b140:	e59f71c0 	ldr	r7, [pc, #448]	; 1b308 <validate_structure+0x338>
   1b144:	e1a0100c 	mov	r1, ip
   1b148:	ea000008 	b	1b170 <validate_structure+0x1a0>
   1b14c:	e3530001 	cmp	r3, #1
   1b150:	01a00005 	moveq	r0, r5
   1b154:	01a01003 	moveq	r1, r3
   1b158:	0a000001 	beq	1b164 <validate_structure+0x194>
   1b15c:	e7960103 	ldr	r0, [r6, r3, lsl #2]
   1b160:	e1a01003 	mov	r1, r3
   1b164:	e0822000 	add	r2, r2, r0
   1b168:	e3520000 	cmp	r2, #0
   1b16c:	caffffcf 	bgt	1b0b0 <validate_structure+0xe0>
   1b170:	e2513001 	subs	r3, r1, #1
   1b174:	2afffff4 	bcs	1b14c <validate_structure+0x17c>
   1b178:	e5941014 	ldr	r1, [r4, #20]
   1b17c:	e2413001 	sub	r3, r1, #1
   1b180:	e3130003 	tst	r3, #3
   1b184:	e5843014 	str	r3, [r4, #20]
   1b188:	13a0501c 	movne	r5, #28
   1b18c:	1a000007 	bne	1b1b0 <validate_structure+0x1e0>
   1b190:	e0cc0397 	smull	r0, ip, r7, r3
   1b194:	e1a00fc3 	asr	r0, r3, #31
   1b198:	e06002cc 	rsb	r0, r0, ip, asr #5
   1b19c:	e0800100 	add	r0, r0, r0, lsl #2
   1b1a0:	e0800100 	add	r0, r0, r0, lsl #2
   1b1a4:	e1530100 	cmp	r3, r0, lsl #2
   1b1a8:	13a0501d 	movne	r5, #29
   1b1ac:	0a00003d 	beq	1b2a8 <validate_structure+0x2d8>
   1b1b0:	e3a0300b 	mov	r3, #11
   1b1b4:	eaffffe8 	b	1b15c <validate_structure+0x18c>
   1b1b8:	e1a0100c 	mov	r1, ip
   1b1bc:	e3a0200c 	mov	r2, #12
   1b1c0:	e1a0000d 	mov	r0, sp
   1b1c4:	eb00036b 	bl	1bf78 <div>
   1b1c8:	e89d1008 	ldm	sp, {r3, ip}
   1b1cc:	e5942014 	ldr	r2, [r4, #20]
   1b1d0:	e35c0000 	cmp	ip, #0
   1b1d4:	e0823003 	add	r3, r2, r3
   1b1d8:	e5843014 	str	r3, [r4, #20]
   1b1dc:	b28cc00c 	addlt	ip, ip, #12
   1b1e0:	b2433001 	sublt	r3, r3, #1
   1b1e4:	a584c010 	strge	ip, [r4, #16]
   1b1e8:	b584c010 	strlt	ip, [r4, #16]
   1b1ec:	b5843014 	strlt	r3, [r4, #20]
   1b1f0:	eaffff86 	b	1b010 <validate_structure+0x40>
   1b1f4:	e3a0203c 	mov	r2, #60	; 0x3c
   1b1f8:	e1a0000d 	mov	r0, sp
   1b1fc:	eb00035d 	bl	1bf78 <div>
   1b200:	e89d000c 	ldm	sp, {r2, r3}
   1b204:	e5941004 	ldr	r1, [r4, #4]
   1b208:	e3530000 	cmp	r3, #0
   1b20c:	e0811002 	add	r1, r1, r2
   1b210:	e5841004 	str	r1, [r4, #4]
   1b214:	b283303c 	addlt	r3, r3, #60	; 0x3c
   1b218:	b2411001 	sublt	r1, r1, #1
   1b21c:	a5843000 	strge	r3, [r4]
   1b220:	b5843000 	strlt	r3, [r4]
   1b224:	b5841004 	strlt	r1, [r4, #4]
   1b228:	e351003b 	cmp	r1, #59	; 0x3b
   1b22c:	9affff70 	bls	1aff4 <validate_structure+0x24>
   1b230:	e3a0203c 	mov	r2, #60	; 0x3c
   1b234:	e1a0000d 	mov	r0, sp
   1b238:	eb00034e 	bl	1bf78 <div>
   1b23c:	e59d3004 	ldr	r3, [sp, #4]
   1b240:	e5942008 	ldr	r2, [r4, #8]
   1b244:	e59d1000 	ldr	r1, [sp]
   1b248:	e3530000 	cmp	r3, #0
   1b24c:	e0811002 	add	r1, r1, r2
   1b250:	e5841008 	str	r1, [r4, #8]
   1b254:	b283303c 	addlt	r3, r3, #60	; 0x3c
   1b258:	b2411001 	sublt	r1, r1, #1
   1b25c:	a5843004 	strge	r3, [r4, #4]
   1b260:	b5843004 	strlt	r3, [r4, #4]
   1b264:	b5841008 	strlt	r1, [r4, #8]
   1b268:	e3510017 	cmp	r1, #23
   1b26c:	9affff63 	bls	1b000 <validate_structure+0x30>
   1b270:	e3a02018 	mov	r2, #24
   1b274:	e1a0000d 	mov	r0, sp
   1b278:	eb00033e 	bl	1bf78 <div>
   1b27c:	e89d000c 	ldm	sp, {r2, r3}
   1b280:	e594100c 	ldr	r1, [r4, #12]
   1b284:	e3530000 	cmp	r3, #0
   1b288:	e0812002 	add	r2, r1, r2
   1b28c:	e584200c 	str	r2, [r4, #12]
   1b290:	b2833018 	addlt	r3, r3, #24
   1b294:	b2422001 	sublt	r2, r2, #1
   1b298:	a5843008 	strge	r3, [r4, #8]
   1b29c:	b5843008 	strlt	r3, [r4, #8]
   1b2a0:	b584200c 	strlt	r2, [r4, #12]
   1b2a4:	eaffff55 	b	1b000 <validate_structure+0x30>
   1b2a8:	e2813e76 	add	r3, r1, #1888	; 0x760
   1b2ac:	e283300b 	add	r3, r3, #11
   1b2b0:	e0c01397 	smull	r1, r0, r7, r3
   1b2b4:	e1a01fc3 	asr	r1, r3, #31
   1b2b8:	e06113c0 	rsb	r1, r1, r0, asr #7
   1b2bc:	e0811101 	add	r1, r1, r1, lsl #2
   1b2c0:	e0811101 	add	r1, r1, r1, lsl #2
   1b2c4:	e1530201 	cmp	r3, r1, lsl #4
   1b2c8:	03a0501d 	moveq	r5, #29
   1b2cc:	13a0501c 	movne	r5, #28
   1b2d0:	e3a0300b 	mov	r3, #11
   1b2d4:	eaffffa0 	b	1b15c <validate_structure+0x18c>
   1b2d8:	e2813e76 	add	r3, r1, #1888	; 0x760
   1b2dc:	e283300d 	add	r3, r3, #13
   1b2e0:	e0c01398 	smull	r1, r0, r8, r3
   1b2e4:	e1a01fc3 	asr	r1, r3, #31
   1b2e8:	e06113c0 	rsb	r1, r1, r0, asr #7
   1b2ec:	e0811101 	add	r1, r1, r1, lsl #2
   1b2f0:	e0811101 	add	r1, r1, r1, lsl #2
   1b2f4:	e1530201 	cmp	r3, r1, lsl #4
   1b2f8:	03a0501d 	moveq	r5, #29
   1b2fc:	13a0501c 	movne	r5, #28
   1b300:	e3a0c000 	mov	ip, #0
   1b304:	eaffff53 	b	1b058 <validate_structure+0x88>
   1b308:	51eb851f 	mvnpl	r8, pc, lsl r5
   1b30c:	0001e900 	andeq	lr, r1, r0, lsl #18

0001b310 <mktime>:
   1b310:	e92d47f0 	push	{r4, r5, r6, r7, r8, r9, sl, lr}
   1b314:	e1a06000 	mov	r6, r0
   1b318:	eb00040a 	bl	1c348 <__gettzinfo>
   1b31c:	e1a07000 	mov	r7, r0
   1b320:	e1a00006 	mov	r0, r6
   1b324:	ebffff29 	bl	1afd0 <validate_structure>
   1b328:	e9960006 	ldmib	r6, {r1, r2}
   1b32c:	e5963010 	ldr	r3, [r6, #16]
   1b330:	e59f0488 	ldr	r0, [pc, #1160]	; 1b7c0 <mktime+0x4b0>
   1b334:	e5965000 	ldr	r5, [r6]
   1b338:	e596400c 	ldr	r4, [r6, #12]
   1b33c:	e790c103 	ldr	ip, [r0, r3, lsl #2]
   1b340:	e0611201 	rsb	r1, r1, r1, lsl #4
   1b344:	e0622202 	rsb	r2, r2, r2, lsl #4
   1b348:	e0851101 	add	r1, r5, r1, lsl #2
   1b34c:	e0622202 	rsb	r2, r2, r2, lsl #4
   1b350:	e2444001 	sub	r4, r4, #1
   1b354:	e3530001 	cmp	r3, #1
   1b358:	e5965014 	ldr	r5, [r6, #20]
   1b35c:	e0810202 	add	r0, r1, r2, lsl #4
   1b360:	e084400c 	add	r4, r4, ip
   1b364:	da000001 	ble	1b370 <mktime+0x60>
   1b368:	e3150003 	tst	r5, #3
   1b36c:	0a000083 	beq	1b580 <mktime+0x270>
   1b370:	e2852c27 	add	r2, r5, #9984	; 0x2700
   1b374:	e59f3448 	ldr	r3, [pc, #1096]	; 1b7c4 <mktime+0x4b4>
   1b378:	e2822010 	add	r2, r2, #16
   1b37c:	e1520003 	cmp	r2, r3
   1b380:	e586401c 	str	r4, [r6, #28]
   1b384:	8a0000bb 	bhi	1b678 <mktime+0x368>
   1b388:	e3550046 	cmp	r5, #70	; 0x46
   1b38c:	ca00005d 	bgt	1b508 <mktime+0x1f8>
   1b390:	0a000034 	beq	1b468 <mktime+0x158>
   1b394:	e3550045 	cmp	r5, #69	; 0x45
   1b398:	0a000030 	beq	1b460 <mktime+0x150>
   1b39c:	e59fe424 	ldr	lr, [pc, #1060]	; 1b7c8 <mktime+0x4b8>
   1b3a0:	e59f1424 	ldr	r1, [pc, #1060]	; 1b7cc <mktime+0x4bc>
   1b3a4:	e59fc424 	ldr	ip, [pc, #1060]	; 1b7d0 <mktime+0x4c0>
   1b3a8:	e3a03045 	mov	r3, #69	; 0x45
   1b3ac:	e3130003 	tst	r3, #3
   1b3b0:	e1a02fc3 	asr	r2, r3, #31
   1b3b4:	159f240c 	ldrne	r2, [pc, #1036]	; 1b7c8 <mktime+0x4b8>
   1b3b8:	1a000010 	bne	1b400 <mktime+0xf0>
   1b3bc:	e0c89391 	smull	r9, r8, r1, r3
   1b3c0:	e06222c8 	rsb	r2, r2, r8, asr #5
   1b3c4:	e0822102 	add	r2, r2, r2, lsl #2
   1b3c8:	e0822102 	add	r2, r2, r2, lsl #2
   1b3cc:	e1530102 	cmp	r3, r2, lsl #2
   1b3d0:	159f23f8 	ldrne	r2, [pc, #1016]	; 1b7d0 <mktime+0x4c0>
   1b3d4:	1a000009 	bne	1b400 <mktime+0xf0>
   1b3d8:	e2832e76 	add	r2, r3, #1888	; 0x760
   1b3dc:	e282200c 	add	r2, r2, #12
   1b3e0:	e0c98291 	smull	r8, r9, r1, r2
   1b3e4:	e1a08fc2 	asr	r8, r2, #31
   1b3e8:	e06883c9 	rsb	r8, r8, r9, asr #7
   1b3ec:	e0888108 	add	r8, r8, r8, lsl #2
   1b3f0:	e0888108 	add	r8, r8, r8, lsl #2
   1b3f4:	e1520208 	cmp	r2, r8, lsl #4
   1b3f8:	01a0200c 	moveq	r2, ip
   1b3fc:	11a0200e 	movne	r2, lr
   1b400:	e2433001 	sub	r3, r3, #1
   1b404:	e1530005 	cmp	r3, r5
   1b408:	e0624004 	rsb	r4, r2, r4
   1b40c:	1affffe6 	bne	1b3ac <mktime+0x9c>
   1b410:	e3150003 	tst	r5, #3
   1b414:	e2851001 	add	r1, r5, #1
   1b418:	1a000010 	bne	1b460 <mktime+0x150>
   1b41c:	e59f23a8 	ldr	r2, [pc, #936]	; 1b7cc <mktime+0x4bc>
   1b420:	e0cc9592 	smull	r9, ip, r2, r5
   1b424:	e1a03fc5 	asr	r3, r5, #31
   1b428:	e06332cc 	rsb	r3, r3, ip, asr #5
   1b42c:	e0833103 	add	r3, r3, r3, lsl #2
   1b430:	e0833103 	add	r3, r3, r3, lsl #2
   1b434:	e1550103 	cmp	r5, r3, lsl #2
   1b438:	1a000085 	bne	1b654 <mktime+0x344>
   1b43c:	e2813e76 	add	r3, r1, #1888	; 0x760
   1b440:	e283300b 	add	r3, r3, #11
   1b444:	e0c21293 	smull	r1, r2, r3, r2
   1b448:	e1a01fc3 	asr	r1, r3, #31
   1b44c:	e06123c2 	rsb	r2, r1, r2, asr #7
   1b450:	e0822102 	add	r2, r2, r2, lsl #2
   1b454:	e0822102 	add	r2, r2, r2, lsl #2
   1b458:	e1530202 	cmp	r3, r2, lsl #4
   1b45c:	0a00007c 	beq	1b654 <mktime+0x344>
   1b460:	e59f3360 	ldr	r3, [pc, #864]	; 1b7c8 <mktime+0x4b8>
   1b464:	e0634004 	rsb	r4, r3, r4
   1b468:	e0848084 	add	r8, r4, r4, lsl #1
   1b46c:	e0688208 	rsb	r8, r8, r8, lsl #4
   1b470:	e0688208 	rsb	r8, r8, r8, lsl #4
   1b474:	e0808388 	add	r8, r0, r8, lsl #7
   1b478:	eb0002bc 	bl	1bf70 <__tz_lock>
   1b47c:	e59f3350 	ldr	r3, [pc, #848]	; 1b7d4 <mktime+0x4c4>
   1b480:	e5939000 	ldr	r9, [r3]
   1b484:	e3590000 	cmp	r9, #0
   1b488:	0a000064 	beq	1b620 <mktime+0x310>
   1b48c:	e5960014 	ldr	r0, [r6, #20]
   1b490:	e5969020 	ldr	r9, [r6, #32]
   1b494:	e2800e76 	add	r0, r0, #1888	; 0x760
   1b498:	e5973004 	ldr	r3, [r7, #4]
   1b49c:	e280000c 	add	r0, r0, #12
   1b4a0:	e3590001 	cmp	r9, #1
   1b4a4:	a3a09001 	movge	r9, #1
   1b4a8:	e1530000 	cmp	r3, r0
   1b4ac:	0a00003d 	beq	1b5a8 <mktime+0x298>
   1b4b0:	eb0000c9 	bl	1b7dc <__tzcalc_limits>
   1b4b4:	e3500000 	cmp	r0, #0
   1b4b8:	1a00003a 	bne	1b5a8 <mktime+0x298>
   1b4bc:	e3590001 	cmp	r9, #1
   1b4c0:	1a000056 	bne	1b620 <mktime+0x310>
   1b4c4:	e597003c 	ldr	r0, [r7, #60]	; 0x3c
   1b4c8:	e0888000 	add	r8, r8, r0
   1b4cc:	eb0002a8 	bl	1bf74 <__tz_unlock>
   1b4d0:	e59f3300 	ldr	r3, [pc, #768]	; 1b7d8 <mktime+0x4c8>
   1b4d4:	e2844004 	add	r4, r4, #4
   1b4d8:	e0c31394 	smull	r1, r3, r4, r3
   1b4dc:	e1a02fc4 	asr	r2, r4, #31
   1b4e0:	e0833004 	add	r3, r3, r4
   1b4e4:	e0623143 	rsb	r3, r2, r3, asr #2
   1b4e8:	e0633183 	rsb	r3, r3, r3, lsl #3
   1b4ec:	e0543003 	subs	r3, r4, r3
   1b4f0:	42833007 	addmi	r3, r3, #7
   1b4f4:	e5869020 	str	r9, [r6, #32]
   1b4f8:	e5863018 	str	r3, [r6, #24]
   1b4fc:	e1a00008 	mov	r0, r8
   1b500:	e8bd47f0 	pop	{r4, r5, r6, r7, r8, r9, sl, lr}
   1b504:	e12fff1e 	bx	lr
   1b508:	e59fe2b8 	ldr	lr, [pc, #696]	; 1b7c8 <mktime+0x4b8>
   1b50c:	e59f12b8 	ldr	r1, [pc, #696]	; 1b7cc <mktime+0x4bc>
   1b510:	e59fc2b8 	ldr	ip, [pc, #696]	; 1b7d0 <mktime+0x4c0>
   1b514:	e3a03046 	mov	r3, #70	; 0x46
   1b518:	e3130003 	tst	r3, #3
   1b51c:	e1a02fc3 	asr	r2, r3, #31
   1b520:	159f22a0 	ldrne	r2, [pc, #672]	; 1b7c8 <mktime+0x4b8>
   1b524:	1a000010 	bne	1b56c <mktime+0x25c>
   1b528:	e0c89391 	smull	r9, r8, r1, r3
   1b52c:	e06222c8 	rsb	r2, r2, r8, asr #5
   1b530:	e0822102 	add	r2, r2, r2, lsl #2
   1b534:	e0822102 	add	r2, r2, r2, lsl #2
   1b538:	e1530102 	cmp	r3, r2, lsl #2
   1b53c:	159f228c 	ldrne	r2, [pc, #652]	; 1b7d0 <mktime+0x4c0>
   1b540:	1a000009 	bne	1b56c <mktime+0x25c>
   1b544:	e2832e76 	add	r2, r3, #1888	; 0x760
   1b548:	e282200c 	add	r2, r2, #12
   1b54c:	e0c98291 	smull	r8, r9, r1, r2
   1b550:	e1a08fc2 	asr	r8, r2, #31
   1b554:	e06883c9 	rsb	r8, r8, r9, asr #7
   1b558:	e0888108 	add	r8, r8, r8, lsl #2
   1b55c:	e0888108 	add	r8, r8, r8, lsl #2
   1b560:	e1520208 	cmp	r2, r8, lsl #4
   1b564:	01a0200c 	moveq	r2, ip
   1b568:	11a0200e 	movne	r2, lr
   1b56c:	e2833001 	add	r3, r3, #1
   1b570:	e1530005 	cmp	r3, r5
   1b574:	e0844002 	add	r4, r4, r2
   1b578:	1affffe6 	bne	1b518 <mktime+0x208>
   1b57c:	eaffffb9 	b	1b468 <mktime+0x158>
   1b580:	e59f2244 	ldr	r2, [pc, #580]	; 1b7cc <mktime+0x4bc>
   1b584:	e0c13592 	smull	r3, r1, r2, r5
   1b588:	e1a03fc5 	asr	r3, r5, #31
   1b58c:	e06332c1 	rsb	r3, r3, r1, asr #5
   1b590:	e0833103 	add	r3, r3, r3, lsl #2
   1b594:	e0833103 	add	r3, r3, r3, lsl #2
   1b598:	e1550103 	cmp	r5, r3, lsl #2
   1b59c:	0a000022 	beq	1b62c <mktime+0x31c>
   1b5a0:	e2844001 	add	r4, r4, #1
   1b5a4:	eaffff71 	b	1b370 <mktime+0x60>
   1b5a8:	e5973038 	ldr	r3, [r7, #56]	; 0x38
   1b5ac:	e597203c 	ldr	r2, [r7, #60]	; 0x3c
   1b5b0:	e5971020 	ldr	r1, [r7, #32]
   1b5b4:	e0620003 	rsb	r0, r2, r3
   1b5b8:	e1580000 	cmp	r8, r0
   1b5bc:	e0613003 	rsb	r3, r1, r3
   1b5c0:	a3a00000 	movge	r0, #0
   1b5c4:	b3a00001 	movlt	r0, #1
   1b5c8:	e1580003 	cmp	r8, r3
   1b5cc:	b3a00000 	movlt	r0, #0
   1b5d0:	e3500000 	cmp	r0, #0
   1b5d4:	e597001c 	ldr	r0, [r7, #28]
   1b5d8:	1affffb7 	bne	1b4bc <mktime+0x1ac>
   1b5dc:	e597c000 	ldr	ip, [r7]
   1b5e0:	e35c0000 	cmp	ip, #0
   1b5e4:	e0620000 	rsb	r0, r2, r0
   1b5e8:	0a00001b 	beq	1b65c <mktime+0x34c>
   1b5ec:	e1580003 	cmp	r8, r3
   1b5f0:	a3a0a000 	movge	sl, #0
   1b5f4:	b3a0a001 	movlt	sl, #1
   1b5f8:	e1580000 	cmp	r8, r0
   1b5fc:	b3a0a000 	movlt	sl, #0
   1b600:	e3590000 	cmp	r9, #0
   1b604:	ba000002 	blt	1b614 <mktime+0x304>
   1b608:	e02a9009 	eor	r9, sl, r9
   1b60c:	e3590001 	cmp	r9, #1
   1b610:	0a00001a 	beq	1b680 <mktime+0x370>
   1b614:	e1a0900a 	mov	r9, sl
   1b618:	e3590001 	cmp	r9, #1
   1b61c:	0affffa8 	beq	1b4c4 <mktime+0x1b4>
   1b620:	e5970020 	ldr	r0, [r7, #32]
   1b624:	e0888000 	add	r8, r8, r0
   1b628:	eaffffa7 	b	1b4cc <mktime+0x1bc>
   1b62c:	e2853e76 	add	r3, r5, #1888	; 0x760
   1b630:	e283300c 	add	r3, r3, #12
   1b634:	e0c28293 	smull	r8, r2, r3, r2
   1b638:	e1a01fc3 	asr	r1, r3, #31
   1b63c:	e06123c2 	rsb	r2, r1, r2, asr #7
   1b640:	e0822102 	add	r2, r2, r2, lsl #2
   1b644:	e0822102 	add	r2, r2, r2, lsl #2
   1b648:	e1530202 	cmp	r3, r2, lsl #4
   1b64c:	1affff47 	bne	1b370 <mktime+0x60>
   1b650:	eaffffd2 	b	1b5a0 <mktime+0x290>
   1b654:	e59f3174 	ldr	r3, [pc, #372]	; 1b7d0 <mktime+0x4c0>
   1b658:	eaffff81 	b	1b464 <mktime+0x154>
   1b65c:	e1580000 	cmp	r8, r0
   1b660:	b3a00000 	movlt	r0, #0
   1b664:	a3a00001 	movge	r0, #1
   1b668:	e1580003 	cmp	r8, r3
   1b66c:	a1a0a000 	movge	sl, r0
   1b670:	b380a001 	orrlt	sl, r0, #1
   1b674:	eaffffe1 	b	1b600 <mktime+0x2f0>
   1b678:	e3e00000 	mvn	r0, #0
   1b67c:	eaffff9f 	b	1b500 <mktime+0x1f0>
   1b680:	e0622001 	rsb	r2, r2, r1
   1b684:	e35a0000 	cmp	sl, #0
   1b688:	e5963000 	ldr	r3, [r6]
   1b68c:	02622000 	rsbeq	r2, r2, #0
   1b690:	e0833002 	add	r3, r3, r2
   1b694:	e5863000 	str	r3, [r6]
   1b698:	e1a00006 	mov	r0, r6
   1b69c:	e596900c 	ldr	r9, [r6, #12]
   1b6a0:	e0888002 	add	r8, r8, r2
   1b6a4:	ebfffe49 	bl	1afd0 <validate_structure>
   1b6a8:	e596300c 	ldr	r3, [r6, #12]
   1b6ac:	e0533009 	subs	r3, r3, r9
   1b6b0:	0affffd7 	beq	1b614 <mktime+0x304>
   1b6b4:	e3530001 	cmp	r3, #1
   1b6b8:	c3e03000 	mvngt	r3, #0
   1b6bc:	da00003c 	ble	1b7b4 <mktime+0x4a4>
   1b6c0:	e596201c 	ldr	r2, [r6, #28]
   1b6c4:	e0932002 	adds	r2, r3, r2
   1b6c8:	e0844003 	add	r4, r4, r3
   1b6cc:	4a00001f 	bmi	1b750 <mktime+0x440>
   1b6d0:	e3150003 	tst	r5, #3
   1b6d4:	159f30ec 	ldrne	r3, [pc, #236]	; 1b7c8 <mktime+0x4b8>
   1b6d8:	1a000014 	bne	1b730 <mktime+0x420>
   1b6dc:	e59f30e8 	ldr	r3, [pc, #232]	; 1b7cc <mktime+0x4bc>
   1b6e0:	e0c09593 	smull	r9, r0, r3, r5
   1b6e4:	e1a01fc5 	asr	r1, r5, #31
   1b6e8:	e06112c0 	rsb	r1, r1, r0, asr #5
   1b6ec:	e0811101 	add	r1, r1, r1, lsl #2
   1b6f0:	e0811101 	add	r1, r1, r1, lsl #2
   1b6f4:	e1550101 	cmp	r5, r1, lsl #2
   1b6f8:	159f30d0 	ldrne	r3, [pc, #208]	; 1b7d0 <mktime+0x4c0>
   1b6fc:	1a00000b 	bne	1b730 <mktime+0x420>
   1b700:	e2851e76 	add	r1, r5, #1888	; 0x760
   1b704:	e281100c 	add	r1, r1, #12
   1b708:	e0c30391 	smull	r0, r3, r1, r3
   1b70c:	e1a00fc1 	asr	r0, r1, #31
   1b710:	e06033c3 	rsb	r3, r0, r3, asr #7
   1b714:	e0833103 	add	r3, r3, r3, lsl #2
   1b718:	e0833103 	add	r3, r3, r3, lsl #2
   1b71c:	e59fc0ac 	ldr	ip, [pc, #172]	; 1b7d0 <mktime+0x4c0>
   1b720:	e59f00a0 	ldr	r0, [pc, #160]	; 1b7c8 <mktime+0x4b8>
   1b724:	e1510203 	cmp	r1, r3, lsl #4
   1b728:	01a0300c 	moveq	r3, ip
   1b72c:	11a03000 	movne	r3, r0
   1b730:	e1530002 	cmp	r3, r2
   1b734:	c586201c 	strgt	r2, [r6, #28]
   1b738:	c1a0900a 	movgt	r9, sl
   1b73c:	caffff5e 	bgt	1b4bc <mktime+0x1ac>
   1b740:	e0633002 	rsb	r3, r3, r2
   1b744:	e586301c 	str	r3, [r6, #28]
   1b748:	e1a0900a 	mov	r9, sl
   1b74c:	eaffff5a 	b	1b4bc <mktime+0x1ac>
   1b750:	e2453001 	sub	r3, r5, #1
   1b754:	e3130003 	tst	r3, #3
   1b758:	13a03f5b 	movne	r3, #364	; 0x16c
   1b75c:	1afffff8 	bne	1b744 <mktime+0x434>
   1b760:	e59f1064 	ldr	r1, [pc, #100]	; 1b7cc <mktime+0x4bc>
   1b764:	e0c02391 	smull	r2, r0, r1, r3
   1b768:	e1a02fc3 	asr	r2, r3, #31
   1b76c:	e06222c0 	rsb	r2, r2, r0, asr #5
   1b770:	e0822102 	add	r2, r2, r2, lsl #2
   1b774:	e0822102 	add	r2, r2, r2, lsl #2
   1b778:	e1530102 	cmp	r3, r2, lsl #2
   1b77c:	159f3044 	ldrne	r3, [pc, #68]	; 1b7c8 <mktime+0x4b8>
   1b780:	1affffef 	bne	1b744 <mktime+0x434>
   1b784:	e2852e76 	add	r2, r5, #1888	; 0x760
   1b788:	e282200b 	add	r2, r2, #11
   1b78c:	e0c13192 	smull	r3, r1, r2, r1
   1b790:	e1a03fc2 	asr	r3, r2, #31
   1b794:	e06333c1 	rsb	r3, r3, r1, asr #7
   1b798:	e0833103 	add	r3, r3, r3, lsl #2
   1b79c:	e0833103 	add	r3, r3, r3, lsl #2
   1b7a0:	e59f1020 	ldr	r1, [pc, #32]	; 1b7c8 <mktime+0x4b8>
   1b7a4:	e1520203 	cmp	r2, r3, lsl #4
   1b7a8:	01a03001 	moveq	r3, r1
   1b7ac:	13a03f5b 	movne	r3, #364	; 0x16c
   1b7b0:	eaffffe3 	b	1b744 <mktime+0x434>
   1b7b4:	e3730001 	cmn	r3, #1
   1b7b8:	b3a03001 	movlt	r3, #1
   1b7bc:	eaffffbf 	b	1b6c0 <mktime+0x3b0>
   1b7c0:	0001e8d0 	ldrdeq	lr, [r1], -r0
   1b7c4:	00004e20 	andeq	r4, r0, r0, lsr #28
   1b7c8:	0000016d 	andeq	r0, r0, sp, ror #2
   1b7cc:	51eb851f 	mvnpl	r8, pc, lsl r5
   1b7d0:	0000016e 	andeq	r0, r0, lr, ror #2
   1b7d4:	000218c4 	andeq	r1, r2, r4, asr #17
   1b7d8:	92492493 	subls	r2, r9, #-1828716544	; 0x93000000

0001b7dc <__tzcalc_limits>:
   1b7dc:	e92d4ff8 	push	{r3, r4, r5, r6, r7, r8, r9, sl, fp, lr}
   1b7e0:	e1a04000 	mov	r4, r0
   1b7e4:	eb0002d7 	bl	1c348 <__gettzinfo>
   1b7e8:	e59f321c 	ldr	r3, [pc, #540]	; 1ba0c <__tzcalc_limits+0x230>
   1b7ec:	e1540003 	cmp	r4, r3
   1b7f0:	e1a06000 	mov	r6, r0
   1b7f4:	d3a00000 	movle	r0, #0
   1b7f8:	da000064 	ble	1b990 <__tzcalc_limits+0x1b4>
   1b7fc:	e59f220c 	ldr	r2, [pc, #524]	; 1ba10 <__tzcalc_limits+0x234>
   1b800:	e244ce76 	sub	ip, r4, #1888	; 0x760
   1b804:	e0c71492 	smull	r1, r7, r2, r4
   1b808:	e24cc00d 	sub	ip, ip, #13
   1b80c:	e2443d19 	sub	r3, r4, #1600	; 0x640
   1b810:	e0c81c92 	smull	r1, r8, r2, ip
   1b814:	e2433001 	sub	r3, r3, #1
   1b818:	e0c51392 	smull	r1, r5, r2, r3
   1b81c:	e2449e7b 	sub	r9, r4, #1968	; 0x7b0
   1b820:	e2492002 	sub	r2, r9, #2
   1b824:	e1a00fc4 	asr	r0, r4, #31
   1b828:	e0821182 	add	r1, r2, r2, lsl #3
   1b82c:	e0822181 	add	r2, r2, r1, lsl #3
   1b830:	e06013c7 	rsb	r1, r0, r7, asr #7
   1b834:	e1a0cfcc 	asr	ip, ip, #31
   1b838:	e06072c7 	rsb	r7, r0, r7, asr #5
   1b83c:	e2499001 	sub	r9, r9, #1
   1b840:	e0822102 	add	r2, r2, r2, lsl #2
   1b844:	e0811101 	add	r1, r1, r1, lsl #2
   1b848:	e04c82c8 	sub	r8, ip, r8, asr #5
   1b84c:	e0829149 	add	r9, r2, r9, asr #2
   1b850:	e1a03fc3 	asr	r3, r3, #31
   1b854:	e0811101 	add	r1, r1, r1, lsl #2
   1b858:	e0877107 	add	r7, r7, r7, lsl #2
   1b85c:	e06353c5 	rsb	r5, r3, r5, asr #7
   1b860:	e0899008 	add	r9, r9, r8
   1b864:	e1540201 	cmp	r4, r1, lsl #4
   1b868:	e0877107 	add	r7, r7, r7, lsl #2
   1b86c:	e5864004 	str	r4, [r6, #4]
   1b870:	e0899005 	add	r9, r9, r5
   1b874:	e0447107 	sub	r7, r4, r7, lsl #2
   1b878:	e2040003 	and	r0, r4, #3
   1b87c:	13a0a000 	movne	sl, #0
   1b880:	03a0a001 	moveq	sl, #1
   1b884:	e1a0c006 	mov	ip, r6
   1b888:	e3a05000 	mov	r5, #0
   1b88c:	e5dc3008 	ldrb	r3, [ip, #8]
   1b890:	e353004a 	cmp	r3, #74	; 0x4a
   1b894:	0a000043 	beq	1b9a8 <__tzcalc_limits+0x1cc>
   1b898:	e3530044 	cmp	r3, #68	; 0x44
   1b89c:	0a000054 	beq	1b9f4 <__tzcalc_limits+0x218>
   1b8a0:	e3500000 	cmp	r0, #0
   1b8a4:	11a0300a 	movne	r3, sl
   1b8a8:	0a00003a 	beq	1b998 <__tzcalc_limits+0x1bc>
   1b8ac:	e1a08083 	lsl	r8, r3, #1
   1b8b0:	e59cb00c 	ldr	fp, [ip, #12]
   1b8b4:	e0888003 	add	r8, r8, r3
   1b8b8:	e59f3154 	ldr	r3, [pc, #340]	; 1ba14 <__tzcalc_limits+0x238>
   1b8bc:	e35b0001 	cmp	fp, #1
   1b8c0:	e0838208 	add	r8, r3, r8, lsl #4
   1b8c4:	da00004d 	ble	1ba00 <__tzcalc_limits+0x224>
   1b8c8:	e1a0b10b 	lsl	fp, fp, #2
   1b8cc:	e2484008 	sub	r4, r8, #8
   1b8d0:	e084400b 	add	r4, r4, fp
   1b8d4:	e2482004 	sub	r2, r8, #4
   1b8d8:	e1a01009 	mov	r1, r9
   1b8dc:	e5b23004 	ldr	r3, [r2, #4]!
   1b8e0:	e1520004 	cmp	r2, r4
   1b8e4:	e0811003 	add	r1, r1, r3
   1b8e8:	1afffffb 	bne	1b8dc <__tzcalc_limits+0x100>
   1b8ec:	e24bb004 	sub	fp, fp, #4
   1b8f0:	e59f3120 	ldr	r3, [pc, #288]	; 1ba18 <__tzcalc_limits+0x23c>
   1b8f4:	e2812004 	add	r2, r1, #4
   1b8f8:	e0c34392 	smull	r4, r3, r2, r3
   1b8fc:	e1a04fc2 	asr	r4, r2, #31
   1b900:	e0833002 	add	r3, r3, r2
   1b904:	e0643143 	rsb	r3, r4, r3, asr #2
   1b908:	e0634183 	rsb	r4, r3, r3, lsl #3
   1b90c:	e0642002 	rsb	r2, r4, r2
   1b910:	e59c3014 	ldr	r3, [ip, #20]
   1b914:	e59c4010 	ldr	r4, [ip, #16]
   1b918:	e0533002 	subs	r3, r3, r2
   1b91c:	e2444001 	sub	r4, r4, #1
   1b920:	42833007 	addmi	r3, r3, #7
   1b924:	e798200b 	ldr	r2, [r8, fp]
   1b928:	e0644184 	rsb	r4, r4, r4, lsl #3
   1b92c:	e0843003 	add	r3, r4, r3
   1b930:	e1530002 	cmp	r3, r2
   1b934:	ba000002 	blt	1b944 <__tzcalc_limits+0x168>
   1b938:	e2433007 	sub	r3, r3, #7
   1b93c:	e1530002 	cmp	r3, r2
   1b940:	aafffffc 	bge	1b938 <__tzcalc_limits+0x15c>
   1b944:	e0813003 	add	r3, r1, r3
   1b948:	e0833083 	add	r3, r3, r3, lsl #1
   1b94c:	e59c4018 	ldr	r4, [ip, #24]
   1b950:	e0633203 	rsb	r3, r3, r3, lsl #4
   1b954:	e59c2020 	ldr	r2, [ip, #32]
   1b958:	e0633203 	rsb	r3, r3, r3, lsl #4
   1b95c:	e2855001 	add	r5, r5, #1
   1b960:	e0843383 	add	r3, r4, r3, lsl #7
   1b964:	e0833002 	add	r3, r3, r2
   1b968:	e3550002 	cmp	r5, #2
   1b96c:	e5ac301c 	str	r3, [ip, #28]!
   1b970:	1affffc5 	bne	1b88c <__tzcalc_limits+0xb0>
   1b974:	e5963038 	ldr	r3, [r6, #56]	; 0x38
   1b978:	e596201c 	ldr	r2, [r6, #28]
   1b97c:	e1520003 	cmp	r2, r3
   1b980:	a3a03000 	movge	r3, #0
   1b984:	b3a03001 	movlt	r3, #1
   1b988:	e5863000 	str	r3, [r6]
   1b98c:	e3a00001 	mov	r0, #1
   1b990:	e8bd4ff8 	pop	{r3, r4, r5, r6, r7, r8, r9, sl, fp, lr}
   1b994:	e12fff1e 	bx	lr
   1b998:	e3570000 	cmp	r7, #0
   1b99c:	01a0300a 	moveq	r3, sl
   1b9a0:	13a03001 	movne	r3, #1
   1b9a4:	eaffffc0 	b	1b8ac <__tzcalc_limits+0xd0>
   1b9a8:	e59c2014 	ldr	r2, [ip, #20]
   1b9ac:	e3500000 	cmp	r0, #0
   1b9b0:	e0823009 	add	r3, r2, r9
   1b9b4:	1a000007 	bne	1b9d8 <__tzcalc_limits+0x1fc>
   1b9b8:	e3570000 	cmp	r7, #0
   1b9bc:	0a000005 	beq	1b9d8 <__tzcalc_limits+0x1fc>
   1b9c0:	e352003b 	cmp	r2, #59	; 0x3b
   1b9c4:	d3a02000 	movle	r2, #0
   1b9c8:	c3a02001 	movgt	r2, #1
   1b9cc:	e0833002 	add	r3, r3, r2
   1b9d0:	e2433001 	sub	r3, r3, #1
   1b9d4:	eaffffdb 	b	1b948 <__tzcalc_limits+0x16c>
   1b9d8:	e35a0000 	cmp	sl, #0
   1b9dc:	01a0200a 	moveq	r2, sl
   1b9e0:	0afffff9 	beq	1b9cc <__tzcalc_limits+0x1f0>
   1b9e4:	e352003b 	cmp	r2, #59	; 0x3b
   1b9e8:	d3a02000 	movle	r2, #0
   1b9ec:	c3a02001 	movgt	r2, #1
   1b9f0:	eafffff5 	b	1b9cc <__tzcalc_limits+0x1f0>
   1b9f4:	e59c3014 	ldr	r3, [ip, #20]
   1b9f8:	e0893003 	add	r3, r9, r3
   1b9fc:	eaffffd1 	b	1b948 <__tzcalc_limits+0x16c>
   1ba00:	e1a01009 	mov	r1, r9
   1ba04:	e3a0b000 	mov	fp, #0
   1ba08:	eaffffb8 	b	1b8f0 <__tzcalc_limits+0x114>
   1ba0c:	000007b1 			; <UNDEFINED> instruction: 0x000007b1
   1ba10:	51eb851f 	mvnpl	r8, pc, lsl r5
   1ba14:	0001e930 	andeq	lr, r1, r0, lsr r9
   1ba18:	92492493 	subls	r2, r9, #-1828716544	; 0x93000000

0001ba1c <_mktm_r>:
   1ba1c:	e92d47f0 	push	{r4, r5, r6, r7, r8, r9, sl, lr}
   1ba20:	e1a06001 	mov	r6, r1
   1ba24:	e1a08000 	mov	r8, r0
   1ba28:	e1a07002 	mov	r7, r2
   1ba2c:	eb000245 	bl	1c348 <__gettzinfo>
   1ba30:	e5982000 	ldr	r2, [r8]
   1ba34:	e59f34c0 	ldr	r3, [pc, #1216]	; 1befc <_mktm_r+0x4e0>
   1ba38:	e1a09000 	mov	r9, r0
   1ba3c:	e0c30392 	smull	r0, r3, r2, r3
   1ba40:	e1a01fc2 	asr	r1, r2, #31
   1ba44:	e0833002 	add	r3, r3, r2
   1ba48:	e0613843 	rsb	r3, r1, r3, asr #16
   1ba4c:	e0831083 	add	r1, r3, r3, lsl #1
   1ba50:	e0611201 	rsb	r1, r1, r1, lsl #4
   1ba54:	e0611201 	rsb	r1, r1, r1, lsl #4
   1ba58:	e0521381 	subs	r1, r2, r1, lsl #7
   1ba5c:	42811a15 	addmi	r1, r1, #86016	; 0x15000
   1ba60:	e59f4498 	ldr	r4, [pc, #1176]	; 1bf00 <_mktm_r+0x4e4>
   1ba64:	42811d06 	addmi	r1, r1, #384	; 0x180
   1ba68:	e0c42491 	smull	r2, r4, r1, r4
   1ba6c:	e1a02fc1 	asr	r2, r1, #31
   1ba70:	e0844001 	add	r4, r4, r1
   1ba74:	e06245c4 	rsb	r4, r2, r4, asr #11
   1ba78:	e0642204 	rsb	r2, r4, r4, lsl #4
   1ba7c:	42433001 	submi	r3, r3, #1
   1ba80:	e0622202 	rsb	r2, r2, r2, lsl #4
   1ba84:	e59f0478 	ldr	r0, [pc, #1144]	; 1bf04 <_mktm_r+0x4e8>
   1ba88:	e0411202 	sub	r1, r1, r2, lsl #4
   1ba8c:	e59fc474 	ldr	ip, [pc, #1140]	; 1bf08 <_mktm_r+0x4ec>
   1ba90:	e2832004 	add	r2, r3, #4
   1ba94:	e0c05092 	smull	r5, r0, r2, r0
   1ba98:	e0cc5c91 	smull	r5, ip, r1, ip
   1ba9c:	e0800002 	add	r0, r0, r2
   1baa0:	e1a05fc2 	asr	r5, r2, #31
   1baa4:	e08cc001 	add	ip, ip, r1
   1baa8:	e1a0afc1 	asr	sl, r1, #31
   1baac:	e0650140 	rsb	r0, r5, r0, asr #2
   1bab0:	e06ac2cc 	rsb	ip, sl, ip, asr #5
   1bab4:	e0600180 	rsb	r0, r0, r0, lsl #3
   1bab8:	e0520000 	subs	r0, r2, r0
   1babc:	e06c520c 	rsb	r5, ip, ip, lsl #4
   1bac0:	42800007 	addmi	r0, r0, #7
   1bac4:	e0411105 	sub	r1, r1, r5, lsl #2
   1bac8:	e3530000 	cmp	r3, #0
   1bacc:	e5864008 	str	r4, [r6, #8]
   1bad0:	e5860018 	str	r0, [r6, #24]
   1bad4:	e8861002 	stm	r6, {r1, ip}
   1bad8:	e59f442c 	ldr	r4, [pc, #1068]	; 1bf0c <_mktm_r+0x4f0>
   1badc:	e59f042c 	ldr	r0, [pc, #1068]	; 1bf10 <_mktm_r+0x4f4>
   1bae0:	e59f542c 	ldr	r5, [pc, #1068]	; 1bf14 <_mktm_r+0x4f8>
   1bae4:	aa000002 	bge	1baf4 <_mktm_r+0xd8>
   1bae8:	ea000034 	b	1bbc0 <_mktm_r+0x1a4>
   1baec:	e2844001 	add	r4, r4, #1
   1baf0:	e0613003 	rsb	r3, r1, r3
   1baf4:	e3140003 	tst	r4, #3
   1baf8:	e1a0cfc4 	asr	ip, r4, #31
   1bafc:	1a000006 	bne	1bb1c <_mktm_r+0x100>
   1bb00:	e0c21495 	smull	r1, r2, r5, r4
   1bb04:	e06c22c2 	rsb	r2, ip, r2, asr #5
   1bb08:	e0822102 	add	r2, r2, r2, lsl #2
   1bb0c:	e0822102 	add	r2, r2, r2, lsl #2
   1bb10:	e1540102 	cmp	r4, r2, lsl #2
   1bb14:	13a02001 	movne	r2, #1
   1bb18:	1a000006 	bne	1bb38 <_mktm_r+0x11c>
   1bb1c:	e0c21495 	smull	r1, r2, r5, r4
   1bb20:	e06cc3c2 	rsb	ip, ip, r2, asr #7
   1bb24:	e08cc10c 	add	ip, ip, ip, lsl #2
   1bb28:	e08cc10c 	add	ip, ip, ip, lsl #2
   1bb2c:	e154020c 	cmp	r4, ip, lsl #4
   1bb30:	13a02000 	movne	r2, #0
   1bb34:	03a02001 	moveq	r2, #1
   1bb38:	e7901102 	ldr	r1, [r0, r2, lsl #2]
   1bb3c:	e1530001 	cmp	r3, r1
   1bb40:	aaffffe9 	bge	1baec <_mktm_r+0xd0>
   1bb44:	e244ce76 	sub	ip, r4, #1888	; 0x760
   1bb48:	e24cc00c 	sub	ip, ip, #12
   1bb4c:	e3a01000 	mov	r1, #0
   1bb50:	e1a00082 	lsl	r0, r2, #1
   1bb54:	e5861010 	str	r1, [r6, #16]
   1bb58:	e586301c 	str	r3, [r6, #28]
   1bb5c:	e59f13b4 	ldr	r1, [pc, #948]	; 1bf18 <_mktm_r+0x4fc>
   1bb60:	e586c014 	str	ip, [r6, #20]
   1bb64:	e0802002 	add	r2, r0, r2
   1bb68:	e1a02202 	lsl	r2, r2, #4
   1bb6c:	e791c002 	ldr	ip, [r1, r2]
   1bb70:	e153000c 	cmp	r3, ip
   1bb74:	e081a002 	add	sl, r1, r2
   1bb78:	ba000007 	blt	1bb9c <_mktm_r+0x180>
   1bb7c:	e1a0100a 	mov	r1, sl
   1bb80:	e3a05001 	mov	r5, #1
   1bb84:	e5865010 	str	r5, [r6, #16]
   1bb88:	e06c3003 	rsb	r3, ip, r3
   1bb8c:	e5b1c004 	ldr	ip, [r1, #4]!
   1bb90:	e15c0003 	cmp	ip, r3
   1bb94:	e2855001 	add	r5, r5, #1
   1bb98:	dafffff9 	ble	1bb84 <_mktm_r+0x168>
   1bb9c:	e2833001 	add	r3, r3, #1
   1bba0:	e3570000 	cmp	r7, #0
   1bba4:	e586300c 	str	r3, [r6, #12]
   1bba8:	13a03000 	movne	r3, #0
   1bbac:	15863020 	strne	r3, [r6, #32]
   1bbb0:	0a000018 	beq	1bc18 <_mktm_r+0x1fc>
   1bbb4:	e1a00006 	mov	r0, r6
   1bbb8:	e8bd47f0 	pop	{r4, r5, r6, r7, r8, r9, sl, lr}
   1bbbc:	e12fff1e 	bx	lr
   1bbc0:	e2444001 	sub	r4, r4, #1
   1bbc4:	e3140003 	tst	r4, #3
   1bbc8:	e1a0cfc4 	asr	ip, r4, #31
   1bbcc:	1a000006 	bne	1bbec <_mktm_r+0x1d0>
   1bbd0:	e0c21495 	smull	r1, r2, r5, r4
   1bbd4:	e06c22c2 	rsb	r2, ip, r2, asr #5
   1bbd8:	e0822102 	add	r2, r2, r2, lsl #2
   1bbdc:	e0822102 	add	r2, r2, r2, lsl #2
   1bbe0:	e1540102 	cmp	r4, r2, lsl #2
   1bbe4:	13a02001 	movne	r2, #1
   1bbe8:	1a000006 	bne	1bc08 <_mktm_r+0x1ec>
   1bbec:	e0c21495 	smull	r1, r2, r5, r4
   1bbf0:	e06cc3c2 	rsb	ip, ip, r2, asr #7
   1bbf4:	e08cc10c 	add	ip, ip, ip, lsl #2
   1bbf8:	e08cc10c 	add	ip, ip, ip, lsl #2
   1bbfc:	e154020c 	cmp	r4, ip, lsl #4
   1bc00:	13a02000 	movne	r2, #0
   1bc04:	03a02001 	moveq	r2, #1
   1bc08:	e7901102 	ldr	r1, [r0, r2, lsl #2]
   1bc0c:	e0933001 	adds	r3, r3, r1
   1bc10:	4affffea 	bmi	1bbc0 <_mktm_r+0x1a4>
   1bc14:	eaffffca 	b	1bb44 <_mktm_r+0x128>
   1bc18:	eb0000d4 	bl	1bf70 <__tz_lock>
   1bc1c:	e59f32f8 	ldr	r3, [pc, #760]	; 1bf1c <_mktm_r+0x500>
   1bc20:	e5933000 	ldr	r3, [r3]
   1bc24:	e3530000 	cmp	r3, #0
   1bc28:	1a000047 	bne	1bd4c <_mktm_r+0x330>
   1bc2c:	e5867020 	str	r7, [r6, #32]
   1bc30:	e5991020 	ldr	r1, [r9, #32]
   1bc34:	e59f32c4 	ldr	r3, [pc, #708]	; 1bf00 <_mktm_r+0x4e4>
   1bc38:	e0c32391 	smull	r2, r3, r1, r3
   1bc3c:	e1a02fc1 	asr	r2, r1, #31
   1bc40:	e0833001 	add	r3, r3, r1
   1bc44:	e06235c3 	rsb	r3, r2, r3, asr #11
   1bc48:	e1a02003 	mov	r2, r3
   1bc4c:	e0633203 	rsb	r3, r3, r3, lsl #4
   1bc50:	e59f02b0 	ldr	r0, [pc, #688]	; 1bf08 <_mktm_r+0x4ec>
   1bc54:	e0633203 	rsb	r3, r3, r3, lsl #4
   1bc58:	e0413203 	sub	r3, r1, r3, lsl #4
   1bc5c:	e0c15390 	smull	r5, r1, r0, r3
   1bc60:	e1a00fc3 	asr	r0, r3, #31
   1bc64:	e0811003 	add	r1, r1, r3
   1bc68:	e06012c1 	rsb	r1, r0, r1, asr #5
   1bc6c:	e0610201 	rsb	r0, r1, r1, lsl #4
   1bc70:	e596e000 	ldr	lr, [r6]
   1bc74:	e596c008 	ldr	ip, [r6, #8]
   1bc78:	e0433100 	sub	r3, r3, r0, lsl #2
   1bc7c:	e5960004 	ldr	r0, [r6, #4]
   1bc80:	e063300e 	rsb	r3, r3, lr
   1bc84:	e062200c 	rsb	r2, r2, ip
   1bc88:	e0611000 	rsb	r1, r1, r0
   1bc8c:	e353003b 	cmp	r3, #59	; 0x3b
   1bc90:	e5862008 	str	r2, [r6, #8]
   1bc94:	e5863000 	str	r3, [r6]
   1bc98:	e5861004 	str	r1, [r6, #4]
   1bc9c:	da00003f 	ble	1bda0 <_mktm_r+0x384>
   1bca0:	e2811001 	add	r1, r1, #1
   1bca4:	e243303c 	sub	r3, r3, #60	; 0x3c
   1bca8:	e351003b 	cmp	r1, #59	; 0x3b
   1bcac:	e5861004 	str	r1, [r6, #4]
   1bcb0:	e5863000 	str	r3, [r6]
   1bcb4:	da000040 	ble	1bdbc <_mktm_r+0x3a0>
   1bcb8:	e2822001 	add	r2, r2, #1
   1bcbc:	e241103c 	sub	r1, r1, #60	; 0x3c
   1bcc0:	e3520017 	cmp	r2, #23
   1bcc4:	e9860006 	stmib	r6, {r1, r2}
   1bcc8:	da000041 	ble	1bdd4 <_mktm_r+0x3b8>
   1bccc:	e5963018 	ldr	r3, [r6, #24]
   1bcd0:	e2833001 	add	r3, r3, #1
   1bcd4:	e3530006 	cmp	r3, #6
   1bcd8:	c3a03000 	movgt	r3, #0
   1bcdc:	e596101c 	ldr	r1, [r6, #28]
   1bce0:	e5863018 	str	r3, [r6, #24]
   1bce4:	e596300c 	ldr	r3, [r6, #12]
   1bce8:	e2811001 	add	r1, r1, #1
   1bcec:	e2422018 	sub	r2, r2, #24
   1bcf0:	e2833001 	add	r3, r3, #1
   1bcf4:	e586101c 	str	r1, [r6, #28]
   1bcf8:	e5862008 	str	r2, [r6, #8]
   1bcfc:	e586300c 	str	r3, [r6, #12]
   1bd00:	e5961010 	ldr	r1, [r6, #16]
   1bd04:	e79a2101 	ldr	r2, [sl, r1, lsl #2]
   1bd08:	e1530002 	cmp	r3, r2
   1bd0c:	da00000a 	ble	1bd3c <_mktm_r+0x320>
   1bd10:	e2811001 	add	r1, r1, #1
   1bd14:	e351000c 	cmp	r1, #12
   1bd18:	e0623003 	rsb	r3, r2, r3
   1bd1c:	05962014 	ldreq	r2, [r6, #20]
   1bd20:	e586300c 	str	r3, [r6, #12]
   1bd24:	02822001 	addeq	r2, r2, #1
   1bd28:	03a03000 	moveq	r3, #0
   1bd2c:	15861010 	strne	r1, [r6, #16]
   1bd30:	05862014 	streq	r2, [r6, #20]
   1bd34:	05863010 	streq	r3, [r6, #16]
   1bd38:	0586301c 	streq	r3, [r6, #28]
   1bd3c:	eb00008c 	bl	1bf74 <__tz_unlock>
   1bd40:	e1a00006 	mov	r0, r6
   1bd44:	e8bd47f0 	pop	{r4, r5, r6, r7, r8, r9, sl, lr}
   1bd48:	e12fff1e 	bx	lr
   1bd4c:	e5993004 	ldr	r3, [r9, #4]
   1bd50:	e1530004 	cmp	r3, r4
   1bd54:	0a000003 	beq	1bd68 <_mktm_r+0x34c>
   1bd58:	e1a00004 	mov	r0, r4
   1bd5c:	ebfffe9e 	bl	1b7dc <__tzcalc_limits>
   1bd60:	e3500000 	cmp	r0, #0
   1bd64:	0a00003e 	beq	1be64 <_mktm_r+0x448>
   1bd68:	e5993000 	ldr	r3, [r9]
   1bd6c:	e3530000 	cmp	r3, #0
   1bd70:	0a00002f 	beq	1be34 <_mktm_r+0x418>
   1bd74:	e5983000 	ldr	r3, [r8]
   1bd78:	e599201c 	ldr	r2, [r9, #28]
   1bd7c:	e1530002 	cmp	r3, r2
   1bd80:	ba00003a 	blt	1be70 <_mktm_r+0x454>
   1bd84:	e5992038 	ldr	r2, [r9, #56]	; 0x38
   1bd88:	e1530002 	cmp	r3, r2
   1bd8c:	aa000037 	bge	1be70 <_mktm_r+0x454>
   1bd90:	e3a03001 	mov	r3, #1
   1bd94:	e5863020 	str	r3, [r6, #32]
   1bd98:	e599103c 	ldr	r1, [r9, #60]	; 0x3c
   1bd9c:	eaffffa4 	b	1bc34 <_mktm_r+0x218>
   1bda0:	e3530000 	cmp	r3, #0
   1bda4:	b2411001 	sublt	r1, r1, #1
   1bda8:	b283303c 	addlt	r3, r3, #60	; 0x3c
   1bdac:	b5861004 	strlt	r1, [r6, #4]
   1bdb0:	b5863000 	strlt	r3, [r6]
   1bdb4:	e351003b 	cmp	r1, #59	; 0x3b
   1bdb8:	caffffbe 	bgt	1bcb8 <_mktm_r+0x29c>
   1bdbc:	e3510000 	cmp	r1, #0
   1bdc0:	b2422001 	sublt	r2, r2, #1
   1bdc4:	b281103c 	addlt	r1, r1, #60	; 0x3c
   1bdc8:	b9860006 	stmiblt	r6, {r1, r2}
   1bdcc:	e3520017 	cmp	r2, #23
   1bdd0:	caffffbd 	bgt	1bccc <_mktm_r+0x2b0>
   1bdd4:	e3520000 	cmp	r2, #0
   1bdd8:	aaffffd7 	bge	1bd3c <_mktm_r+0x320>
   1bddc:	e5963018 	ldr	r3, [r6, #24]
   1bde0:	e2533001 	subs	r3, r3, #1
   1bde4:	43a03006 	movmi	r3, #6
   1bde8:	e5863018 	str	r3, [r6, #24]
   1bdec:	e596300c 	ldr	r3, [r6, #12]
   1bdf0:	e596101c 	ldr	r1, [r6, #28]
   1bdf4:	e2433001 	sub	r3, r3, #1
   1bdf8:	e2411001 	sub	r1, r1, #1
   1bdfc:	e2822018 	add	r2, r2, #24
   1be00:	e3530000 	cmp	r3, #0
   1be04:	e586101c 	str	r1, [r6, #28]
   1be08:	e5862008 	str	r2, [r6, #8]
   1be0c:	e586300c 	str	r3, [r6, #12]
   1be10:	1affffc9 	bne	1bd3c <_mktm_r+0x320>
   1be14:	e5963010 	ldr	r3, [r6, #16]
   1be18:	e2533001 	subs	r3, r3, #1
   1be1c:	4a000016 	bmi	1be7c <_mktm_r+0x460>
   1be20:	e5863010 	str	r3, [r6, #16]
   1be24:	e1a03103 	lsl	r3, r3, #2
   1be28:	e79a3003 	ldr	r3, [sl, r3]
   1be2c:	e586300c 	str	r3, [r6, #12]
   1be30:	eaffffc1 	b	1bd3c <_mktm_r+0x320>
   1be34:	e5983000 	ldr	r3, [r8]
   1be38:	e599201c 	ldr	r2, [r9, #28]
   1be3c:	e1530002 	cmp	r3, r2
   1be40:	aaffffd2 	bge	1bd90 <_mktm_r+0x374>
   1be44:	e5992038 	ldr	r2, [r9, #56]	; 0x38
   1be48:	e1530002 	cmp	r3, r2
   1be4c:	a3a03000 	movge	r3, #0
   1be50:	b3a03001 	movlt	r3, #1
   1be54:	e3530001 	cmp	r3, #1
   1be58:	e5863020 	str	r3, [r6, #32]
   1be5c:	0affffcd 	beq	1bd98 <_mktm_r+0x37c>
   1be60:	eaffff72 	b	1bc30 <_mktm_r+0x214>
   1be64:	e3e03000 	mvn	r3, #0
   1be68:	e5863020 	str	r3, [r6, #32]
   1be6c:	eaffff6f 	b	1bc30 <_mktm_r+0x214>
   1be70:	e3a03000 	mov	r3, #0
   1be74:	e5863020 	str	r3, [r6, #32]
   1be78:	eaffff6c 	b	1bc30 <_mktm_r+0x214>
   1be7c:	e5963014 	ldr	r3, [r6, #20]
   1be80:	e2432001 	sub	r2, r3, #1
   1be84:	e3120003 	tst	r2, #3
   1be88:	e2833e76 	add	r3, r3, #1888	; 0x760
   1be8c:	e3a0100b 	mov	r1, #11
   1be90:	10833001 	addne	r3, r3, r1
   1be94:	e5862014 	str	r2, [r6, #20]
   1be98:	e5861010 	str	r1, [r6, #16]
   1be9c:	11a02fc3 	asrne	r2, r3, #31
   1bea0:	1a000009 	bne	1becc <_mktm_r+0x4b0>
   1bea4:	e59f1068 	ldr	r1, [pc, #104]	; 1bf14 <_mktm_r+0x4f8>
   1bea8:	e283300b 	add	r3, r3, #11
   1beac:	e0c1c193 	smull	ip, r1, r3, r1
   1beb0:	e1a02fc3 	asr	r2, r3, #31
   1beb4:	e06212c1 	rsb	r1, r2, r1, asr #5
   1beb8:	e0811101 	add	r1, r1, r1, lsl #2
   1bebc:	e0811101 	add	r1, r1, r1, lsl #2
   1bec0:	e1530101 	cmp	r3, r1, lsl #2
   1bec4:	159f3054 	ldrne	r3, [pc, #84]	; 1bf20 <_mktm_r+0x504>
   1bec8:	1a000008 	bne	1bef0 <_mktm_r+0x4d4>
   1becc:	e59f1040 	ldr	r1, [pc, #64]	; 1bf14 <_mktm_r+0x4f8>
   1bed0:	e0c10193 	smull	r0, r1, r3, r1
   1bed4:	e06223c1 	rsb	r2, r2, r1, asr #7
   1bed8:	e0822102 	add	r2, r2, r2, lsl #2
   1bedc:	e0822102 	add	r2, r2, r2, lsl #2
   1bee0:	e1530202 	cmp	r3, r2, lsl #4
   1bee4:	13a03000 	movne	r3, #0
   1bee8:	03a03001 	moveq	r3, #1
   1beec:	e2833f5b 	add	r3, r3, #364	; 0x16c
   1bef0:	e586301c 	str	r3, [r6, #28]
   1bef4:	e3a0302c 	mov	r3, #44	; 0x2c
   1bef8:	eaffffca 	b	1be28 <_mktm_r+0x40c>
   1befc:	c22e4507 	eorgt	r4, lr, #29360128	; 0x1c00000
   1bf00:	91a2b3c5 			; <UNDEFINED> instruction: 0x91a2b3c5
   1bf04:	92492493 	subls	r2, r9, #-1828716544	; 0x93000000
   1bf08:	88888889 	stmhi	r8, {r0, r3, r7, fp, pc}
   1bf0c:	000007b2 			; <UNDEFINED> instruction: 0x000007b2
   1bf10:	0001e990 	muleq	r1, r0, r9
   1bf14:	51eb851f 	mvnpl	r8, pc, lsl r5
   1bf18:	0001e930 	andeq	lr, r1, r0, lsr r9
   1bf1c:	000218c4 	andeq	r1, r2, r4, asr #17
   1bf20:	0000016d 	andeq	r0, r0, sp, ror #2

0001bf24 <__malloc_lock>:
   1bf24:	e12fff1e 	bx	lr

0001bf28 <__malloc_unlock>:
   1bf28:	e12fff1e 	bx	lr

0001bf2c <_sbrk_r>:
   1bf2c:	e92d4038 	push	{r3, r4, r5, lr}
   1bf30:	e59f4034 	ldr	r4, [pc, #52]	; 1bf6c <_sbrk_r+0x40>
   1bf34:	e3a03000 	mov	r3, #0
   1bf38:	e1a05000 	mov	r5, r0
   1bf3c:	e1a00001 	mov	r0, r1
   1bf40:	e5843000 	str	r3, [r4]
   1bf44:	ebffbef5 	bl	bb20 <_sbrk>
   1bf48:	e3700001 	cmn	r0, #1
   1bf4c:	0a000001 	beq	1bf58 <_sbrk_r+0x2c>
   1bf50:	e8bd4038 	pop	{r3, r4, r5, lr}
   1bf54:	e12fff1e 	bx	lr
   1bf58:	e5943000 	ldr	r3, [r4]
   1bf5c:	e3530000 	cmp	r3, #0
   1bf60:	15853000 	strne	r3, [r5]
   1bf64:	e8bd4038 	pop	{r3, r4, r5, lr}
   1bf68:	e12fff1e 	bx	lr
   1bf6c:	00021ad4 	ldrdeq	r1, [r2], -r4

0001bf70 <__tz_lock>:
   1bf70:	e12fff1e 	bx	lr

0001bf74 <__tz_unlock>:
   1bf74:	e12fff1e 	bx	lr

0001bf78 <div>:
   1bf78:	e92d40f8 	push	{r3, r4, r5, r6, r7, lr}
   1bf7c:	e1a04001 	mov	r4, r1
   1bf80:	e1a05000 	mov	r5, r0
   1bf84:	e1a01002 	mov	r1, r2
   1bf88:	e1a00004 	mov	r0, r4
   1bf8c:	e1a06002 	mov	r6, r2
   1bf90:	eb000181 	bl	1c59c <__aeabi_idiv>
   1bf94:	e1a01006 	mov	r1, r6
   1bf98:	e1a07000 	mov	r7, r0
   1bf9c:	e1a00004 	mov	r0, r4
   1bfa0:	eb0001c7 	bl	1c6c4 <__aeabi_idivmod>
   1bfa4:	e3540000 	cmp	r4, #0
   1bfa8:	ba000007 	blt	1bfcc <div+0x54>
   1bfac:	e3510000 	cmp	r1, #0
   1bfb0:	b2877001 	addlt	r7, r7, #1
   1bfb4:	b0661001 	rsblt	r1, r6, r1
   1bfb8:	e1a00005 	mov	r0, r5
   1bfbc:	e5857000 	str	r7, [r5]
   1bfc0:	e5851004 	str	r1, [r5, #4]
   1bfc4:	e8bd40f8 	pop	{r3, r4, r5, r6, r7, lr}
   1bfc8:	e12fff1e 	bx	lr
   1bfcc:	e3510000 	cmp	r1, #0
   1bfd0:	c2477001 	subgt	r7, r7, #1
   1bfd4:	c0811006 	addgt	r1, r1, r6
   1bfd8:	eafffff6 	b	1bfb8 <div+0x40>

0001bfdc <_malloc_trim_r>:
   1bfdc:	e92d40f8 	push	{r3, r4, r5, r6, r7, lr}
   1bfe0:	e59f50e8 	ldr	r5, [pc, #232]	; 1c0d0 <_malloc_trim_r+0xf4>
   1bfe4:	e1a07001 	mov	r7, r1
   1bfe8:	e1a04000 	mov	r4, r0
   1bfec:	ebffffcc 	bl	1bf24 <__malloc_lock>
   1bff0:	e5953008 	ldr	r3, [r5, #8]
   1bff4:	e5936004 	ldr	r6, [r3, #4]
   1bff8:	e3c66003 	bic	r6, r6, #3
   1bffc:	e0677006 	rsb	r7, r7, r6
   1c000:	e2877efe 	add	r7, r7, #4064	; 0xfe0
   1c004:	e287700f 	add	r7, r7, #15
   1c008:	e1a07627 	lsr	r7, r7, #12
   1c00c:	e2477001 	sub	r7, r7, #1
   1c010:	e1a07607 	lsl	r7, r7, #12
   1c014:	e3570a01 	cmp	r7, #4096	; 0x1000
   1c018:	ba000006 	blt	1c038 <_malloc_trim_r+0x5c>
   1c01c:	e1a00004 	mov	r0, r4
   1c020:	e3a01000 	mov	r1, #0
   1c024:	ebffffc0 	bl	1bf2c <_sbrk_r>
   1c028:	e5953008 	ldr	r3, [r5, #8]
   1c02c:	e0833006 	add	r3, r3, r6
   1c030:	e1500003 	cmp	r0, r3
   1c034:	0a000004 	beq	1c04c <_malloc_trim_r+0x70>
   1c038:	e1a00004 	mov	r0, r4
   1c03c:	ebffffb9 	bl	1bf28 <__malloc_unlock>
   1c040:	e3a00000 	mov	r0, #0
   1c044:	e8bd40f8 	pop	{r3, r4, r5, r6, r7, lr}
   1c048:	e12fff1e 	bx	lr
   1c04c:	e1a00004 	mov	r0, r4
   1c050:	e2671000 	rsb	r1, r7, #0
   1c054:	ebffffb4 	bl	1bf2c <_sbrk_r>
   1c058:	e3700001 	cmn	r0, #1
   1c05c:	0a00000c 	beq	1c094 <_malloc_trim_r+0xb8>
   1c060:	e59f306c 	ldr	r3, [pc, #108]	; 1c0d4 <_malloc_trim_r+0xf8>
   1c064:	e5951008 	ldr	r1, [r5, #8]
   1c068:	e5932000 	ldr	r2, [r3]
   1c06c:	e0676006 	rsb	r6, r7, r6
   1c070:	e3866001 	orr	r6, r6, #1
   1c074:	e1a00004 	mov	r0, r4
   1c078:	e0677002 	rsb	r7, r7, r2
   1c07c:	e5816004 	str	r6, [r1, #4]
   1c080:	e5837000 	str	r7, [r3]
   1c084:	ebffffa7 	bl	1bf28 <__malloc_unlock>
   1c088:	e3a00001 	mov	r0, #1
   1c08c:	e8bd40f8 	pop	{r3, r4, r5, r6, r7, lr}
   1c090:	e12fff1e 	bx	lr
   1c094:	e1a00004 	mov	r0, r4
   1c098:	e3a01000 	mov	r1, #0
   1c09c:	ebffffa2 	bl	1bf2c <_sbrk_r>
   1c0a0:	e5953008 	ldr	r3, [r5, #8]
   1c0a4:	e0632000 	rsb	r2, r3, r0
   1c0a8:	e352000f 	cmp	r2, #15
   1c0ac:	daffffe1 	ble	1c038 <_malloc_trim_r+0x5c>
   1c0b0:	e59f1020 	ldr	r1, [pc, #32]	; 1c0d8 <_malloc_trim_r+0xfc>
   1c0b4:	e591c000 	ldr	ip, [r1]
   1c0b8:	e59f1014 	ldr	r1, [pc, #20]	; 1c0d4 <_malloc_trim_r+0xf8>
   1c0bc:	e3822001 	orr	r2, r2, #1
   1c0c0:	e06c0000 	rsb	r0, ip, r0
   1c0c4:	e5832004 	str	r2, [r3, #4]
   1c0c8:	e5810000 	str	r0, [r1]
   1c0cc:	eaffffd9 	b	1c038 <_malloc_trim_r+0x5c>
   1c0d0:	0001ee14 	andeq	lr, r1, r4, lsl lr
   1c0d4:	0002189c 	muleq	r2, ip, r8
   1c0d8:	0001f220 	andeq	pc, r1, r0, lsr #4

0001c0dc <_free_r>:
   1c0dc:	e92d40f8 	push	{r3, r4, r5, r6, r7, lr}
   1c0e0:	e2514000 	subs	r4, r1, #0
   1c0e4:	e1a06000 	mov	r6, r0
   1c0e8:	0a000046 	beq	1c208 <_free_r+0x12c>
   1c0ec:	ebffff8c 	bl	1bf24 <__malloc_lock>
   1c0f0:	e514e004 	ldr	lr, [r4, #-4]
   1c0f4:	e59f1238 	ldr	r1, [pc, #568]	; 1c334 <_free_r+0x258>
   1c0f8:	e3ce3001 	bic	r3, lr, #1
   1c0fc:	e244c008 	sub	ip, r4, #8
   1c100:	e08c2003 	add	r2, ip, r3
   1c104:	e5910008 	ldr	r0, [r1, #8]
   1c108:	e5925004 	ldr	r5, [r2, #4]
   1c10c:	e1500002 	cmp	r0, r2
   1c110:	e3c55003 	bic	r5, r5, #3
   1c114:	0a00004a 	beq	1c244 <_free_r+0x168>
   1c118:	e21ee001 	ands	lr, lr, #1
   1c11c:	e5825004 	str	r5, [r2, #4]
   1c120:	13a0e000 	movne	lr, #0
   1c124:	1a000009 	bne	1c150 <_free_r+0x74>
   1c128:	e5144008 	ldr	r4, [r4, #-8]
   1c12c:	e064c00c 	rsb	ip, r4, ip
   1c130:	e59c0008 	ldr	r0, [ip, #8]
   1c134:	e2817008 	add	r7, r1, #8
   1c138:	e1500007 	cmp	r0, r7
   1c13c:	e0833004 	add	r3, r3, r4
   1c140:	159c400c 	ldrne	r4, [ip, #12]
   1c144:	1580400c 	strne	r4, [r0, #12]
   1c148:	15840008 	strne	r0, [r4, #8]
   1c14c:	03a0e001 	moveq	lr, #1
   1c150:	e0820005 	add	r0, r2, r5
   1c154:	e5900004 	ldr	r0, [r0, #4]
   1c158:	e3100001 	tst	r0, #1
   1c15c:	1a000009 	bne	1c188 <_free_r+0xac>
   1c160:	e35e0000 	cmp	lr, #0
   1c164:	e5920008 	ldr	r0, [r2, #8]
   1c168:	e0833005 	add	r3, r3, r5
   1c16c:	1a000002 	bne	1c17c <_free_r+0xa0>
   1c170:	e59f41c0 	ldr	r4, [pc, #448]	; 1c338 <_free_r+0x25c>
   1c174:	e1500004 	cmp	r0, r4
   1c178:	0a000047 	beq	1c29c <_free_r+0x1c0>
   1c17c:	e592200c 	ldr	r2, [r2, #12]
   1c180:	e580200c 	str	r2, [r0, #12]
   1c184:	e5820008 	str	r0, [r2, #8]
   1c188:	e3832001 	orr	r2, r3, #1
   1c18c:	e35e0000 	cmp	lr, #0
   1c190:	e58c2004 	str	r2, [ip, #4]
   1c194:	e78c3003 	str	r3, [ip, r3]
   1c198:	1a000018 	bne	1c200 <_free_r+0x124>
   1c19c:	e3530c02 	cmp	r3, #512	; 0x200
   1c1a0:	3a00001a 	bcc	1c210 <_free_r+0x134>
   1c1a4:	e1a024a3 	lsr	r2, r3, #9
   1c1a8:	e3520004 	cmp	r2, #4
   1c1ac:	8a000042 	bhi	1c2bc <_free_r+0x1e0>
   1c1b0:	e1a0e323 	lsr	lr, r3, #6
   1c1b4:	e28ee038 	add	lr, lr, #56	; 0x38
   1c1b8:	e1a0008e 	lsl	r0, lr, #1
   1c1bc:	e0810100 	add	r0, r1, r0, lsl #2
   1c1c0:	e5902008 	ldr	r2, [r0, #8]
   1c1c4:	e1520000 	cmp	r2, r0
   1c1c8:	e59f1164 	ldr	r1, [pc, #356]	; 1c334 <_free_r+0x258>
   1c1cc:	0a000044 	beq	1c2e4 <_free_r+0x208>
   1c1d0:	e5921004 	ldr	r1, [r2, #4]
   1c1d4:	e3c11003 	bic	r1, r1, #3
   1c1d8:	e1530001 	cmp	r3, r1
   1c1dc:	2a000002 	bcs	1c1ec <_free_r+0x110>
   1c1e0:	e5922008 	ldr	r2, [r2, #8]
   1c1e4:	e1500002 	cmp	r0, r2
   1c1e8:	1afffff8 	bne	1c1d0 <_free_r+0xf4>
   1c1ec:	e592300c 	ldr	r3, [r2, #12]
   1c1f0:	e58c300c 	str	r3, [ip, #12]
   1c1f4:	e58c2008 	str	r2, [ip, #8]
   1c1f8:	e583c008 	str	ip, [r3, #8]
   1c1fc:	e582c00c 	str	ip, [r2, #12]
   1c200:	e1a00006 	mov	r0, r6
   1c204:	ebffff47 	bl	1bf28 <__malloc_unlock>
   1c208:	e8bd40f8 	pop	{r3, r4, r5, r6, r7, lr}
   1c20c:	e12fff1e 	bx	lr
   1c210:	e5912004 	ldr	r2, [r1, #4]
   1c214:	e1a031a3 	lsr	r3, r3, #3
   1c218:	e1a00143 	asr	r0, r3, #2
   1c21c:	e3a0e001 	mov	lr, #1
   1c220:	e182001e 	orr	r0, r2, lr, lsl r0
   1c224:	e0813183 	add	r3, r1, r3, lsl #3
   1c228:	e5932008 	ldr	r2, [r3, #8]
   1c22c:	e5810004 	str	r0, [r1, #4]
   1c230:	e58c2008 	str	r2, [ip, #8]
   1c234:	e58c300c 	str	r3, [ip, #12]
   1c238:	e583c008 	str	ip, [r3, #8]
   1c23c:	e582c00c 	str	ip, [r2, #12]
   1c240:	eaffffee 	b	1c200 <_free_r+0x124>
   1c244:	e31e0001 	tst	lr, #1
   1c248:	e0853003 	add	r3, r5, r3
   1c24c:	1a000006 	bne	1c26c <_free_r+0x190>
   1c250:	e5142008 	ldr	r2, [r4, #-8]
   1c254:	e062c00c 	rsb	ip, r2, ip
   1c258:	e59c000c 	ldr	r0, [ip, #12]
   1c25c:	e59ce008 	ldr	lr, [ip, #8]
   1c260:	e58e000c 	str	r0, [lr, #12]
   1c264:	e580e008 	str	lr, [r0, #8]
   1c268:	e0833002 	add	r3, r3, r2
   1c26c:	e59f20c8 	ldr	r2, [pc, #200]	; 1c33c <_free_r+0x260>
   1c270:	e5920000 	ldr	r0, [r2]
   1c274:	e3832001 	orr	r2, r3, #1
   1c278:	e1530000 	cmp	r3, r0
   1c27c:	e58c2004 	str	r2, [ip, #4]
   1c280:	e581c008 	str	ip, [r1, #8]
   1c284:	3affffdd 	bcc	1c200 <_free_r+0x124>
   1c288:	e59f30b0 	ldr	r3, [pc, #176]	; 1c340 <_free_r+0x264>
   1c28c:	e1a00006 	mov	r0, r6
   1c290:	e5931000 	ldr	r1, [r3]
   1c294:	ebffff50 	bl	1bfdc <_malloc_trim_r>
   1c298:	eaffffd8 	b	1c200 <_free_r+0x124>
   1c29c:	e3832001 	orr	r2, r3, #1
   1c2a0:	e581c014 	str	ip, [r1, #20]
   1c2a4:	e581c010 	str	ip, [r1, #16]
   1c2a8:	e58c000c 	str	r0, [ip, #12]
   1c2ac:	e58c0008 	str	r0, [ip, #8]
   1c2b0:	e58c2004 	str	r2, [ip, #4]
   1c2b4:	e78c3003 	str	r3, [ip, r3]
   1c2b8:	eaffffd0 	b	1c200 <_free_r+0x124>
   1c2bc:	e3520014 	cmp	r2, #20
   1c2c0:	9282e05b 	addls	lr, r2, #91	; 0x5b
   1c2c4:	91a0008e 	lslls	r0, lr, #1
   1c2c8:	9affffbb 	bls	1c1bc <_free_r+0xe0>
   1c2cc:	e3520054 	cmp	r2, #84	; 0x54
   1c2d0:	8a00000a 	bhi	1c300 <_free_r+0x224>
   1c2d4:	e1a0e623 	lsr	lr, r3, #12
   1c2d8:	e28ee06e 	add	lr, lr, #110	; 0x6e
   1c2dc:	e1a0008e 	lsl	r0, lr, #1
   1c2e0:	eaffffb5 	b	1c1bc <_free_r+0xe0>
   1c2e4:	e5913004 	ldr	r3, [r1, #4]
   1c2e8:	e1a0e14e 	asr	lr, lr, #2
   1c2ec:	e3a00001 	mov	r0, #1
   1c2f0:	e1830e10 	orr	r0, r3, r0, lsl lr
   1c2f4:	e1a03002 	mov	r3, r2
   1c2f8:	e5810004 	str	r0, [r1, #4]
   1c2fc:	eaffffbb 	b	1c1f0 <_free_r+0x114>
   1c300:	e3520f55 	cmp	r2, #340	; 0x154
   1c304:	91a0e7a3 	lsrls	lr, r3, #15
   1c308:	928ee077 	addls	lr, lr, #119	; 0x77
   1c30c:	91a0008e 	lslls	r0, lr, #1
   1c310:	9affffa9 	bls	1c1bc <_free_r+0xe0>
   1c314:	e59f0028 	ldr	r0, [pc, #40]	; 1c344 <_free_r+0x268>
   1c318:	e1520000 	cmp	r2, r0
   1c31c:	91a0e923 	lsrls	lr, r3, #18
   1c320:	928ee07c 	addls	lr, lr, #124	; 0x7c
   1c324:	91a0008e 	lslls	r0, lr, #1
   1c328:	83a000fc 	movhi	r0, #252	; 0xfc
   1c32c:	83a0e07e 	movhi	lr, #126	; 0x7e
   1c330:	eaffffa1 	b	1c1bc <_free_r+0xe0>
   1c334:	0001ee14 	andeq	lr, r1, r4, lsl lr
   1c338:	0001ee1c 	andeq	lr, r1, ip, lsl lr
   1c33c:	0001f21c 	andeq	pc, r1, ip, lsl r2	; <UNPREDICTABLE>
   1c340:	00021898 	muleq	r2, r8, r8
   1c344:	00000554 	andeq	r0, r0, r4, asr r5

0001c348 <__gettzinfo>:
   1c348:	e59f0000 	ldr	r0, [pc]	; 1c350 <__gettzinfo+0x8>
   1c34c:	e12fff1e 	bx	lr
   1c350:	0001f22c 	andeq	pc, r1, ip, lsr #4

0001c354 <cleanup_glue>:
   1c354:	e92d4038 	push	{r3, r4, r5, lr}
   1c358:	e1a04001 	mov	r4, r1
   1c35c:	e5911000 	ldr	r1, [r1]
   1c360:	e3510000 	cmp	r1, #0
   1c364:	e1a05000 	mov	r5, r0
   1c368:	1bfffff9 	blne	1c354 <cleanup_glue>
   1c36c:	e1a00005 	mov	r0, r5
   1c370:	e1a01004 	mov	r1, r4
   1c374:	ebffff58 	bl	1c0dc <_free_r>
   1c378:	e8bd4038 	pop	{r3, r4, r5, lr}
   1c37c:	e12fff1e 	bx	lr

0001c380 <_reclaim_reent>:
   1c380:	e59f30fc 	ldr	r3, [pc, #252]	; 1c484 <_reclaim_reent+0x104>
   1c384:	e5933000 	ldr	r3, [r3]
   1c388:	e1500003 	cmp	r0, r3
   1c38c:	e92d4070 	push	{r4, r5, r6, lr}
   1c390:	e1a05000 	mov	r5, r0
   1c394:	0a00002e 	beq	1c454 <_reclaim_reent+0xd4>
   1c398:	e590204c 	ldr	r2, [r0, #76]	; 0x4c
   1c39c:	e3520000 	cmp	r2, #0
   1c3a0:	0a000013 	beq	1c3f4 <_reclaim_reent+0x74>
   1c3a4:	e3a03000 	mov	r3, #0
   1c3a8:	e1a06003 	mov	r6, r3
   1c3ac:	e7921103 	ldr	r1, [r2, r3, lsl #2]
   1c3b0:	e3510000 	cmp	r1, #0
   1c3b4:	1a000001 	bne	1c3c0 <_reclaim_reent+0x40>
   1c3b8:	ea000006 	b	1c3d8 <_reclaim_reent+0x58>
   1c3bc:	e1a01004 	mov	r1, r4
   1c3c0:	e5914000 	ldr	r4, [r1]
   1c3c4:	e1a00005 	mov	r0, r5
   1c3c8:	ebffff43 	bl	1c0dc <_free_r>
   1c3cc:	e3540000 	cmp	r4, #0
   1c3d0:	1afffff9 	bne	1c3bc <_reclaim_reent+0x3c>
   1c3d4:	e595204c 	ldr	r2, [r5, #76]	; 0x4c
   1c3d8:	e2866001 	add	r6, r6, #1
   1c3dc:	e3560020 	cmp	r6, #32
   1c3e0:	e1a03006 	mov	r3, r6
   1c3e4:	1afffff0 	bne	1c3ac <_reclaim_reent+0x2c>
   1c3e8:	e1a01002 	mov	r1, r2
   1c3ec:	e1a00005 	mov	r0, r5
   1c3f0:	ebffff39 	bl	1c0dc <_free_r>
   1c3f4:	e5951040 	ldr	r1, [r5, #64]	; 0x40
   1c3f8:	e3510000 	cmp	r1, #0
   1c3fc:	11a00005 	movne	r0, r5
   1c400:	1bffff35 	blne	1c0dc <_free_r>
   1c404:	e5951148 	ldr	r1, [r5, #328]	; 0x148
   1c408:	e3510000 	cmp	r1, #0
   1c40c:	0a000009 	beq	1c438 <_reclaim_reent+0xb8>
   1c410:	e2856f53 	add	r6, r5, #332	; 0x14c
   1c414:	e1510006 	cmp	r1, r6
   1c418:	1a000001 	bne	1c424 <_reclaim_reent+0xa4>
   1c41c:	ea000005 	b	1c438 <_reclaim_reent+0xb8>
   1c420:	e1a01004 	mov	r1, r4
   1c424:	e5914000 	ldr	r4, [r1]
   1c428:	e1a00005 	mov	r0, r5
   1c42c:	ebffff2a 	bl	1c0dc <_free_r>
   1c430:	e1560004 	cmp	r6, r4
   1c434:	1afffff9 	bne	1c420 <_reclaim_reent+0xa0>
   1c438:	e5951054 	ldr	r1, [r5, #84]	; 0x54
   1c43c:	e3510000 	cmp	r1, #0
   1c440:	11a00005 	movne	r0, r5
   1c444:	1bffff24 	blne	1c0dc <_free_r>
   1c448:	e5953038 	ldr	r3, [r5, #56]	; 0x38
   1c44c:	e3530000 	cmp	r3, #0
   1c450:	1a000001 	bne	1c45c <_reclaim_reent+0xdc>
   1c454:	e8bd4070 	pop	{r4, r5, r6, lr}
   1c458:	e12fff1e 	bx	lr
   1c45c:	e1a00005 	mov	r0, r5
   1c460:	e595c03c 	ldr	ip, [r5, #60]	; 0x3c
   1c464:	e1a0e00f 	mov	lr, pc
   1c468:	e12fff1c 	bx	ip
   1c46c:	e59512e0 	ldr	r1, [r5, #736]	; 0x2e0
   1c470:	e3510000 	cmp	r1, #0
   1c474:	0afffff6 	beq	1c454 <_reclaim_reent+0xd4>
   1c478:	e1a00005 	mov	r0, r5
   1c47c:	e8bd4070 	pop	{r4, r5, r6, lr}
   1c480:	eaffffb3 	b	1c354 <cleanup_glue>
   1c484:	0001ee10 	andeq	lr, r1, r0, lsl lr

0001c488 <__aeabi_uidiv>:
   1c488:	e2512001 	subs	r2, r1, #1
   1c48c:	012fff1e 	bxeq	lr
   1c490:	3a000036 	bcc	1c570 <__aeabi_uidiv+0xe8>
   1c494:	e1500001 	cmp	r0, r1
   1c498:	9a000022 	bls	1c528 <__aeabi_uidiv+0xa0>
   1c49c:	e1110002 	tst	r1, r2
   1c4a0:	0a000023 	beq	1c534 <__aeabi_uidiv+0xac>
   1c4a4:	e311020e 	tst	r1, #-536870912	; 0xe0000000
   1c4a8:	01a01181 	lsleq	r1, r1, #3
   1c4ac:	03a03008 	moveq	r3, #8
   1c4b0:	13a03001 	movne	r3, #1
   1c4b4:	e3510201 	cmp	r1, #268435456	; 0x10000000
   1c4b8:	31510000 	cmpcc	r1, r0
   1c4bc:	31a01201 	lslcc	r1, r1, #4
   1c4c0:	31a03203 	lslcc	r3, r3, #4
   1c4c4:	3afffffa 	bcc	1c4b4 <__aeabi_uidiv+0x2c>
   1c4c8:	e3510102 	cmp	r1, #-2147483648	; 0x80000000
   1c4cc:	31510000 	cmpcc	r1, r0
   1c4d0:	31a01081 	lslcc	r1, r1, #1
   1c4d4:	31a03083 	lslcc	r3, r3, #1
   1c4d8:	3afffffa 	bcc	1c4c8 <__aeabi_uidiv+0x40>
   1c4dc:	e3a02000 	mov	r2, #0
   1c4e0:	e1500001 	cmp	r0, r1
   1c4e4:	20400001 	subcs	r0, r0, r1
   1c4e8:	21822003 	orrcs	r2, r2, r3
   1c4ec:	e15000a1 	cmp	r0, r1, lsr #1
   1c4f0:	204000a1 	subcs	r0, r0, r1, lsr #1
   1c4f4:	218220a3 	orrcs	r2, r2, r3, lsr #1
   1c4f8:	e1500121 	cmp	r0, r1, lsr #2
   1c4fc:	20400121 	subcs	r0, r0, r1, lsr #2
   1c500:	21822123 	orrcs	r2, r2, r3, lsr #2
   1c504:	e15001a1 	cmp	r0, r1, lsr #3
   1c508:	204001a1 	subcs	r0, r0, r1, lsr #3
   1c50c:	218221a3 	orrcs	r2, r2, r3, lsr #3
   1c510:	e3500000 	cmp	r0, #0
   1c514:	11b03223 	lsrsne	r3, r3, #4
   1c518:	11a01221 	lsrne	r1, r1, #4
   1c51c:	1affffef 	bne	1c4e0 <__aeabi_uidiv+0x58>
   1c520:	e1a00002 	mov	r0, r2
   1c524:	e12fff1e 	bx	lr
   1c528:	03a00001 	moveq	r0, #1
   1c52c:	13a00000 	movne	r0, #0
   1c530:	e12fff1e 	bx	lr
   1c534:	e3510801 	cmp	r1, #65536	; 0x10000
   1c538:	21a01821 	lsrcs	r1, r1, #16
   1c53c:	23a02010 	movcs	r2, #16
   1c540:	33a02000 	movcc	r2, #0
   1c544:	e3510c01 	cmp	r1, #256	; 0x100
   1c548:	21a01421 	lsrcs	r1, r1, #8
   1c54c:	22822008 	addcs	r2, r2, #8
   1c550:	e3510010 	cmp	r1, #16
   1c554:	21a01221 	lsrcs	r1, r1, #4
   1c558:	22822004 	addcs	r2, r2, #4
   1c55c:	e3510004 	cmp	r1, #4
   1c560:	82822003 	addhi	r2, r2, #3
   1c564:	908220a1 	addls	r2, r2, r1, lsr #1
   1c568:	e1a00230 	lsr	r0, r0, r2
   1c56c:	e12fff1e 	bx	lr
   1c570:	e3500000 	cmp	r0, #0
   1c574:	13e00000 	mvnne	r0, #0
   1c578:	ea000059 	b	1c6e4 <__aeabi_idiv0>

0001c57c <__aeabi_uidivmod>:
   1c57c:	e3510000 	cmp	r1, #0
   1c580:	0afffffa 	beq	1c570 <__aeabi_uidiv+0xe8>
   1c584:	e92d4003 	push	{r0, r1, lr}
   1c588:	ebffffbe 	bl	1c488 <__aeabi_uidiv>
   1c58c:	e8bd4006 	pop	{r1, r2, lr}
   1c590:	e0030092 	mul	r3, r2, r0
   1c594:	e0411003 	sub	r1, r1, r3
   1c598:	e12fff1e 	bx	lr

0001c59c <__aeabi_idiv>:
   1c59c:	e3510000 	cmp	r1, #0
   1c5a0:	0a000043 	beq	1c6b4 <.divsi3_skip_div0_test+0x110>

0001c5a4 <.divsi3_skip_div0_test>:
   1c5a4:	e020c001 	eor	ip, r0, r1
   1c5a8:	42611000 	rsbmi	r1, r1, #0
   1c5ac:	e2512001 	subs	r2, r1, #1
   1c5b0:	0a000027 	beq	1c654 <.divsi3_skip_div0_test+0xb0>
   1c5b4:	e1b03000 	movs	r3, r0
   1c5b8:	42603000 	rsbmi	r3, r0, #0
   1c5bc:	e1530001 	cmp	r3, r1
   1c5c0:	9a000026 	bls	1c660 <.divsi3_skip_div0_test+0xbc>
   1c5c4:	e1110002 	tst	r1, r2
   1c5c8:	0a000028 	beq	1c670 <.divsi3_skip_div0_test+0xcc>
   1c5cc:	e311020e 	tst	r1, #-536870912	; 0xe0000000
   1c5d0:	01a01181 	lsleq	r1, r1, #3
   1c5d4:	03a02008 	moveq	r2, #8
   1c5d8:	13a02001 	movne	r2, #1
   1c5dc:	e3510201 	cmp	r1, #268435456	; 0x10000000
   1c5e0:	31510003 	cmpcc	r1, r3
   1c5e4:	31a01201 	lslcc	r1, r1, #4
   1c5e8:	31a02202 	lslcc	r2, r2, #4
   1c5ec:	3afffffa 	bcc	1c5dc <.divsi3_skip_div0_test+0x38>
   1c5f0:	e3510102 	cmp	r1, #-2147483648	; 0x80000000
   1c5f4:	31510003 	cmpcc	r1, r3
   1c5f8:	31a01081 	lslcc	r1, r1, #1
   1c5fc:	31a02082 	lslcc	r2, r2, #1
   1c600:	3afffffa 	bcc	1c5f0 <.divsi3_skip_div0_test+0x4c>
   1c604:	e3a00000 	mov	r0, #0
   1c608:	e1530001 	cmp	r3, r1
   1c60c:	20433001 	subcs	r3, r3, r1
   1c610:	21800002 	orrcs	r0, r0, r2
   1c614:	e15300a1 	cmp	r3, r1, lsr #1
   1c618:	204330a1 	subcs	r3, r3, r1, lsr #1
   1c61c:	218000a2 	orrcs	r0, r0, r2, lsr #1
   1c620:	e1530121 	cmp	r3, r1, lsr #2
   1c624:	20433121 	subcs	r3, r3, r1, lsr #2
   1c628:	21800122 	orrcs	r0, r0, r2, lsr #2
   1c62c:	e15301a1 	cmp	r3, r1, lsr #3
   1c630:	204331a1 	subcs	r3, r3, r1, lsr #3
   1c634:	218001a2 	orrcs	r0, r0, r2, lsr #3
   1c638:	e3530000 	cmp	r3, #0
   1c63c:	11b02222 	lsrsne	r2, r2, #4
   1c640:	11a01221 	lsrne	r1, r1, #4
   1c644:	1affffef 	bne	1c608 <.divsi3_skip_div0_test+0x64>
   1c648:	e35c0000 	cmp	ip, #0
   1c64c:	42600000 	rsbmi	r0, r0, #0
   1c650:	e12fff1e 	bx	lr
   1c654:	e13c0000 	teq	ip, r0
   1c658:	42600000 	rsbmi	r0, r0, #0
   1c65c:	e12fff1e 	bx	lr
   1c660:	33a00000 	movcc	r0, #0
   1c664:	01a00fcc 	asreq	r0, ip, #31
   1c668:	03800001 	orreq	r0, r0, #1
   1c66c:	e12fff1e 	bx	lr
   1c670:	e3510801 	cmp	r1, #65536	; 0x10000
   1c674:	21a01821 	lsrcs	r1, r1, #16
   1c678:	23a02010 	movcs	r2, #16
   1c67c:	33a02000 	movcc	r2, #0
   1c680:	e3510c01 	cmp	r1, #256	; 0x100
   1c684:	21a01421 	lsrcs	r1, r1, #8
   1c688:	22822008 	addcs	r2, r2, #8
   1c68c:	e3510010 	cmp	r1, #16
   1c690:	21a01221 	lsrcs	r1, r1, #4
   1c694:	22822004 	addcs	r2, r2, #4
   1c698:	e3510004 	cmp	r1, #4
   1c69c:	82822003 	addhi	r2, r2, #3
   1c6a0:	908220a1 	addls	r2, r2, r1, lsr #1
   1c6a4:	e35c0000 	cmp	ip, #0
   1c6a8:	e1a00233 	lsr	r0, r3, r2
   1c6ac:	42600000 	rsbmi	r0, r0, #0
   1c6b0:	e12fff1e 	bx	lr
   1c6b4:	e3500000 	cmp	r0, #0
   1c6b8:	c3e00102 	mvngt	r0, #-2147483648	; 0x80000000
   1c6bc:	b3a00102 	movlt	r0, #-2147483648	; 0x80000000
   1c6c0:	ea000007 	b	1c6e4 <__aeabi_idiv0>

0001c6c4 <__aeabi_idivmod>:
   1c6c4:	e3510000 	cmp	r1, #0
   1c6c8:	0afffff9 	beq	1c6b4 <.divsi3_skip_div0_test+0x110>
   1c6cc:	e92d4003 	push	{r0, r1, lr}
   1c6d0:	ebffffb3 	bl	1c5a4 <.divsi3_skip_div0_test>
   1c6d4:	e8bd4006 	pop	{r1, r2, lr}
   1c6d8:	e0030092 	mul	r3, r2, r0
   1c6dc:	e0411003 	sub	r1, r1, r3
   1c6e0:	e12fff1e 	bx	lr

0001c6e4 <__aeabi_idiv0>:
   1c6e4:	e12fff1e 	bx	lr

0001c6e8 <__aeabi_drsub>:
   1c6e8:	e2211102 	eor	r1, r1, #-2147483648	; 0x80000000
   1c6ec:	ea000000 	b	1c6f4 <__adddf3>

0001c6f0 <__aeabi_dsub>:
   1c6f0:	e2233102 	eor	r3, r3, #-2147483648	; 0x80000000

0001c6f4 <__adddf3>:
   1c6f4:	e92d4030 	push	{r4, r5, lr}
   1c6f8:	e1a04081 	lsl	r4, r1, #1
   1c6fc:	e1a05083 	lsl	r5, r3, #1
   1c700:	e1340005 	teq	r4, r5
   1c704:	01300002 	teqeq	r0, r2
   1c708:	1194c000 	orrsne	ip, r4, r0
   1c70c:	1195c002 	orrsne	ip, r5, r2
   1c710:	11f0cac4 	mvnsne	ip, r4, asr #21
   1c714:	11f0cac5 	mvnsne	ip, r5, asr #21
   1c718:	0a00008c 	beq	1c950 <__adddf3+0x25c>
   1c71c:	e1a04aa4 	lsr	r4, r4, #21
   1c720:	e0745aa5 	rsbs	r5, r4, r5, lsr #21
   1c724:	b2655000 	rsblt	r5, r5, #0
   1c728:	da000006 	ble	1c748 <__adddf3+0x54>
   1c72c:	e0844005 	add	r4, r4, r5
   1c730:	e0202002 	eor	r2, r0, r2
   1c734:	e0213003 	eor	r3, r1, r3
   1c738:	e0220000 	eor	r0, r2, r0
   1c73c:	e0231001 	eor	r1, r3, r1
   1c740:	e0202002 	eor	r2, r0, r2
   1c744:	e0213003 	eor	r3, r1, r3
   1c748:	e3550036 	cmp	r5, #54	; 0x36
   1c74c:	88bd4030 	pophi	{r4, r5, lr}
   1c750:	812fff1e 	bxhi	lr
   1c754:	e3110102 	tst	r1, #-2147483648	; 0x80000000
   1c758:	e1a01601 	lsl	r1, r1, #12
   1c75c:	e3a0c601 	mov	ip, #1048576	; 0x100000
   1c760:	e18c1621 	orr	r1, ip, r1, lsr #12
   1c764:	0a000001 	beq	1c770 <__adddf3+0x7c>
   1c768:	e2700000 	rsbs	r0, r0, #0
   1c76c:	e2e11000 	rsc	r1, r1, #0
   1c770:	e3130102 	tst	r3, #-2147483648	; 0x80000000
   1c774:	e1a03603 	lsl	r3, r3, #12
   1c778:	e18c3623 	orr	r3, ip, r3, lsr #12
   1c77c:	0a000001 	beq	1c788 <__adddf3+0x94>
   1c780:	e2722000 	rsbs	r2, r2, #0
   1c784:	e2e33000 	rsc	r3, r3, #0
   1c788:	e1340005 	teq	r4, r5
   1c78c:	0a000069 	beq	1c938 <__adddf3+0x244>
   1c790:	e2444001 	sub	r4, r4, #1
   1c794:	e275e020 	rsbs	lr, r5, #32
   1c798:	ba000005 	blt	1c7b4 <__adddf3+0xc0>
   1c79c:	e1a0ce12 	lsl	ip, r2, lr
   1c7a0:	e0900532 	adds	r0, r0, r2, lsr r5
   1c7a4:	e2a11000 	adc	r1, r1, #0
   1c7a8:	e0900e13 	adds	r0, r0, r3, lsl lr
   1c7ac:	e0b11553 	adcs	r1, r1, r3, asr r5
   1c7b0:	ea000006 	b	1c7d0 <__adddf3+0xdc>
   1c7b4:	e2455020 	sub	r5, r5, #32
   1c7b8:	e28ee020 	add	lr, lr, #32
   1c7bc:	e3520001 	cmp	r2, #1
   1c7c0:	e1a0ce13 	lsl	ip, r3, lr
   1c7c4:	238cc002 	orrcs	ip, ip, #2
   1c7c8:	e0900553 	adds	r0, r0, r3, asr r5
   1c7cc:	e0b11fc3 	adcs	r1, r1, r3, asr #31
   1c7d0:	e2015102 	and	r5, r1, #-2147483648	; 0x80000000
   1c7d4:	5a000002 	bpl	1c7e4 <__adddf3+0xf0>
   1c7d8:	e27cc000 	rsbs	ip, ip, #0
   1c7dc:	e2f00000 	rscs	r0, r0, #0
   1c7e0:	e2e11000 	rsc	r1, r1, #0
   1c7e4:	e3510601 	cmp	r1, #1048576	; 0x100000
   1c7e8:	3a00000f 	bcc	1c82c <__adddf3+0x138>
   1c7ec:	e3510602 	cmp	r1, #2097152	; 0x200000
   1c7f0:	3a000006 	bcc	1c810 <__adddf3+0x11c>
   1c7f4:	e1b010a1 	lsrs	r1, r1, #1
   1c7f8:	e1b00060 	rrxs	r0, r0
   1c7fc:	e1a0c06c 	rrx	ip, ip
   1c800:	e2844001 	add	r4, r4, #1
   1c804:	e1a02a84 	lsl	r2, r4, #21
   1c808:	e3720501 	cmn	r2, #4194304	; 0x400000
   1c80c:	2a00006b 	bcs	1c9c0 <__adddf3+0x2cc>
   1c810:	e35c0102 	cmp	ip, #-2147483648	; 0x80000000
   1c814:	01b0c0a0 	lsrseq	ip, r0, #1
   1c818:	e2b00000 	adcs	r0, r0, #0
   1c81c:	e0a11a04 	adc	r1, r1, r4, lsl #20
   1c820:	e1811005 	orr	r1, r1, r5
   1c824:	e8bd4030 	pop	{r4, r5, lr}
   1c828:	e12fff1e 	bx	lr
   1c82c:	e1b0c08c 	lsls	ip, ip, #1
   1c830:	e0b00000 	adcs	r0, r0, r0
   1c834:	e0a11001 	adc	r1, r1, r1
   1c838:	e3110601 	tst	r1, #1048576	; 0x100000
   1c83c:	e2444001 	sub	r4, r4, #1
   1c840:	1afffff2 	bne	1c810 <__adddf3+0x11c>
   1c844:	e3310000 	teq	r1, #0
   1c848:	13a03014 	movne	r3, #20
   1c84c:	03a03034 	moveq	r3, #52	; 0x34
   1c850:	01a01000 	moveq	r1, r0
   1c854:	03a00000 	moveq	r0, #0
   1c858:	e1a02001 	mov	r2, r1
   1c85c:	e3520801 	cmp	r2, #65536	; 0x10000
   1c860:	21a02822 	lsrcs	r2, r2, #16
   1c864:	22433010 	subcs	r3, r3, #16
   1c868:	e3520c01 	cmp	r2, #256	; 0x100
   1c86c:	21a02422 	lsrcs	r2, r2, #8
   1c870:	22433008 	subcs	r3, r3, #8
   1c874:	e3520010 	cmp	r2, #16
   1c878:	21a02222 	lsrcs	r2, r2, #4
   1c87c:	22433004 	subcs	r3, r3, #4
   1c880:	e3520004 	cmp	r2, #4
   1c884:	22433002 	subcs	r3, r3, #2
   1c888:	304330a2 	subcc	r3, r3, r2, lsr #1
   1c88c:	e04331a2 	sub	r3, r3, r2, lsr #3
   1c890:	e2532020 	subs	r2, r3, #32
   1c894:	aa000007 	bge	1c8b8 <__adddf3+0x1c4>
   1c898:	e292200c 	adds	r2, r2, #12
   1c89c:	da000004 	ble	1c8b4 <__adddf3+0x1c0>
   1c8a0:	e282c014 	add	ip, r2, #20
   1c8a4:	e262200c 	rsb	r2, r2, #12
   1c8a8:	e1a00c11 	lsl	r0, r1, ip
   1c8ac:	e1a01231 	lsr	r1, r1, r2
   1c8b0:	ea000004 	b	1c8c8 <__adddf3+0x1d4>
   1c8b4:	e2822014 	add	r2, r2, #20
   1c8b8:	d262c020 	rsble	ip, r2, #32
   1c8bc:	e1a01211 	lsl	r1, r1, r2
   1c8c0:	d1811c30 	orrle	r1, r1, r0, lsr ip
   1c8c4:	d1a00210 	lslle	r0, r0, r2
   1c8c8:	e0544003 	subs	r4, r4, r3
   1c8cc:	a0811a04 	addge	r1, r1, r4, lsl #20
   1c8d0:	a1811005 	orrge	r1, r1, r5
   1c8d4:	a8bd4030 	popge	{r4, r5, lr}
   1c8d8:	a12fff1e 	bxge	lr
   1c8dc:	e1e04004 	mvn	r4, r4
   1c8e0:	e254401f 	subs	r4, r4, #31
   1c8e4:	aa00000f 	bge	1c928 <__adddf3+0x234>
   1c8e8:	e294400c 	adds	r4, r4, #12
   1c8ec:	ca000006 	bgt	1c90c <__adddf3+0x218>
   1c8f0:	e2844014 	add	r4, r4, #20
   1c8f4:	e2642020 	rsb	r2, r4, #32
   1c8f8:	e1a00430 	lsr	r0, r0, r4
   1c8fc:	e1800211 	orr	r0, r0, r1, lsl r2
   1c900:	e1851431 	orr	r1, r5, r1, lsr r4
   1c904:	e8bd4030 	pop	{r4, r5, lr}
   1c908:	e12fff1e 	bx	lr
   1c90c:	e264400c 	rsb	r4, r4, #12
   1c910:	e2642020 	rsb	r2, r4, #32
   1c914:	e1a00230 	lsr	r0, r0, r2
   1c918:	e1800411 	orr	r0, r0, r1, lsl r4
   1c91c:	e1a01005 	mov	r1, r5
   1c920:	e8bd4030 	pop	{r4, r5, lr}
   1c924:	e12fff1e 	bx	lr
   1c928:	e1a00431 	lsr	r0, r1, r4
   1c92c:	e1a01005 	mov	r1, r5
   1c930:	e8bd4030 	pop	{r4, r5, lr}
   1c934:	e12fff1e 	bx	lr
   1c938:	e3340000 	teq	r4, #0
   1c93c:	e2233601 	eor	r3, r3, #1048576	; 0x100000
   1c940:	02211601 	eoreq	r1, r1, #1048576	; 0x100000
   1c944:	02844001 	addeq	r4, r4, #1
   1c948:	12455001 	subne	r5, r5, #1
   1c94c:	eaffff8f 	b	1c790 <__adddf3+0x9c>
   1c950:	e1f0cac4 	mvns	ip, r4, asr #21
   1c954:	11f0cac5 	mvnsne	ip, r5, asr #21
   1c958:	0a00001d 	beq	1c9d4 <__adddf3+0x2e0>
   1c95c:	e1340005 	teq	r4, r5
   1c960:	01300002 	teqeq	r0, r2
   1c964:	0a000004 	beq	1c97c <__adddf3+0x288>
   1c968:	e194c000 	orrs	ip, r4, r0
   1c96c:	01a01003 	moveq	r1, r3
   1c970:	01a00002 	moveq	r0, r2
   1c974:	e8bd4030 	pop	{r4, r5, lr}
   1c978:	e12fff1e 	bx	lr
   1c97c:	e1310003 	teq	r1, r3
   1c980:	13a01000 	movne	r1, #0
   1c984:	13a00000 	movne	r0, #0
   1c988:	18bd4030 	popne	{r4, r5, lr}
   1c98c:	112fff1e 	bxne	lr
   1c990:	e1b0caa4 	lsrs	ip, r4, #21
   1c994:	1a000004 	bne	1c9ac <__adddf3+0x2b8>
   1c998:	e1b00080 	lsls	r0, r0, #1
   1c99c:	e0b11001 	adcs	r1, r1, r1
   1c9a0:	23811102 	orrcs	r1, r1, #-2147483648	; 0x80000000
   1c9a4:	e8bd4030 	pop	{r4, r5, lr}
   1c9a8:	e12fff1e 	bx	lr
   1c9ac:	e2944501 	adds	r4, r4, #4194304	; 0x400000
   1c9b0:	32811601 	addcc	r1, r1, #1048576	; 0x100000
   1c9b4:	38bd4030 	popcc	{r4, r5, lr}
   1c9b8:	312fff1e 	bxcc	lr
   1c9bc:	e2015102 	and	r5, r1, #-2147483648	; 0x80000000
   1c9c0:	e385147f 	orr	r1, r5, #2130706432	; 0x7f000000
   1c9c4:	e381160f 	orr	r1, r1, #15728640	; 0xf00000
   1c9c8:	e3a00000 	mov	r0, #0
   1c9cc:	e8bd4030 	pop	{r4, r5, lr}
   1c9d0:	e12fff1e 	bx	lr
   1c9d4:	e1f0cac4 	mvns	ip, r4, asr #21
   1c9d8:	11a01003 	movne	r1, r3
   1c9dc:	11a00002 	movne	r0, r2
   1c9e0:	01f0cac5 	mvnseq	ip, r5, asr #21
   1c9e4:	11a03001 	movne	r3, r1
   1c9e8:	11a02000 	movne	r2, r0
   1c9ec:	e1904601 	orrs	r4, r0, r1, lsl #12
   1c9f0:	01925603 	orrseq	r5, r2, r3, lsl #12
   1c9f4:	01310003 	teqeq	r1, r3
   1c9f8:	13811702 	orrne	r1, r1, #524288	; 0x80000
   1c9fc:	e8bd4030 	pop	{r4, r5, lr}
   1ca00:	e12fff1e 	bx	lr

0001ca04 <__aeabi_ui2d>:
   1ca04:	e3300000 	teq	r0, #0
   1ca08:	03a01000 	moveq	r1, #0
   1ca0c:	012fff1e 	bxeq	lr
   1ca10:	e92d4030 	push	{r4, r5, lr}
   1ca14:	e3a04b01 	mov	r4, #1024	; 0x400
   1ca18:	e2844032 	add	r4, r4, #50	; 0x32
   1ca1c:	e3a05000 	mov	r5, #0
   1ca20:	e3a01000 	mov	r1, #0
   1ca24:	eaffff86 	b	1c844 <__adddf3+0x150>

0001ca28 <__aeabi_i2d>:
   1ca28:	e3300000 	teq	r0, #0
   1ca2c:	03a01000 	moveq	r1, #0
   1ca30:	012fff1e 	bxeq	lr
   1ca34:	e92d4030 	push	{r4, r5, lr}
   1ca38:	e3a04b01 	mov	r4, #1024	; 0x400
   1ca3c:	e2844032 	add	r4, r4, #50	; 0x32
   1ca40:	e2105102 	ands	r5, r0, #-2147483648	; 0x80000000
   1ca44:	42600000 	rsbmi	r0, r0, #0
   1ca48:	e3a01000 	mov	r1, #0
   1ca4c:	eaffff7c 	b	1c844 <__adddf3+0x150>

0001ca50 <__aeabi_f2d>:
   1ca50:	e1b02080 	lsls	r2, r0, #1
   1ca54:	e1a011c2 	asr	r1, r2, #3
   1ca58:	e1a01061 	rrx	r1, r1
   1ca5c:	e1a00e02 	lsl	r0, r2, #28
   1ca60:	121234ff 	andsne	r3, r2, #-16777216	; 0xff000000
   1ca64:	133304ff 	teqne	r3, #-16777216	; 0xff000000
   1ca68:	1221130e 	eorne	r1, r1, #939524096	; 0x38000000
   1ca6c:	112fff1e 	bxne	lr
   1ca70:	e3320000 	teq	r2, #0
   1ca74:	133304ff 	teqne	r3, #-16777216	; 0xff000000
   1ca78:	012fff1e 	bxeq	lr
   1ca7c:	e92d4030 	push	{r4, r5, lr}
   1ca80:	e3a04d0e 	mov	r4, #896	; 0x380
   1ca84:	e2015102 	and	r5, r1, #-2147483648	; 0x80000000
   1ca88:	e3c11102 	bic	r1, r1, #-2147483648	; 0x80000000
   1ca8c:	eaffff6c 	b	1c844 <__adddf3+0x150>

0001ca90 <__aeabi_ul2d>:
   1ca90:	e1902001 	orrs	r2, r0, r1
   1ca94:	012fff1e 	bxeq	lr
   1ca98:	e92d4030 	push	{r4, r5, lr}
   1ca9c:	e3a05000 	mov	r5, #0
   1caa0:	ea000006 	b	1cac0 <__aeabi_l2d+0x1c>

0001caa4 <__aeabi_l2d>:
   1caa4:	e1902001 	orrs	r2, r0, r1
   1caa8:	012fff1e 	bxeq	lr
   1caac:	e92d4030 	push	{r4, r5, lr}
   1cab0:	e2115102 	ands	r5, r1, #-2147483648	; 0x80000000
   1cab4:	5a000001 	bpl	1cac0 <__aeabi_l2d+0x1c>
   1cab8:	e2700000 	rsbs	r0, r0, #0
   1cabc:	e2e11000 	rsc	r1, r1, #0
   1cac0:	e3a04b01 	mov	r4, #1024	; 0x400
   1cac4:	e2844032 	add	r4, r4, #50	; 0x32
   1cac8:	e1b0cb21 	lsrs	ip, r1, #22
   1cacc:	0affff44 	beq	1c7e4 <__adddf3+0xf0>
   1cad0:	e3a02003 	mov	r2, #3
   1cad4:	e1b0c1ac 	lsrs	ip, ip, #3
   1cad8:	12822003 	addne	r2, r2, #3
   1cadc:	e1b0c1ac 	lsrs	ip, ip, #3
   1cae0:	12822003 	addne	r2, r2, #3
   1cae4:	e08221ac 	add	r2, r2, ip, lsr #3
   1cae8:	e2623020 	rsb	r3, r2, #32
   1caec:	e1a0c310 	lsl	ip, r0, r3
   1caf0:	e1a00230 	lsr	r0, r0, r2
   1caf4:	e1800311 	orr	r0, r0, r1, lsl r3
   1caf8:	e1a01231 	lsr	r1, r1, r2
   1cafc:	e0844002 	add	r4, r4, r2
   1cb00:	eaffff37 	b	1c7e4 <__adddf3+0xf0>

0001cb04 <__aeabi_uldivmod>:
   1cb04:	e3530000 	cmp	r3, #0
   1cb08:	03520000 	cmpeq	r2, #0
   1cb0c:	1a000004 	bne	1cb24 <__aeabi_uldivmod+0x20>
   1cb10:	e3510000 	cmp	r1, #0
   1cb14:	03500000 	cmpeq	r0, #0
   1cb18:	13e01000 	mvnne	r1, #0
   1cb1c:	13e00000 	mvnne	r0, #0
   1cb20:	eafffeef 	b	1c6e4 <__aeabi_idiv0>
   1cb24:	e24dd008 	sub	sp, sp, #8
   1cb28:	e92d6000 	push	{sp, lr}
   1cb2c:	eb000026 	bl	1cbcc <__gnu_uldivmod_helper>
   1cb30:	e59de004 	ldr	lr, [sp, #4]
   1cb34:	e28dd008 	add	sp, sp, #8
   1cb38:	e8bd000c 	pop	{r2, r3}
   1cb3c:	e12fff1e 	bx	lr

0001cb40 <__aeabi_d2ulz>:
   1cb40:	ec410b17 	vmov	d7, r0, r1
   1cb44:	ed9f6b0b 	vldr	d6, [pc, #44]	; 1cb78 <__aeabi_d2ulz+0x38>
   1cb48:	ee276b06 	vmul.f64	d6, d7, d6
   1cb4c:	eefc4bc6 	vcvt.u32.f64	s9, d6
   1cb50:	ed9f6b0a 	vldr	d6, [pc, #40]	; 1cb80 <__aeabi_d2ulz+0x40>
   1cb54:	eeb85b64 	vcvt.f64.u32	d5, s9
   1cb58:	ee057b46 	vmls.f64	d7, d5, d6
   1cb5c:	eebc7bc7 	vcvt.u32.f64	s14, d7
   1cb60:	ee173a10 	vmov	r3, s14
   1cb64:	e3a00000 	mov	r0, #0
   1cb68:	e1800003 	orr	r0, r0, r3
   1cb6c:	ee141a90 	vmov	r1, s9
   1cb70:	e12fff1e 	bx	lr
   1cb74:	e1a00000 	nop			; (mov r0, r0)
   1cb78:	00000000 	andeq	r0, r0, r0
   1cb7c:	3df00000 	ldclcc	0, cr0, [r0]
   1cb80:	00000000 	andeq	r0, r0, r0
   1cb84:	41f00000 	mvnsmi	r0, r0

0001cb88 <__gnu_ldivmod_helper>:
   1cb88:	e92d47f0 	push	{r4, r5, r6, r7, r8, r9, sl, lr}
   1cb8c:	e59d9020 	ldr	r9, [sp, #32]
   1cb90:	e1a08002 	mov	r8, r2
   1cb94:	e1a0a003 	mov	sl, r3
   1cb98:	e1a06000 	mov	r6, r0
   1cb9c:	e1a07001 	mov	r7, r1
   1cba0:	eb000019 	bl	1cc0c <__divdi3>
   1cba4:	e0030198 	mul	r3, r8, r1
   1cba8:	e1a02000 	mov	r2, r0
   1cbac:	e0854098 	umull	r4, r5, r8, r0
   1cbb0:	e022329a 	mla	r2, sl, r2, r3
   1cbb4:	e0825005 	add	r5, r2, r5
   1cbb8:	e0564004 	subs	r4, r6, r4
   1cbbc:	e0c75005 	sbc	r5, r7, r5
   1cbc0:	e8890030 	stm	r9, {r4, r5}
   1cbc4:	e8bd47f0 	pop	{r4, r5, r6, r7, r8, r9, sl, lr}
   1cbc8:	e12fff1e 	bx	lr

0001cbcc <__gnu_uldivmod_helper>:
   1cbcc:	e92d43f8 	push	{r3, r4, r5, r6, r7, r8, r9, lr}
   1cbd0:	e59d9020 	ldr	r9, [sp, #32]
   1cbd4:	e1a06000 	mov	r6, r0
   1cbd8:	e1a07001 	mov	r7, r1
   1cbdc:	e1a08002 	mov	r8, r2
   1cbe0:	e1a04003 	mov	r4, r3
   1cbe4:	eb00013c 	bl	1d0dc <__udivdi3>
   1cbe8:	e0030490 	mul	r3, r0, r4
   1cbec:	e0854890 	umull	r4, r5, r0, r8
   1cbf0:	e0283891 	mla	r8, r1, r8, r3
   1cbf4:	e0885005 	add	r5, r8, r5
   1cbf8:	e0564004 	subs	r4, r6, r4
   1cbfc:	e0c75005 	sbc	r5, r7, r5
   1cc00:	e8890030 	stm	r9, {r4, r5}
   1cc04:	e8bd43f8 	pop	{r3, r4, r5, r6, r7, r8, r9, lr}
   1cc08:	e12fff1e 	bx	lr

0001cc0c <__divdi3>:
   1cc0c:	e92d4ff0 	push	{r4, r5, r6, r7, r8, r9, sl, fp, lr}
   1cc10:	e2704000 	rsbs	r4, r0, #0
   1cc14:	e2e15000 	rsc	r5, r1, #0
   1cc18:	e3510000 	cmp	r1, #0
   1cc1c:	e3e06000 	mvn	r6, #0
   1cc20:	a1a04000 	movge	r4, r0
   1cc24:	a1a05001 	movge	r5, r1
   1cc28:	a3a06000 	movge	r6, #0
   1cc2c:	e3530000 	cmp	r3, #0
   1cc30:	e24dd014 	sub	sp, sp, #20
   1cc34:	ba000098 	blt	1ce9c <__divdi3+0x290>
   1cc38:	e3530000 	cmp	r3, #0
   1cc3c:	e1a0c004 	mov	ip, r4
   1cc40:	e1a0b005 	mov	fp, r5
   1cc44:	e1a0a002 	mov	sl, r2
   1cc48:	e1a01003 	mov	r1, r3
   1cc4c:	e1a08002 	mov	r8, r2
   1cc50:	e1a07004 	mov	r7, r4
   1cc54:	e1a09005 	mov	r9, r5
   1cc58:	1a000040 	bne	1cd60 <__divdi3+0x154>
   1cc5c:	e1520005 	cmp	r2, r5
   1cc60:	9a000052 	bls	1cdb0 <__divdi3+0x1a4>
   1cc64:	e1a00002 	mov	r0, r2
   1cc68:	eb000237 	bl	1d54c <__clzsi2>
   1cc6c:	e3500000 	cmp	r0, #0
   1cc70:	12603020 	rsbne	r3, r0, #32
   1cc74:	11a03334 	lsrne	r3, r4, r3
   1cc78:	11a0801a 	lslne	r8, sl, r0
   1cc7c:	11839015 	orrne	r9, r3, r5, lsl r0
   1cc80:	11a07014 	lslne	r7, r4, r0
   1cc84:	e1a04828 	lsr	r4, r8, #16
   1cc88:	e1a01004 	mov	r1, r4
   1cc8c:	e1a00009 	mov	r0, r9
   1cc90:	ebfffdfc 	bl	1c488 <__aeabi_uidiv>
   1cc94:	e1a01004 	mov	r1, r4
   1cc98:	e1a0b000 	mov	fp, r0
   1cc9c:	e1a00009 	mov	r0, r9
   1cca0:	ebfffe35 	bl	1c57c <__aeabi_uidivmod>
   1cca4:	e1a0a808 	lsl	sl, r8, #16
   1cca8:	e1a0a82a 	lsr	sl, sl, #16
   1ccac:	e0000b9a 	mul	r0, sl, fp
   1ccb0:	e1a02827 	lsr	r2, r7, #16
   1ccb4:	e1821801 	orr	r1, r2, r1, lsl #16
   1ccb8:	e1500001 	cmp	r0, r1
   1ccbc:	9a000007 	bls	1cce0 <__divdi3+0xd4>
   1ccc0:	e0911008 	adds	r1, r1, r8
   1ccc4:	e24b3001 	sub	r3, fp, #1
   1ccc8:	2a000003 	bcs	1ccdc <__divdi3+0xd0>
   1cccc:	e1500001 	cmp	r0, r1
   1ccd0:	824bb002 	subhi	fp, fp, #2
   1ccd4:	80811008 	addhi	r1, r1, r8
   1ccd8:	8a000000 	bhi	1cce0 <__divdi3+0xd4>
   1ccdc:	e1a0b003 	mov	fp, r3
   1cce0:	e0609001 	rsb	r9, r0, r1
   1cce4:	e1a00009 	mov	r0, r9
   1cce8:	e1a01004 	mov	r1, r4
   1ccec:	ebfffde5 	bl	1c488 <__aeabi_uidiv>
   1ccf0:	e1a01004 	mov	r1, r4
   1ccf4:	e1a05000 	mov	r5, r0
   1ccf8:	e1a00009 	mov	r0, r9
   1ccfc:	ebfffe1e 	bl	1c57c <__aeabi_uidivmod>
   1cd00:	e00a0a95 	mul	sl, r5, sl
   1cd04:	e1a07807 	lsl	r7, r7, #16
   1cd08:	e1a07827 	lsr	r7, r7, #16
   1cd0c:	e1871801 	orr	r1, r7, r1, lsl #16
   1cd10:	e15a0001 	cmp	sl, r1
   1cd14:	9a000006 	bls	1cd34 <__divdi3+0x128>
   1cd18:	e0918008 	adds	r8, r1, r8
   1cd1c:	e2453001 	sub	r3, r5, #1
   1cd20:	2a000002 	bcs	1cd30 <__divdi3+0x124>
   1cd24:	e15a0008 	cmp	sl, r8
   1cd28:	82455002 	subhi	r5, r5, #2
   1cd2c:	8a000000 	bhi	1cd34 <__divdi3+0x128>
   1cd30:	e1a05003 	mov	r5, r3
   1cd34:	e185380b 	orr	r3, r5, fp, lsl #16
   1cd38:	e3a04000 	mov	r4, #0
   1cd3c:	e3560000 	cmp	r6, #0
   1cd40:	e1a00003 	mov	r0, r3
   1cd44:	e1a01004 	mov	r1, r4
   1cd48:	0a000001 	beq	1cd54 <__divdi3+0x148>
   1cd4c:	e2700000 	rsbs	r0, r0, #0
   1cd50:	e2e11000 	rsc	r1, r1, #0
   1cd54:	e28dd014 	add	sp, sp, #20
   1cd58:	e8bd4ff0 	pop	{r4, r5, r6, r7, r8, r9, sl, fp, lr}
   1cd5c:	e12fff1e 	bx	lr
   1cd60:	e1530005 	cmp	r3, r5
   1cd64:	83a04000 	movhi	r4, #0
   1cd68:	81a03004 	movhi	r3, r4
   1cd6c:	8afffff2 	bhi	1cd3c <__divdi3+0x130>
   1cd70:	e1a00003 	mov	r0, r3
   1cd74:	e58d100c 	str	r1, [sp, #12]
   1cd78:	e58dc008 	str	ip, [sp, #8]
   1cd7c:	eb0001f2 	bl	1d54c <__clzsi2>
   1cd80:	e2505000 	subs	r5, r0, #0
   1cd84:	e59d100c 	ldr	r1, [sp, #12]
   1cd88:	e59dc008 	ldr	ip, [sp, #8]
   1cd8c:	1a00007f 	bne	1cf90 <__divdi3+0x384>
   1cd90:	e151000b 	cmp	r1, fp
   1cd94:	215a000c 	cmpcs	sl, ip
   1cd98:	83a04000 	movhi	r4, #0
   1cd9c:	93a04001 	movls	r4, #1
   1cda0:	93a03001 	movls	r3, #1
   1cda4:	91a04005 	movls	r4, r5
   1cda8:	81a03004 	movhi	r3, r4
   1cdac:	eaffffe2 	b	1cd3c <__divdi3+0x130>
   1cdb0:	e3520000 	cmp	r2, #0
   1cdb4:	1a000003 	bne	1cdc8 <__divdi3+0x1bc>
   1cdb8:	e1a01002 	mov	r1, r2
   1cdbc:	e3a00001 	mov	r0, #1
   1cdc0:	ebfffdb0 	bl	1c488 <__aeabi_uidiv>
   1cdc4:	e1a08000 	mov	r8, r0
   1cdc8:	e1a00008 	mov	r0, r8
   1cdcc:	eb0001de 	bl	1d54c <__clzsi2>
   1cdd0:	e2503000 	subs	r3, r0, #0
   1cdd4:	1a000034 	bne	1ceac <__divdi3+0x2a0>
   1cdd8:	e1a0a808 	lsl	sl, r8, #16
   1cddc:	e0689009 	rsb	r9, r8, r9
   1cde0:	e1a0a82a 	lsr	sl, sl, #16
   1cde4:	e1a05828 	lsr	r5, r8, #16
   1cde8:	e3a04001 	mov	r4, #1
   1cdec:	e1a01005 	mov	r1, r5
   1cdf0:	e1a00009 	mov	r0, r9
   1cdf4:	ebfffda3 	bl	1c488 <__aeabi_uidiv>
   1cdf8:	e1a01005 	mov	r1, r5
   1cdfc:	e1a0b000 	mov	fp, r0
   1ce00:	e1a00009 	mov	r0, r9
   1ce04:	ebfffddc 	bl	1c57c <__aeabi_uidivmod>
   1ce08:	e0000b9a 	mul	r0, sl, fp
   1ce0c:	e1a02827 	lsr	r2, r7, #16
   1ce10:	e1821801 	orr	r1, r2, r1, lsl #16
   1ce14:	e1500001 	cmp	r0, r1
   1ce18:	9a000006 	bls	1ce38 <__divdi3+0x22c>
   1ce1c:	e0911008 	adds	r1, r1, r8
   1ce20:	e24b3001 	sub	r3, fp, #1
   1ce24:	2a0000a4 	bcs	1d0bc <__divdi3+0x4b0>
   1ce28:	e1500001 	cmp	r0, r1
   1ce2c:	824bb002 	subhi	fp, fp, #2
   1ce30:	80811008 	addhi	r1, r1, r8
   1ce34:	9a0000a0 	bls	1d0bc <__divdi3+0x4b0>
   1ce38:	e0602001 	rsb	r2, r0, r1
   1ce3c:	e1a00002 	mov	r0, r2
   1ce40:	e1a01005 	mov	r1, r5
   1ce44:	e58d200c 	str	r2, [sp, #12]
   1ce48:	ebfffd8e 	bl	1c488 <__aeabi_uidiv>
   1ce4c:	e59d200c 	ldr	r2, [sp, #12]
   1ce50:	e1a09000 	mov	r9, r0
   1ce54:	e1a01005 	mov	r1, r5
   1ce58:	e1a00002 	mov	r0, r2
   1ce5c:	ebfffdc6 	bl	1c57c <__aeabi_uidivmod>
   1ce60:	e00a0a99 	mul	sl, r9, sl
   1ce64:	e1a07807 	lsl	r7, r7, #16
   1ce68:	e1a07827 	lsr	r7, r7, #16
   1ce6c:	e1871801 	orr	r1, r7, r1, lsl #16
   1ce70:	e15a0001 	cmp	sl, r1
   1ce74:	9a000006 	bls	1ce94 <__divdi3+0x288>
   1ce78:	e0918008 	adds	r8, r1, r8
   1ce7c:	e2493001 	sub	r3, r9, #1
   1ce80:	2a000002 	bcs	1ce90 <__divdi3+0x284>
   1ce84:	e15a0008 	cmp	sl, r8
   1ce88:	82499002 	subhi	r9, r9, #2
   1ce8c:	8a000000 	bhi	1ce94 <__divdi3+0x288>
   1ce90:	e1a09003 	mov	r9, r3
   1ce94:	e189380b 	orr	r3, r9, fp, lsl #16
   1ce98:	eaffffa7 	b	1cd3c <__divdi3+0x130>
   1ce9c:	e1e06006 	mvn	r6, r6
   1cea0:	e2722000 	rsbs	r2, r2, #0
   1cea4:	e2e33000 	rsc	r3, r3, #0
   1cea8:	eaffff62 	b	1cc38 <__divdi3+0x2c>
   1ceac:	e1a08318 	lsl	r8, r8, r3
   1ceb0:	e263b020 	rsb	fp, r3, #32
   1ceb4:	e1a04b39 	lsr	r4, r9, fp
   1ceb8:	e1a0bb37 	lsr	fp, r7, fp
   1cebc:	e1a05828 	lsr	r5, r8, #16
   1cec0:	e1a01005 	mov	r1, r5
   1cec4:	e1a00004 	mov	r0, r4
   1cec8:	e18bb319 	orr	fp, fp, r9, lsl r3
   1cecc:	e1a07317 	lsl	r7, r7, r3
   1ced0:	ebfffd6c 	bl	1c488 <__aeabi_uidiv>
   1ced4:	e1a01005 	mov	r1, r5
   1ced8:	e1a03000 	mov	r3, r0
   1cedc:	e1a00004 	mov	r0, r4
   1cee0:	e58d3004 	str	r3, [sp, #4]
   1cee4:	ebfffda4 	bl	1c57c <__aeabi_uidivmod>
   1cee8:	e1a0a808 	lsl	sl, r8, #16
   1ceec:	e59d3004 	ldr	r3, [sp, #4]
   1cef0:	e1a0a82a 	lsr	sl, sl, #16
   1cef4:	e000039a 	mul	r0, sl, r3
   1cef8:	e1a0282b 	lsr	r2, fp, #16
   1cefc:	e1821801 	orr	r1, r2, r1, lsl #16
   1cf00:	e1500001 	cmp	r0, r1
   1cf04:	9a000006 	bls	1cf24 <__divdi3+0x318>
   1cf08:	e0911008 	adds	r1, r1, r8
   1cf0c:	e2432001 	sub	r2, r3, #1
   1cf10:	2a00006f 	bcs	1d0d4 <__divdi3+0x4c8>
   1cf14:	e1500001 	cmp	r0, r1
   1cf18:	82433002 	subhi	r3, r3, #2
   1cf1c:	80811008 	addhi	r1, r1, r8
   1cf20:	9a00006b 	bls	1d0d4 <__divdi3+0x4c8>
   1cf24:	e0609001 	rsb	r9, r0, r1
   1cf28:	e1a00009 	mov	r0, r9
   1cf2c:	e1a01005 	mov	r1, r5
   1cf30:	e58d3004 	str	r3, [sp, #4]
   1cf34:	ebfffd53 	bl	1c488 <__aeabi_uidiv>
   1cf38:	e1a01005 	mov	r1, r5
   1cf3c:	e1a04000 	mov	r4, r0
   1cf40:	e1a00009 	mov	r0, r9
   1cf44:	ebfffd8c 	bl	1c57c <__aeabi_uidivmod>
   1cf48:	e009049a 	mul	r9, sl, r4
   1cf4c:	e1a0b80b 	lsl	fp, fp, #16
   1cf50:	e1a0b82b 	lsr	fp, fp, #16
   1cf54:	e18b1801 	orr	r1, fp, r1, lsl #16
   1cf58:	e1590001 	cmp	r9, r1
   1cf5c:	e59d3004 	ldr	r3, [sp, #4]
   1cf60:	9a000007 	bls	1cf84 <__divdi3+0x378>
   1cf64:	e0911008 	adds	r1, r1, r8
   1cf68:	e2442001 	sub	r2, r4, #1
   1cf6c:	2a000003 	bcs	1cf80 <__divdi3+0x374>
   1cf70:	e1590001 	cmp	r9, r1
   1cf74:	82444002 	subhi	r4, r4, #2
   1cf78:	80811008 	addhi	r1, r1, r8
   1cf7c:	8a000000 	bhi	1cf84 <__divdi3+0x378>
   1cf80:	e1a04002 	mov	r4, r2
   1cf84:	e0699001 	rsb	r9, r9, r1
   1cf88:	e1844803 	orr	r4, r4, r3, lsl #16
   1cf8c:	eaffff96 	b	1cdec <__divdi3+0x1e0>
   1cf90:	e2653020 	rsb	r3, r5, #32
   1cf94:	e1a0833a 	lsr	r8, sl, r3
   1cf98:	e1888511 	orr	r8, r8, r1, lsl r5
   1cf9c:	e1a0233b 	lsr	r2, fp, r3
   1cfa0:	e1a03337 	lsr	r3, r7, r3
   1cfa4:	e1a09828 	lsr	r9, r8, #16
   1cfa8:	e1a01009 	mov	r1, r9
   1cfac:	e1a00002 	mov	r0, r2
   1cfb0:	e183b51b 	orr	fp, r3, fp, lsl r5
   1cfb4:	e58d200c 	str	r2, [sp, #12]
   1cfb8:	ebfffd32 	bl	1c488 <__aeabi_uidiv>
   1cfbc:	e59d200c 	ldr	r2, [sp, #12]
   1cfc0:	e1a03000 	mov	r3, r0
   1cfc4:	e1a01009 	mov	r1, r9
   1cfc8:	e1a00002 	mov	r0, r2
   1cfcc:	e58d3004 	str	r3, [sp, #4]
   1cfd0:	ebfffd69 	bl	1c57c <__aeabi_uidivmod>
   1cfd4:	e1a04808 	lsl	r4, r8, #16
   1cfd8:	e59d3004 	ldr	r3, [sp, #4]
   1cfdc:	e1a04824 	lsr	r4, r4, #16
   1cfe0:	e0000394 	mul	r0, r4, r3
   1cfe4:	e1a0282b 	lsr	r2, fp, #16
   1cfe8:	e1821801 	orr	r1, r2, r1, lsl #16
   1cfec:	e1500001 	cmp	r0, r1
   1cff0:	e1a0a51a 	lsl	sl, sl, r5
   1cff4:	9a000006 	bls	1d014 <__divdi3+0x408>
   1cff8:	e0911008 	adds	r1, r1, r8
   1cffc:	e2432001 	sub	r2, r3, #1
   1d000:	2a000031 	bcs	1d0cc <__divdi3+0x4c0>
   1d004:	e1500001 	cmp	r0, r1
   1d008:	82433002 	subhi	r3, r3, #2
   1d00c:	80811008 	addhi	r1, r1, r8
   1d010:	9a00002d 	bls	1d0cc <__divdi3+0x4c0>
   1d014:	e060c001 	rsb	ip, r0, r1
   1d018:	e1a0000c 	mov	r0, ip
   1d01c:	e1a01009 	mov	r1, r9
   1d020:	e98d1008 	stmib	sp, {r3, ip}
   1d024:	ebfffd17 	bl	1c488 <__aeabi_uidiv>
   1d028:	e59dc008 	ldr	ip, [sp, #8]
   1d02c:	e1a02000 	mov	r2, r0
   1d030:	e1a01009 	mov	r1, r9
   1d034:	e1a0000c 	mov	r0, ip
   1d038:	e58d200c 	str	r2, [sp, #12]
   1d03c:	ebfffd4e 	bl	1c57c <__aeabi_uidivmod>
   1d040:	e59d200c 	ldr	r2, [sp, #12]
   1d044:	e0040492 	mul	r4, r2, r4
   1d048:	e1a0b80b 	lsl	fp, fp, #16
   1d04c:	e1a0c82b 	lsr	ip, fp, #16
   1d050:	e18cc801 	orr	ip, ip, r1, lsl #16
   1d054:	e154000c 	cmp	r4, ip
   1d058:	e59d3004 	ldr	r3, [sp, #4]
   1d05c:	9a000006 	bls	1d07c <__divdi3+0x470>
   1d060:	e09cc008 	adds	ip, ip, r8
   1d064:	e2421001 	sub	r1, r2, #1
   1d068:	2a000015 	bcs	1d0c4 <__divdi3+0x4b8>
   1d06c:	e154000c 	cmp	r4, ip
   1d070:	82422002 	subhi	r2, r2, #2
   1d074:	808cc008 	addhi	ip, ip, r8
   1d078:	9a000011 	bls	1d0c4 <__divdi3+0x4b8>
   1d07c:	e1821803 	orr	r1, r2, r3, lsl #16
   1d080:	e0832a91 	umull	r2, r3, r1, sl
   1d084:	e064400c 	rsb	r4, r4, ip
   1d088:	e1540003 	cmp	r4, r3
   1d08c:	3a000007 	bcc	1d0b0 <__divdi3+0x4a4>
   1d090:	13a04000 	movne	r4, #0
   1d094:	03a04001 	moveq	r4, #1
   1d098:	e1520517 	cmp	r2, r7, lsl r5
   1d09c:	93a04000 	movls	r4, #0
   1d0a0:	82044001 	andhi	r4, r4, #1
   1d0a4:	e3540000 	cmp	r4, #0
   1d0a8:	01a03001 	moveq	r3, r1
   1d0ac:	0affff22 	beq	1cd3c <__divdi3+0x130>
   1d0b0:	e2413001 	sub	r3, r1, #1
   1d0b4:	e3a04000 	mov	r4, #0
   1d0b8:	eaffff1f 	b	1cd3c <__divdi3+0x130>
   1d0bc:	e1a0b003 	mov	fp, r3
   1d0c0:	eaffff5c 	b	1ce38 <__divdi3+0x22c>
   1d0c4:	e1a02001 	mov	r2, r1
   1d0c8:	eaffffeb 	b	1d07c <__divdi3+0x470>
   1d0cc:	e1a03002 	mov	r3, r2
   1d0d0:	eaffffcf 	b	1d014 <__divdi3+0x408>
   1d0d4:	e1a03002 	mov	r3, r2
   1d0d8:	eaffff91 	b	1cf24 <__divdi3+0x318>

0001d0dc <__udivdi3>:
   1d0dc:	e92d4ff0 	push	{r4, r5, r6, r7, r8, r9, sl, fp, lr}
   1d0e0:	e3530000 	cmp	r3, #0
   1d0e4:	e24dd00c 	sub	sp, sp, #12
   1d0e8:	e1a07003 	mov	r7, r3
   1d0ec:	e1a08000 	mov	r8, r0
   1d0f0:	e1a05001 	mov	r5, r1
   1d0f4:	e1a06002 	mov	r6, r2
   1d0f8:	e1a04002 	mov	r4, r2
   1d0fc:	e1a09000 	mov	r9, r0
   1d100:	e1a0a001 	mov	sl, r1
   1d104:	1a00003a 	bne	1d1f4 <__udivdi3+0x118>
   1d108:	e1520001 	cmp	r2, r1
   1d10c:	9a000048 	bls	1d234 <__udivdi3+0x158>
   1d110:	e1a00002 	mov	r0, r2
   1d114:	eb00010c 	bl	1d54c <__clzsi2>
   1d118:	e3500000 	cmp	r0, #0
   1d11c:	1260a020 	rsbne	sl, r0, #32
   1d120:	11a0aa38 	lsrne	sl, r8, sl
   1d124:	11a04016 	lslne	r4, r6, r0
   1d128:	118aa015 	orrne	sl, sl, r5, lsl r0
   1d12c:	e1a05824 	lsr	r5, r4, #16
   1d130:	11a09018 	lslne	r9, r8, r0
   1d134:	e1a01005 	mov	r1, r5
   1d138:	e1a0000a 	mov	r0, sl
   1d13c:	ebfffcd1 	bl	1c488 <__aeabi_uidiv>
   1d140:	e1a01005 	mov	r1, r5
   1d144:	e1a07000 	mov	r7, r0
   1d148:	e1a0000a 	mov	r0, sl
   1d14c:	ebfffd0a 	bl	1c57c <__aeabi_uidivmod>
   1d150:	e1a08804 	lsl	r8, r4, #16
   1d154:	e1a08828 	lsr	r8, r8, #16
   1d158:	e0000798 	mul	r0, r8, r7
   1d15c:	e1a03829 	lsr	r3, r9, #16
   1d160:	e1831801 	orr	r1, r3, r1, lsl #16
   1d164:	e1500001 	cmp	r0, r1
   1d168:	9a000007 	bls	1d18c <__udivdi3+0xb0>
   1d16c:	e0911004 	adds	r1, r1, r4
   1d170:	e2472001 	sub	r2, r7, #1
   1d174:	2a000003 	bcs	1d188 <__udivdi3+0xac>
   1d178:	e1500001 	cmp	r0, r1
   1d17c:	82477002 	subhi	r7, r7, #2
   1d180:	80811004 	addhi	r1, r1, r4
   1d184:	8a000000 	bhi	1d18c <__udivdi3+0xb0>
   1d188:	e1a07002 	mov	r7, r2
   1d18c:	e060a001 	rsb	sl, r0, r1
   1d190:	e1a0000a 	mov	r0, sl
   1d194:	e1a01005 	mov	r1, r5
   1d198:	ebfffcba 	bl	1c488 <__aeabi_uidiv>
   1d19c:	e1a01005 	mov	r1, r5
   1d1a0:	e1a06000 	mov	r6, r0
   1d1a4:	e1a0000a 	mov	r0, sl
   1d1a8:	ebfffcf3 	bl	1c57c <__aeabi_uidivmod>
   1d1ac:	e0080896 	mul	r8, r6, r8
   1d1b0:	e1a09809 	lsl	r9, r9, #16
   1d1b4:	e1a09829 	lsr	r9, r9, #16
   1d1b8:	e1891801 	orr	r1, r9, r1, lsl #16
   1d1bc:	e1580001 	cmp	r8, r1
   1d1c0:	9a000005 	bls	1d1dc <__udivdi3+0x100>
   1d1c4:	e0914004 	adds	r4, r1, r4
   1d1c8:	e2463001 	sub	r3, r6, #1
   1d1cc:	2a0000cc 	bcs	1d504 <__udivdi3+0x428>
   1d1d0:	e1580004 	cmp	r8, r4
   1d1d4:	82466002 	subhi	r6, r6, #2
   1d1d8:	9a0000c9 	bls	1d504 <__udivdi3+0x428>
   1d1dc:	e1860807 	orr	r0, r6, r7, lsl #16
   1d1e0:	e3a06000 	mov	r6, #0
   1d1e4:	e1a01006 	mov	r1, r6
   1d1e8:	e28dd00c 	add	sp, sp, #12
   1d1ec:	e8bd4ff0 	pop	{r4, r5, r6, r7, r8, r9, sl, fp, lr}
   1d1f0:	e12fff1e 	bx	lr
   1d1f4:	e1530001 	cmp	r3, r1
   1d1f8:	83a06000 	movhi	r6, #0
   1d1fc:	81a00006 	movhi	r0, r6
   1d200:	8afffff7 	bhi	1d1e4 <__udivdi3+0x108>
   1d204:	e1a00003 	mov	r0, r3
   1d208:	eb0000cf 	bl	1d54c <__clzsi2>
   1d20c:	e2509000 	subs	r9, r0, #0
   1d210:	1a000042 	bne	1d320 <__udivdi3+0x244>
   1d214:	e1570005 	cmp	r7, r5
   1d218:	21560008 	cmpcs	r6, r8
   1d21c:	83a06000 	movhi	r6, #0
   1d220:	93a06001 	movls	r6, #1
   1d224:	93a00001 	movls	r0, #1
   1d228:	91a06009 	movls	r6, r9
   1d22c:	81a00006 	movhi	r0, r6
   1d230:	eaffffeb 	b	1d1e4 <__udivdi3+0x108>
   1d234:	e3520000 	cmp	r2, #0
   1d238:	1a000003 	bne	1d24c <__udivdi3+0x170>
   1d23c:	e1a01002 	mov	r1, r2
   1d240:	e3a00001 	mov	r0, #1
   1d244:	ebfffc8f 	bl	1c488 <__aeabi_uidiv>
   1d248:	e1a04000 	mov	r4, r0
   1d24c:	e1a00004 	mov	r0, r4
   1d250:	eb0000bd 	bl	1d54c <__clzsi2>
   1d254:	e2503000 	subs	r3, r0, #0
   1d258:	1a000074 	bne	1d430 <__udivdi3+0x354>
   1d25c:	e1a0a804 	lsl	sl, r4, #16
   1d260:	e0645005 	rsb	r5, r4, r5
   1d264:	e1a0a82a 	lsr	sl, sl, #16
   1d268:	e1a07824 	lsr	r7, r4, #16
   1d26c:	e3a06001 	mov	r6, #1
   1d270:	e1a01007 	mov	r1, r7
   1d274:	e1a00005 	mov	r0, r5
   1d278:	ebfffc82 	bl	1c488 <__aeabi_uidiv>
   1d27c:	e1a01007 	mov	r1, r7
   1d280:	e1a08000 	mov	r8, r0
   1d284:	e1a00005 	mov	r0, r5
   1d288:	ebfffcbb 	bl	1c57c <__aeabi_uidivmod>
   1d28c:	e000089a 	mul	r0, sl, r8
   1d290:	e1a03829 	lsr	r3, r9, #16
   1d294:	e1831801 	orr	r1, r3, r1, lsl #16
   1d298:	e1500001 	cmp	r0, r1
   1d29c:	9a000006 	bls	1d2bc <__udivdi3+0x1e0>
   1d2a0:	e0911004 	adds	r1, r1, r4
   1d2a4:	e2482001 	sub	r2, r8, #1
   1d2a8:	2a000097 	bcs	1d50c <__udivdi3+0x430>
   1d2ac:	e1500001 	cmp	r0, r1
   1d2b0:	82488002 	subhi	r8, r8, #2
   1d2b4:	80811004 	addhi	r1, r1, r4
   1d2b8:	9a000093 	bls	1d50c <__udivdi3+0x430>
   1d2bc:	e060b001 	rsb	fp, r0, r1
   1d2c0:	e1a0000b 	mov	r0, fp
   1d2c4:	e1a01007 	mov	r1, r7
   1d2c8:	ebfffc6e 	bl	1c488 <__aeabi_uidiv>
   1d2cc:	e1a01007 	mov	r1, r7
   1d2d0:	e1a05000 	mov	r5, r0
   1d2d4:	e1a0000b 	mov	r0, fp
   1d2d8:	ebfffca7 	bl	1c57c <__aeabi_uidivmod>
   1d2dc:	e00a0a95 	mul	sl, r5, sl
   1d2e0:	e1a09809 	lsl	r9, r9, #16
   1d2e4:	e1a09829 	lsr	r9, r9, #16
   1d2e8:	e1891801 	orr	r1, r9, r1, lsl #16
   1d2ec:	e15a0001 	cmp	sl, r1
   1d2f0:	9a000005 	bls	1d30c <__udivdi3+0x230>
   1d2f4:	e0914004 	adds	r4, r1, r4
   1d2f8:	e2453001 	sub	r3, r5, #1
   1d2fc:	2a000084 	bcs	1d514 <__udivdi3+0x438>
   1d300:	e15a0004 	cmp	sl, r4
   1d304:	82455002 	subhi	r5, r5, #2
   1d308:	9a000081 	bls	1d514 <__udivdi3+0x438>
   1d30c:	e1850808 	orr	r0, r5, r8, lsl #16
   1d310:	e1a01006 	mov	r1, r6
   1d314:	e28dd00c 	add	sp, sp, #12
   1d318:	e8bd4ff0 	pop	{r4, r5, r6, r7, r8, r9, sl, fp, lr}
   1d31c:	e12fff1e 	bx	lr
   1d320:	e2693020 	rsb	r3, r9, #32
   1d324:	e1a02336 	lsr	r2, r6, r3
   1d328:	e1827917 	orr	r7, r2, r7, lsl r9
   1d32c:	e1a02335 	lsr	r2, r5, r3
   1d330:	e1a03338 	lsr	r3, r8, r3
   1d334:	e1a04827 	lsr	r4, r7, #16
   1d338:	e1a01004 	mov	r1, r4
   1d33c:	e1a00002 	mov	r0, r2
   1d340:	e1835915 	orr	r5, r3, r5, lsl r9
   1d344:	e58d2004 	str	r2, [sp, #4]
   1d348:	ebfffc4e 	bl	1c488 <__aeabi_uidiv>
   1d34c:	e59d2004 	ldr	r2, [sp, #4]
   1d350:	e1a0b000 	mov	fp, r0
   1d354:	e1a01004 	mov	r1, r4
   1d358:	e1a00002 	mov	r0, r2
   1d35c:	ebfffc86 	bl	1c57c <__aeabi_uidivmod>
   1d360:	e1a0a807 	lsl	sl, r7, #16
   1d364:	e1a0a82a 	lsr	sl, sl, #16
   1d368:	e0000b9a 	mul	r0, sl, fp
   1d36c:	e1a03825 	lsr	r3, r5, #16
   1d370:	e1831801 	orr	r1, r3, r1, lsl #16
   1d374:	e1500001 	cmp	r0, r1
   1d378:	e1a06916 	lsl	r6, r6, r9
   1d37c:	9a000003 	bls	1d390 <__udivdi3+0x2b4>
   1d380:	e0911007 	adds	r1, r1, r7
   1d384:	e24b2001 	sub	r2, fp, #1
   1d388:	3a000068 	bcc	1d530 <__udivdi3+0x454>
   1d38c:	e1a0b002 	mov	fp, r2
   1d390:	e0603001 	rsb	r3, r0, r1
   1d394:	e1a00003 	mov	r0, r3
   1d398:	e1a01004 	mov	r1, r4
   1d39c:	e58d3004 	str	r3, [sp, #4]
   1d3a0:	ebfffc38 	bl	1c488 <__aeabi_uidiv>
   1d3a4:	e59d3004 	ldr	r3, [sp, #4]
   1d3a8:	e1a02000 	mov	r2, r0
   1d3ac:	e1a01004 	mov	r1, r4
   1d3b0:	e1a00003 	mov	r0, r3
   1d3b4:	e58d2004 	str	r2, [sp, #4]
   1d3b8:	ebfffc6f 	bl	1c57c <__aeabi_uidivmod>
   1d3bc:	e59d2004 	ldr	r2, [sp, #4]
   1d3c0:	e00a0a92 	mul	sl, r2, sl
   1d3c4:	e1a05805 	lsl	r5, r5, #16
   1d3c8:	e1a05825 	lsr	r5, r5, #16
   1d3cc:	e1851801 	orr	r1, r5, r1, lsl #16
   1d3d0:	e15a0001 	cmp	sl, r1
   1d3d4:	9a000003 	bls	1d3e8 <__udivdi3+0x30c>
   1d3d8:	e0911007 	adds	r1, r1, r7
   1d3dc:	e2423001 	sub	r3, r2, #1
   1d3e0:	3a00004d 	bcc	1d51c <__udivdi3+0x440>
   1d3e4:	e1a02003 	mov	r2, r3
   1d3e8:	e182080b 	orr	r0, r2, fp, lsl #16
   1d3ec:	e0854690 	umull	r4, r5, r0, r6
   1d3f0:	e06aa001 	rsb	sl, sl, r1
   1d3f4:	e15a0005 	cmp	sl, r5
   1d3f8:	3a000006 	bcc	1d418 <__udivdi3+0x33c>
   1d3fc:	13a06000 	movne	r6, #0
   1d400:	03a06001 	moveq	r6, #1
   1d404:	e1540918 	cmp	r4, r8, lsl r9
   1d408:	93a06000 	movls	r6, #0
   1d40c:	82066001 	andhi	r6, r6, #1
   1d410:	e3560000 	cmp	r6, #0
   1d414:	0affff72 	beq	1d1e4 <__udivdi3+0x108>
   1d418:	e3a06000 	mov	r6, #0
   1d41c:	e2400001 	sub	r0, r0, #1
   1d420:	e1a01006 	mov	r1, r6
   1d424:	e28dd00c 	add	sp, sp, #12
   1d428:	e8bd4ff0 	pop	{r4, r5, r6, r7, r8, r9, sl, fp, lr}
   1d42c:	e12fff1e 	bx	lr
   1d430:	e1a04314 	lsl	r4, r4, r3
   1d434:	e263b020 	rsb	fp, r3, #32
   1d438:	e1a06b35 	lsr	r6, r5, fp
   1d43c:	e1a0bb38 	lsr	fp, r8, fp
   1d440:	e1a07824 	lsr	r7, r4, #16
   1d444:	e1a01007 	mov	r1, r7
   1d448:	e1a00006 	mov	r0, r6
   1d44c:	e1a09318 	lsl	r9, r8, r3
   1d450:	e18bb315 	orr	fp, fp, r5, lsl r3
   1d454:	ebfffc0b 	bl	1c488 <__aeabi_uidiv>
   1d458:	e1a01007 	mov	r1, r7
   1d45c:	e1a08000 	mov	r8, r0
   1d460:	e1a00006 	mov	r0, r6
   1d464:	ebfffc44 	bl	1c57c <__aeabi_uidivmod>
   1d468:	e1a0a804 	lsl	sl, r4, #16
   1d46c:	e1a0a82a 	lsr	sl, sl, #16
   1d470:	e000089a 	mul	r0, sl, r8
   1d474:	e1a0382b 	lsr	r3, fp, #16
   1d478:	e1831801 	orr	r1, r3, r1, lsl #16
   1d47c:	e1500001 	cmp	r0, r1
   1d480:	9a000006 	bls	1d4a0 <__udivdi3+0x3c4>
   1d484:	e0911004 	adds	r1, r1, r4
   1d488:	e2483001 	sub	r3, r8, #1
   1d48c:	2a00002c 	bcs	1d544 <__udivdi3+0x468>
   1d490:	e1500001 	cmp	r0, r1
   1d494:	82488002 	subhi	r8, r8, #2
   1d498:	80811004 	addhi	r1, r1, r4
   1d49c:	9a000028 	bls	1d544 <__udivdi3+0x468>
   1d4a0:	e0605001 	rsb	r5, r0, r1
   1d4a4:	e1a00005 	mov	r0, r5
   1d4a8:	e1a01007 	mov	r1, r7
   1d4ac:	ebfffbf5 	bl	1c488 <__aeabi_uidiv>
   1d4b0:	e1a01007 	mov	r1, r7
   1d4b4:	e1a06000 	mov	r6, r0
   1d4b8:	e1a00005 	mov	r0, r5
   1d4bc:	ebfffc2e 	bl	1c57c <__aeabi_uidivmod>
   1d4c0:	e005069a 	mul	r5, sl, r6
   1d4c4:	e1a0b80b 	lsl	fp, fp, #16
   1d4c8:	e1a0b82b 	lsr	fp, fp, #16
   1d4cc:	e18b1801 	orr	r1, fp, r1, lsl #16
   1d4d0:	e1550001 	cmp	r5, r1
   1d4d4:	9a000007 	bls	1d4f8 <__udivdi3+0x41c>
   1d4d8:	e0911004 	adds	r1, r1, r4
   1d4dc:	e2463001 	sub	r3, r6, #1
   1d4e0:	2a000003 	bcs	1d4f4 <__udivdi3+0x418>
   1d4e4:	e1550001 	cmp	r5, r1
   1d4e8:	82466002 	subhi	r6, r6, #2
   1d4ec:	80811004 	addhi	r1, r1, r4
   1d4f0:	8a000000 	bhi	1d4f8 <__udivdi3+0x41c>
   1d4f4:	e1a06003 	mov	r6, r3
   1d4f8:	e0655001 	rsb	r5, r5, r1
   1d4fc:	e1866808 	orr	r6, r6, r8, lsl #16
   1d500:	eaffff5a 	b	1d270 <__udivdi3+0x194>
   1d504:	e1a06003 	mov	r6, r3
   1d508:	eaffff33 	b	1d1dc <__udivdi3+0x100>
   1d50c:	e1a08002 	mov	r8, r2
   1d510:	eaffff69 	b	1d2bc <__udivdi3+0x1e0>
   1d514:	e1a05003 	mov	r5, r3
   1d518:	eaffff7b 	b	1d30c <__udivdi3+0x230>
   1d51c:	e15a0001 	cmp	sl, r1
   1d520:	82422002 	subhi	r2, r2, #2
   1d524:	80811007 	addhi	r1, r1, r7
   1d528:	8affffae 	bhi	1d3e8 <__udivdi3+0x30c>
   1d52c:	eaffffac 	b	1d3e4 <__udivdi3+0x308>
   1d530:	e1500001 	cmp	r0, r1
   1d534:	824bb002 	subhi	fp, fp, #2
   1d538:	80811007 	addhi	r1, r1, r7
   1d53c:	8affff93 	bhi	1d390 <__udivdi3+0x2b4>
   1d540:	eaffff91 	b	1d38c <__udivdi3+0x2b0>
   1d544:	e1a08003 	mov	r8, r3
   1d548:	eaffffd4 	b	1d4a0 <__udivdi3+0x3c4>

0001d54c <__clzsi2>:
   1d54c:	e3a0101c 	mov	r1, #28
   1d550:	e3500801 	cmp	r0, #65536	; 0x10000
   1d554:	21a00820 	lsrcs	r0, r0, #16
   1d558:	22411010 	subcs	r1, r1, #16
   1d55c:	e3500c01 	cmp	r0, #256	; 0x100
   1d560:	21a00420 	lsrcs	r0, r0, #8
   1d564:	22411008 	subcs	r1, r1, #8
   1d568:	e3500010 	cmp	r0, #16
   1d56c:	21a00220 	lsrcs	r0, r0, #4
   1d570:	22411004 	subcs	r1, r1, #4
   1d574:	e28f2008 	add	r2, pc, #8
   1d578:	e7d20000 	ldrb	r0, [r2, r0]
   1d57c:	e0800001 	add	r0, r0, r1
   1d580:	e12fff1e 	bx	lr
   1d584:	02020304 	andeq	r0, r2, #4, 6	; 0x10000000
   1d588:	01010101 	tsteq	r1, r1, lsl #2
	...

Disassembly of section .rodata:

0001d594 <RDM_DEVICE_FILE_NAME>:
   1d594:	5f6d6472 	svcpl	0x006d6472
   1d598:	69766564 	ldmdbvs	r6!, {r2, r5, r6, r8, sl, sp, lr}^
   1d59c:	742e6563 	strtvc	r6, [lr], #-1379	; 0x563
   1d5a0:	00007478 	andeq	r7, r0, r8, ror r4

0001d5a4 <RDM_DEVICE_MANUFACTURER_NAME>:
   1d5a4:	756e616d 	strbvc	r6, [lr, #-365]!	; 0x16d
   1d5a8:	74636166 	strbtvc	r6, [r3], #-358	; 0x166
   1d5ac:	72657275 	rsbvc	r7, r5, #1342177287	; 0x50000007
   1d5b0:	6d616e5f 	stclvs	14, cr6, [r1, #-380]!	; 0xfffffe84
   1d5b4:	00000065 	andeq	r0, r0, r5, rrx

0001d5b8 <RDM_DEVICE_MANUFACTURER_ID>:
   1d5b8:	756e616d 	strbvc	r6, [lr, #-365]!	; 0x16d
   1d5bc:	74636166 	strbtvc	r6, [r3], #-358	; 0x166
   1d5c0:	72657275 	rsbvc	r7, r5, #1342177287	; 0x50000007
   1d5c4:	0064695f 	rsbeq	r6, r4, pc, asr r9

0001d5c8 <DEVICE_LABEL>:
   1d5c8:	70736152 	rsbsvc	r6, r3, r2, asr r1
   1d5cc:	72726562 	rsbsvc	r6, r2, #411041792	; 0x18800000
   1d5d0:	69502079 	ldmdbvs	r0, {r0, r3, r4, r5, r6, sp}^
   1d5d4:	584d4420 	stmdapl	sp, {r5, sl, lr}^
   1d5d8:	42535520 	subsmi	r5, r3, #32, 10	; 0x8000000
   1d5dc:	6f725020 	svcvs	0x00725020
   1d5e0:	00000000 	andeq	r0, r0, r0

0001d5e4 <PARAMS_FILE_NAME>:
   1d5e4:	61726170 	cmnvs	r2, r0, ror r1
   1d5e8:	742e736d 	strtvc	r7, [lr], #-877	; 0x36d
   1d5ec:	00007478 	andeq	r7, r0, r8, ror r4

0001d5f0 <DMXUSBPRO_PARAMS_BREAK_TIME>:
   1d5f0:	75786d64 	ldrbvc	r6, [r8, #-3428]!	; 0xd64
   1d5f4:	72706273 	rsbsvc	r6, r0, #805306375	; 0x30000007
   1d5f8:	72625f6f 	rsbvc	r5, r2, #444	; 0x1bc
   1d5fc:	5f6b6165 	svcpl	0x006b6165
   1d600:	656d6974 	strbvs	r6, [sp, #-2420]!	; 0x974
   1d604:	00000000 	andeq	r0, r0, r0

0001d608 <DMXUSBPRO_PARAMS_MAB_TIME>:
   1d608:	75786d64 	ldrbvc	r6, [r8, #-3428]!	; 0xd64
   1d60c:	72706273 	rsbsvc	r6, r0, #805306375	; 0x30000007
   1d610:	616d5f6f 	cmnvs	sp, pc, ror #30
   1d614:	69745f62 	ldmdbvs	r4!, {r1, r5, r6, r8, r9, sl, fp, ip, lr}^
   1d618:	0000656d 	andeq	r6, r0, sp, ror #10

0001d61c <DMXUSBPRO_PARAMS_REFRESH_RATE>:
   1d61c:	75786d64 	ldrbvc	r6, [r8, #-3428]!	; 0xd64
   1d620:	72706273 	rsbsvc	r6, r0, #805306375	; 0x30000007
   1d624:	65725f6f 	ldrbvs	r5, [r2, #-3951]!	; 0xf6f
   1d628:	73657266 	cmnvc	r5, #1610612742	; 0x60000006
   1d62c:	61725f68 	cmnvs	r2, r8, ror #30
   1d630:	00006574 	andeq	r6, r0, r4, ror r5

0001d634 <PARAMS_WIDGET_MODE>:
   1d634:	67646977 			; <UNDEFINED> instruction: 0x67646977
   1d638:	6d5f7465 	cfldrdvs	mvd7, [pc, #-404]	; 1d4ac <__udivdi3+0x3d0>
   1d63c:	0065646f 	rsbeq	r6, r5, pc, ror #8

0001d640 <PARAMS_DMX_SEND_TO_HOST_THROTTLE>:
   1d640:	5f786d64 	svcpl	0x00786d64
   1d644:	646e6573 	strbtvs	r6, [lr], #-1395	; 0x573
   1d648:	5f6f745f 	svcpl	0x006f745f
   1d64c:	74736f68 	ldrbtvc	r6, [r3], #-3944	; 0xf68
   1d650:	7268745f 	rsbvc	r7, r8, #1593835520	; 0x5f000000
   1d654:	6c74746f 	cfldrdvs	mvd7, [r4], #-444	; 0xfffffe44
   1d658:	00000065 	andeq	r0, r0, r5, rrx

0001d65c <DEVICE_TYPE_ID>:
   1d65c:	00000001 	andeq	r0, r0, r1

0001d660 <poll_table>:
   1d660:	0000b270 	andeq	fp, r0, r0, ror r2
   1d664:	0000ad84 	andeq	sl, r0, r4, lsl #27
   1d668:	0000b1e8 	andeq	fp, r0, r8, ror #3
   1d66c:	0000ae70 	andeq	sl, r0, r0, ror lr
   1d670:	0000b164 	andeq	fp, r0, r4, ror #2
   1d674:	0000aac0 	andeq	sl, r0, r0, asr #21
   1d678:	0000a954 	andeq	sl, r0, r4, asr r9
   1d67c:	00019678 	andeq	r9, r1, r8, ror r6

0001d680 <events>:
   1d680:	000f4240 	andeq	r4, pc, r0, asr #4
   1d684:	0000a480 	andeq	sl, r0, r0, lsl #9

0001d688 <LfnOfs>:
   1d688:	07050301 	streq	r0, [r5, -r1, lsl #6]
   1d68c:	12100e09 	andsne	r0, r0, #9, 28	; 0x90
   1d690:	1c181614 	ldcne	6, cr1, [r8], {20}
   1d694:	0000001e 	andeq	r0, r0, lr, lsl r0

0001d698 <ExCvt>:
   1d698:	b6909a80 	ldrlt	r9, [r0], r0, lsl #21
   1d69c:	808fb78e 	addhi	fp, pc, lr, lsl #15
   1d6a0:	d8d4d3d2 	ldmle	r4, {r1, r4, r6, r7, r8, r9, ip, lr, pc}^
   1d6a4:	8f8eded7 	svchi	0x008eded7
   1d6a8:	e2929290 	adds	r9, r2, #144, 4
   1d6ac:	ebeae399 	bl	ffad6518 <__ram_end+0xf7ad6518>
   1d6b0:	9d9a9959 	ldcls	9, cr9, [sl, #356]	; 0x164
   1d6b4:	9f9e9d9c 	svcls	0x009e9d9c
   1d6b8:	e9e0d6b5 	stmib	r0!, {r0, r2, r4, r5, r7, r9, sl, ip, lr, pc}^
   1d6bc:	a7a6a5a5 	strge	sl, [r6, r5, lsr #11]!
   1d6c0:	abaaa9a8 	blge	feac7d68 <__ram_end+0xf6ac7d68>
   1d6c4:	afae21ac 	svcge	0x00ae21ac
   1d6c8:	b3b2b1b0 			; <UNDEFINED> instruction: 0xb3b2b1b0
   1d6cc:	b7b6b5b4 			; <UNDEFINED> instruction: 0xb7b6b5b4
   1d6d0:	bbbab9b8 	bllt	feecbdb8 <__ram_end+0xf6ecbdb8>
   1d6d4:	bfbebdbc 	svclt	0x00bebdbc
   1d6d8:	c3c2c1c0 	bicgt	ip, r2, #192, 2	; 0x30
   1d6dc:	c7c7c5c4 	strbgt	ip, [r7, r4, asr #11]
   1d6e0:	cbcac9c8 	blgt	ff2cfe08 <__ram_end+0xf72cfe08>
   1d6e4:	cfcecdcc 	svcgt	0x00cecdcc
   1d6e8:	d3d2d1d0 	bicsle	sp, r2, #208, 2	; 0x34
   1d6ec:	d7d6d5d4 			; <UNDEFINED> instruction: 0xd7d6d5d4
   1d6f0:	dbdad9d8 	blle	ff6d3e58 <__ram_end+0xf76d3e58>
   1d6f4:	dfdedddc 	svcle	0x00dedddc
   1d6f8:	e3e2e1e0 	mvn	lr, #224, 2	; 0x38
   1d6fc:	e7e6e5e5 	strb	lr, [r6, r5, ror #11]!
   1d700:	ebeae9e7 	bl	ffad7ea4 <__ram_end+0xf7ad7ea4>
   1d704:	efeeeded 	svc	0x00eeeded
   1d708:	f3f2f1f0 	vsra.u64	<illegal reg q15.5>, q8, #14
   1d70c:	f7f6f5f4 			; <UNDEFINED> instruction: 0xf7f6f5f4
   1d710:	fbfaf9f8 	blx	ffedbefa <__ram_end+0xf7edbefa>
   1d714:	fffefdfc 			; <UNDEFINED> instruction: 0xfffefdfc

0001d718 <Tbl>:
   1d718:	00fc00c7 	rscseq	r0, ip, r7, asr #1
   1d71c:	00e200e9 	rsceq	r0, r2, r9, ror #1
   1d720:	00e000e4 	rsceq	r0, r0, r4, ror #1
   1d724:	00e700e5 	rsceq	r0, r7, r5, ror #1
   1d728:	00eb00ea 	rsceq	r0, fp, sl, ror #1
   1d72c:	00ef00e8 	rsceq	r0, pc, r8, ror #1
   1d730:	00ec00ee 	rsceq	r0, ip, lr, ror #1
   1d734:	00c500c4 	sbceq	r0, r5, r4, asr #1
   1d738:	00e600c9 	rsceq	r0, r6, r9, asr #1
   1d73c:	00f400c6 	rscseq	r0, r4, r6, asr #1
   1d740:	00f200f6 	ldrshteq	r0, [r2], #6
   1d744:	00f900fb 	ldrshteq	r0, [r9], #11
   1d748:	00d600ff 	ldrsheq	r0, [r6], #15
   1d74c:	00f800dc 	ldrsbteq	r0, [r8], #12
   1d750:	00d800a3 	sbcseq	r0, r8, r3, lsr #1
   1d754:	019200d7 	ldrsbeq	r0, [r2, r7]
   1d758:	00ed00e1 	rsceq	r0, sp, r1, ror #1
   1d75c:	00fa00f3 	ldrshteq	r0, [sl], #3
   1d760:	00d100f1 	ldrsheq	r0, [r1], #1
   1d764:	00ba00aa 	adcseq	r0, sl, sl, lsr #1
   1d768:	00ae00bf 	strhteq	r0, [lr], pc
   1d76c:	00bd00ac 	adcseq	r0, sp, ip, lsr #1
   1d770:	00a100bc 	strhteq	r0, [r1], ip
   1d774:	00bb00ab 	adcseq	r0, fp, fp, lsr #1
   1d778:	25922591 	ldrcs	r2, [r2, #1425]	; 0x591
   1d77c:	25022593 	strcs	r2, [r2, #-1427]	; 0x593
   1d780:	00c12524 	sbceq	r2, r1, r4, lsr #10
   1d784:	00c000c2 	sbceq	r0, r0, r2, asr #1
   1d788:	256300a9 	strbcs	r0, [r3, #-169]!	; 0xa9
   1d78c:	25572551 	ldrbcs	r2, [r7, #-1361]	; 0x551
   1d790:	00a2255d 	adceq	r2, r2, sp, asr r5
   1d794:	251000a5 	ldrcs	r0, [r0, #-165]	; 0xa5
   1d798:	25342514 	ldrcs	r2, [r4, #-1300]!	; 0x514
   1d79c:	251c252c 	ldrcs	r2, [ip, #-1324]	; 0x52c
   1d7a0:	253c2500 	ldrcs	r2, [ip, #-1280]!	; 0x500
   1d7a4:	00c300e3 	sbceq	r0, r3, r3, ror #1
   1d7a8:	2554255a 	ldrbcs	r2, [r4, #-1370]	; 0x55a
   1d7ac:	25662569 	strbcs	r2, [r6, #-1385]!	; 0x569
   1d7b0:	25502560 	ldrbcs	r2, [r0, #-1376]	; 0x560
   1d7b4:	00a4256c 	adceq	r2, r4, ip, ror #10
   1d7b8:	00d000f0 	ldrsheq	r0, [r0], #0
   1d7bc:	00cb00ca 	sbceq	r0, fp, sl, asr #1
   1d7c0:	013100c8 	teqeq	r1, r8, asr #1
   1d7c4:	00ce00cd 	sbceq	r0, lr, sp, asr #1
   1d7c8:	251800cf 	ldrcs	r0, [r8, #-207]	; 0xcf
   1d7cc:	2588250c 	strcs	r2, [r8, #1292]	; 0x50c
   1d7d0:	00a62584 	adceq	r2, r6, r4, lsl #11
   1d7d4:	258000cc 	strcs	r0, [r0, #204]	; 0xcc
   1d7d8:	00df00d3 	ldrsbeq	r0, [pc], #3	; <UNPREDICTABLE>
   1d7dc:	00d200d4 	ldrsbeq	r0, [r2], #4
   1d7e0:	00d500f5 	ldrsheq	r0, [r5], #5
   1d7e4:	00fe00b5 	ldrhteq	r0, [lr], #5
   1d7e8:	00da00de 	ldrsbeq	r0, [sl], #14
   1d7ec:	00d900db 	ldrsbeq	r0, [r9], #11
   1d7f0:	00dd00fd 	ldrsheq	r0, [sp], #13
   1d7f4:	00b400af 	adcseq	r0, r4, pc, lsr #1
   1d7f8:	00b100ad 	adcseq	r0, r1, sp, lsr #1
   1d7fc:	00be2017 	adcseq	r2, lr, r7, lsl r0
   1d800:	00a700b6 	strhteq	r0, [r7], r6
   1d804:	00b800f7 	ldrshteq	r0, [r8], r7
   1d808:	00a800b0 	strhteq	r0, [r8], r0
   1d80c:	00b900b7 	ldrhteq	r0, [r9], r7
   1d810:	00b200b3 	ldrhteq	r0, [r2], r3
   1d814:	00a025a0 	adceq	r2, r0, r0, lsr #11

0001d818 <tbl_lower.3817>:
   1d818:	00620061 	rsbeq	r0, r2, r1, rrx
   1d81c:	00640063 	rsbeq	r0, r4, r3, rrx
   1d820:	00660065 	rsbeq	r0, r6, r5, rrx
   1d824:	00680067 	rsbeq	r0, r8, r7, rrx
   1d828:	006a0069 	rsbeq	r0, sl, r9, rrx
   1d82c:	006c006b 	rsbeq	r0, ip, fp, rrx
   1d830:	006e006d 	rsbeq	r0, lr, sp, rrx
   1d834:	0070006f 	rsbseq	r0, r0, pc, rrx
   1d838:	00720071 	rsbseq	r0, r2, r1, ror r0
   1d83c:	00740073 	rsbseq	r0, r4, r3, ror r0
   1d840:	00760075 	rsbseq	r0, r6, r5, ror r0
   1d844:	00780077 	rsbseq	r0, r8, r7, ror r0
   1d848:	007a0079 	rsbseq	r0, sl, r9, ror r0
   1d84c:	00a200a1 	adceq	r0, r2, r1, lsr #1
   1d850:	00a500a3 	adceq	r0, r5, r3, lsr #1
   1d854:	00af00ac 	adceq	r0, pc, ip, lsr #1
   1d858:	00e100e0 	rsceq	r0, r1, r0, ror #1
   1d85c:	00e300e2 	rsceq	r0, r3, r2, ror #1
   1d860:	00e500e4 	rsceq	r0, r5, r4, ror #1
   1d864:	00e700e6 	rsceq	r0, r7, r6, ror #1
   1d868:	00e900e8 	rsceq	r0, r9, r8, ror #1
   1d86c:	00eb00ea 	rsceq	r0, fp, sl, ror #1
   1d870:	00ed00ec 	rsceq	r0, sp, ip, ror #1
   1d874:	00ef00ee 	rsceq	r0, pc, lr, ror #1
   1d878:	00f100f0 	ldrshteq	r0, [r1], #0
   1d87c:	00f300f2 	ldrshteq	r0, [r3], #2
   1d880:	00f500f4 	ldrshteq	r0, [r5], #4
   1d884:	00f800f6 	ldrshteq	r0, [r8], #6
   1d888:	00fa00f9 	ldrshteq	r0, [sl], #9
   1d88c:	00fc00fb 	ldrshteq	r0, [ip], #11
   1d890:	00fe00fd 	ldrshteq	r0, [lr], #13
   1d894:	010100ff 	strdeq	r0, [r1, -pc]
   1d898:	01050103 	tsteq	r5, r3, lsl #2
   1d89c:	01090107 	tsteq	r9, r7, lsl #2
   1d8a0:	010d010b 	tsteq	sp, fp, lsl #2
   1d8a4:	0111010f 	tsteq	r1, pc, lsl #2
   1d8a8:	01150113 	tsteq	r5, r3, lsl r1
   1d8ac:	01190117 	tsteq	r9, r7, lsl r1
   1d8b0:	011d011b 	tsteq	sp, fp, lsl r1
   1d8b4:	0121011f 	teqeq	r1, pc, lsl r1
   1d8b8:	01250123 	teqeq	r5, r3, lsr #2
   1d8bc:	01290127 	teqeq	r9, r7, lsr #2
   1d8c0:	012d012b 	teqeq	sp, fp, lsr #2
   1d8c4:	0131012f 	teqeq	r1, pc, lsr #2
   1d8c8:	01350133 	teqeq	r5, r3, lsr r1
   1d8cc:	013a0137 	teqeq	sl, r7, lsr r1
   1d8d0:	013e013c 	teqeq	lr, ip, lsr r1
   1d8d4:	01420140 	cmpeq	r2, r0, asr #2
   1d8d8:	01460144 	cmpeq	r6, r4, asr #2
   1d8dc:	014b0148 	cmpeq	fp, r8, asr #2
   1d8e0:	014f014d 	cmpeq	pc, sp, asr #2
   1d8e4:	01530151 	cmpeq	r3, r1, asr r1
   1d8e8:	01570155 	cmpeq	r7, r5, asr r1
   1d8ec:	015b0159 	cmpeq	fp, r9, asr r1
   1d8f0:	015f015d 	cmpeq	pc, sp, asr r1	; <UNPREDICTABLE>
   1d8f4:	01630161 	cmneq	r3, r1, ror #2
   1d8f8:	01670165 	cmneq	r7, r5, ror #2
   1d8fc:	016b0169 	cmneq	fp, r9, ror #2
   1d900:	016f016d 	cmneq	pc, sp, ror #2
   1d904:	01730171 	cmneq	r3, r1, ror r1
   1d908:	01770175 	cmneq	r7, r5, ror r1
   1d90c:	017c017a 	cmneq	ip, sl, ror r1
   1d910:	0192017e 	orrseq	r0, r2, lr, ror r1
   1d914:	03b203b1 			; <UNDEFINED> instruction: 0x03b203b1
   1d918:	03b403b3 			; <UNDEFINED> instruction: 0x03b403b3
   1d91c:	03b603b5 			; <UNDEFINED> instruction: 0x03b603b5
   1d920:	03b803b7 			; <UNDEFINED> instruction: 0x03b803b7
   1d924:	03ba03b9 			; <UNDEFINED> instruction: 0x03ba03b9
   1d928:	03bc03bb 			; <UNDEFINED> instruction: 0x03bc03bb
   1d92c:	03be03bd 			; <UNDEFINED> instruction: 0x03be03bd
   1d930:	03c003bf 	biceq	r0, r0, #-67108862	; 0xfc000002
   1d934:	03c303c1 	biceq	r0, r3, #67108867	; 0x4000003
   1d938:	03c503c4 	biceq	r0, r5, #196, 6	; 0x10000003
   1d93c:	03c703c6 	biceq	r0, r7, #402653187	; 0x18000003
   1d940:	03c903c8 	biceq	r0, r9, #200, 6	; 0x20000003
   1d944:	043003ca 	ldrteq	r0, [r0], #-970	; 0x3ca
   1d948:	04320431 	ldrteq	r0, [r2], #-1073	; 0x431
   1d94c:	04340433 	ldrteq	r0, [r4], #-1075	; 0x433
   1d950:	04360435 	ldrteq	r0, [r6], #-1077	; 0x435
   1d954:	04380437 	ldrteq	r0, [r8], #-1079	; 0x437
   1d958:	043a0439 	ldrteq	r0, [sl], #-1081	; 0x439
   1d95c:	043c043b 	ldrteq	r0, [ip], #-1083	; 0x43b
   1d960:	043e043d 	ldrteq	r0, [lr], #-1085	; 0x43d
   1d964:	0440043f 	strbeq	r0, [r0], #-1087	; 0x43f
   1d968:	04420441 	strbeq	r0, [r2], #-1089	; 0x441
   1d96c:	04440443 	strbeq	r0, [r4], #-1091	; 0x443
   1d970:	04460445 	strbeq	r0, [r6], #-1093	; 0x445
   1d974:	04480447 	strbeq	r0, [r8], #-1095	; 0x447
   1d978:	044a0449 	strbeq	r0, [sl], #-1097	; 0x449
   1d97c:	044c044b 	strbeq	r0, [ip], #-1099	; 0x44b
   1d980:	044e044d 	strbeq	r0, [lr], #-1101	; 0x44d
   1d984:	0451044f 	ldrbeq	r0, [r1], #-1103	; 0x44f
   1d988:	04530452 	ldrbeq	r0, [r3], #-1106	; 0x452
   1d98c:	04550454 	ldrbeq	r0, [r5], #-1108	; 0x454
   1d990:	04570456 	ldrbeq	r0, [r7], #-1110	; 0x456
   1d994:	04590458 	ldrbeq	r0, [r9], #-1112	; 0x458
   1d998:	045b045a 	ldrbeq	r0, [fp], #-1114	; 0x45a
   1d99c:	045e045c 	ldrbeq	r0, [lr], #-1116	; 0x45c
   1d9a0:	2170045f 	cmncs	r0, pc, asr r4
   1d9a4:	21722171 	cmncs	r2, r1, ror r1
   1d9a8:	21742173 	cmncs	r4, r3, ror r1
   1d9ac:	21762175 	cmncs	r6, r5, ror r1
   1d9b0:	21782177 	cmncs	r8, r7, ror r1
   1d9b4:	217a2179 	cmncs	sl, r9, ror r1
   1d9b8:	217c217b 	cmncs	ip, fp, ror r1
   1d9bc:	217e217d 	cmncs	lr, sp, ror r1
   1d9c0:	ff41217f 			; <UNDEFINED> instruction: 0xff41217f
   1d9c4:	ff43ff42 			; <UNDEFINED> instruction: 0xff43ff42
   1d9c8:	ff45ff44 			; <UNDEFINED> instruction: 0xff45ff44
   1d9cc:	ff47ff46 			; <UNDEFINED> instruction: 0xff47ff46
   1d9d0:	ff49ff48 			; <UNDEFINED> instruction: 0xff49ff48
   1d9d4:	ff4bff4a 			; <UNDEFINED> instruction: 0xff4bff4a
   1d9d8:	ff4dff4c 			; <UNDEFINED> instruction: 0xff4dff4c
   1d9dc:	ff4fff4e 			; <UNDEFINED> instruction: 0xff4fff4e
   1d9e0:	ff51ff50 			; <UNDEFINED> instruction: 0xff51ff50
   1d9e4:	ff53ff52 			; <UNDEFINED> instruction: 0xff53ff52
   1d9e8:	ff55ff54 			; <UNDEFINED> instruction: 0xff55ff54
   1d9ec:	ff57ff56 			; <UNDEFINED> instruction: 0xff57ff56
   1d9f0:	ff59ff58 			; <UNDEFINED> instruction: 0xff59ff58
   1d9f4:	0000ff5a 	andeq	pc, r0, sl, asr pc	; <UNPREDICTABLE>

0001d9f8 <tbl_upper.3818>:
   1d9f8:	00420041 	subeq	r0, r2, r1, asr #32
   1d9fc:	00440043 	subeq	r0, r4, r3, asr #32
   1da00:	00460045 	subeq	r0, r6, r5, asr #32
   1da04:	00480047 	subeq	r0, r8, r7, asr #32
   1da08:	004a0049 	subeq	r0, sl, r9, asr #32
   1da0c:	004c004b 	subeq	r0, ip, fp, asr #32
   1da10:	004e004d 	subeq	r0, lr, sp, asr #32
   1da14:	0050004f 	subseq	r0, r0, pc, asr #32
   1da18:	00520051 	subseq	r0, r2, r1, asr r0
   1da1c:	00540053 	subseq	r0, r4, r3, asr r0
   1da20:	00560055 	subseq	r0, r6, r5, asr r0
   1da24:	00580057 	subseq	r0, r8, r7, asr r0
   1da28:	005a0059 	subseq	r0, sl, r9, asr r0
   1da2c:	ffe00021 			; <UNDEFINED> instruction: 0xffe00021
   1da30:	ffe5ffe1 			; <UNDEFINED> instruction: 0xffe5ffe1
   1da34:	ffe3ffe2 			; <UNDEFINED> instruction: 0xffe3ffe2
   1da38:	00c100c0 	sbceq	r0, r1, r0, asr #1
   1da3c:	00c300c2 	sbceq	r0, r3, r2, asr #1
   1da40:	00c500c4 	sbceq	r0, r5, r4, asr #1
   1da44:	00c700c6 	sbceq	r0, r7, r6, asr #1
   1da48:	00c900c8 	sbceq	r0, r9, r8, asr #1
   1da4c:	00cb00ca 	sbceq	r0, fp, sl, asr #1
   1da50:	00cd00cc 	sbceq	r0, sp, ip, asr #1
   1da54:	00cf00ce 	sbceq	r0, pc, lr, asr #1
   1da58:	00d100d0 	ldrsbeq	r0, [r1], #0
   1da5c:	00d300d2 	ldrsbeq	r0, [r3], #2
   1da60:	00d500d4 	ldrsbeq	r0, [r5], #4
   1da64:	00d800d6 	ldrsbeq	r0, [r8], #6
   1da68:	00da00d9 	ldrsbeq	r0, [sl], #9
   1da6c:	00dc00db 	ldrsbeq	r0, [ip], #11
   1da70:	00de00dd 	ldrsbeq	r0, [lr], #13
   1da74:	01000178 	tsteq	r0, r8, ror r1
   1da78:	01040102 	tsteq	r4, r2, lsl #2
   1da7c:	01080106 	tsteq	r8, r6, lsl #2
   1da80:	010c010a 	tsteq	ip, sl, lsl #2
   1da84:	0110010e 	tsteq	r0, lr, lsl #2
   1da88:	01140112 	tsteq	r4, r2, lsl r1
   1da8c:	01180116 	tsteq	r8, r6, lsl r1
   1da90:	011c011a 	tsteq	ip, sl, lsl r1
   1da94:	0120011e 	teqeq	r0, lr, lsl r1
   1da98:	01240122 	teqeq	r4, r2, lsr #2
   1da9c:	01280126 	teqeq	r8, r6, lsr #2
   1daa0:	012c012a 	teqeq	ip, sl, lsr #2
   1daa4:	0130012e 	teqeq	r0, lr, lsr #2
   1daa8:	01340132 	teqeq	r4, r2, lsr r1
   1daac:	01390136 	teqeq	r9, r6, lsr r1
   1dab0:	013d013b 	teqeq	sp, fp, lsr r1
   1dab4:	0141013f 	cmpeq	r1, pc, lsr r1
   1dab8:	01450143 	cmpeq	r5, r3, asr #2
   1dabc:	014a0147 	cmpeq	sl, r7, asr #2
   1dac0:	014e014c 	cmpeq	lr, ip, asr #2
   1dac4:	01520150 	cmpeq	r2, r0, asr r1
   1dac8:	01560154 	cmpeq	r6, r4, asr r1
   1dacc:	015a0158 	cmpeq	sl, r8, asr r1
   1dad0:	015e015c 	cmpeq	lr, ip, asr r1
   1dad4:	01620160 	cmneq	r2, r0, ror #2
   1dad8:	01660164 	cmneq	r6, r4, ror #2
   1dadc:	016a0168 	cmneq	sl, r8, ror #2
   1dae0:	016e016c 	cmneq	lr, ip, ror #2
   1dae4:	01720170 	cmneq	r2, r0, ror r1
   1dae8:	01760174 	cmneq	r6, r4, ror r1
   1daec:	017b0179 	cmneq	fp, r9, ror r1
   1daf0:	0191017d 	orrseq	r0, r1, sp, ror r1
   1daf4:	03920391 	orrseq	r0, r2, #1140850690	; 0x44000002
   1daf8:	03940393 	orrseq	r0, r4, #1275068418	; 0x4c000002
   1dafc:	03960395 	orrseq	r0, r6, #1409286146	; 0x54000002
   1db00:	03980397 	orrseq	r0, r8, #1543503874	; 0x5c000002
   1db04:	039a0399 	orrseq	r0, sl, #1677721602	; 0x64000002
   1db08:	039c039b 	orrseq	r0, ip, #1811939330	; 0x6c000002
   1db0c:	039e039d 	orrseq	r0, lr, #1946157058	; 0x74000002
   1db10:	03a0039f 	moveq	r0, #2080374786	; 0x7c000002
   1db14:	03a303a1 			; <UNDEFINED> instruction: 0x03a303a1
   1db18:	03a503a4 			; <UNDEFINED> instruction: 0x03a503a4
   1db1c:	03a703a6 			; <UNDEFINED> instruction: 0x03a703a6
   1db20:	03a903a8 			; <UNDEFINED> instruction: 0x03a903a8
   1db24:	041003aa 	ldreq	r0, [r0], #-938	; 0x3aa
   1db28:	04120411 	ldreq	r0, [r2], #-1041	; 0x411
   1db2c:	04140413 	ldreq	r0, [r4], #-1043	; 0x413
   1db30:	04160415 	ldreq	r0, [r6], #-1045	; 0x415
   1db34:	04180417 	ldreq	r0, [r8], #-1047	; 0x417
   1db38:	041a0419 	ldreq	r0, [sl], #-1049	; 0x419
   1db3c:	041c041b 	ldreq	r0, [ip], #-1051	; 0x41b
   1db40:	041e041d 	ldreq	r0, [lr], #-1053	; 0x41d
   1db44:	0420041f 	strteq	r0, [r0], #-1055	; 0x41f
   1db48:	04220421 	strteq	r0, [r2], #-1057	; 0x421
   1db4c:	04240423 	strteq	r0, [r4], #-1059	; 0x423
   1db50:	04260425 	strteq	r0, [r6], #-1061	; 0x425
   1db54:	04280427 	strteq	r0, [r8], #-1063	; 0x427
   1db58:	042a0429 	strteq	r0, [sl], #-1065	; 0x429
   1db5c:	042c042b 	strteq	r0, [ip], #-1067	; 0x42b
   1db60:	042e042d 	strteq	r0, [lr], #-1069	; 0x42d
   1db64:	0401042f 	streq	r0, [r1], #-1071	; 0x42f
   1db68:	04030402 	streq	r0, [r3], #-1026	; 0x402
   1db6c:	04050404 	streq	r0, [r5], #-1028	; 0x404
   1db70:	04070406 	streq	r0, [r7], #-1030	; 0x406
   1db74:	04090408 	streq	r0, [r9], #-1032	; 0x408
   1db78:	040b040a 	streq	r0, [fp], #-1034	; 0x40a
   1db7c:	040e040c 	streq	r0, [lr], #-1036	; 0x40c
   1db80:	2160040f 	cmncs	r0, pc, lsl #8
   1db84:	21622161 	cmncs	r2, r1, ror #2
   1db88:	21642163 	cmncs	r4, r3, ror #2
   1db8c:	21662165 	cmncs	r6, r5, ror #2
   1db90:	21682167 	cmncs	r8, r7, ror #2
   1db94:	216a2169 	cmncs	sl, r9, ror #2
   1db98:	216c216b 	cmncs	ip, fp, ror #2
   1db9c:	216e216d 	cmncs	lr, sp, ror #2
   1dba0:	ff21216f 			; <UNDEFINED> instruction: 0xff21216f
   1dba4:	ff23ff22 			; <UNDEFINED> instruction: 0xff23ff22
   1dba8:	ff25ff24 			; <UNDEFINED> instruction: 0xff25ff24
   1dbac:	ff27ff26 			; <UNDEFINED> instruction: 0xff27ff26
   1dbb0:	ff29ff28 			; <UNDEFINED> instruction: 0xff29ff28
   1dbb4:	ff2bff2a 			; <UNDEFINED> instruction: 0xff2bff2a
   1dbb8:	ff2dff2c 			; <UNDEFINED> instruction: 0xff2dff2c
   1dbbc:	ff2fff2e 			; <UNDEFINED> instruction: 0xff2fff2e
   1dbc0:	ff31ff30 			; <UNDEFINED> instruction: 0xff31ff30
   1dbc4:	ff33ff32 			; <UNDEFINED> instruction: 0xff33ff32
   1dbc8:	ff35ff34 			; <UNDEFINED> instruction: 0xff35ff34
   1dbcc:	ff37ff36 			; <UNDEFINED> instruction: 0xff37ff36
   1dbd0:	ff39ff38 			; <UNDEFINED> instruction: 0xff39ff38
   1dbd4:	0000ff3a 	andeq	pc, r0, sl, lsr pc	; <UNPREDICTABLE>

0001dbd8 <sd_commands>:
   1dbd8:	00000000 	andeq	r0, r0, r0
   1dbdc:	ffffffff 			; <UNDEFINED> instruction: 0xffffffff
   1dbe0:	02090000 	andeq	r0, r9, #0
   1dbe4:	030a0000 	movweq	r0, #40960	; 0xa000
   1dbe8:	04000000 	streq	r0, [r0], #-0
   1dbec:	05010000 	streq	r0, [r1, #-0]
   1dbf0:	060a0000 	streq	r0, [sl], -r0
   1dbf4:	070b0000 	streq	r0, [fp, -r0]
   1dbf8:	080a0000 	stmdaeq	sl, {}	; <UNPREDICTABLE>
   1dbfc:	09090000 	stmdbeq	r9, {}	; <UNPREDICTABLE>
   1dc00:	0a090000 	beq	25dc08 <__sys_stack_top+0x23a930>
   1dc04:	0b0a0000 	bleq	29dc0c <__sys_stack_top+0x27a934>
   1dc08:	0ccb0000 	stcleq	0, cr0, [fp], {0}
   1dc0c:	0d0a0000 	stceq	0, cr0, [sl, #-0]
   1dc10:	ffffffff 			; <UNDEFINED> instruction: 0xffffffff
   1dc14:	0f000000 	svceq	0x00000000
   1dc18:	100a0000 	andne	r0, sl, r0
   1dc1c:	112a0010 	teqne	sl, r0, lsl r0
   1dc20:	122a0032 	eorne	r0, sl, #50	; 0x32
   1dc24:	132a0010 	teqne	sl, #16
   1dc28:	140b0000 	strne	r0, [fp], #-0
   1dc2c:	ffffffff 			; <UNDEFINED> instruction: 0xffffffff
   1dc30:	ffffffff 			; <UNDEFINED> instruction: 0xffffffff
   1dc34:	170a0000 	strne	r0, [sl, -r0]
   1dc38:	182a0000 	stmdane	sl!, {}	; <UNPREDICTABLE>
   1dc3c:	192a0022 	stmdbne	sl!, {r1, r5}
   1dc40:	ffffffff 			; <UNDEFINED> instruction: 0xffffffff
   1dc44:	1b2a0000 	blne	a9dc4c <__sys_stack_top+0xa7a974>
   1dc48:	1c0b0000 	stcne	0, cr0, [fp], {-0}
   1dc4c:	1d0b0000 	stcne	0, cr0, [fp, #-0]
   1dc50:	1e2a0010 	mcrne	0, 1, r0, cr10, cr0, {0}
   1dc54:	ffffffff 			; <UNDEFINED> instruction: 0xffffffff
   1dc58:	200a0000 	andcs	r0, sl, r0
   1dc5c:	210a0000 	mrscs	r0, (UNDEF: 10)
   1dc60:	ffffffff 			; <UNDEFINED> instruction: 0xffffffff
   1dc64:	ffffffff 			; <UNDEFINED> instruction: 0xffffffff
   1dc68:	ffffffff 			; <UNDEFINED> instruction: 0xffffffff
   1dc6c:	ffffffff 			; <UNDEFINED> instruction: 0xffffffff
   1dc70:	260b0000 	strcs	r0, [fp], -r0
   1dc74:	ffffffff 			; <UNDEFINED> instruction: 0xffffffff
   1dc78:	ffffffff 			; <UNDEFINED> instruction: 0xffffffff
   1dc7c:	ffffffff 			; <UNDEFINED> instruction: 0xffffffff
   1dc80:	ffffffff 			; <UNDEFINED> instruction: 0xffffffff
   1dc84:	ffffffff 			; <UNDEFINED> instruction: 0xffffffff
   1dc88:	ffffffff 			; <UNDEFINED> instruction: 0xffffffff
   1dc8c:	ffffffff 			; <UNDEFINED> instruction: 0xffffffff
   1dc90:	ffffffff 			; <UNDEFINED> instruction: 0xffffffff
   1dc94:	ffffffff 			; <UNDEFINED> instruction: 0xffffffff
   1dc98:	ffffffff 			; <UNDEFINED> instruction: 0xffffffff
   1dc9c:	ffffffff 			; <UNDEFINED> instruction: 0xffffffff
   1dca0:	ffffffff 			; <UNDEFINED> instruction: 0xffffffff
   1dca4:	ffffffff 			; <UNDEFINED> instruction: 0xffffffff
   1dca8:	ffffffff 			; <UNDEFINED> instruction: 0xffffffff
   1dcac:	ffffffff 			; <UNDEFINED> instruction: 0xffffffff
   1dcb0:	ffffffff 			; <UNDEFINED> instruction: 0xffffffff
   1dcb4:	370a0000 	strcc	r0, [sl, -r0]
   1dcb8:	382a0000 	stmdacc	sl!, {}	; <UNPREDICTABLE>
   1dcbc:	ffffffff 			; <UNDEFINED> instruction: 0xffffffff
   1dcc0:	ffffffff 			; <UNDEFINED> instruction: 0xffffffff
   1dcc4:	ffffffff 			; <UNDEFINED> instruction: 0xffffffff
   1dcc8:	ffffffff 			; <UNDEFINED> instruction: 0xffffffff
   1dccc:	ffffffff 			; <UNDEFINED> instruction: 0xffffffff
   1dcd0:	ffffffff 			; <UNDEFINED> instruction: 0xffffffff
   1dcd4:	ffffffff 			; <UNDEFINED> instruction: 0xffffffff

0001dcd8 <FIRMWARE_COPYRIGHT>:
   1dcd8:	79706f43 	ldmdbvc	r0!, {r0, r1, r6, r8, r9, sl, fp, sp, lr}^
   1dcdc:	68676972 	stmdavs	r7!, {r1, r4, r5, r6, r8, fp, sp, lr}^
   1dce0:	63282074 	teqvs	r8, #116	; 0x74
   1dce4:	30322029 	eorscc	r2, r2, r9, lsr #32
   1dce8:	42203231 	eormi	r3, r0, #268435459	; 0x10000003
   1dcec:	64616f72 	strbtvs	r6, [r1], #-3954	; 0xf72
   1dcf0:	006d6f63 	rsbeq	r6, sp, r3, ror #30

0001dcf4 <board_version>:
   1dcf4:	00000000 	andeq	r0, r0, r0
   1dcf8:	65646f4d 	strbvs	r6, [r4, #-3917]!	; 0xf4d
   1dcfc:	6e55206c 	cdpvs	0, 5, cr2, cr5, cr12, {3}
   1dd00:	776f6e6b 	strbvc	r6, [pc, -fp, ror #28]!
   1dd04:	2020206e 	eorcs	r2, r0, lr, rrx
   1dd08:	20202020 	eorcs	r2, r0, r0, lsr #32
   1dd0c:	00000000 	andeq	r0, r0, r0
   1dd10:	00000002 	andeq	r0, r0, r2
   1dd14:	65646f4d 	strbvs	r6, [r4, #-3917]!	; 0xf4d
   1dd18:	2042206c 	subcs	r2, r2, ip, rrx
   1dd1c:	32203152 	eorcc	r3, r0, #-2147483628	; 0x80000014
   1dd20:	424d3635 	submi	r3, sp, #55574528	; 0x3500000
   1dd24:	20202020 	eorcs	r2, r0, r0, lsr #32
   1dd28:	00000000 	andeq	r0, r0, r0
   1dd2c:	00000003 	andeq	r0, r0, r3
   1dd30:	65646f4d 	strbvs	r6, [r4, #-3917]!	; 0xf4d
   1dd34:	2042206c 	subcs	r2, r2, ip, rrx
   1dd38:	32203152 	eorcc	r3, r0, #-2147483628	; 0x80000014
   1dd3c:	424d3635 	submi	r3, sp, #55574528	; 0x3500000
   1dd40:	20202020 	eorcs	r2, r0, r0, lsr #32
   1dd44:	00000000 	andeq	r0, r0, r0
   1dd48:	00000004 	andeq	r0, r0, r4
   1dd4c:	65646f4d 	strbvs	r6, [r4, #-3917]!	; 0xf4d
   1dd50:	2042206c 	subcs	r2, r2, ip, rrx
   1dd54:	32203252 	eorcc	r3, r0, #536870917	; 0x20000005
   1dd58:	424d3635 	submi	r3, sp, #55574528	; 0x3500000
   1dd5c:	20202020 	eorcs	r2, r0, r0, lsr #32
   1dd60:	00000000 	andeq	r0, r0, r0
   1dd64:	00000005 	andeq	r0, r0, r5
   1dd68:	65646f4d 	strbvs	r6, [r4, #-3917]!	; 0xf4d
   1dd6c:	2042206c 	subcs	r2, r2, ip, rrx
   1dd70:	32203252 	eorcc	r3, r0, #536870917	; 0x20000005
   1dd74:	424d3635 	submi	r3, sp, #55574528	; 0x3500000
   1dd78:	20202020 	eorcs	r2, r0, r0, lsr #32
   1dd7c:	00000000 	andeq	r0, r0, r0
   1dd80:	00000006 	andeq	r0, r0, r6
   1dd84:	65646f4d 	strbvs	r6, [r4, #-3917]!	; 0xf4d
   1dd88:	2042206c 	subcs	r2, r2, ip, rrx
   1dd8c:	32203252 	eorcc	r3, r0, #536870917	; 0x20000005
   1dd90:	424d3635 	submi	r3, sp, #55574528	; 0x3500000
   1dd94:	20202020 	eorcs	r2, r0, r0, lsr #32
   1dd98:	00000000 	andeq	r0, r0, r0
   1dd9c:	00000007 	andeq	r0, r0, r7
   1dda0:	65646f4d 	strbvs	r6, [r4, #-3917]!	; 0xf4d
   1dda4:	2041206c 	subcs	r2, r1, ip, rrx
   1dda8:	4d363532 	cfldr32mi	mvfx3, [r6, #-200]!	; 0xffffff38
   1ddac:	20202042 	eorcs	r2, r0, r2, asr #32
   1ddb0:	20202020 	eorcs	r2, r0, r0, lsr #32
   1ddb4:	00000000 	andeq	r0, r0, r0
   1ddb8:	00000008 	andeq	r0, r0, r8
   1ddbc:	65646f4d 	strbvs	r6, [r4, #-3917]!	; 0xf4d
   1ddc0:	2041206c 	subcs	r2, r1, ip, rrx
   1ddc4:	4d363532 	cfldr32mi	mvfx3, [r6, #-200]!	; 0xffffff38
   1ddc8:	20202042 	eorcs	r2, r0, r2, asr #32
   1ddcc:	20202020 	eorcs	r2, r0, r0, lsr #32
   1ddd0:	00000000 	andeq	r0, r0, r0
   1ddd4:	00000009 	andeq	r0, r0, r9
   1ddd8:	65646f4d 	strbvs	r6, [r4, #-3917]!	; 0xf4d
   1dddc:	2041206c 	subcs	r2, r1, ip, rrx
   1dde0:	4d363532 	cfldr32mi	mvfx3, [r6, #-200]!	; 0xffffff38
   1dde4:	20202042 	eorcs	r2, r0, r2, asr #32
   1dde8:	20202020 	eorcs	r2, r0, r0, lsr #32
   1ddec:	00000000 	andeq	r0, r0, r0
   1ddf0:	0000000d 	andeq	r0, r0, sp
   1ddf4:	65646f4d 	strbvs	r6, [r4, #-3917]!	; 0xf4d
   1ddf8:	2042206c 	subcs	r2, r2, ip, rrx
   1ddfc:	35203252 	strcc	r3, [r0, #-594]!	; 0x252
   1de00:	424d3231 	submi	r3, sp, #268435459	; 0x10000003
   1de04:	20202020 	eorcs	r2, r0, r0, lsr #32
   1de08:	00000000 	andeq	r0, r0, r0
   1de0c:	0000000e 	andeq	r0, r0, lr
   1de10:	65646f4d 	strbvs	r6, [r4, #-3917]!	; 0xf4d
   1de14:	2042206c 	subcs	r2, r2, ip, rrx
   1de18:	35203252 	strcc	r3, [r0, #-594]!	; 0x252
   1de1c:	424d3231 	submi	r3, sp, #268435459	; 0x10000003
   1de20:	20202020 	eorcs	r2, r0, r0, lsr #32
   1de24:	00000000 	andeq	r0, r0, r0
   1de28:	0000000f 	andeq	r0, r0, pc
   1de2c:	65646f4d 	strbvs	r6, [r4, #-3917]!	; 0xf4d
   1de30:	2042206c 	subcs	r2, r2, ip, rrx
   1de34:	35203252 	strcc	r3, [r0, #-594]!	; 0x252
   1de38:	424d3231 	submi	r3, sp, #268435459	; 0x10000003
   1de3c:	20202020 	eorcs	r2, r0, r0, lsr #32
   1de40:	00000000 	andeq	r0, r0, r0
   1de44:	00000010 	andeq	r0, r0, r0, lsl r0
   1de48:	65646f4d 	strbvs	r6, [r4, #-3917]!	; 0xf4d
   1de4c:	2b42206c 	blcs	10a6004 <__sys_stack_top+0x1082d2c>
   1de50:	32313520 	eorscc	r3, r1, #32, 10	; 0x8000000
   1de54:	2020424d 	eorcs	r4, r0, sp, asr #4
   1de58:	20202020 	eorcs	r2, r0, r0, lsr #32
   1de5c:	00000000 	andeq	r0, r0, r0
   1de60:	00000011 	andeq	r0, r0, r1, lsl r0
   1de64:	706d6f43 	rsbvc	r6, sp, r3, asr #30
   1de68:	20657475 	rsbcs	r7, r5, r5, ror r4
   1de6c:	75646f4d 	strbvc	r6, [r4, #-3917]!	; 0xf4d
   1de70:	3520656c 	strcc	r6, [r0, #-1388]!	; 0x56c
   1de74:	424d3231 	submi	r3, sp, #268435459	; 0x10000003
   1de78:	00000000 	andeq	r0, r0, r0
   1de7c:	00000012 	andeq	r0, r0, r2, lsl r0
   1de80:	65646f4d 	strbvs	r6, [r4, #-3917]!	; 0xf4d
   1de84:	2b41206c 	blcs	106603c <__sys_stack_top+0x1042d64>
   1de88:	36353220 	ldrtcc	r3, [r5], -r0, lsr #4
   1de8c:	2020424d 	eorcs	r4, r0, sp, asr #4
   1de90:	20202020 	eorcs	r2, r0, r0, lsr #32
   1de94:	00000000 	andeq	r0, r0, r0
   1de98:	00a01041 	adceq	r1, r0, r1, asr #32
   1de9c:	32206950 	eorcc	r6, r0, #80, 18	; 0x140000
   1dea0:	646f4d20 	strbtvs	r4, [pc], #-3360	; 1dea8 <board_version+0x1b4>
   1dea4:	42206c65 	eormi	r6, r0, #25856	; 0x6500
   1dea8:	42473120 	submi	r3, r7, #32, 2
   1deac:	20202020 	eorcs	r2, r0, r0, lsr #32
   1deb0:	00000000 	andeq	r0, r0, r0
   1deb4:	00a21041 	adceq	r1, r2, r1, asr #32
   1deb8:	32206950 	eorcc	r6, r0, #80, 18	; 0x140000
   1debc:	646f4d20 	strbtvs	r4, [pc], #-3360	; 1dec4 <board_version+0x1d0>
   1dec0:	42206c65 	eormi	r6, r0, #25856	; 0x6500
   1dec4:	42473120 	submi	r3, r7, #32, 2
   1dec8:	20202020 	eorcs	r2, r0, r0, lsr #32
   1decc:	00000000 	andeq	r0, r0, r0
   1ded0:	61636f4c 	cmnvs	r3, ip, asr #30
   1ded4:	6974206c 	ldmdbvs	r4!, {r2, r3, r5, r6, sp}^
   1ded8:	2520656d 	strcs	r6, [r0, #-1389]!	; 0x56d
   1dedc:	3a64322e 	bcc	192a79c <__sys_stack_top+0x19074c4>
   1dee0:	64322e25 	ldrtvs	r2, [r2], #-3621	; 0xe25
   1dee4:	322e253a 	eorcc	r2, lr, #243269632	; 0xe800000
   1dee8:	75202c64 	strvc	r2, [r0, #-3172]!	; 0xc64
   1deec:	6d697470 	cfstrdvs	mvd7, [r9, #-448]!	; 0xfffffe40
   1def0:	6c252065 	stcvs	0, cr2, [r5], #-404	; 0xfffffe6c
   1def4:	61642064 	cmnvs	r4, r4, rrx
   1def8:	202c7379 	eorcs	r7, ip, r9, ror r3
   1defc:	6c323025 	ldcvs	0, cr3, [r2], #-148	; 0xffffff6c
   1df00:	30253a64 	eorcc	r3, r5, r4, ror #20
   1df04:	3a646c32 	bcc	1938fd4 <__sys_stack_top+0x1915cfc>
   1df08:	6c323025 	ldcvs	0, cr3, [r2], #-148	; 0xffffff6c
   1df0c:	00000a64 	andeq	r0, r0, r4, ror #20
   1df10:	204d4452 	subcs	r4, sp, r2, asr r4
   1df14:	6b636150 	blvs	18f645c <__sys_stack_top+0x18d3184>
   1df18:	6c207465 	cfstrsvs	mvf7, [r0], #-404	; 0xfffffe6c
   1df1c:	74676e65 	strbtvc	r6, [r7], #-3685	; 0xe65
   1df20:	203a2068 	eorscs	r2, sl, r8, rrx
   1df24:	000a6425 	andeq	r6, sl, r5, lsr #8
   1df28:	64322e25 	ldrtvs	r2, [r2], #-3621	; 0xe25
   1df2c:	342e252d 	strtcc	r2, [lr], #-1325	; 0x52d
   1df30:	2e253a64 	vnmulcs.f32	s6, s10, s9
   1df34:	20205832 	eorcs	r5, r0, r2, lsr r8
   1df38:	64322e25 	ldrtvs	r2, [r2], #-3621	; 0xe25
   1df3c:	342e252d 	strtcc	r2, [lr], #-1325	; 0x52d
   1df40:	2e253a64 	vnmulcs.f32	s6, s10, s9
   1df44:	25205832 	strcs	r5, [r0, #-2098]!	; 0x832
   1df48:	2d64322e 	sfmcs	f3, 2, [r4, #-184]!	; 0xffffff48
   1df4c:	64342e25 	ldrtvs	r2, [r4], #-3621	; 0xe25
   1df50:	322e253a 	eorcc	r2, lr, #243269632	; 0xe800000
   1df54:	25202058 	strcs	r2, [r0, #-88]!	; 0x58
   1df58:	2d64322e 	sfmcs	f3, 2, [r4, #-184]!	; 0xffffff48
   1df5c:	64342e25 	ldrtvs	r2, [r4], #-3621	; 0xe25
   1df60:	322e253a 	eorcc	r2, lr, #243269632	; 0xe800000
   1df64:	00000a58 	andeq	r0, r0, r8, asr sl
   1df68:	312d3130 	teqcc	sp, r0, lsr r1
   1df6c:	203a2036 	eorscs	r2, sl, r6, lsr r0
   1df70:	00000000 	andeq	r0, r0, r0
   1df74:	00003020 	andeq	r3, r0, r0, lsr #32
   1df78:	2d37310a 	ldfcss	f3, [r7, #-40]!	; 0xffffffd8
   1df7c:	3a203233 	bcc	82a850 <__sys_stack_top+0x807578>
   1df80:	00000020 	andeq	r0, r0, r0, lsr #32
   1df84:	00002d2d 	andeq	r2, r0, sp, lsr #26
   1df88:	6b636150 	blvs	18f64d0 <__sys_stack_top+0x18d31f8>
   1df8c:	20737465 	rsbscs	r7, r3, r5, ror #8
   1df90:	6c25203a 	stcvs	0, cr2, [r5], #-232	; 0xffffff18
   1df94:	44202c64 	strtmi	r2, [r0], #-3172	; 0xc64
   1df98:	2520584d 	strcs	r5, [r0, #-2125]!	; 0x84d
   1df9c:	202c646c 	eorcs	r6, ip, ip, ror #8
   1dfa0:	204d4452 	subcs	r4, sp, r2, asr r4
   1dfa4:	0a646c25 	beq	1939040 <__sys_stack_top+0x1915d68>
   1dfa8:	0000000a 	andeq	r0, r0, sl
   1dfac:	63736944 	cmnvs	r3, #68, 18	; 0x110000
   1dfb0:	7265766f 	rsbvc	r7, r5, #116391936	; 0x6f00000
   1dfb4:	20202079 	eorcs	r2, r0, r9, ror r0
   1dfb8:	20202020 	eorcs	r2, r0, r0, lsr #32
   1dfbc:	3a202020 	bcc	826044 <__sys_stack_top+0x802d6c>
   1dfc0:	646c2520 	strbtvs	r2, [ip], #-1312	; 0x520
   1dfc4:	0000000a 	andeq	r0, r0, sl
   1dfc8:	63736944 	cmnvs	r3, #68, 18	; 0x110000
   1dfcc:	7265766f 	rsbvc	r7, r5, #116391936	; 0x6f00000
   1dfd0:	65722079 	ldrbvs	r2, [r2, #-121]!	; 0x79
   1dfd4:	6e6f7073 	mcrvs	0, 3, r7, cr15, cr3, {3}
   1dfd8:	3a206573 	bcc	8375ac <__sys_stack_top+0x8142d4>
   1dfdc:	646c2520 	strbtvs	r2, [ip], #-1312	; 0x520
   1dfe0:	0000000a 	andeq	r0, r0, sl
   1dfe4:	20544547 	subscs	r4, r4, r7, asr #10
   1dfe8:	75716552 	ldrbvc	r6, [r1, #-1362]!	; 0x552
   1dfec:	73747365 	cmnvc	r4, #-1811939327	; 0x94000001
   1dff0:	20202020 	eorcs	r2, r0, r0, lsr #32
   1dff4:	3a202020 	bcc	82607c <__sys_stack_top+0x802da4>
   1dff8:	646c2520 	strbtvs	r2, [ip], #-1312	; 0x520
   1dffc:	0000000a 	andeq	r0, r0, sl
   1e000:	20544553 	subscs	r4, r4, r3, asr r5
   1e004:	75716552 	ldrbvc	r6, [r1, #-1362]!	; 0x552
   1e008:	73747365 	cmnvc	r4, #-1811939327	; 0x94000001
   1e00c:	20202020 	eorcs	r2, r0, r0, lsr #32
   1e010:	3a202020 	bcc	826098 <__sys_stack_top+0x802dc0>
   1e014:	646c2520 	strbtvs	r2, [ip], #-1312	; 0x520
   1e018:	0000000a 	andeq	r0, r0, sl
   1e01c:	584d440a 	stmdapl	sp, {r1, r3, sl, lr}^
   1e020:	64707520 	ldrbtvs	r7, [r0], #-1312	; 0x520
   1e024:	73657461 	cmnvc	r5, #1627389952	; 0x61000000
   1e028:	6365732f 	cmnvs	r5, #-1140850688	; 0xbc000000
   1e02c:	20642520 	rsbcs	r2, r4, r0, lsr #10
   1e030:	000a0a20 	andeq	r0, sl, r0, lsr #20
   1e034:	746f6c53 	strbtvc	r6, [pc], #-3155	; 1e03c <board_version+0x348>
   1e038:	6e692073 	mcrvs	0, 3, r2, cr9, cr3, {3}
   1e03c:	63617020 	cmnvs	r1, #32
   1e040:	2074656b 	rsbscs	r6, r4, fp, ror #10
   1e044:	20202020 	eorcs	r2, r0, r0, lsr #32
   1e048:	20643325 	rsbcs	r3, r4, r5, lsr #6
   1e04c:	20202020 	eorcs	r2, r0, r0, lsr #32
   1e050:	20643325 	rsbcs	r3, r4, r5, lsr #6
   1e054:	6425202f 	strtvs	r2, [r5], #-47	; 0x2f
   1e058:	0000000a 	andeq	r0, r0, sl
   1e05c:	746f6c53 	strbtvc	r6, [pc], #-3155	; 1e064 <board_version+0x370>
   1e060:	206f7420 	rsbcs	r7, pc, r0, lsr #8
   1e064:	746f6c73 	strbtvc	r6, [pc], #-3187	; 1e06c <board_version+0x378>
   1e068:	20202020 	eorcs	r2, r0, r0, lsr #32
   1e06c:	20202020 	eorcs	r2, r0, r0, lsr #32
   1e070:	20643325 	rsbcs	r3, r4, r5, lsr #6
   1e074:	20202020 	eorcs	r2, r0, r0, lsr #32
   1e078:	20643325 	rsbcs	r3, r4, r5, lsr #6
   1e07c:	6425202f 	strtvs	r2, [r5], #-47	; 0x2f
   1e080:	0000000a 	andeq	r0, r0, sl
   1e084:	61657242 	cmnvs	r5, r2, asr #4
   1e088:	6f74206b 	svcvs	0x0074206b
   1e08c:	65726220 	ldrbvs	r6, [r2, #-544]!	; 0x220
   1e090:	25206b61 	strcs	r6, [r0, #-2913]!	; 0xb61
   1e094:	20646c38 	rsbcs	r6, r4, r8, lsr ip
   1e098:	64362520 	ldrtvs	r2, [r6], #-1312	; 0x520
   1e09c:	25202f20 	strcs	r2, [r0, #-3872]!	; 0xf20
   1e0a0:	00000a64 	andeq	r0, r0, r4, ror #20
   1e0a4:	746f6c53 	strbtvc	r6, [pc], #-3155	; 1e0ac <board_version+0x3b8>
   1e0a8:	6e692073 	mcrvs	0, 3, r2, cr9, cr3, {3}
   1e0ac:	63617020 	cmnvs	r1, #32
   1e0b0:	2074656b 	rsbscs	r6, r4, fp, ror #10
   1e0b4:	20202d2d 	eorcs	r2, r0, sp, lsr #26
   1e0b8:	0a202020 	beq	826140 <__sys_stack_top+0x802e68>
   1e0bc:	00000000 	andeq	r0, r0, r0
   1e0c0:	746f6c53 	strbtvc	r6, [pc], #-3155	; 1e0c8 <board_version+0x3d4>
   1e0c4:	206f7420 	rsbcs	r7, pc, r0, lsr #8
   1e0c8:	746f6c73 	strbtvc	r6, [pc], #-3187	; 1e0d0 <board_version+0x3dc>
   1e0cc:	20202020 	eorcs	r2, r0, r0, lsr #32
   1e0d0:	20202d2d 	eorcs	r2, r0, sp, lsr #26
   1e0d4:	0a202020 	beq	82615c <__sys_stack_top+0x802e84>
   1e0d8:	00000000 	andeq	r0, r0, r0
   1e0dc:	61657242 	cmnvs	r5, r2, asr #4
   1e0e0:	6f74206b 	svcvs	0x0074206b
   1e0e4:	65726220 	ldrbvs	r6, [r2, #-544]!	; 0x220
   1e0e8:	20206b61 	eorcs	r6, r0, r1, ror #22
   1e0ec:	20202d2d 	eorcs	r2, r0, sp, lsr #26
   1e0f0:	0a202020 	beq	826178 <__sys_stack_top+0x802ea0>
   1e0f4:	00000000 	andeq	r0, r0, r0
   1e0f8:	6d726946 	ldclvs	9, cr6, [r2, #-280]!	; 0xfffffee8
   1e0fc:	65726177 	ldrbvs	r6, [r2, #-375]!	; 0x177
   1e100:	2e642520 	cdpcs	5, 6, cr2, cr4, cr0, {1}
   1e104:	42206425 	eormi	r6, r0, #620756992	; 0x25000000
   1e108:	6b616572 	blvs	18776d8 <__sys_stack_top+0x1854400>
   1e10c:	656d6954 	strbvs	r6, [sp, #-2388]!	; 0x954
   1e110:	28642520 	stmdacs	r4!, {r5, r8, sl, sp}^
   1e114:	20296425 	eorcs	r6, r9, r5, lsr #8
   1e118:	5442614d 	strbpl	r6, [r2], #-333	; 0x14d
   1e11c:	20656d69 	rsbcs	r6, r5, r9, ror #26
   1e120:	25286425 	strcs	r6, [r8, #-1061]!	; 0x425
   1e124:	52202964 	eorpl	r2, r0, #100, 18	; 0x190000
   1e128:	65726665 	ldrbvs	r6, [r2, #-1637]!	; 0x665
   1e12c:	61526873 	cmpvs	r2, r3, ror r8
   1e130:	25206574 	strcs	r6, [r0, #-1396]!	; 0x574
   1e134:	64252864 	strtvs	r2, [r5], #-2148	; 0x864
   1e138:	00000029 	andeq	r0, r0, r9, lsr #32
   1e13c:	75706e49 	ldrbvc	r6, [r0, #-3657]!	; 0xe49
   1e140:	535b2074 	cmppl	fp, #116	; 0x74
   1e144:	5f444e45 	svcpl	0x00444e45
   1e148:	41574c41 	cmpmi	r7, r1, asr #24
   1e14c:	005d5359 	subseq	r5, sp, r9, asr r3
   1e150:	6854202c 	ldmdavs	r4, {r2, r3, r5, sp}^
   1e154:	74746f72 	ldrbtvc	r6, [r4], #-3954	; 0xf72
   1e158:	2520656c 	strcs	r6, [r0, #-1388]!	; 0x56c
   1e15c:	00000064 	andeq	r0, r0, r4, rrx
   1e160:	20584d44 	subscs	r4, r8, r4, asr #26
   1e164:	6b636170 	blvs	18f672c <__sys_stack_top+0x18d3454>
   1e168:	20737465 	rsbscs	r7, r3, r5, ror #8
   1e16c:	20726570 	rsbscs	r6, r2, r0, ror r5
   1e170:	6f636573 	svcvs	0x00636573
   1e174:	7420646e 	strtvc	r6, [r0], #-1134	; 0x46e
   1e178:	6f68206f 	svcvs	0x0068206f
   1e17c:	3a207473 	bcc	83b350 <__sys_stack_top+0x818078>
   1e180:	00642520 	rsbeq	r2, r4, r0, lsr #10
   1e184:	75706e49 	ldrbvc	r6, [r0, #-3657]!	; 0xe49
   1e188:	535b2074 	cmppl	fp, #116	; 0x74
   1e18c:	5f444e45 	svcpl	0x00444e45
   1e190:	445f4e4f 	ldrbmi	r4, [pc], #-3663	; 1e198 <board_version+0x4a4>
   1e194:	5f415441 	svcpl	0x00415441
   1e198:	4e414843 	cdpmi	8, 4, cr4, cr1, cr3, {2}
   1e19c:	4f5f4547 	svcmi	0x005f4547
   1e1a0:	5d594c4e 	ldclpl	12, cr4, [r9, #-312]	; 0xfffffec8
   1e1a4:	00000000 	andeq	r0, r0, r0
   1e1a8:	7074754f 	rsbsvc	r7, r4, pc, asr #10
   1e1ac:	00007475 	andeq	r7, r0, r5, ror r4
   1e1b0:	69614621 	stmdbvs	r1!, {r0, r5, r9, sl, lr}^
   1e1b4:	2164656c 	cmncs	r4, ip, ror #10
   1e1b8:	6e614320 	cdpvs	3, 6, cr4, cr1, cr0, {1}
   1e1bc:	20746f6e 	rsbscs	r6, r4, lr, ror #30
   1e1c0:	646e6573 	strbtvs	r6, [lr], #-1395	; 0x573
   1e1c4:	206f7420 	rsbcs	r7, pc, r0, lsr #8
   1e1c8:	74736f68 	ldrbtvc	r6, [r3], #-3944	; 0xf68
   1e1cc:	00000000 	andeq	r0, r0, r0
   1e1d0:	646e6553 	strbtvs	r6, [lr], #-1363	; 0x553
   1e1d4:	584d4420 	stmdapl	sp, {r5, sl, lr}^
   1e1d8:	74616420 	strbtvc	r6, [r1], #-1056	; 0x420
   1e1dc:	6f742061 	svcvs	0x00742061
   1e1e0:	534f4820 	movtpl	r4, #63520	; 0xf820
   1e1e4:	00000054 	andeq	r0, r0, r4, asr r0
   1e1e8:	646e6553 	strbtvs	r6, [lr], #-1363	; 0x553
   1e1ec:	4d445220 	sfmmi	f5, 2, [r4, #-128]	; 0xffffff80
   1e1f0:	74616420 	strbtvc	r6, [r1], #-1056	; 0x420
   1e1f4:	6f742061 	svcvs	0x00742061
   1e1f8:	534f4820 	movtpl	r4, #63520	; 0xf820
   1e1fc:	00000054 	andeq	r0, r0, r4, asr r0
   1e200:	6c6c6f70 	stclvs	15, cr6, [ip], #-448	; 0xfffffe40
   1e204:	4345523a 	movtmi	r5, #21050	; 0x523a
   1e208:	45564945 	ldrbmi	r4, [r6, #-2373]	; 0x945
   1e20c:	4d445f44 	stclmi	15, cr5, [r4, #-272]	; 0xfffffef0
   1e210:	41505f58 	cmpmi	r0, r8, asr pc
   1e214:	54454b43 	strbpl	r4, [r5], #-2883	; 0xb43
   1e218:	00000000 	andeq	r0, r0, r0
   1e21c:	646e6553 	strbtvs	r6, [lr], #-1363	; 0x553
   1e220:	584d4420 	stmdapl	sp, {r5, sl, lr}^
   1e224:	74616420 	strbtvc	r6, [r1], #-1056	; 0x420
   1e228:	6f742061 	svcvs	0x00742061
   1e22c:	534f4820 	movtpl	r4, #63520	; 0xf820
   1e230:	25202c54 	strcs	r2, [r0, #-3156]!	; 0xc54
   1e234:	00000064 	andeq	r0, r0, r4, rrx
   1e238:	646e6553 	strbtvs	r6, [lr], #-1363	; 0x553
   1e23c:	4d445220 	sfmmi	f5, 2, [r4, #-128]	; 0xffffff80
   1e240:	74616420 	strbtvc	r6, [r1], #-1056	; 0x420
   1e244:	6f742061 	svcvs	0x00742061
   1e248:	534f4820 	movtpl	r4, #63520	; 0xf820
   1e24c:	70202c54 	eorvc	r2, r0, r4, asr ip
   1e250:	616b6361 	cmnvs	fp, r1, ror #6
   1e254:	6c206567 	cfstr32vs	mvfx6, [r0], #-412	; 0xfffffe64
   1e258:	74676e65 	strbtvc	r6, [r7], #-3685	; 0xe65
   1e25c:	203a2068 	eorscs	r2, sl, r8, rrx
   1e260:	00006425 	andeq	r6, r0, r5, lsr #8
   1e264:	45434552 	strbmi	r4, [r3, #-1362]	; 0x552
   1e268:	44455649 	strbmi	r5, [r5], #-1609	; 0x649
   1e26c:	4d44525f 	sfmmi	f5, 2, [r4, #-380]	; 0xfffffe84
   1e270:	4341505f 	movtmi	r5, #4191	; 0x105f
   1e274:	2054454b 	subscs	r4, r4, fp, asr #10
   1e278:	303a4353 	eorscc	r4, sl, r3, asr r3
   1e27c:	20434378 	subcs	r4, r3, r8, ror r3
   1e280:	253a6e74 	ldrcs	r6, [sl, #-3700]!	; 0xe74
   1e284:	202c2064 	eorcs	r2, ip, r4, rrx
   1e288:	253a6363 	ldrcs	r6, [sl, #-867]!	; 0x363
   1e28c:	2c78322e 	lfmcs	f3, 2, [r8], #-184	; 0xffffff48
   1e290:	64697020 	strbtvs	r7, [r9], #-32
   1e294:	0064253a 	rsbeq	r2, r4, sl, lsr r5
   1e298:	646e6553 	strbtvs	r6, [lr], #-1363	; 0x553
   1e29c:	4d445220 	sfmmi	f5, 2, [r4, #-128]	; 0xffffff80
   1e2a0:	74616420 	strbtvc	r6, [r1], #-1056	; 0x420
   1e2a4:	6f742061 	svcvs	0x00742061
   1e2a8:	534f4820 	movtpl	r4, #63520	; 0xf820
   1e2ac:	6d202c54 	stcvs	12, cr2, [r0, #-336]!	; 0xfffffeb0
   1e2b0:	61737365 	cmnvs	r3, r5, ror #6
   1e2b4:	6c5f6567 	cfldr64vs	mvdx6, [pc], {103}	; 0x67
   1e2b8:	74676e65 	strbtvc	r6, [r7], #-3685	; 0xe65
   1e2bc:	203a2068 	eorscs	r2, sl, r8, rrx
   1e2c0:	00006425 	andeq	r6, r0, r5, lsr #8
   1e2c4:	5f6d6472 	svcpl	0x006d6472
   1e2c8:	656d6974 	strbvs	r6, [sp, #-2420]!	; 0x974
   1e2cc:	74756f5f 	ldrbtvc	r6, [r5], #-3935	; 0xf5f
   1e2d0:	73656d5f 	cmnvc	r5, #6080	; 0x17c0
   1e2d4:	65676173 	strbvs	r6, [r7, #-371]!	; 0x173
   1e2d8:	00000000 	andeq	r0, r0, r0
   1e2dc:	45434552 	strbmi	r4, [r3, #-1362]	; 0x552
   1e2e0:	44455649 	strbmi	r5, [r5], #-1609	; 0x649
   1e2e4:	4d44525f 	sfmmi	f5, 2, [r4, #-380]	; 0xfffffe84
   1e2e8:	4341505f 	movtmi	r5, #4191	; 0x105f
   1e2ec:	2054454b 	subscs	r4, r4, fp, asr #10
   1e2f0:	303a4353 	eorscc	r4, sl, r3, asr r3
   1e2f4:	00454678 	subeq	r4, r5, r8, ror r6
   1e2f8:	5054554f 	subspl	r5, r4, pc, asr #10
   1e2fc:	4f5f5455 	svcmi	0x005f5455
   1e300:	5f594c4e 	svcpl	0x00594c4e
   1e304:	444e4553 	strbmi	r4, [lr], #-1363	; 0x553
   1e308:	584d445f 	stmdapl	sp, {r0, r1, r2, r3, r4, r6, sl, lr}^
   1e30c:	4341505f 	movtmi	r5, #4191	; 0x105f
   1e310:	5f54454b 	svcpl	0x0054454b
   1e314:	55514552 	ldrbpl	r4, [r1, #-1362]	; 0x552
   1e318:	00545345 	subseq	r5, r4, r5, asr #6
   1e31c:	45434552 	strbmi	r4, [r3, #-1362]	; 0x552
   1e320:	44455649 	strbmi	r5, [r5], #-1609	; 0x649
   1e324:	584d445f 	stmdapl	sp, {r0, r1, r2, r3, r4, r6, sl, lr}^
   1e328:	534f435f 	movtpl	r4, #62303	; 0xf35f
   1e32c:	5059545f 	subspl	r5, r9, pc, asr r4
   1e330:	00000045 	andeq	r0, r0, r5, asr #32
   1e334:	646e6553 	strbtvs	r6, [lr], #-1363	; 0x553
   1e338:	61686320 	cmnvs	r8, r0, lsr #6
   1e33c:	6465676e 	strbtvs	r6, [r5], #-1902	; 0x76e
   1e340:	584d4420 	stmdapl	sp, {r5, sl, lr}^
   1e344:	74616420 	strbtvc	r6, [r1], #-1056	; 0x420
   1e348:	6f742061 	svcvs	0x00742061
   1e34c:	534f4820 	movtpl	r4, #63520	; 0xf820
   1e350:	00000054 	andeq	r0, r0, r4, asr r0
   1e354:	64253a4c 	strtvs	r3, [r5], #-2636	; 0xa4c
   1e358:	2864253a 	stmdacs	r4!, {r1, r3, r4, r5, r8, sl, sp}^
   1e35c:	00296425 	eoreq	r6, r9, r5, lsr #8
   1e360:	5f544547 	svcpl	0x00544547
   1e364:	47444957 	smlsldmi	r4, r4, r7, r9	; <UNPREDICTABLE>
   1e368:	505f5445 	subspl	r5, pc, r5, asr #8
   1e36c:	4d415241 	sfmmi	f5, 2, [r1, #-260]	; 0xfffffefc
   1e370:	45525f53 	ldrbmi	r5, [r2, #-3923]	; 0xf53
   1e374:	00594c50 	subseq	r4, r9, r0, asr ip
   1e378:	5f544553 	svcpl	0x00544553
   1e37c:	47444957 	smlsldmi	r4, r4, r7, r9	; <UNPREDICTABLE>
   1e380:	505f5445 	subspl	r5, pc, r5, asr #8
   1e384:	4d415241 	sfmmi	f5, 2, [r1, #-260]	; 0xfffffefc
   1e388:	00000053 	andeq	r0, r0, r3, asr r0
   1e38c:	5f544547 	svcpl	0x00544547
   1e390:	47444957 	smlsldmi	r4, r4, r7, r9	; <UNPREDICTABLE>
   1e394:	4e5f5445 	cdpmi	4, 5, cr5, cr15, cr5, {2}
   1e398:	5f454d41 	svcpl	0x00454d41
   1e39c:	4542414c 	strbmi	r4, [r2, #-332]	; 0x14c
   1e3a0:	0000004c 	andeq	r0, r0, ip, asr #32
   1e3a4:	554e414d 	strbpl	r4, [lr, #-333]	; 0x14d
   1e3a8:	54434146 	strbpl	r4, [r3], #-326	; 0x146
   1e3ac:	52455255 	subpl	r5, r5, #1342177285	; 0x50000005
   1e3b0:	42414c5f 	submi	r4, r1, #24320	; 0x5f00
   1e3b4:	00004c45 	andeq	r4, r0, r5, asr #24
   1e3b8:	45434552 	strbmi	r4, [r3, #-1362]	; 0x552
   1e3bc:	5f455649 	svcpl	0x00455649
   1e3c0:	5f584d44 	svcpl	0x00584d44
   1e3c4:	435f4e4f 	cmpmi	pc, #1264	; 0x4f0
   1e3c8:	474e4148 	strbmi	r4, [lr, -r8, asr #2]
   1e3cc:	00000045 	andeq	r0, r0, r5, asr #32
   1e3d0:	444e4553 	strbmi	r4, [lr], #-1363	; 0x553
   1e3d4:	4d44525f 	sfmmi	f5, 2, [r4, #-380]	; 0xfffffe84
   1e3d8:	4341505f 	movtmi	r5, #4191	; 0x105f
   1e3dc:	5f54454b 	svcpl	0x0054454b
   1e3e0:	55514552 	ldrbpl	r4, [r1, #-1362]	; 0x552
   1e3e4:	00545345 	subseq	r5, r4, r5, asr #6
   1e3e8:	444e4553 	strbmi	r4, [lr], #-1363	; 0x553
   1e3ec:	4d44525f 	sfmmi	f5, 2, [r4, #-380]	; 0xfffffe84
   1e3f0:	5349445f 	movtpl	r4, #37983	; 0x945f
   1e3f4:	45564f43 	ldrbmi	r4, [r6, #-3907]	; 0xf43
   1e3f8:	525f5952 	subspl	r5, pc, #1343488	; 0x148000
   1e3fc:	45555145 	ldrbmi	r5, [r5, #-325]	; 0x145
   1e400:	00005453 	andeq	r5, r0, r3, asr r4
   1e404:	706d6f43 	rsbvc	r6, sp, r3, asr #30
   1e408:	64656c69 	strbtvs	r6, [r5], #-3177	; 0xc69
   1e40c:	206e6f20 	rsbcs	r6, lr, r0, lsr #30
   1e410:	61207325 	teqvs	r0, r5, lsr #6
   1e414:	73252074 	teqvc	r5, #116	; 0x74
   1e418:	0000000a 	andeq	r0, r0, sl
   1e41c:	206c754a 	rsbcs	r7, ip, sl, asr #10
   1e420:	32203932 	eorcc	r3, r0, #819200	; 0xc8000
   1e424:	00353130 	eorseq	r3, r5, r0, lsr r1
   1e428:	303a3331 	eorscc	r3, sl, r1, lsr r3
   1e42c:	39353a35 	ldmdbcc	r5!, {r0, r2, r4, r5, r9, fp, ip, sp}
   1e430:	00000000 	andeq	r0, r0, r0
   1e434:	204d4452 	subcs	r4, sp, r2, asr r4
   1e438:	746e6f43 	strbtvc	r6, [lr], #-3907	; 0xf43
   1e43c:	6c6c6f72 	stclvs	15, cr6, [ip], #-456	; 0xfffffe38
   1e440:	77207265 	strvc	r7, [r0, -r5, ror #4]!
   1e444:	20687469 	rsbcs	r7, r8, r9, ror #8
   1e448:	20425355 	subcs	r5, r2, r5, asr r3
   1e44c:	6d6f435b 	stclvs	3, cr4, [pc, #-364]!	; 1e2e8 <board_version+0x5f4>
   1e450:	69746170 	ldmdbvs	r4!, {r4, r5, r6, r8, sp, lr}^
   1e454:	20656c62 	rsbcs	r6, r5, r2, ror #24
   1e458:	68746977 	ldmdavs	r4!, {r0, r1, r2, r4, r5, r6, r8, fp, sp, lr}^
   1e45c:	746e4520 	strbtvc	r4, [lr], #-1312	; 0x520
   1e460:	20636574 	rsbcs	r6, r3, r4, ror r5
   1e464:	20425355 	subcs	r5, r2, r5, asr r3
   1e468:	206f7250 	rsbcs	r7, pc, r0, asr r2	; <UNPREDICTABLE>
   1e46c:	746f7270 	strbtvc	r7, [pc], #-624	; 1e474 <board_version+0x780>
   1e470:	6c6f636f 	stclvs	3, cr6, [pc], #-444	; 1e2bc <board_version+0x5c8>
   1e474:	57202c5d 			; <UNDEFINED> instruction: 0x57202c5d
   1e478:	65676469 	strbvs	r6, [r7, #-1129]!	; 0x469
   1e47c:	6f6d2074 	svcvs	0x006d2074
   1e480:	3a206564 	bcc	837a18 <__sys_stack_top+0x814740>
   1e484:	0a642520 	beq	192790c <__sys_stack_top+0x1904634>
   1e488:	00000000 	andeq	r0, r0, r0
   1e48c:	69766544 	ldmdbvs	r6!, {r2, r6, r8, sl, sp, lr}^
   1e490:	55206563 	strpl	r6, [r0, #-1379]!	; 0x563
   1e494:	20444955 	subcs	r4, r4, r5, asr r9
   1e498:	2e25203a 	mcrcs	0, 1, r2, cr5, cr10, {1}
   1e49c:	2e257832 	mcrcs	8, 1, r7, cr5, cr2, {1}
   1e4a0:	253a7832 	ldrcs	r7, [sl, #-2098]!	; 0x832
   1e4a4:	2578322e 	ldrbcs	r3, [r8, #-558]!	; 0x22e
   1e4a8:	2578322e 	ldrbcs	r3, [r8, #-558]!	; 0x22e
   1e4ac:	2578322e 	ldrbcs	r3, [r8, #-558]!	; 0x22e
   1e4b0:	0a78322e 	beq	1e2ad70 <__sys_stack_top+0x1e07a98>
   1e4b4:	00000000 	andeq	r0, r0, r0
   1e4b8:	3c3a2a22 	ldccc	10, cr2, [sl], #-136	; 0xffffff78
   1e4bc:	7f7c3f3e 	svcvc	0x007c3f3e
   1e4c0:	00000000 	andeq	r0, r0, r0
   1e4c4:	3d3b2c2b 	ldccc	12, cr2, [fp, #-172]!	; 0xffffff54
   1e4c8:	00005d5b 	andeq	r5, r0, fp, asr sp
   1e4cc:	203a4453 	eorscs	r4, sl, r3, asr r4
   1e4d0:	43206f6e 	teqmi	r0, #440	; 0x1b8
   1e4d4:	2030444d 	eorscs	r4, r0, sp, asr #8
   1e4d8:	70736572 	rsbsvc	r6, r3, r2, ror r5
   1e4dc:	65736e6f 	ldrbvs	r6, [r3, #-3695]!	; 0xe6f
   1e4e0:	0000000a 	andeq	r0, r0, sl
   1e4e4:	203a4453 	eorscs	r4, sl, r3, asr r4
   1e4e8:	6c696166 	stfvse	f6, [r9], #-408	; 0xfffffe68
   1e4ec:	20657275 	rsbcs	r7, r5, r5, ror r2
   1e4f0:	646e6573 	strbtvs	r6, [lr], #-1395	; 0x573
   1e4f4:	20676e69 	rsbcs	r6, r7, r9, ror #28
   1e4f8:	38444d43 	stmdacc	r4, {r0, r1, r6, r8, sl, fp, lr}^
   1e4fc:	30252820 	eorcc	r2, r5, r0, lsr #16
   1e500:	0a297838 	beq	a7c5e8 <__sys_stack_top+0xa59310>
   1e504:	00000000 	andeq	r0, r0, r0
   1e508:	203a4453 	eorscs	r4, sl, r3, asr r4
   1e50c:	73756e75 	cmnvc	r5, #1872	; 0x750
   1e510:	656c6261 	strbvs	r6, [ip, #-609]!	; 0x261
   1e514:	72616320 	rsbvc	r6, r1, #32, 6	; 0x80000000
   1e518:	00000a64 	andeq	r0, r0, r4, ror #20
   1e51c:	203a4453 	eorscs	r4, sl, r3, asr r4
   1e520:	4f494453 	svcmi	0x00494453
   1e524:	72616320 	rsbvc	r6, r1, #32, 6	; 0x80000000
   1e528:	65642064 	strbvs	r2, [r4, #-100]!	; 0x64
   1e52c:	74636574 	strbtvc	r6, [r3], #-1396	; 0x574
   1e530:	2d206465 	cfstrscs	mvf6, [r0, #-404]!	; 0xfffffe6c
   1e534:	746f6e20 	strbtvc	r6, [pc], #-3616	; 1e53c <board_version+0x848>
   1e538:	72756320 	rsbsvc	r6, r5, #32, 6	; 0x80000000
   1e53c:	746e6572 	strbtvc	r6, [lr], #-1394	; 0x572
   1e540:	7320796c 	teqvc	r0, #108, 18	; 0x1b0000
   1e544:	6f707075 	svcvs	0x00707075
   1e548:	64657472 	strbtvs	r7, [r5], #-1138	; 0x472
   1e54c:	0000000a 	andeq	r0, r0, sl
   1e550:	203a4453 	eorscs	r4, sl, r3, asr r4
   1e554:	75716e69 	ldrbvc	r6, [r1, #-3689]!	; 0xe69
   1e558:	20797269 	rsbscs	r7, r9, r9, ror #4
   1e55c:	444d4341 	strbmi	r4, [sp], #-833	; 0x341
   1e560:	66203134 			; <UNDEFINED> instruction: 0x66203134
   1e564:	656c6961 	strbvs	r6, [ip, #-2401]!	; 0x961
   1e568:	00000a64 	andeq	r0, r0, r4, ror #20
   1e56c:	203a4453 	eorscs	r4, sl, r3, asr r4
   1e570:	6f727265 	svcvs	0x00727265
   1e574:	73692072 	cmnvc	r9, #114	; 0x72
   1e578:	6e697573 	mcrvs	5, 3, r7, cr9, cr3, {3}
   1e57c:	43412067 	movtmi	r2, #4199	; 0x1067
   1e580:	3134444d 	teqcc	r4, sp, asr #8
   1e584:	0000000a 	andeq	r0, r0, sl
   1e588:	203a4453 	eorscs	r4, sl, r3, asr r4
   1e58c:	6f727265 	svcvs	0x00727265
   1e590:	65732072 	ldrbvs	r2, [r3, #-114]!	; 0x72
   1e594:	6e69646e 	cdpvs	4, 6, cr6, cr9, cr14, {3}
   1e598:	4c412067 	mcrrmi	0, 6, r2, r1, cr7
   1e59c:	45535f4c 	ldrbmi	r5, [r3, #-3916]	; 0xf4c
   1e5a0:	435f444e 	cmpmi	pc, #1308622848	; 0x4e000000
   1e5a4:	000a4449 	andeq	r4, sl, r9, asr #8
   1e5a8:	203a4453 	eorscs	r4, sl, r3, asr r4
   1e5ac:	6f727265 	svcvs	0x00727265
   1e5b0:	65732072 	ldrbvs	r2, [r3, #-114]!	; 0x72
   1e5b4:	6e69646e 	cdpvs	4, 6, cr6, cr9, cr14, {3}
   1e5b8:	45532067 	ldrbmi	r2, [r3, #-103]	; 0x67
   1e5bc:	525f444e 	subspl	r4, pc, #1308622848	; 0x4e000000
   1e5c0:	54414c45 	strbpl	r4, [r1], #-3141	; 0xc45
   1e5c4:	5f455649 	svcpl	0x00455649
   1e5c8:	52444441 	subpl	r4, r4, #1090519040	; 0x41000000
   1e5cc:	0000000a 	andeq	r0, r0, sl
   1e5d0:	203a4453 	eorscs	r4, sl, r3, asr r4
   1e5d4:	20435243 	subcs	r5, r3, r3, asr #4
   1e5d8:	6f727265 	svcvs	0x00727265
   1e5dc:	00000a72 	andeq	r0, r0, r2, ror sl
   1e5e0:	203a4453 	eorscs	r4, sl, r3, asr r4
   1e5e4:	656c6c69 	strbvs	r6, [ip, #-3177]!	; 0xc69
   1e5e8:	206c6167 	rsbcs	r6, ip, r7, ror #2
   1e5ec:	6d6d6f63 	stclvs	15, cr6, [sp, #-396]!	; 0xfffffe74
   1e5f0:	0a646e61 	beq	1939f7c <__sys_stack_top+0x1916ca4>
   1e5f4:	00000000 	andeq	r0, r0, r0
   1e5f8:	203a4453 	eorscs	r4, sl, r3, asr r4
   1e5fc:	656e6567 	strbvs	r6, [lr, #-1383]!	; 0x567
   1e600:	20636972 	rsbcs	r6, r3, r2, ror r9
   1e604:	6f727265 	svcvs	0x00727265
   1e608:	00000a72 	andeq	r0, r0, r2, ror sl
   1e60c:	203a4453 	eorscs	r4, sl, r3, asr r4
   1e610:	20746f6e 	rsbscs	r6, r4, lr, ror #30
   1e614:	64616572 	strbtvs	r6, [r1], #-1394	; 0x572
   1e618:	6f662079 	svcvs	0x00662079
   1e61c:	61642072 	smcvs	16898	; 0x4202
   1e620:	000a6174 	andeq	r6, sl, r4, ror r1
   1e624:	203a4453 	eorscs	r4, sl, r3, asr r4
   1e628:	6f727265 	svcvs	0x00727265
   1e62c:	65732072 	ldrbvs	r2, [r3, #-114]!	; 0x72
   1e630:	6e69646e 	cdpvs	4, 6, cr6, cr9, cr14, {3}
   1e634:	4d432067 	stclmi	0, cr2, [r3, #-412]	; 0xfffffe64
   1e638:	000a3744 	andeq	r3, sl, r4, asr #14
   1e63c:	203a4453 	eorscs	r4, sl, r3, asr r4
   1e640:	61766e69 	cmnvs	r6, r9, ror #28
   1e644:	2064696c 	rsbcs	r6, r4, ip, ror #18
   1e648:	74617473 	strbtvc	r7, [r1], #-1139	; 0x473
   1e64c:	28207375 	stmdacs	r0!, {r0, r2, r4, r5, r6, r8, r9, ip, sp, lr}
   1e650:	0a296925 	beq	a78aec <__sys_stack_top+0xa55814>
   1e654:	00000000 	andeq	r0, r0, r0
   1e658:	203a4453 	eorscs	r4, sl, r3, asr r4
   1e65c:	6f727265 	svcvs	0x00727265
   1e660:	65732072 	ldrbvs	r2, [r3, #-114]!	; 0x72
   1e664:	6e69646e 	cdpvs	4, 6, cr6, cr9, cr14, {3}
   1e668:	45532067 	ldrbmi	r2, [r3, #-103]	; 0x67
   1e66c:	4c425f54 	mcrrmi	15, 5, r5, r2, cr4
   1e670:	4c4b434f 	mcrrmi	3, 4, r4, fp, cr15
   1e674:	000a4e45 	andeq	r4, sl, r5, asr #28
   1e678:	203a4453 	eorscs	r4, sl, r3, asr r4
   1e67c:	6f727265 	svcvs	0x00727265
   1e680:	65732072 	ldrbvs	r2, [r3, #-114]!	; 0x72
   1e684:	6e69646e 	cdpvs	4, 6, cr6, cr9, cr14, {3}
   1e688:	45532067 	ldrbmi	r2, [r3, #-103]	; 0x67
   1e68c:	535f444e 	cmppl	pc, #1308622848	; 0x4e000000
   1e690:	000a5243 	andeq	r5, sl, r3, asr #4
   1e694:	203a4453 	eorscs	r4, sl, r3, asr r4
   1e698:	74697773 	strbtvc	r7, [r9], #-1907	; 0x773
   1e69c:	74206863 	strtvc	r6, [r0], #-2147	; 0x863
   1e6a0:	2d34206f 	ldccs	0, cr2, [r4, #-444]!	; 0xfffffe44
   1e6a4:	20746962 	rsbscs	r6, r4, r2, ror #18
   1e6a8:	61746164 	cmnvs	r4, r4, ror #2
   1e6ac:	646f6d20 	strbtvs	r6, [pc], #-3360	; 1e6b4 <board_version+0x9c0>
   1e6b0:	61662065 	cmnvs	r6, r5, rrx
   1e6b4:	64656c69 	strbtvs	r6, [r5], #-3177	; 0xc69
   1e6b8:	0000000a 	andeq	r0, r0, sl
   1e6bc:	203a4453 	eorscs	r4, sl, r3, asr r4
   1e6c0:	75736e65 	ldrbvc	r6, [r3, #-3685]!	; 0xe65
   1e6c4:	645f6572 	ldrbvs	r6, [pc], #-1394	; 1e6cc <board_version+0x9d8>
   1e6c8:	5f617461 	svcpl	0x00617461
   1e6cc:	65646f6d 	strbvs	r6, [r4, #-3949]!	; 0xf6d
   1e6d0:	65202928 	strvs	r2, [r0, #-2344]!	; 0x928
   1e6d4:	726f7272 	rsbvc	r7, pc, #536870919	; 0x20000007
   1e6d8:	6e657320 	cdpvs	3, 6, cr7, cr5, cr0, {1}
   1e6dc:	676e6964 	strbvs	r6, [lr, -r4, ror #18]!
   1e6e0:	444d4320 	strbmi	r4, [sp], #-800	; 0x320
   1e6e4:	000a3331 	andeq	r3, sl, r1, lsr r3
   1e6e8:	203a4453 	eorscs	r4, sl, r3, asr r4
   1e6ec:	75736e65 	ldrbvc	r6, [r3, #-3685]!	; 0xe65
   1e6f0:	645f6572 	ldrbvs	r6, [pc], #-1394	; 1e6f8 <board_version+0xa04>
   1e6f4:	5f617461 	svcpl	0x00617461
   1e6f8:	65646f6d 	strbvs	r6, [r4, #-3949]!	; 0xf6d
   1e6fc:	6e202928 	cdpvs	9, 2, cr2, cr0, cr8, {1}
   1e700:	6572206f 	ldrbvs	r2, [r2, #-111]!	; 0x6f
   1e704:	6e6f7073 	mcrvs	0, 3, r7, cr15, cr3, {3}
   1e708:	66206573 			; <UNDEFINED> instruction: 0x66206573
   1e70c:	206d6f72 	rsbcs	r6, sp, r2, ror pc
   1e710:	31444d43 	cmpcc	r4, r3, asr #26
   1e714:	00000a37 	andeq	r0, r0, r7, lsr sl
   1e718:	203a4453 	eorscs	r4, sl, r3, asr r4
   1e71c:	75736e65 	ldrbvc	r6, [r3, #-3685]!	; 0xe65
   1e720:	645f6572 	ldrbvs	r6, [pc], #-1394	; 1e728 <board_version+0xa34>
   1e724:	5f617461 	svcpl	0x00617461
   1e728:	65646f6d 	strbvs	r6, [r4, #-3949]!	; 0xf6d
   1e72c:	6e202928 	cdpvs	9, 2, cr2, cr0, cr8, {1}
   1e730:	6572206f 	ldrbvs	r2, [r2, #-111]!	; 0x6f
   1e734:	6e6f7073 	mcrvs	0, 3, r7, cr15, cr3, {3}
   1e738:	66206573 			; <UNDEFINED> instruction: 0x66206573
   1e73c:	206d6f72 	rsbcs	r6, sp, r2, ror pc
   1e740:	31444d43 	cmpcc	r4, r3, asr #26
   1e744:	00000a32 	andeq	r0, r0, r2, lsr sl
   1e748:	203a4453 	eorscs	r4, sl, r3, asr r4
   1e74c:	75736e65 	ldrbvc	r6, [r3, #-3685]!	; 0xe65
   1e750:	645f6572 	ldrbvs	r6, [pc], #-1394	; 1e758 <board_version+0xa64>
   1e754:	5f617461 	svcpl	0x00617461
   1e758:	65646f6d 	strbvs	r6, [r4, #-3949]!	; 0xf6d
   1e75c:	6e202928 	cdpvs	9, 2, cr2, cr0, cr8, {1}
   1e760:	6572206f 	ldrbvs	r2, [r2, #-111]!	; 0x6f
   1e764:	6e6f7073 	mcrvs	0, 3, r7, cr15, cr3, {3}
   1e768:	66206573 			; <UNDEFINED> instruction: 0x66206573
   1e76c:	206d6f72 	rsbcs	r6, sp, r2, ror pc
   1e770:	31444d43 	cmpcc	r4, r3, asr #26
   1e774:	00000a33 	andeq	r0, r0, r3, lsr sl
   1e778:	203a4453 	eorscs	r4, sl, r3, asr r4
   1e77c:	62616e75 	rsbvs	r6, r1, #1872	; 0x750
   1e780:	7420656c 	strtvc	r6, [r0], #-1388	; 0x56c
   1e784:	6e69206f 	cdpvs	0, 6, cr2, cr9, cr15, {3}
   1e788:	61697469 	cmnvs	r9, r9, ror #8
   1e78c:	657a696c 	ldrbvs	r6, [sl, #-2412]!	; 0x96c
   1e790:	20445320 	subcs	r5, r4, r0, lsr #6
   1e794:	64726163 	ldrbtvs	r6, [r2], #-355	; 0x163
   1e798:	206f7420 	rsbcs	r7, pc, r0, lsr #8
   1e79c:	61746164 	cmnvs	r4, r4, ror #2
   1e7a0:	646f6d20 	strbtvs	r6, [pc], #-3360	; 1e7a8 <board_version+0xab4>
   1e7a4:	73282065 	teqvc	r8, #101	; 0x65
   1e7a8:	65746174 	ldrbvs	r6, [r4, #-372]!	; 0x174
   1e7ac:	29692520 	stmdbcs	r9!, {r5, r8, sl, sp}^
   1e7b0:	0000000a 	andeq	r0, r0, sl
   1e7b4:	203a4453 	eorscs	r4, sl, r3, asr r4
   1e7b8:	645f6f64 	ldrbvs	r6, [pc], #-3940	; 1e7c0 <board_version+0xacc>
   1e7bc:	5f617461 	svcpl	0x00617461
   1e7c0:	6d6d6f63 	stclvs	15, cr6, [sp, #-396]!	; 0xfffffe74
   1e7c4:	28646e61 	stmdacs	r4!, {r0, r5, r6, r9, sl, fp, sp, lr}^
   1e7c8:	61632029 	cmnvs	r3, r9, lsr #32
   1e7cc:	64656c6c 	strbtvs	r6, [r5], #-3180	; 0xc6c
   1e7d0:	74697720 	strbtvc	r7, [r9], #-1824	; 0x720
   1e7d4:	75622068 	strbvc	r2, [r2, #-104]!	; 0x68
   1e7d8:	72656666 	rsbvc	r6, r5, #106954752	; 0x6600000
   1e7dc:	7a697320 	bvc	1a7b464 <__sys_stack_top+0x1a5818c>
   1e7e0:	25282065 	strcs	r2, [r8, #-101]!	; 0x65
   1e7e4:	6c202969 	stcvs	9, cr2, [r0], #-420	; 0xfffffe5c
   1e7e8:	20737365 	rsbscs	r7, r3, r5, ror #6
   1e7ec:	6e616874 	mcrvs	8, 3, r6, cr1, cr4, {3}
   1e7f0:	6f6c6220 	svcvs	0x006c6220
   1e7f4:	73206b63 	teqvc	r0, #101376	; 0x18c00
   1e7f8:	20657a69 	rsbcs	r7, r5, r9, ror #20
   1e7fc:	29692528 	stmdbcs	r9!, {r3, r5, r8, sl, sp}^
   1e800:	0000000a 	andeq	r0, r0, sl
   1e804:	203a4453 	eorscs	r4, sl, r3, asr r4
   1e808:	645f6f64 	ldrbvs	r6, [pc], #-3940	; 1e810 <board_version+0xb1c>
   1e80c:	5f617461 	svcpl	0x00617461
   1e810:	6d6d6f63 	stclvs	15, cr6, [sp, #-396]!	; 0xfffffe74
   1e814:	28646e61 	stmdacs	r4!, {r0, r5, r6, r9, sl, fp, sp, lr}^
   1e818:	61632029 	cmnvs	r3, r9, lsr #32
   1e81c:	64656c6c 	strbtvs	r6, [r5], #-3180	; 0xc6c
   1e820:	74697720 	strbtvc	r7, [r9], #-1824	; 0x720
   1e824:	75622068 	strbvc	r2, [r2, #-104]!	; 0x68
   1e828:	72656666 	rsbvc	r6, r5, #106954752	; 0x6600000
   1e82c:	7a697320 	bvc	1a7b4b4 <__sys_stack_top+0x1a581dc>
   1e830:	25282065 	strcs	r2, [r8, #-101]!	; 0x65
   1e834:	6e202969 	cdpvs	9, 2, cr2, cr0, cr9, {3}
   1e838:	6120746f 	teqvs	r0, pc, ror #8
   1e83c:	7865206e 	stmdavc	r5!, {r1, r2, r3, r5, r6, sp}^
   1e840:	20746361 	rsbscs	r6, r4, r1, ror #6
   1e844:	746c756d 	strbtvc	r7, [ip], #-1389	; 0x56d
   1e848:	656c7069 	strbvs	r7, [ip, #-105]!	; 0x69
   1e84c:	20666f20 	rsbcs	r6, r6, r0, lsr #30
   1e850:	636f6c62 	cmnvs	pc, #25088	; 0x6200
   1e854:	6973206b 	ldmdbvs	r3!, {r0, r1, r3, r5, r6, sp}^
   1e858:	2820657a 	stmdacs	r0!, {r1, r3, r4, r5, r6, r8, sl, sp, lr}
   1e85c:	0a296925 	beq	a78cf8 <__sys_stack_top+0xa55a20>
   1e860:	00000000 	andeq	r0, r0, r0
   1e864:	203a4453 	eorscs	r4, sl, r3, asr r4
   1e868:	61766e69 	cmnvs	r6, r9, ror #28
   1e86c:	2064696c 	rsbcs	r6, r4, ip, ror #18
   1e870:	6d6d6f63 	stclvs	15, cr6, [sp, #-396]!	; 0xfffffe74
   1e874:	20646e61 	rsbcs	r6, r4, r1, ror #28
   1e878:	25444d43 	strbcs	r4, [r4, #-3395]	; 0xd43
   1e87c:	00000a69 	andeq	r0, r0, r9, ror #20
   1e880:	203a4453 	eorscs	r4, sl, r3, asr r4
   1e884:	6f727265 	svcvs	0x00727265
   1e888:	65732072 	ldrbvs	r2, [r3, #-114]!	; 0x72
   1e88c:	6e69646e 	cdpvs	4, 6, cr6, cr9, cr14, {3}
   1e890:	4d432067 	stclmi	0, cr2, [r3, #-412]	; 0xfffffe64
   1e894:	2c692544 	cfstr64cs	mvdx2, [r9], #-272	; 0xfffffef0
   1e898:	00000020 	andeq	r0, r0, r0, lsr #32
   1e89c:	6f727265 	svcvs	0x00727265
   1e8a0:	203d2072 	eorscs	r2, sp, r2, ror r0
   1e8a4:	78383025 	ldmdavc	r8!, {r0, r2, r5, ip, sp}
   1e8a8:	0020202e 	eoreq	r2, r0, lr, lsr #32
   1e8ac:	72746552 	rsbsvc	r6, r4, #343932928	; 0x14800000
   1e8b0:	676e6979 			; <UNDEFINED> instruction: 0x676e6979
   1e8b4:	0a2e2e2e 	beq	baa174 <__sys_stack_top+0xb86e9c>
   1e8b8:	00000000 	andeq	r0, r0, r0
   1e8bc:	69766947 	ldmdbvs	r6!, {r0, r1, r2, r6, r8, fp, sp, lr}^
   1e8c0:	7520676e 	strvc	r6, [r0, #-1902]!	; 0x76e
   1e8c4:	000a2e70 	andeq	r2, sl, r0, ror lr
   1e8c8:	00000043 	andeq	r0, r0, r3, asr #32

0001e8cc <_global_impure_ptr>:
   1e8cc:	0001e9e8 	andeq	lr, r1, r8, ror #19

0001e8d0 <_DAYS_BEFORE_MONTH>:
   1e8d0:	00000000 	andeq	r0, r0, r0
   1e8d4:	0000001f 	andeq	r0, r0, pc, lsl r0
   1e8d8:	0000003b 	andeq	r0, r0, fp, lsr r0
   1e8dc:	0000005a 	andeq	r0, r0, sl, asr r0
   1e8e0:	00000078 	andeq	r0, r0, r8, ror r0
   1e8e4:	00000097 	muleq	r0, r7, r0
   1e8e8:	000000b5 	strheq	r0, [r0], -r5
   1e8ec:	000000d4 	ldrdeq	r0, [r0], -r4
   1e8f0:	000000f3 	strdeq	r0, [r0], -r3
   1e8f4:	00000111 	andeq	r0, r0, r1, lsl r1
   1e8f8:	00000130 	andeq	r0, r0, r0, lsr r1
   1e8fc:	0000014e 	andeq	r0, r0, lr, asr #2

0001e900 <DAYS_IN_MONTH>:
   1e900:	0000001f 	andeq	r0, r0, pc, lsl r0
   1e904:	0000001c 	andeq	r0, r0, ip, lsl r0
   1e908:	0000001f 	andeq	r0, r0, pc, lsl r0
   1e90c:	0000001e 	andeq	r0, r0, lr, lsl r0
   1e910:	0000001f 	andeq	r0, r0, pc, lsl r0
   1e914:	0000001e 	andeq	r0, r0, lr, lsl r0
   1e918:	0000001f 	andeq	r0, r0, pc, lsl r0
   1e91c:	0000001f 	andeq	r0, r0, pc, lsl r0
   1e920:	0000001e 	andeq	r0, r0, lr, lsl r0
   1e924:	0000001f 	andeq	r0, r0, pc, lsl r0
   1e928:	0000001e 	andeq	r0, r0, lr, lsl r0
   1e92c:	0000001f 	andeq	r0, r0, pc, lsl r0

0001e930 <mon_lengths>:
   1e930:	0000001f 	andeq	r0, r0, pc, lsl r0
   1e934:	0000001c 	andeq	r0, r0, ip, lsl r0
   1e938:	0000001f 	andeq	r0, r0, pc, lsl r0
   1e93c:	0000001e 	andeq	r0, r0, lr, lsl r0
   1e940:	0000001f 	andeq	r0, r0, pc, lsl r0
   1e944:	0000001e 	andeq	r0, r0, lr, lsl r0
   1e948:	0000001f 	andeq	r0, r0, pc, lsl r0
   1e94c:	0000001f 	andeq	r0, r0, pc, lsl r0
   1e950:	0000001e 	andeq	r0, r0, lr, lsl r0
   1e954:	0000001f 	andeq	r0, r0, pc, lsl r0
   1e958:	0000001e 	andeq	r0, r0, lr, lsl r0
   1e95c:	0000001f 	andeq	r0, r0, pc, lsl r0
   1e960:	0000001f 	andeq	r0, r0, pc, lsl r0
   1e964:	0000001d 	andeq	r0, r0, sp, lsl r0
   1e968:	0000001f 	andeq	r0, r0, pc, lsl r0
   1e96c:	0000001e 	andeq	r0, r0, lr, lsl r0
   1e970:	0000001f 	andeq	r0, r0, pc, lsl r0
   1e974:	0000001e 	andeq	r0, r0, lr, lsl r0
   1e978:	0000001f 	andeq	r0, r0, pc, lsl r0
   1e97c:	0000001f 	andeq	r0, r0, pc, lsl r0
   1e980:	0000001e 	andeq	r0, r0, lr, lsl r0
   1e984:	0000001f 	andeq	r0, r0, pc, lsl r0
   1e988:	0000001e 	andeq	r0, r0, lr, lsl r0
   1e98c:	0000001f 	andeq	r0, r0, pc, lsl r0

0001e990 <year_lengths>:
   1e990:	0000016d 	andeq	r0, r0, sp, ror #2
   1e994:	0000016e 	andeq	r0, r0, lr, ror #2
   1e998:	00544d47 	subseq	r4, r4, r7, asr #26

Disassembly of section .ARM.exidx:

0001e99c <.ARM.exidx>:
   1e99c:	7fffe270 	svcvc	0x00ffe270
   1e9a0:	00000001 	andeq	r0, r0, r1

Disassembly of section .data:

0001e9a4 <dmx_output_period>:
   1e9a4:	000061a8 	andeq	r6, r0, r8, lsr #3

0001e9a8 <dmx_output_mab_time>:
   1e9a8:	0000000c 	andeq	r0, r0, ip

0001e9ac <dmx_output_break_time>:
   1e9ac:	0000005c 	andeq	r0, r0, ip, asr r0

0001e9b0 <dmx_send_data_length>:
   1e9b0:	00020201 	andeq	r0, r2, r1, lsl #4

0001e9b2 <dmx_port_direction>:
   1e9b2:	f07f0002 			; <UNDEFINED> instruction: 0xf07f0002

0001e9b4 <uid_device>:
   1e9b4:	0000f07f 	andeq	pc, r0, pc, ror r0	; <UNPREDICTABLE>
   1e9b8:	00000000 	andeq	r0, r0, r0

0001e9bc <slots_in_packet_min>:
   1e9bc:	ffffffff 			; <UNDEFINED> instruction: 0xffffffff

0001e9c0 <slot_to_slot_min>:
   1e9c0:	ffffffff 			; <UNDEFINED> instruction: 0xffffffff

0001e9c4 <break_to_break_min>:
   1e9c4:	ffffffff 			; <UNDEFINED> instruction: 0xffffffff

0001e9c8 <dmx_usb_pro_params>:
   1e9c8:	01090204 	tsteq	r9, r4, lsl #4
   1e9cc:	00000028 	andeq	r0, r0, r8, lsr #32

0001e9d0 <cur_fore>:
   1e9d0:	0001ffff 	strdeq	pc, [r1], -pc	; <UNPREDICTABLE>

0001e9d2 <Stat>:
   1e9d2:	9dd40001 	ldclls	0, cr0, [r4, #4]

0001e9d4 <_hardware_led_f>:
   1e9d4:	00019dd4 	ldrdeq	r9, [r1], -r4
   1e9d8:	00019db8 			; <UNDEFINED> instruction: 0x00019db8

0001e9dc <ticks_per_second>:
   1e9dc:	0007a120 	andeq	sl, r7, r0, lsr #2

0001e9e0 <i2c_mcp7941x_slave_address>:
   1e9e0:	Address 0x000000000001e9e0 is out of bounds.


Disassembly of section .data.impure_data:

0001e9e8 <impure_data>:
   1e9e8:	00000000 	andeq	r0, r0, r0
   1e9ec:	0001ecd4 	ldrdeq	lr, [r1], -r4
   1e9f0:	0001ed3c 	andeq	lr, r1, ip, lsr sp
   1e9f4:	0001eda4 	andeq	lr, r1, r4, lsr #27
	...
   1ea1c:	0001e8c8 	andeq	lr, r1, r8, asr #17
	...
   1ea90:	00000001 	andeq	r0, r0, r1
   1ea94:	00000000 	andeq	r0, r0, r0
   1ea98:	abcd330e 	blge	ff36b6d8 <__ram_end+0xf736b6d8>
   1ea9c:	e66d1234 			; <UNDEFINED> instruction: 0xe66d1234
   1eaa0:	0005deec 	andeq	sp, r5, ip, ror #29
   1eaa4:	0000000b 	andeq	r0, r0, fp
	...

Disassembly of section .data._impure_ptr:

0001ee10 <_impure_ptr>:
   1ee10:	0001e9e8 	andeq	lr, r1, r8, ror #19

Disassembly of section .data.__malloc_av_:

0001ee14 <__malloc_av_>:
	...
   1ee1c:	0001ee14 	andeq	lr, r1, r4, lsl lr
   1ee20:	0001ee14 	andeq	lr, r1, r4, lsl lr
   1ee24:	0001ee1c 	andeq	lr, r1, ip, lsl lr
   1ee28:	0001ee1c 	andeq	lr, r1, ip, lsl lr
   1ee2c:	0001ee24 	andeq	lr, r1, r4, lsr #28
   1ee30:	0001ee24 	andeq	lr, r1, r4, lsr #28
   1ee34:	0001ee2c 	andeq	lr, r1, ip, lsr #28
   1ee38:	0001ee2c 	andeq	lr, r1, ip, lsr #28
   1ee3c:	0001ee34 	andeq	lr, r1, r4, lsr lr
   1ee40:	0001ee34 	andeq	lr, r1, r4, lsr lr
   1ee44:	0001ee3c 	andeq	lr, r1, ip, lsr lr
   1ee48:	0001ee3c 	andeq	lr, r1, ip, lsr lr
   1ee4c:	0001ee44 	andeq	lr, r1, r4, asr #28
   1ee50:	0001ee44 	andeq	lr, r1, r4, asr #28
   1ee54:	0001ee4c 	andeq	lr, r1, ip, asr #28
   1ee58:	0001ee4c 	andeq	lr, r1, ip, asr #28
   1ee5c:	0001ee54 	andeq	lr, r1, r4, asr lr
   1ee60:	0001ee54 	andeq	lr, r1, r4, asr lr
   1ee64:	0001ee5c 	andeq	lr, r1, ip, asr lr
   1ee68:	0001ee5c 	andeq	lr, r1, ip, asr lr
   1ee6c:	0001ee64 	andeq	lr, r1, r4, ror #28
   1ee70:	0001ee64 	andeq	lr, r1, r4, ror #28
   1ee74:	0001ee6c 	andeq	lr, r1, ip, ror #28
   1ee78:	0001ee6c 	andeq	lr, r1, ip, ror #28
   1ee7c:	0001ee74 	andeq	lr, r1, r4, ror lr
   1ee80:	0001ee74 	andeq	lr, r1, r4, ror lr
   1ee84:	0001ee7c 	andeq	lr, r1, ip, ror lr
   1ee88:	0001ee7c 	andeq	lr, r1, ip, ror lr
   1ee8c:	0001ee84 	andeq	lr, r1, r4, lsl #29
   1ee90:	0001ee84 	andeq	lr, r1, r4, lsl #29
   1ee94:	0001ee8c 	andeq	lr, r1, ip, lsl #29
   1ee98:	0001ee8c 	andeq	lr, r1, ip, lsl #29
   1ee9c:	0001ee94 	muleq	r1, r4, lr
   1eea0:	0001ee94 	muleq	r1, r4, lr
   1eea4:	0001ee9c 	muleq	r1, ip, lr
   1eea8:	0001ee9c 	muleq	r1, ip, lr
   1eeac:	0001eea4 	andeq	lr, r1, r4, lsr #29
   1eeb0:	0001eea4 	andeq	lr, r1, r4, lsr #29
   1eeb4:	0001eeac 	andeq	lr, r1, ip, lsr #29
   1eeb8:	0001eeac 	andeq	lr, r1, ip, lsr #29
   1eebc:	0001eeb4 			; <UNDEFINED> instruction: 0x0001eeb4
   1eec0:	0001eeb4 			; <UNDEFINED> instruction: 0x0001eeb4
   1eec4:	0001eebc 			; <UNDEFINED> instruction: 0x0001eebc
   1eec8:	0001eebc 			; <UNDEFINED> instruction: 0x0001eebc
   1eecc:	0001eec4 	andeq	lr, r1, r4, asr #29
   1eed0:	0001eec4 	andeq	lr, r1, r4, asr #29
   1eed4:	0001eecc 	andeq	lr, r1, ip, asr #29
   1eed8:	0001eecc 	andeq	lr, r1, ip, asr #29
   1eedc:	0001eed4 	ldrdeq	lr, [r1], -r4
   1eee0:	0001eed4 	ldrdeq	lr, [r1], -r4
   1eee4:	0001eedc 	ldrdeq	lr, [r1], -ip
   1eee8:	0001eedc 	ldrdeq	lr, [r1], -ip
   1eeec:	0001eee4 	andeq	lr, r1, r4, ror #29
   1eef0:	0001eee4 	andeq	lr, r1, r4, ror #29
   1eef4:	0001eeec 	andeq	lr, r1, ip, ror #29
   1eef8:	0001eeec 	andeq	lr, r1, ip, ror #29
   1eefc:	0001eef4 	strdeq	lr, [r1], -r4
   1ef00:	0001eef4 	strdeq	lr, [r1], -r4
   1ef04:	0001eefc 	strdeq	lr, [r1], -ip
   1ef08:	0001eefc 	strdeq	lr, [r1], -ip
   1ef0c:	0001ef04 	andeq	lr, r1, r4, lsl #30
   1ef10:	0001ef04 	andeq	lr, r1, r4, lsl #30
   1ef14:	0001ef0c 	andeq	lr, r1, ip, lsl #30
   1ef18:	0001ef0c 	andeq	lr, r1, ip, lsl #30
   1ef1c:	0001ef14 	andeq	lr, r1, r4, lsl pc
   1ef20:	0001ef14 	andeq	lr, r1, r4, lsl pc
   1ef24:	0001ef1c 	andeq	lr, r1, ip, lsl pc
   1ef28:	0001ef1c 	andeq	lr, r1, ip, lsl pc
   1ef2c:	0001ef24 	andeq	lr, r1, r4, lsr #30
   1ef30:	0001ef24 	andeq	lr, r1, r4, lsr #30
   1ef34:	0001ef2c 	andeq	lr, r1, ip, lsr #30
   1ef38:	0001ef2c 	andeq	lr, r1, ip, lsr #30
   1ef3c:	0001ef34 	andeq	lr, r1, r4, lsr pc
   1ef40:	0001ef34 	andeq	lr, r1, r4, lsr pc
   1ef44:	0001ef3c 	andeq	lr, r1, ip, lsr pc
   1ef48:	0001ef3c 	andeq	lr, r1, ip, lsr pc
   1ef4c:	0001ef44 	andeq	lr, r1, r4, asr #30
   1ef50:	0001ef44 	andeq	lr, r1, r4, asr #30
   1ef54:	0001ef4c 	andeq	lr, r1, ip, asr #30
   1ef58:	0001ef4c 	andeq	lr, r1, ip, asr #30
   1ef5c:	0001ef54 	andeq	lr, r1, r4, asr pc
   1ef60:	0001ef54 	andeq	lr, r1, r4, asr pc
   1ef64:	0001ef5c 	andeq	lr, r1, ip, asr pc
   1ef68:	0001ef5c 	andeq	lr, r1, ip, asr pc
   1ef6c:	0001ef64 	andeq	lr, r1, r4, ror #30
   1ef70:	0001ef64 	andeq	lr, r1, r4, ror #30
   1ef74:	0001ef6c 	andeq	lr, r1, ip, ror #30
   1ef78:	0001ef6c 	andeq	lr, r1, ip, ror #30
   1ef7c:	0001ef74 	andeq	lr, r1, r4, ror pc
   1ef80:	0001ef74 	andeq	lr, r1, r4, ror pc
   1ef84:	0001ef7c 	andeq	lr, r1, ip, ror pc
   1ef88:	0001ef7c 	andeq	lr, r1, ip, ror pc
   1ef8c:	0001ef84 	andeq	lr, r1, r4, lsl #31
   1ef90:	0001ef84 	andeq	lr, r1, r4, lsl #31
   1ef94:	0001ef8c 	andeq	lr, r1, ip, lsl #31
   1ef98:	0001ef8c 	andeq	lr, r1, ip, lsl #31
   1ef9c:	0001ef94 	muleq	r1, r4, pc	; <UNPREDICTABLE>
   1efa0:	0001ef94 	muleq	r1, r4, pc	; <UNPREDICTABLE>
   1efa4:	0001ef9c 	muleq	r1, ip, pc	; <UNPREDICTABLE>
   1efa8:	0001ef9c 	muleq	r1, ip, pc	; <UNPREDICTABLE>
   1efac:	0001efa4 	andeq	lr, r1, r4, lsr #31
   1efb0:	0001efa4 	andeq	lr, r1, r4, lsr #31
   1efb4:	0001efac 	andeq	lr, r1, ip, lsr #31
   1efb8:	0001efac 	andeq	lr, r1, ip, lsr #31
   1efbc:	0001efb4 			; <UNDEFINED> instruction: 0x0001efb4
   1efc0:	0001efb4 			; <UNDEFINED> instruction: 0x0001efb4
   1efc4:	0001efbc 			; <UNDEFINED> instruction: 0x0001efbc
   1efc8:	0001efbc 			; <UNDEFINED> instruction: 0x0001efbc
   1efcc:	0001efc4 	andeq	lr, r1, r4, asr #31
   1efd0:	0001efc4 	andeq	lr, r1, r4, asr #31
   1efd4:	0001efcc 	andeq	lr, r1, ip, asr #31
   1efd8:	0001efcc 	andeq	lr, r1, ip, asr #31
   1efdc:	0001efd4 	ldrdeq	lr, [r1], -r4
   1efe0:	0001efd4 	ldrdeq	lr, [r1], -r4
   1efe4:	0001efdc 	ldrdeq	lr, [r1], -ip
   1efe8:	0001efdc 	ldrdeq	lr, [r1], -ip
   1efec:	0001efe4 	andeq	lr, r1, r4, ror #31
   1eff0:	0001efe4 	andeq	lr, r1, r4, ror #31
   1eff4:	0001efec 	andeq	lr, r1, ip, ror #31
   1eff8:	0001efec 	andeq	lr, r1, ip, ror #31
   1effc:	0001eff4 	strdeq	lr, [r1], -r4
   1f000:	0001eff4 	strdeq	lr, [r1], -r4
   1f004:	0001effc 	strdeq	lr, [r1], -ip
   1f008:	0001effc 	strdeq	lr, [r1], -ip
   1f00c:	0001f004 	andeq	pc, r1, r4
   1f010:	0001f004 	andeq	pc, r1, r4
   1f014:	0001f00c 	andeq	pc, r1, ip
   1f018:	0001f00c 	andeq	pc, r1, ip
   1f01c:	0001f014 	andeq	pc, r1, r4, lsl r0	; <UNPREDICTABLE>
   1f020:	0001f014 	andeq	pc, r1, r4, lsl r0	; <UNPREDICTABLE>
   1f024:	0001f01c 	andeq	pc, r1, ip, lsl r0	; <UNPREDICTABLE>
   1f028:	0001f01c 	andeq	pc, r1, ip, lsl r0	; <UNPREDICTABLE>
   1f02c:	0001f024 	andeq	pc, r1, r4, lsr #32
   1f030:	0001f024 	andeq	pc, r1, r4, lsr #32
   1f034:	0001f02c 	andeq	pc, r1, ip, lsr #32
   1f038:	0001f02c 	andeq	pc, r1, ip, lsr #32
   1f03c:	0001f034 	andeq	pc, r1, r4, lsr r0	; <UNPREDICTABLE>
   1f040:	0001f034 	andeq	pc, r1, r4, lsr r0	; <UNPREDICTABLE>
   1f044:	0001f03c 	andeq	pc, r1, ip, lsr r0	; <UNPREDICTABLE>
   1f048:	0001f03c 	andeq	pc, r1, ip, lsr r0	; <UNPREDICTABLE>
   1f04c:	0001f044 	andeq	pc, r1, r4, asr #32
   1f050:	0001f044 	andeq	pc, r1, r4, asr #32
   1f054:	0001f04c 	andeq	pc, r1, ip, asr #32
   1f058:	0001f04c 	andeq	pc, r1, ip, asr #32
   1f05c:	0001f054 	andeq	pc, r1, r4, asr r0	; <UNPREDICTABLE>
   1f060:	0001f054 	andeq	pc, r1, r4, asr r0	; <UNPREDICTABLE>
   1f064:	0001f05c 	andeq	pc, r1, ip, asr r0	; <UNPREDICTABLE>
   1f068:	0001f05c 	andeq	pc, r1, ip, asr r0	; <UNPREDICTABLE>
   1f06c:	0001f064 	andeq	pc, r1, r4, rrx
   1f070:	0001f064 	andeq	pc, r1, r4, rrx
   1f074:	0001f06c 	andeq	pc, r1, ip, rrx
   1f078:	0001f06c 	andeq	pc, r1, ip, rrx
   1f07c:	0001f074 	andeq	pc, r1, r4, ror r0	; <UNPREDICTABLE>
   1f080:	0001f074 	andeq	pc, r1, r4, ror r0	; <UNPREDICTABLE>
   1f084:	0001f07c 	andeq	pc, r1, ip, ror r0	; <UNPREDICTABLE>
   1f088:	0001f07c 	andeq	pc, r1, ip, ror r0	; <UNPREDICTABLE>
   1f08c:	0001f084 	andeq	pc, r1, r4, lsl #1
   1f090:	0001f084 	andeq	pc, r1, r4, lsl #1
   1f094:	0001f08c 	andeq	pc, r1, ip, lsl #1
   1f098:	0001f08c 	andeq	pc, r1, ip, lsl #1
   1f09c:	0001f094 	muleq	r1, r4, r0
   1f0a0:	0001f094 	muleq	r1, r4, r0
   1f0a4:	0001f09c 	muleq	r1, ip, r0
   1f0a8:	0001f09c 	muleq	r1, ip, r0
   1f0ac:	0001f0a4 	andeq	pc, r1, r4, lsr #1
   1f0b0:	0001f0a4 	andeq	pc, r1, r4, lsr #1
   1f0b4:	0001f0ac 	andeq	pc, r1, ip, lsr #1
   1f0b8:	0001f0ac 	andeq	pc, r1, ip, lsr #1
   1f0bc:	0001f0b4 	strheq	pc, [r1], -r4	; <UNPREDICTABLE>
   1f0c0:	0001f0b4 	strheq	pc, [r1], -r4	; <UNPREDICTABLE>
   1f0c4:	0001f0bc 	strheq	pc, [r1], -ip	; <UNPREDICTABLE>
   1f0c8:	0001f0bc 	strheq	pc, [r1], -ip	; <UNPREDICTABLE>
   1f0cc:	0001f0c4 	andeq	pc, r1, r4, asr #1
   1f0d0:	0001f0c4 	andeq	pc, r1, r4, asr #1
   1f0d4:	0001f0cc 	andeq	pc, r1, ip, asr #1
   1f0d8:	0001f0cc 	andeq	pc, r1, ip, asr #1
   1f0dc:	0001f0d4 	ldrdeq	pc, [r1], -r4
   1f0e0:	0001f0d4 	ldrdeq	pc, [r1], -r4
   1f0e4:	0001f0dc 	ldrdeq	pc, [r1], -ip
   1f0e8:	0001f0dc 	ldrdeq	pc, [r1], -ip
   1f0ec:	0001f0e4 	andeq	pc, r1, r4, ror #1
   1f0f0:	0001f0e4 	andeq	pc, r1, r4, ror #1
   1f0f4:	0001f0ec 	andeq	pc, r1, ip, ror #1
   1f0f8:	0001f0ec 	andeq	pc, r1, ip, ror #1
   1f0fc:	0001f0f4 	strdeq	pc, [r1], -r4
   1f100:	0001f0f4 	strdeq	pc, [r1], -r4
   1f104:	0001f0fc 	strdeq	pc, [r1], -ip
   1f108:	0001f0fc 	strdeq	pc, [r1], -ip
   1f10c:	0001f104 	andeq	pc, r1, r4, lsl #2
   1f110:	0001f104 	andeq	pc, r1, r4, lsl #2
   1f114:	0001f10c 	andeq	pc, r1, ip, lsl #2
   1f118:	0001f10c 	andeq	pc, r1, ip, lsl #2
   1f11c:	0001f114 	andeq	pc, r1, r4, lsl r1	; <UNPREDICTABLE>
   1f120:	0001f114 	andeq	pc, r1, r4, lsl r1	; <UNPREDICTABLE>
   1f124:	0001f11c 	andeq	pc, r1, ip, lsl r1	; <UNPREDICTABLE>
   1f128:	0001f11c 	andeq	pc, r1, ip, lsl r1	; <UNPREDICTABLE>
   1f12c:	0001f124 	andeq	pc, r1, r4, lsr #2
   1f130:	0001f124 	andeq	pc, r1, r4, lsr #2
   1f134:	0001f12c 	andeq	pc, r1, ip, lsr #2
   1f138:	0001f12c 	andeq	pc, r1, ip, lsr #2
   1f13c:	0001f134 	andeq	pc, r1, r4, lsr r1	; <UNPREDICTABLE>
   1f140:	0001f134 	andeq	pc, r1, r4, lsr r1	; <UNPREDICTABLE>
   1f144:	0001f13c 	andeq	pc, r1, ip, lsr r1	; <UNPREDICTABLE>
   1f148:	0001f13c 	andeq	pc, r1, ip, lsr r1	; <UNPREDICTABLE>
   1f14c:	0001f144 	andeq	pc, r1, r4, asr #2
   1f150:	0001f144 	andeq	pc, r1, r4, asr #2
   1f154:	0001f14c 	andeq	pc, r1, ip, asr #2
   1f158:	0001f14c 	andeq	pc, r1, ip, asr #2
   1f15c:	0001f154 	andeq	pc, r1, r4, asr r1	; <UNPREDICTABLE>
   1f160:	0001f154 	andeq	pc, r1, r4, asr r1	; <UNPREDICTABLE>
   1f164:	0001f15c 	andeq	pc, r1, ip, asr r1	; <UNPREDICTABLE>
   1f168:	0001f15c 	andeq	pc, r1, ip, asr r1	; <UNPREDICTABLE>
   1f16c:	0001f164 	andeq	pc, r1, r4, ror #2
   1f170:	0001f164 	andeq	pc, r1, r4, ror #2
   1f174:	0001f16c 	andeq	pc, r1, ip, ror #2
   1f178:	0001f16c 	andeq	pc, r1, ip, ror #2
   1f17c:	0001f174 	andeq	pc, r1, r4, ror r1	; <UNPREDICTABLE>
   1f180:	0001f174 	andeq	pc, r1, r4, ror r1	; <UNPREDICTABLE>
   1f184:	0001f17c 	andeq	pc, r1, ip, ror r1	; <UNPREDICTABLE>
   1f188:	0001f17c 	andeq	pc, r1, ip, ror r1	; <UNPREDICTABLE>
   1f18c:	0001f184 	andeq	pc, r1, r4, lsl #3
   1f190:	0001f184 	andeq	pc, r1, r4, lsl #3
   1f194:	0001f18c 	andeq	pc, r1, ip, lsl #3
   1f198:	0001f18c 	andeq	pc, r1, ip, lsl #3
   1f19c:	0001f194 	muleq	r1, r4, r1
   1f1a0:	0001f194 	muleq	r1, r4, r1
   1f1a4:	0001f19c 	muleq	r1, ip, r1
   1f1a8:	0001f19c 	muleq	r1, ip, r1
   1f1ac:	0001f1a4 	andeq	pc, r1, r4, lsr #3
   1f1b0:	0001f1a4 	andeq	pc, r1, r4, lsr #3
   1f1b4:	0001f1ac 	andeq	pc, r1, ip, lsr #3
   1f1b8:	0001f1ac 	andeq	pc, r1, ip, lsr #3
   1f1bc:	0001f1b4 			; <UNDEFINED> instruction: 0x0001f1b4
   1f1c0:	0001f1b4 			; <UNDEFINED> instruction: 0x0001f1b4
   1f1c4:	0001f1bc 			; <UNDEFINED> instruction: 0x0001f1bc
   1f1c8:	0001f1bc 			; <UNDEFINED> instruction: 0x0001f1bc
   1f1cc:	0001f1c4 	andeq	pc, r1, r4, asr #3
   1f1d0:	0001f1c4 	andeq	pc, r1, r4, asr #3
   1f1d4:	0001f1cc 	andeq	pc, r1, ip, asr #3
   1f1d8:	0001f1cc 	andeq	pc, r1, ip, asr #3
   1f1dc:	0001f1d4 	ldrdeq	pc, [r1], -r4
   1f1e0:	0001f1d4 	ldrdeq	pc, [r1], -r4
   1f1e4:	0001f1dc 	ldrdeq	pc, [r1], -ip
   1f1e8:	0001f1dc 	ldrdeq	pc, [r1], -ip
   1f1ec:	0001f1e4 	andeq	pc, r1, r4, ror #3
   1f1f0:	0001f1e4 	andeq	pc, r1, r4, ror #3
   1f1f4:	0001f1ec 	andeq	pc, r1, ip, ror #3
   1f1f8:	0001f1ec 	andeq	pc, r1, ip, ror #3
   1f1fc:	0001f1f4 	strdeq	pc, [r1], -r4
   1f200:	0001f1f4 	strdeq	pc, [r1], -r4
   1f204:	0001f1fc 	strdeq	pc, [r1], -ip
   1f208:	0001f1fc 	strdeq	pc, [r1], -ip
   1f20c:	0001f204 	andeq	pc, r1, r4, lsl #4
   1f210:	0001f204 	andeq	pc, r1, r4, lsl #4
   1f214:	0001f20c 	andeq	pc, r1, ip, lsl #4
   1f218:	0001f20c 	andeq	pc, r1, ip, lsl #4

Disassembly of section .data.__malloc_trim_threshold:

0001f21c <__malloc_trim_threshold>:
   1f21c:	00020000 	andeq	r0, r2, r0

Disassembly of section .data.__malloc_sbrk_base:

0001f220 <__malloc_sbrk_base>:
   1f220:	ffffffff 			; <UNDEFINED> instruction: 0xffffffff

Disassembly of section .data._tzname:

0001f224 <_tzname>:
   1f224:	0001e998 	muleq	r1, r8, r9
   1f228:	0001e998 	muleq	r1, r8, r9

Disassembly of section .data.tzinfo:

0001f22c <tzinfo>:
   1f22c:	00000001 	andeq	r0, r0, r1
   1f230:	00000000 	andeq	r0, r0, r0
   1f234:	0000004a 	andeq	r0, r0, sl, asr #32
	...
   1f250:	0000004a 	andeq	r0, r0, sl, asr #32
	...

Disassembly of section .bss:

0001f270 <dmx_output_fast_as_possible>:
   1f270:	00000000 	andeq	r0, r0, r0

0001f274 <dmx_statistics>:
	...

0001f288 <rdm_data_buffer_index_tail>:
	...

0001f28a <rdm_data_buffer_index_head>:
	...

0001f28c <rdm_data_buffer>:
	...

0002128c <dmx_available>:
   2128c:	00000000 	andeq	r0, r0, r0

00021290 <dmx_data_previous>:
	...

00021494 <dmx_slots_in_packet_previous>:
   21494:	00000000 	andeq	r0, r0, r0

00021498 <rdm_data_receive_end>:
   21498:	00000000 	andeq	r0, r0, r0

0002149c <total_statistics>:
	...

000214a4 <dmx_fiq_micros_current>:
   214a4:	00000000 	andeq	r0, r0, r0

000214a8 <dmx_receive_state>:
   214a8:	00000000 	andeq	r0, r0, r0

000214ac <dmx_break_to_break_previous>:
   214ac:	00000000 	andeq	r0, r0, r0

000214b0 <dmx_break_to_break_current>:
   214b0:	00000000 	andeq	r0, r0, r0

000214b4 <dmx_data_index>:
	...

000214b6 <rdm_checksum>:
	...

000214b8 <dmx_fiq_micros_previous>:
   214b8:	00000000 	andeq	r0, r0, r0

000214bc <rdm_disc_index>:
	...

000214bd <dmx_send_always>:
	...

000214be <dmx_send_state>:
	...

000214c0 <dmx_send_break_micros>:
   214c0:	00000000 	andeq	r0, r0, r0

000214c4 <dmx_packets_previous>:
   214c4:	00000000 	andeq	r0, r0, r0

000214c8 <device_manufacturer_name_length>:
   214c8:	00000000 	andeq	r0, r0, r0

000214cc <device_manufacturer_name>:
	...

000214ec <root_device_label>:
	...

0002150c <root_device_label_length>:
   2150c:	00000000 	andeq	r0, r0, r0

00021510 <manufacturer_id>:
   21510:	00000000 	andeq	r0, r0, r0

00021514 <device_sn>:
   21514:	00000000 	andeq	r0, r0, r0

00021518 <rdm_message_count>:
   21518:	00000000 	andeq	r0, r0, r0

0002151c <slots_in_packet_max>:
   2151c:	00000000 	andeq	r0, r0, r0

00021520 <slot_to_slot_max>:
   21520:	00000000 	andeq	r0, r0, r0

00021524 <break_to_break_max>:
   21524:	00000000 	andeq	r0, r0, r0

00021528 <widget_received_dmx_packet_count_previous>:
   21528:	00000000 	andeq	r0, r0, r0

0002152c <dmx_send_to_host_throttle>:
   2152c:	00000000 	andeq	r0, r0, r0

00021530 <rdm_statistics>:
	...

00021540 <receive_dmx_on_change>:
	...

00021541 <widget_mode>:
   21541:	00000000 	andeq	r0, r0, r0

00021544 <received_dmx_packet_period>:
   21544:	00000000 	andeq	r0, r0, r0

00021548 <widget_received_dmx_packet_count>:
   21548:	00000000 	andeq	r0, r0, r0

0002154c <widget_rdm_discovery_running>:
   2154c:	00000000 	andeq	r0, r0, r0

00021550 <widget_received_dmx_packet_start>:
   21550:	00000000 	andeq	r0, r0, r0

00021554 <widget_send_rdm_packet_start>:
   21554:	00000000 	andeq	r0, r0, r0

00021558 <widget_data>:
	...

000217b0 <heap_end>:
   217b0:	00000000 	andeq	r0, r0, r0

000217b4 <fb_addr>:
   217b4:	00000000 	andeq	r0, r0, r0

000217b8 <fb_pitch>:
   217b8:	00000000 	andeq	r0, r0, r0

000217bc <fb_width>:
   217bc:	00000000 	andeq	r0, r0, r0

000217c0 <fb_height>:
   217c0:	00000000 	andeq	r0, r0, r0

000217c4 <fb_size>:
   217c4:	00000000 	andeq	r0, r0, r0

000217c8 <fb_depth>:
   217c8:	00000000 	andeq	r0, r0, r0

000217cc <cur_y>:
   217cc:	00000000 	andeq	r0, r0, r0

000217d0 <cur_x>:
   217d0:	00000000 	andeq	r0, r0, r0

000217d4 <cur_back>:
   217d4:	00000000 	andeq	r0, r0, r0

000217d8 <outptr>:
   217d8:	00000000 	andeq	r0, r0, r0

000217dc <FatFs>:
   217dc:	00000000 	andeq	r0, r0, r0

000217e0 <Fsid>:
   217e0:	00000000 	andeq	r0, r0, r0

000217e4 <LfnBuf>:
	...

00021868 <emmc_dev>:
	...

00021870 <hardware_init_startup_micros>:
	...

00021878 <micros_previous>:
   21878:	00000000 	andeq	r0, r0, r0

0002187c <led_counter>:
   2187c:	00000000 	andeq	r0, r0, r0

00021880 <sys_time_init_startup_micros>:
	...

00021888 <rtc_startup_seconds>:
	...

00021890 <__malloc_max_total_mem>:
   21890:	00000000 	andeq	r0, r0, r0

00021894 <__malloc_max_sbrked_mem>:
   21894:	00000000 	andeq	r0, r0, r0

00021898 <__malloc_top_pad>:
   21898:	00000000 	andeq	r0, r0, r0

0002189c <__malloc_current_mallinfo>:
	...

000218c4 <_daylight>:
   218c4:	00000000 	andeq	r0, r0, r0

000218c8 <_timezone>:
   218c8:	00000000 	andeq	r0, r0, r0

000218cc <dmx_data>:
	...

00021ad0 <events_elapsed_time>:
   21ad0:	00000000 	andeq	r0, r0, r0

00021ad4 <errno>:
   21ad4:	00000000 	andeq	r0, r0, r0
