
build/main.elf:     file format elf32-littlearm


Disassembly of section .init:

00008000 <__ram_start>:
    8000:	e59ff018 	ldr	pc, [pc, #24]	; 8020 <reset_handler>
    8004:	e59ff018 	ldr	pc, [pc, #24]	; 8024 <undefined_handler>
    8008:	e59ff018 	ldr	pc, [pc, #24]	; 8028 <swi_handler>
    800c:	e59ff018 	ldr	pc, [pc, #24]	; 802c <prefetch_handler>
    8010:	e59ff018 	ldr	pc, [pc, #24]	; 8030 <data_handler>
    8014:	e59ff018 	ldr	pc, [pc, #24]	; 8034 <unused_handler>
    8018:	e59ff018 	ldr	pc, [pc, #24]	; 8038 <irq_handler>
    801c:	e59ff018 	ldr	pc, [pc, #24]	; 803c <fiq_handler>

00008020 <reset_handler>:
    8020:	00008040 	andeq	r8, r0, r0, asr #32

00008024 <undefined_handler>:
    8024:	00008100 	andeq	r8, r0, r0, lsl #2

00008028 <swi_handler>:
    8028:	00008100 	andeq	r8, r0, r0, lsl #2

0000802c <prefetch_handler>:
    802c:	00008100 	andeq	r8, r0, r0, lsl #2

00008030 <data_handler>:
    8030:	00008100 	andeq	r8, r0, r0, lsl #2

00008034 <unused_handler>:
    8034:	00008100 	andeq	r8, r0, r0, lsl #2

00008038 <irq_handler>:
    8038:	000080d0 	ldrdeq	r8, [r0], -r0

0000803c <fiq_handler>:
    803c:	000080d4 	ldrdeq	r8, [r0], -r4

00008040 <reset>:
    8040:	e59f1090 	ldr	r1, [pc, #144]	; 80d8 <fiq+0x4>
    8044:	e3a02000 	mov	r2, #0
    8048:	e59f308c 	ldr	r3, [pc, #140]	; 80dc <fiq+0x8>
    804c:	e1520003 	cmp	r2, r3
    8050:	34910004 	ldrcc	r0, [r1], #4
    8054:	34820004 	strcc	r0, [r2], #4
    8058:	3afffffb 	bcc	804c <reset+0xc>
    805c:	e321f0d2 	msr	CPSR_c, #210	; 0xd2
    8060:	e59f0078 	ldr	r0, [pc, #120]	; 80e0 <fiq+0xc>
    8064:	e1a0d000 	mov	sp, r0
    8068:	e321f0d1 	msr	CPSR_c, #209	; 0xd1
    806c:	e59f0070 	ldr	r0, [pc, #112]	; 80e4 <fiq+0x10>
    8070:	e1a0d000 	mov	sp, r0
    8074:	e321f0d3 	msr	CPSR_c, #211	; 0xd3
    8078:	e59f0068 	ldr	r0, [pc, #104]	; 80e8 <fiq+0x14>
    807c:	e1a0d000 	mov	sp, r0
    8080:	ee110f10 	mrc	15, 0, r0, cr1, cr0, {0}
    8084:	e3800004 	orr	r0, r0, #4
    8088:	e3800b02 	orr	r0, r0, #2048	; 0x800
    808c:	e3800a01 	orr	r0, r0, #4096	; 0x1000
    8090:	ee010f10 	mcr	15, 0, r0, cr1, cr0, {0}
    8094:	ee110f50 	mrc	15, 0, r0, cr1, cr0, {2}
    8098:	e3800603 	orr	r0, r0, #3145728	; 0x300000
    809c:	e3800503 	orr	r0, r0, #12582912	; 0xc00000
    80a0:	ee010f50 	mcr	15, 0, r0, cr1, cr0, {2}
    80a4:	e3a00101 	mov	r0, #1073741824	; 0x40000000
    80a8:	eee80a10 	vmsr	fpexc, r0
    80ac:	e3a00000 	mov	r0, #0
    80b0:	e59f1034 	ldr	r1, [pc, #52]	; 80ec <fiq+0x18>
    80b4:	e59f2034 	ldr	r2, [pc, #52]	; 80f0 <fiq+0x1c>
    80b8:	e1510002 	cmp	r1, r2
    80bc:	34810004 	strcc	r0, [r1], #4
    80c0:	3afffffc 	bcc	80b8 <reset+0x78>
    80c4:	eb000eed 	bl	bc80 <notmain>

000080c8 <halt>:
    80c8:	e320f002 	wfe
    80cc:	eafffffd 	b	80c8 <halt>

000080d0 <irq>:
    80d0:	ea0001f8 	b	88b8 <c_irq_handler>

000080d4 <fiq>:
    80d4:	ea0000f1 	b	84a0 <c_fiq_handler>
    80d8:	00008000 	andeq	r8, r0, r0
    80dc:	00008020 	andeq	r8, r0, r0, lsr #32
    80e0:	00022eb0 			; <UNDEFINED> instruction: 0x00022eb0
    80e4:	00022ab0 			; <UNDEFINED> instruction: 0x00022ab0
    80e8:	000232b0 			; <UNDEFINED> instruction: 0x000232b0
    80ec:	0001f658 	andeq	pc, r1, r8, asr r6	; <UNPREDICTABLE>
    80f0:	00021eb0 			; <UNDEFINED> instruction: 0x00021eb0

Disassembly of section .text:

00008100 <hang>:
    8100:	eafffffe 	b	8100 <hang>

00008104 <__enable_irq>:
    8104:	e10f0000 	mrs	r0, CPSR
    8108:	e3c00080 	bic	r0, r0, #128	; 0x80
    810c:	e121f000 	msr	CPSR_c, r0
    8110:	e12fff1e 	bx	lr

00008114 <__disable_irq>:
    8114:	e10f1000 	mrs	r1, CPSR
    8118:	e3811080 	orr	r1, r1, #128	; 0x80
    811c:	e121f001 	msr	CPSR_c, r1
    8120:	e12fff1e 	bx	lr

00008124 <__enable_fiq>:
    8124:	e10f0000 	mrs	r0, CPSR
    8128:	e3c00040 	bic	r0, r0, #64	; 0x40
    812c:	e121f000 	msr	CPSR_c, r0
    8130:	e12fff1e 	bx	lr

00008134 <__disable_fiq>:
    8134:	e10f1000 	mrs	r1, CPSR
    8138:	e3811040 	orr	r1, r1, #64	; 0x40
    813c:	e121f001 	msr	CPSR_c, r1
    8140:	e12fff1e 	bx	lr

00008144 <memory_barrier>:
    8144:	e3a00000 	mov	r0, #0
    8148:	ee070fba 	mcr	15, 0, r0, cr7, cr10, {5}
    814c:	e12fff1e 	bx	lr

00008150 <dmx_get_output_period>:
    8150:	e59f3004 	ldr	r3, [pc, #4]	; 815c <dmx_get_output_period+0xc>
    8154:	e5930000 	ldr	r0, [r3]
    8158:	e12fff1e 	bx	lr
    815c:	0001ed98 	muleq	r1, r8, sp

00008160 <dmx_set_output_period>:
    8160:	e52de004 	push	{lr}		; (str lr, [sp, #-4]!)
    8164:	e3a0e02c 	mov	lr, #44	; 0x2c
    8168:	e59f1068 	ldr	r1, [pc, #104]	; 81d8 <dmx_set_output_period+0x78>
    816c:	e3500000 	cmp	r0, #0
    8170:	e5913008 	ldr	r3, [r1, #8]
    8174:	e591c004 	ldr	ip, [r1, #4]
    8178:	e1d120bc 	ldrh	r2, [r1, #12]
    817c:	e08cc003 	add	ip, ip, r3
    8180:	e023c29e 	mla	r3, lr, r2, ip
    8184:	0a00000a 	beq	81b4 <dmx_set_output_period+0x54>
    8188:	e1530000 	cmp	r3, r0
    818c:	9a000003 	bls	81a0 <dmx_set_output_period+0x40>
    8190:	e59f2044 	ldr	r2, [pc, #68]	; 81dc <dmx_set_output_period+0x7c>
    8194:	e2830004 	add	r0, r3, #4
    8198:	e1500002 	cmp	r0, r2
    819c:	31a00002 	movcc	r0, r2
    81a0:	e3a02000 	mov	r2, #0
    81a4:	e59f3034 	ldr	r3, [pc, #52]	; 81e0 <dmx_set_output_period+0x80>
    81a8:	e5810000 	str	r0, [r1]
    81ac:	e5c32000 	strb	r2, [r3]
    81b0:	e49df004 	pop	{pc}		; (ldr pc, [sp], #4)
    81b4:	e59f2020 	ldr	r2, [pc, #32]	; 81dc <dmx_set_output_period+0x7c>
    81b8:	e2833004 	add	r3, r3, #4
    81bc:	e1530002 	cmp	r3, r2
    81c0:	31a03002 	movcc	r3, r2
    81c4:	e3a00001 	mov	r0, #1
    81c8:	e59f2010 	ldr	r2, [pc, #16]	; 81e0 <dmx_set_output_period+0x80>
    81cc:	e5813000 	str	r3, [r1]
    81d0:	e5c20000 	strb	r0, [r2]
    81d4:	e49df004 	pop	{pc}		; (ldr pc, [sp], #4)
    81d8:	0001ed98 	muleq	r1, r8, sp
    81dc:	000004b4 			; <UNDEFINED> instruction: 0x000004b4
    81e0:	0001f658 	andeq	pc, r1, r8, asr r6	; <UNPREDICTABLE>

000081e4 <dmx_get_send_data_length>:
    81e4:	e59f3004 	ldr	r3, [pc, #4]	; 81f0 <dmx_get_send_data_length+0xc>
    81e8:	e1d300bc 	ldrh	r0, [r3, #12]
    81ec:	e12fff1e 	bx	lr
    81f0:	0001ed98 	muleq	r1, r8, sp

000081f4 <dmx_set_send_data_length>:
    81f4:	e59f2048 	ldr	r2, [pc, #72]	; 8244 <dmx_set_send_data_length+0x50>
    81f8:	e59f3048 	ldr	r3, [pc, #72]	; 8248 <dmx_set_send_data_length+0x54>
    81fc:	e5d21000 	ldrb	r1, [r2]
    8200:	e1c300bc 	strh	r0, [r3, #12]
    8204:	e3510000 	cmp	r1, #0
    8208:	012fff1e 	bxeq	lr
    820c:	e92d4010 	push	{r4, lr}
    8210:	e3a0e02c 	mov	lr, #44	; 0x2c
    8214:	e5931008 	ldr	r1, [r3, #8]
    8218:	e5934004 	ldr	r4, [r3, #4]
    821c:	e59fc028 	ldr	ip, [pc, #40]	; 824c <dmx_set_send_data_length+0x58>
    8220:	e0811004 	add	r1, r1, r4
    8224:	e2811004 	add	r1, r1, #4
    8228:	e020109e 	mla	r0, lr, r0, r1
    822c:	e150000c 	cmp	r0, ip
    8230:	31a0000c 	movcc	r0, ip
    8234:	e3a01001 	mov	r1, #1
    8238:	e5830000 	str	r0, [r3]
    823c:	e5c21000 	strb	r1, [r2]
    8240:	e8bd8010 	pop	{r4, pc}
    8244:	0001f658 	andeq	pc, r1, r8, asr r6	; <UNPREDICTABLE>
    8248:	0001ed98 	muleq	r1, r8, sp
    824c:	000004b4 			; <UNDEFINED> instruction: 0x000004b4

00008250 <dmx_get_statistics>:
    8250:	e59f0000 	ldr	r0, [pc]	; 8258 <dmx_get_statistics+0x8>
    8254:	e12fff1e 	bx	lr
    8258:	0001f65c 	andeq	pc, r1, ip, asr r6	; <UNPREDICTABLE>

0000825c <rdm_get_available>:
    825c:	e59f3024 	ldr	r3, [pc, #36]	; 8288 <rdm_get_available+0x2c>
    8260:	e1d321b8 	ldrh	r2, [r3, #24]
    8264:	e1d311ba 	ldrh	r1, [r3, #26]
    8268:	e1510002 	cmp	r1, r2
    826c:	12821001 	addne	r1, r2, #1
    8270:	1283001c 	addne	r0, r3, #28
    8274:	1201100f 	andne	r1, r1, #15
    8278:	10800482 	addne	r0, r0, r2, lsl #9
    827c:	11c311b8 	strhne	r1, [r3, #24]
    8280:	03a00000 	moveq	r0, #0
    8284:	e12fff1e 	bx	lr
    8288:	0001f658 	andeq	pc, r1, r8, asr r6	; <UNPREDICTABLE>

0000828c <rdm_get_current_data>:
    828c:	e59f300c 	ldr	r3, [pc, #12]	; 82a0 <rdm_get_current_data+0x14>
    8290:	e1d301b8 	ldrh	r0, [r3, #24]
    8294:	e283301c 	add	r3, r3, #28
    8298:	e0830480 	add	r0, r3, r0, lsl #9
    829c:	e12fff1e 	bx	lr
    82a0:	0001f658 	andeq	pc, r1, r8, asr r6	; <UNPREDICTABLE>

000082a4 <dmx_get_available>:
    82a4:	e59f3004 	ldr	r3, [pc, #4]	; 82b0 <dmx_get_available+0xc>
    82a8:	e5d30024 	ldrb	r0, [r3, #36]	; 0x24
    82ac:	e12fff1e 	bx	lr
    82b0:	00021650 	andeq	r1, r2, r0, asr r6

000082b4 <dmx_set_available_false>:
    82b4:	e3a02000 	mov	r2, #0
    82b8:	e59f3004 	ldr	r3, [pc, #4]	; 82c4 <dmx_set_available_false+0x10>
    82bc:	e5c32024 	strb	r2, [r3, #36]	; 0x24
    82c0:	e12fff1e 	bx	lr
    82c4:	00021650 	andeq	r1, r2, r0, asr r6

000082c8 <dmx_is_data_changed>:
    82c8:	e59f3098 	ldr	r3, [pc, #152]	; 8368 <dmx_is_data_changed+0xa0>
    82cc:	e92d4010 	push	{r4, lr}
    82d0:	e59fe094 	ldr	lr, [pc, #148]	; 836c <dmx_is_data_changed+0xa4>
    82d4:	e5932008 	ldr	r2, [r3, #8]
    82d8:	e59e322c 	ldr	r3, [lr, #556]	; 0x22c
    82dc:	e1520003 	cmp	r2, r3
    82e0:	0a000014 	beq	8338 <dmx_is_data_changed+0x70>
    82e4:	e59f3084 	ldr	r3, [pc, #132]	; 8370 <dmx_is_data_changed+0xa8>
    82e8:	e58e222c 	str	r2, [lr, #556]	; 0x22c
    82ec:	e5d30001 	ldrb	r0, [r3, #1]
    82f0:	e5d32002 	ldrb	r2, [r3, #2]
    82f4:	e1a04003 	mov	r4, r3
    82f8:	e1a01003 	mov	r1, r3
    82fc:	e5d33003 	ldrb	r3, [r3, #3]
    8300:	e5ce202a 	strb	r2, [lr, #42]	; 0x2a
    8304:	e5ce302b 	strb	r3, [lr, #43]	; 0x2b
    8308:	e5ce0029 	strb	r0, [lr, #41]	; 0x29
    830c:	e28e202c 	add	r2, lr, #44	; 0x2c
    8310:	e28e3f8a 	add	r3, lr, #552	; 0x228
    8314:	e5b10004 	ldr	r0, [r1, #4]!
    8318:	e59fc04c 	ldr	ip, [pc, #76]	; 836c <dmx_is_data_changed+0xa4>
    831c:	e4820004 	str	r0, [r2], #4
    8320:	e1520003 	cmp	r2, r3
    8324:	1afffffa 	bne	8314 <dmx_is_data_changed+0x4c>
    8328:	e5d43200 	ldrb	r3, [r4, #512]	; 0x200
    832c:	e3a00001 	mov	r0, #1
    8330:	e5cc3228 	strb	r3, [ip, #552]	; 0x228
    8334:	e8bd8010 	pop	{r4, pc}
    8338:	e3a00000 	mov	r0, #0
    833c:	e59f102c 	ldr	r1, [pc, #44]	; 8370 <dmx_is_data_changed+0xa8>
    8340:	e28e3028 	add	r3, lr, #40	; 0x28
    8344:	e28eef8a 	add	lr, lr, #552	; 0x228
    8348:	e5f3c001 	ldrb	ip, [r3, #1]!
    834c:	e5f12001 	ldrb	r2, [r1, #1]!
    8350:	e15c0002 	cmp	ip, r2
    8354:	13a00001 	movne	r0, #1
    8358:	15c32000 	strbne	r2, [r3]
    835c:	e153000e 	cmp	r3, lr
    8360:	1afffff8 	bne	8348 <dmx_is_data_changed+0x80>
    8364:	e8bd8010 	pop	{r4, pc}
    8368:	0001f658 	andeq	pc, r1, r8, asr r6	; <UNPREDICTABLE>
    836c:	00021650 	andeq	r1, r2, r0, asr r6
    8370:	00021ca4 	andeq	r1, r2, r4, lsr #25

00008374 <dmx_get_port_direction>:
    8374:	e59f3004 	ldr	r3, [pc, #4]	; 8380 <dmx_get_port_direction+0xc>
    8378:	e5d3000e 	ldrb	r0, [r3, #14]
    837c:	e12fff1e 	bx	lr
    8380:	0001ed98 	muleq	r1, r8, sp

00008384 <rdm_get_data_receive_end>:
    8384:	e59f3004 	ldr	r3, [pc, #4]	; 8390 <rdm_get_data_receive_end+0xc>
    8388:	e5930230 	ldr	r0, [r3, #560]	; 0x230
    838c:	e12fff1e 	bx	lr
    8390:	00021650 	andeq	r1, r2, r0, asr r6

00008394 <dmx_get_output_break_time>:
    8394:	e59f3004 	ldr	r3, [pc, #4]	; 83a0 <dmx_get_output_break_time+0xc>
    8398:	e5930008 	ldr	r0, [r3, #8]
    839c:	e12fff1e 	bx	lr
    83a0:	0001ed98 	muleq	r1, r8, sp

000083a4 <dmx_set_output_break_time>:
    83a4:	e350005c 	cmp	r0, #92	; 0x5c
    83a8:	33a0005c 	movcc	r0, #92	; 0x5c
    83ac:	e59fc048 	ldr	ip, [pc, #72]	; 83fc <dmx_set_output_break_time+0x58>
    83b0:	e59f1048 	ldr	r1, [pc, #72]	; 8400 <dmx_set_output_break_time+0x5c>
    83b4:	e5dc3000 	ldrb	r3, [ip]
    83b8:	e5810008 	str	r0, [r1, #8]
    83bc:	e3530000 	cmp	r3, #0
    83c0:	012fff1e 	bxeq	lr
    83c4:	e52de004 	push	{lr}		; (str lr, [sp, #-4]!)
    83c8:	e3a0e02c 	mov	lr, #44	; 0x2c
    83cc:	e5913004 	ldr	r3, [r1, #4]
    83d0:	e1d120bc 	ldrh	r2, [r1, #12]
    83d4:	e2833004 	add	r3, r3, #4
    83d8:	e023329e 	mla	r3, lr, r2, r3
    83dc:	e59f2020 	ldr	r2, [pc, #32]	; 8404 <dmx_set_output_break_time+0x60>
    83e0:	e0830000 	add	r0, r3, r0
    83e4:	e1500002 	cmp	r0, r2
    83e8:	31a00002 	movcc	r0, r2
    83ec:	e3a03001 	mov	r3, #1
    83f0:	e5810000 	str	r0, [r1]
    83f4:	e5cc3000 	strb	r3, [ip]
    83f8:	e49df004 	pop	{pc}		; (ldr pc, [sp], #4)
    83fc:	0001f658 	andeq	pc, r1, r8, asr r6	; <UNPREDICTABLE>
    8400:	0001ed98 	muleq	r1, r8, sp
    8404:	000004b4 			; <UNDEFINED> instruction: 0x000004b4

00008408 <dmx_get_output_mab_time>:
    8408:	e59f3004 	ldr	r3, [pc, #4]	; 8414 <dmx_get_output_mab_time+0xc>
    840c:	e5930004 	ldr	r0, [r3, #4]
    8410:	e12fff1e 	bx	lr
    8414:	0001ed98 	muleq	r1, r8, sp

00008418 <dmx_set_output_mab_time>:
    8418:	e350000c 	cmp	r0, #12
    841c:	33a0000c 	movcc	r0, #12
    8420:	e59fc048 	ldr	ip, [pc, #72]	; 8470 <dmx_set_output_mab_time+0x58>
    8424:	e59f1048 	ldr	r1, [pc, #72]	; 8474 <dmx_set_output_mab_time+0x5c>
    8428:	e5dc3000 	ldrb	r3, [ip]
    842c:	e5810004 	str	r0, [r1, #4]
    8430:	e3530000 	cmp	r3, #0
    8434:	012fff1e 	bxeq	lr
    8438:	e52de004 	push	{lr}		; (str lr, [sp, #-4]!)
    843c:	e3a0e02c 	mov	lr, #44	; 0x2c
    8440:	e5913008 	ldr	r3, [r1, #8]
    8444:	e1d120bc 	ldrh	r2, [r1, #12]
    8448:	e2833004 	add	r3, r3, #4
    844c:	e023329e 	mla	r3, lr, r2, r3
    8450:	e59f2020 	ldr	r2, [pc, #32]	; 8478 <dmx_set_output_mab_time+0x60>
    8454:	e0830000 	add	r0, r3, r0
    8458:	e1500002 	cmp	r0, r2
    845c:	31a00002 	movcc	r0, r2
    8460:	e3a03001 	mov	r3, #1
    8464:	e5810000 	str	r0, [r1]
    8468:	e5cc3000 	strb	r3, [ip]
    846c:	e49df004 	pop	{pc}		; (ldr pc, [sp], #4)
    8470:	0001f658 	andeq	pc, r1, r8, asr r6	; <UNPREDICTABLE>
    8474:	0001ed98 	muleq	r1, r8, sp
    8478:	000004b4 			; <UNDEFINED> instruction: 0x000004b4

0000847c <dmx_reset_total_statistics>:
    847c:	e3a02000 	mov	r2, #0
    8480:	e59f3008 	ldr	r3, [pc, #8]	; 8490 <dmx_reset_total_statistics+0x14>
    8484:	e5832234 	str	r2, [r3, #564]	; 0x234
    8488:	e5832238 	str	r2, [r3, #568]	; 0x238
    848c:	e12fff1e 	bx	lr
    8490:	00021650 	andeq	r1, r2, r0, asr r6

00008494 <dmx_get_total_statistics>:
    8494:	e59f0000 	ldr	r0, [pc]	; 849c <dmx_get_total_statistics+0x8>
    8498:	e12fff1e 	bx	lr
    849c:	00021884 	andeq	r1, r2, r4, lsl #17

000084a0 <c_fiq_handler>:
    84a0:	e24ee004 	sub	lr, lr, #4
    84a4:	e92d40ff 	push	{r0, r1, r2, r3, r4, r5, r6, r7, lr}
    84a8:	e3a03000 	mov	r3, #0
    84ac:	ee073fba 	mcr	15, 0, r3, cr7, cr10, {5}
    84b0:	e59f23e8 	ldr	r2, [pc, #1000]	; 88a0 <c_fiq_handler+0x400>
    84b4:	e59f33e8 	ldr	r3, [pc, #1000]	; 88a4 <c_fiq_handler+0x404>
    84b8:	e5921004 	ldr	r1, [r2, #4]
    84bc:	e59f23e4 	ldr	r2, [pc, #996]	; 88a8 <c_fiq_handler+0x408>
    84c0:	e583123c 	str	r1, [r3, #572]	; 0x23c
    84c4:	e5921000 	ldr	r1, [r2]
    84c8:	e3110b01 	tst	r1, #1024	; 0x400
    84cc:	1a000022 	bne	855c <c_fiq_handler+0xbc>
    84d0:	e5922000 	ldr	r2, [r2]
    84d4:	e5d31240 	ldrb	r1, [r3, #576]	; 0x240
    84d8:	e6ef2072 	uxtb	r2, r2
    84dc:	e3510009 	cmp	r1, #9
    84e0:	979ff101 	ldrls	pc, [pc, r1, lsl #2]
    84e4:	ea000017 	b	8548 <c_fiq_handler+0xa8>
    84e8:	000085e8 	andeq	r8, r0, r8, ror #11
    84ec:	0000861c 	andeq	r8, r0, ip, lsl r6
    84f0:	00008548 	andeq	r8, r0, r8, asr #10
    84f4:	00008668 	andeq	r8, r0, r8, ror #12
    84f8:	000086dc 	ldrdeq	r8, [r0], -ip
    84fc:	00008734 	andeq	r8, r0, r4, lsr r7
    8500:	000087c0 	andeq	r8, r0, r0, asr #15
    8504:	00008510 	andeq	r8, r0, r0, lsl r5
    8508:	00008770 	andeq	r8, r0, r0, ror r7
    850c:	00008584 	andeq	r8, r0, r4, lsl #11
    8510:	e35200aa 	cmp	r2, #170	; 0xaa
    8514:	0a0000c7 	beq	8838 <c_fiq_handler+0x398>
    8518:	e35200fe 	cmp	r2, #254	; 0xfe
    851c:	1a0000c2 	bne	882c <c_fiq_handler+0x38c>
    8520:	e3e0c001 	mvn	ip, #1
    8524:	e59f2380 	ldr	r2, [pc, #896]	; 88ac <c_fiq_handler+0x40c>
    8528:	e59f0380 	ldr	r0, [pc, #896]	; 88b0 <c_fiq_handler+0x410>
    852c:	e1d2e1ba 	ldrh	lr, [r2, #26]
    8530:	e1d010b0 	ldrh	r1, [r0]
    8534:	e082248e 	add	r2, r2, lr, lsl #9
    8538:	e0822001 	add	r2, r2, r1
    853c:	e2811001 	add	r1, r1, #1
    8540:	e1c010b0 	strh	r1, [r0]
    8544:	e5c2c01c 	strb	ip, [r2, #28]
    8548:	e593123c 	ldr	r1, [r3, #572]	; 0x23c
    854c:	e3a02000 	mov	r2, #0
    8550:	e583124c 	str	r1, [r3, #588]	; 0x24c
    8554:	ee072fba 	mcr	15, 0, r2, cr7, cr10, {5}
    8558:	e8fd80ff 	ldm	sp!, {r0, r1, r2, r3, r4, r5, r6, r7, pc}^
    855c:	e3a00001 	mov	r0, #1
    8560:	e593223c 	ldr	r2, [r3, #572]	; 0x23c
    8564:	e593e244 	ldr	lr, [r3, #580]	; 0x244
    8568:	e59fc33c 	ldr	ip, [pc, #828]	; 88ac <c_fiq_handler+0x40c>
    856c:	e593123c 	ldr	r1, [r3, #572]	; 0x23c
    8570:	e06e2002 	rsb	r2, lr, r2
    8574:	e58c200c 	str	r2, [ip, #12]
    8578:	e5c30240 	strb	r0, [r3, #576]	; 0x240
    857c:	e5831244 	str	r1, [r3, #580]	; 0x244
    8580:	eafffff0 	b	8548 <c_fiq_handler+0xa8>
    8584:	e59f4320 	ldr	r4, [pc, #800]	; 88ac <c_fiq_handler+0x40c>
    8588:	e59f5314 	ldr	r5, [pc, #788]	; 88a4 <c_fiq_handler+0x404>
    858c:	e5d31250 	ldrb	r1, [r3, #592]	; 0x250
    8590:	e2856f92 	add	r6, r5, #584	; 0x248
    8594:	e1d4e1ba 	ldrh	lr, [r4, #26]
    8598:	e1d600b0 	ldrh	r0, [r6]
    859c:	e2811001 	add	r1, r1, #1
    85a0:	e6ef1071 	uxtb	r1, r1
    85a4:	e084c48e 	add	ip, r4, lr, lsl #9
    85a8:	e08cc000 	add	ip, ip, r0
    85ac:	e3510004 	cmp	r1, #4
    85b0:	e2800001 	add	r0, r0, #1
    85b4:	e5cc201c 	strb	r2, [ip, #28]
    85b8:	e1c600b0 	strh	r0, [r6]
    85bc:	e5c31250 	strb	r1, [r3, #592]	; 0x250
    85c0:	1affffe0 	bne	8548 <c_fiq_handler+0xa8>
    85c4:	e3a02000 	mov	r2, #0
    85c8:	e59f12d0 	ldr	r1, [pc, #720]	; 88a0 <c_fiq_handler+0x400>
    85cc:	e28ee001 	add	lr, lr, #1
    85d0:	e5911004 	ldr	r1, [r1, #4]
    85d4:	e20ee00f 	and	lr, lr, #15
    85d8:	e1c4e1ba 	strh	lr, [r4, #26]
    85dc:	e5851230 	str	r1, [r5, #560]	; 0x230
    85e0:	e5c52240 	strb	r2, [r5, #576]	; 0x240
    85e4:	eaffffd7 	b	8548 <c_fiq_handler+0xa8>
    85e8:	e35200fe 	cmp	r2, #254	; 0xfe
    85ec:	1affffd5 	bne	8548 <c_fiq_handler+0xa8>
    85f0:	e3e0c001 	mvn	ip, #1
    85f4:	e3a04007 	mov	r4, #7
    85f8:	e3a00001 	mov	r0, #1
    85fc:	e59f22a8 	ldr	r2, [pc, #680]	; 88ac <c_fiq_handler+0x40c>
    8600:	e59f12a8 	ldr	r1, [pc, #680]	; 88b0 <c_fiq_handler+0x410>
    8604:	e1d2e1ba 	ldrh	lr, [r2, #26]
    8608:	e5c34240 	strb	r4, [r3, #576]	; 0x240
    860c:	e082248e 	add	r2, r2, lr, lsl #9
    8610:	e5c2c01c 	strb	ip, [r2, #28]
    8614:	e1c100b0 	strh	r0, [r1]
    8618:	eaffffca 	b	8548 <c_fiq_handler+0xa8>
    861c:	e3520000 	cmp	r2, #0
    8620:	0a000093 	beq	8874 <c_fiq_handler+0x3d4>
    8624:	e35200cc 	cmp	r2, #204	; 0xcc
    8628:	1a00007f 	bne	882c <c_fiq_handler+0x38c>
    862c:	e3a0e001 	mov	lr, #1
    8630:	e3e05033 	mvn	r5, #51	; 0x33
    8634:	e3a04004 	mov	r4, #4
    8638:	e59f126c 	ldr	r1, [pc, #620]	; 88ac <c_fiq_handler+0x40c>
    863c:	e5930238 	ldr	r0, [r3, #568]	; 0x238
    8640:	e1d161ba 	ldrh	r6, [r1, #26]
    8644:	e59fc264 	ldr	ip, [pc, #612]	; 88b0 <c_fiq_handler+0x410>
    8648:	e0811486 	add	r1, r1, r6, lsl #9
    864c:	e080000e 	add	r0, r0, lr
    8650:	e5c1501c 	strb	r5, [r1, #28]
    8654:	e5830238 	str	r0, [r3, #568]	; 0x238
    8658:	e5c34240 	strb	r4, [r3, #576]	; 0x240
    865c:	e1cce0b0 	strh	lr, [ip]
    8660:	e1cc20b2 	strh	r2, [ip, #2]
    8664:	eaffffb7 	b	8548 <c_fiq_handler+0xa8>
    8668:	e3a07002 	mov	r7, #2
    866c:	e59f6230 	ldr	r6, [pc, #560]	; 88a4 <c_fiq_handler+0x404>
    8670:	e593e23c 	ldr	lr, [r3, #572]	; 0x23c
    8674:	e2864f92 	add	r4, r6, #584	; 0x248
    8678:	e1d450b0 	ldrh	r5, [r4]
    867c:	e593024c 	ldr	r0, [r3, #588]	; 0x24c
    8680:	e593123c 	ldr	r1, [r3, #572]	; 0x23c
    8684:	e285c001 	add	ip, r5, #1
    8688:	e060000e 	rsb	r0, r0, lr
    868c:	e6ffc07c 	uxth	ip, ip
    8690:	e59fe208 	ldr	lr, [pc, #520]	; 88a0 <c_fiq_handler+0x400>
    8694:	e59f8218 	ldr	r8, [pc, #536]	; 88b4 <c_fiq_handler+0x414>
    8698:	e0811007 	add	r1, r1, r7
    869c:	e59f9208 	ldr	r9, [pc, #520]	; 88ac <c_fiq_handler+0x40c>
    86a0:	e0811000 	add	r1, r1, r0
    86a4:	e35c0c02 	cmp	ip, #512	; 0x200
    86a8:	e7c82005 	strb	r2, [r8, r5]
    86ac:	e1c4c0b0 	strh	ip, [r4]
    86b0:	e58e1010 	str	r1, [lr, #16]
    86b4:	e5890014 	str	r0, [r9, #20]
    86b8:	e58e7000 	str	r7, [lr]
    86bc:	9affffa1 	bls	8548 <c_fiq_handler+0xa8>
    86c0:	e3a00000 	mov	r0, #0
    86c4:	e3a01001 	mov	r1, #1
    86c8:	e3a02c02 	mov	r2, #512	; 0x200
    86cc:	e5c60240 	strb	r0, [r6, #576]	; 0x240
    86d0:	e5c61024 	strb	r1, [r6, #36]	; 0x24
    86d4:	e5892008 	str	r2, [r9, #8]
    86d8:	eaffff9a 	b	8548 <c_fiq_handler+0xa8>
    86dc:	e59f61c0 	ldr	r6, [pc, #448]	; 88a4 <c_fiq_handler+0x404>
    86e0:	e2861f92 	add	r1, r6, #584	; 0x248
    86e4:	e1d1c0b0 	ldrh	ip, [r1]
    86e8:	e35c0c02 	cmp	ip, #512	; 0x200
    86ec:	8a00004e 	bhi	882c <c_fiq_handler+0x38c>
    86f0:	e59f01b4 	ldr	r0, [pc, #436]	; 88ac <c_fiq_handler+0x40c>
    86f4:	e28ce001 	add	lr, ip, #1
    86f8:	e1d041ba 	ldrh	r4, [r0, #26]
    86fc:	e1d150b2 	ldrh	r5, [r1, #2]
    8700:	e1a04484 	lsl	r4, r4, #9
    8704:	e0807004 	add	r7, r0, r4
    8708:	e087c00c 	add	ip, r7, ip
    870c:	e5cc201c 	strb	r2, [ip, #28]
    8710:	e5d7c01e 	ldrb	ip, [r7, #30]
    8714:	e6ff007e 	uxth	r0, lr
    8718:	e0822005 	add	r2, r2, r5
    871c:	e15c0000 	cmp	ip, r0
    8720:	e1c120b2 	strh	r2, [r1, #2]
    8724:	03a02005 	moveq	r2, #5
    8728:	e1c100b0 	strh	r0, [r1]
    872c:	05c62240 	strbeq	r2, [r6, #576]	; 0x240
    8730:	eaffff84 	b	8548 <c_fiq_handler+0xa8>
    8734:	e3a04006 	mov	r4, #6
    8738:	e59f116c 	ldr	r1, [pc, #364]	; 88ac <c_fiq_handler+0x40c>
    873c:	e59f016c 	ldr	r0, [pc, #364]	; 88b0 <c_fiq_handler+0x410>
    8740:	e1d151ba 	ldrh	r5, [r1, #26]
    8744:	e1d0c0b0 	ldrh	ip, [r0]
    8748:	e1d0e0b2 	ldrh	lr, [r0, #2]
    874c:	e0811485 	add	r1, r1, r5, lsl #9
    8750:	e081100c 	add	r1, r1, ip
    8754:	e04ee402 	sub	lr, lr, r2, lsl #8
    8758:	e28cc001 	add	ip, ip, #1
    875c:	e5c1201c 	strb	r2, [r1, #28]
    8760:	e1c0c0b0 	strh	ip, [r0]
    8764:	e1c0e0b2 	strh	lr, [r0, #2]
    8768:	e5c34240 	strb	r4, [r3, #576]	; 0x240
    876c:	eaffff75 	b	8548 <c_fiq_handler+0xa8>
    8770:	e59f0134 	ldr	r0, [pc, #308]	; 88ac <c_fiq_handler+0x40c>
    8774:	e59f4128 	ldr	r4, [pc, #296]	; 88a4 <c_fiq_handler+0x404>
    8778:	e5d31250 	ldrb	r1, [r3, #592]	; 0x250
    877c:	e284ef92 	add	lr, r4, #584	; 0x248
    8780:	e1d051ba 	ldrh	r5, [r0, #26]
    8784:	e1dec0b0 	ldrh	ip, [lr]
    8788:	e2811001 	add	r1, r1, #1
    878c:	e6ef1071 	uxtb	r1, r1
    8790:	e0800485 	add	r0, r0, r5, lsl #9
    8794:	e080000c 	add	r0, r0, ip
    8798:	e351000c 	cmp	r1, #12
    879c:	e28cc001 	add	ip, ip, #1
    87a0:	e5c0201c 	strb	r2, [r0, #28]
    87a4:	e1cec0b0 	strh	ip, [lr]
    87a8:	e5c31250 	strb	r1, [r3, #592]	; 0x250
    87ac:	03a01009 	moveq	r1, #9
    87b0:	03a02000 	moveq	r2, #0
    87b4:	05c41240 	strbeq	r1, [r4, #576]	; 0x240
    87b8:	05c42250 	strbeq	r2, [r4, #592]	; 0x250
    87bc:	eaffff61 	b	8548 <c_fiq_handler+0xa8>
    87c0:	e59f60dc 	ldr	r6, [pc, #220]	; 88a4 <c_fiq_handler+0x404>
    87c4:	e59fe0e0 	ldr	lr, [pc, #224]	; 88ac <c_fiq_handler+0x40c>
    87c8:	e2860f92 	add	r0, r6, #584	; 0x248
    87cc:	e1d010b2 	ldrh	r1, [r0, #2]
    87d0:	e1de51ba 	ldrh	r5, [lr, #26]
    87d4:	e1d070b0 	ldrh	r7, [r0]
    87d8:	e1a04485 	lsl	r4, r5, #9
    87dc:	e0621001 	rsb	r1, r2, r1
    87e0:	e6ff1071 	uxth	r1, r1
    87e4:	e08ec004 	add	ip, lr, r4
    87e8:	e2878001 	add	r8, r7, #1
    87ec:	e08cc007 	add	ip, ip, r7
    87f0:	e3510000 	cmp	r1, #0
    87f4:	e1c080b0 	strh	r8, [r0]
    87f8:	e5cc201c 	strb	r2, [ip, #28]
    87fc:	e1c010b2 	strh	r1, [r0, #2]
    8800:	1a000009 	bne	882c <c_fiq_handler+0x38c>
    8804:	e08e4004 	add	r4, lr, r4
    8808:	e5d4201d 	ldrb	r2, [r4, #29]
    880c:	e3520001 	cmp	r2, #1
    8810:	1a000005 	bne	882c <c_fiq_handler+0x38c>
    8814:	e59f1084 	ldr	r1, [pc, #132]	; 88a0 <c_fiq_handler+0x400>
    8818:	e2852001 	add	r2, r5, #1
    881c:	e5911004 	ldr	r1, [r1, #4]
    8820:	e202200f 	and	r2, r2, #15
    8824:	e1ce21ba 	strh	r2, [lr, #26]
    8828:	e5861230 	str	r1, [r6, #560]	; 0x230
    882c:	e3a02000 	mov	r2, #0
    8830:	e5c32240 	strb	r2, [r3, #576]	; 0x240
    8834:	eaffff43 	b	8548 <c_fiq_handler+0xa8>
    8838:	e3e04055 	mvn	r4, #85	; 0x55
    883c:	e3a0e008 	mov	lr, #8
    8840:	e3a0c000 	mov	ip, #0
    8844:	e59f2060 	ldr	r2, [pc, #96]	; 88ac <c_fiq_handler+0x40c>
    8848:	e59f0060 	ldr	r0, [pc, #96]	; 88b0 <c_fiq_handler+0x410>
    884c:	e1d251ba 	ldrh	r5, [r2, #26]
    8850:	e1d010b0 	ldrh	r1, [r0]
    8854:	e0822485 	add	r2, r2, r5, lsl #9
    8858:	e0822001 	add	r2, r2, r1
    885c:	e2811001 	add	r1, r1, #1
    8860:	e1c010b0 	strh	r1, [r0]
    8864:	e5c2401c 	strb	r4, [r2, #28]
    8868:	e5c3e240 	strb	lr, [r3, #576]	; 0x240
    886c:	e5c3c250 	strb	ip, [r3, #592]	; 0x250
    8870:	eaffff34 	b	8548 <c_fiq_handler+0xa8>
    8874:	e3a0e001 	mov	lr, #1
    8878:	e3a04003 	mov	r4, #3
    887c:	e5931234 	ldr	r1, [r3, #564]	; 0x234
    8880:	e59fc028 	ldr	ip, [pc, #40]	; 88b0 <c_fiq_handler+0x410>
    8884:	e59f0028 	ldr	r0, [pc, #40]	; 88b4 <c_fiq_handler+0x414>
    8888:	e081100e 	add	r1, r1, lr
    888c:	e5831234 	str	r1, [r3, #564]	; 0x234
    8890:	e5c34240 	strb	r4, [r3, #576]	; 0x240
    8894:	e1cce0b0 	strh	lr, [ip]
    8898:	e5c02000 	strb	r2, [r0]
    889c:	eaffff29 	b	8548 <c_fiq_handler+0xa8>
    88a0:	20003000 	andcs	r3, r0, r0
    88a4:	00021650 	andeq	r1, r2, r0, asr r6
    88a8:	20201000 	eorcs	r1, r0, r0
    88ac:	0001f658 	andeq	pc, r1, r8, asr r6	; <UNPREDICTABLE>
    88b0:	00021898 	muleq	r2, r8, r8
    88b4:	00021ca4 	andeq	r1, r2, r4, lsr #25

000088b8 <c_irq_handler>:
    88b8:	e24ee004 	sub	lr, lr, #4
    88bc:	e92d50ff 	push	{r0, r1, r2, r3, r4, r5, r6, r7, ip, lr}
    88c0:	e3a02000 	mov	r2, #0
    88c4:	ee072fba 	mcr	15, 0, r2, cr7, cr10, {5}
    88c8:	e59f31d0 	ldr	r3, [pc, #464]	; 8aa0 <c_irq_handler+0x1e8>
    88cc:	e5934004 	ldr	r4, [r3, #4]
    88d0:	e5931000 	ldr	r1, [r3]
    88d4:	e3110002 	tst	r1, #2
    88d8:	0a000009 	beq	8904 <c_irq_handler+0x4c>
    88dc:	e3a01002 	mov	r1, #2
    88e0:	e59f61bc 	ldr	r6, [pc, #444]	; 8aa4 <c_irq_handler+0x1ec>
    88e4:	e5831000 	str	r1, [r3]
    88e8:	e5d61240 	ldrb	r1, [r6, #576]	; 0x240
    88ec:	e3510003 	cmp	r1, #3
    88f0:	0a00003e 	beq	89f0 <c_irq_handler+0x138>
    88f4:	e5d63251 	ldrb	r3, [r6, #593]	; 0x251
    88f8:	e59f21a4 	ldr	r2, [pc, #420]	; 8aa4 <c_irq_handler+0x1ec>
    88fc:	e3530000 	cmp	r3, #0
    8900:	1a000012 	bne	8950 <c_irq_handler+0x98>
    8904:	e59f3194 	ldr	r3, [pc, #404]	; 8aa0 <c_irq_handler+0x1e8>
    8908:	e5932000 	ldr	r2, [r3]
    890c:	e3120008 	tst	r2, #8
    8910:	0a00000b 	beq	8944 <c_irq_handler+0x8c>
    8914:	e3a0e008 	mov	lr, #8
    8918:	e59f1184 	ldr	r1, [pc, #388]	; 8aa4 <c_irq_handler+0x1ec>
    891c:	e284493d 	add	r4, r4, #999424	; 0xf4000
    8920:	e5910234 	ldr	r0, [r1, #564]	; 0x234
    8924:	e5912258 	ldr	r2, [r1, #600]	; 0x258
    8928:	e59fc178 	ldr	ip, [pc, #376]	; 8aa8 <c_irq_handler+0x1f0>
    892c:	e2844d09 	add	r4, r4, #576	; 0x240
    8930:	e0622000 	rsb	r2, r2, r0
    8934:	e583e000 	str	lr, [r3]
    8938:	e5810258 	str	r0, [r1, #600]	; 0x258
    893c:	e5834018 	str	r4, [r3, #24]
    8940:	e58c2010 	str	r2, [ip, #16]
    8944:	e3a03000 	mov	r3, #0
    8948:	ee073fba 	mcr	15, 0, r3, cr7, cr10, {5}
    894c:	e8fd90ff 	ldm	sp!, {r0, r1, r2, r3, r4, r5, r6, r7, ip, pc}^
    8950:	e5d23252 	ldrb	r3, [r2, #594]	; 0x252
    8954:	e6ef3073 	uxtb	r3, r3
    8958:	e3530001 	cmp	r3, #1
    895c:	0a000036 	beq	8a3c <c_irq_handler+0x184>
    8960:	3a000041 	bcc	8a6c <c_irq_handler+0x1b4>
    8964:	e3530002 	cmp	r3, #2
    8968:	1affffe5 	bne	8904 <c_irq_handler+0x4c>
    896c:	e3a03003 	mov	r3, #3
    8970:	e59f7134 	ldr	r7, [pc, #308]	; 8aac <c_irq_handler+0x1f4>
    8974:	e5c23252 	strb	r3, [r2, #594]	; 0x252
    8978:	e1d730bc 	ldrh	r3, [r7, #12]
    897c:	e3530000 	cmp	r3, #0
    8980:	0a00000c 	beq	89b8 <c_irq_handler+0x100>
    8984:	e59f0124 	ldr	r0, [pc, #292]	; 8ab0 <c_irq_handler+0x1f8>
    8988:	e2433001 	sub	r3, r3, #1
    898c:	e280c001 	add	ip, r0, #1
    8990:	e59f111c 	ldr	r1, [pc, #284]	; 8ab4 <c_irq_handler+0x1fc>
    8994:	e6fcc073 	uxtah	ip, ip, r3
    8998:	e5913018 	ldr	r3, [r1, #24]
    899c:	e59f2110 	ldr	r2, [pc, #272]	; 8ab4 <c_irq_handler+0x1fc>
    89a0:	e3130020 	tst	r3, #32
    89a4:	1afffffb 	bne	8998 <c_irq_handler+0xe0>
    89a8:	e5f03001 	ldrb	r3, [r0, #1]!
    89ac:	e150000c 	cmp	r0, ip
    89b0:	e5823000 	str	r3, [r2]
    89b4:	1afffff7 	bne	8998 <c_irq_handler+0xe0>
    89b8:	e59f20f4 	ldr	r2, [pc, #244]	; 8ab4 <c_irq_handler+0x1fc>
    89bc:	e5923018 	ldr	r3, [r2, #24]
    89c0:	e2135020 	ands	r5, r3, #32
    89c4:	1afffffc 	bne	89bc <c_irq_handler+0x104>
    89c8:	e3a01000 	mov	r1, #0
    89cc:	e3a0002c 	mov	r0, #44	; 0x2c
    89d0:	eb004794 	bl	1a828 <udelay>
    89d4:	e5963254 	ldr	r3, [r6, #596]	; 0x254
    89d8:	e5971000 	ldr	r1, [r7]
    89dc:	e59f20bc 	ldr	r2, [pc, #188]	; 8aa0 <c_irq_handler+0x1e8>
    89e0:	e0833001 	add	r3, r3, r1
    89e4:	e5823010 	str	r3, [r2, #16]
    89e8:	e5c65252 	strb	r5, [r6, #594]	; 0x252
    89ec:	eaffffc4 	b	8904 <c_irq_handler+0x4c>
    89f0:	e59f00b0 	ldr	r0, [pc, #176]	; 8aa8 <c_irq_handler+0x1f0>
    89f4:	e596123c 	ldr	r1, [r6, #572]	; 0x23c
    89f8:	e590c014 	ldr	ip, [r0, #20]
    89fc:	e081100c 	add	r1, r1, ip
    8a00:	e1540001 	cmp	r4, r1
    8a04:	83a01001 	movhi	r1, #1
    8a08:	82863f92 	addhi	r3, r6, #584	; 0x248
    8a0c:	81d330b0 	ldrhhi	r3, [r3]
    8a10:	9284202d 	addls	r2, r4, #45	; 0x2d
    8a14:	82433001 	subhi	r3, r3, #1
    8a18:	95832010 	strls	r2, [r3, #16]
    8a1c:	85803008 	strhi	r3, [r0, #8]
    8a20:	e5d63251 	ldrb	r3, [r6, #593]	; 0x251
    8a24:	85c62240 	strbhi	r2, [r6, #576]	; 0x240
    8a28:	85c61024 	strbhi	r1, [r6, #36]	; 0x24
    8a2c:	e3530000 	cmp	r3, #0
    8a30:	e59f206c 	ldr	r2, [pc, #108]	; 8aa4 <c_irq_handler+0x1ec>
    8a34:	0affffb2 	beq	8904 <c_irq_handler+0x4c>
    8a38:	eaffffc4 	b	8950 <c_irq_handler+0x98>
    8a3c:	e3a0e002 	mov	lr, #2
    8a40:	e3a0c068 	mov	ip, #104	; 0x68
    8a44:	e59f3068 	ldr	r3, [pc, #104]	; 8ab4 <c_irq_handler+0x1fc>
    8a48:	e59f1050 	ldr	r1, [pc, #80]	; 8aa0 <c_irq_handler+0x1e8>
    8a4c:	e59f0058 	ldr	r0, [pc, #88]	; 8aac <c_irq_handler+0x1f4>
    8a50:	e5c2e252 	strb	lr, [r2, #594]	; 0x252
    8a54:	e583c02c 	str	ip, [r3, #44]	; 0x2c
    8a58:	e5913004 	ldr	r3, [r1, #4]
    8a5c:	e5902004 	ldr	r2, [r0, #4]
    8a60:	e0833002 	add	r3, r3, r2
    8a64:	e5813010 	str	r3, [r1, #16]
    8a68:	eaffffa5 	b	8904 <c_irq_handler+0x4c>
    8a6c:	e3a0e001 	mov	lr, #1
    8a70:	e3a0c069 	mov	ip, #105	; 0x69
    8a74:	e59f1038 	ldr	r1, [pc, #56]	; 8ab4 <c_irq_handler+0x1fc>
    8a78:	e59f0020 	ldr	r0, [pc, #32]	; 8aa0 <c_irq_handler+0x1e8>
    8a7c:	e59f3028 	ldr	r3, [pc, #40]	; 8aac <c_irq_handler+0x1f4>
    8a80:	e5c2e252 	strb	lr, [r2, #594]	; 0x252
    8a84:	e581c02c 	str	ip, [r1, #44]	; 0x2c
    8a88:	e5901004 	ldr	r1, [r0, #4]
    8a8c:	e5933008 	ldr	r3, [r3, #8]
    8a90:	e0813003 	add	r3, r1, r3
    8a94:	e5803010 	str	r3, [r0, #16]
    8a98:	e5821254 	str	r1, [r2, #596]	; 0x254
    8a9c:	eaffff98 	b	8904 <c_irq_handler+0x4c>
    8aa0:	20003000 	andcs	r3, r0, r0
    8aa4:	00021650 	andeq	r1, r2, r0, asr r6
    8aa8:	0001f658 	andeq	pc, r1, r8, asr r6	; <UNPREDICTABLE>
    8aac:	0001ed98 	muleq	r1, r8, sp
    8ab0:	00021ca3 	andeq	r1, r2, r3, lsr #25
    8ab4:	20201000 	eorcs	r1, r0, r0

00008ab8 <dmx_start_data>:
    8ab8:	e59f3044 	ldr	r3, [pc, #68]	; 8b04 <dmx_start_data+0x4c>
    8abc:	e5d3300e 	ldrb	r3, [r3, #14]
    8ac0:	e3530001 	cmp	r3, #1
    8ac4:	0a000005 	beq	8ae0 <dmx_start_data+0x28>
    8ac8:	e3530002 	cmp	r3, #2
    8acc:	112fff1e 	bxne	lr
    8ad0:	e3a02000 	mov	r2, #0
    8ad4:	e59f302c 	ldr	r3, [pc, #44]	; 8b08 <dmx_start_data+0x50>
    8ad8:	e5c32240 	strb	r2, [r3, #576]	; 0x240
    8adc:	eafffd90 	b	8124 <__enable_fiq>
    8ae0:	e3a01002 	mov	r1, #2
    8ae4:	e59f001c 	ldr	r0, [pc, #28]	; 8b08 <dmx_start_data+0x50>
    8ae8:	e59f201c 	ldr	r2, [pc, #28]	; 8b0c <dmx_start_data+0x54>
    8aec:	e5c03251 	strb	r3, [r0, #593]	; 0x251
    8af0:	e5923004 	ldr	r3, [r2, #4]
    8af4:	e2833004 	add	r3, r3, #4
    8af8:	e5823010 	str	r3, [r2, #16]
    8afc:	e5821000 	str	r1, [r2]
    8b00:	e12fff1e 	bx	lr
    8b04:	0001ed98 	muleq	r1, r8, sp
    8b08:	00021650 	andeq	r1, r2, r0, asr r6
    8b0c:	20003000 	andcs	r3, r0, r0

00008b10 <dmx_stop_data>:
    8b10:	e3a00000 	mov	r0, #0
    8b14:	e3a02002 	mov	r2, #2
    8b18:	e59f1014 	ldr	r1, [pc, #20]	; 8b34 <dmx_stop_data+0x24>
    8b1c:	e59f3014 	ldr	r3, [pc, #20]	; 8b38 <dmx_stop_data+0x28>
    8b20:	e5c10251 	strb	r0, [r1, #593]	; 0x251
    8b24:	e5931004 	ldr	r1, [r3, #4]
    8b28:	e5831010 	str	r1, [r3, #16]
    8b2c:	e5832000 	str	r2, [r3]
    8b30:	eafffd7f 	b	8134 <__disable_fiq>
    8b34:	00021650 	andeq	r1, r2, r0, asr r6
    8b38:	20003000 	andcs	r3, r0, r0

00008b3c <dmx_set_port_direction>:
    8b3c:	e3500001 	cmp	r0, #1
    8b40:	e92d41f0 	push	{r4, r5, r6, r7, r8, lr}
    8b44:	e1a04000 	mov	r4, r0
    8b48:	e1a05001 	mov	r5, r1
    8b4c:	0a000025 	beq	8be8 <dmx_set_port_direction+0xac>
    8b50:	e3500002 	cmp	r0, #2
    8b54:	0a000013 	beq	8ba8 <dmx_set_port_direction+0x6c>
    8b58:	e3a02000 	mov	r2, #0
    8b5c:	e3a04002 	mov	r4, #2
    8b60:	e59f60d8 	ldr	r6, [pc, #216]	; 8c40 <dmx_set_port_direction+0x104>
    8b64:	e59f30d8 	ldr	r3, [pc, #216]	; 8c44 <dmx_set_port_direction+0x108>
    8b68:	e5c62251 	strb	r2, [r6, #593]	; 0x251
    8b6c:	e5932004 	ldr	r2, [r3, #4]
    8b70:	e5832010 	str	r2, [r3, #16]
    8b74:	e5834000 	str	r4, [r3]
    8b78:	ebfffd6d 	bl	8134 <__disable_fiq>
    8b7c:	e3a02701 	mov	r2, #262144	; 0x40000
    8b80:	e59f10c0 	ldr	r1, [pc, #192]	; 8c48 <dmx_set_port_direction+0x10c>
    8b84:	e59f30c0 	ldr	r3, [pc, #192]	; 8c4c <dmx_set_port_direction+0x110>
    8b88:	e3550000 	cmp	r5, #0
    8b8c:	e5c1400e 	strb	r4, [r1, #14]
    8b90:	e5832028 	str	r2, [r3, #40]	; 0x28
    8b94:	08bd81f0 	popeq	{r4, r5, r6, r7, r8, pc}
    8b98:	e3a03000 	mov	r3, #0
    8b9c:	e5c63240 	strb	r3, [r6, #576]	; 0x240
    8ba0:	e8bd41f0 	pop	{r4, r5, r6, r7, r8, lr}
    8ba4:	eafffd5e 	b	8124 <__enable_fiq>
    8ba8:	e3a02000 	mov	r2, #0
    8bac:	e59f608c 	ldr	r6, [pc, #140]	; 8c40 <dmx_set_port_direction+0x104>
    8bb0:	e59f308c 	ldr	r3, [pc, #140]	; 8c44 <dmx_set_port_direction+0x108>
    8bb4:	e5c62251 	strb	r2, [r6, #593]	; 0x251
    8bb8:	e5932004 	ldr	r2, [r3, #4]
    8bbc:	e5832010 	str	r2, [r3, #16]
    8bc0:	e5830000 	str	r0, [r3]
    8bc4:	ebfffd5a 	bl	8134 <__disable_fiq>
    8bc8:	e3a01701 	mov	r1, #262144	; 0x40000
    8bcc:	e59f2078 	ldr	r2, [pc, #120]	; 8c4c <dmx_set_port_direction+0x110>
    8bd0:	e59f3070 	ldr	r3, [pc, #112]	; 8c48 <dmx_set_port_direction+0x10c>
    8bd4:	e3550000 	cmp	r5, #0
    8bd8:	e5821028 	str	r1, [r2, #40]	; 0x28
    8bdc:	e5c3400e 	strb	r4, [r3, #14]
    8be0:	08bd81f0 	popeq	{r4, r5, r6, r7, r8, pc}
    8be4:	eaffffeb 	b	8b98 <dmx_set_port_direction+0x5c>
    8be8:	e3a03000 	mov	r3, #0
    8bec:	e3a07002 	mov	r7, #2
    8bf0:	e59f8048 	ldr	r8, [pc, #72]	; 8c40 <dmx_set_port_direction+0x104>
    8bf4:	e59f6048 	ldr	r6, [pc, #72]	; 8c44 <dmx_set_port_direction+0x108>
    8bf8:	e5c83251 	strb	r3, [r8, #593]	; 0x251
    8bfc:	e5963004 	ldr	r3, [r6, #4]
    8c00:	e5863010 	str	r3, [r6, #16]
    8c04:	e5867000 	str	r7, [r6]
    8c08:	ebfffd49 	bl	8134 <__disable_fiq>
    8c0c:	e3a01701 	mov	r1, #262144	; 0x40000
    8c10:	e59f2034 	ldr	r2, [pc, #52]	; 8c4c <dmx_set_port_direction+0x110>
    8c14:	e59f302c 	ldr	r3, [pc, #44]	; 8c48 <dmx_set_port_direction+0x10c>
    8c18:	e3550000 	cmp	r5, #0
    8c1c:	e582101c 	str	r1, [r2, #28]
    8c20:	e5c3400e 	strb	r4, [r3, #14]
    8c24:	08bd81f0 	popeq	{r4, r5, r6, r7, r8, pc}
    8c28:	e5c84251 	strb	r4, [r8, #593]	; 0x251
    8c2c:	e5963004 	ldr	r3, [r6, #4]
    8c30:	e2833004 	add	r3, r3, #4
    8c34:	e5863010 	str	r3, [r6, #16]
    8c38:	e5867000 	str	r7, [r6]
    8c3c:	e8bd81f0 	pop	{r4, r5, r6, r7, r8, pc}
    8c40:	00021650 	andeq	r1, r2, r0, asr r6
    8c44:	20003000 	andcs	r3, r0, r0
    8c48:	0001ed98 	muleq	r1, r8, sp
    8c4c:	20200000 	eorcs	r0, r0, r0

00008c50 <dmx_init>:
    8c50:	e3a01000 	mov	r1, #0
    8c54:	e92d40f8 	push	{r3, r4, r5, r6, r7, lr}
    8c58:	e59f314c 	ldr	r3, [pc, #332]	; 8dac <dmx_init+0x15c>
    8c5c:	e59f214c 	ldr	r2, [pc, #332]	; 8db0 <dmx_init+0x160>
    8c60:	e2435028 	sub	r5, r3, #40	; 0x28
    8c64:	e285cf8a 	add	ip, r5, #552	; 0x228
    8c68:	e4831004 	str	r1, [r3], #4
    8c6c:	e153000c 	cmp	r3, ip
    8c70:	e5a21004 	str	r1, [r2, #4]!
    8c74:	e3a04000 	mov	r4, #0
    8c78:	e59f0134 	ldr	r0, [pc, #308]	; 8db4 <dmx_init+0x164>
    8c7c:	1afffff9 	bne	8c68 <dmx_init+0x18>
    8c80:	e3a0c00a 	mov	ip, #10
    8c84:	e59f212c 	ldr	r2, [pc, #300]	; 8db8 <dmx_init+0x168>
    8c88:	e5c04251 	strb	r4, [r0, #593]	; 0x251
    8c8c:	e5923004 	ldr	r3, [r2, #4]
    8c90:	e59f6124 	ldr	r6, [pc, #292]	; 8dbc <dmx_init+0x16c>
    8c94:	e283393d 	add	r3, r3, #999424	; 0xf4000
    8c98:	e59fe120 	ldr	lr, [pc, #288]	; 8dc0 <dmx_init+0x170>
    8c9c:	e2833d09 	add	r3, r3, #576	; 0x240
    8ca0:	e59f111c 	ldr	r1, [pc, #284]	; 8dc4 <dmx_init+0x174>
    8ca4:	e5823018 	str	r3, [r2, #24]
    8ca8:	e582c000 	str	ip, [r2]
    8cac:	e586c010 	str	ip, [r6, #16]
    8cb0:	e5ce4200 	strb	r4, [lr, #512]	; 0x200
    8cb4:	e5c04228 	strb	r4, [r0, #552]	; 0x228
    8cb8:	e5c04240 	strb	r4, [r0, #576]	; 0x240
    8cbc:	e5c04024 	strb	r4, [r0, #36]	; 0x24
    8cc0:	e1c141ba 	strh	r4, [r1, #26]
    8cc4:	e1c141b8 	strh	r4, [r1, #24]
    8cc8:	e59f60f8 	ldr	r6, [pc, #248]	; 8dc8 <dmx_init+0x178>
    8ccc:	ebfffd0c 	bl	8104 <__enable_irq>
    8cd0:	e59f10f4 	ldr	r1, [pc, #244]	; 8dcc <dmx_init+0x17c>
    8cd4:	e3a00002 	mov	r0, #2
    8cd8:	eb004568 	bl	1a280 <bcm2835_vc_set_clock_rate>
    8cdc:	e59f20ec 	ldr	r2, [pc, #236]	; 8dd0 <dmx_init+0x180>
    8ce0:	e5864030 	str	r4, [r6, #48]	; 0x30
    8ce4:	e5923004 	ldr	r3, [r2, #4]
    8ce8:	e3a0000e 	mov	r0, #14
    8cec:	e3c33a3f 	bic	r3, r3, #258048	; 0x3f000
    8cf0:	e3833909 	orr	r3, r3, #147456	; 0x24000
    8cf4:	e5823004 	str	r3, [r2, #4]
    8cf8:	e1a01004 	mov	r1, r4
    8cfc:	eb00444a 	bl	19e2c <bcm2835_gpio_set_pud>
    8d00:	e1a01004 	mov	r1, r4
    8d04:	e3a0000f 	mov	r0, #15
    8d08:	eb004447 	bl	19e2c <bcm2835_gpio_set_pud>
    8d0c:	e1a02006 	mov	r2, r6
    8d10:	e5923018 	ldr	r3, [r2, #24]
    8d14:	e59f60ac 	ldr	r6, [pc, #172]	; 8dc8 <dmx_init+0x178>
    8d18:	e2134008 	ands	r4, r3, #8
    8d1c:	1afffffb 	bne	8d10 <dmx_init+0xc0>
    8d20:	e3a02001 	mov	r2, #1
    8d24:	e3a0e068 	mov	lr, #104	; 0x68
    8d28:	e596302c 	ldr	r3, [r6, #44]	; 0x2c
    8d2c:	e59fc0a0 	ldr	ip, [pc, #160]	; 8dd4 <dmx_init+0x184>
    8d30:	e59f00a0 	ldr	r0, [pc, #160]	; 8dd8 <dmx_init+0x188>
    8d34:	e3c33010 	bic	r3, r3, #16
    8d38:	e586302c 	str	r3, [r6, #44]	; 0x2c
    8d3c:	e1a01002 	mov	r1, r2
    8d40:	e5860044 	str	r0, [r6, #68]	; 0x44
    8d44:	e5862024 	str	r2, [r6, #36]	; 0x24
    8d48:	e3a00012 	mov	r0, #18
    8d4c:	e5864028 	str	r4, [r6, #40]	; 0x28
    8d50:	e586e02c 	str	lr, [r6, #44]	; 0x2c
    8d54:	e586c030 	str	ip, [r6, #48]	; 0x30
    8d58:	eb0046a0 	bl	1a7e0 <bcm2835_gpio_fsel>
    8d5c:	e3a010b9 	mov	r1, #185	; 0xb9
    8d60:	e3a00010 	mov	r0, #16
    8d64:	e3a07002 	mov	r7, #2
    8d68:	e59f204c 	ldr	r2, [pc, #76]	; 8dbc <dmx_init+0x16c>
    8d6c:	e59f3044 	ldr	r3, [pc, #68]	; 8db8 <dmx_init+0x168>
    8d70:	e5860038 	str	r0, [r6, #56]	; 0x38
    8d74:	e582100c 	str	r1, [r2, #12]
    8d78:	e5c54251 	strb	r4, [r5, #593]	; 0x251
    8d7c:	e5932004 	ldr	r2, [r3, #4]
    8d80:	e5832010 	str	r2, [r3, #16]
    8d84:	e5837000 	str	r7, [r3]
    8d88:	ebfffce9 	bl	8134 <__disable_fiq>
    8d8c:	e3a01701 	mov	r1, #262144	; 0x40000
    8d90:	e59f3044 	ldr	r3, [pc, #68]	; 8ddc <dmx_init+0x18c>
    8d94:	e59f2034 	ldr	r2, [pc, #52]	; 8dd0 <dmx_init+0x180>
    8d98:	e5821028 	str	r1, [r2, #40]	; 0x28
    8d9c:	e5c54240 	strb	r4, [r5, #576]	; 0x240
    8da0:	e5c3700e 	strb	r7, [r3, #14]
    8da4:	e8bd40f8 	pop	{r3, r4, r5, r6, r7, lr}
    8da8:	eafffcdd 	b	8124 <__enable_fiq>
    8dac:	00021678 	andeq	r1, r2, r8, ror r6
    8db0:	00021ca0 	andeq	r1, r2, r0, lsr #25
    8db4:	00021650 	andeq	r1, r2, r0, asr r6
    8db8:	20003000 	andcs	r3, r0, r0
    8dbc:	2000b200 	andcs	fp, r0, r0, lsl #4
    8dc0:	00021ca4 	andeq	r1, r2, r4, lsr #25
    8dc4:	0001f658 	andeq	pc, r1, r8, asr r6	; <UNPREDICTABLE>
    8dc8:	20201000 	eorcs	r1, r0, r0
    8dcc:	003d0900 	eorseq	r0, sp, r0, lsl #18
    8dd0:	20200000 	eorcs	r0, r0, r0
    8dd4:	00000301 	andeq	r0, r0, r1, lsl #6
    8dd8:	000007ff 	strdeq	r0, [r0], -pc	; <UNPREDICTABLE>
    8ddc:	0001ed98 	muleq	r1, r8, sp

00008de0 <FT245RL_init>:
    8de0:	e3a00502 	mov	r0, #8388608	; 0x800000
    8de4:	e3a01501 	mov	r1, #4194304	; 0x400000
    8de8:	e59f201c 	ldr	r2, [pc, #28]	; 8e0c <FT245RL_init+0x2c>
    8dec:	e5923008 	ldr	r3, [r2, #8]
    8df0:	e3c33bff 	bic	r3, r3, #261120	; 0x3fc00
    8df4:	e3c33d0f 	bic	r3, r3, #960	; 0x3c0
    8df8:	e3833d09 	orr	r3, r3, #576	; 0x240
    8dfc:	e5823008 	str	r3, [r2, #8]
    8e00:	e582001c 	str	r0, [r2, #28]
    8e04:	e5821028 	str	r1, [r2, #40]	; 0x28
    8e08:	e12fff1e 	bx	lr
    8e0c:	20200000 	eorcs	r0, r0, r0

00008e10 <FT245RL_write_data>:
    8e10:	e3a01501 	mov	r1, #4194304	; 0x400000
    8e14:	e59f3058 	ldr	r3, [pc, #88]	; 8e74 <FT245RL_write_data+0x64>
    8e18:	e59f2058 	ldr	r2, [pc, #88]	; 8e78 <FT245RL_write_data+0x68>
    8e1c:	e593c000 	ldr	ip, [r3]
    8e20:	e002200c 	and	r2, r2, ip
    8e24:	e3822692 	orr	r2, r2, #153092096	; 0x9200000
    8e28:	e3822d49 	orr	r2, r2, #4672	; 0x1240
    8e2c:	e5832000 	str	r2, [r3]
    8e30:	e5932004 	ldr	r2, [r3, #4]
    8e34:	e3c2203f 	bic	r2, r2, #63	; 0x3f
    8e38:	e3822009 	orr	r2, r2, #9
    8e3c:	e5832004 	str	r2, [r3, #4]
    8e40:	e583101c 	str	r1, [r3, #28]
    8e44:	e320f000 	nop	{0}
    8e48:	e3c02007 	bic	r2, r0, #7
    8e4c:	e1a02202 	lsl	r2, r2, #4
    8e50:	e2000007 	and	r0, r0, #7
    8e54:	e1820100 	orr	r0, r2, r0, lsl #2
    8e58:	e2202ef9 	eor	r2, r0, #3984	; 0xf90
    8e5c:	e222200c 	eor	r2, r2, #12
    8e60:	e583001c 	str	r0, [r3, #28]
    8e64:	e5832028 	str	r2, [r3, #40]	; 0x28
    8e68:	e320f000 	nop	{0}
    8e6c:	e5831028 	str	r1, [r3, #40]	; 0x28
    8e70:	e12fff1e 	bx	lr
    8e74:	20200000 	eorcs	r0, r0, r0
    8e78:	c01f803f 	andsgt	r8, pc, pc, lsr r0	; <UNPREDICTABLE>

00008e7c <FT245RL_read_data>:
    8e7c:	e3a01502 	mov	r1, #8388608	; 0x800000
    8e80:	e59f204c 	ldr	r2, [pc, #76]	; 8ed4 <FT245RL_read_data+0x58>
    8e84:	e59f304c 	ldr	r3, [pc, #76]	; 8ed8 <FT245RL_read_data+0x5c>
    8e88:	e5920000 	ldr	r0, [r2]
    8e8c:	e0033000 	and	r3, r3, r0
    8e90:	e5823000 	str	r3, [r2]
    8e94:	e5923004 	ldr	r3, [r2, #4]
    8e98:	e3c3303f 	bic	r3, r3, #63	; 0x3f
    8e9c:	e5823004 	str	r3, [r2, #4]
    8ea0:	e5821028 	str	r1, [r2, #40]	; 0x28
    8ea4:	e320f000 	nop	{0}
    8ea8:	e59f302c 	ldr	r3, [pc, #44]	; 8edc <FT245RL_read_data+0x60>
    8eac:	e5920034 	ldr	r0, [r2, #52]	; 0x34
    8eb0:	e582101c 	str	r1, [r2, #28]
    8eb4:	e0033000 	and	r3, r3, r0
    8eb8:	e1a00123 	lsr	r0, r3, #2
    8ebc:	e320f000 	nop	{0}
    8ec0:	e1a03223 	lsr	r3, r3, #4
    8ec4:	e3c33007 	bic	r3, r3, #7
    8ec8:	e200000f 	and	r0, r0, #15
    8ecc:	e1830000 	orr	r0, r3, r0
    8ed0:	e12fff1e 	bx	lr
    8ed4:	20200000 	eorcs	r0, r0, r0
    8ed8:	c01f803f 	andsgt	r8, pc, pc, lsr r0	; <UNPREDICTABLE>
    8edc:	00000f9c 	muleq	r0, ip, pc	; <UNPREDICTABLE>

00008ee0 <ticks_per_second_set>:
    8ee0:	e59f3004 	ldr	r3, [pc, #4]	; 8eec <ticks_per_second_set+0xc>
    8ee4:	e5830000 	str	r0, [r3]
    8ee8:	e12fff1e 	bx	lr
    8eec:	0001eda8 	andeq	lr, r1, r8, lsr #27

00008ef0 <ticks_per_second_get>:
    8ef0:	e59f3004 	ldr	r3, [pc, #4]	; 8efc <ticks_per_second_get+0xc>
    8ef4:	e5930000 	ldr	r0, [r3]
    8ef8:	e12fff1e 	bx	lr
    8efc:	0001eda8 	andeq	lr, r1, r8, lsr #27

00008f00 <led_blink>:
    8f00:	e92d4038 	push	{r3, r4, r5, lr}
    8f04:	e59f3038 	ldr	r3, [pc, #56]	; 8f44 <led_blink+0x44>
    8f08:	e59f4038 	ldr	r4, [pc, #56]	; 8f48 <led_blink+0x48>
    8f0c:	e59f2038 	ldr	r2, [pc, #56]	; 8f4c <led_blink+0x4c>
    8f10:	e5935004 	ldr	r5, [r3, #4]
    8f14:	e5943000 	ldr	r3, [r4]
    8f18:	e5922000 	ldr	r2, [r2]
    8f1c:	e0633005 	rsb	r3, r3, r5
    8f20:	e1530002 	cmp	r3, r2
    8f24:	38bd8038 	popcc	{r3, r4, r5, pc}
    8f28:	e5940004 	ldr	r0, [r4, #4]
    8f2c:	e2803001 	add	r3, r0, #1
    8f30:	e2000001 	and	r0, r0, #1
    8f34:	e5843004 	str	r3, [r4, #4]
    8f38:	eb004219 	bl	197a4 <hardware_led_set>
    8f3c:	e5845000 	str	r5, [r4]
    8f40:	e8bd8038 	pop	{r3, r4, r5, pc}
    8f44:	20003000 	andcs	r3, r0, r0
    8f48:	000218ac 	andeq	r1, r2, ip, lsr #17
    8f4c:	0001eda8 	andeq	lr, r1, r8, lsr #27

00008f50 <monitor_line>:
    8f50:	e92d000e 	push	{r1, r2, r3}
    8f54:	e92d4010 	push	{r4, lr}
    8f58:	e24dd00c 	sub	sp, sp, #12
    8f5c:	e59d4014 	ldr	r4, [sp, #20]
    8f60:	eb000d7f 	bl	c564 <console_clear_line>
    8f64:	e3540000 	cmp	r4, #0
    8f68:	0a000004 	beq	8f80 <monitor_line+0x30>
    8f6c:	e28d3018 	add	r3, sp, #24
    8f70:	e1a00004 	mov	r0, r4
    8f74:	e1a01003 	mov	r1, r3
    8f78:	e58d3004 	str	r3, [sp, #4]
    8f7c:	eb000e0f 	bl	c7c0 <vprintf>
    8f80:	e28dd00c 	add	sp, sp, #12
    8f84:	e8bd4010 	pop	{r4, lr}
    8f88:	e28dd00c 	add	sp, sp, #12
    8f8c:	e12fff1e 	bx	lr

00008f90 <monitor_time_uptime>:
    8f90:	e92d41f0 	push	{r4, r5, r6, r7, r8, lr}
    8f94:	e24dd018 	sub	sp, sp, #24
    8f98:	e3a06000 	mov	r6, #0
    8f9c:	e1a08000 	mov	r8, r0
    8fa0:	eb004190 	bl	195e8 <hardware_uptime_seconds>
    8fa4:	e1a04000 	mov	r4, r0
    8fa8:	e1a00006 	mov	r0, r6
    8fac:	e1a07001 	mov	r7, r1
    8fb0:	e58d6014 	str	r6, [sp, #20]
    8fb4:	eb0042de 	bl	19b34 <sys_time>
    8fb8:	e28d3018 	add	r3, sp, #24
    8fbc:	e5230004 	str	r0, [r3, #-4]!
    8fc0:	e1a00003 	mov	r0, r3
    8fc4:	eb004625 	bl	1a860 <localtime>
    8fc8:	e1a01008 	mov	r1, r8
    8fcc:	e1a05000 	mov	r5, r0
    8fd0:	e1a00006 	mov	r0, r6
    8fd4:	eb000d51 	bl	c520 <console_set_cursor>
    8fd8:	e1a00004 	mov	r0, r4
    8fdc:	e1a01007 	mov	r1, r7
    8fe0:	e59f2084 	ldr	r2, [pc, #132]	; 906c <monitor_time_uptime+0xdc>
    8fe4:	e3a03000 	mov	r3, #0
    8fe8:	eb005166 	bl	1d588 <__aeabi_uldivmod>
    8fec:	e8950160 	ldm	r5, {r5, r6, r8}
    8ff0:	e1a01007 	mov	r1, r7
    8ff4:	e58d0000 	str	r0, [sp]
    8ff8:	e59f206c 	ldr	r2, [pc, #108]	; 906c <monitor_time_uptime+0xdc>
    8ffc:	e1a00004 	mov	r0, r4
    9000:	e3a03000 	mov	r3, #0
    9004:	eb00515f 	bl	1d588 <__aeabi_uldivmod>
    9008:	e59fc060 	ldr	ip, [pc, #96]	; 9070 <monitor_time_uptime+0xe0>
    900c:	e1a01007 	mov	r1, r7
    9010:	e08c329c 	umull	r3, ip, ip, r2
    9014:	e1a00004 	mov	r0, r4
    9018:	e1a0c5ac 	lsr	ip, ip, #11
    901c:	e3a02ee1 	mov	r2, #3600	; 0xe10
    9020:	e3a03000 	mov	r3, #0
    9024:	e58dc004 	str	ip, [sp, #4]
    9028:	eb005156 	bl	1d588 <__aeabi_uldivmod>
    902c:	e59fc040 	ldr	ip, [pc, #64]	; 9074 <monitor_time_uptime+0xe4>
    9030:	e1a01008 	mov	r1, r8
    9034:	e080349c 	umull	r3, r0, ip, r4
    9038:	e08c329c 	umull	r3, ip, ip, r2
    903c:	e1a002a0 	lsr	r0, r0, #5
    9040:	e0600200 	rsb	r0, r0, r0, lsl #4
    9044:	e0444100 	sub	r4, r4, r0, lsl #2
    9048:	e1a002ac 	lsr	r0, ip, #5
    904c:	e58d0008 	str	r0, [sp, #8]
    9050:	e1a02006 	mov	r2, r6
    9054:	e1a03005 	mov	r3, r5
    9058:	e58d400c 	str	r4, [sp, #12]
    905c:	e59f0014 	ldr	r0, [pc, #20]	; 9078 <monitor_time_uptime+0xe8>
    9060:	eb000fc5 	bl	cf7c <printf>
    9064:	e28dd018 	add	sp, sp, #24
    9068:	e8bd81f0 	pop	{r4, r5, r6, r7, r8, pc}
    906c:	00015180 	andeq	r5, r1, r0, lsl #3
    9070:	91a2b3c5 			; <UNDEFINED> instruction: 0x91a2b3c5
    9074:	88888889 	stmhi	r8, {r0, r3, r7, fp, pc}
    9078:	0001e32c 	andeq	lr, r1, ip, lsr #6

0000907c <monitor_rdm_data>:
    907c:	e92d47f0 	push	{r4, r5, r6, r7, r8, r9, sl, lr}
    9080:	e1a04001 	mov	r4, r1
    9084:	e24dd028 	sub	sp, sp, #40	; 0x28
    9088:	e1a05002 	mov	r5, r2
    908c:	eb000d34 	bl	c564 <console_clear_line>
    9090:	e1a01004 	mov	r1, r4
    9094:	e59f007c 	ldr	r0, [pc, #124]	; 9118 <monitor_rdm_data+0x9c>
    9098:	eb000fb7 	bl	cf7c <printf>
    909c:	e3a03000 	mov	r3, #0
    90a0:	e2458001 	sub	r8, r5, #1
    90a4:	e2857008 	add	r7, r5, #8
    90a8:	e2856011 	add	r6, r5, #17
    90ac:	e285501a 	add	r5, r5, #26
    90b0:	e5f82001 	ldrb	r2, [r8, #1]!
    90b4:	e5f51001 	ldrb	r1, [r5, #1]!
    90b8:	e5f7a001 	ldrb	sl, [r7, #1]!
    90bc:	e5f6c001 	ldrb	ip, [r6, #1]!
    90c0:	e2834001 	add	r4, r3, #1
    90c4:	e283e013 	add	lr, r3, #19
    90c8:	e283001c 	add	r0, r3, #28
    90cc:	e283900a 	add	r9, r3, #10
    90d0:	e58d101c 	str	r1, [sp, #28]
    90d4:	e1a03002 	mov	r3, r2
    90d8:	e58d1020 	str	r1, [sp, #32]
    90dc:	e58d0018 	str	r0, [sp, #24]
    90e0:	e58da004 	str	sl, [sp, #4]
    90e4:	e58da008 	str	sl, [sp, #8]
    90e8:	e58dc010 	str	ip, [sp, #16]
    90ec:	e58dc014 	str	ip, [sp, #20]
    90f0:	e1a01004 	mov	r1, r4
    90f4:	e58d9000 	str	r9, [sp]
    90f8:	e58de00c 	str	lr, [sp, #12]
    90fc:	e59f0018 	ldr	r0, [pc, #24]	; 911c <monitor_rdm_data+0xa0>
    9100:	eb000f9d 	bl	cf7c <printf>
    9104:	e3540009 	cmp	r4, #9
    9108:	e1a03004 	mov	r3, r4
    910c:	1affffe7 	bne	90b0 <monitor_rdm_data+0x34>
    9110:	e28dd028 	add	sp, sp, #40	; 0x28
    9114:	e8bd87f0 	pop	{r4, r5, r6, r7, r8, r9, sl, pc}
    9118:	0001e36c 	andeq	lr, r1, ip, ror #6
    911c:	0001e384 	andeq	lr, r1, r4, lsl #7

00009120 <monitor_dmx_data>:
    9120:	e1a03000 	mov	r3, r0
    9124:	e92d4ff0 	push	{r4, r5, r6, r7, r8, r9, sl, fp, lr}
    9128:	e1a04001 	mov	r4, r1
    912c:	e24dd044 	sub	sp, sp, #68	; 0x44
    9130:	e1a01003 	mov	r1, r3
    9134:	e3a00000 	mov	r0, #0
    9138:	eb000cf8 	bl	c520 <console_set_cursor>
    913c:	e5d4500d 	ldrb	r5, [r4, #13]
    9140:	e5d4e00e 	ldrb	lr, [r4, #14]
    9144:	e5d41001 	ldrb	r1, [r4, #1]
    9148:	e5d42002 	ldrb	r2, [r4, #2]
    914c:	e5d43003 	ldrb	r3, [r4, #3]
    9150:	e5d4c00f 	ldrb	ip, [r4, #15]
    9154:	e5d40010 	ldrb	r0, [r4, #16]
    9158:	e5d4b004 	ldrb	fp, [r4, #4]
    915c:	e5d4a005 	ldrb	sl, [r4, #5]
    9160:	e5d49006 	ldrb	r9, [r4, #6]
    9164:	e5d48007 	ldrb	r8, [r4, #7]
    9168:	e5d47008 	ldrb	r7, [r4, #8]
    916c:	e5d46009 	ldrb	r6, [r4, #9]
    9170:	e58d5024 	str	r5, [sp, #36]	; 0x24
    9174:	e5d4500a 	ldrb	r5, [r4, #10]
    9178:	e58de028 	str	lr, [sp, #40]	; 0x28
    917c:	e5d4e00b 	ldrb	lr, [r4, #11]
    9180:	e58dc02c 	str	ip, [sp, #44]	; 0x2c
    9184:	e5d4c00c 	ldrb	ip, [r4, #12]
    9188:	e58d0030 	str	r0, [sp, #48]	; 0x30
    918c:	e59f00b0 	ldr	r0, [pc, #176]	; 9244 <monitor_dmx_data+0x124>
    9190:	e58db000 	str	fp, [sp]
    9194:	e58da004 	str	sl, [sp, #4]
    9198:	e58d9008 	str	r9, [sp, #8]
    919c:	e58d800c 	str	r8, [sp, #12]
    91a0:	e58d7010 	str	r7, [sp, #16]
    91a4:	e58d6014 	str	r6, [sp, #20]
    91a8:	e58d5018 	str	r5, [sp, #24]
    91ac:	e58de01c 	str	lr, [sp, #28]
    91b0:	e58dc020 	str	ip, [sp, #32]
    91b4:	eb000f70 	bl	cf7c <printf>
    91b8:	e5d4e01d 	ldrb	lr, [r4, #29]
    91bc:	e5d4c01e 	ldrb	ip, [r4, #30]
    91c0:	e5d40020 	ldrb	r0, [r4, #32]
    91c4:	e5d41011 	ldrb	r1, [r4, #17]
    91c8:	e5d42012 	ldrb	r2, [r4, #18]
    91cc:	e5d43013 	ldrb	r3, [r4, #19]
    91d0:	e5d4b01f 	ldrb	fp, [r4, #31]
    91d4:	e5d4a014 	ldrb	sl, [r4, #20]
    91d8:	e5d49015 	ldrb	r9, [r4, #21]
    91dc:	e5d48016 	ldrb	r8, [r4, #22]
    91e0:	e5d47017 	ldrb	r7, [r4, #23]
    91e4:	e5d46018 	ldrb	r6, [r4, #24]
    91e8:	e5d45019 	ldrb	r5, [r4, #25]
    91ec:	e58de024 	str	lr, [sp, #36]	; 0x24
    91f0:	e5d4e01a 	ldrb	lr, [r4, #26]
    91f4:	e58dc028 	str	ip, [sp, #40]	; 0x28
    91f8:	e5d4c01b 	ldrb	ip, [r4, #27]
    91fc:	e58dc03c 	str	ip, [sp, #60]	; 0x3c
    9200:	e5d4c01c 	ldrb	ip, [r4, #28]
    9204:	e58de018 	str	lr, [sp, #24]
    9208:	e59de03c 	ldr	lr, [sp, #60]	; 0x3c
    920c:	e58d0030 	str	r0, [sp, #48]	; 0x30
    9210:	e58db02c 	str	fp, [sp, #44]	; 0x2c
    9214:	e59f002c 	ldr	r0, [pc, #44]	; 9248 <monitor_dmx_data+0x128>
    9218:	e58da000 	str	sl, [sp]
    921c:	e58d9004 	str	r9, [sp, #4]
    9220:	e58d8008 	str	r8, [sp, #8]
    9224:	e58d700c 	str	r7, [sp, #12]
    9228:	e58d6010 	str	r6, [sp, #16]
    922c:	e58d5014 	str	r5, [sp, #20]
    9230:	e58de01c 	str	lr, [sp, #28]
    9234:	e58dc020 	str	ip, [sp, #32]
    9238:	eb000f4f 	bl	cf7c <printf>
    923c:	e28dd044 	add	sp, sp, #68	; 0x44
    9240:	e8bd8ff0 	pop	{r4, r5, r6, r7, r8, r9, sl, fp, pc}
    9244:	0001e3c4 	andeq	lr, r1, r4, asr #7
    9248:	0001e420 	andeq	lr, r1, r0, lsr #8

0000924c <monitor_sniffer>:
    924c:	e92d4ff0 	push	{r4, r5, r6, r7, r8, r9, sl, fp, lr}
    9250:	e59f41d4 	ldr	r4, [pc, #468]	; 942c <monitor_sniffer+0x1e0>
    9254:	e24dd03c 	sub	sp, sp, #60	; 0x3c
    9258:	e3a00000 	mov	r0, #0
    925c:	e3a0100b 	mov	r1, #11
    9260:	eb000cae 	bl	c520 <console_set_cursor>
    9264:	e5d4500d 	ldrb	r5, [r4, #13]
    9268:	e5d4e00e 	ldrb	lr, [r4, #14]
    926c:	e5d41001 	ldrb	r1, [r4, #1]
    9270:	e5d42002 	ldrb	r2, [r4, #2]
    9274:	e5d43003 	ldrb	r3, [r4, #3]
    9278:	e5d4c00f 	ldrb	ip, [r4, #15]
    927c:	e5d40010 	ldrb	r0, [r4, #16]
    9280:	e5d4b004 	ldrb	fp, [r4, #4]
    9284:	e5d4a005 	ldrb	sl, [r4, #5]
    9288:	e5d49006 	ldrb	r9, [r4, #6]
    928c:	e5d48007 	ldrb	r8, [r4, #7]
    9290:	e5d47008 	ldrb	r7, [r4, #8]
    9294:	e5d46009 	ldrb	r6, [r4, #9]
    9298:	e58d5024 	str	r5, [sp, #36]	; 0x24
    929c:	e5d4500a 	ldrb	r5, [r4, #10]
    92a0:	e58de028 	str	lr, [sp, #40]	; 0x28
    92a4:	e5d4e00b 	ldrb	lr, [r4, #11]
    92a8:	e58dc02c 	str	ip, [sp, #44]	; 0x2c
    92ac:	e5d4c00c 	ldrb	ip, [r4, #12]
    92b0:	e58d0030 	str	r0, [sp, #48]	; 0x30
    92b4:	e59f0174 	ldr	r0, [pc, #372]	; 9430 <monitor_sniffer+0x1e4>
    92b8:	e58db000 	str	fp, [sp]
    92bc:	e58da004 	str	sl, [sp, #4]
    92c0:	e58d9008 	str	r9, [sp, #8]
    92c4:	e58d800c 	str	r8, [sp, #12]
    92c8:	e58d7010 	str	r7, [sp, #16]
    92cc:	e58d6014 	str	r6, [sp, #20]
    92d0:	e58d5018 	str	r5, [sp, #24]
    92d4:	e58de01c 	str	lr, [sp, #28]
    92d8:	e58dc020 	str	ip, [sp, #32]
    92dc:	eb000f26 	bl	cf7c <printf>
    92e0:	e5d4e01d 	ldrb	lr, [r4, #29]
    92e4:	e5d4c01e 	ldrb	ip, [r4, #30]
    92e8:	e5d41011 	ldrb	r1, [r4, #17]
    92ec:	e5d42012 	ldrb	r2, [r4, #18]
    92f0:	e5d43013 	ldrb	r3, [r4, #19]
    92f4:	e5d40020 	ldrb	r0, [r4, #32]
    92f8:	e5d45019 	ldrb	r5, [r4, #25]
    92fc:	e5d4b01f 	ldrb	fp, [r4, #31]
    9300:	e5d4a014 	ldrb	sl, [r4, #20]
    9304:	e5d49015 	ldrb	r9, [r4, #21]
    9308:	e5d48016 	ldrb	r8, [r4, #22]
    930c:	e5d47017 	ldrb	r7, [r4, #23]
    9310:	e5d46018 	ldrb	r6, [r4, #24]
    9314:	e58de024 	str	lr, [sp, #36]	; 0x24
    9318:	e5d4e01a 	ldrb	lr, [r4, #26]
    931c:	e58dc028 	str	ip, [sp, #40]	; 0x28
    9320:	e5d4c01b 	ldrb	ip, [r4, #27]
    9324:	e58dc01c 	str	ip, [sp, #28]
    9328:	e5d4c01c 	ldrb	ip, [r4, #28]
    932c:	e58d0030 	str	r0, [sp, #48]	; 0x30
    9330:	e58db02c 	str	fp, [sp, #44]	; 0x2c
    9334:	e59f00f8 	ldr	r0, [pc, #248]	; 9434 <monitor_sniffer+0x1e8>
    9338:	e58de018 	str	lr, [sp, #24]
    933c:	e58dc020 	str	ip, [sp, #32]
    9340:	e58d5014 	str	r5, [sp, #20]
    9344:	e58da000 	str	sl, [sp]
    9348:	e58d9004 	str	r9, [sp, #4]
    934c:	e58d8008 	str	r8, [sp, #8]
    9350:	e58d700c 	str	r7, [sp, #12]
    9354:	e58d6010 	str	r6, [sp, #16]
    9358:	eb000f07 	bl	cf7c <printf>
    935c:	ebfffc4c 	bl	8494 <dmx_get_total_statistics>
    9360:	e1a04000 	mov	r4, r0
    9364:	e5903004 	ldr	r3, [r0, #4]
    9368:	e5905000 	ldr	r5, [r0]
    936c:	e3a0000e 	mov	r0, #14
    9370:	e0835005 	add	r5, r3, r5
    9374:	eb000c7a 	bl	c564 <console_clear_line>
    9378:	e894000c 	ldm	r4, {r2, r3}
    937c:	e1a01005 	mov	r1, r5
    9380:	e59f00b0 	ldr	r0, [pc, #176]	; 9438 <monitor_sniffer+0x1ec>
    9384:	eb000efc 	bl	cf7c <printf>
    9388:	eb00093c 	bl	b880 <rdm_statistics_get>
    938c:	e1a04000 	mov	r4, r0
    9390:	e59f00a4 	ldr	r0, [pc, #164]	; 943c <monitor_sniffer+0x1f0>
    9394:	e5941000 	ldr	r1, [r4]
    9398:	eb000ef7 	bl	cf7c <printf>
    939c:	e5941004 	ldr	r1, [r4, #4]
    93a0:	e59f0098 	ldr	r0, [pc, #152]	; 9440 <monitor_sniffer+0x1f4>
    93a4:	eb000ef4 	bl	cf7c <printf>
    93a8:	e5941008 	ldr	r1, [r4, #8]
    93ac:	e59f0090 	ldr	r0, [pc, #144]	; 9444 <monitor_sniffer+0x1f8>
    93b0:	eb000ef1 	bl	cf7c <printf>
    93b4:	e594100c 	ldr	r1, [r4, #12]
    93b8:	e59f0088 	ldr	r0, [pc, #136]	; 9448 <monitor_sniffer+0x1fc>
    93bc:	eb000eee 	bl	cf7c <printf>
    93c0:	ebfffba2 	bl	8250 <dmx_get_statistics>
    93c4:	e1a04000 	mov	r4, r0
    93c8:	e59f007c 	ldr	r0, [pc, #124]	; 944c <monitor_sniffer+0x200>
    93cc:	e1d410bc 	ldrh	r1, [r4, #12]
    93d0:	eb000ee9 	bl	cf7c <printf>
    93d4:	e594300c 	ldr	r3, [r4, #12]
    93d8:	e3530000 	cmp	r3, #0
    93dc:	1a000007 	bne	9400 <monitor_sniffer+0x1b4>
    93e0:	e59f0068 	ldr	r0, [pc, #104]	; 9450 <monitor_sniffer+0x204>
    93e4:	eb000ee4 	bl	cf7c <printf>
    93e8:	e59f0064 	ldr	r0, [pc, #100]	; 9454 <monitor_sniffer+0x208>
    93ec:	eb000ee2 	bl	cf7c <printf>
    93f0:	e59f0060 	ldr	r0, [pc, #96]	; 9458 <monitor_sniffer+0x20c>
    93f4:	e28dd03c 	add	sp, sp, #60	; 0x3c
    93f8:	e8bd4ff0 	pop	{r4, r5, r6, r7, r8, r9, sl, fp, lr}
    93fc:	ea000ede 	b	cf7c <printf>
    9400:	e1d410b4 	ldrh	r1, [r4, #4]
    9404:	e59f0050 	ldr	r0, [pc, #80]	; 945c <monitor_sniffer+0x210>
    9408:	eb000edb 	bl	cf7c <printf>
    940c:	e1d411b0 	ldrh	r1, [r4, #16]
    9410:	e59f0048 	ldr	r0, [pc, #72]	; 9460 <monitor_sniffer+0x214>
    9414:	eb000ed8 	bl	cf7c <printf>
    9418:	e5941008 	ldr	r1, [r4, #8]
    941c:	e59f0040 	ldr	r0, [pc, #64]	; 9464 <monitor_sniffer+0x218>
    9420:	e28dd03c 	add	sp, sp, #60	; 0x3c
    9424:	e8bd4ff0 	pop	{r4, r5, r6, r7, r8, r9, sl, fp, lr}
    9428:	ea000ed3 	b	cf7c <printf>
    942c:	00021ca4 	andeq	r1, r2, r4, lsr #25
    9430:	0001e3c4 	andeq	lr, r1, r4, asr #7
    9434:	0001e420 	andeq	lr, r1, r0, lsr #8
    9438:	0001e47c 	andeq	lr, r1, ip, ror r4
    943c:	0001e4a0 	andeq	lr, r1, r0, lsr #9
    9440:	0001e4bc 			; <UNDEFINED> instruction: 0x0001e4bc
    9444:	0001e4d8 	ldrdeq	lr, [r1], -r8
    9448:	0001e4f4 	strdeq	lr, [r1], -r4
    944c:	0001e510 	andeq	lr, r1, r0, lsl r5
    9450:	0001e57c 	andeq	lr, r1, ip, ror r5
    9454:	0001e598 	muleq	r1, r8, r5
    9458:	0001e5b4 			; <UNDEFINED> instruction: 0x0001e5b4
    945c:	0001e528 	andeq	lr, r1, r8, lsr #10
    9460:	0001e544 	andeq	lr, r1, r4, asr #10
    9464:	0001e560 	andeq	lr, r1, r0, ror #10

00009468 <read_config_file>:
    9468:	e92d41f0 	push	{r4, r5, r6, r7, r8, lr}
    946c:	e24dde4f 	sub	sp, sp, #1264	; 0x4f0
    9470:	e28d1faf 	add	r1, sp, #700	; 0x2bc
    9474:	e3a00000 	mov	r0, #0
    9478:	eb0024a8 	bl	12720 <f_mount>
    947c:	e28d3098 	add	r3, sp, #152	; 0x98
    9480:	e1a00003 	mov	r0, r3
    9484:	e59f119c 	ldr	r1, [pc, #412]	; 9628 <read_config_file+0x1c0>
    9488:	e3a02001 	mov	r2, #1
    948c:	e58d3004 	str	r3, [sp, #4]
    9490:	eb0024b1 	bl	1275c <f_open>
    9494:	e3500000 	cmp	r0, #0
    9498:	1a00004e 	bne	95d8 <read_config_file+0x170>
    949c:	e59f4188 	ldr	r4, [pc, #392]	; 962c <read_config_file+0x1c4>
    94a0:	e59f5188 	ldr	r5, [pc, #392]	; 9630 <read_config_file+0x1c8>
    94a4:	e28d0018 	add	r0, sp, #24
    94a8:	e3a01080 	mov	r1, #128	; 0x80
    94ac:	e59d2004 	ldr	r2, [sp, #4]
    94b0:	eb0036df 	bl	17034 <f_gets>
    94b4:	e3500000 	cmp	r0, #0
    94b8:	0a000044 	beq	95d0 <read_config_file+0x168>
    94bc:	e3a0c020 	mov	ip, #32
    94c0:	e59f216c 	ldr	r2, [pc, #364]	; 9634 <read_config_file+0x1cc>
    94c4:	e59f116c 	ldr	r1, [pc, #364]	; 9638 <read_config_file+0x1d0>
    94c8:	e2423004 	sub	r3, r2, #4
    94cc:	e28d0018 	add	r0, sp, #24
    94d0:	e5c4c000 	strb	ip, [r4]
    94d4:	eb000306 	bl	a0f4 <sscan_char_p>
    94d8:	e3a0c004 	mov	ip, #4
    94dc:	e28d2010 	add	r2, sp, #16
    94e0:	e2423001 	sub	r3, r2, #1
    94e4:	e28d0018 	add	r0, sp, #24
    94e8:	e59f114c 	ldr	r1, [pc, #332]	; 963c <read_config_file+0x1d4>
    94ec:	e5cdc00f 	strb	ip, [sp, #15]
    94f0:	eb0002ff 	bl	a0f4 <sscan_char_p>
    94f4:	e3500002 	cmp	r0, #2
    94f8:	1affffe9 	bne	94a4 <read_config_file+0x3c>
    94fc:	e5dd300f 	ldrb	r3, [sp, #15]
    9500:	e3530004 	cmp	r3, #4
    9504:	1affffe6 	bne	94a4 <read_config_file+0x3c>
    9508:	e5dd0010 	ldrb	r0, [sp, #16]
    950c:	e2403030 	sub	r3, r0, #48	; 0x30
    9510:	e6ef3073 	uxtb	r3, r3
    9514:	e3530009 	cmp	r3, #9
    9518:	8a000030 	bhi	95e0 <read_config_file+0x178>
    951c:	e5ddc011 	ldrb	ip, [sp, #17]
    9520:	e24c2030 	sub	r2, ip, #48	; 0x30
    9524:	e6ef2072 	uxtb	r2, r2
    9528:	e3520009 	cmp	r2, #9
    952c:	8a000030 	bhi	95f4 <read_config_file+0x18c>
    9530:	e5dd7012 	ldrb	r7, [sp, #18]
    9534:	e2471030 	sub	r1, r7, #48	; 0x30
    9538:	e6ef1071 	uxtb	r1, r1
    953c:	e3510009 	cmp	r1, #9
    9540:	9a000003 	bls	9554 <read_config_file+0xec>
    9544:	e3c7e020 	bic	lr, r7, #32
    9548:	e24ee041 	sub	lr, lr, #65	; 0x41
    954c:	e35e0005 	cmp	lr, #5
    9550:	8affffd3 	bhi	94a4 <read_config_file+0x3c>
    9554:	e5dd6013 	ldrb	r6, [sp, #19]
    9558:	e246e030 	sub	lr, r6, #48	; 0x30
    955c:	e6efe07e 	uxtb	lr, lr
    9560:	e35e0009 	cmp	lr, #9
    9564:	8a000027 	bhi	9608 <read_config_file+0x1a0>
    9568:	e3500039 	cmp	r0, #57	; 0x39
    956c:	9a00002a 	bls	961c <read_config_file+0x1b4>
    9570:	e3803020 	orr	r3, r0, #32
    9574:	e2433057 	sub	r3, r3, #87	; 0x57
    9578:	e1a03203 	lsl	r3, r3, #4
    957c:	e6ef3073 	uxtb	r3, r3
    9580:	e35c0039 	cmp	ip, #57	; 0x39
    9584:	838c2020 	orrhi	r2, ip, #32
    9588:	82422057 	subhi	r2, r2, #87	; 0x57
    958c:	86ef2072 	uxtbhi	r2, r2
    9590:	e3570039 	cmp	r7, #57	; 0x39
    9594:	e1822003 	orr	r2, r2, r3
    9598:	83873020 	orrhi	r3, r7, #32
    959c:	82433057 	subhi	r3, r3, #87	; 0x57
    95a0:	81a03203 	lslhi	r3, r3, #4
    95a4:	91a01201 	lslls	r1, r1, #4
    95a8:	86ef3073 	uxtbhi	r3, r3
    95ac:	96ef3071 	uxtbls	r3, r1
    95b0:	e3560039 	cmp	r6, #57	; 0x39
    95b4:	8386e020 	orrhi	lr, r6, #32
    95b8:	824ee057 	subhi	lr, lr, #87	; 0x57
    95bc:	86efe07e 	uxtbhi	lr, lr
    95c0:	e18e3003 	orr	r3, lr, r3
    95c4:	e5c52000 	strb	r2, [r5]
    95c8:	e5c53001 	strb	r3, [r5, #1]
    95cc:	eaffffb4 	b	94a4 <read_config_file+0x3c>
    95d0:	e59d0004 	ldr	r0, [sp, #4]
    95d4:	eb002813 	bl	13628 <f_close>
    95d8:	e28dde4f 	add	sp, sp, #1264	; 0x4f0
    95dc:	e8bd81f0 	pop	{r4, r5, r6, r7, r8, pc}
    95e0:	e3c02020 	bic	r2, r0, #32
    95e4:	e2422041 	sub	r2, r2, #65	; 0x41
    95e8:	e3520005 	cmp	r2, #5
    95ec:	9affffca 	bls	951c <read_config_file+0xb4>
    95f0:	eaffffab 	b	94a4 <read_config_file+0x3c>
    95f4:	e3cc1020 	bic	r1, ip, #32
    95f8:	e2411041 	sub	r1, r1, #65	; 0x41
    95fc:	e3510005 	cmp	r1, #5
    9600:	9affffca 	bls	9530 <read_config_file+0xc8>
    9604:	eaffffa6 	b	94a4 <read_config_file+0x3c>
    9608:	e3c68020 	bic	r8, r6, #32
    960c:	e2488041 	sub	r8, r8, #65	; 0x41
    9610:	e3580005 	cmp	r8, #5
    9614:	9affffd3 	bls	9568 <read_config_file+0x100>
    9618:	eaffffa1 	b	94a4 <read_config_file+0x3c>
    961c:	e1a03203 	lsl	r3, r3, #4
    9620:	e6ef3073 	uxtb	r3, r3
    9624:	eaffffd5 	b	9580 <read_config_file+0x118>
    9628:	0001d92c 	andeq	sp, r1, ip, lsr #18
    962c:	000218b4 			; <UNDEFINED> instruction: 0x000218b4
    9630:	0001edac 	andeq	lr, r1, ip, lsr #27
    9634:	000218b8 			; <UNDEFINED> instruction: 0x000218b8
    9638:	0001d93c 	andeq	sp, r1, ip, lsr r9
    963c:	0001d950 	andeq	sp, r1, r0, asr r9

00009640 <rdm_device_info_get_label>:
    9640:	e59f0000 	ldr	r0, [pc]	; 9648 <rdm_device_info_get_label+0x8>
    9644:	e12fff1e 	bx	lr
    9648:	000218d8 	ldrdeq	r1, [r2], -r8

0000964c <rdm_device_info_get_label_length>:
    964c:	e59f3004 	ldr	r3, [pc, #4]	; 9658 <rdm_device_info_get_label_length+0xc>
    9650:	e5d30044 	ldrb	r0, [r3, #68]	; 0x44
    9654:	e12fff1e 	bx	lr
    9658:	000218b4 			; <UNDEFINED> instruction: 0x000218b4

0000965c <rdm_device_info_get_manufacturer_name>:
    965c:	e59f0000 	ldr	r0, [pc]	; 9664 <rdm_device_info_get_manufacturer_name+0x8>
    9660:	e12fff1e 	bx	lr
    9664:	000218b8 			; <UNDEFINED> instruction: 0x000218b8

00009668 <rdm_device_info_get_manufacturer_name_length>:
    9668:	e59f3004 	ldr	r3, [pc, #4]	; 9674 <rdm_device_info_get_manufacturer_name_length+0xc>
    966c:	e5d30000 	ldrb	r0, [r3]
    9670:	e12fff1e 	bx	lr
    9674:	000218b4 			; <UNDEFINED> instruction: 0x000218b4

00009678 <rdm_device_info_get_manufacturer_id>:
    9678:	e59f3018 	ldr	r3, [pc, #24]	; 9698 <rdm_device_info_get_manufacturer_id+0x20>
    967c:	e59f0018 	ldr	r0, [pc, #24]	; 969c <rdm_device_info_get_manufacturer_id+0x24>
    9680:	e5d32001 	ldrb	r2, [r3, #1]
    9684:	e5d33000 	ldrb	r3, [r3]
    9688:	e5c02048 	strb	r2, [r0, #72]	; 0x48
    968c:	e5c03049 	strb	r3, [r0, #73]	; 0x49
    9690:	e2800048 	add	r0, r0, #72	; 0x48
    9694:	e12fff1e 	bx	lr
    9698:	0001edac 	andeq	lr, r1, ip, lsr #27
    969c:	000218b4 			; <UNDEFINED> instruction: 0x000218b4

000096a0 <rdm_device_info_get_manufacturer_id_length>:
    96a0:	e3a00002 	mov	r0, #2
    96a4:	e12fff1e 	bx	lr

000096a8 <rdm_device_info_get_sn>:
    96a8:	e59f0000 	ldr	r0, [pc]	; 96b0 <rdm_device_info_get_sn+0x8>
    96ac:	e12fff1e 	bx	lr
    96b0:	00021900 	andeq	r1, r2, r0, lsl #18

000096b4 <rdm_device_info_get_sn_length>:
    96b4:	e3a00004 	mov	r0, #4
    96b8:	e12fff1e 	bx	lr

000096bc <rdm_device_info_get_uuid>:
    96bc:	e59f0000 	ldr	r0, [pc]	; 96c4 <rdm_device_info_get_uuid+0x8>
    96c0:	e12fff1e 	bx	lr
    96c4:	0001edac 	andeq	lr, r1, ip, lsr #27

000096c8 <rdm_device_info_init>:
    96c8:	e92d4ff0 	push	{r4, r5, r6, r7, r8, r9, sl, fp, lr}
    96cc:	e24dd00c 	sub	sp, sp, #12
    96d0:	e1a0000d 	mov	r0, sp
    96d4:	eb00439f 	bl	1a558 <bcm2835_vc_get_board_mac_address>
    96d8:	e3500000 	cmp	r0, #0
    96dc:	0a000027 	beq	9780 <rdm_device_info_init+0xb8>
    96e0:	e59f10c0 	ldr	r1, [pc, #192]	; 97a8 <rdm_device_info_init+0xe0>
    96e4:	e5d13005 	ldrb	r3, [r1, #5]
    96e8:	e5d1a004 	ldrb	sl, [r1, #4]
    96ec:	e5d12003 	ldrb	r2, [r1, #3]
    96f0:	e5d1c002 	ldrb	ip, [r1, #2]
    96f4:	e3a09018 	mov	r9, #24
    96f8:	e3a08041 	mov	r8, #65	; 0x41
    96fc:	e3a07076 	mov	r7, #118	; 0x76
    9700:	e3a06056 	mov	r6, #86	; 0x56
    9704:	e3e0e00f 	mvn	lr, #15
    9708:	e3a05003 	mov	r5, #3
    970c:	e3a0407f 	mov	r4, #127	; 0x7f
    9710:	e59f0094 	ldr	r0, [pc, #148]	; 97ac <rdm_device_info_init+0xe4>
    9714:	e183340a 	orr	r3, r3, sl, lsl #8
    9718:	e590b034 	ldr	fp, [r0, #52]	; 0x34
    971c:	e1832802 	orr	r2, r3, r2, lsl #16
    9720:	e59f3088 	ldr	r3, [pc, #136]	; 97b0 <rdm_device_info_init+0xe8>
    9724:	e182291c 	orr	r2, r2, ip, lsl r9
    9728:	e590a038 	ldr	sl, [r0, #56]	; 0x38
    972c:	e590c03c 	ldr	ip, [r0, #60]	; 0x3c
    9730:	e583204c 	str	r2, [r3, #76]	; 0x4c
    9734:	e583b024 	str	fp, [r3, #36]	; 0x24
    9738:	e5902040 	ldr	r2, [r0, #64]	; 0x40
    973c:	e590b044 	ldr	fp, [r0, #68]	; 0x44
    9740:	e5900048 	ldr	r0, [r0, #72]	; 0x48
    9744:	e583a028 	str	sl, [r3, #40]	; 0x28
    9748:	e583c02c 	str	ip, [r3, #44]	; 0x2c
    974c:	e5832030 	str	r2, [r3, #48]	; 0x30
    9750:	e583b034 	str	fp, [r3, #52]	; 0x34
    9754:	e5830038 	str	r0, [r3, #56]	; 0x38
    9758:	e5c38004 	strb	r8, [r3, #4]
    975c:	e5c37005 	strb	r7, [r3, #5]
    9760:	e5c36006 	strb	r6, [r3, #6]
    9764:	e5c39044 	strb	r9, [r3, #68]	; 0x44
    9768:	e5c35000 	strb	r5, [r3]
    976c:	e5c14000 	strb	r4, [r1]
    9770:	e5c1e001 	strb	lr, [r1, #1]
    9774:	ebffff3b 	bl	9468 <read_config_file>
    9778:	e28dd00c 	add	sp, sp, #12
    977c:	e8bd8ff0 	pop	{r4, r5, r6, r7, r8, r9, sl, fp, pc}
    9780:	e59f1020 	ldr	r1, [pc, #32]	; 97a8 <rdm_device_info_init+0xe0>
    9784:	e5ddc002 	ldrb	ip, [sp, #2]
    9788:	e5dd2003 	ldrb	r2, [sp, #3]
    978c:	e5dda004 	ldrb	sl, [sp, #4]
    9790:	e5dd3005 	ldrb	r3, [sp, #5]
    9794:	e5c1c002 	strb	ip, [r1, #2]
    9798:	e5c12003 	strb	r2, [r1, #3]
    979c:	e5c1a004 	strb	sl, [r1, #4]
    97a0:	e5c13005 	strb	r3, [r1, #5]
    97a4:	eaffffd2 	b	96f4 <rdm_device_info_init+0x2c>
    97a8:	0001edac 	andeq	lr, r1, ip, lsr #27
    97ac:	0001d92c 	andeq	sp, r1, ip, lsr #18
    97b0:	000218b4 			; <UNDEFINED> instruction: 0x000218b4

000097b4 <rdm_send_data>:
    97b4:	e3a03069 	mov	r3, #105	; 0x69
    97b8:	e92d4070 	push	{r4, r5, r6, lr}
    97bc:	e59f4080 	ldr	r4, [pc, #128]	; 9844 <rdm_send_data+0x90>
    97c0:	e1a05000 	mov	r5, r0
    97c4:	e1a06001 	mov	r6, r1
    97c8:	e584302c 	str	r3, [r4, #44]	; 0x2c
    97cc:	e3a000b0 	mov	r0, #176	; 0xb0
    97d0:	e3a01000 	mov	r1, #0
    97d4:	eb004413 	bl	1a828 <udelay>
    97d8:	e3a03068 	mov	r3, #104	; 0x68
    97dc:	e3a0000c 	mov	r0, #12
    97e0:	e3a01000 	mov	r1, #0
    97e4:	e584302c 	str	r3, [r4, #44]	; 0x2c
    97e8:	eb00440e 	bl	1a828 <udelay>
    97ec:	e3560000 	cmp	r6, #0
    97f0:	12460001 	subne	r0, r6, #1
    97f4:	11a0c004 	movne	ip, r4
    97f8:	16f50070 	uxtahne	r0, r5, r0
    97fc:	12451001 	subne	r1, r5, #1
    9800:	0a000007 	beq	9824 <rdm_send_data+0x70>
    9804:	e59c3018 	ldr	r3, [ip, #24]
    9808:	e59f2034 	ldr	r2, [pc, #52]	; 9844 <rdm_send_data+0x90>
    980c:	e3130020 	tst	r3, #32
    9810:	1afffffb 	bne	9804 <rdm_send_data+0x50>
    9814:	e5f13001 	ldrb	r3, [r1, #1]!
    9818:	e1510000 	cmp	r1, r0
    981c:	e5823000 	str	r3, [r2]
    9820:	1afffff7 	bne	9804 <rdm_send_data+0x50>
    9824:	e59f2018 	ldr	r2, [pc, #24]	; 9844 <rdm_send_data+0x90>
    9828:	e5923018 	ldr	r3, [r2, #24]
    982c:	e3130020 	tst	r3, #32
    9830:	1afffffc 	bne	9828 <rdm_send_data+0x74>
    9834:	e3a0002c 	mov	r0, #44	; 0x2c
    9838:	e8bd4070 	pop	{r4, r5, r6, lr}
    983c:	e3a01000 	mov	r1, #0
    9840:	ea0043f8 	b	1a828 <udelay>
    9844:	20201000 	eorcs	r1, r0, r0

00009848 <rdm_send_discovery_respond_message>:
    9848:	e92d40f8 	push	{r3, r4, r5, r6, r7, lr}
    984c:	e59f30b8 	ldr	r3, [pc, #184]	; 990c <rdm_send_discovery_respond_message+0xc4>
    9850:	e1a04000 	mov	r4, r0
    9854:	e5936004 	ldr	r6, [r3, #4]
    9858:	e1a05001 	mov	r5, r1
    985c:	ebfffac8 	bl	8384 <rdm_get_data_receive_end>
    9860:	e0600006 	rsb	r0, r0, r6
    9864:	e35000c7 	cmp	r0, #199	; 0xc7
    9868:	8a000006 	bhi	9888 <rdm_send_discovery_respond_message+0x40>
    986c:	e3a020c8 	mov	r2, #200	; 0xc8
    9870:	e3a03000 	mov	r3, #0
    9874:	e0526000 	subs	r6, r2, r0
    9878:	e2c37000 	sbc	r7, r3, #0
    987c:	e1a00006 	mov	r0, r6
    9880:	e1a01007 	mov	r1, r7
    9884:	eb0043e7 	bl	1a828 <udelay>
    9888:	e3a00001 	mov	r0, #1
    988c:	e3a01000 	mov	r1, #0
    9890:	ebfffca9 	bl	8b3c <dmx_set_port_direction>
    9894:	e3a03068 	mov	r3, #104	; 0x68
    9898:	e3550000 	cmp	r5, #0
    989c:	e59fc06c 	ldr	ip, [pc, #108]	; 9910 <rdm_send_discovery_respond_message+0xc8>
    98a0:	12450001 	subne	r0, r5, #1
    98a4:	e58c302c 	str	r3, [ip, #44]	; 0x2c
    98a8:	16f40070 	uxtahne	r0, r4, r0
    98ac:	12441001 	subne	r1, r4, #1
    98b0:	0a000007 	beq	98d4 <rdm_send_discovery_respond_message+0x8c>
    98b4:	e59c3018 	ldr	r3, [ip, #24]
    98b8:	e59f2050 	ldr	r2, [pc, #80]	; 9910 <rdm_send_discovery_respond_message+0xc8>
    98bc:	e3130020 	tst	r3, #32
    98c0:	1afffffb 	bne	98b4 <rdm_send_discovery_respond_message+0x6c>
    98c4:	e5f13001 	ldrb	r3, [r1, #1]!
    98c8:	e1510000 	cmp	r1, r0
    98cc:	e5823000 	str	r3, [r2]
    98d0:	1afffff7 	bne	98b4 <rdm_send_discovery_respond_message+0x6c>
    98d4:	e59f2034 	ldr	r2, [pc, #52]	; 9910 <rdm_send_discovery_respond_message+0xc8>
    98d8:	e5923018 	ldr	r3, [r2, #24]
    98dc:	e3130020 	tst	r3, #32
    98e0:	1afffffc 	bne	98d8 <rdm_send_discovery_respond_message+0x90>
    98e4:	e3a0002c 	mov	r0, #44	; 0x2c
    98e8:	e3a01000 	mov	r1, #0
    98ec:	eb0043cd 	bl	1a828 <udelay>
    98f0:	e3a00004 	mov	r0, #4
    98f4:	e3a01000 	mov	r1, #0
    98f8:	eb0043ca 	bl	1a828 <udelay>
    98fc:	e8bd40f8 	pop	{r3, r4, r5, r6, r7, lr}
    9900:	e3a00002 	mov	r0, #2
    9904:	e3a01001 	mov	r1, #1
    9908:	eafffc8b 	b	8b3c <dmx_set_port_direction>
    990c:	20003000 	andcs	r3, r0, r0
    9910:	20201000 	eorcs	r1, r0, r0

00009914 <rdm_send_respond_message_ack>:
    9914:	e3a03000 	mov	r3, #0
    9918:	e92d4370 	push	{r4, r5, r6, r8, r9, lr}
    991c:	e1a06000 	mov	r6, r0
    9920:	e5c03010 	strb	r3, [r0, #16]
    9924:	ebffff64 	bl	96bc <rdm_device_info_get_uuid>
    9928:	e2862003 	add	r2, r6, #3
    992c:	e2863009 	add	r3, r6, #9
    9930:	e1823003 	orr	r3, r2, r3
    9934:	e1803003 	orr	r3, r0, r3
    9938:	e3130003 	tst	r3, #3
    993c:	e280c004 	add	ip, r0, #4
    9940:	e286100d 	add	r1, r6, #13
    9944:	03a03001 	moveq	r3, #1
    9948:	13a03000 	movne	r3, #0
    994c:	e1500001 	cmp	r0, r1
    9950:	3152000c 	cmpcc	r2, ip
    9954:	23a02001 	movcs	r2, #1
    9958:	33a02000 	movcc	r2, #0
    995c:	e1130002 	tst	r3, r2
    9960:	0a00005a 	beq	9ad0 <rdm_send_respond_message_ack+0x1bc>
    9964:	e5963009 	ldr	r3, [r6, #9]
    9968:	e5d6200d 	ldrb	r2, [r6, #13]
    996c:	e5863003 	str	r3, [r6, #3]
    9970:	e5903000 	ldr	r3, [r0]
    9974:	e5c62007 	strb	r2, [r6, #7]
    9978:	e5863009 	str	r3, [r6, #9]
    997c:	e5d02004 	ldrb	r2, [r0, #4]
    9980:	e5d6300e 	ldrb	r3, [r6, #14]
    9984:	e5c6200d 	strb	r2, [r6, #13]
    9988:	e5c63008 	strb	r3, [r6, #8]
    998c:	e5d03005 	ldrb	r3, [r0, #5]
    9990:	e5d6c002 	ldrb	ip, [r6, #2]
    9994:	e5c6300e 	strb	r3, [r6, #14]
    9998:	e5d63014 	ldrb	r3, [r6, #20]
    999c:	e35c0000 	cmp	ip, #0
    99a0:	e2833001 	add	r3, r3, #1
    99a4:	e5c63014 	strb	r3, [r6, #20]
    99a8:	0a00005b 	beq	9b1c <rdm_send_respond_message_ack+0x208>
    99ac:	e2465001 	sub	r5, r6, #1
    99b0:	e1a02005 	mov	r2, r5
    99b4:	e3a03000 	mov	r3, #0
    99b8:	e24c0001 	sub	r0, ip, #1
    99bc:	e6e60070 	uxtab	r0, r6, r0
    99c0:	e5f21001 	ldrb	r1, [r2, #1]!
    99c4:	e0833001 	add	r3, r3, r1
    99c8:	e1520000 	cmp	r2, r0
    99cc:	e6ff3073 	uxth	r3, r3
    99d0:	1afffffa 	bne	99c0 <rdm_send_respond_message_ack+0xac>
    99d4:	e28c2001 	add	r2, ip, #1
    99d8:	e1a0000c 	mov	r0, ip
    99dc:	e6ef2072 	uxtb	r2, r2
    99e0:	e6ef1073 	uxtb	r1, r3
    99e4:	e1a0c423 	lsr	ip, r3, #8
    99e8:	e59f3140 	ldr	r3, [pc, #320]	; 9b30 <rdm_send_respond_message_ack+0x21c>
    99ec:	e7c6c000 	strb	ip, [r6, r0]
    99f0:	e7c61002 	strb	r1, [r6, r2]
    99f4:	e5934004 	ldr	r4, [r3, #4]
    99f8:	ebfffa61 	bl	8384 <rdm_get_data_receive_end>
    99fc:	e0600004 	rsb	r0, r0, r4
    9a00:	e35000c7 	cmp	r0, #199	; 0xc7
    9a04:	9a000029 	bls	9ab0 <rdm_send_respond_message_ack+0x19c>
    9a08:	e3a00001 	mov	r0, #1
    9a0c:	e3a01000 	mov	r1, #0
    9a10:	ebfffc49 	bl	8b3c <dmx_set_port_direction>
    9a14:	e3a03069 	mov	r3, #105	; 0x69
    9a18:	e59f4114 	ldr	r4, [pc, #276]	; 9b34 <rdm_send_respond_message_ack+0x220>
    9a1c:	e5d66002 	ldrb	r6, [r6, #2]
    9a20:	e3a000b0 	mov	r0, #176	; 0xb0
    9a24:	e3a01000 	mov	r1, #0
    9a28:	e584302c 	str	r3, [r4, #44]	; 0x2c
    9a2c:	eb00437d 	bl	1a828 <udelay>
    9a30:	e3a03068 	mov	r3, #104	; 0x68
    9a34:	e3a0000c 	mov	r0, #12
    9a38:	e3a01000 	mov	r1, #0
    9a3c:	e584302c 	str	r3, [r4, #44]	; 0x2c
    9a40:	eb004378 	bl	1a828 <udelay>
    9a44:	e1a01004 	mov	r1, r4
    9a48:	e1a0c005 	mov	ip, r5
    9a4c:	e3a00000 	mov	r0, #0
    9a50:	e2866002 	add	r6, r6, #2
    9a54:	e5913018 	ldr	r3, [r1, #24]
    9a58:	e59f20d4 	ldr	r2, [pc, #212]	; 9b34 <rdm_send_respond_message_ack+0x220>
    9a5c:	e3130020 	tst	r3, #32
    9a60:	1afffffb 	bne	9a54 <rdm_send_respond_message_ack+0x140>
    9a64:	e2800001 	add	r0, r0, #1
    9a68:	e6ff0070 	uxth	r0, r0
    9a6c:	e5fc3001 	ldrb	r3, [ip, #1]!
    9a70:	e1560000 	cmp	r6, r0
    9a74:	e5823000 	str	r3, [r2]
    9a78:	8afffff5 	bhi	9a54 <rdm_send_respond_message_ack+0x140>
    9a7c:	e5923018 	ldr	r3, [r2, #24]
    9a80:	e3130020 	tst	r3, #32
    9a84:	1afffffc 	bne	9a7c <rdm_send_respond_message_ack+0x168>
    9a88:	e3a0002c 	mov	r0, #44	; 0x2c
    9a8c:	e3a01000 	mov	r1, #0
    9a90:	eb004364 	bl	1a828 <udelay>
    9a94:	e3a00004 	mov	r0, #4
    9a98:	e3a01000 	mov	r1, #0
    9a9c:	eb004361 	bl	1a828 <udelay>
    9aa0:	e8bd4370 	pop	{r4, r5, r6, r8, r9, lr}
    9aa4:	e3a00002 	mov	r0, #2
    9aa8:	e3a01001 	mov	r1, #1
    9aac:	eafffc22 	b	8b3c <dmx_set_port_direction>
    9ab0:	e3a020c8 	mov	r2, #200	; 0xc8
    9ab4:	e3a03000 	mov	r3, #0
    9ab8:	e0528000 	subs	r8, r2, r0
    9abc:	e2c39000 	sbc	r9, r3, #0
    9ac0:	e1a00008 	mov	r0, r8
    9ac4:	e1a01009 	mov	r1, r9
    9ac8:	eb004356 	bl	1a828 <udelay>
    9acc:	eaffffcd 	b	9a08 <rdm_send_respond_message_ack+0xf4>
    9ad0:	e5d63009 	ldrb	r3, [r6, #9]
    9ad4:	e5d6200a 	ldrb	r2, [r6, #10]
    9ad8:	e5c63003 	strb	r3, [r6, #3]
    9adc:	e5d03000 	ldrb	r3, [r0]
    9ae0:	e5c62004 	strb	r2, [r6, #4]
    9ae4:	e5c63009 	strb	r3, [r6, #9]
    9ae8:	e5d02001 	ldrb	r2, [r0, #1]
    9aec:	e5d6300b 	ldrb	r3, [r6, #11]
    9af0:	e5c6200a 	strb	r2, [r6, #10]
    9af4:	e5c63005 	strb	r3, [r6, #5]
    9af8:	e5d02002 	ldrb	r2, [r0, #2]
    9afc:	e5d6300c 	ldrb	r3, [r6, #12]
    9b00:	e5c6200b 	strb	r2, [r6, #11]
    9b04:	e5c63006 	strb	r3, [r6, #6]
    9b08:	e5d02003 	ldrb	r2, [r0, #3]
    9b0c:	e5d6300d 	ldrb	r3, [r6, #13]
    9b10:	e5c6200c 	strb	r2, [r6, #12]
    9b14:	e5c63007 	strb	r3, [r6, #7]
    9b18:	eaffff97 	b	997c <rdm_send_respond_message_ack+0x68>
    9b1c:	e1a0100c 	mov	r1, ip
    9b20:	e3a02001 	mov	r2, #1
    9b24:	e1a0000c 	mov	r0, ip
    9b28:	e2465001 	sub	r5, r6, #1
    9b2c:	eaffffad 	b	99e8 <rdm_send_respond_message_ack+0xd4>
    9b30:	20003000 	andcs	r3, r0, r0
    9b34:	20201000 	eorcs	r1, r0, r0

00009b38 <rdm_send_respond_message_nack>:
    9b38:	e92d4370 	push	{r4, r5, r6, r8, r9, lr}
    9b3c:	e3a03002 	mov	r3, #2
    9b40:	e1a06000 	mov	r6, r0
    9b44:	e3a0201a 	mov	r2, #26
    9b48:	e1a00421 	lsr	r0, r1, #8
    9b4c:	e5c61019 	strb	r1, [r6, #25]
    9b50:	e5c62002 	strb	r2, [r6, #2]
    9b54:	e5c63010 	strb	r3, [r6, #16]
    9b58:	e5c63017 	strb	r3, [r6, #23]
    9b5c:	e5c60018 	strb	r0, [r6, #24]
    9b60:	ebfffed5 	bl	96bc <rdm_device_info_get_uuid>
    9b64:	e2862003 	add	r2, r6, #3
    9b68:	e2863009 	add	r3, r6, #9
    9b6c:	e1823003 	orr	r3, r2, r3
    9b70:	e1803003 	orr	r3, r0, r3
    9b74:	e3130003 	tst	r3, #3
    9b78:	e280c004 	add	ip, r0, #4
    9b7c:	e286100d 	add	r1, r6, #13
    9b80:	03a03001 	moveq	r3, #1
    9b84:	13a03000 	movne	r3, #0
    9b88:	e1500001 	cmp	r0, r1
    9b8c:	3152000c 	cmpcc	r2, ip
    9b90:	23a02001 	movcs	r2, #1
    9b94:	33a02000 	movcc	r2, #0
    9b98:	e1130002 	tst	r3, r2
    9b9c:	0a00005a 	beq	9d0c <rdm_send_respond_message_nack+0x1d4>
    9ba0:	e5963009 	ldr	r3, [r6, #9]
    9ba4:	e5d6200d 	ldrb	r2, [r6, #13]
    9ba8:	e5863003 	str	r3, [r6, #3]
    9bac:	e5903000 	ldr	r3, [r0]
    9bb0:	e5c62007 	strb	r2, [r6, #7]
    9bb4:	e5863009 	str	r3, [r6, #9]
    9bb8:	e5d02004 	ldrb	r2, [r0, #4]
    9bbc:	e5d6300e 	ldrb	r3, [r6, #14]
    9bc0:	e5c6200d 	strb	r2, [r6, #13]
    9bc4:	e5c63008 	strb	r3, [r6, #8]
    9bc8:	e5d03005 	ldrb	r3, [r0, #5]
    9bcc:	e5d6c002 	ldrb	ip, [r6, #2]
    9bd0:	e5c6300e 	strb	r3, [r6, #14]
    9bd4:	e5d63014 	ldrb	r3, [r6, #20]
    9bd8:	e35c0000 	cmp	ip, #0
    9bdc:	e2833001 	add	r3, r3, #1
    9be0:	e5c63014 	strb	r3, [r6, #20]
    9be4:	0a00005b 	beq	9d58 <rdm_send_respond_message_nack+0x220>
    9be8:	e2465001 	sub	r5, r6, #1
    9bec:	e1a02005 	mov	r2, r5
    9bf0:	e3a03000 	mov	r3, #0
    9bf4:	e24c0001 	sub	r0, ip, #1
    9bf8:	e6e60070 	uxtab	r0, r6, r0
    9bfc:	e5f21001 	ldrb	r1, [r2, #1]!
    9c00:	e0833001 	add	r3, r3, r1
    9c04:	e1520000 	cmp	r2, r0
    9c08:	e6ff3073 	uxth	r3, r3
    9c0c:	1afffffa 	bne	9bfc <rdm_send_respond_message_nack+0xc4>
    9c10:	e28c2001 	add	r2, ip, #1
    9c14:	e1a0000c 	mov	r0, ip
    9c18:	e6ef2072 	uxtb	r2, r2
    9c1c:	e6ef1073 	uxtb	r1, r3
    9c20:	e1a0c423 	lsr	ip, r3, #8
    9c24:	e59f3140 	ldr	r3, [pc, #320]	; 9d6c <rdm_send_respond_message_nack+0x234>
    9c28:	e7c6c000 	strb	ip, [r6, r0]
    9c2c:	e7c61002 	strb	r1, [r6, r2]
    9c30:	e5934004 	ldr	r4, [r3, #4]
    9c34:	ebfff9d2 	bl	8384 <rdm_get_data_receive_end>
    9c38:	e0600004 	rsb	r0, r0, r4
    9c3c:	e35000c7 	cmp	r0, #199	; 0xc7
    9c40:	9a000029 	bls	9cec <rdm_send_respond_message_nack+0x1b4>
    9c44:	e3a00001 	mov	r0, #1
    9c48:	e3a01000 	mov	r1, #0
    9c4c:	ebfffbba 	bl	8b3c <dmx_set_port_direction>
    9c50:	e3a03069 	mov	r3, #105	; 0x69
    9c54:	e59f4114 	ldr	r4, [pc, #276]	; 9d70 <rdm_send_respond_message_nack+0x238>
    9c58:	e5d66002 	ldrb	r6, [r6, #2]
    9c5c:	e3a000b0 	mov	r0, #176	; 0xb0
    9c60:	e3a01000 	mov	r1, #0
    9c64:	e584302c 	str	r3, [r4, #44]	; 0x2c
    9c68:	eb0042ee 	bl	1a828 <udelay>
    9c6c:	e3a03068 	mov	r3, #104	; 0x68
    9c70:	e3a0000c 	mov	r0, #12
    9c74:	e3a01000 	mov	r1, #0
    9c78:	e584302c 	str	r3, [r4, #44]	; 0x2c
    9c7c:	eb0042e9 	bl	1a828 <udelay>
    9c80:	e1a01004 	mov	r1, r4
    9c84:	e1a0c005 	mov	ip, r5
    9c88:	e3a00000 	mov	r0, #0
    9c8c:	e2866002 	add	r6, r6, #2
    9c90:	e5913018 	ldr	r3, [r1, #24]
    9c94:	e59f20d4 	ldr	r2, [pc, #212]	; 9d70 <rdm_send_respond_message_nack+0x238>
    9c98:	e3130020 	tst	r3, #32
    9c9c:	1afffffb 	bne	9c90 <rdm_send_respond_message_nack+0x158>
    9ca0:	e2800001 	add	r0, r0, #1
    9ca4:	e6ff0070 	uxth	r0, r0
    9ca8:	e5fc3001 	ldrb	r3, [ip, #1]!
    9cac:	e1560000 	cmp	r6, r0
    9cb0:	e5823000 	str	r3, [r2]
    9cb4:	8afffff5 	bhi	9c90 <rdm_send_respond_message_nack+0x158>
    9cb8:	e5923018 	ldr	r3, [r2, #24]
    9cbc:	e3130020 	tst	r3, #32
    9cc0:	1afffffc 	bne	9cb8 <rdm_send_respond_message_nack+0x180>
    9cc4:	e3a0002c 	mov	r0, #44	; 0x2c
    9cc8:	e3a01000 	mov	r1, #0
    9ccc:	eb0042d5 	bl	1a828 <udelay>
    9cd0:	e3a00004 	mov	r0, #4
    9cd4:	e3a01000 	mov	r1, #0
    9cd8:	eb0042d2 	bl	1a828 <udelay>
    9cdc:	e8bd4370 	pop	{r4, r5, r6, r8, r9, lr}
    9ce0:	e3a00002 	mov	r0, #2
    9ce4:	e3a01001 	mov	r1, #1
    9ce8:	eafffb93 	b	8b3c <dmx_set_port_direction>
    9cec:	e3a020c8 	mov	r2, #200	; 0xc8
    9cf0:	e3a03000 	mov	r3, #0
    9cf4:	e0528000 	subs	r8, r2, r0
    9cf8:	e2c39000 	sbc	r9, r3, #0
    9cfc:	e1a00008 	mov	r0, r8
    9d00:	e1a01009 	mov	r1, r9
    9d04:	eb0042c7 	bl	1a828 <udelay>
    9d08:	eaffffcd 	b	9c44 <rdm_send_respond_message_nack+0x10c>
    9d0c:	e5d63009 	ldrb	r3, [r6, #9]
    9d10:	e5d6200a 	ldrb	r2, [r6, #10]
    9d14:	e5c63003 	strb	r3, [r6, #3]
    9d18:	e5d03000 	ldrb	r3, [r0]
    9d1c:	e5c62004 	strb	r2, [r6, #4]
    9d20:	e5c63009 	strb	r3, [r6, #9]
    9d24:	e5d02001 	ldrb	r2, [r0, #1]
    9d28:	e5d6300b 	ldrb	r3, [r6, #11]
    9d2c:	e5c6200a 	strb	r2, [r6, #10]
    9d30:	e5c63005 	strb	r3, [r6, #5]
    9d34:	e5d02002 	ldrb	r2, [r0, #2]
    9d38:	e5d6300c 	ldrb	r3, [r6, #12]
    9d3c:	e5c6200b 	strb	r2, [r6, #11]
    9d40:	e5c63006 	strb	r3, [r6, #6]
    9d44:	e5d02003 	ldrb	r2, [r0, #3]
    9d48:	e5d6300d 	ldrb	r3, [r6, #13]
    9d4c:	e5c6200c 	strb	r2, [r6, #12]
    9d50:	e5c63007 	strb	r3, [r6, #7]
    9d54:	eaffff97 	b	9bb8 <rdm_send_respond_message_nack+0x80>
    9d58:	e1a0100c 	mov	r1, ip
    9d5c:	e3a02001 	mov	r2, #1
    9d60:	e1a0000c 	mov	r0, ip
    9d64:	e2465001 	sub	r5, r6, #1
    9d68:	eaffffad 	b	9c24 <rdm_send_respond_message_nack+0xec>
    9d6c:	20003000 	andcs	r3, r0, r0
    9d70:	20201000 	eorcs	r1, r0, r0

00009d74 <rdm_send_respond_message_ack_timer>:
    9d74:	e92d4370 	push	{r4, r5, r6, r8, r9, lr}
    9d78:	e3a02001 	mov	r2, #1
    9d7c:	e1a06000 	mov	r6, r0
    9d80:	e3a03002 	mov	r3, #2
    9d84:	e3a0001a 	mov	r0, #26
    9d88:	e1a0c421 	lsr	ip, r1, #8
    9d8c:	e5c61019 	strb	r1, [r6, #25]
    9d90:	e5c6c018 	strb	ip, [r6, #24]
    9d94:	e5c62010 	strb	r2, [r6, #16]
    9d98:	e5c63017 	strb	r3, [r6, #23]
    9d9c:	e5c60002 	strb	r0, [r6, #2]
    9da0:	ebfffe45 	bl	96bc <rdm_device_info_get_uuid>
    9da4:	e2862003 	add	r2, r6, #3
    9da8:	e2863009 	add	r3, r6, #9
    9dac:	e1823003 	orr	r3, r2, r3
    9db0:	e1803003 	orr	r3, r0, r3
    9db4:	e3130003 	tst	r3, #3
    9db8:	e280c004 	add	ip, r0, #4
    9dbc:	e286100d 	add	r1, r6, #13
    9dc0:	03a03001 	moveq	r3, #1
    9dc4:	13a03000 	movne	r3, #0
    9dc8:	e1500001 	cmp	r0, r1
    9dcc:	3152000c 	cmpcc	r2, ip
    9dd0:	23a02001 	movcs	r2, #1
    9dd4:	33a02000 	movcc	r2, #0
    9dd8:	e1130002 	tst	r3, r2
    9ddc:	0a00005a 	beq	9f4c <rdm_send_respond_message_ack_timer+0x1d8>
    9de0:	e5963009 	ldr	r3, [r6, #9]
    9de4:	e5d6200d 	ldrb	r2, [r6, #13]
    9de8:	e5863003 	str	r3, [r6, #3]
    9dec:	e5903000 	ldr	r3, [r0]
    9df0:	e5c62007 	strb	r2, [r6, #7]
    9df4:	e5863009 	str	r3, [r6, #9]
    9df8:	e5d02004 	ldrb	r2, [r0, #4]
    9dfc:	e5d6300e 	ldrb	r3, [r6, #14]
    9e00:	e5c6200d 	strb	r2, [r6, #13]
    9e04:	e5c63008 	strb	r3, [r6, #8]
    9e08:	e5d03005 	ldrb	r3, [r0, #5]
    9e0c:	e5d6c002 	ldrb	ip, [r6, #2]
    9e10:	e5c6300e 	strb	r3, [r6, #14]
    9e14:	e5d63014 	ldrb	r3, [r6, #20]
    9e18:	e35c0000 	cmp	ip, #0
    9e1c:	e2833001 	add	r3, r3, #1
    9e20:	e5c63014 	strb	r3, [r6, #20]
    9e24:	0a00005b 	beq	9f98 <rdm_send_respond_message_ack_timer+0x224>
    9e28:	e2465001 	sub	r5, r6, #1
    9e2c:	e1a02005 	mov	r2, r5
    9e30:	e3a03000 	mov	r3, #0
    9e34:	e24c0001 	sub	r0, ip, #1
    9e38:	e6e60070 	uxtab	r0, r6, r0
    9e3c:	e5f21001 	ldrb	r1, [r2, #1]!
    9e40:	e0833001 	add	r3, r3, r1
    9e44:	e1520000 	cmp	r2, r0
    9e48:	e6ff3073 	uxth	r3, r3
    9e4c:	1afffffa 	bne	9e3c <rdm_send_respond_message_ack_timer+0xc8>
    9e50:	e28c2001 	add	r2, ip, #1
    9e54:	e1a0000c 	mov	r0, ip
    9e58:	e6ef2072 	uxtb	r2, r2
    9e5c:	e6ef1073 	uxtb	r1, r3
    9e60:	e1a0c423 	lsr	ip, r3, #8
    9e64:	e59f3140 	ldr	r3, [pc, #320]	; 9fac <rdm_send_respond_message_ack_timer+0x238>
    9e68:	e7c6c000 	strb	ip, [r6, r0]
    9e6c:	e7c61002 	strb	r1, [r6, r2]
    9e70:	e5934004 	ldr	r4, [r3, #4]
    9e74:	ebfff942 	bl	8384 <rdm_get_data_receive_end>
    9e78:	e0600004 	rsb	r0, r0, r4
    9e7c:	e35000c7 	cmp	r0, #199	; 0xc7
    9e80:	9a000029 	bls	9f2c <rdm_send_respond_message_ack_timer+0x1b8>
    9e84:	e3a00001 	mov	r0, #1
    9e88:	e3a01000 	mov	r1, #0
    9e8c:	ebfffb2a 	bl	8b3c <dmx_set_port_direction>
    9e90:	e3a03069 	mov	r3, #105	; 0x69
    9e94:	e59f4114 	ldr	r4, [pc, #276]	; 9fb0 <rdm_send_respond_message_ack_timer+0x23c>
    9e98:	e5d66002 	ldrb	r6, [r6, #2]
    9e9c:	e3a000b0 	mov	r0, #176	; 0xb0
    9ea0:	e3a01000 	mov	r1, #0
    9ea4:	e584302c 	str	r3, [r4, #44]	; 0x2c
    9ea8:	eb00425e 	bl	1a828 <udelay>
    9eac:	e3a03068 	mov	r3, #104	; 0x68
    9eb0:	e3a0000c 	mov	r0, #12
    9eb4:	e3a01000 	mov	r1, #0
    9eb8:	e584302c 	str	r3, [r4, #44]	; 0x2c
    9ebc:	eb004259 	bl	1a828 <udelay>
    9ec0:	e1a01004 	mov	r1, r4
    9ec4:	e1a0c005 	mov	ip, r5
    9ec8:	e3a00000 	mov	r0, #0
    9ecc:	e2866002 	add	r6, r6, #2
    9ed0:	e5913018 	ldr	r3, [r1, #24]
    9ed4:	e59f20d4 	ldr	r2, [pc, #212]	; 9fb0 <rdm_send_respond_message_ack_timer+0x23c>
    9ed8:	e3130020 	tst	r3, #32
    9edc:	1afffffb 	bne	9ed0 <rdm_send_respond_message_ack_timer+0x15c>
    9ee0:	e2800001 	add	r0, r0, #1
    9ee4:	e6ff0070 	uxth	r0, r0
    9ee8:	e5fc3001 	ldrb	r3, [ip, #1]!
    9eec:	e1560000 	cmp	r6, r0
    9ef0:	e5823000 	str	r3, [r2]
    9ef4:	8afffff5 	bhi	9ed0 <rdm_send_respond_message_ack_timer+0x15c>
    9ef8:	e5923018 	ldr	r3, [r2, #24]
    9efc:	e3130020 	tst	r3, #32
    9f00:	1afffffc 	bne	9ef8 <rdm_send_respond_message_ack_timer+0x184>
    9f04:	e3a0002c 	mov	r0, #44	; 0x2c
    9f08:	e3a01000 	mov	r1, #0
    9f0c:	eb004245 	bl	1a828 <udelay>
    9f10:	e3a00004 	mov	r0, #4
    9f14:	e3a01000 	mov	r1, #0
    9f18:	eb004242 	bl	1a828 <udelay>
    9f1c:	e8bd4370 	pop	{r4, r5, r6, r8, r9, lr}
    9f20:	e3a00002 	mov	r0, #2
    9f24:	e3a01001 	mov	r1, #1
    9f28:	eafffb03 	b	8b3c <dmx_set_port_direction>
    9f2c:	e3a020c8 	mov	r2, #200	; 0xc8
    9f30:	e3a03000 	mov	r3, #0
    9f34:	e0528000 	subs	r8, r2, r0
    9f38:	e2c39000 	sbc	r9, r3, #0
    9f3c:	e1a00008 	mov	r0, r8
    9f40:	e1a01009 	mov	r1, r9
    9f44:	eb004237 	bl	1a828 <udelay>
    9f48:	eaffffcd 	b	9e84 <rdm_send_respond_message_ack_timer+0x110>
    9f4c:	e5d63009 	ldrb	r3, [r6, #9]
    9f50:	e5d6200a 	ldrb	r2, [r6, #10]
    9f54:	e5c63003 	strb	r3, [r6, #3]
    9f58:	e5d03000 	ldrb	r3, [r0]
    9f5c:	e5c62004 	strb	r2, [r6, #4]
    9f60:	e5c63009 	strb	r3, [r6, #9]
    9f64:	e5d02001 	ldrb	r2, [r0, #1]
    9f68:	e5d6300b 	ldrb	r3, [r6, #11]
    9f6c:	e5c6200a 	strb	r2, [r6, #10]
    9f70:	e5c63005 	strb	r3, [r6, #5]
    9f74:	e5d02002 	ldrb	r2, [r0, #2]
    9f78:	e5d6300c 	ldrb	r3, [r6, #12]
    9f7c:	e5c6200b 	strb	r2, [r6, #11]
    9f80:	e5c63006 	strb	r3, [r6, #6]
    9f84:	e5d02003 	ldrb	r2, [r0, #3]
    9f88:	e5d6300d 	ldrb	r3, [r6, #13]
    9f8c:	e5c6200c 	strb	r2, [r6, #12]
    9f90:	e5c63007 	strb	r3, [r6, #7]
    9f94:	eaffff97 	b	9df8 <rdm_send_respond_message_ack_timer+0x84>
    9f98:	e1a0100c 	mov	r1, ip
    9f9c:	e3a02001 	mov	r2, #1
    9fa0:	e1a0000c 	mov	r0, ip
    9fa4:	e2465001 	sub	r5, r6, #1
    9fa8:	eaffffad 	b	9e64 <rdm_send_respond_message_ack_timer+0xf0>
    9fac:	20003000 	andcs	r3, r0, r0
    9fb0:	20201000 	eorcs	r1, r0, r0

00009fb4 <rdm_send_increment_message_count>:
    9fb4:	e59f2010 	ldr	r2, [pc, #16]	; 9fcc <rdm_send_increment_message_count+0x18>
    9fb8:	e5d23000 	ldrb	r3, [r2]
    9fbc:	e35300ff 	cmp	r3, #255	; 0xff
    9fc0:	12833001 	addne	r3, r3, #1
    9fc4:	15c23000 	strbne	r3, [r2]
    9fc8:	e12fff1e 	bx	lr
    9fcc:	00021904 	andeq	r1, r2, r4, lsl #18

00009fd0 <rdm_send_decrement_message_count>:
    9fd0:	e59f2010 	ldr	r2, [pc, #16]	; 9fe8 <rdm_send_decrement_message_count+0x18>
    9fd4:	e5d23000 	ldrb	r3, [r2]
    9fd8:	e3530000 	cmp	r3, #0
    9fdc:	12433001 	subne	r3, r3, #1
    9fe0:	15c23000 	strbne	r3, [r2]
    9fe4:	e12fff1e 	bx	lr
    9fe8:	00021904 	andeq	r1, r2, r4, lsl #18

00009fec <sscan_uint8_t>:
    9fec:	e92d4010 	push	{r4, lr}
    9ff0:	e5d1c000 	ldrb	ip, [r1]
    9ff4:	e35c0000 	cmp	ip, #0
    9ff8:	0a00003a 	beq	a0e8 <sscan_uint8_t+0xfc>
    9ffc:	e5d03000 	ldrb	r3, [r0]
    a000:	e05cc003 	subs	ip, ip, r3
    a004:	13a0c001 	movne	ip, #1
    a008:	e353003d 	cmp	r3, #61	; 0x3d
    a00c:	13530000 	cmpne	r3, #0
    a010:	13a03001 	movne	r3, #1
    a014:	03a03000 	moveq	r3, #0
    a018:	e15c0003 	cmp	ip, r3
    a01c:	2a00002f 	bcs	a0e0 <sscan_uint8_t+0xf4>
    a020:	e1a04000 	mov	r4, r0
    a024:	e3a0e000 	mov	lr, #0
    a028:	ea000008 	b	a050 <sscan_uint8_t+0x64>
    a02c:	e5f43001 	ldrb	r3, [r4, #1]!
    a030:	e05cc003 	subs	ip, ip, r3
    a034:	13a0c001 	movne	ip, #1
    a038:	e353003d 	cmp	r3, #61	; 0x3d
    a03c:	13530000 	cmpne	r3, #0
    a040:	13a03001 	movne	r3, #1
    a044:	03a03000 	moveq	r3, #0
    a048:	e15c0003 	cmp	ip, r3
    a04c:	2a000023 	bcs	a0e0 <sscan_uint8_t+0xf4>
    a050:	e5f1c001 	ldrb	ip, [r1, #1]!
    a054:	e28ee001 	add	lr, lr, #1
    a058:	e35c0000 	cmp	ip, #0
    a05c:	1afffff2 	bne	a02c <sscan_uint8_t+0x40>
    a060:	e28ee001 	add	lr, lr, #1
    a064:	e1a0300e 	mov	r3, lr
    a068:	e7d01003 	ldrb	r1, [r0, r3]
    a06c:	e351000a 	cmp	r1, #10
    a070:	13510000 	cmpne	r1, #0
    a074:	13a03001 	movne	r3, #1
    a078:	03a03000 	moveq	r3, #0
    a07c:	0a000012 	beq	a0cc <sscan_uint8_t+0xe0>
    a080:	e2413030 	sub	r3, r1, #48	; 0x30
    a084:	e3530009 	cmp	r3, #9
    a088:	8a000012 	bhi	a0d8 <sscan_uint8_t+0xec>
    a08c:	e080e00e 	add	lr, r0, lr
    a090:	e3a03000 	mov	r3, #0
    a094:	ea000001 	b	a0a0 <sscan_uint8_t+0xb4>
    a098:	e3500009 	cmp	r0, #9
    a09c:	8a00000d 	bhi	a0d8 <sscan_uint8_t+0xec>
    a0a0:	e0833103 	add	r3, r3, r3, lsl #2
    a0a4:	e0813083 	add	r3, r1, r3, lsl #1
    a0a8:	e5fe1001 	ldrb	r1, [lr, #1]!
    a0ac:	e2433030 	sub	r3, r3, #48	; 0x30
    a0b0:	e351000a 	cmp	r1, #10
    a0b4:	13510000 	cmpne	r1, #0
    a0b8:	e2410030 	sub	r0, r1, #48	; 0x30
    a0bc:	1afffff5 	bne	a098 <sscan_uint8_t+0xac>
    a0c0:	e35300ff 	cmp	r3, #255	; 0xff
    a0c4:	ca000003 	bgt	a0d8 <sscan_uint8_t+0xec>
    a0c8:	e6ef3073 	uxtb	r3, r3
    a0cc:	e5c23000 	strb	r3, [r2]
    a0d0:	e3a00002 	mov	r0, #2
    a0d4:	e8bd8010 	pop	{r4, pc}
    a0d8:	e3a00001 	mov	r0, #1
    a0dc:	e8bd8010 	pop	{r4, pc}
    a0e0:	e3a00000 	mov	r0, #0
    a0e4:	e8bd8010 	pop	{r4, pc}
    a0e8:	e3a03001 	mov	r3, #1
    a0ec:	e1a0e003 	mov	lr, r3
    a0f0:	eaffffdc 	b	a068 <sscan_uint8_t+0x7c>

0000a0f4 <sscan_char_p>:
    a0f4:	e92d4030 	push	{r4, r5, lr}
    a0f8:	e5d1e000 	ldrb	lr, [r1]
    a0fc:	e35e0000 	cmp	lr, #0
    a100:	0a000037 	beq	a1e4 <sscan_char_p+0xf0>
    a104:	e5d0c000 	ldrb	ip, [r0]
    a108:	e05ee00c 	subs	lr, lr, ip
    a10c:	13a0e001 	movne	lr, #1
    a110:	e35c003d 	cmp	ip, #61	; 0x3d
    a114:	135c0000 	cmpne	ip, #0
    a118:	13a0c001 	movne	ip, #1
    a11c:	03a0c000 	moveq	ip, #0
    a120:	e15e000c 	cmp	lr, ip
    a124:	2a00002a 	bcs	a1d4 <sscan_char_p+0xe0>
    a128:	e1a05000 	mov	r5, r0
    a12c:	e3a04000 	mov	r4, #0
    a130:	ea000008 	b	a158 <sscan_char_p+0x64>
    a134:	e5f5c001 	ldrb	ip, [r5, #1]!
    a138:	e05ee00c 	subs	lr, lr, ip
    a13c:	13a0e001 	movne	lr, #1
    a140:	e35c003d 	cmp	ip, #61	; 0x3d
    a144:	135c0000 	cmpne	ip, #0
    a148:	13a0c001 	movne	ip, #1
    a14c:	03a0c000 	moveq	ip, #0
    a150:	e15e000c 	cmp	lr, ip
    a154:	2a00001e 	bcs	a1d4 <sscan_char_p+0xe0>
    a158:	e5f1e001 	ldrb	lr, [r1, #1]!
    a15c:	e2844001 	add	r4, r4, #1
    a160:	e35e0000 	cmp	lr, #0
    a164:	1afffff2 	bne	a134 <sscan_char_p+0x40>
    a168:	e2844001 	add	r4, r4, #1
    a16c:	e1a01004 	mov	r1, r4
    a170:	e7d01001 	ldrb	r1, [r0, r1]
    a174:	e3510000 	cmp	r1, #0
    a178:	1351000a 	cmpne	r1, #10
    a17c:	03a0c001 	moveq	ip, #1
    a180:	13a0c000 	movne	ip, #0
    a184:	0a000014 	beq	a1dc <sscan_char_p+0xe8>
    a188:	e5d3e000 	ldrb	lr, [r3]
    a18c:	e35e0000 	cmp	lr, #0
    a190:	0a00000c 	beq	a1c8 <sscan_char_p+0xd4>
    a194:	e2422001 	sub	r2, r2, #1
    a198:	e0800004 	add	r0, r0, r4
    a19c:	ea000002 	b	a1ac <sscan_char_p+0xb8>
    a1a0:	e5d3e000 	ldrb	lr, [r3]
    a1a4:	e15e000c 	cmp	lr, ip
    a1a8:	da000005 	ble	a1c4 <sscan_char_p+0xd0>
    a1ac:	e5e21001 	strb	r1, [r2, #1]!
    a1b0:	e5f01001 	ldrb	r1, [r0, #1]!
    a1b4:	e28cc001 	add	ip, ip, #1
    a1b8:	e351000a 	cmp	r1, #10
    a1bc:	13510000 	cmpne	r1, #0
    a1c0:	1afffff6 	bne	a1a0 <sscan_char_p+0xac>
    a1c4:	e6efe07c 	uxtb	lr, ip
    a1c8:	e5c3e000 	strb	lr, [r3]
    a1cc:	e3a00002 	mov	r0, #2
    a1d0:	e8bd8030 	pop	{r4, r5, pc}
    a1d4:	e3a00000 	mov	r0, #0
    a1d8:	e8bd8030 	pop	{r4, r5, pc}
    a1dc:	e3a00001 	mov	r0, #1
    a1e0:	e8bd8030 	pop	{r4, r5, pc}
    a1e4:	e3a01001 	mov	r1, #1
    a1e8:	e1a04001 	mov	r4, r1
    a1ec:	eaffffdf 	b	a170 <sscan_char_p+0x7c>

0000a1f0 <sscan_spi>:
    a1f0:	e92d41f0 	push	{r4, r5, r6, r7, r8, lr}
    a1f4:	e5d0c000 	ldrb	ip, [r0]
    a1f8:	e59f4360 	ldr	r4, [pc, #864]	; a560 <sscan_spi+0x370>
    a1fc:	e35c002c 	cmp	ip, #44	; 0x2c
    a200:	135c0000 	cmpne	ip, #0
    a204:	e24dd008 	sub	sp, sp, #8
    a208:	13a0e001 	movne	lr, #1
    a20c:	03a0e000 	moveq	lr, #0
    a210:	e58d4004 	str	r4, [sp, #4]
    a214:	0a00000e 	beq	a254 <sscan_spi+0x64>
    a218:	e1a04000 	mov	r4, r0
    a21c:	e3a0e000 	mov	lr, #0
    a220:	e35e0002 	cmp	lr, #2
    a224:	ca000003 	bgt	a238 <sscan_spi+0x48>
    a228:	e28d5004 	add	r5, sp, #4
    a22c:	e7d5500e 	ldrb	r5, [r5, lr]
    a230:	e155000c 	cmp	r5, ip
    a234:	1a00004d 	bne	a370 <sscan_spi+0x180>
    a238:	e5f4c001 	ldrb	ip, [r4, #1]!
    a23c:	e28ee001 	add	lr, lr, #1
    a240:	e35c002c 	cmp	ip, #44	; 0x2c
    a244:	135c0000 	cmpne	ip, #0
    a248:	1afffff4 	bne	a220 <sscan_spi+0x30>
    a24c:	e35e0004 	cmp	lr, #4
    a250:	ca000046 	bgt	a370 <sscan_spi+0x180>
    a254:	e5d0c003 	ldrb	ip, [r0, #3]
    a258:	e24cc030 	sub	ip, ip, #48	; 0x30
    a25c:	e6efc07c 	uxtb	ip, ip
    a260:	e35c0009 	cmp	ip, #9
    a264:	8a00003e 	bhi	a364 <sscan_spi+0x174>
    a268:	e5c1c000 	strb	ip, [r1]
    a26c:	e28ec001 	add	ip, lr, #1
    a270:	e7d0100c 	ldrb	r1, [r0, ip]
    a274:	e080400c 	add	r4, r0, ip
    a278:	e3510000 	cmp	r1, #0
    a27c:	0a0000a8 	beq	a524 <sscan_spi+0x334>
    a280:	e5d35000 	ldrb	r5, [r3]
    a284:	e351002c 	cmp	r1, #44	; 0x2c
    a288:	13550000 	cmpne	r5, #0
    a28c:	13a05001 	movne	r5, #1
    a290:	03a05000 	moveq	r5, #0
    a294:	0a0000a1 	beq	a520 <sscan_spi+0x330>
    a298:	e28e5002 	add	r5, lr, #2
    a29c:	e0805005 	add	r5, r0, r5
    a2a0:	e2427001 	sub	r7, r2, #1
    a2a4:	ea000003 	b	a2b8 <sscan_spi+0xc8>
    a2a8:	e5d38000 	ldrb	r8, [r3]
    a2ac:	e351002c 	cmp	r1, #44	; 0x2c
    a2b0:	11580006 	cmpne	r8, r6
    a2b4:	da000007 	ble	a2d8 <sscan_spi+0xe8>
    a2b8:	e5e71001 	strb	r1, [r7, #1]!
    a2bc:	e5d51000 	ldrb	r1, [r5]
    a2c0:	e1a04005 	mov	r4, r5
    a2c4:	e3510000 	cmp	r1, #0
    a2c8:	e06e600c 	rsb	r6, lr, ip
    a2cc:	e2855001 	add	r5, r5, #1
    a2d0:	e28cc001 	add	ip, ip, #1
    a2d4:	1afffff3 	bne	a2a8 <sscan_spi+0xb8>
    a2d8:	e6ef1076 	uxtb	r1, r6
    a2dc:	e3a0e000 	mov	lr, #0
    a2e0:	e7c2e006 	strb	lr, [r2, r6]
    a2e4:	e5c31000 	strb	r1, [r3]
    a2e8:	e5d43000 	ldrb	r3, [r4]
    a2ec:	e353002c 	cmp	r3, #44	; 0x2c
    a2f0:	1a000018 	bne	a358 <sscan_spi+0x168>
    a2f4:	e080300c 	add	r3, r0, ip
    a2f8:	e5d32001 	ldrb	r2, [r3, #1]
    a2fc:	e352002c 	cmp	r2, #44	; 0x2c
    a300:	13520000 	cmpne	r2, #0
    a304:	0a000013 	beq	a358 <sscan_spi+0x168>
    a308:	e2423030 	sub	r3, r2, #48	; 0x30
    a30c:	e3530009 	cmp	r3, #9
    a310:	9a000003 	bls	a324 <sscan_spi+0x134>
    a314:	e3c23020 	bic	r3, r2, #32
    a318:	e2433041 	sub	r3, r3, #65	; 0x41
    a31c:	e3530005 	cmp	r3, #5
    a320:	8a00000c 	bhi	a358 <sscan_spi+0x168>
    a324:	e28c3002 	add	r3, ip, #2
    a328:	e7d01003 	ldrb	r1, [r0, r3]
    a32c:	e5cd2000 	strb	r2, [sp]
    a330:	e351002c 	cmp	r1, #44	; 0x2c
    a334:	13510000 	cmpne	r1, #0
    a338:	0a00007b 	beq	a52c <sscan_spi+0x33c>
    a33c:	e2413030 	sub	r3, r1, #48	; 0x30
    a340:	e3530009 	cmp	r3, #9
    a344:	9a00000c 	bls	a37c <sscan_spi+0x18c>
    a348:	e3c13020 	bic	r3, r1, #32
    a34c:	e2433041 	sub	r3, r3, #65	; 0x41
    a350:	e3530005 	cmp	r3, #5
    a354:	9a000008 	bls	a37c <sscan_spi+0x18c>
    a358:	e3e00003 	mvn	r0, #3
    a35c:	e28dd008 	add	sp, sp, #8
    a360:	e8bd81f0 	pop	{r4, r5, r6, r7, r8, pc}
    a364:	e5d04004 	ldrb	r4, [r0, #4]
    a368:	e354002c 	cmp	r4, #44	; 0x2c
    a36c:	0affffbd 	beq	a268 <sscan_spi+0x78>
    a370:	e3e00001 	mvn	r0, #1
    a374:	e28dd008 	add	sp, sp, #8
    a378:	e8bd81f0 	pop	{r4, r5, r6, r7, r8, pc}
    a37c:	e28c3003 	add	r3, ip, #3
    a380:	e7d02003 	ldrb	r2, [r0, r3]
    a384:	e5cd1001 	strb	r1, [sp, #1]
    a388:	e352002c 	cmp	r2, #44	; 0x2c
    a38c:	13520000 	cmpne	r2, #0
    a390:	1afffff0 	bne	a358 <sscan_spi+0x168>
    a394:	e352002c 	cmp	r2, #44	; 0x2c
    a398:	1affffee 	bne	a358 <sscan_spi+0x168>
    a39c:	e5dd2001 	ldrb	r2, [sp, #1]
    a3a0:	e5dd1000 	ldrb	r1, [sp]
    a3a4:	e3520039 	cmp	r2, #57	; 0x39
    a3a8:	83822020 	orrhi	r2, r2, #32
    a3ac:	82422057 	subhi	r2, r2, #87	; 0x57
    a3b0:	92422030 	subls	r2, r2, #48	; 0x30
    a3b4:	e3510039 	cmp	r1, #57	; 0x39
    a3b8:	83811020 	orrhi	r1, r1, #32
    a3bc:	82411057 	subhi	r1, r1, #87	; 0x57
    a3c0:	81a01201 	lslhi	r1, r1, #4
    a3c4:	91a01201 	lslls	r1, r1, #4
    a3c8:	86ef1071 	uxtbhi	r1, r1
    a3cc:	920110f0 	andls	r1, r1, #240	; 0xf0
    a3d0:	e6ef2072 	uxtb	r2, r2
    a3d4:	e1812002 	orr	r2, r1, r2
    a3d8:	e59d1020 	ldr	r1, [sp, #32]
    a3dc:	e5c12000 	strb	r2, [r1]
    a3e0:	e0800003 	add	r0, r0, r3
    a3e4:	e5d03001 	ldrb	r3, [r0, #1]
    a3e8:	e2932000 	adds	r2, r3, #0
    a3ec:	e2431030 	sub	r1, r3, #48	; 0x30
    a3f0:	13a02001 	movne	r2, #1
    a3f4:	e3510009 	cmp	r1, #9
    a3f8:	83a02000 	movhi	r2, #0
    a3fc:	e3520000 	cmp	r2, #0
    a400:	0a00002e 	beq	a4c0 <sscan_spi+0x2d0>
    a404:	e5d02002 	ldrb	r2, [r0, #2]
    a408:	e5cd3000 	strb	r3, [sp]
    a40c:	e352000a 	cmp	r2, #10
    a410:	13520000 	cmpne	r2, #0
    a414:	0a00004f 	beq	a558 <sscan_spi+0x368>
    a418:	e3520020 	cmp	r2, #32
    a41c:	0a00004d 	beq	a558 <sscan_spi+0x368>
    a420:	e5d03003 	ldrb	r3, [r0, #3]
    a424:	e5cd2001 	strb	r2, [sp, #1]
    a428:	e353000a 	cmp	r3, #10
    a42c:	13530000 	cmpne	r3, #0
    a430:	0a000025 	beq	a4cc <sscan_spi+0x2dc>
    a434:	e3530020 	cmp	r3, #32
    a438:	0a000023 	beq	a4cc <sscan_spi+0x2dc>
    a43c:	e5d02004 	ldrb	r2, [r0, #4]
    a440:	e5cd3002 	strb	r3, [sp, #2]
    a444:	e352000a 	cmp	r2, #10
    a448:	13520000 	cmpne	r2, #0
    a44c:	03a02003 	moveq	r2, #3
    a450:	0a00001e 	beq	a4d0 <sscan_spi+0x2e0>
    a454:	e5dd2000 	ldrb	r2, [sp]
    a458:	e2422030 	sub	r2, r2, #48	; 0x30
    a45c:	e6ef3072 	uxtb	r3, r2
    a460:	e3530009 	cmp	r3, #9
    a464:	8a000015 	bhi	a4c0 <sscan_spi+0x2d0>
    a468:	e5dd3001 	ldrb	r3, [sp, #1]
    a46c:	e6ff2072 	uxth	r2, r2
    a470:	e2431030 	sub	r1, r3, #48	; 0x30
    a474:	e3510009 	cmp	r1, #9
    a478:	90822102 	addls	r2, r2, r2, lsl #2
    a47c:	90833082 	addls	r3, r3, r2, lsl #1
    a480:	92433030 	subls	r3, r3, #48	; 0x30
    a484:	96ff3073 	uxthls	r3, r3
    a488:	8a00000c 	bhi	a4c0 <sscan_spi+0x2d0>
    a48c:	e5dd2002 	ldrb	r2, [sp, #2]
    a490:	e2421030 	sub	r1, r2, #48	; 0x30
    a494:	e3510009 	cmp	r1, #9
    a498:	90833103 	addls	r3, r3, r3, lsl #2
    a49c:	90823083 	addls	r3, r2, r3, lsl #1
    a4a0:	92433030 	subls	r3, r3, #48	; 0x30
    a4a4:	96ff3073 	uxthls	r3, r3
    a4a8:	8a000004 	bhi	a4c0 <sscan_spi+0x2d0>
    a4ac:	e3a00004 	mov	r0, #4
    a4b0:	e59d2024 	ldr	r2, [sp, #36]	; 0x24
    a4b4:	e1c230b0 	strh	r3, [r2]
    a4b8:	e28dd008 	add	sp, sp, #8
    a4bc:	e8bd81f0 	pop	{r4, r5, r6, r7, r8, pc}
    a4c0:	e3e00004 	mvn	r0, #4
    a4c4:	e28dd008 	add	sp, sp, #8
    a4c8:	e8bd81f0 	pop	{r4, r5, r6, r7, r8, pc}
    a4cc:	e3a02002 	mov	r2, #2
    a4d0:	e5dd3000 	ldrb	r3, [sp]
    a4d4:	e2433030 	sub	r3, r3, #48	; 0x30
    a4d8:	e6ef1073 	uxtb	r1, r3
    a4dc:	e3510009 	cmp	r1, #9
    a4e0:	8afffff6 	bhi	a4c0 <sscan_spi+0x2d0>
    a4e4:	e3520001 	cmp	r2, #1
    a4e8:	e6ff3073 	uxth	r3, r3
    a4ec:	e2421002 	sub	r1, r2, #2
    a4f0:	0affffed 	beq	a4ac <sscan_spi+0x2bc>
    a4f4:	e5dd2001 	ldrb	r2, [sp, #1]
    a4f8:	e2420030 	sub	r0, r2, #48	; 0x30
    a4fc:	e3500009 	cmp	r0, #9
    a500:	8affffee 	bhi	a4c0 <sscan_spi+0x2d0>
    a504:	e0833103 	add	r3, r3, r3, lsl #2
    a508:	e0823083 	add	r3, r2, r3, lsl #1
    a50c:	e2433030 	sub	r3, r3, #48	; 0x30
    a510:	e3510000 	cmp	r1, #0
    a514:	e6ff3073 	uxth	r3, r3
    a518:	1affffdb 	bne	a48c <sscan_spi+0x29c>
    a51c:	eaffffe2 	b	a4ac <sscan_spi+0x2bc>
    a520:	e1a01005 	mov	r1, r5
    a524:	e1a06001 	mov	r6, r1
    a528:	eaffff6b 	b	a2dc <sscan_spi+0xec>
    a52c:	e351002c 	cmp	r1, #44	; 0x2c
    a530:	1affff88 	bne	a358 <sscan_spi+0x168>
    a534:	e5dd2000 	ldrb	r2, [sp]
    a538:	e59d1020 	ldr	r1, [sp, #32]
    a53c:	e3520039 	cmp	r2, #57	; 0x39
    a540:	83822020 	orrhi	r2, r2, #32
    a544:	82422057 	subhi	r2, r2, #87	; 0x57
    a548:	92422030 	subls	r2, r2, #48	; 0x30
    a54c:	e6ef2072 	uxtb	r2, r2
    a550:	e5c12000 	strb	r2, [r1]
    a554:	eaffffa1 	b	a3e0 <sscan_spi+0x1f0>
    a558:	e3a02001 	mov	r2, #1
    a55c:	eaffffdb 	b	a4d0 <sscan_spi+0x2e0>
    a560:	00495053 	subeq	r5, r9, r3, asr r0

0000a564 <usb_send_byte>:
    a564:	e59f200c 	ldr	r2, [pc, #12]	; a578 <usb_send_byte+0x14>
    a568:	e5923034 	ldr	r3, [r2, #52]	; 0x34
    a56c:	e3130401 	tst	r3, #16777216	; 0x1000000
    a570:	1afffffc 	bne	a568 <usb_send_byte+0x4>
    a574:	eafffa25 	b	8e10 <FT245RL_write_data>
    a578:	20200000 	eorcs	r0, r0, r0

0000a57c <usb_send_header>:
    a57c:	e92d4038 	push	{r3, r4, r5, lr}
    a580:	e1a05000 	mov	r5, r0
    a584:	e1a04001 	mov	r4, r1
    a588:	e59f205c 	ldr	r2, [pc, #92]	; a5ec <usb_send_header+0x70>
    a58c:	e5923034 	ldr	r3, [r2, #52]	; 0x34
    a590:	e3130401 	tst	r3, #16777216	; 0x1000000
    a594:	1afffffc 	bne	a58c <usb_send_header+0x10>
    a598:	e3a0007e 	mov	r0, #126	; 0x7e
    a59c:	ebfffa1b 	bl	8e10 <FT245RL_write_data>
    a5a0:	e59f2044 	ldr	r2, [pc, #68]	; a5ec <usb_send_header+0x70>
    a5a4:	e5923034 	ldr	r3, [r2, #52]	; 0x34
    a5a8:	e3130401 	tst	r3, #16777216	; 0x1000000
    a5ac:	1afffffc 	bne	a5a4 <usb_send_header+0x28>
    a5b0:	e1a00005 	mov	r0, r5
    a5b4:	ebfffa15 	bl	8e10 <FT245RL_write_data>
    a5b8:	e59f202c 	ldr	r2, [pc, #44]	; a5ec <usb_send_header+0x70>
    a5bc:	e6ef0074 	uxtb	r0, r4
    a5c0:	e5923034 	ldr	r3, [r2, #52]	; 0x34
    a5c4:	e3130401 	tst	r3, #16777216	; 0x1000000
    a5c8:	1afffffc 	bne	a5c0 <usb_send_header+0x44>
    a5cc:	ebfffa0f 	bl	8e10 <FT245RL_write_data>
    a5d0:	e59f2014 	ldr	r2, [pc, #20]	; a5ec <usb_send_header+0x70>
    a5d4:	e1a00424 	lsr	r0, r4, #8
    a5d8:	e5923034 	ldr	r3, [r2, #52]	; 0x34
    a5dc:	e3130401 	tst	r3, #16777216	; 0x1000000
    a5e0:	1afffffc 	bne	a5d8 <usb_send_header+0x5c>
    a5e4:	e8bd4038 	pop	{r3, r4, r5, lr}
    a5e8:	eafffa08 	b	8e10 <FT245RL_write_data>
    a5ec:	20200000 	eorcs	r0, r0, r0

0000a5f0 <usb_send_data>:
    a5f0:	e3510000 	cmp	r1, #0
    a5f4:	012fff1e 	bxeq	lr
    a5f8:	e92d4070 	push	{r4, r5, r6, lr}
    a5fc:	e2416001 	sub	r6, r1, #1
    a600:	e59f4024 	ldr	r4, [pc, #36]	; a62c <usb_send_data+0x3c>
    a604:	e6f06076 	uxtah	r6, r0, r6
    a608:	e2405001 	sub	r5, r0, #1
    a60c:	e5f50001 	ldrb	r0, [r5, #1]!
    a610:	e5943034 	ldr	r3, [r4, #52]	; 0x34
    a614:	e3130401 	tst	r3, #16777216	; 0x1000000
    a618:	1afffffc 	bne	a610 <usb_send_data+0x20>
    a61c:	ebfff9fb 	bl	8e10 <FT245RL_write_data>
    a620:	e1550006 	cmp	r5, r6
    a624:	1afffff8 	bne	a60c <usb_send_data+0x1c>
    a628:	e8bd8070 	pop	{r4, r5, r6, pc}
    a62c:	20200000 	eorcs	r0, r0, r0

0000a630 <usb_send_footer>:
    a630:	e59f2010 	ldr	r2, [pc, #16]	; a648 <usb_send_footer+0x18>
    a634:	e5923034 	ldr	r3, [r2, #52]	; 0x34
    a638:	e3130401 	tst	r3, #16777216	; 0x1000000
    a63c:	1afffffc 	bne	a634 <usb_send_footer+0x4>
    a640:	e3a000e7 	mov	r0, #231	; 0xe7
    a644:	eafff9f1 	b	8e10 <FT245RL_write_data>
    a648:	20200000 	eorcs	r0, r0, r0

0000a64c <usb_send_message>:
    a64c:	e92d4070 	push	{r4, r5, r6, lr}
    a650:	e1a06000 	mov	r6, r0
    a654:	e1a05001 	mov	r5, r1
    a658:	e1a04002 	mov	r4, r2
    a65c:	e59f20a8 	ldr	r2, [pc, #168]	; a70c <usb_send_message+0xc0>
    a660:	e5923034 	ldr	r3, [r2, #52]	; 0x34
    a664:	e3130401 	tst	r3, #16777216	; 0x1000000
    a668:	1afffffc 	bne	a660 <usb_send_message+0x14>
    a66c:	e3a0007e 	mov	r0, #126	; 0x7e
    a670:	ebfff9e6 	bl	8e10 <FT245RL_write_data>
    a674:	e59f2090 	ldr	r2, [pc, #144]	; a70c <usb_send_message+0xc0>
    a678:	e5923034 	ldr	r3, [r2, #52]	; 0x34
    a67c:	e3130401 	tst	r3, #16777216	; 0x1000000
    a680:	1afffffc 	bne	a678 <usb_send_message+0x2c>
    a684:	e1a00006 	mov	r0, r6
    a688:	ebfff9e0 	bl	8e10 <FT245RL_write_data>
    a68c:	e59f2078 	ldr	r2, [pc, #120]	; a70c <usb_send_message+0xc0>
    a690:	e6ef0074 	uxtb	r0, r4
    a694:	e5923034 	ldr	r3, [r2, #52]	; 0x34
    a698:	e3130401 	tst	r3, #16777216	; 0x1000000
    a69c:	1afffffc 	bne	a694 <usb_send_message+0x48>
    a6a0:	ebfff9da 	bl	8e10 <FT245RL_write_data>
    a6a4:	e59f2060 	ldr	r2, [pc, #96]	; a70c <usb_send_message+0xc0>
    a6a8:	e1a00424 	lsr	r0, r4, #8
    a6ac:	e5923034 	ldr	r3, [r2, #52]	; 0x34
    a6b0:	e3130401 	tst	r3, #16777216	; 0x1000000
    a6b4:	1afffffc 	bne	a6ac <usb_send_message+0x60>
    a6b8:	ebfff9d4 	bl	8e10 <FT245RL_write_data>
    a6bc:	e3540000 	cmp	r4, #0
    a6c0:	0a00000a 	beq	a6f0 <usb_send_message+0xa4>
    a6c4:	e2446001 	sub	r6, r4, #1
    a6c8:	e59f403c 	ldr	r4, [pc, #60]	; a70c <usb_send_message+0xc0>
    a6cc:	e6f56076 	uxtah	r6, r5, r6
    a6d0:	e2455001 	sub	r5, r5, #1
    a6d4:	e5f50001 	ldrb	r0, [r5, #1]!
    a6d8:	e5943034 	ldr	r3, [r4, #52]	; 0x34
    a6dc:	e3130401 	tst	r3, #16777216	; 0x1000000
    a6e0:	1afffffc 	bne	a6d8 <usb_send_message+0x8c>
    a6e4:	ebfff9c9 	bl	8e10 <FT245RL_write_data>
    a6e8:	e1550006 	cmp	r5, r6
    a6ec:	1afffff8 	bne	a6d4 <usb_send_message+0x88>
    a6f0:	e59f2014 	ldr	r2, [pc, #20]	; a70c <usb_send_message+0xc0>
    a6f4:	e5923034 	ldr	r3, [r2, #52]	; 0x34
    a6f8:	e3130401 	tst	r3, #16777216	; 0x1000000
    a6fc:	1afffffc 	bne	a6f4 <usb_send_message+0xa8>
    a700:	e3a000e7 	mov	r0, #231	; 0xe7
    a704:	e8bd4070 	pop	{r4, r5, r6, lr}
    a708:	eafff9c0 	b	8e10 <FT245RL_write_data>
    a70c:	20200000 	eorcs	r0, r0, r0

0000a710 <widget_get_receive_dmx_on_change>:
    a710:	e59f3004 	ldr	r3, [pc, #4]	; a71c <widget_get_receive_dmx_on_change+0xc>
    a714:	e5d30000 	ldrb	r0, [r3]
    a718:	e12fff1e 	bx	lr
    a71c:	00021908 	andeq	r1, r2, r8, lsl #18

0000a720 <widget_get_mode>:
    a720:	e59f3004 	ldr	r3, [pc, #4]	; a72c <widget_get_mode+0xc>
    a724:	e5d30001 	ldrb	r0, [r3, #1]
    a728:	e12fff1e 	bx	lr
    a72c:	00021908 	andeq	r1, r2, r8, lsl #18

0000a730 <widget_set_mode>:
    a730:	e59f3004 	ldr	r3, [pc, #4]	; a73c <widget_set_mode+0xc>
    a734:	e5c30001 	strb	r0, [r3, #1]
    a738:	e12fff1e 	bx	lr
    a73c:	00021908 	andeq	r1, r2, r8, lsl #18

0000a740 <widget_get_received_dmx_packet_period>:
    a740:	e59f3004 	ldr	r3, [pc, #4]	; a74c <widget_get_received_dmx_packet_period+0xc>
    a744:	e5930004 	ldr	r0, [r3, #4]
    a748:	e12fff1e 	bx	lr
    a74c:	00021908 	andeq	r1, r2, r8, lsl #18

0000a750 <widget_set_received_dmx_packet_period>:
    a750:	e59f3004 	ldr	r3, [pc, #4]	; a75c <widget_set_received_dmx_packet_period+0xc>
    a754:	e5830004 	str	r0, [r3, #4]
    a758:	e12fff1e 	bx	lr
    a75c:	00021908 	andeq	r1, r2, r8, lsl #18

0000a760 <widget_get_received_dmx_packet_count>:
    a760:	e59f3004 	ldr	r3, [pc, #4]	; a76c <widget_get_received_dmx_packet_count+0xc>
    a764:	e5930008 	ldr	r0, [r3, #8]
    a768:	e12fff1e 	bx	lr
    a76c:	00021908 	andeq	r1, r2, r8, lsl #18

0000a770 <widget_received_dmx_packet>:
    a770:	e92d4070 	push	{r4, r5, r6, lr}
    a774:	e59f40cc 	ldr	r4, [pc, #204]	; a848 <widget_received_dmx_packet+0xd8>
    a778:	e5d43001 	ldrb	r3, [r4, #1]
    a77c:	e3530003 	cmp	r3, #3
    a780:	08bd8070 	popeq	{r4, r5, r6, pc}
    a784:	e5d4500c 	ldrb	r5, [r4, #12]
    a788:	e3550000 	cmp	r5, #0
    a78c:	18bd8070 	popne	{r4, r5, r6, pc}
    a790:	ebfff6f7 	bl	8374 <dmx_get_port_direction>
    a794:	e3500002 	cmp	r0, #2
    a798:	18bd8070 	popne	{r4, r5, r6, pc}
    a79c:	e5d43000 	ldrb	r3, [r4]
    a7a0:	e3530001 	cmp	r3, #1
    a7a4:	08bd8070 	popeq	{r4, r5, r6, pc}
    a7a8:	ebfff6bd 	bl	82a4 <dmx_get_available>
    a7ac:	e3500000 	cmp	r0, #0
    a7b0:	08bd8070 	popeq	{r4, r5, r6, pc}
    a7b4:	e59f2090 	ldr	r2, [pc, #144]	; a84c <widget_received_dmx_packet+0xdc>
    a7b8:	e5943010 	ldr	r3, [r4, #16]
    a7bc:	e5922004 	ldr	r2, [r2, #4]
    a7c0:	e5941004 	ldr	r1, [r4, #4]
    a7c4:	e0633002 	rsb	r3, r3, r2
    a7c8:	e1530001 	cmp	r3, r1
    a7cc:	38bd8070 	popcc	{r4, r5, r6, pc}
    a7d0:	e5943008 	ldr	r3, [r4, #8]
    a7d4:	e5842010 	str	r2, [r4, #16]
    a7d8:	e2833001 	add	r3, r3, #1
    a7dc:	e5843008 	str	r3, [r4, #8]
    a7e0:	ebfff6b3 	bl	82b4 <dmx_set_available_false>
    a7e4:	ebfff699 	bl	8250 <dmx_get_statistics>
    a7e8:	e1d060b4 	ldrh	r6, [r0, #4]
    a7ec:	e59f105c 	ldr	r1, [pc, #92]	; a850 <widget_received_dmx_packet+0xe0>
    a7f0:	e2864001 	add	r4, r6, #1
    a7f4:	e6ff4074 	uxth	r4, r4
    a7f8:	e3a00006 	mov	r0, #6
    a7fc:	ebfff9d3 	bl	8f50 <monitor_line>
    a800:	e1a02004 	mov	r2, r4
    a804:	e3a00007 	mov	r0, #7
    a808:	e59f1044 	ldr	r1, [pc, #68]	; a854 <widget_received_dmx_packet+0xe4>
    a80c:	ebfff9cf 	bl	8f50 <monitor_line>
    a810:	e1a01005 	mov	r1, r5
    a814:	e3a0001c 	mov	r0, #28
    a818:	ebfff9cc 	bl	8f50 <monitor_line>
    a81c:	e2861002 	add	r1, r6, #2
    a820:	e6ff1071 	uxth	r1, r1
    a824:	e3a00005 	mov	r0, #5
    a828:	ebffff53 	bl	a57c <usb_send_header>
    a82c:	e1a00005 	mov	r0, r5
    a830:	ebffff4b 	bl	a564 <usb_send_byte>
    a834:	e1a01004 	mov	r1, r4
    a838:	e59f0018 	ldr	r0, [pc, #24]	; a858 <widget_received_dmx_packet+0xe8>
    a83c:	ebffff6b 	bl	a5f0 <usb_send_data>
    a840:	e8bd4070 	pop	{r4, r5, r6, lr}
    a844:	eaffff79 	b	a630 <usb_send_footer>
    a848:	00021908 	andeq	r1, r2, r8, lsl #18
    a84c:	20003000 	andcs	r3, r0, r0
    a850:	0001e5d0 	ldrdeq	lr, [r1], -r0
    a854:	0001e5ec 	andeq	lr, r1, ip, ror #11
    a858:	00021ca4 	andeq	r1, r2, r4, lsr #25

0000a85c <widget_received_rdm_packet>:
    a85c:	e92d40f0 	push	{r4, r5, r6, r7, lr}
    a860:	e59f41ac 	ldr	r4, [pc, #428]	; aa14 <widget_received_rdm_packet+0x1b8>
    a864:	e24dd00c 	sub	sp, sp, #12
    a868:	e5d43001 	ldrb	r3, [r4, #1]
    a86c:	e20330fd 	and	r3, r3, #253	; 0xfd
    a870:	e3530001 	cmp	r3, #1
    a874:	0a000011 	beq	a8c0 <widget_received_rdm_packet+0x64>
    a878:	e5d43000 	ldrb	r3, [r4]
    a87c:	e3530001 	cmp	r3, #1
    a880:	0a00000e 	beq	a8c0 <widget_received_rdm_packet+0x64>
    a884:	ebfff674 	bl	825c <rdm_get_available>
    a888:	e2505000 	subs	r5, r0, #0
    a88c:	0a00000b 	beq	a8c0 <widget_received_rdm_packet+0x64>
    a890:	e5d53000 	ldrb	r3, [r5]
    a894:	e35300cc 	cmp	r3, #204	; 0xcc
    a898:	0a00000a 	beq	a8c8 <widget_received_rdm_packet+0x6c>
    a89c:	e35300fe 	cmp	r3, #254	; 0xfe
    a8a0:	13a06000 	movne	r6, #0
    a8a4:	0a00002e 	beq	a964 <widget_received_rdm_packet+0x108>
    a8a8:	e1a01006 	mov	r1, r6
    a8ac:	e1a02005 	mov	r2, r5
    a8b0:	e3a00011 	mov	r0, #17
    a8b4:	e28dd00c 	add	sp, sp, #12
    a8b8:	e8bd40f0 	pop	{r4, r5, r6, r7, lr}
    a8bc:	eafff9ee 	b	907c <monitor_rdm_data>
    a8c0:	e28dd00c 	add	sp, sp, #12
    a8c4:	e8bd80f0 	pop	{r4, r5, r6, r7, pc}
    a8c8:	e5d56002 	ldrb	r6, [r5, #2]
    a8cc:	e3a00007 	mov	r0, #7
    a8d0:	e2866002 	add	r6, r6, #2
    a8d4:	e6ef6076 	uxtb	r6, r6
    a8d8:	e1a02006 	mov	r2, r6
    a8dc:	e59f1134 	ldr	r1, [pc, #308]	; aa18 <widget_received_rdm_packet+0x1bc>
    a8e0:	e5d57014 	ldrb	r7, [r5, #20]
    a8e4:	ebfff999 	bl	8f50 <monitor_line>
    a8e8:	e5d50015 	ldrb	r0, [r5, #21]
    a8ec:	e5d51016 	ldrb	r1, [r5, #22]
    a8f0:	e5d5200f 	ldrb	r2, [r5, #15]
    a8f4:	e0811400 	add	r1, r1, r0, lsl #8
    a8f8:	e5d53014 	ldrb	r3, [r5, #20]
    a8fc:	e6ff6076 	uxth	r6, r6
    a900:	e58d1000 	str	r1, [sp]
    a904:	e3a0001c 	mov	r0, #28
    a908:	e59f110c 	ldr	r1, [pc, #268]	; aa1c <widget_received_rdm_packet+0x1c0>
    a90c:	ebfff98f 	bl	8f50 <monitor_line>
    a910:	e2861001 	add	r1, r6, #1
    a914:	e3a00005 	mov	r0, #5
    a918:	ebffff17 	bl	a57c <usb_send_header>
    a91c:	e3a00000 	mov	r0, #0
    a920:	ebffff0f 	bl	a564 <usb_send_byte>
    a924:	e1a00005 	mov	r0, r5
    a928:	e1a01006 	mov	r1, r6
    a92c:	ebffff2f 	bl	a5f0 <usb_send_data>
    a930:	ebffff3e 	bl	a630 <usb_send_footer>
    a934:	e5d52015 	ldrb	r2, [r5, #21]
    a938:	e5d53016 	ldrb	r3, [r5, #22]
    a93c:	e0833402 	add	r3, r3, r2, lsl #8
    a940:	e6ff3073 	uxth	r3, r3
    a944:	e2533002 	subs	r3, r3, #2
    a948:	13a03001 	movne	r3, #1
    a94c:	e3570011 	cmp	r7, #17
    a950:	13a03000 	movne	r3, #0
    a954:	e3530000 	cmp	r3, #0
    a958:	1a00001f 	bne	a9dc <widget_received_rdm_packet+0x180>
    a95c:	e5843014 	str	r3, [r4, #20]
    a960:	eaffffd0 	b	a8a8 <widget_received_rdm_packet+0x4c>
    a964:	e3a02018 	mov	r2, #24
    a968:	e3a00007 	mov	r0, #7
    a96c:	e59f10a4 	ldr	r1, [pc, #164]	; aa18 <widget_received_rdm_packet+0x1bc>
    a970:	ebfff976 	bl	8f50 <monitor_line>
    a974:	e3a0001c 	mov	r0, #28
    a978:	e59f10a0 	ldr	r1, [pc, #160]	; aa20 <widget_received_rdm_packet+0x1c4>
    a97c:	ebfff973 	bl	8f50 <monitor_line>
    a980:	e3a01019 	mov	r1, #25
    a984:	e3a00005 	mov	r0, #5
    a988:	ebfffefb 	bl	a57c <usb_send_header>
    a98c:	e3a00000 	mov	r0, #0
    a990:	ebfffef3 	bl	a564 <usb_send_byte>
    a994:	e1a00005 	mov	r0, r5
    a998:	e3a01018 	mov	r1, #24
    a99c:	ebffff13 	bl	a5f0 <usb_send_data>
    a9a0:	ebffff22 	bl	a630 <usb_send_footer>
    a9a4:	e3a02000 	mov	r2, #0
    a9a8:	e3a00007 	mov	r0, #7
    a9ac:	e59f1070 	ldr	r1, [pc, #112]	; aa24 <widget_received_rdm_packet+0x1c8>
    a9b0:	ebfff966 	bl	8f50 <monitor_line>
    a9b4:	e3a0001c 	mov	r0, #28
    a9b8:	e59f1068 	ldr	r1, [pc, #104]	; aa28 <widget_received_rdm_packet+0x1cc>
    a9bc:	ebfff963 	bl	8f50 <monitor_line>
    a9c0:	e3a0000c 	mov	r0, #12
    a9c4:	e3a01000 	mov	r1, #0
    a9c8:	ebfffeeb 	bl	a57c <usb_send_header>
    a9cc:	e3a06018 	mov	r6, #24
    a9d0:	ebffff16 	bl	a630 <usb_send_footer>
    a9d4:	e3a03000 	mov	r3, #0
    a9d8:	eaffffdf 	b	a95c <widget_received_rdm_packet+0x100>
    a9dc:	e3a02000 	mov	r2, #0
    a9e0:	e3a00007 	mov	r0, #7
    a9e4:	e59f1038 	ldr	r1, [pc, #56]	; aa24 <widget_received_rdm_packet+0x1c8>
    a9e8:	ebfff958 	bl	8f50 <monitor_line>
    a9ec:	e3a0001c 	mov	r0, #28
    a9f0:	e59f1030 	ldr	r1, [pc, #48]	; aa28 <widget_received_rdm_packet+0x1cc>
    a9f4:	ebfff955 	bl	8f50 <monitor_line>
    a9f8:	e3a0000c 	mov	r0, #12
    a9fc:	e3a01000 	mov	r1, #0
    aa00:	ebfffedd 	bl	a57c <usb_send_header>
    aa04:	ebffff09 	bl	a630 <usb_send_footer>
    aa08:	e3a03000 	mov	r3, #0
    aa0c:	e5843014 	str	r3, [r4, #20]
    aa10:	eaffffa4 	b	a8a8 <widget_received_rdm_packet+0x4c>
    aa14:	00021908 	andeq	r1, r2, r8, lsl #18
    aa18:	0001e608 	andeq	lr, r1, r8, lsl #12
    aa1c:	0001e634 	andeq	lr, r1, r4, lsr r6
    aa20:	0001e6ac 	andeq	lr, r1, ip, lsr #13
    aa24:	0001e668 	andeq	lr, r1, r8, ror #12
    aa28:	0001e694 	muleq	r1, r4, r6

0000aa2c <widget_output_only_send_dmx_packet_request>:
    aa2c:	e92d4070 	push	{r4, r5, r6, lr}
    aa30:	e1a05000 	mov	r5, r0
    aa34:	e59f1114 	ldr	r1, [pc, #276]	; ab50 <widget_output_only_send_dmx_packet_request+0x124>
    aa38:	e3a00007 	mov	r0, #7
    aa3c:	ebfff943 	bl	8f50 <monitor_line>
    aa40:	e3a0001c 	mov	r0, #28
    aa44:	e3a01000 	mov	r1, #0
    aa48:	ebfff940 	bl	8f50 <monitor_line>
    aa4c:	e3a00001 	mov	r0, #1
    aa50:	e3a01000 	mov	r1, #0
    aa54:	ebfff838 	bl	8b3c <dmx_set_port_direction>
    aa58:	e3550000 	cmp	r5, #0
    aa5c:	0a00002b 	beq	ab10 <widget_output_only_send_dmx_packet_request+0xe4>
    aa60:	e59f20ec 	ldr	r2, [pc, #236]	; ab54 <widget_output_only_send_dmx_packet_request+0x128>
    aa64:	e3120003 	tst	r2, #3
    aa68:	03a03001 	moveq	r3, #1
    aa6c:	13a03000 	movne	r3, #0
    aa70:	e3550008 	cmp	r5, #8
    aa74:	93a03000 	movls	r3, #0
    aa78:	82033001 	andhi	r3, r3, #1
    aa7c:	e3530000 	cmp	r3, #0
    aa80:	0a000028 	beq	ab28 <widget_output_only_send_dmx_packet_request+0xfc>
    aa84:	e1a0c002 	mov	ip, r2
    aa88:	e3a03000 	mov	r3, #0
    aa8c:	e2450004 	sub	r0, r5, #4
    aa90:	e6ff0070 	uxth	r0, r0
    aa94:	e1a00120 	lsr	r0, r0, #2
    aa98:	e2800001 	add	r0, r0, #1
    aa9c:	e1a06100 	lsl	r6, r0, #2
    aaa0:	e59f10b0 	ldr	r1, [pc, #176]	; ab58 <widget_output_only_send_dmx_packet_request+0x12c>
    aaa4:	e6ff6076 	uxth	r6, r6
    aaa8:	e2833001 	add	r3, r3, #1
    aaac:	e6ff4073 	uxth	r4, r3
    aab0:	e491e004 	ldr	lr, [r1], #4
    aab4:	e1500004 	cmp	r0, r4
    aab8:	e48ce004 	str	lr, [ip], #4
    aabc:	8afffff9 	bhi	aaa8 <widget_output_only_send_dmx_packet_request+0x7c>
    aac0:	e1550006 	cmp	r5, r6
    aac4:	0a000011 	beq	ab10 <widget_output_only_send_dmx_packet_request+0xe4>
    aac8:	e59f008c 	ldr	r0, [pc, #140]	; ab5c <widget_output_only_send_dmx_packet_request+0x130>
    aacc:	e2861001 	add	r1, r6, #1
    aad0:	e0803006 	add	r3, r0, r6
    aad4:	e5d33018 	ldrb	r3, [r3, #24]
    aad8:	e6ff1071 	uxth	r1, r1
    aadc:	e1550001 	cmp	r5, r1
    aae0:	e7c23006 	strb	r3, [r2, r6]
    aae4:	e59f2068 	ldr	r2, [pc, #104]	; ab54 <widget_output_only_send_dmx_packet_request+0x128>
    aae8:	9a000008 	bls	ab10 <widget_output_only_send_dmx_packet_request+0xe4>
    aaec:	e2863002 	add	r3, r6, #2
    aaf0:	e080c001 	add	ip, r0, r1
    aaf4:	e6ff3073 	uxth	r3, r3
    aaf8:	e5dcc018 	ldrb	ip, [ip, #24]
    aafc:	e1550003 	cmp	r5, r3
    ab00:	e7c2c001 	strb	ip, [r2, r1]
    ab04:	80800003 	addhi	r0, r0, r3
    ab08:	85d01018 	ldrbhi	r1, [r0, #24]
    ab0c:	87c21003 	strbhi	r1, [r2, r3]
    ab10:	e1a00005 	mov	r0, r5
    ab14:	ebfff5b6 	bl	81f4 <dmx_set_send_data_length>
    ab18:	e8bd4070 	pop	{r4, r5, r6, lr}
    ab1c:	e3a00001 	mov	r0, #1
    ab20:	e1a01000 	mov	r1, r0
    ab24:	eafff804 	b	8b3c <dmx_set_port_direction>
    ab28:	e59fc028 	ldr	ip, [pc, #40]	; ab58 <widget_output_only_send_dmx_packet_request+0x12c>
    ab2c:	e2451001 	sub	r1, r5, #1
    ab30:	e24c3001 	sub	r3, ip, #1
    ab34:	e2422001 	sub	r2, r2, #1
    ab38:	e6fcc071 	uxtah	ip, ip, r1
    ab3c:	e5f31001 	ldrb	r1, [r3, #1]!
    ab40:	e153000c 	cmp	r3, ip
    ab44:	e5e21001 	strb	r1, [r2, #1]!
    ab48:	1afffffb 	bne	ab3c <widget_output_only_send_dmx_packet_request+0x110>
    ab4c:	eaffffef 	b	ab10 <widget_output_only_send_dmx_packet_request+0xe4>
    ab50:	0001e6c8 	andeq	lr, r1, r8, asr #13
    ab54:	00021ca4 	andeq	r1, r2, r4, lsr #25
    ab58:	00021920 	andeq	r1, r2, r0, lsr #18
    ab5c:	00021908 	andeq	r1, r2, r8, lsl #18

0000ab60 <widget_rdm_timeout>:
    ab60:	e92d4010 	push	{r4, lr}
    ab64:	e59f4064 	ldr	r4, [pc, #100]	; abd0 <widget_rdm_timeout+0x70>
    ab68:	e5d43001 	ldrb	r3, [r4, #1]
    ab6c:	e3530003 	cmp	r3, #3
    ab70:	08bd8010 	popeq	{r4, pc}
    ab74:	e5943014 	ldr	r3, [r4, #20]
    ab78:	e3530000 	cmp	r3, #0
    ab7c:	08bd8010 	popeq	{r4, pc}
    ab80:	e59f204c 	ldr	r2, [pc, #76]	; abd4 <widget_rdm_timeout+0x74>
    ab84:	e59f104c 	ldr	r1, [pc, #76]	; abd8 <widget_rdm_timeout+0x78>
    ab88:	e5922004 	ldr	r2, [r2, #4]
    ab8c:	e0633002 	rsb	r3, r3, r2
    ab90:	e1530001 	cmp	r3, r1
    ab94:	98bd8010 	popls	{r4, pc}
    ab98:	e3a02000 	mov	r2, #0
    ab9c:	e3a00007 	mov	r0, #7
    aba0:	e59f1034 	ldr	r1, [pc, #52]	; abdc <widget_rdm_timeout+0x7c>
    aba4:	ebfff8e9 	bl	8f50 <monitor_line>
    aba8:	e3a0001c 	mov	r0, #28
    abac:	e59f102c 	ldr	r1, [pc, #44]	; abe0 <widget_rdm_timeout+0x80>
    abb0:	ebfff8e6 	bl	8f50 <monitor_line>
    abb4:	e3a0000c 	mov	r0, #12
    abb8:	e3a01000 	mov	r1, #0
    abbc:	ebfffe6e 	bl	a57c <usb_send_header>
    abc0:	ebfffe9a 	bl	a630 <usb_send_footer>
    abc4:	e3a03000 	mov	r3, #0
    abc8:	e5843014 	str	r3, [r4, #20]
    abcc:	e8bd8010 	pop	{r4, pc}
    abd0:	00021908 	andeq	r1, r2, r8, lsl #18
    abd4:	20003000 	andcs	r3, r0, r0
    abd8:	000f4240 	andeq	r4, pc, r0, asr #4
    abdc:	0001e668 	andeq	lr, r1, r8, ror #12
    abe0:	0001e694 	muleq	r1, r4, r6

0000abe4 <widget_received_dmx_change_of_state_packet>:
    abe4:	e92d4038 	push	{r3, r4, r5, lr}
    abe8:	e59f4070 	ldr	r4, [pc, #112]	; ac60 <widget_received_dmx_change_of_state_packet+0x7c>
    abec:	e5d43001 	ldrb	r3, [r4, #1]
    abf0:	e3530003 	cmp	r3, #3
    abf4:	08bd8038 	popeq	{r3, r4, r5, pc}
    abf8:	e5d4500c 	ldrb	r5, [r4, #12]
    abfc:	e3550000 	cmp	r5, #0
    ac00:	18bd8038 	popne	{r3, r4, r5, pc}
    ac04:	ebfff5da 	bl	8374 <dmx_get_port_direction>
    ac08:	e3500002 	cmp	r0, #2
    ac0c:	18bd8038 	popne	{r3, r4, r5, pc}
    ac10:	e5d43000 	ldrb	r3, [r4]
    ac14:	e3530000 	cmp	r3, #0
    ac18:	08bd8038 	popeq	{r3, r4, r5, pc}
    ac1c:	ebfff5a0 	bl	82a4 <dmx_get_available>
    ac20:	e3500000 	cmp	r0, #0
    ac24:	08bd8038 	popeq	{r3, r4, r5, pc}
    ac28:	ebfff5a1 	bl	82b4 <dmx_set_available_false>
    ac2c:	ebfff5a5 	bl	82c8 <dmx_is_data_changed>
    ac30:	e3500000 	cmp	r0, #0
    ac34:	08bd8038 	popeq	{r3, r4, r5, pc}
    ac38:	e3a00007 	mov	r0, #7
    ac3c:	e59f1020 	ldr	r1, [pc, #32]	; ac64 <widget_received_dmx_change_of_state_packet+0x80>
    ac40:	ebfff8c2 	bl	8f50 <monitor_line>
    ac44:	e1a01005 	mov	r1, r5
    ac48:	e3a0001c 	mov	r0, #28
    ac4c:	ebfff8bf 	bl	8f50 <monitor_line>
    ac50:	e8bd4038 	pop	{r3, r4, r5, lr}
    ac54:	e3a00007 	mov	r0, #7
    ac58:	e59f1008 	ldr	r1, [pc, #8]	; ac68 <widget_received_dmx_change_of_state_packet+0x84>
    ac5c:	eafff8bb 	b	8f50 <monitor_line>
    ac60:	00021908 	andeq	r1, r2, r8, lsl #18
    ac64:	0001e6ec 	andeq	lr, r1, ip, ror #13
    ac68:	0001e704 	andeq	lr, r1, r4, lsl #14

0000ac6c <widget_receive_data_from_host>:
    ac6c:	e59f2704 	ldr	r2, [pc, #1796]	; b378 <widget_receive_data_from_host+0x70c>
    ac70:	e5923034 	ldr	r3, [r2, #52]	; 0x34
    ac74:	e3130402 	tst	r3, #33554432	; 0x2000000
    ac78:	112fff1e 	bxne	lr
    ac7c:	e5923034 	ldr	r3, [r2, #52]	; 0x34
    ac80:	e3130402 	tst	r3, #33554432	; 0x2000000
    ac84:	1afffffc 	bne	ac7c <widget_receive_data_from_host+0x10>
    ac88:	e92d41f0 	push	{r4, r5, r6, r7, r8, lr}
    ac8c:	e24dd010 	sub	sp, sp, #16
    ac90:	ebfff879 	bl	8e7c <FT245RL_read_data>
    ac94:	e350007e 	cmp	r0, #126	; 0x7e
    ac98:	0a000001 	beq	aca4 <widget_receive_data_from_host+0x38>
    ac9c:	e28dd010 	add	sp, sp, #16
    aca0:	e8bd81f0 	pop	{r4, r5, r6, r7, r8, pc}
    aca4:	e59f26cc 	ldr	r2, [pc, #1740]	; b378 <widget_receive_data_from_host+0x70c>
    aca8:	e5923034 	ldr	r3, [r2, #52]	; 0x34
    acac:	e3130402 	tst	r3, #33554432	; 0x2000000
    acb0:	1afffffc 	bne	aca8 <widget_receive_data_from_host+0x3c>
    acb4:	ebfff870 	bl	8e7c <FT245RL_read_data>
    acb8:	e1a08000 	mov	r8, r0
    acbc:	e59f26b4 	ldr	r2, [pc, #1716]	; b378 <widget_receive_data_from_host+0x70c>
    acc0:	e5923034 	ldr	r3, [r2, #52]	; 0x34
    acc4:	e3130402 	tst	r3, #33554432	; 0x2000000
    acc8:	1afffffc 	bne	acc0 <widget_receive_data_from_host+0x54>
    accc:	ebfff86a 	bl	8e7c <FT245RL_read_data>
    acd0:	e1a04000 	mov	r4, r0
    acd4:	e59f269c 	ldr	r2, [pc, #1692]	; b378 <widget_receive_data_from_host+0x70c>
    acd8:	e5923034 	ldr	r3, [r2, #52]	; 0x34
    acdc:	e3130402 	tst	r3, #33554432	; 0x2000000
    ace0:	1afffffc 	bne	acd8 <widget_receive_data_from_host+0x6c>
    ace4:	ebfff864 	bl	8e7c <FT245RL_read_data>
    ace8:	e1840400 	orr	r0, r4, r0, lsl #8
    acec:	e6ff7070 	uxth	r7, r0
    acf0:	e3570000 	cmp	r7, #0
    acf4:	0a00000b 	beq	ad28 <widget_receive_data_from_host+0xbc>
    acf8:	e59f667c 	ldr	r6, [pc, #1660]	; b37c <widget_receive_data_from_host+0x710>
    acfc:	e2473001 	sub	r3, r7, #1
    ad00:	e59f4670 	ldr	r4, [pc, #1648]	; b378 <widget_receive_data_from_host+0x70c>
    ad04:	e2465001 	sub	r5, r6, #1
    ad08:	e6f66073 	uxtah	r6, r6, r3
    ad0c:	e594c034 	ldr	ip, [r4, #52]	; 0x34
    ad10:	e31c0402 	tst	ip, #33554432	; 0x2000000
    ad14:	1afffffc 	bne	ad0c <widget_receive_data_from_host+0xa0>
    ad18:	ebfff857 	bl	8e7c <FT245RL_read_data>
    ad1c:	e5e50001 	strb	r0, [r5, #1]!
    ad20:	e1550006 	cmp	r5, r6
    ad24:	1afffff8 	bne	ad0c <widget_receive_data_from_host+0xa0>
    ad28:	e1a05007 	mov	r5, r7
    ad2c:	e59f4644 	ldr	r4, [pc, #1604]	; b378 <widget_receive_data_from_host+0x70c>
    ad30:	e59f6648 	ldr	r6, [pc, #1608]	; b380 <widget_receive_data_from_host+0x714>
    ad34:	e594c034 	ldr	ip, [r4, #52]	; 0x34
    ad38:	e31c0402 	tst	ip, #33554432	; 0x2000000
    ad3c:	1afffffc 	bne	ad34 <widget_receive_data_from_host+0xc8>
    ad40:	ebfff84d 	bl	8e7c <FT245RL_read_data>
    ad44:	e35000e7 	cmp	r0, #231	; 0xe7
    ad48:	e2853001 	add	r3, r5, #1
    ad4c:	0a000002 	beq	ad5c <widget_receive_data_from_host+0xf0>
    ad50:	e6ff5073 	uxth	r5, r3
    ad54:	e1550006 	cmp	r5, r6
    ad58:	1afffff5 	bne	ad34 <widget_receive_data_from_host+0xc8>
    ad5c:	e1a02008 	mov	r2, r8
    ad60:	e58d5000 	str	r5, [sp]
    ad64:	e3a00006 	mov	r0, #6
    ad68:	e59f1614 	ldr	r1, [pc, #1556]	; b384 <widget_receive_data_from_host+0x718>
    ad6c:	e1a03007 	mov	r3, r7
    ad70:	e2488003 	sub	r8, r8, #3
    ad74:	ebfff875 	bl	8f50 <monitor_line>
    ad78:	e358004b 	cmp	r8, #75	; 0x4b
    ad7c:	979ff108 	ldrls	pc, [pc, r8, lsl #2]
    ad80:	eaffffc5 	b	ac9c <widget_receive_data_from_host+0x30>
    ad84:	0000b2e8 	andeq	fp, r0, r8, ror #5
    ad88:	0000b298 	muleq	r0, r8, r2
    ad8c:	0000ac9c 	muleq	r0, ip, ip
    ad90:	0000b1a4 	andeq	fp, r0, r4, lsr #3
    ad94:	0000b124 	andeq	fp, r0, r4, lsr #2
    ad98:	0000b040 	andeq	fp, r0, r0, asr #32
    ad9c:	0000ac9c 	muleq	r0, ip, ip
    ada0:	0000b008 	andeq	fp, r0, r8
    ada4:	0000af94 	muleq	r0, r4, pc	; <UNPREDICTABLE>
    ada8:	0000ac9c 	muleq	r0, ip, ip
    adac:	0000ac9c 	muleq	r0, ip, ip
    adb0:	0000ac9c 	muleq	r0, ip, ip
    adb4:	0000ac9c 	muleq	r0, ip, ip
    adb8:	0000ac9c 	muleq	r0, ip, ip
    adbc:	0000ac9c 	muleq	r0, ip, ip
    adc0:	0000ac9c 	muleq	r0, ip, ip
    adc4:	0000ac9c 	muleq	r0, ip, ip
    adc8:	0000ac9c 	muleq	r0, ip, ip
    adcc:	0000ac9c 	muleq	r0, ip, ip
    add0:	0000ac9c 	muleq	r0, ip, ip
    add4:	0000ac9c 	muleq	r0, ip, ip
    add8:	0000ac9c 	muleq	r0, ip, ip
    addc:	0000ac9c 	muleq	r0, ip, ip
    ade0:	0000ac9c 	muleq	r0, ip, ip
    ade4:	0000ac9c 	muleq	r0, ip, ip
    ade8:	0000ac9c 	muleq	r0, ip, ip
    adec:	0000ac9c 	muleq	r0, ip, ip
    adf0:	0000ac9c 	muleq	r0, ip, ip
    adf4:	0000ac9c 	muleq	r0, ip, ip
    adf8:	0000ac9c 	muleq	r0, ip, ip
    adfc:	0000ac9c 	muleq	r0, ip, ip
    ae00:	0000ac9c 	muleq	r0, ip, ip
    ae04:	0000ac9c 	muleq	r0, ip, ip
    ae08:	0000ac9c 	muleq	r0, ip, ip
    ae0c:	0000ac9c 	muleq	r0, ip, ip
    ae10:	0000ac9c 	muleq	r0, ip, ip
    ae14:	0000ac9c 	muleq	r0, ip, ip
    ae18:	0000ac9c 	muleq	r0, ip, ip
    ae1c:	0000ac9c 	muleq	r0, ip, ip
    ae20:	0000ac9c 	muleq	r0, ip, ip
    ae24:	0000ac9c 	muleq	r0, ip, ip
    ae28:	0000ac9c 	muleq	r0, ip, ip
    ae2c:	0000ac9c 	muleq	r0, ip, ip
    ae30:	0000ac9c 	muleq	r0, ip, ip
    ae34:	0000ac9c 	muleq	r0, ip, ip
    ae38:	0000ac9c 	muleq	r0, ip, ip
    ae3c:	0000ac9c 	muleq	r0, ip, ip
    ae40:	0000ac9c 	muleq	r0, ip, ip
    ae44:	0000ac9c 	muleq	r0, ip, ip
    ae48:	0000ac9c 	muleq	r0, ip, ip
    ae4c:	0000ac9c 	muleq	r0, ip, ip
    ae50:	0000ac9c 	muleq	r0, ip, ip
    ae54:	0000ac9c 	muleq	r0, ip, ip
    ae58:	0000ac9c 	muleq	r0, ip, ip
    ae5c:	0000ac9c 	muleq	r0, ip, ip
    ae60:	0000ac9c 	muleq	r0, ip, ip
    ae64:	0000ac9c 	muleq	r0, ip, ip
    ae68:	0000ac9c 	muleq	r0, ip, ip
    ae6c:	0000ac9c 	muleq	r0, ip, ip
    ae70:	0000ac9c 	muleq	r0, ip, ip
    ae74:	0000ac9c 	muleq	r0, ip, ip
    ae78:	0000ac9c 	muleq	r0, ip, ip
    ae7c:	0000ac9c 	muleq	r0, ip, ip
    ae80:	0000ac9c 	muleq	r0, ip, ip
    ae84:	0000ac9c 	muleq	r0, ip, ip
    ae88:	0000ac9c 	muleq	r0, ip, ip
    ae8c:	0000ac9c 	muleq	r0, ip, ip
    ae90:	0000ac9c 	muleq	r0, ip, ip
    ae94:	0000ac9c 	muleq	r0, ip, ip
    ae98:	0000ac9c 	muleq	r0, ip, ip
    ae9c:	0000ac9c 	muleq	r0, ip, ip
    aea0:	0000ac9c 	muleq	r0, ip, ip
    aea4:	0000ac9c 	muleq	r0, ip, ip
    aea8:	0000ac9c 	muleq	r0, ip, ip
    aeac:	0000af48 	andeq	sl, r0, r8, asr #30
    aeb0:	0000aeb4 			; <UNDEFINED> instruction: 0x0000aeb4
    aeb4:	e3a00007 	mov	r0, #7
    aeb8:	e59f14c8 	ldr	r1, [pc, #1224]	; b388 <widget_receive_data_from_host+0x71c>
    aebc:	ebfff823 	bl	8f50 <monitor_line>
    aec0:	e3a01000 	mov	r1, #0
    aec4:	e3a0001c 	mov	r0, #28
    aec8:	ebfff820 	bl	8f50 <monitor_line>
    aecc:	e3a00000 	mov	r0, #0
    aed0:	ebfff9da 	bl	9640 <rdm_device_info_get_label>
    aed4:	e1a06000 	mov	r6, r0
    aed8:	e3a00000 	mov	r0, #0
    aedc:	ebfff9da 	bl	964c <rdm_device_info_get_label_length>
    aee0:	e1a04000 	mov	r4, r0
    aee4:	eb00021c 	bl	b75c <widget_params_get_type_id>
    aee8:	e1a07000 	mov	r7, r0
    aeec:	eb00021d 	bl	b768 <widget_params_get_type_id_length>
    aef0:	e6ff5070 	uxth	r5, r0
    aef4:	e3a0004e 	mov	r0, #78	; 0x4e
    aef8:	e6ff4074 	uxth	r4, r4
    aefc:	e0841005 	add	r1, r4, r5
    af00:	e6ff1071 	uxth	r1, r1
    af04:	ebfffd9c 	bl	a57c <usb_send_header>
    af08:	e1a00007 	mov	r0, r7
    af0c:	e1a01005 	mov	r1, r5
    af10:	ebfffdb6 	bl	a5f0 <usb_send_data>
    af14:	e1a00006 	mov	r0, r6
    af18:	e1a01004 	mov	r1, r4
    af1c:	ebfffdb3 	bl	a5f0 <usb_send_data>
    af20:	ebfffdc2 	bl	a630 <usb_send_footer>
    af24:	e3a00002 	mov	r0, #2
    af28:	e3a01001 	mov	r1, #1
    af2c:	ebfff702 	bl	8b3c <dmx_set_port_direction>
    af30:	e59f2454 	ldr	r2, [pc, #1108]	; b38c <widget_receive_data_from_host+0x720>
    af34:	e59f3454 	ldr	r3, [pc, #1108]	; b390 <widget_receive_data_from_host+0x724>
    af38:	e5922004 	ldr	r2, [r2, #4]
    af3c:	e5832010 	str	r2, [r3, #16]
    af40:	e28dd010 	add	sp, sp, #16
    af44:	e8bd81f0 	pop	{r4, r5, r6, r7, r8, pc}
    af48:	e3a00007 	mov	r0, #7
    af4c:	e59f1440 	ldr	r1, [pc, #1088]	; b394 <widget_receive_data_from_host+0x728>
    af50:	ebfff7fe 	bl	8f50 <monitor_line>
    af54:	e3a01000 	mov	r1, #0
    af58:	e3a0001c 	mov	r0, #28
    af5c:	ebfff7fb 	bl	8f50 <monitor_line>
    af60:	ebfff9bd 	bl	965c <rdm_device_info_get_manufacturer_name>
    af64:	e1a06000 	mov	r6, r0
    af68:	ebfff9be 	bl	9668 <rdm_device_info_get_manufacturer_name_length>
    af6c:	e1a04000 	mov	r4, r0
    af70:	ebfff9c0 	bl	9678 <rdm_device_info_get_manufacturer_id>
    af74:	e1a07000 	mov	r7, r0
    af78:	ebfff9c8 	bl	96a0 <rdm_device_info_get_manufacturer_id_length>
    af7c:	e6ff4074 	uxth	r4, r4
    af80:	e6ff5070 	uxth	r5, r0
    af84:	e0841005 	add	r1, r4, r5
    af88:	e6ff1071 	uxth	r1, r1
    af8c:	e3a0004d 	mov	r0, #77	; 0x4d
    af90:	eaffffdb 	b	af04 <widget_receive_data_from_host+0x298>
    af94:	e3a00007 	mov	r0, #7
    af98:	e59f13f8 	ldr	r1, [pc, #1016]	; b398 <widget_receive_data_from_host+0x72c>
    af9c:	ebfff7eb 	bl	8f50 <monitor_line>
    afa0:	e59f43e8 	ldr	r4, [pc, #1000]	; b390 <widget_receive_data_from_host+0x724>
    afa4:	e3a0001c 	mov	r0, #28
    afa8:	e3a01000 	mov	r1, #0
    afac:	ebfff7e7 	bl	8f50 <monitor_line>
    afb0:	e3a00001 	mov	r0, #1
    afb4:	e3a01000 	mov	r1, #0
    afb8:	ebfff6df 	bl	8b3c <dmx_set_port_direction>
    afbc:	e2840018 	add	r0, r4, #24
    afc0:	e1a01007 	mov	r1, r7
    afc4:	ebfff9fa 	bl	97b4 <rdm_send_data>
    afc8:	e3a00004 	mov	r0, #4
    afcc:	e3a01000 	mov	r1, #0
    afd0:	eb003e14 	bl	1a828 <udelay>
    afd4:	e3a00002 	mov	r0, #2
    afd8:	e3a01001 	mov	r1, #1
    afdc:	ebfff6d6 	bl	8b3c <dmx_set_port_direction>
    afe0:	e3a0c001 	mov	ip, #1
    afe4:	e59f33a0 	ldr	r3, [pc, #928]	; b38c <widget_receive_data_from_host+0x720>
    afe8:	e1a01007 	mov	r1, r7
    afec:	e5933004 	ldr	r3, [r3, #4]
    aff0:	e2842018 	add	r2, r4, #24
    aff4:	e3a00011 	mov	r0, #17
    aff8:	e5c4c00c 	strb	ip, [r4, #12]
    affc:	e5843014 	str	r3, [r4, #20]
    b000:	ebfff81d 	bl	907c <monitor_rdm_data>
    b004:	eaffff24 	b	ac9c <widget_receive_data_from_host+0x30>
    b008:	e3a00007 	mov	r0, #7
    b00c:	e59f1388 	ldr	r1, [pc, #904]	; b39c <widget_receive_data_from_host+0x730>
    b010:	ebfff7ce 	bl	8f50 <monitor_line>
    b014:	e3a01000 	mov	r1, #0
    b018:	e3a0001c 	mov	r0, #28
    b01c:	ebfff7cb 	bl	8f50 <monitor_line>
    b020:	ebfff9a0 	bl	96a8 <rdm_device_info_get_sn>
    b024:	e1a04000 	mov	r4, r0
    b028:	ebfff9a1 	bl	96b4 <rdm_device_info_get_sn_length>
    b02c:	e1a01004 	mov	r1, r4
    b030:	e6ff2070 	uxth	r2, r0
    b034:	e3a0000a 	mov	r0, #10
    b038:	ebfffd83 	bl	a64c <usb_send_message>
    b03c:	eaffffb8 	b	af24 <widget_receive_data_from_host+0x2b8>
    b040:	e3a00007 	mov	r0, #7
    b044:	e59f1354 	ldr	r1, [pc, #852]	; b3a0 <widget_receive_data_from_host+0x734>
    b048:	ebfff7c0 	bl	8f50 <monitor_line>
    b04c:	e3a0001c 	mov	r0, #28
    b050:	e3a01000 	mov	r1, #0
    b054:	ebfff7bd 	bl	8f50 <monitor_line>
    b058:	e3a01000 	mov	r1, #0
    b05c:	e3a00002 	mov	r0, #2
    b060:	ebfff6b5 	bl	8b3c <dmx_set_port_direction>
    b064:	e59f4324 	ldr	r4, [pc, #804]	; b390 <widget_receive_data_from_host+0x724>
    b068:	e59f3334 	ldr	r3, [pc, #820]	; b3a4 <widget_receive_data_from_host+0x738>
    b06c:	e5d42018 	ldrb	r2, [r4, #24]
    b070:	e2631000 	rsb	r1, r3, #0
    b074:	e2111003 	ands	r1, r1, #3
    b078:	e5c42000 	strb	r2, [r4]
    b07c:	0a0000a6 	beq	b31c <widget_receive_data_from_host+0x6b0>
    b080:	e3a02000 	mov	r2, #0
    b084:	e3510001 	cmp	r1, #1
    b088:	e4432001 	strb	r2, [r3], #-1
    b08c:	0a0000b6 	beq	b36c <widget_receive_data_from_host+0x700>
    b090:	e3510003 	cmp	r1, #3
    b094:	e5c32002 	strb	r2, [r3, #2]
    b098:	1a0000b0 	bne	b360 <widget_receive_data_from_host+0x6f4>
    b09c:	e5c32003 	strb	r2, [r3, #3]
    b0a0:	e3a02004 	mov	r2, #4
    b0a4:	e59f52fc 	ldr	r5, [pc, #764]	; b3a8 <widget_receive_data_from_host+0x73c>
    b0a8:	e3a06f7f 	mov	r6, #508	; 0x1fc
    b0ac:	e3a0807f 	mov	r8, #127	; 0x7f
    b0b0:	e2610c02 	rsb	r0, r1, #512	; 0x200
    b0b4:	e6ff7070 	uxth	r7, r0
    b0b8:	e3a00000 	mov	r0, #0
    b0bc:	e1a0e000 	mov	lr, r0
    b0c0:	e2811001 	add	r1, r1, #1
    b0c4:	e0831001 	add	r1, r3, r1
    b0c8:	e2800001 	add	r0, r0, #1
    b0cc:	e6ffc070 	uxth	ip, r0
    b0d0:	e15c0008 	cmp	ip, r8
    b0d4:	e481e004 	str	lr, [r1], #4
    b0d8:	e3a0c000 	mov	ip, #0
    b0dc:	3afffff9 	bcc	b0c8 <widget_receive_data_from_host+0x45c>
    b0e0:	e0661005 	rsb	r1, r6, r5
    b0e4:	e1570006 	cmp	r7, r6
    b0e8:	e6ff1071 	uxth	r1, r1
    b0ec:	e0822006 	add	r2, r2, r6
    b0f0:	0a000075 	beq	b2cc <widget_receive_data_from_host+0x660>
    b0f4:	e2820001 	add	r0, r2, #1
    b0f8:	e3510001 	cmp	r1, #1
    b0fc:	e7c3c002 	strb	ip, [r3, r2]
    b100:	e6ff0070 	uxth	r0, r0
    b104:	e59fe2a0 	ldr	lr, [pc, #672]	; b3ac <widget_receive_data_from_host+0x740>
    b108:	0a00006f 	beq	b2cc <widget_receive_data_from_host+0x660>
    b10c:	e2823002 	add	r3, r2, #2
    b110:	e3510002 	cmp	r1, #2
    b114:	e6ff3073 	uxth	r3, r3
    b118:	e7cec000 	strb	ip, [lr, r0]
    b11c:	17cec003 	strbne	ip, [lr, r3]
    b120:	ea000069 	b	b2cc <widget_receive_data_from_host+0x660>
    b124:	e59f4264 	ldr	r4, [pc, #612]	; b390 <widget_receive_data_from_host+0x724>
    b128:	e3a00007 	mov	r0, #7
    b12c:	e59f127c 	ldr	r1, [pc, #636]	; b3b0 <widget_receive_data_from_host+0x744>
    b130:	ebfff786 	bl	8f50 <monitor_line>
    b134:	e3a0001c 	mov	r0, #28
    b138:	e3a01000 	mov	r1, #0
    b13c:	ebfff783 	bl	8f50 <monitor_line>
    b140:	e5d4302c 	ldrb	r3, [r4, #44]	; 0x2c
    b144:	e3a00001 	mov	r0, #1
    b148:	e2433010 	sub	r3, r3, #16
    b14c:	e16f3f13 	clz	r3, r3
    b150:	e3a01000 	mov	r1, #0
    b154:	e1a032a3 	lsr	r3, r3, #5
    b158:	e5c4300c 	strb	r3, [r4, #12]
    b15c:	ebfff676 	bl	8b3c <dmx_set_port_direction>
    b160:	e2840018 	add	r0, r4, #24
    b164:	e1a01007 	mov	r1, r7
    b168:	ebfff991 	bl	97b4 <rdm_send_data>
    b16c:	e3a00004 	mov	r0, #4
    b170:	e3a01000 	mov	r1, #0
    b174:	eb003dab 	bl	1a828 <udelay>
    b178:	e3a00002 	mov	r0, #2
    b17c:	e3a01001 	mov	r1, #1
    b180:	ebfff66d 	bl	8b3c <dmx_set_port_direction>
    b184:	e59f3200 	ldr	r3, [pc, #512]	; b38c <widget_receive_data_from_host+0x720>
    b188:	e1a01007 	mov	r1, r7
    b18c:	e5933004 	ldr	r3, [r3, #4]
    b190:	e2842018 	add	r2, r4, #24
    b194:	e3a00011 	mov	r0, #17
    b198:	e5843014 	str	r3, [r4, #20]
    b19c:	ebfff7b6 	bl	907c <monitor_rdm_data>
    b1a0:	eafffebd 	b	ac9c <widget_receive_data_from_host+0x30>
    b1a4:	e3a00007 	mov	r0, #7
    b1a8:	e59f1204 	ldr	r1, [pc, #516]	; b3b4 <widget_receive_data_from_host+0x748>
    b1ac:	ebfff767 	bl	8f50 <monitor_line>
    b1b0:	e3a0001c 	mov	r0, #28
    b1b4:	e3a01000 	mov	r1, #0
    b1b8:	ebfff764 	bl	8f50 <monitor_line>
    b1bc:	e3a00001 	mov	r0, #1
    b1c0:	e3a01000 	mov	r1, #0
    b1c4:	ebfff65c 	bl	8b3c <dmx_set_port_direction>
    b1c8:	e3570000 	cmp	r7, #0
    b1cc:	0a00002b 	beq	b280 <widget_receive_data_from_host+0x614>
    b1d0:	e59f31d4 	ldr	r3, [pc, #468]	; b3ac <widget_receive_data_from_host+0x740>
    b1d4:	e3130003 	tst	r3, #3
    b1d8:	03a02001 	moveq	r2, #1
    b1dc:	13a02000 	movne	r2, #0
    b1e0:	e3570008 	cmp	r7, #8
    b1e4:	93a02000 	movls	r2, #0
    b1e8:	82022001 	andhi	r2, r2, #1
    b1ec:	e3520000 	cmp	r2, #0
    b1f0:	0a000050 	beq	b338 <widget_receive_data_from_host+0x6cc>
    b1f4:	e1a0e003 	mov	lr, r3
    b1f8:	e3a00000 	mov	r0, #0
    b1fc:	e2471004 	sub	r1, r7, #4
    b200:	e6ff1071 	uxth	r1, r1
    b204:	e1a01121 	lsr	r1, r1, #2
    b208:	e2811001 	add	r1, r1, #1
    b20c:	e1a02101 	lsl	r2, r1, #2
    b210:	e59fc164 	ldr	ip, [pc, #356]	; b37c <widget_receive_data_from_host+0x710>
    b214:	e6ff2072 	uxth	r2, r2
    b218:	e2800001 	add	r0, r0, #1
    b21c:	e6ff5070 	uxth	r5, r0
    b220:	e49c4004 	ldr	r4, [ip], #4
    b224:	e1510005 	cmp	r1, r5
    b228:	e48e4004 	str	r4, [lr], #4
    b22c:	8afffff9 	bhi	b218 <widget_receive_data_from_host+0x5ac>
    b230:	e1570002 	cmp	r7, r2
    b234:	0a000011 	beq	b280 <widget_receive_data_from_host+0x614>
    b238:	e59f0150 	ldr	r0, [pc, #336]	; b390 <widget_receive_data_from_host+0x724>
    b23c:	e2821001 	add	r1, r2, #1
    b240:	e080c002 	add	ip, r0, r2
    b244:	e5dcc018 	ldrb	ip, [ip, #24]
    b248:	e6ff1071 	uxth	r1, r1
    b24c:	e1570001 	cmp	r7, r1
    b250:	e7c3c002 	strb	ip, [r3, r2]
    b254:	e59fc150 	ldr	ip, [pc, #336]	; b3ac <widget_receive_data_from_host+0x740>
    b258:	9a000008 	bls	b280 <widget_receive_data_from_host+0x614>
    b25c:	e2823002 	add	r3, r2, #2
    b260:	e0802001 	add	r2, r0, r1
    b264:	e6ff3073 	uxth	r3, r3
    b268:	e5d22018 	ldrb	r2, [r2, #24]
    b26c:	e1570003 	cmp	r7, r3
    b270:	e7cc2001 	strb	r2, [ip, r1]
    b274:	80800003 	addhi	r0, r0, r3
    b278:	85d02018 	ldrbhi	r2, [r0, #24]
    b27c:	87cc2003 	strbhi	r2, [ip, r3]
    b280:	e1a00007 	mov	r0, r7
    b284:	ebfff3da 	bl	81f4 <dmx_set_send_data_length>
    b288:	e3a00001 	mov	r0, #1
    b28c:	e1a01000 	mov	r1, r0
    b290:	ebfff629 	bl	8b3c <dmx_set_port_direction>
    b294:	eafffe80 	b	ac9c <widget_receive_data_from_host+0x30>
    b298:	e59f40f0 	ldr	r4, [pc, #240]	; b390 <widget_receive_data_from_host+0x724>
    b29c:	e3a00007 	mov	r0, #7
    b2a0:	e59f1110 	ldr	r1, [pc, #272]	; b3b8 <widget_receive_data_from_host+0x74c>
    b2a4:	ebfff729 	bl	8f50 <monitor_line>
    b2a8:	e3a01000 	mov	r1, #0
    b2ac:	e3a0001c 	mov	r0, #28
    b2b0:	ebfff726 	bl	8f50 <monitor_line>
    b2b4:	e5d4001a 	ldrb	r0, [r4, #26]
    b2b8:	eb0000f9 	bl	b6a4 <widget_params_set_break_time>
    b2bc:	e5d4001b 	ldrb	r0, [r4, #27]
    b2c0:	eb000105 	bl	b6dc <widget_params_set_mab_time>
    b2c4:	e5d4001c 	ldrb	r0, [r4, #28]
    b2c8:	eb000111 	bl	b714 <widget_params_set_refresh_rate>
    b2cc:	e3a00002 	mov	r0, #2
    b2d0:	e3a01001 	mov	r1, #1
    b2d4:	ebfff618 	bl	8b3c <dmx_set_port_direction>
    b2d8:	e59f30ac 	ldr	r3, [pc, #172]	; b38c <widget_receive_data_from_host+0x720>
    b2dc:	e5933004 	ldr	r3, [r3, #4]
    b2e0:	e5843010 	str	r3, [r4, #16]
    b2e4:	eafffe6c 	b	ac9c <widget_receive_data_from_host+0x30>
    b2e8:	e3a00007 	mov	r0, #7
    b2ec:	e59f10a8 	ldr	r1, [pc, #168]	; b39c <widget_receive_data_from_host+0x730>
    b2f0:	ebfff716 	bl	8f50 <monitor_line>
    b2f4:	e3a01000 	mov	r1, #0
    b2f8:	e3a0001c 	mov	r0, #28
    b2fc:	ebfff713 	bl	8f50 <monitor_line>
    b300:	e28d0008 	add	r0, sp, #8
    b304:	eb0000d8 	bl	b66c <widget_params_get>
    b308:	e28d1008 	add	r1, sp, #8
    b30c:	e3a00003 	mov	r0, #3
    b310:	e3a02005 	mov	r2, #5
    b314:	ebfffccc 	bl	a64c <usb_send_message>
    b318:	eafffe5f 	b	ac9c <widget_receive_data_from_host+0x30>
    b31c:	e3a06c02 	mov	r6, #512	; 0x200
    b320:	e3a08080 	mov	r8, #128	; 0x80
    b324:	e1a07006 	mov	r7, r6
    b328:	e1a05006 	mov	r5, r6
    b32c:	e3a02001 	mov	r2, #1
    b330:	e2433001 	sub	r3, r3, #1
    b334:	eaffff5f 	b	b0b8 <widget_receive_data_from_host+0x44c>
    b338:	e59f003c 	ldr	r0, [pc, #60]	; b37c <widget_receive_data_from_host+0x710>
    b33c:	e2472001 	sub	r2, r7, #1
    b340:	e2433001 	sub	r3, r3, #1
    b344:	e2401001 	sub	r1, r0, #1
    b348:	e6f02072 	uxtah	r2, r0, r2
    b34c:	e5f10001 	ldrb	r0, [r1, #1]!
    b350:	e1510002 	cmp	r1, r2
    b354:	e5e30001 	strb	r0, [r3, #1]!
    b358:	1afffffb 	bne	b34c <widget_receive_data_from_host+0x6e0>
    b35c:	eaffffc7 	b	b280 <widget_receive_data_from_host+0x614>
    b360:	e3a02003 	mov	r2, #3
    b364:	e59f5050 	ldr	r5, [pc, #80]	; b3bc <widget_receive_data_from_host+0x750>
    b368:	eaffff4e 	b	b0a8 <widget_receive_data_from_host+0x43c>
    b36c:	e59f504c 	ldr	r5, [pc, #76]	; b3c0 <widget_receive_data_from_host+0x754>
    b370:	e3a02002 	mov	r2, #2
    b374:	eaffff4b 	b	b0a8 <widget_receive_data_from_host+0x43c>
    b378:	20200000 	eorcs	r0, r0, r0
    b37c:	00021920 	andeq	r1, r2, r0, lsr #18
    b380:	00000259 	andeq	r0, r0, r9, asr r2
    b384:	0001e724 	andeq	lr, r1, r4, lsr #14
    b388:	0001e75c 	andeq	lr, r1, ip, asr r7
    b38c:	20003000 	andcs	r3, r0, r0
    b390:	00021908 	andeq	r1, r2, r8, lsl #18
    b394:	0001e774 	andeq	lr, r1, r4, ror r7
    b398:	0001e7b8 			; <UNDEFINED> instruction: 0x0001e7b8
    b39c:	0001e730 	andeq	lr, r1, r0, lsr r7
    b3a0:	0001e788 	andeq	lr, r1, r8, lsl #15
    b3a4:	00021ca5 	andeq	r1, r2, r5, lsr #25
    b3a8:	000001fd 	strdeq	r0, [r0], -sp
    b3ac:	00021ca4 	andeq	r1, r2, r4, lsr #25
    b3b0:	0001e7a0 	andeq	lr, r1, r0, lsr #15
    b3b4:	0001e6c8 	andeq	lr, r1, r8, asr #13
    b3b8:	0001e748 	andeq	lr, r1, r8, asr #14
    b3bc:	000001fe 	strdeq	r0, [r0], -lr
    b3c0:	000001ff 	strdeq	r0, [r0], -pc	; <UNPREDICTABLE>
    b3c4:	00000000 	andeq	r0, r0, r0

0000b3c8 <monitor_update>:
    b3c8:	e92d47f0 	push	{r4, r5, r6, r7, r8, r9, sl, lr}
    b3cc:	e24dd020 	sub	sp, sp, #32
    b3d0:	e28d0018 	add	r0, sp, #24
    b3d4:	eb0000a4 	bl	b66c <widget_params_get>
    b3d8:	e3a00003 	mov	r0, #3
    b3dc:	ebfff6eb 	bl	8f90 <monitor_time_uptime>
    b3e0:	ebfffcce 	bl	a720 <widget_get_mode>
    b3e4:	e3500003 	cmp	r0, #3
    b3e8:	0a00003a 	beq	b4d8 <monitor_update+0x110>
    b3ec:	e3a00004 	mov	r0, #4
    b3f0:	eb00045b 	bl	c564 <console_clear_line>
    b3f4:	e5dd6019 	ldrb	r6, [sp, #25]
    b3f8:	e5dd5018 	ldrb	r5, [sp, #24]
    b3fc:	e5dd401a 	ldrb	r4, [sp, #26]
    b400:	ebfff3e3 	bl	8394 <dmx_get_output_break_time>
    b404:	e5dd901b 	ldrb	r9, [sp, #27]
    b408:	e1a0a000 	mov	sl, r0
    b40c:	ebfff3fd 	bl	8408 <dmx_get_output_mab_time>
    b410:	e5dd701c 	ldrb	r7, [sp, #28]
    b414:	e1a08000 	mov	r8, r0
    b418:	ebfff34c 	bl	8150 <dmx_get_output_period>
    b41c:	ee060a90 	vmov	s13, r0
    b420:	ed9f7b30 	vldr	d7, [pc, #192]	; b4e8 <monitor_update+0x120>
    b424:	eeb86b66 	vcvt.f64.u32	d6, s13
    b428:	ee877b06 	vdiv.f64	d7, d7, d6
    b42c:	eebd7bc7 	vcvt.s32.f64	s14, d7
    b430:	e1a01006 	mov	r1, r6
    b434:	e1a02005 	mov	r2, r5
    b438:	e1a03004 	mov	r3, r4
    b43c:	ed8d7a04 	vstr	s14, [sp, #16]
    b440:	e58da000 	str	sl, [sp]
    b444:	e58d9004 	str	r9, [sp, #4]
    b448:	e58d8008 	str	r8, [sp, #8]
    b44c:	e58d700c 	str	r7, [sp, #12]
    b450:	e59f0098 	ldr	r0, [pc, #152]	; b4f0 <monitor_update+0x128>
    b454:	eb0006c8 	bl	cf7c <printf>
    b458:	e3a00009 	mov	r0, #9
    b45c:	eb000440 	bl	c564 <console_clear_line>
    b460:	ebfff3c3 	bl	8374 <dmx_get_port_direction>
    b464:	e3500002 	cmp	r0, #2
    b468:	0a000006 	beq	b488 <monitor_update+0xc0>
    b46c:	e59f0080 	ldr	r0, [pc, #128]	; b4f4 <monitor_update+0x12c>
    b470:	eb0006c1 	bl	cf7c <printf>
    b474:	e3a0000b 	mov	r0, #11
    b478:	e59f1078 	ldr	r1, [pc, #120]	; b4f8 <monitor_update+0x130>
    b47c:	ebfff727 	bl	9120 <monitor_dmx_data>
    b480:	e28dd020 	add	sp, sp, #32
    b484:	e8bd87f0 	pop	{r4, r5, r6, r7, r8, r9, sl, pc}
    b488:	ebfffca0 	bl	a710 <widget_get_receive_dmx_on_change>
    b48c:	e3500000 	cmp	r0, #0
    b490:	1a00000b 	bne	b4c4 <monitor_update+0xfc>
    b494:	e59f0060 	ldr	r0, [pc, #96]	; b4fc <monitor_update+0x134>
    b498:	eb0006b7 	bl	cf7c <printf>
    b49c:	ebfffcaf 	bl	a760 <widget_get_received_dmx_packet_count>
    b4a0:	e1a05000 	mov	r5, r0
    b4a4:	e59f4054 	ldr	r4, [pc, #84]	; b500 <monitor_update+0x138>
    b4a8:	e3a0001d 	mov	r0, #29
    b4ac:	e5942000 	ldr	r2, [r4]
    b4b0:	e59f104c 	ldr	r1, [pc, #76]	; b504 <monitor_update+0x13c>
    b4b4:	e0622005 	rsb	r2, r2, r5
    b4b8:	ebfff6a4 	bl	8f50 <monitor_line>
    b4bc:	e5845000 	str	r5, [r4]
    b4c0:	eaffffeb 	b	b474 <monitor_update+0xac>
    b4c4:	e59f003c 	ldr	r0, [pc, #60]	; b508 <monitor_update+0x140>
    b4c8:	eb0006ab 	bl	cf7c <printf>
    b4cc:	e3a0001d 	mov	r0, #29
    b4d0:	eb000423 	bl	c564 <console_clear_line>
    b4d4:	eaffffe6 	b	b474 <monitor_update+0xac>
    b4d8:	ebfff75b 	bl	924c <monitor_sniffer>
    b4dc:	e28dd020 	add	sp, sp, #32
    b4e0:	e8bd87f0 	pop	{r4, r5, r6, r7, r8, r9, sl, pc}
    b4e4:	e320f000 	nop	{0}
    b4e8:	00000000 	andeq	r0, r0, r0
    b4ec:	412e8480 	smlawbmi	lr, r0, r4, r8
    b4f0:	0001e7d4 	ldrdeq	lr, [r1], -r4
    b4f4:	0001e86c 	andeq	lr, r1, ip, ror #16
    b4f8:	00021ca4 	andeq	r1, r2, r4, lsr #25
    b4fc:	0001e818 	andeq	lr, r1, r8, lsl r8
    b500:	00021b78 	andeq	r1, r2, r8, ror fp
    b504:	0001e82c 	andeq	lr, r1, ip, lsr #16
    b508:	0001e848 	andeq	lr, r1, r8, asr #16
    b50c:	e320f000 	nop	{0}

0000b510 <read_config_file>:
    b510:	e92d4010 	push	{r4, lr}
    b514:	e24dde4e 	sub	sp, sp, #1248	; 0x4e0
    b518:	e24dd008 	sub	sp, sp, #8
    b51c:	e28d1fad 	add	r1, sp, #692	; 0x2b4
    b520:	e3a00000 	mov	r0, #0
    b524:	eb001c7d 	bl	12720 <f_mount>
    b528:	e28d3090 	add	r3, sp, #144	; 0x90
    b52c:	e1a00003 	mov	r0, r3
    b530:	e59f1114 	ldr	r1, [pc, #276]	; b64c <read_config_file+0x13c>
    b534:	e3a02001 	mov	r2, #1
    b538:	e58d3004 	str	r3, [sp, #4]
    b53c:	eb001c86 	bl	1275c <f_open>
    b540:	e3500000 	cmp	r0, #0
    b544:	1a000034 	bne	b61c <read_config_file+0x10c>
    b548:	e59f4100 	ldr	r4, [pc, #256]	; b650 <read_config_file+0x140>
    b54c:	e28d0010 	add	r0, sp, #16
    b550:	e3a01080 	mov	r1, #128	; 0x80
    b554:	e59d2004 	ldr	r2, [sp, #4]
    b558:	eb002eb5 	bl	17034 <f_gets>
    b55c:	e3500000 	cmp	r0, #0
    b560:	0a00002b 	beq	b614 <read_config_file+0x104>
    b564:	e28d200f 	add	r2, sp, #15
    b568:	e28d0010 	add	r0, sp, #16
    b56c:	e59f10e0 	ldr	r1, [pc, #224]	; b654 <read_config_file+0x144>
    b570:	ebfffa9d 	bl	9fec <sscan_uint8_t>
    b574:	e3500002 	cmp	r0, #2
    b578:	1a000005 	bne	b594 <read_config_file+0x84>
    b57c:	e5dd300f 	ldrb	r3, [sp, #15]
    b580:	e2432009 	sub	r2, r3, #9
    b584:	e3520076 	cmp	r2, #118	; 0x76
    b588:	959f20c8 	ldrls	r2, [pc, #200]	; b658 <read_config_file+0x148>
    b58c:	95c23002 	strbls	r3, [r2, #2]
    b590:	eaffffed 	b	b54c <read_config_file+0x3c>
    b594:	e28d0010 	add	r0, sp, #16
    b598:	e59f10bc 	ldr	r1, [pc, #188]	; b65c <read_config_file+0x14c>
    b59c:	e28d200f 	add	r2, sp, #15
    b5a0:	ebfffa91 	bl	9fec <sscan_uint8_t>
    b5a4:	e3500002 	cmp	r0, #2
    b5a8:	1a000005 	bne	b5c4 <read_config_file+0xb4>
    b5ac:	e5dd300f 	ldrb	r3, [sp, #15]
    b5b0:	e6af2073 	sxtb	r2, r3
    b5b4:	e3520000 	cmp	r2, #0
    b5b8:	c59f2098 	ldrgt	r2, [pc, #152]	; b658 <read_config_file+0x148>
    b5bc:	c5c23003 	strbgt	r3, [r2, #3]
    b5c0:	eaffffe1 	b	b54c <read_config_file+0x3c>
    b5c4:	e28d0010 	add	r0, sp, #16
    b5c8:	e59f1090 	ldr	r1, [pc, #144]	; b660 <read_config_file+0x150>
    b5cc:	e28d200f 	add	r2, sp, #15
    b5d0:	ebfffa85 	bl	9fec <sscan_uint8_t>
    b5d4:	e3500002 	cmp	r0, #2
    b5d8:	0a000012 	beq	b628 <read_config_file+0x118>
    b5dc:	e28d0010 	add	r0, sp, #16
    b5e0:	e59f107c 	ldr	r1, [pc, #124]	; b664 <read_config_file+0x154>
    b5e4:	e28d200f 	add	r2, sp, #15
    b5e8:	ebfffa7f 	bl	9fec <sscan_uint8_t>
    b5ec:	e3500002 	cmp	r0, #2
    b5f0:	0a000010 	beq	b638 <read_config_file+0x128>
    b5f4:	e28d200f 	add	r2, sp, #15
    b5f8:	e28d0010 	add	r0, sp, #16
    b5fc:	e59f1064 	ldr	r1, [pc, #100]	; b668 <read_config_file+0x158>
    b600:	ebfffa79 	bl	9fec <sscan_uint8_t>
    b604:	e3500002 	cmp	r0, #2
    b608:	05dd300f 	ldrbeq	r3, [sp, #15]
    b60c:	05c43000 	strbeq	r3, [r4]
    b610:	eaffffcd 	b	b54c <read_config_file+0x3c>
    b614:	e59d0004 	ldr	r0, [sp, #4]
    b618:	eb002002 	bl	13628 <f_close>
    b61c:	e28dde4e 	add	sp, sp, #1248	; 0x4e0
    b620:	e28dd008 	add	sp, sp, #8
    b624:	e8bd8010 	pop	{r4, pc}
    b628:	e59f3028 	ldr	r3, [pc, #40]	; b658 <read_config_file+0x148>
    b62c:	e5dd200f 	ldrb	r2, [sp, #15]
    b630:	e5c32004 	strb	r2, [r3, #4]
    b634:	eaffffc4 	b	b54c <read_config_file+0x3c>
    b638:	e5dd300f 	ldrb	r3, [sp, #15]
    b63c:	e3530003 	cmp	r3, #3
    b640:	959f2010 	ldrls	r2, [pc, #16]	; b658 <read_config_file+0x148>
    b644:	95c23001 	strbls	r3, [r2, #1]
    b648:	eaffffbf 	b	b54c <read_config_file+0x3c>
    b64c:	0001d97c 	andeq	sp, r1, ip, ror r9
    b650:	00021b7c 	andeq	r1, r2, ip, ror fp
    b654:	0001d988 	andeq	sp, r1, r8, lsl #19
    b658:	0001edb4 			; <UNDEFINED> instruction: 0x0001edb4
    b65c:	0001d9a0 	andeq	sp, r1, r0, lsr #19
    b660:	0001d9b4 			; <UNDEFINED> instruction: 0x0001d9b4
    b664:	0001d9cc 	andeq	sp, r1, ip, asr #19
    b668:	0001d9d8 	ldrdeq	sp, [r1], -r8

0000b66c <widget_params_get>:
    b66c:	e52de004 	push	{lr}		; (str lr, [sp, #-4]!)
    b670:	e59f3028 	ldr	r3, [pc, #40]	; b6a0 <widget_params_get+0x34>
    b674:	e5d3e002 	ldrb	lr, [r3, #2]
    b678:	e5d3c000 	ldrb	ip, [r3]
    b67c:	e5d31001 	ldrb	r1, [r3, #1]
    b680:	e5d32003 	ldrb	r2, [r3, #3]
    b684:	e5d33004 	ldrb	r3, [r3, #4]
    b688:	e5c0e002 	strb	lr, [r0, #2]
    b68c:	e5c0c000 	strb	ip, [r0]
    b690:	e5c01001 	strb	r1, [r0, #1]
    b694:	e5c02003 	strb	r2, [r0, #3]
    b698:	e5c03004 	strb	r3, [r0, #4]
    b69c:	e49df004 	pop	{pc}		; (ldr pc, [sp], #4)
    b6a0:	0001edb4 			; <UNDEFINED> instruction: 0x0001edb4

0000b6a4 <widget_params_set_break_time>:
    b6a4:	ee070a90 	vmov	s15, r0
    b6a8:	ed9f6b08 	vldr	d6, [pc, #32]	; b6d0 <widget_params_set_break_time+0x2c>
    b6ac:	eeb87b67 	vcvt.f64.u32	d7, s15
    b6b0:	ee277b06 	vmul.f64	d7, d7, d6
    b6b4:	eefc7bc7 	vcvt.u32.f64	s15, d7
    b6b8:	e1a03000 	mov	r3, r0
    b6bc:	e59f2014 	ldr	r2, [pc, #20]	; b6d8 <widget_params_set_break_time+0x34>
    b6c0:	ee170a90 	vmov	r0, s15
    b6c4:	e5c23002 	strb	r3, [r2, #2]
    b6c8:	eafff335 	b	83a4 <dmx_set_output_break_time>
    b6cc:	e320f000 	nop	{0}
    b6d0:	3d70a3d7 	ldclcc	3, cr10, [r0, #-860]!	; 0xfffffca4
    b6d4:	4025570a 	eormi	r5, r5, sl, lsl #14
    b6d8:	0001edb4 			; <UNDEFINED> instruction: 0x0001edb4

0000b6dc <widget_params_set_mab_time>:
    b6dc:	ee070a90 	vmov	s15, r0
    b6e0:	ed9f6b08 	vldr	d6, [pc, #32]	; b708 <widget_params_set_mab_time+0x2c>
    b6e4:	eeb87b67 	vcvt.f64.u32	d7, s15
    b6e8:	ee277b06 	vmul.f64	d7, d7, d6
    b6ec:	eefc7bc7 	vcvt.u32.f64	s15, d7
    b6f0:	e1a03000 	mov	r3, r0
    b6f4:	e59f2014 	ldr	r2, [pc, #20]	; b710 <widget_params_set_mab_time+0x34>
    b6f8:	ee170a90 	vmov	r0, s15
    b6fc:	e5c23003 	strb	r3, [r2, #3]
    b700:	eafff344 	b	8418 <dmx_set_output_mab_time>
    b704:	e320f000 	nop	{0}
    b708:	3d70a3d7 	ldclcc	3, cr10, [r0, #-860]!	; 0xfffffca4
    b70c:	4025570a 	eormi	r5, r5, sl, lsl #14
    b710:	0001edb4 			; <UNDEFINED> instruction: 0x0001edb4

0000b714 <widget_params_set_refresh_rate>:
    b714:	e3500000 	cmp	r0, #0
    b718:	1e070a90 	vmovne	s15, r0
    b71c:	1d9f6b0b 	vldrne	d6, [pc, #44]	; b750 <widget_params_set_refresh_rate+0x3c>
    b720:	1eb87be7 	vcvtne.f64.s32	d7, s15
    b724:	1e867b07 	vdivne.f64	d7, d6, d7
    b728:	1efc7bc7 	vcvtne.u32.f64	s15, d7
    b72c:	e59f3024 	ldr	r3, [pc, #36]	; b758 <widget_params_set_refresh_rate+0x44>
    b730:	e24dd008 	sub	sp, sp, #8
    b734:	e5c30004 	strb	r0, [r3, #4]
    b738:	1e170a90 	vmovne	r0, s15
    b73c:	1dcd7a01 	vstrne	s15, [sp, #4]
    b740:	058d0004 	streq	r0, [sp, #4]
    b744:	e28dd008 	add	sp, sp, #8
    b748:	eafff284 	b	8160 <dmx_set_output_period>
    b74c:	e320f000 	nop	{0}
    b750:	00000000 	andeq	r0, r0, r0
    b754:	412e8480 	smlawbmi	lr, r0, r4, r8
    b758:	0001edb4 			; <UNDEFINED> instruction: 0x0001edb4

0000b75c <widget_params_get_type_id>:
    b75c:	e59f0000 	ldr	r0, [pc]	; b764 <widget_params_get_type_id+0x8>
    b760:	e12fff1e 	bx	lr
    b764:	0001d9f4 	strdeq	sp, [r1], -r4

0000b768 <widget_params_get_type_id_length>:
    b768:	e3a00002 	mov	r0, #2
    b76c:	e12fff1e 	bx	lr

0000b770 <widget_params_get_throttle>:
    b770:	e59f3004 	ldr	r3, [pc, #4]	; b77c <widget_params_get_throttle+0xc>
    b774:	e5d30000 	ldrb	r0, [r3]
    b778:	e12fff1e 	bx	lr
    b77c:	00021b7c 	andeq	r1, r2, ip, ror fp

0000b780 <widget_params_set_throttle>:
    b780:	e59f3004 	ldr	r3, [pc, #4]	; b78c <widget_params_set_throttle+0xc>
    b784:	e5c30000 	strb	r0, [r3]
    b788:	e12fff1e 	bx	lr
    b78c:	00021b7c 	andeq	r1, r2, ip, ror fp

0000b790 <widget_params_init>:
    b790:	e92d4010 	push	{r4, lr}
    b794:	ed2d8b02 	vpush	{d8}
    b798:	e59f40d8 	ldr	r4, [pc, #216]	; b878 <widget_params_init+0xe8>
    b79c:	e24dd008 	sub	sp, sp, #8
    b7a0:	ebffff5a 	bl	b510 <read_config_file>
    b7a4:	e5d43004 	ldrb	r3, [r4, #4]
    b7a8:	ed9f8b2e 	vldr	d8, [pc, #184]	; b868 <widget_params_init+0xd8>
    b7ac:	e3530000 	cmp	r3, #0
    b7b0:	1e073a90 	vmovne	s15, r3
    b7b4:	1d9f6b2d 	vldrne	d6, [pc, #180]	; b870 <widget_params_init+0xe0>
    b7b8:	1eb87be7 	vcvtne.f64.s32	d7, s15
    b7bc:	1e867b07 	vdivne.f64	d7, d6, d7
    b7c0:	1efc7bc7 	vcvtne.u32.f64	s15, d7
    b7c4:	01a00003 	moveq	r0, r3
    b7c8:	1e170a90 	vmovne	r0, s15
    b7cc:	1dcd7a01 	vstrne	s15, [sp, #4]
    b7d0:	058d3004 	streq	r3, [sp, #4]
    b7d4:	ebfff261 	bl	8160 <dmx_set_output_period>
    b7d8:	e59f309c 	ldr	r3, [pc, #156]	; b87c <widget_params_init+0xec>
    b7dc:	e5d33000 	ldrb	r3, [r3]
    b7e0:	e3530000 	cmp	r3, #0
    b7e4:	1e073a90 	vmovne	s15, r3
    b7e8:	1d9f6b20 	vldrne	d6, [pc, #128]	; b870 <widget_params_init+0xe0>
    b7ec:	1eb87be7 	vcvtne.f64.s32	d7, s15
    b7f0:	1e867b07 	vdivne.f64	d7, d6, d7
    b7f4:	1efc7bc7 	vcvtne.u32.f64	s15, d7
    b7f8:	01a00003 	moveq	r0, r3
    b7fc:	1e170a90 	vmovne	r0, s15
    b800:	1dcd7a01 	vstrne	s15, [sp, #4]
    b804:	058d3004 	streq	r3, [sp, #4]
    b808:	ebfffbd0 	bl	a750 <widget_set_received_dmx_packet_period>
    b80c:	e5d40001 	ldrb	r0, [r4, #1]
    b810:	e59f3060 	ldr	r3, [pc, #96]	; b878 <widget_params_init+0xe8>
    b814:	e3500000 	cmp	r0, #0
    b818:	03a02002 	moveq	r2, #2
    b81c:	05c32001 	strbeq	r2, [r3, #1]
    b820:	ebfffbc2 	bl	a730 <widget_set_mode>
    b824:	e5d43002 	ldrb	r3, [r4, #2]
    b828:	ee063a10 	vmov	s12, r3
    b82c:	eeb86b46 	vcvt.f64.u32	d6, s12
    b830:	ee266b08 	vmul.f64	d6, d6, d8
    b834:	eefc7bc6 	vcvt.u32.f64	s15, d6
    b838:	ee170a90 	vmov	r0, s15
    b83c:	ebfff2d8 	bl	83a4 <dmx_set_output_break_time>
    b840:	e5d43003 	ldrb	r3, [r4, #3]
    b844:	ee073a10 	vmov	s14, r3
    b848:	eeb87b47 	vcvt.f64.u32	d7, s14
    b84c:	ee277b08 	vmul.f64	d7, d7, d8
    b850:	eefc7bc7 	vcvt.u32.f64	s15, d7
    b854:	ee170a90 	vmov	r0, s15
    b858:	e28dd008 	add	sp, sp, #8
    b85c:	ecbd8b02 	vpop	{d8}
    b860:	e8bd4010 	pop	{r4, lr}
    b864:	eafff2eb 	b	8418 <dmx_set_output_mab_time>
    b868:	3d70a3d7 	ldclcc	3, cr10, [r0, #-860]!	; 0xfffffca4
    b86c:	4025570a 	eormi	r5, r5, sl, lsl #14
    b870:	00000000 	andeq	r0, r0, r0
    b874:	412e8480 	smlawbmi	lr, r0, r4, r8
    b878:	0001edb4 			; <UNDEFINED> instruction: 0x0001edb4
    b87c:	00021b7c 	andeq	r1, r2, ip, ror fp

0000b880 <rdm_statistics_get>:
    b880:	e59f0000 	ldr	r0, [pc]	; b888 <rdm_statistics_get+0x8>
    b884:	e12fff1e 	bx	lr
    b888:	00021b80 	andeq	r1, r2, r0, lsl #23

0000b88c <widget_sniffer_dmx>:
    b88c:	e92d41f0 	push	{r4, r5, r6, r7, r8, lr}
    b890:	ebfffba2 	bl	a720 <widget_get_mode>
    b894:	e3500003 	cmp	r0, #3
    b898:	18bd81f0 	popne	{r4, r5, r6, r7, r8, pc}
    b89c:	ebfff280 	bl	82a4 <dmx_get_available>
    b8a0:	e3500000 	cmp	r0, #0
    b8a4:	08bd81f0 	popeq	{r4, r5, r6, r7, r8, pc}
    b8a8:	e59f3148 	ldr	r3, [pc, #328]	; b9f8 <widget_sniffer_dmx+0x16c>
    b8ac:	e59f1148 	ldr	r1, [pc, #328]	; b9fc <widget_sniffer_dmx+0x170>
    b8b0:	e5932004 	ldr	r2, [r3, #4]
    b8b4:	e1a00003 	mov	r0, r3
    b8b8:	e2822ffa 	add	r2, r2, #1000	; 0x3e8
    b8bc:	ea000002 	b	b8cc <widget_sniffer_dmx+0x40>
    b8c0:	e5903004 	ldr	r3, [r0, #4]
    b8c4:	e1520003 	cmp	r2, r3
    b8c8:	9a000002 	bls	b8d8 <widget_sniffer_dmx+0x4c>
    b8cc:	e5913034 	ldr	r3, [r1, #52]	; 0x34
    b8d0:	e3130401 	tst	r3, #16777216	; 0x1000000
    b8d4:	1afffff9 	bne	b8c0 <widget_sniffer_dmx+0x34>
    b8d8:	e59f311c 	ldr	r3, [pc, #284]	; b9fc <widget_sniffer_dmx+0x170>
    b8dc:	e5933034 	ldr	r3, [r3, #52]	; 0x34
    b8e0:	e2136401 	ands	r6, r3, #16777216	; 0x1000000
    b8e4:	1a00003f 	bne	b9e8 <widget_sniffer_dmx+0x15c>
    b8e8:	ebfff271 	bl	82b4 <dmx_set_available_false>
    b8ec:	e3a00007 	mov	r0, #7
    b8f0:	e1a01006 	mov	r1, r6
    b8f4:	ebfff595 	bl	8f50 <monitor_line>
    b8f8:	ebfff272 	bl	82c8 <dmx_is_data_changed>
    b8fc:	e3500000 	cmp	r0, #0
    b900:	08bd81f0 	popeq	{r4, r5, r6, r7, r8, pc}
    b904:	e3a00007 	mov	r0, #7
    b908:	e59f10f0 	ldr	r1, [pc, #240]	; ba00 <widget_sniffer_dmx+0x174>
    b90c:	ebfff58f 	bl	8f50 <monitor_line>
    b910:	ebfff24e 	bl	8250 <dmx_get_statistics>
    b914:	e5907004 	ldr	r7, [r0, #4]
    b918:	e2877001 	add	r7, r7, #1
    b91c:	e6ff7077 	uxth	r7, r7
    b920:	e3570063 	cmp	r7, #99	; 0x63
    b924:	859f80d8 	ldrhi	r8, [pc, #216]	; ba04 <widget_sniffer_dmx+0x178>
    b928:	9a000013 	bls	b97c <widget_sniffer_dmx+0xf0>
    b92c:	e3a00081 	mov	r0, #129	; 0x81
    b930:	e3a010c8 	mov	r1, #200	; 0xc8
    b934:	ebfffb10 	bl	a57c <usb_send_header>
    b938:	e2464001 	sub	r4, r6, #1
    b93c:	e2865063 	add	r5, r6, #99	; 0x63
    b940:	e0884004 	add	r4, r8, r4
    b944:	e0885005 	add	r5, r8, r5
    b948:	e3a00080 	mov	r0, #128	; 0x80
    b94c:	ebfffb04 	bl	a564 <usb_send_byte>
    b950:	e5f40001 	ldrb	r0, [r4, #1]!
    b954:	ebfffb02 	bl	a564 <usb_send_byte>
    b958:	e1540005 	cmp	r4, r5
    b95c:	1afffff9 	bne	b948 <widget_sniffer_dmx+0xbc>
    b960:	e2477064 	sub	r7, r7, #100	; 0x64
    b964:	e6ff7077 	uxth	r7, r7
    b968:	ebfffb30 	bl	a630 <usb_send_footer>
    b96c:	e2866064 	add	r6, r6, #100	; 0x64
    b970:	e3570063 	cmp	r7, #99	; 0x63
    b974:	e6ff6076 	uxth	r6, r6
    b978:	8affffeb 	bhi	b92c <widget_sniffer_dmx+0xa0>
    b97c:	e3a00081 	mov	r0, #129	; 0x81
    b980:	e3a010c8 	mov	r1, #200	; 0xc8
    b984:	ebfffafc 	bl	a57c <usb_send_header>
    b988:	e3570000 	cmp	r7, #0
    b98c:	0a00000b 	beq	b9c0 <widget_sniffer_dmx+0x134>
    b990:	e59f406c 	ldr	r4, [pc, #108]	; ba04 <widget_sniffer_dmx+0x178>
    b994:	e2475001 	sub	r5, r7, #1
    b998:	e6f65075 	uxtah	r5, r6, r5
    b99c:	e2466001 	sub	r6, r6, #1
    b9a0:	e0855004 	add	r5, r5, r4
    b9a4:	e0864004 	add	r4, r6, r4
    b9a8:	e3a00080 	mov	r0, #128	; 0x80
    b9ac:	ebfffaec 	bl	a564 <usb_send_byte>
    b9b0:	e5f40001 	ldrb	r0, [r4, #1]!
    b9b4:	ebfffaea 	bl	a564 <usb_send_byte>
    b9b8:	e1540005 	cmp	r4, r5
    b9bc:	1afffff9 	bne	b9a8 <widget_sniffer_dmx+0x11c>
    b9c0:	e3a00000 	mov	r0, #0
    b9c4:	e2877001 	add	r7, r7, #1
    b9c8:	ebfffae5 	bl	a564 <usb_send_byte>
    b9cc:	e6ff7077 	uxth	r7, r7
    b9d0:	e3a00002 	mov	r0, #2
    b9d4:	ebfffae2 	bl	a564 <usb_send_byte>
    b9d8:	e3570064 	cmp	r7, #100	; 0x64
    b9dc:	1afffff7 	bne	b9c0 <widget_sniffer_dmx+0x134>
    b9e0:	e8bd41f0 	pop	{r4, r5, r6, r7, r8, lr}
    b9e4:	eafffb11 	b	a630 <usb_send_footer>
    b9e8:	e3a00007 	mov	r0, #7
    b9ec:	e8bd41f0 	pop	{r4, r5, r6, r7, r8, lr}
    b9f0:	e59f1010 	ldr	r1, [pc, #16]	; ba08 <widget_sniffer_dmx+0x17c>
    b9f4:	eafff555 	b	8f50 <monitor_line>
    b9f8:	20003000 	andcs	r3, r0, r0
    b9fc:	20200000 	eorcs	r0, r0, r0
    ba00:	0001e894 	muleq	r1, r4, r8
    ba04:	00021ca4 	andeq	r1, r2, r4, lsr #25
    ba08:	0001e874 	andeq	lr, r1, r4, ror r8

0000ba0c <widget_sniffer_rdm>:
    ba0c:	e92d41f0 	push	{r4, r5, r6, r7, r8, lr}
    ba10:	ebfffb42 	bl	a720 <widget_get_mode>
    ba14:	e3500003 	cmp	r0, #3
    ba18:	18bd81f0 	popne	{r4, r5, r6, r7, r8, pc}
    ba1c:	ebfff20e 	bl	825c <rdm_get_available>
    ba20:	e2508000 	subs	r8, r0, #0
    ba24:	08bd81f0 	popeq	{r4, r5, r6, r7, r8, pc}
    ba28:	e59f323c 	ldr	r3, [pc, #572]	; bc6c <widget_sniffer_rdm+0x260>
    ba2c:	e59f123c 	ldr	r1, [pc, #572]	; bc70 <widget_sniffer_rdm+0x264>
    ba30:	e5932004 	ldr	r2, [r3, #4]
    ba34:	e1a00003 	mov	r0, r3
    ba38:	e2822ffa 	add	r2, r2, #1000	; 0x3e8
    ba3c:	ea000002 	b	ba4c <widget_sniffer_rdm+0x40>
    ba40:	e5903004 	ldr	r3, [r0, #4]
    ba44:	e1520003 	cmp	r2, r3
    ba48:	9a000002 	bls	ba58 <widget_sniffer_rdm+0x4c>
    ba4c:	e5913034 	ldr	r3, [r1, #52]	; 0x34
    ba50:	e3130401 	tst	r3, #16777216	; 0x1000000
    ba54:	1afffff9 	bne	ba40 <widget_sniffer_rdm+0x34>
    ba58:	e59f3210 	ldr	r3, [pc, #528]	; bc70 <widget_sniffer_rdm+0x264>
    ba5c:	e3a00007 	mov	r0, #7
    ba60:	e5933034 	ldr	r3, [r3, #52]	; 0x34
    ba64:	e2136401 	ands	r6, r3, #16777216	; 0x1000000
    ba68:	1a000021 	bne	baf4 <widget_sniffer_rdm+0xe8>
    ba6c:	e59f1200 	ldr	r1, [pc, #512]	; bc74 <widget_sniffer_rdm+0x268>
    ba70:	ebfff536 	bl	8f50 <monitor_line>
    ba74:	e5d83000 	ldrb	r3, [r8]
    ba78:	e35300cc 	cmp	r3, #204	; 0xcc
    ba7c:	0a000025 	beq	bb18 <widget_sniffer_rdm+0x10c>
    ba80:	e35300fe 	cmp	r3, #254	; 0xfe
    ba84:	0a00001d 	beq	bb00 <widget_sniffer_rdm+0xf4>
    ba88:	e3a07000 	mov	r7, #0
    ba8c:	e3a00081 	mov	r0, #129	; 0x81
    ba90:	e3a010c8 	mov	r1, #200	; 0xc8
    ba94:	ebfffab8 	bl	a57c <usb_send_header>
    ba98:	e3560000 	cmp	r6, #0
    ba9c:	0a00000a 	beq	bacc <widget_sniffer_rdm+0xc0>
    baa0:	e2872001 	add	r2, r7, #1
    baa4:	e2463001 	sub	r3, r6, #1
    baa8:	e6f23073 	uxtah	r3, r2, r3
    baac:	e0887007 	add	r7, r8, r7
    bab0:	e0888003 	add	r8, r8, r3
    bab4:	e3a00080 	mov	r0, #128	; 0x80
    bab8:	ebfffaa9 	bl	a564 <usb_send_byte>
    babc:	e4d70001 	ldrb	r0, [r7], #1
    bac0:	ebfffaa7 	bl	a564 <usb_send_byte>
    bac4:	e1570008 	cmp	r7, r8
    bac8:	1afffff9 	bne	bab4 <widget_sniffer_rdm+0xa8>
    bacc:	e3a00000 	mov	r0, #0
    bad0:	e2866001 	add	r6, r6, #1
    bad4:	ebfffaa2 	bl	a564 <usb_send_byte>
    bad8:	e6ff6076 	uxth	r6, r6
    badc:	e3a00002 	mov	r0, #2
    bae0:	ebfffa9f 	bl	a564 <usb_send_byte>
    bae4:	e3560064 	cmp	r6, #100	; 0x64
    bae8:	1afffff7 	bne	bacc <widget_sniffer_rdm+0xc0>
    baec:	e8bd41f0 	pop	{r4, r5, r6, r7, r8, lr}
    baf0:	eaffface 	b	a630 <usb_send_footer>
    baf4:	e59f117c 	ldr	r1, [pc, #380]	; bc78 <widget_sniffer_rdm+0x26c>
    baf8:	e8bd41f0 	pop	{r4, r5, r6, r7, r8, lr}
    bafc:	eafff513 	b	8f50 <monitor_line>
    bb00:	e59f2174 	ldr	r2, [pc, #372]	; bc7c <widget_sniffer_rdm+0x270>
    bb04:	e3a06018 	mov	r6, #24
    bb08:	e5923004 	ldr	r3, [r2, #4]
    bb0c:	e2833001 	add	r3, r3, #1
    bb10:	e5823004 	str	r3, [r2, #4]
    bb14:	eaffffdb 	b	ba88 <widget_sniffer_rdm+0x7c>
    bb18:	e5d86002 	ldrb	r6, [r8, #2]
    bb1c:	e5d83014 	ldrb	r3, [r8, #20]
    bb20:	e2866002 	add	r6, r6, #2
    bb24:	e2433010 	sub	r3, r3, #16
    bb28:	e6ef6076 	uxtb	r6, r6
    bb2c:	e3530020 	cmp	r3, #32
    bb30:	979ff103 	ldrls	pc, [pc, r3, lsl #2]
    bb34:	ea000024 	b	bbcc <widget_sniffer_rdm+0x1c0>
    bb38:	0000bc44 	andeq	fp, r0, r4, asr #24
    bb3c:	0000bc58 	andeq	fp, r0, r8, asr ip
    bb40:	0000bbcc 	andeq	fp, r0, ip, asr #23
    bb44:	0000bbcc 	andeq	fp, r0, ip, asr #23
    bb48:	0000bbcc 	andeq	fp, r0, ip, asr #23
    bb4c:	0000bbcc 	andeq	fp, r0, ip, asr #23
    bb50:	0000bbcc 	andeq	fp, r0, ip, asr #23
    bb54:	0000bbcc 	andeq	fp, r0, ip, asr #23
    bb58:	0000bbcc 	andeq	fp, r0, ip, asr #23
    bb5c:	0000bbcc 	andeq	fp, r0, ip, asr #23
    bb60:	0000bbcc 	andeq	fp, r0, ip, asr #23
    bb64:	0000bbcc 	andeq	fp, r0, ip, asr #23
    bb68:	0000bbcc 	andeq	fp, r0, ip, asr #23
    bb6c:	0000bbcc 	andeq	fp, r0, ip, asr #23
    bb70:	0000bbcc 	andeq	fp, r0, ip, asr #23
    bb74:	0000bbcc 	andeq	fp, r0, ip, asr #23
    bb78:	0000bc30 	andeq	fp, r0, r0, lsr ip
    bb7c:	0000bbcc 	andeq	fp, r0, ip, asr #23
    bb80:	0000bbcc 	andeq	fp, r0, ip, asr #23
    bb84:	0000bbcc 	andeq	fp, r0, ip, asr #23
    bb88:	0000bbcc 	andeq	fp, r0, ip, asr #23
    bb8c:	0000bbcc 	andeq	fp, r0, ip, asr #23
    bb90:	0000bbcc 	andeq	fp, r0, ip, asr #23
    bb94:	0000bbcc 	andeq	fp, r0, ip, asr #23
    bb98:	0000bbcc 	andeq	fp, r0, ip, asr #23
    bb9c:	0000bbcc 	andeq	fp, r0, ip, asr #23
    bba0:	0000bbcc 	andeq	fp, r0, ip, asr #23
    bba4:	0000bbcc 	andeq	fp, r0, ip, asr #23
    bba8:	0000bbcc 	andeq	fp, r0, ip, asr #23
    bbac:	0000bbcc 	andeq	fp, r0, ip, asr #23
    bbb0:	0000bbcc 	andeq	fp, r0, ip, asr #23
    bbb4:	0000bbcc 	andeq	fp, r0, ip, asr #23
    bbb8:	0000bbbc 			; <UNDEFINED> instruction: 0x0000bbbc
    bbbc:	e59f20b8 	ldr	r2, [pc, #184]	; bc7c <widget_sniffer_rdm+0x270>
    bbc0:	e592300c 	ldr	r3, [r2, #12]
    bbc4:	e2833001 	add	r3, r3, #1
    bbc8:	e582300c 	str	r3, [r2, #12]
    bbcc:	e3560063 	cmp	r6, #99	; 0x63
    bbd0:	e3a07000 	mov	r7, #0
    bbd4:	e6ff6076 	uxth	r6, r6
    bbd8:	9affffab 	bls	ba8c <widget_sniffer_rdm+0x80>
    bbdc:	e3a00081 	mov	r0, #129	; 0x81
    bbe0:	e3a010c8 	mov	r1, #200	; 0xc8
    bbe4:	ebfffa64 	bl	a57c <usb_send_header>
    bbe8:	e2474001 	sub	r4, r7, #1
    bbec:	e2875063 	add	r5, r7, #99	; 0x63
    bbf0:	e0884004 	add	r4, r8, r4
    bbf4:	e0885005 	add	r5, r8, r5
    bbf8:	e3a00080 	mov	r0, #128	; 0x80
    bbfc:	ebfffa58 	bl	a564 <usb_send_byte>
    bc00:	e5f40001 	ldrb	r0, [r4, #1]!
    bc04:	ebfffa56 	bl	a564 <usb_send_byte>
    bc08:	e1540005 	cmp	r4, r5
    bc0c:	1afffff9 	bne	bbf8 <widget_sniffer_rdm+0x1ec>
    bc10:	e2466064 	sub	r6, r6, #100	; 0x64
    bc14:	e6ff6076 	uxth	r6, r6
    bc18:	ebfffa84 	bl	a630 <usb_send_footer>
    bc1c:	e2877064 	add	r7, r7, #100	; 0x64
    bc20:	e3560063 	cmp	r6, #99	; 0x63
    bc24:	e6ff7077 	uxth	r7, r7
    bc28:	8affffeb 	bhi	bbdc <widget_sniffer_rdm+0x1d0>
    bc2c:	eaffff96 	b	ba8c <widget_sniffer_rdm+0x80>
    bc30:	e59f2044 	ldr	r2, [pc, #68]	; bc7c <widget_sniffer_rdm+0x270>
    bc34:	e5923008 	ldr	r3, [r2, #8]
    bc38:	e2833001 	add	r3, r3, #1
    bc3c:	e5823008 	str	r3, [r2, #8]
    bc40:	eaffffe1 	b	bbcc <widget_sniffer_rdm+0x1c0>
    bc44:	e59f2030 	ldr	r2, [pc, #48]	; bc7c <widget_sniffer_rdm+0x270>
    bc48:	e5923000 	ldr	r3, [r2]
    bc4c:	e2833001 	add	r3, r3, #1
    bc50:	e5823000 	str	r3, [r2]
    bc54:	eaffffdc 	b	bbcc <widget_sniffer_rdm+0x1c0>
    bc58:	e59f201c 	ldr	r2, [pc, #28]	; bc7c <widget_sniffer_rdm+0x270>
    bc5c:	e5923004 	ldr	r3, [r2, #4]
    bc60:	e2833001 	add	r3, r3, #1
    bc64:	e5823004 	str	r3, [r2, #4]
    bc68:	eaffffd7 	b	bbcc <widget_sniffer_rdm+0x1c0>
    bc6c:	20003000 	andcs	r3, r0, r0
    bc70:	20200000 	eorcs	r0, r0, r0
    bc74:	0001e8ac 	andeq	lr, r1, ip, lsr #17
    bc78:	0001e874 	andeq	lr, r1, r4, ror r8
    bc7c:	00021b80 	andeq	r1, r2, r0, lsl #23

0000bc80 <notmain>:
    bc80:	e92d41f0 	push	{r4, r5, r6, r7, r8, lr}
    bc84:	e24dd010 	sub	sp, sp, #16
    bc88:	eb003748 	bl	199b0 <hardware_init>
    bc8c:	ebfff453 	bl	8de0 <FT245RL_init>
    bc90:	ebfff3ee 	bl	8c50 <dmx_init>
    bc94:	ebfffebd 	bl	b790 <widget_params_init>
    bc98:	ebfff68a 	bl	96c8 <rdm_device_info_init>
    bc9c:	eb0036eb 	bl	19850 <hardware_print_board_model>
    bca0:	e59f20bc 	ldr	r2, [pc, #188]	; bd64 <notmain+0xe4>
    bca4:	e59f10bc 	ldr	r1, [pc, #188]	; bd68 <notmain+0xe8>
    bca8:	e59f00bc 	ldr	r0, [pc, #188]	; bd6c <notmain+0xec>
    bcac:	eb0004b2 	bl	cf7c <printf>
    bcb0:	ebfffa9a 	bl	a720 <widget_get_mode>
    bcb4:	e1a01000 	mov	r1, r0
    bcb8:	e59f00b0 	ldr	r0, [pc, #176]	; bd70 <notmain+0xf0>
    bcbc:	eb0004ae 	bl	cf7c <printf>
    bcc0:	ebfff67d 	bl	96bc <rdm_device_info_get_uuid>
    bcc4:	e5d0c003 	ldrb	ip, [r0, #3]
    bcc8:	e5d02001 	ldrb	r2, [r0, #1]
    bccc:	e5d03002 	ldrb	r3, [r0, #2]
    bcd0:	e5d01000 	ldrb	r1, [r0]
    bcd4:	e58dc000 	str	ip, [sp]
    bcd8:	e5d0c004 	ldrb	ip, [r0, #4]
    bcdc:	e59f6090 	ldr	r6, [pc, #144]	; bd74 <notmain+0xf4>
    bce0:	e58dc004 	str	ip, [sp, #4]
    bce4:	e5d00005 	ldrb	r0, [r0, #5]
    bce8:	e59f5088 	ldr	r5, [pc, #136]	; bd78 <notmain+0xf8>
    bcec:	e58d0008 	str	r0, [sp, #8]
    bcf0:	e59f0084 	ldr	r0, [pc, #132]	; bd7c <notmain+0xfc>
    bcf4:	eb0004a0 	bl	cf7c <printf>
    bcf8:	eb003aa0 	bl	1a780 <watchdog_init>
    bcfc:	e59f307c 	ldr	r3, [pc, #124]	; bd80 <notmain+0x100>
    bd00:	e59f707c 	ldr	r7, [pc, #124]	; bd84 <notmain+0x104>
    bd04:	e5932004 	ldr	r2, [r3, #4]
    bd08:	e1a08003 	mov	r8, r3
    bd0c:	e5963000 	ldr	r3, [r6]
    bd10:	e0833002 	add	r3, r3, r2
    bd14:	e5863000 	str	r3, [r6]
    bd18:	eb003aa4 	bl	1a7b0 <watchdog_feed>
    bd1c:	e59f4064 	ldr	r4, [pc, #100]	; bd88 <notmain+0x108>
    bd20:	e4943004 	ldr	r3, [r4], #4
    bd24:	e12fff33 	blx	r3
    bd28:	e1540005 	cmp	r4, r5
    bd2c:	1afffffb 	bne	bd20 <notmain+0xa0>
    bd30:	e5983004 	ldr	r3, [r8, #4]
    bd34:	e5962000 	ldr	r2, [r6]
    bd38:	e59f4034 	ldr	r4, [pc, #52]	; bd74 <notmain+0xf4>
    bd3c:	e0623003 	rsb	r3, r2, r3
    bd40:	e1530007 	cmp	r3, r7
    bd44:	9afffff3 	bls	bd18 <notmain+0x98>
    bd48:	ebfffd9e 	bl	b3c8 <monitor_update>
    bd4c:	e5943000 	ldr	r3, [r4]
    bd50:	e283393d 	add	r3, r3, #999424	; 0xf4000
    bd54:	e2833d09 	add	r3, r3, #576	; 0x240
    bd58:	e5843000 	str	r3, [r4]
    bd5c:	eb003a93 	bl	1a7b0 <watchdog_feed>
    bd60:	eaffffec 	b	bd18 <notmain+0x98>
    bd64:	0001e8e8 	andeq	lr, r1, r8, ror #17
    bd68:	0001e8dc 	ldrdeq	lr, [r1], -ip
    bd6c:	0001e8c4 	andeq	lr, r1, r4, asr #17
    bd70:	0001e8f4 	strdeq	lr, [r1], -r4
    bd74:	00021ea8 	andeq	r1, r2, r8, lsr #29
    bd78:	0001da18 	andeq	sp, r1, r8, lsl sl
    bd7c:	0001e94c 	andeq	lr, r1, ip, asr #18
    bd80:	20003000 	andcs	r3, r0, r0
    bd84:	000f4240 	andeq	r4, pc, r0, asr #4
    bd88:	0001d9f8 	strdeq	sp, [r1], -r8

0000bd8c <initialise_monitor_handles>:
    bd8c:	e12fff1e 	bx	lr

0000bd90 <_read>:
    bd90:	e1a00002 	mov	r0, r2
    bd94:	e12fff1e 	bx	lr

0000bd98 <_lseek>:
    bd98:	e3a00000 	mov	r0, #0
    bd9c:	e12fff1e 	bx	lr

0000bda0 <_write>:
    bda0:	e92d4070 	push	{r4, r5, r6, lr}
    bda4:	e2526000 	subs	r6, r2, #0
    bda8:	da000005 	ble	bdc4 <_write+0x24>
    bdac:	e1a04001 	mov	r4, r1
    bdb0:	e0815006 	add	r5, r1, r6
    bdb4:	e4d40001 	ldrb	r0, [r4], #1
    bdb8:	eb0000a9 	bl	c064 <console_putc>
    bdbc:	e1540005 	cmp	r4, r5
    bdc0:	1afffffb 	bne	bdb4 <_write+0x14>
    bdc4:	e1a00006 	mov	r0, r6
    bdc8:	e8bd8070 	pop	{r4, r5, r6, pc}

0000bdcc <_open>:
    bdcc:	e92d000e 	push	{r1, r2, r3}
    bdd0:	e3a00000 	mov	r0, #0
    bdd4:	e28dd00c 	add	sp, sp, #12
    bdd8:	e12fff1e 	bx	lr

0000bddc <_close>:
    bddc:	e3a00000 	mov	r0, #0
    bde0:	e12fff1e 	bx	lr

0000bde4 <_exit>:
    bde4:	eafffffe 	b	bde4 <_exit>

0000bde8 <_kill>:
    bde8:	e3a00000 	mov	r0, #0
    bdec:	e12fff1e 	bx	lr

0000bdf0 <_getpid>:
    bdf0:	e3a00001 	mov	r0, #1
    bdf4:	e12fff1e 	bx	lr

0000bdf8 <_sbrk>:
    bdf8:	e59f2028 	ldr	r2, [pc, #40]	; be28 <_sbrk+0x30>
    bdfc:	e59f1028 	ldr	r1, [pc, #40]	; be2c <_sbrk+0x34>
    be00:	e5923000 	ldr	r3, [r2]
    be04:	e3530000 	cmp	r3, #0
    be08:	059f3020 	ldreq	r3, [pc, #32]	; be30 <_sbrk+0x38>
    be0c:	e0830000 	add	r0, r3, r0
    be10:	05823000 	streq	r3, [r2]
    be14:	e1500001 	cmp	r0, r1
    be18:	95820000 	strls	r0, [r2]
    be1c:	91a00003 	movls	r0, r3
    be20:	83a00000 	movhi	r0, #0
    be24:	e12fff1e 	bx	lr
    be28:	00021b90 	muleq	r2, r0, fp
    be2c:	08000000 	stmdaeq	r0, {}	; <UNPREDICTABLE>
    be30:	000236b0 			; <UNDEFINED> instruction: 0x000236b0

0000be34 <_fstat>:
    be34:	e3a00000 	mov	r0, #0
    be38:	e12fff1e 	bx	lr

0000be3c <_stat>:
    be3c:	e3a00000 	mov	r0, #0
    be40:	e12fff1e 	bx	lr

0000be44 <_link>:
    be44:	e3e00000 	mvn	r0, #0
    be48:	e12fff1e 	bx	lr

0000be4c <_unlink>:
    be4c:	e3e00000 	mvn	r0, #0
    be50:	e12fff1e 	bx	lr

0000be54 <_raise>:
    be54:	e12fff1e 	bx	lr

0000be58 <_gettimeofday>:
    be58:	e3500000 	cmp	r0, #0
    be5c:	13a03000 	movne	r3, #0
    be60:	13a0200a 	movne	r2, #10
    be64:	1880000c 	stmne	r0, {r2, r3}
    be68:	e3510000 	cmp	r1, #0
    be6c:	13a03000 	movne	r3, #0
    be70:	e3a00000 	mov	r0, #0
    be74:	15813000 	strne	r3, [r1]
    be78:	15813004 	strne	r3, [r1, #4]
    be7c:	e12fff1e 	bx	lr

0000be80 <_times>:
    be80:	e3500000 	cmp	r0, #0
    be84:	13a03000 	movne	r3, #0
    be88:	13a0200a 	movne	r2, #10
    be8c:	15803008 	strne	r3, [r0, #8]
    be90:	1880000c 	stmne	r0, {r2, r3}
    be94:	1580300c 	strne	r3, [r0, #12]
    be98:	e3a0000a 	mov	r0, #10
    be9c:	e12fff1e 	bx	lr

0000bea0 <_isatty>:
    bea0:	e3a00001 	mov	r0, #1
    bea4:	e12fff1e 	bx	lr

0000bea8 <_system>:
    bea8:	e3500000 	cmp	r0, #0
    beac:	e92d4008 	push	{r3, lr}
    beb0:	01a03000 	moveq	r3, r0
    beb4:	1a000001 	bne	bec0 <_system+0x18>
    beb8:	e1a00003 	mov	r0, r3
    bebc:	e8bd8008 	pop	{r3, pc}
    bec0:	eb003a62 	bl	1a850 <__errno>
    bec4:	e3a02058 	mov	r2, #88	; 0x58
    bec8:	e3e03000 	mvn	r3, #0
    becc:	e5802000 	str	r2, [r0]
    bed0:	eafffff8 	b	beb8 <_system+0x10>

0000bed4 <_rename>:
    bed4:	e92d4008 	push	{r3, lr}
    bed8:	eb003a5c 	bl	1a850 <__errno>
    bedc:	e3a03058 	mov	r3, #88	; 0x58
    bee0:	e5803000 	str	r3, [r0]
    bee4:	e3e00000 	mvn	r0, #0
    bee8:	e8bd8008 	pop	{r3, pc}

0000beec <console_get_address>:
    beec:	e59f3004 	ldr	r3, [pc, #4]	; bef8 <console_get_address+0xc>
    bef0:	e5930000 	ldr	r0, [r3]
    bef4:	e12fff1e 	bx	lr
    bef8:	00021b94 	muleq	r2, r4, fp

0000befc <console_get_pitch>:
    befc:	e59f3004 	ldr	r3, [pc, #4]	; bf08 <console_get_pitch+0xc>
    bf00:	e5930004 	ldr	r0, [r3, #4]
    bf04:	e12fff1e 	bx	lr
    bf08:	00021b94 	muleq	r2, r4, fp

0000bf0c <console_get_width>:
    bf0c:	e59f3004 	ldr	r3, [pc, #4]	; bf18 <console_get_width+0xc>
    bf10:	e5930008 	ldr	r0, [r3, #8]
    bf14:	e12fff1e 	bx	lr
    bf18:	00021b94 	muleq	r2, r4, fp

0000bf1c <console_get_height>:
    bf1c:	e59f3004 	ldr	r3, [pc, #4]	; bf28 <console_get_height+0xc>
    bf20:	e593000c 	ldr	r0, [r3, #12]
    bf24:	e12fff1e 	bx	lr
    bf28:	00021b94 	muleq	r2, r4, fp

0000bf2c <console_get_size>:
    bf2c:	e59f3004 	ldr	r3, [pc, #4]	; bf38 <console_get_size+0xc>
    bf30:	e5930010 	ldr	r0, [r3, #16]
    bf34:	e12fff1e 	bx	lr
    bf38:	00021b94 	muleq	r2, r4, fp

0000bf3c <console_get_depth>:
    bf3c:	e59f3004 	ldr	r3, [pc, #4]	; bf48 <console_get_depth+0xc>
    bf40:	e5930014 	ldr	r0, [r3, #20]
    bf44:	e12fff1e 	bx	lr
    bf48:	00021b94 	muleq	r2, r4, fp

0000bf4c <console_draw_char>:
    bf4c:	e92d4ff0 	push	{r4, r5, r6, r7, r8, r9, sl, fp, lr}
    bf50:	e1a05001 	mov	r5, r1
    bf54:	e3a01d19 	mov	r1, #1600	; 0x640
    bf58:	e24dd00c 	sub	sp, sp, #12
    bf5c:	e1a02202 	lsl	r2, r2, #4
    bf60:	e1a0e185 	lsl	lr, r5, #3
    bf64:	e58d0004 	str	r0, [sp, #4]
    bf68:	e0000291 	mul	r0, r1, r2
    bf6c:	e59f20e8 	ldr	r2, [pc, #232]	; c05c <console_draw_char+0x110>
    bf70:	e28e4006 	add	r4, lr, #6
    bf74:	e5922000 	ldr	r2, [r2]
    bf78:	e1a04084 	lsl	r4, r4, #1
    bf7c:	e284a002 	add	sl, r4, #2
    bf80:	e28e9001 	add	r9, lr, #1
    bf84:	e28e8002 	add	r8, lr, #2
    bf88:	e28e7003 	add	r7, lr, #3
    bf8c:	e28e6004 	add	r6, lr, #4
    bf90:	e28ee005 	add	lr, lr, #5
    bf94:	e59f10c4 	ldr	r1, [pc, #196]	; c060 <console_draw_char+0x114>
    bf98:	e08aa002 	add	sl, sl, r2
    bf9c:	e0844002 	add	r4, r4, r2
    bfa0:	e0825205 	add	r5, r2, r5, lsl #4
    bfa4:	e0829089 	add	r9, r2, r9, lsl #1
    bfa8:	e0828088 	add	r8, r2, r8, lsl #1
    bfac:	e0827087 	add	r7, r2, r7, lsl #1
    bfb0:	e0826086 	add	r6, r2, r6, lsl #1
    bfb4:	e082e08e 	add	lr, r2, lr, lsl #1
    bfb8:	e59d2004 	ldr	r2, [sp, #4]
    bfbc:	e1ddc3b0 	ldrh	ip, [sp, #48]	; 0x30
    bfc0:	e280bb19 	add	fp, r0, #25600	; 0x6400
    bfc4:	e0811202 	add	r1, r1, r2, lsl #4
    bfc8:	e5f12001 	ldrb	r2, [r1, #1]!
    bfcc:	e3120001 	tst	r2, #1
    bfd0:	e1a020a2 	lsr	r2, r2, #1
    bfd4:	0180c0b5 	strheq	ip, [r0, r5]
    bfd8:	118530b0 	strhne	r3, [r5, r0]
    bfdc:	e3120001 	tst	r2, #1
    bfe0:	e1a020a2 	lsr	r2, r2, #1
    bfe4:	0189c0b0 	strheq	ip, [r9, r0]
    bfe8:	118930b0 	strhne	r3, [r9, r0]
    bfec:	e3120001 	tst	r2, #1
    bff0:	e1a020a2 	lsr	r2, r2, #1
    bff4:	0188c0b0 	strheq	ip, [r8, r0]
    bff8:	118830b0 	strhne	r3, [r8, r0]
    bffc:	e3120001 	tst	r2, #1
    c000:	e1a020a2 	lsr	r2, r2, #1
    c004:	0180c0b7 	strheq	ip, [r0, r7]
    c008:	118030b7 	strhne	r3, [r0, r7]
    c00c:	e3120001 	tst	r2, #1
    c010:	e1a020a2 	lsr	r2, r2, #1
    c014:	0180c0b6 	strheq	ip, [r0, r6]
    c018:	118030b6 	strhne	r3, [r0, r6]
    c01c:	e3120001 	tst	r2, #1
    c020:	e1a020a2 	lsr	r2, r2, #1
    c024:	0180c0be 	strheq	ip, [r0, lr]
    c028:	118030be 	strhne	r3, [r0, lr]
    c02c:	e3120001 	tst	r2, #1
    c030:	0180c0b4 	strheq	ip, [r0, r4]
    c034:	118030b4 	strhne	r3, [r0, r4]
    c038:	e3120002 	tst	r2, #2
    c03c:	0180c0ba 	strheq	ip, [r0, sl]
    c040:	118030ba 	strhne	r3, [r0, sl]
    c044:	e2800d19 	add	r0, r0, #1600	; 0x640
    c048:	e150000b 	cmp	r0, fp
    c04c:	1affffdd 	bne	bfc8 <console_draw_char+0x7c>
    c050:	e59d0004 	ldr	r0, [sp, #4]
    c054:	e28dd00c 	add	sp, sp, #12
    c058:	e8bd8ff0 	pop	{r4, r5, r6, r7, r8, r9, sl, fp, pc}
    c05c:	00021b94 	muleq	r2, r4, fp
    c060:	0000cfff 	strdeq	ip, [r0], -pc	; <UNPREDICTABLE>

0000c064 <console_putc>:
    c064:	e92d4ff0 	push	{r4, r5, r6, r7, r8, r9, sl, fp, lr}
    c068:	e350000a 	cmp	r0, #10
    c06c:	e24dd01c 	sub	sp, sp, #28
    c070:	e58d0004 	str	r0, [sp, #4]
    c074:	0a00008f 	beq	c2b8 <console_putc+0x254>
    c078:	e350000d 	cmp	r0, #13
    c07c:	0a00005d 	beq	c1f8 <console_putc+0x194>
    c080:	e3500009 	cmp	r0, #9
    c084:	0a000054 	beq	c1dc <console_putc+0x178>
    c088:	e59f32c4 	ldr	r3, [pc, #708]	; c354 <console_putc+0x2f0>
    c08c:	e3a01d19 	mov	r1, #1600	; 0x640
    c090:	e1a02003 	mov	r2, r3
    c094:	e5920018 	ldr	r0, [r2, #24]
    c098:	e58d3008 	str	r3, [sp, #8]
    c09c:	e1a0c000 	mov	ip, r0
    c0a0:	e58d0010 	str	r0, [sp, #16]
    c0a4:	e1a00002 	mov	r0, r2
    c0a8:	e592201c 	ldr	r2, [r2, #28]
    c0ac:	e59f32a4 	ldr	r3, [pc, #676]	; c358 <console_putc+0x2f4>
    c0b0:	e1a0b002 	mov	fp, r2
    c0b4:	e58d200c 	str	r2, [sp, #12]
    c0b8:	e1a0220c 	lsl	r2, ip, #4
    c0bc:	e0020291 	mul	r2, r1, r2
    c0c0:	e5901000 	ldr	r1, [r0]
    c0c4:	e1a0e18b 	lsl	lr, fp, #3
    c0c8:	e1a0a001 	mov	sl, r1
    c0cc:	e58d1014 	str	r1, [sp, #20]
    c0d0:	e1d310b0 	ldrh	r1, [r3]
    c0d4:	e1a0300a 	mov	r3, sl
    c0d8:	e28e4006 	add	r4, lr, #6
    c0dc:	e1a04084 	lsl	r4, r4, #1
    c0e0:	e59fc274 	ldr	ip, [pc, #628]	; c35c <console_putc+0x2f8>
    c0e4:	e083b20b 	add	fp, r3, fp, lsl #4
    c0e8:	e59d3004 	ldr	r3, [sp, #4]
    c0ec:	e2849002 	add	r9, r4, #2
    c0f0:	e28e8001 	add	r8, lr, #1
    c0f4:	e28e7002 	add	r7, lr, #2
    c0f8:	e28e6003 	add	r6, lr, #3
    c0fc:	e28e5004 	add	r5, lr, #4
    c100:	e1d002b0 	ldrh	r0, [r0, #32]
    c104:	e28ee005 	add	lr, lr, #5
    c108:	e089900a 	add	r9, r9, sl
    c10c:	e084400a 	add	r4, r4, sl
    c110:	e08a8088 	add	r8, sl, r8, lsl #1
    c114:	e08a7087 	add	r7, sl, r7, lsl #1
    c118:	e08a6086 	add	r6, sl, r6, lsl #1
    c11c:	e08a5085 	add	r5, sl, r5, lsl #1
    c120:	e08ae08e 	add	lr, sl, lr, lsl #1
    c124:	e08cc203 	add	ip, ip, r3, lsl #4
    c128:	e282ab19 	add	sl, r2, #25600	; 0x6400
    c12c:	e5fc3001 	ldrb	r3, [ip, #1]!
    c130:	e3130001 	tst	r3, #1
    c134:	e1a030a3 	lsr	r3, r3, #1
    c138:	018200bb 	strheq	r0, [r2, fp]
    c13c:	118b10b2 	strhne	r1, [fp, r2]
    c140:	e3130001 	tst	r3, #1
    c144:	e1a030a3 	lsr	r3, r3, #1
    c148:	018800b2 	strheq	r0, [r8, r2]
    c14c:	118810b2 	strhne	r1, [r8, r2]
    c150:	e3130001 	tst	r3, #1
    c154:	e1a030a3 	lsr	r3, r3, #1
    c158:	018700b2 	strheq	r0, [r7, r2]
    c15c:	118710b2 	strhne	r1, [r7, r2]
    c160:	e3130001 	tst	r3, #1
    c164:	e1a030a3 	lsr	r3, r3, #1
    c168:	018600b2 	strheq	r0, [r6, r2]
    c16c:	118610b2 	strhne	r1, [r6, r2]
    c170:	e3130001 	tst	r3, #1
    c174:	e1a030a3 	lsr	r3, r3, #1
    c178:	018500b2 	strheq	r0, [r5, r2]
    c17c:	118510b2 	strhne	r1, [r5, r2]
    c180:	e3130001 	tst	r3, #1
    c184:	e1a030a3 	lsr	r3, r3, #1
    c188:	018e00b2 	strheq	r0, [lr, r2]
    c18c:	118e10b2 	strhne	r1, [lr, r2]
    c190:	e3130001 	tst	r3, #1
    c194:	018400b2 	strheq	r0, [r4, r2]
    c198:	118410b2 	strhne	r1, [r4, r2]
    c19c:	e3130002 	tst	r3, #2
    c1a0:	018900b2 	strheq	r0, [r9, r2]
    c1a4:	118910b2 	strhne	r1, [r9, r2]
    c1a8:	e2822d19 	add	r2, r2, #1600	; 0x640
    c1ac:	e152000a 	cmp	r2, sl
    c1b0:	1affffdd 	bne	c12c <console_putc+0xc8>
    c1b4:	e59d300c 	ldr	r3, [sp, #12]
    c1b8:	e59d2008 	ldr	r2, [sp, #8]
    c1bc:	e2833001 	add	r3, r3, #1
    c1c0:	e3530064 	cmp	r3, #100	; 0x64
    c1c4:	e582301c 	str	r3, [r2, #28]
    c1c8:	e59f4184 	ldr	r4, [pc, #388]	; c354 <console_putc+0x2f0>
    c1cc:	0a00000f 	beq	c210 <console_putc+0x1ac>
    c1d0:	e59d0004 	ldr	r0, [sp, #4]
    c1d4:	e28dd01c 	add	sp, sp, #28
    c1d8:	e8bd8ff0 	pop	{r4, r5, r6, r7, r8, r9, sl, fp, pc}
    c1dc:	e59f2170 	ldr	r2, [pc, #368]	; c354 <console_putc+0x2f0>
    c1e0:	e59d0004 	ldr	r0, [sp, #4]
    c1e4:	e592301c 	ldr	r3, [r2, #28]
    c1e8:	e2833004 	add	r3, r3, #4
    c1ec:	e582301c 	str	r3, [r2, #28]
    c1f0:	e28dd01c 	add	sp, sp, #28
    c1f4:	e8bd8ff0 	pop	{r4, r5, r6, r7, r8, r9, sl, fp, pc}
    c1f8:	e3a02000 	mov	r2, #0
    c1fc:	e59f3150 	ldr	r3, [pc, #336]	; c354 <console_putc+0x2f0>
    c200:	e59d0004 	ldr	r0, [sp, #4]
    c204:	e583201c 	str	r2, [r3, #28]
    c208:	e28dd01c 	add	sp, sp, #28
    c20c:	e8bd8ff0 	pop	{r4, r5, r6, r7, r8, r9, sl, fp, pc}
    c210:	e3a02000 	mov	r2, #0
    c214:	e59d3010 	ldr	r3, [sp, #16]
    c218:	e584201c 	str	r2, [r4, #28]
    c21c:	e2833001 	add	r3, r3, #1
    c220:	e353001e 	cmp	r3, #30
    c224:	e5843018 	str	r3, [r4, #24]
    c228:	1affffe8 	bne	c1d0 <console_putc+0x16c>
    c22c:	e59d0014 	ldr	r0, [sp, #20]
    c230:	e59f2128 	ldr	r2, [pc, #296]	; c360 <console_putc+0x2fc>
    c234:	e2801b19 	add	r1, r0, #25600	; 0x6400
    c238:	eb003ca8 	bl	1b4e0 <memmove>
    c23c:	e5943000 	ldr	r3, [r4]
    c240:	e1d4e2b0 	ldrh	lr, [r4, #32]
    c244:	e2833ab5 	add	r3, r3, #741376	; 0xb5000
    c248:	e2833b01 	add	r3, r3, #1024	; 0x400
    c24c:	e2132002 	ands	r2, r3, #2
    c250:	13e02000 	mvnne	r2, #0
    c254:	e2120001 	ands	r0, r2, #1
    c258:	03a0cc32 	moveq	ip, #12800	; 0x3200
    c25c:	03a01c19 	moveq	r1, #6400	; 0x1900
    c260:	01a0500c 	moveq	r5, ip
    c264:	e3a02000 	mov	r2, #0
    c268:	159fc0f4 	ldrne	ip, [pc, #244]	; c364 <console_putc+0x300>
    c26c:	159f10f4 	ldrne	r1, [pc, #244]	; c368 <console_putc+0x304>
    c270:	159f50f4 	ldrne	r5, [pc, #244]	; c36c <console_putc+0x308>
    c274:	11c3e0b0 	strhne	lr, [r3]
    c278:	12834002 	addne	r4, r3, #2
    c27c:	01a04003 	moveq	r4, r3
    c280:	e0833080 	add	r3, r3, r0, lsl #1
    c284:	e18e080e 	orr	r0, lr, lr, lsl #16
    c288:	e2822001 	add	r2, r2, #1
    c28c:	e1520001 	cmp	r2, r1
    c290:	e4830004 	str	r0, [r3], #4
    c294:	3afffffb 	bcc	c288 <console_putc+0x224>
    c298:	e59d2008 	ldr	r2, [sp, #8]
    c29c:	e155000c 	cmp	r5, ip
    c2a0:	e5923018 	ldr	r3, [r2, #24]
    c2a4:	e1a0c08c 	lsl	ip, ip, #1
    c2a8:	e2433001 	sub	r3, r3, #1
    c2ac:	1184e0bc 	strhne	lr, [r4, ip]
    c2b0:	e5823018 	str	r3, [r2, #24]
    c2b4:	eaffffc5 	b	c1d0 <console_putc+0x16c>
    c2b8:	e59f3094 	ldr	r3, [pc, #148]	; c354 <console_putc+0x2f0>
    c2bc:	e3a02000 	mov	r2, #0
    c2c0:	e1a01003 	mov	r1, r3
    c2c4:	e58d3008 	str	r3, [sp, #8]
    c2c8:	e5933018 	ldr	r3, [r3, #24]
    c2cc:	e581201c 	str	r2, [r1, #28]
    c2d0:	e2833001 	add	r3, r3, #1
    c2d4:	e353001e 	cmp	r3, #30
    c2d8:	e5813018 	str	r3, [r1, #24]
    c2dc:	1affffbb 	bne	c1d0 <console_putc+0x16c>
    c2e0:	e1a04001 	mov	r4, r1
    c2e4:	e5910000 	ldr	r0, [r1]
    c2e8:	e59f2070 	ldr	r2, [pc, #112]	; c360 <console_putc+0x2fc>
    c2ec:	e2801b19 	add	r1, r0, #25600	; 0x6400
    c2f0:	eb003c7a 	bl	1b4e0 <memmove>
    c2f4:	e5943000 	ldr	r3, [r4]
    c2f8:	e1d4e2b0 	ldrh	lr, [r4, #32]
    c2fc:	e2833ab5 	add	r3, r3, #741376	; 0xb5000
    c300:	e2833b01 	add	r3, r3, #1024	; 0x400
    c304:	e2132002 	ands	r2, r3, #2
    c308:	13e02000 	mvnne	r2, #0
    c30c:	e2120001 	ands	r0, r2, #1
    c310:	03a0cc32 	moveq	ip, #12800	; 0x3200
    c314:	03a01c19 	moveq	r1, #6400	; 0x1900
    c318:	01a0500c 	moveq	r5, ip
    c31c:	e3a02000 	mov	r2, #0
    c320:	159f1040 	ldrne	r1, [pc, #64]	; c368 <console_putc+0x304>
    c324:	159fc038 	ldrne	ip, [pc, #56]	; c364 <console_putc+0x300>
    c328:	159f503c 	ldrne	r5, [pc, #60]	; c36c <console_putc+0x308>
    c32c:	11c3e0b0 	strhne	lr, [r3]
    c330:	12834002 	addne	r4, r3, #2
    c334:	01a04003 	moveq	r4, r3
    c338:	e0833080 	add	r3, r3, r0, lsl #1
    c33c:	e18e080e 	orr	r0, lr, lr, lsl #16
    c340:	e2822001 	add	r2, r2, #1
    c344:	e1520001 	cmp	r2, r1
    c348:	e4830004 	str	r0, [r3], #4
    c34c:	3afffffb 	bcc	c340 <console_putc+0x2dc>
    c350:	eaffffd0 	b	c298 <console_putc+0x234>
    c354:	00021b94 	muleq	r2, r4, fp
    c358:	0001edbc 			; <UNDEFINED> instruction: 0x0001edbc
    c35c:	0000cfff 	strdeq	ip, [r0], -pc	; <UNPREDICTABLE>
    c360:	000b5400 	andeq	r5, fp, r0, lsl #8
    c364:	000031fe 	strdeq	r3, [r0], -lr
    c368:	000018ff 	strdeq	r1, [r0], -pc	; <UNPREDICTABLE>
    c36c:	000031ff 	strdeq	r3, [r0], -pc	; <UNPREDICTABLE>

0000c370 <console_puts>:
    c370:	e92d4010 	push	{r4, lr}
    c374:	e1a04000 	mov	r4, r0
    c378:	e5d00000 	ldrb	r0, [r0]
    c37c:	e2844001 	add	r4, r4, #1
    c380:	e3500000 	cmp	r0, #0
    c384:	08bd8010 	popeq	{r4, pc}
    c388:	ebffff35 	bl	c064 <console_putc>
    c38c:	e4d40001 	ldrb	r0, [r4], #1
    c390:	e3500000 	cmp	r0, #0
    c394:	1afffffb 	bne	c388 <console_puts+0x18>
    c398:	e8bd8010 	pop	{r4, pc}

0000c39c <console_puthex>:
    c39c:	e92d4010 	push	{r4, lr}
    c3a0:	e1a04000 	mov	r4, r0
    c3a4:	e1a00220 	lsr	r0, r0, #4
    c3a8:	e3500009 	cmp	r0, #9
    c3ac:	e204400f 	and	r4, r4, #15
    c3b0:	92800030 	addls	r0, r0, #48	; 0x30
    c3b4:	82800037 	addhi	r0, r0, #55	; 0x37
    c3b8:	ebffff29 	bl	c064 <console_putc>
    c3bc:	e3540009 	cmp	r4, #9
    c3c0:	92840030 	addls	r0, r4, #48	; 0x30
    c3c4:	82840037 	addhi	r0, r4, #55	; 0x37
    c3c8:	e8bd4010 	pop	{r4, lr}
    c3cc:	eaffff24 	b	c064 <console_putc>

0000c3d0 <console_newline>:
    c3d0:	e3a02000 	mov	r2, #0
    c3d4:	e92d4070 	push	{r4, r5, r6, lr}
    c3d8:	e59f409c 	ldr	r4, [pc, #156]	; c47c <console_newline+0xac>
    c3dc:	e5943018 	ldr	r3, [r4, #24]
    c3e0:	e584201c 	str	r2, [r4, #28]
    c3e4:	e2833001 	add	r3, r3, #1
    c3e8:	e353001e 	cmp	r3, #30
    c3ec:	e5843018 	str	r3, [r4, #24]
    c3f0:	18bd8070 	popne	{r4, r5, r6, pc}
    c3f4:	e5940000 	ldr	r0, [r4]
    c3f8:	e59f2080 	ldr	r2, [pc, #128]	; c480 <console_newline+0xb0>
    c3fc:	e2801b19 	add	r1, r0, #25600	; 0x6400
    c400:	eb003c36 	bl	1b4e0 <memmove>
    c404:	e5942000 	ldr	r2, [r4]
    c408:	e1d4e2b0 	ldrh	lr, [r4, #32]
    c40c:	e2822ab5 	add	r2, r2, #741376	; 0xb5000
    c410:	e2822b01 	add	r2, r2, #1024	; 0x400
    c414:	e2123002 	ands	r3, r2, #2
    c418:	13e03000 	mvnne	r3, #0
    c41c:	e2130001 	ands	r0, r3, #1
    c420:	03a0cc32 	moveq	ip, #12800	; 0x3200
    c424:	03a01c19 	moveq	r1, #6400	; 0x1900
    c428:	01a0600c 	moveq	r6, ip
    c42c:	e3a03000 	mov	r3, #0
    c430:	159fc04c 	ldrne	ip, [pc, #76]	; c484 <console_newline+0xb4>
    c434:	159f104c 	ldrne	r1, [pc, #76]	; c488 <console_newline+0xb8>
    c438:	159f604c 	ldrne	r6, [pc, #76]	; c48c <console_newline+0xbc>
    c43c:	11c2e0b0 	strhne	lr, [r2]
    c440:	12825002 	addne	r5, r2, #2
    c444:	01a05002 	moveq	r5, r2
    c448:	e0822080 	add	r2, r2, r0, lsl #1
    c44c:	e18e080e 	orr	r0, lr, lr, lsl #16
    c450:	e2833001 	add	r3, r3, #1
    c454:	e1530001 	cmp	r3, r1
    c458:	e4820004 	str	r0, [r2], #4
    c45c:	3afffffb 	bcc	c450 <console_newline+0x80>
    c460:	e5943018 	ldr	r3, [r4, #24]
    c464:	e156000c 	cmp	r6, ip
    c468:	e2433001 	sub	r3, r3, #1
    c46c:	e1a0c08c 	lsl	ip, ip, #1
    c470:	1185e0bc 	strhne	lr, [r5, ip]
    c474:	e5843018 	str	r3, [r4, #24]
    c478:	e8bd8070 	pop	{r4, r5, r6, pc}
    c47c:	00021b94 	muleq	r2, r4, fp
    c480:	000b5400 	andeq	r5, fp, r0, lsl #8
    c484:	000031fe 	strdeq	r3, [r0], -lr
    c488:	000018ff 	strdeq	r1, [r0], -pc	; <UNPREDICTABLE>
    c48c:	000031ff 	strdeq	r3, [r0], -pc	; <UNPREDICTABLE>

0000c490 <console_clear>:
    c490:	e59fc070 	ldr	ip, [pc, #112]	; c508 <console_clear+0x78>
    c494:	e92d4070 	push	{r4, r5, r6, lr}
    c498:	e59c2000 	ldr	r2, [ip]
    c49c:	e1dc42b0 	ldrh	r4, [ip, #32]
    c4a0:	e2123002 	ands	r3, r2, #2
    c4a4:	13e03000 	mvnne	r3, #0
    c4a8:	e2130001 	ands	r0, r3, #1
    c4ac:	059fe058 	ldreq	lr, [pc, #88]	; c50c <console_clear+0x7c>
    c4b0:	e3a03000 	mov	r3, #0
    c4b4:	01a0600e 	moveq	r6, lr
    c4b8:	159fe050 	ldrne	lr, [pc, #80]	; c510 <console_clear+0x80>
    c4bc:	159f1050 	ldrne	r1, [pc, #80]	; c514 <console_clear+0x84>
    c4c0:	159f6050 	ldrne	r6, [pc, #80]	; c518 <console_clear+0x88>
    c4c4:	059f1050 	ldreq	r1, [pc, #80]	; c51c <console_clear+0x8c>
    c4c8:	11c240b0 	strhne	r4, [r2]
    c4cc:	12825002 	addne	r5, r2, #2
    c4d0:	01a05002 	moveq	r5, r2
    c4d4:	e0822080 	add	r2, r2, r0, lsl #1
    c4d8:	e1840804 	orr	r0, r4, r4, lsl #16
    c4dc:	e2833001 	add	r3, r3, #1
    c4e0:	e1530001 	cmp	r3, r1
    c4e4:	e4820004 	str	r0, [r2], #4
    c4e8:	3afffffb 	bcc	c4dc <console_clear+0x4c>
    c4ec:	e3a03000 	mov	r3, #0
    c4f0:	e156000e 	cmp	r6, lr
    c4f4:	e1a0e08e 	lsl	lr, lr, #1
    c4f8:	118540be 	strhne	r4, [r5, lr]
    c4fc:	e58c301c 	str	r3, [ip, #28]
    c500:	e58c3018 	str	r3, [ip, #24]
    c504:	e8bd8070 	pop	{r4, r5, r6, pc}
    c508:	00021b94 	muleq	r2, r4, fp
    c50c:	0005dc00 	andeq	sp, r5, r0, lsl #24
    c510:	0005dbfe 	strdeq	sp, [r5], -lr
    c514:	0002edff 	strdeq	lr, [r2], -pc	; <UNPREDICTABLE>
    c518:	0005dbff 	strdeq	sp, [r5], -pc	; <UNPREDICTABLE>
    c51c:	0002ee00 	andeq	lr, r2, r0, lsl #28

0000c520 <console_set_cursor>:
    c520:	e3500064 	cmp	r0, #100	; 0x64
    c524:	c3a00000 	movgt	r0, #0
    c528:	e351001e 	cmp	r1, #30
    c52c:	c3a01000 	movgt	r1, #0
    c530:	e59f3008 	ldr	r3, [pc, #8]	; c540 <console_set_cursor+0x20>
    c534:	e583001c 	str	r0, [r3, #28]
    c538:	e5831018 	str	r1, [r3, #24]
    c53c:	e12fff1e 	bx	lr
    c540:	00021b94 	muleq	r2, r4, fp

0000c544 <console_set_fg_color>:
    c544:	e59f3004 	ldr	r3, [pc, #4]	; c550 <console_set_fg_color+0xc>
    c548:	e1c300b0 	strh	r0, [r3]
    c54c:	e12fff1e 	bx	lr
    c550:	0001edbc 			; <UNDEFINED> instruction: 0x0001edbc

0000c554 <console_set_bg_color>:
    c554:	e59f3004 	ldr	r3, [pc, #4]	; c560 <console_set_bg_color+0xc>
    c558:	e1c302b0 	strh	r0, [r3, #32]
    c55c:	e12fff1e 	bx	lr
    c560:	00021b94 	muleq	r2, r4, fp

0000c564 <console_clear_line>:
    c564:	e3a01b19 	mov	r1, #25600	; 0x6400
    c568:	e59f3080 	ldr	r3, [pc, #128]	; c5f0 <console_clear_line+0x8c>
    c56c:	e0010091 	mul	r1, r1, r0
    c570:	e92d4070 	push	{r4, r5, r6, lr}
    c574:	e593e000 	ldr	lr, [r3]
    c578:	e350001e 	cmp	r0, #30
    c57c:	e081200e 	add	r2, r1, lr
    c580:	c3a00000 	movgt	r0, #0
    c584:	e212c002 	ands	ip, r2, #2
    c588:	13e0c000 	mvnne	ip, #0
    c58c:	e21cc001 	ands	ip, ip, #1
    c590:	e3a04000 	mov	r4, #0
    c594:	03a0ec32 	moveq	lr, #12800	; 0x3200
    c598:	e5830018 	str	r0, [r3, #24]
    c59c:	e583401c 	str	r4, [r3, #28]
    c5a0:	01a0600e 	moveq	r6, lr
    c5a4:	e1d342b0 	ldrh	r4, [r3, #32]
    c5a8:	03a01c19 	moveq	r1, #6400	; 0x1900
    c5ac:	e3a03000 	mov	r3, #0
    c5b0:	118140be 	strhne	r4, [r1, lr]
    c5b4:	159f6038 	ldrne	r6, [pc, #56]	; c5f4 <console_clear_line+0x90>
    c5b8:	159fe038 	ldrne	lr, [pc, #56]	; c5f8 <console_clear_line+0x94>
    c5bc:	159f1038 	ldrne	r1, [pc, #56]	; c5fc <console_clear_line+0x98>
    c5c0:	12825002 	addne	r5, r2, #2
    c5c4:	01a05002 	moveq	r5, r2
    c5c8:	e1840804 	orr	r0, r4, r4, lsl #16
    c5cc:	e082208c 	add	r2, r2, ip, lsl #1
    c5d0:	e2833001 	add	r3, r3, #1
    c5d4:	e1530001 	cmp	r3, r1
    c5d8:	e4820004 	str	r0, [r2], #4
    c5dc:	3afffffb 	bcc	c5d0 <console_clear_line+0x6c>
    c5e0:	e156000e 	cmp	r6, lr
    c5e4:	e1a0e08e 	lsl	lr, lr, #1
    c5e8:	118540be 	strhne	r4, [r5, lr]
    c5ec:	e8bd8070 	pop	{r4, r5, r6, pc}
    c5f0:	00021b94 	muleq	r2, r4, fp
    c5f4:	000031ff 	strdeq	r3, [r0], -pc	; <UNPREDICTABLE>
    c5f8:	000031fe 	strdeq	r3, [r0], -lr
    c5fc:	000018ff 	strdeq	r1, [r0], -pc	; <UNPREDICTABLE>

0000c600 <console_init>:
    c600:	e92d4ff8 	push	{r3, r4, r5, r6, r7, r8, r9, sl, fp, lr}
    c604:	e3a0c020 	mov	ip, #32
    c608:	e3a03000 	mov	r3, #0
    c60c:	e3a05008 	mov	r5, #8
    c610:	e28db024 	add	fp, sp, #36	; 0x24
    c614:	e24dde11 	sub	sp, sp, #272	; 0x110
    c618:	e59f2184 	ldr	r2, [pc, #388]	; c7a4 <console_init+0x1a4>
    c61c:	e28d400f 	add	r4, sp, #15
    c620:	e3c4400f 	bic	r4, r4, #15
    c624:	e1a01004 	mov	r1, r4
    c628:	e5842008 	str	r2, [r4, #8]
    c62c:	e5843004 	str	r3, [r4, #4]
    c630:	e5843010 	str	r3, [r4, #16]
    c634:	e5843014 	str	r3, [r4, #20]
    c638:	e5843018 	str	r3, [r4, #24]
    c63c:	e584301c 	str	r3, [r4, #28]
    c640:	e1a00005 	mov	r0, r5
    c644:	e584c000 	str	ip, [r4]
    c648:	e584500c 	str	r5, [r4, #12]
    c64c:	eb0036db 	bl	1a1c0 <bcm2835_mailbox_write>
    c650:	e1a00005 	mov	r0, r5
    c654:	eb0036cd 	bl	1a190 <bcm2835_mailbox_read>
    c658:	e5942014 	ldr	r2, [r4, #20]
    c65c:	e5943018 	ldr	r3, [r4, #24]
    c660:	e59f6140 	ldr	r6, [pc, #320]	; c7a8 <console_init+0x1a8>
    c664:	e1931002 	orrs	r1, r3, r2
    c668:	e5862008 	str	r2, [r6, #8]
    c66c:	e586300c 	str	r3, [r6, #12]
    c670:	1a000005 	bne	c68c <console_init+0x8c>
    c674:	e3a00e32 	mov	r0, #800	; 0x320
    c678:	e3a01e1e 	mov	r1, #480	; 0x1e0
    c67c:	e1a02000 	mov	r2, r0
    c680:	e1a03001 	mov	r3, r1
    c684:	e5860008 	str	r0, [r6, #8]
    c688:	e586100c 	str	r1, [r6, #12]
    c68c:	e3a05008 	mov	r5, #8
    c690:	e3a0c000 	mov	ip, #0
    c694:	e3a0e010 	mov	lr, #16
    c698:	e3a07004 	mov	r7, #4
    c69c:	e3a0a058 	mov	sl, #88	; 0x58
    c6a0:	e5843018 	str	r3, [r4, #24]
    c6a4:	e584302c 	str	r3, [r4, #44]	; 0x2c
    c6a8:	e59f30fc 	ldr	r3, [pc, #252]	; c7ac <console_init+0x1ac>
    c6ac:	e59f90fc 	ldr	r9, [pc, #252]	; c7b0 <console_init+0x1b0>
    c6b0:	e5843030 	str	r3, [r4, #48]	; 0x30
    c6b4:	e59f80f8 	ldr	r8, [pc, #248]	; c7b4 <console_init+0x1b4>
    c6b8:	e59f30f8 	ldr	r3, [pc, #248]	; c7b8 <console_init+0x1b8>
    c6bc:	e5842014 	str	r2, [r4, #20]
    c6c0:	e5842028 	str	r2, [r4, #40]	; 0x28
    c6c4:	e5843040 	str	r3, [r4, #64]	; 0x40
    c6c8:	e1a00005 	mov	r0, r5
    c6cc:	e1a01004 	mov	r1, r4
    c6d0:	e8841400 	stm	r4, {sl, ip}
    c6d4:	e584c050 	str	ip, [r4, #80]	; 0x50
    c6d8:	e584c054 	str	ip, [r4, #84]	; 0x54
    c6dc:	e584e03c 	str	lr, [r4, #60]	; 0x3c
    c6e0:	e584e04c 	str	lr, [r4, #76]	; 0x4c
    c6e4:	e584500c 	str	r5, [r4, #12]
    c6e8:	e5845010 	str	r5, [r4, #16]
    c6ec:	e5845020 	str	r5, [r4, #32]
    c6f0:	e5845024 	str	r5, [r4, #36]	; 0x24
    c6f4:	e5845044 	str	r5, [r4, #68]	; 0x44
    c6f8:	e5847034 	str	r7, [r4, #52]	; 0x34
    c6fc:	e5847038 	str	r7, [r4, #56]	; 0x38
    c700:	e5847048 	str	r7, [r4, #72]	; 0x48
    c704:	e5849008 	str	r9, [r4, #8]
    c708:	e584801c 	str	r8, [r4, #28]
    c70c:	eb0036ab 	bl	1a1c0 <bcm2835_mailbox_write>
    c710:	e1a00005 	mov	r0, r5
    c714:	eb00369d 	bl	1a190 <bcm2835_mailbox_read>
    c718:	e594304c 	ldr	r3, [r4, #76]	; 0x4c
    c71c:	e5942050 	ldr	r2, [r4, #80]	; 0x50
    c720:	e5863000 	str	r3, [r6]
    c724:	e3520000 	cmp	r2, #0
    c728:	13530000 	cmpne	r3, #0
    c72c:	e5862010 	str	r2, [r6, #16]
    c730:	03a03001 	moveq	r3, #1
    c734:	13a03000 	movne	r3, #0
    c738:	e59f6068 	ldr	r6, [pc, #104]	; c7a8 <console_init+0x1a8>
    c73c:	0a000016 	beq	c79c <console_init+0x19c>
    c740:	e3a0e01c 	mov	lr, #28
    c744:	e59f2070 	ldr	r2, [pc, #112]	; c7bc <console_init+0x1bc>
    c748:	e594c03c 	ldr	ip, [r4, #60]	; 0x3c
    c74c:	e1a00005 	mov	r0, r5
    c750:	e1a01004 	mov	r1, r4
    c754:	e5843004 	str	r3, [r4, #4]
    c758:	e5843010 	str	r3, [r4, #16]
    c75c:	e5843014 	str	r3, [r4, #20]
    c760:	e5843018 	str	r3, [r4, #24]
    c764:	e584e000 	str	lr, [r4]
    c768:	e5842008 	str	r2, [r4, #8]
    c76c:	e584700c 	str	r7, [r4, #12]
    c770:	e586c014 	str	ip, [r6, #20]
    c774:	eb003691 	bl	1a1c0 <bcm2835_mailbox_write>
    c778:	e1a00005 	mov	r0, r5
    c77c:	eb003683 	bl	1a190 <bcm2835_mailbox_read>
    c780:	e5940014 	ldr	r0, [r4, #20]
    c784:	e3500000 	cmp	r0, #0
    c788:	e5860004 	str	r0, [r6, #4]
    c78c:	13a00000 	movne	r0, #0
    c790:	03e00000 	mvneq	r0, #0
    c794:	e24bd024 	sub	sp, fp, #36	; 0x24
    c798:	e8bd8ff8 	pop	{r3, r4, r5, r6, r7, r8, r9, sl, fp, pc}
    c79c:	e3e00000 	mvn	r0, #0
    c7a0:	eafffffb 	b	c794 <console_init+0x194>
    c7a4:	00040003 	andeq	r0, r4, r3
    c7a8:	00021b94 	muleq	r2, r4, fp
    c7ac:	00048005 	andeq	r8, r4, r5
    c7b0:	00048003 	andeq	r8, r4, r3
    c7b4:	00048004 	andeq	r8, r4, r4
    c7b8:	00040001 	andeq	r0, r4, r1
    c7bc:	00040008 	andeq	r0, r4, r8

0000c7c0 <vprintf>:
    c7c0:	e92d4ff0 	push	{r4, r5, r6, r7, r8, r9, sl, fp, lr}
    c7c4:	e1a04000 	mov	r4, r0
    c7c8:	e1a07001 	mov	r7, r1
    c7cc:	e3a09000 	mov	r9, #0
    c7d0:	e59f879c 	ldr	r8, [pc, #1948]	; cf74 <vprintf+0x7b4>
    c7d4:	e59f679c 	ldr	r6, [pc, #1948]	; cf78 <vprintf+0x7b8>
    c7d8:	e24dd024 	sub	sp, sp, #36	; 0x24
    c7dc:	e5d40000 	ldrb	r0, [r4]
    c7e0:	e3500000 	cmp	r0, #0
    c7e4:	0a00000c 	beq	c81c <vprintf+0x5c>
    c7e8:	e3500025 	cmp	r0, #37	; 0x25
    c7ec:	0a00000d 	beq	c828 <vprintf+0x68>
    c7f0:	e5983000 	ldr	r3, [r8]
    c7f4:	e2844001 	add	r4, r4, #1
    c7f8:	e3530000 	cmp	r3, #0
    c7fc:	e2899001 	add	r9, r9, #1
    c800:	0a00016f 	beq	cdc4 <vprintf+0x604>
    c804:	e5c30000 	strb	r0, [r3]
    c808:	e5d40000 	ldrb	r0, [r4]
    c80c:	e2832001 	add	r2, r3, #1
    c810:	e3500000 	cmp	r0, #0
    c814:	e5882000 	str	r2, [r8]
    c818:	1afffff2 	bne	c7e8 <vprintf+0x28>
    c81c:	e1a00009 	mov	r0, r9
    c820:	e28dd024 	add	sp, sp, #36	; 0x24
    c824:	e8bd8ff0 	pop	{r4, r5, r6, r7, r8, r9, sl, fp, pc}
    c828:	e5d4c001 	ldrb	ip, [r4, #1]
    c82c:	e35c0030 	cmp	ip, #48	; 0x30
    c830:	0a00014a 	beq	cd60 <vprintf+0x5a0>
    c834:	e35c002d 	cmp	ip, #45	; 0x2d
    c838:	0a00014e 	beq	cd78 <vprintf+0x5b8>
    c83c:	e1a0300c 	mov	r3, ip
    c840:	e3a01011 	mov	r1, #17
    c844:	e3a0a001 	mov	sl, #1
    c848:	e3a0c010 	mov	ip, #16
    c84c:	e3a0e000 	mov	lr, #0
    c850:	e2845001 	add	r5, r4, #1
    c854:	e2432030 	sub	r2, r3, #48	; 0x30
    c858:	e6ef0072 	uxtb	r0, r2
    c85c:	e3500009 	cmp	r0, #9
    c860:	81a0100a 	movhi	r1, sl
    c864:	81a0c00e 	movhi	ip, lr
    c868:	83a04000 	movhi	r4, #0
    c86c:	8a00000a 	bhi	c89c <vprintf+0xdc>
    c870:	e3a04000 	mov	r4, #0
    c874:	e5f53001 	ldrb	r3, [r5, #1]!
    c878:	e0844104 	add	r4, r4, r4, lsl #2
    c87c:	e0824084 	add	r4, r2, r4, lsl #1
    c880:	e2432030 	sub	r2, r3, #48	; 0x30
    c884:	e6ef0072 	uxtb	r0, r2
    c888:	e3500009 	cmp	r0, #9
    c88c:	9afffff8 	bls	c874 <vprintf+0xb4>
    c890:	e3540000 	cmp	r4, #0
    c894:	01a0100a 	moveq	r1, sl
    c898:	01a0c00e 	moveq	ip, lr
    c89c:	e353002e 	cmp	r3, #46	; 0x2e
    c8a0:	11a00003 	movne	r0, r3
    c8a4:	13a0b000 	movne	fp, #0
    c8a8:	0a00011b 	beq	cd1c <vprintf+0x55c>
    c8ac:	e350006c 	cmp	r0, #108	; 0x6c
    c8b0:	05d50001 	ldrbeq	r0, [r5, #1]
    c8b4:	038cc004 	orreq	ip, ip, #4
    c8b8:	e2402058 	sub	r2, r0, #88	; 0x58
    c8bc:	02855001 	addeq	r5, r5, #1
    c8c0:	e3520020 	cmp	r2, #32
    c8c4:	979ff102 	ldrls	pc, [pc, r2, lsl #2]
    c8c8:	ea00010a 	b	ccf8 <vprintf+0x538>
    c8cc:	0000c950 	andeq	ip, r0, r0, asr r9
    c8d0:	0000ccf8 	strdeq	ip, [r0], -r8
    c8d4:	0000ccf8 	strdeq	ip, [r0], -r8
    c8d8:	0000ccf8 	strdeq	ip, [r0], -r8
    c8dc:	0000ccf8 	strdeq	ip, [r0], -r8
    c8e0:	0000ccf8 	strdeq	ip, [r0], -r8
    c8e4:	0000ccf8 	strdeq	ip, [r0], -r8
    c8e8:	0000ccf8 	strdeq	ip, [r0], -r8
    c8ec:	0000ccf8 	strdeq	ip, [r0], -r8
    c8f0:	0000ccf8 	strdeq	ip, [r0], -r8
    c8f4:	0000ccf8 	strdeq	ip, [r0], -r8
    c8f8:	0000ccc8 	andeq	ip, r0, r8, asr #25
    c8fc:	0000cb78 	andeq	ip, r0, r8, ror fp
    c900:	0000ccf8 	strdeq	ip, [r0], -r8
    c904:	0000ccf8 	strdeq	ip, [r0], -r8
    c908:	0000ccf8 	strdeq	ip, [r0], -r8
    c90c:	0000ccf8 	strdeq	ip, [r0], -r8
    c910:	0000ccf8 	strdeq	ip, [r0], -r8
    c914:	0000ccf8 	strdeq	ip, [r0], -r8
    c918:	0000ccf8 	strdeq	ip, [r0], -r8
    c91c:	0000ccf8 	strdeq	ip, [r0], -r8
    c920:	0000ccf8 	strdeq	ip, [r0], -r8
    c924:	0000ccf8 	strdeq	ip, [r0], -r8
    c928:	0000ccf8 	strdeq	ip, [r0], -r8
    c92c:	0000ccf8 	strdeq	ip, [r0], -r8
    c930:	0000ccf8 	strdeq	ip, [r0], -r8
    c934:	0000ccf8 	strdeq	ip, [r0], -r8
    c938:	0000cadc 	ldrdeq	ip, [r0], -ip	; <UNPREDICTABLE>
    c93c:	0000ccf8 	strdeq	ip, [r0], -r8
    c940:	0000ccf8 	strdeq	ip, [r0], -r8
    c944:	0000ccf8 	strdeq	ip, [r0], -r8
    c948:	0000ccf8 	strdeq	ip, [r0], -r8
    c94c:	0000c954 	andeq	ip, r0, r4, asr r9
    c950:	e38cc002 	orr	ip, ip, #2
    c954:	e5972000 	ldr	r2, [r7]
    c958:	e287a004 	add	sl, r7, #4
    c95c:	e3520000 	cmp	r2, #0
    c960:	1a00010b 	bne	cd94 <vprintf+0x5d4>
    c964:	e3a03030 	mov	r3, #48	; 0x30
    c968:	e28d701e 	add	r7, sp, #30
    c96c:	e5cd301f 	strb	r3, [sp, #31]
    c970:	e31c0001 	tst	ip, #1
    c974:	0a000013 	beq	c9c8 <vprintf+0x208>
    c978:	e28d101f 	add	r1, sp, #31
    c97c:	e0672001 	rsb	r2, r7, r1
    c980:	e15b0002 	cmp	fp, r2
    c984:	e28d3010 	add	r3, sp, #16
    c988:	d3a02000 	movle	r2, #0
    c98c:	c3a02001 	movgt	r2, #1
    c990:	e1570003 	cmp	r7, r3
    c994:	93a02000 	movls	r2, #0
    c998:	e3520000 	cmp	r2, #0
    c99c:	0a000009 	beq	c9c8 <vprintf+0x208>
    c9a0:	e3a00030 	mov	r0, #48	; 0x30
    c9a4:	e4470001 	strb	r0, [r7], #-1
    c9a8:	e0672001 	rsb	r2, r7, r1
    c9ac:	e152000b 	cmp	r2, fp
    c9b0:	a3a02000 	movge	r2, #0
    c9b4:	b3a02001 	movlt	r2, #1
    c9b8:	e1570003 	cmp	r7, r3
    c9bc:	93a02000 	movls	r2, #0
    c9c0:	e3520000 	cmp	r2, #0
    c9c4:	1afffff6 	bne	c9a4 <vprintf+0x1e4>
    c9c8:	e31c0020 	tst	ip, #32
    c9cc:	0a000013 	beq	ca20 <vprintf+0x260>
    c9d0:	e28d101f 	add	r1, sp, #31
    c9d4:	e0672001 	rsb	r2, r7, r1
    c9d8:	e1540002 	cmp	r4, r2
    c9dc:	e28d3010 	add	r3, sp, #16
    c9e0:	d3a02000 	movle	r2, #0
    c9e4:	c3a02001 	movgt	r2, #1
    c9e8:	e1570003 	cmp	r7, r3
    c9ec:	93a02000 	movls	r2, #0
    c9f0:	e3520000 	cmp	r2, #0
    c9f4:	0a00001f 	beq	ca78 <vprintf+0x2b8>
    c9f8:	e3a00030 	mov	r0, #48	; 0x30
    c9fc:	e4470001 	strb	r0, [r7], #-1
    ca00:	e0672001 	rsb	r2, r7, r1
    ca04:	e1540002 	cmp	r4, r2
    ca08:	d3a02000 	movle	r2, #0
    ca0c:	c3a02001 	movgt	r2, #1
    ca10:	e1570003 	cmp	r7, r3
    ca14:	93a02000 	movls	r2, #0
    ca18:	e3520000 	cmp	r2, #0
    ca1c:	1afffff6 	bne	c9fc <vprintf+0x23c>
    ca20:	e31c0010 	tst	ip, #16
    ca24:	0a000013 	beq	ca78 <vprintf+0x2b8>
    ca28:	e28d101f 	add	r1, sp, #31
    ca2c:	e0672001 	rsb	r2, r7, r1
    ca30:	e1540002 	cmp	r4, r2
    ca34:	e28d3010 	add	r3, sp, #16
    ca38:	d3a02000 	movle	r2, #0
    ca3c:	c3a02001 	movgt	r2, #1
    ca40:	e1570003 	cmp	r7, r3
    ca44:	93a02000 	movls	r2, #0
    ca48:	e3520000 	cmp	r2, #0
    ca4c:	0a000009 	beq	ca78 <vprintf+0x2b8>
    ca50:	e3a00020 	mov	r0, #32
    ca54:	e4470001 	strb	r0, [r7], #-1
    ca58:	e0672001 	rsb	r2, r7, r1
    ca5c:	e1540002 	cmp	r4, r2
    ca60:	d3a02000 	movle	r2, #0
    ca64:	c3a02001 	movgt	r2, #1
    ca68:	e1570003 	cmp	r7, r3
    ca6c:	93a02000 	movls	r2, #0
    ca70:	e3520000 	cmp	r2, #0
    ca74:	1afffff6 	bne	ca54 <vprintf+0x294>
    ca78:	e2874001 	add	r4, r7, #1
    ca7c:	e28d3020 	add	r3, sp, #32
    ca80:	e1540003 	cmp	r4, r3
    ca84:	3a000005 	bcc	caa0 <vprintf+0x2e0>
    ca88:	ea000011 	b	cad4 <vprintf+0x314>
    ca8c:	e5c30000 	strb	r0, [r3]
    ca90:	e28d3020 	add	r3, sp, #32
    ca94:	e1540003 	cmp	r4, r3
    ca98:	e5882000 	str	r2, [r8]
    ca9c:	0a000008 	beq	cac4 <vprintf+0x304>
    caa0:	e5983000 	ldr	r3, [r8]
    caa4:	e4d40001 	ldrb	r0, [r4], #1
    caa8:	e3530000 	cmp	r3, #0
    caac:	e2832001 	add	r2, r3, #1
    cab0:	1afffff5 	bne	ca8c <vprintf+0x2cc>
    cab4:	ebfffd6a 	bl	c064 <console_putc>
    cab8:	e28d3020 	add	r3, sp, #32
    cabc:	e1540003 	cmp	r4, r3
    cac0:	1afffff6 	bne	caa0 <vprintf+0x2e0>
    cac4:	e28d3021 	add	r3, sp, #33	; 0x21
    cac8:	e2877002 	add	r7, r7, #2
    cacc:	e0839009 	add	r9, r3, r9
    cad0:	e0679009 	rsb	r9, r7, r9
    cad4:	e1a0700a 	mov	r7, sl
    cad8:	ea000084 	b	ccf0 <vprintf+0x530>
    cadc:	e5972000 	ldr	r2, [r7]
    cae0:	e2877004 	add	r7, r7, #4
    cae4:	e5d2a000 	ldrb	sl, [r2]
    cae8:	e35a0000 	cmp	sl, #0
    caec:	0a000005 	beq	cb08 <vprintf+0x348>
    caf0:	e1a03002 	mov	r3, r2
    caf4:	e3a0a000 	mov	sl, #0
    caf8:	e5f31001 	ldrb	r1, [r3, #1]!
    cafc:	e28aa001 	add	sl, sl, #1
    cb00:	e3510000 	cmp	r1, #0
    cb04:	1afffffb 	bne	caf8 <vprintf+0x338>
    cb08:	e21c1001 	ands	r1, ip, #1
    cb0c:	1a0000c3 	bne	ce20 <vprintf+0x660>
    cb10:	e31c0040 	tst	ip, #64	; 0x40
    cb14:	11a03009 	movne	r3, r9
    cb18:	1a0000fd 	bne	cf14 <vprintf+0x754>
    cb1c:	e3a0c020 	mov	ip, #32
    cb20:	e06a9009 	rsb	r9, sl, r9
    cb24:	ea000001 	b	cb30 <vprintf+0x370>
    cb28:	e5880000 	str	r0, [r8]
    cb2c:	e5c3c000 	strb	ip, [r3]
    cb30:	e089300a 	add	r3, r9, sl
    cb34:	e28aa001 	add	sl, sl, #1
    cb38:	e24a0001 	sub	r0, sl, #1
    cb3c:	e1540000 	cmp	r4, r0
    cb40:	da0000f1 	ble	cf0c <vprintf+0x74c>
    cb44:	e5983000 	ldr	r3, [r8]
    cb48:	e3530000 	cmp	r3, #0
    cb4c:	e2830001 	add	r0, r3, #1
    cb50:	1afffff4 	bne	cb28 <vprintf+0x368>
    cb54:	e3a00020 	mov	r0, #32
    cb58:	e58dc00c 	str	ip, [sp, #12]
    cb5c:	e58d1008 	str	r1, [sp, #8]
    cb60:	e58d2004 	str	r2, [sp, #4]
    cb64:	ebfffd3e 	bl	c064 <console_putc>
    cb68:	e59dc00c 	ldr	ip, [sp, #12]
    cb6c:	e59d1008 	ldr	r1, [sp, #8]
    cb70:	e59d2004 	ldr	r2, [sp, #4]
    cb74:	eaffffed 	b	cb30 <vprintf+0x370>
    cb78:	e5971000 	ldr	r1, [r7]
    cb7c:	e2877004 	add	r7, r7, #4
    cb80:	e3510000 	cmp	r1, #0
    cb84:	b38cc008 	orrlt	ip, ip, #8
    cb88:	b2611000 	rsblt	r1, r1, #0
    cb8c:	ba0000d1 	blt	ced8 <vprintf+0x718>
    cb90:	03a03030 	moveq	r3, #48	; 0x30
    cb94:	028da01e 	addeq	sl, sp, #30
    cb98:	05cd301f 	strbeq	r3, [sp, #31]
    cb9c:	1a0000cd 	bne	ced8 <vprintf+0x718>
    cba0:	e31c0001 	tst	ip, #1
    cba4:	0a000013 	beq	cbf8 <vprintf+0x438>
    cba8:	e28d101f 	add	r1, sp, #31
    cbac:	e06a2001 	rsb	r2, sl, r1
    cbb0:	e15b0002 	cmp	fp, r2
    cbb4:	e28d3010 	add	r3, sp, #16
    cbb8:	d3a02000 	movle	r2, #0
    cbbc:	c3a02001 	movgt	r2, #1
    cbc0:	e15a0003 	cmp	sl, r3
    cbc4:	93a02000 	movls	r2, #0
    cbc8:	e3520000 	cmp	r2, #0
    cbcc:	0a000009 	beq	cbf8 <vprintf+0x438>
    cbd0:	e3a00030 	mov	r0, #48	; 0x30
    cbd4:	e44a0001 	strb	r0, [sl], #-1
    cbd8:	e06a2001 	rsb	r2, sl, r1
    cbdc:	e152000b 	cmp	r2, fp
    cbe0:	a3a02000 	movge	r2, #0
    cbe4:	b3a02001 	movlt	r2, #1
    cbe8:	e15a0003 	cmp	sl, r3
    cbec:	93a02000 	movls	r2, #0
    cbf0:	e3520000 	cmp	r2, #0
    cbf4:	1afffff6 	bne	cbd4 <vprintf+0x414>
    cbf8:	e31c0020 	tst	ip, #32
    cbfc:	0a000013 	beq	cc50 <vprintf+0x490>
    cc00:	e28d101f 	add	r1, sp, #31
    cc04:	e06a2001 	rsb	r2, sl, r1
    cc08:	e1540002 	cmp	r4, r2
    cc0c:	e28d3010 	add	r3, sp, #16
    cc10:	d3a02000 	movle	r2, #0
    cc14:	c3a02001 	movgt	r2, #1
    cc18:	e15a0003 	cmp	sl, r3
    cc1c:	93a02000 	movls	r2, #0
    cc20:	e3520000 	cmp	r2, #0
    cc24:	0a000009 	beq	cc50 <vprintf+0x490>
    cc28:	e3a00030 	mov	r0, #48	; 0x30
    cc2c:	e44a0001 	strb	r0, [sl], #-1
    cc30:	e06a2001 	rsb	r2, sl, r1
    cc34:	e1540002 	cmp	r4, r2
    cc38:	d3a02000 	movle	r2, #0
    cc3c:	c3a02001 	movgt	r2, #1
    cc40:	e15a0003 	cmp	sl, r3
    cc44:	93a02000 	movls	r2, #0
    cc48:	e3520000 	cmp	r2, #0
    cc4c:	1afffff6 	bne	cc2c <vprintf+0x46c>
    cc50:	e31c0008 	tst	ip, #8
    cc54:	13a0302d 	movne	r3, #45	; 0x2d
    cc58:	15ca3000 	strbne	r3, [sl]
    cc5c:	124aa001 	subne	sl, sl, #1
    cc60:	e31c0010 	tst	ip, #16
    cc64:	1a000058 	bne	cdcc <vprintf+0x60c>
    cc68:	e28a4001 	add	r4, sl, #1
    cc6c:	e28d3020 	add	r3, sp, #32
    cc70:	e1540003 	cmp	r4, r3
    cc74:	3a000005 	bcc	cc90 <vprintf+0x4d0>
    cc78:	ea00001c 	b	ccf0 <vprintf+0x530>
    cc7c:	e5c30000 	strb	r0, [r3]
    cc80:	e28d3020 	add	r3, sp, #32
    cc84:	e1540003 	cmp	r4, r3
    cc88:	e5882000 	str	r2, [r8]
    cc8c:	0a000008 	beq	ccb4 <vprintf+0x4f4>
    cc90:	e5983000 	ldr	r3, [r8]
    cc94:	e4d40001 	ldrb	r0, [r4], #1
    cc98:	e3530000 	cmp	r3, #0
    cc9c:	e2832001 	add	r2, r3, #1
    cca0:	1afffff5 	bne	cc7c <vprintf+0x4bc>
    cca4:	ebfffcee 	bl	c064 <console_putc>
    cca8:	e28d3020 	add	r3, sp, #32
    ccac:	e1540003 	cmp	r4, r3
    ccb0:	1afffff6 	bne	cc90 <vprintf+0x4d0>
    ccb4:	e28d3021 	add	r3, sp, #33	; 0x21
    ccb8:	e28aa002 	add	sl, sl, #2
    ccbc:	e0839009 	add	r9, r3, r9
    ccc0:	e06a9009 	rsb	r9, sl, r9
    ccc4:	ea000009 	b	ccf0 <vprintf+0x530>
    ccc8:	e5983000 	ldr	r3, [r8]
    cccc:	e2899001 	add	r9, r9, #1
    ccd0:	e3530000 	cmp	r3, #0
    ccd4:	e2874004 	add	r4, r7, #4
    ccd8:	e5970000 	ldr	r0, [r7]
    ccdc:	0a00009e 	beq	cf5c <vprintf+0x79c>
    cce0:	e1a07004 	mov	r7, r4
    cce4:	e2832001 	add	r2, r3, #1
    cce8:	e5c30000 	strb	r0, [r3]
    ccec:	e5882000 	str	r2, [r8]
    ccf0:	e2854001 	add	r4, r5, #1
    ccf4:	eafffeb8 	b	c7dc <vprintf+0x1c>
    ccf8:	e5982000 	ldr	r2, [r8]
    ccfc:	e2899001 	add	r9, r9, #1
    cd00:	e3520000 	cmp	r2, #0
    cd04:	0a000097 	beq	cf68 <vprintf+0x7a8>
    cd08:	e2821001 	add	r1, r2, #1
    cd0c:	e5c20000 	strb	r0, [r2]
    cd10:	e5881000 	str	r1, [r8]
    cd14:	e1a04005 	mov	r4, r5
    cd18:	eafffeaf 	b	c7dc <vprintf+0x1c>
    cd1c:	e5d53001 	ldrb	r3, [r5, #1]
    cd20:	e2855001 	add	r5, r5, #1
    cd24:	e2432030 	sub	r2, r3, #48	; 0x30
    cd28:	e6ef0072 	uxtb	r0, r2
    cd2c:	e3500009 	cmp	r0, #9
    cd30:	8a000086 	bhi	cf50 <vprintf+0x790>
    cd34:	e3a0b000 	mov	fp, #0
    cd38:	e5f53001 	ldrb	r3, [r5, #1]!
    cd3c:	e08bb10b 	add	fp, fp, fp, lsl #2
    cd40:	e082b08b 	add	fp, r2, fp, lsl #1
    cd44:	e2432030 	sub	r2, r3, #48	; 0x30
    cd48:	e6ef0072 	uxtb	r0, r2
    cd4c:	e3500009 	cmp	r0, #9
    cd50:	9afffff8 	bls	cd38 <vprintf+0x578>
    cd54:	e1a00003 	mov	r0, r3
    cd58:	e1a0c001 	mov	ip, r1
    cd5c:	eafffed2 	b	c8ac <vprintf+0xec>
    cd60:	e3a01031 	mov	r1, #49	; 0x31
    cd64:	e3a0a021 	mov	sl, #33	; 0x21
    cd68:	e3a0e020 	mov	lr, #32
    cd6c:	e5d43002 	ldrb	r3, [r4, #2]
    cd70:	e2845002 	add	r5, r4, #2
    cd74:	eafffeb6 	b	c854 <vprintf+0x94>
    cd78:	e2845002 	add	r5, r4, #2
    cd7c:	e5d43002 	ldrb	r3, [r4, #2]
    cd80:	e3a01051 	mov	r1, #81	; 0x51
    cd84:	e3a0a041 	mov	sl, #65	; 0x41
    cd88:	e3a0c050 	mov	ip, #80	; 0x50
    cd8c:	e3a0e040 	mov	lr, #64	; 0x40
    cd90:	eafffeaf 	b	c854 <vprintf+0x94>
    cd94:	e31c0002 	tst	ip, #2
    cd98:	03a01057 	moveq	r1, #87	; 0x57
    cd9c:	13a01037 	movne	r1, #55	; 0x37
    cda0:	e28d701f 	add	r7, sp, #31
    cda4:	e202300f 	and	r3, r2, #15
    cda8:	e3530009 	cmp	r3, #9
    cdac:	92833030 	addls	r3, r3, #48	; 0x30
    cdb0:	80833001 	addhi	r3, r3, r1
    cdb4:	e1b02222 	lsrs	r2, r2, #4
    cdb8:	e4473001 	strb	r3, [r7], #-1
    cdbc:	1afffff8 	bne	cda4 <vprintf+0x5e4>
    cdc0:	eafffeea 	b	c970 <vprintf+0x1b0>
    cdc4:	ebfffca6 	bl	c064 <console_putc>
    cdc8:	eafffe83 	b	c7dc <vprintf+0x1c>
    cdcc:	e28d101f 	add	r1, sp, #31
    cdd0:	e06a2001 	rsb	r2, sl, r1
    cdd4:	e1540002 	cmp	r4, r2
    cdd8:	e28d3010 	add	r3, sp, #16
    cddc:	d3a02000 	movle	r2, #0
    cde0:	c3a02001 	movgt	r2, #1
    cde4:	e15a0003 	cmp	sl, r3
    cde8:	93a02000 	movls	r2, #0
    cdec:	e3520000 	cmp	r2, #0
    cdf0:	0affff9c 	beq	cc68 <vprintf+0x4a8>
    cdf4:	e3a00020 	mov	r0, #32
    cdf8:	e44a0001 	strb	r0, [sl], #-1
    cdfc:	e06a2001 	rsb	r2, sl, r1
    ce00:	e1540002 	cmp	r4, r2
    ce04:	d3a02000 	movle	r2, #0
    ce08:	c3a02001 	movgt	r2, #1
    ce0c:	e15a0003 	cmp	sl, r3
    ce10:	93a02000 	movls	r2, #0
    ce14:	e3520000 	cmp	r2, #0
    ce18:	1afffff6 	bne	cdf8 <vprintf+0x638>
    ce1c:	eaffff91 	b	cc68 <vprintf+0x4a8>
    ce20:	e15a000b 	cmp	sl, fp
    ce24:	a1a0a00b 	movge	sl, fp
    ce28:	e31c0040 	tst	ip, #64	; 0x40
    ce2c:	0affff3a 	beq	cb1c <vprintf+0x35c>
    ce30:	e1a03009 	mov	r3, r9
    ce34:	e1a09002 	mov	r9, r2
    ce38:	e082200b 	add	r2, r2, fp
    ce3c:	e069b003 	rsb	fp, r9, r3
    ce40:	e1590002 	cmp	r9, r2
    ce44:	e08b3009 	add	r3, fp, r9
    ce48:	0a00000e 	beq	ce88 <vprintf+0x6c8>
    ce4c:	e4d90001 	ldrb	r0, [r9], #1
    ce50:	e3500000 	cmp	r0, #0
    ce54:	0a00000b 	beq	ce88 <vprintf+0x6c8>
    ce58:	e5981000 	ldr	r1, [r8]
    ce5c:	e3510000 	cmp	r1, #0
    ce60:	e2813001 	add	r3, r1, #1
    ce64:	15883000 	strne	r3, [r8]
    ce68:	15c10000 	strbne	r0, [r1]
    ce6c:	1afffff3 	bne	ce40 <vprintf+0x680>
    ce70:	e58d2004 	str	r2, [sp, #4]
    ce74:	ebfffc7a 	bl	c064 <console_putc>
    ce78:	e59d2004 	ldr	r2, [sp, #4]
    ce7c:	e08b3009 	add	r3, fp, r9
    ce80:	e1590002 	cmp	r9, r2
    ce84:	1afffff0 	bne	ce4c <vprintf+0x68c>
    ce88:	e1a0b003 	mov	fp, r3
    ce8c:	e3a01020 	mov	r1, #32
    ce90:	e063a00a 	rsb	sl, r3, sl
    ce94:	ea000002 	b	cea4 <vprintf+0x6e4>
    ce98:	e5882000 	str	r2, [r8]
    ce9c:	e5c31000 	strb	r1, [r3]
    cea0:	e28bb001 	add	fp, fp, #1
    cea4:	e08a300b 	add	r3, sl, fp
    cea8:	e1540003 	cmp	r4, r3
    ceac:	e1a0900b 	mov	r9, fp
    ceb0:	daffff8e 	ble	ccf0 <vprintf+0x530>
    ceb4:	e5983000 	ldr	r3, [r8]
    ceb8:	e3530000 	cmp	r3, #0
    cebc:	e2832001 	add	r2, r3, #1
    cec0:	1afffff4 	bne	ce98 <vprintf+0x6d8>
    cec4:	e3a00020 	mov	r0, #32
    cec8:	e58d1004 	str	r1, [sp, #4]
    cecc:	ebfffc64 	bl	c064 <console_putc>
    ced0:	e59d1004 	ldr	r1, [sp, #4]
    ced4:	eafffff1 	b	cea0 <vprintf+0x6e0>
    ced8:	e28da01f 	add	sl, sp, #31
    cedc:	e0c23196 	smull	r3, r2, r6, r1
    cee0:	e1a03fc1 	asr	r3, r1, #31
    cee4:	e0633142 	rsb	r3, r3, r2, asr #2
    cee8:	e0832103 	add	r2, r3, r3, lsl #2
    ceec:	e0412082 	sub	r2, r1, r2, lsl #1
    cef0:	e2822030 	add	r2, r2, #48	; 0x30
    cef4:	e2531000 	subs	r1, r3, #0
    cef8:	e44a2001 	strb	r2, [sl], #-1
    cefc:	1afffff6 	bne	cedc <vprintf+0x71c>
    cf00:	e31c0001 	tst	ip, #1
    cf04:	0affff3b 	beq	cbf8 <vprintf+0x438>
    cf08:	eaffff26 	b	cba8 <vprintf+0x3e8>
    cf0c:	e3510000 	cmp	r1, #0
    cf10:	1affffc7 	bne	ce34 <vprintf+0x674>
    cf14:	e1a09002 	mov	r9, r2
    cf18:	e062b003 	rsb	fp, r2, r3
    cf1c:	ea000001 	b	cf28 <vprintf+0x768>
    cf20:	e5883000 	str	r3, [r8]
    cf24:	e5c10000 	strb	r0, [r1]
    cf28:	e08b3009 	add	r3, fp, r9
    cf2c:	e4d90001 	ldrb	r0, [r9], #1
    cf30:	e3500000 	cmp	r0, #0
    cf34:	0affffd3 	beq	ce88 <vprintf+0x6c8>
    cf38:	e5981000 	ldr	r1, [r8]
    cf3c:	e3510000 	cmp	r1, #0
    cf40:	e2813001 	add	r3, r1, #1
    cf44:	1afffff5 	bne	cf20 <vprintf+0x760>
    cf48:	ebfffc45 	bl	c064 <console_putc>
    cf4c:	eafffff5 	b	cf28 <vprintf+0x768>
    cf50:	e1a00003 	mov	r0, r3
    cf54:	e3a0b000 	mov	fp, #0
    cf58:	eaffff7e 	b	cd58 <vprintf+0x598>
    cf5c:	ebfffc40 	bl	c064 <console_putc>
    cf60:	e1a07004 	mov	r7, r4
    cf64:	eaffff61 	b	ccf0 <vprintf+0x530>
    cf68:	ebfffc3d 	bl	c064 <console_putc>
    cf6c:	e1a04005 	mov	r4, r5
    cf70:	eafffe19 	b	c7dc <vprintf+0x1c>
    cf74:	00021bb8 			; <UNDEFINED> instruction: 0x00021bb8
    cf78:	66666667 	strbtvs	r6, [r6], -r7, ror #12

0000cf7c <printf>:
    cf7c:	e92d000f 	push	{r0, r1, r2, r3}
    cf80:	e52de004 	push	{lr}		; (str lr, [sp, #-4]!)
    cf84:	e24dd00c 	sub	sp, sp, #12
    cf88:	e28d3014 	add	r3, sp, #20
    cf8c:	e1a01003 	mov	r1, r3
    cf90:	e59d0010 	ldr	r0, [sp, #16]
    cf94:	e58d3004 	str	r3, [sp, #4]
    cf98:	ebfffe08 	bl	c7c0 <vprintf>
    cf9c:	e28dd00c 	add	sp, sp, #12
    cfa0:	e49de004 	pop	{lr}		; (ldr lr, [sp], #4)
    cfa4:	e28dd010 	add	sp, sp, #16
    cfa8:	e12fff1e 	bx	lr

0000cfac <sprintf>:
    cfac:	e92d000e 	push	{r1, r2, r3}
    cfb0:	e92d4010 	push	{r4, lr}
    cfb4:	e59f4038 	ldr	r4, [pc, #56]	; cff4 <sprintf+0x48>
    cfb8:	e24dd00c 	sub	sp, sp, #12
    cfbc:	e28d3018 	add	r3, sp, #24
    cfc0:	e5840000 	str	r0, [r4]
    cfc4:	e1a01003 	mov	r1, r3
    cfc8:	e59d0014 	ldr	r0, [sp, #20]
    cfcc:	e58d3004 	str	r3, [sp, #4]
    cfd0:	ebfffdfa 	bl	c7c0 <vprintf>
    cfd4:	e3a03000 	mov	r3, #0
    cfd8:	e5942000 	ldr	r2, [r4]
    cfdc:	e5843000 	str	r3, [r4]
    cfe0:	e5c23000 	strb	r3, [r2]
    cfe4:	e28dd00c 	add	sp, sp, #12
    cfe8:	e8bd4010 	pop	{r4, lr}
    cfec:	e28dd00c 	add	sp, sp, #12
    cff0:	e12fff1e 	bx	lr
    cff4:	00021bb8 			; <UNDEFINED> instruction: 0x00021bb8
	...

0000d000 <FONT>:
	...
    d210:	08000000 	stmdaeq	r0, {}	; <UNPREDICTABLE>
    d214:	08080808 	stmdaeq	r8, {r3, fp}
    d218:	08080008 	stmdaeq	r8, {r3}
    d21c:	00000000 	andeq	r0, r0, r0
    d220:	14000000 	strne	r0, [r0], #-0
    d224:	00141414 	andseq	r1, r4, r4, lsl r4
	...
    d230:	48480000 	stmdami	r8, {}^	; <UNPREDICTABLE>
    d234:	2424fe68 	strtcs	pc, [r4], #-3688	; 0xfffff198
    d238:	1212147f 	andsne	r1, r2, #2130706432	; 0x7f000000
    d23c:	00000000 	andeq	r0, r0, r0
    d240:	10000000 	andne	r0, r0, r0
    d244:	1c12927c 	lfmne	f1, 1, [r2], {124}	; 0x7c
    d248:	7c929070 	ldcvc	0, cr9, [r2], {112}	; 0x70
    d24c:	00001010 	andeq	r1, r0, r0, lsl r0
    d250:	06000000 	streq	r0, [r0], -r0
    d254:	38460909 	stmdacc	r6, {r0, r3, r8, fp}^
    d258:	60909066 	addsvs	r9, r0, r6, rrx
    d25c:	00000000 	andeq	r0, r0, r0
    d260:	38000000 	stmdacc	r0, {}	; <UNPREDICTABLE>
    d264:	920c0404 	andls	r0, ip, #4, 8	; 0x4000000
    d268:	bc46a2b2 	sfmlt	f2, 3, [r6], {178}	; 0xb2
    d26c:	00000000 	andeq	r0, r0, r0
    d270:	08000000 	stmdaeq	r0, {}	; <UNPREDICTABLE>
    d274:	00080808 	andeq	r0, r8, r8, lsl #16
	...
    d280:	10103000 	andsne	r3, r0, r0
    d284:	08080808 	stmdaeq	r8, {r3, fp}
    d288:	10100808 	andsne	r0, r0, r8, lsl #16
    d28c:	00000020 	andeq	r0, r0, r0, lsr #32
    d290:	08080c00 	stmdaeq	r8, {sl, fp}
    d294:	10101010 	andsne	r1, r0, r0, lsl r0
    d298:	08081010 	stmdaeq	r8, {r4, ip}
    d29c:	0000000c 	andeq	r0, r0, ip
    d2a0:	10000000 	andne	r0, r0, r0
    d2a4:	d6387c92 			; <UNDEFINED> instruction: 0xd6387c92
    d2a8:	00000010 	andeq	r0, r0, r0, lsl r0
	...
    d2b4:	7f080808 	svcvc	0x00080808
    d2b8:	00080808 	andeq	r0, r8, r8, lsl #16
	...
    d2c8:	18180000 	ldmdane	r8, {}	; <UNPREDICTABLE>
    d2cc:	00000408 	andeq	r0, r0, r8, lsl #8
	...
    d2d8:	0000001c 	andeq	r0, r0, ip, lsl r0
	...
    d2e8:	18180000 	ldmdane	r8, {}	; <UNPREDICTABLE>
    d2ec:	00000000 	andeq	r0, r0, r0
    d2f0:	40000000 	andmi	r0, r0, r0
    d2f4:	10102020 	andsne	r2, r0, r0, lsr #32
    d2f8:	04080818 	streq	r0, [r8], #-2072	; 0xfffff7e8
    d2fc:	00000204 	andeq	r0, r0, r4, lsl #4
    d300:	38000000 	stmdacc	r0, {}	; <UNPREDICTABLE>
    d304:	92828244 	addls	r8, r2, #68, 4	; 0x40000004
    d308:	38448282 	stmdacc	r4, {r1, r7, r9, pc}^
    d30c:	00000000 	andeq	r0, r0, r0
    d310:	1c000000 	stcne	0, cr0, [r0], {-0}
    d314:	10101010 	andsne	r1, r0, r0, lsl r0
    d318:	7c101010 	ldcvc	0, cr1, [r0], {16}
    d31c:	00000000 	andeq	r0, r0, r0
    d320:	7c000000 	stcvc	0, cr0, [r0], {-0}
    d324:	408080c2 	addmi	r8, r0, r2, asr #1
    d328:	fe041830 	mcr2	8, 0, r1, cr4, cr0, {1}
    d32c:	00000000 	andeq	r0, r0, r0
    d330:	7c000000 	stcvc	0, cr0, [r0], {-0}
    d334:	38c08082 	stmiacc	r0, {r1, r7, pc}^
    d338:	7cc280c0 	stclvc	0, cr8, [r2], {192}	; 0xc0
    d33c:	00000000 	andeq	r0, r0, r0
    d340:	60000000 	andvs	r0, r0, r0
    d344:	44485850 	strbmi	r5, [r8], #-2128	; 0xfffff7b0
    d348:	4040fe42 	submi	pc, r0, r2, asr #28
    d34c:	00000000 	andeq	r0, r0, r0
    d350:	7e000000 	cdpvc	0, 0, cr0, cr0, cr0, {0}
    d354:	c03e0202 	eorsgt	r0, lr, r2, lsl #4
    d358:	3cc28080 	stclcc	0, cr8, [r2], {128}	; 0x80
    d35c:	00000000 	andeq	r0, r0, r0
    d360:	78000000 	stmdavc	r0, {}	; <UNPREDICTABLE>
    d364:	c67a0284 	ldrbtgt	r0, [sl], -r4, lsl #5
    d368:	78c48282 	stmiavc	r4, {r1, r7, r9, pc}^
    d36c:	00000000 	andeq	r0, r0, r0
    d370:	fe000000 	cdp2	0, 0, cr0, cr0, cr0, {0}
    d374:	20204040 	eorcs	r4, r0, r0, asr #32
    d378:	04081810 	streq	r1, [r8], #-2064	; 0xfffff7f0
    d37c:	00000000 	andeq	r0, r0, r0
    d380:	7c000000 	stcvc	0, cr0, [r0], {-0}
    d384:	7c828282 	sfmvc	f0, 1, [r2], {130}	; 0x82
    d388:	7c868282 	sfmvc	f0, 1, [r6], {130}	; 0x82
    d38c:	00000000 	andeq	r0, r0, r0
    d390:	3c000000 	stccc	0, cr0, [r0], {-0}
    d394:	c6828246 	strgt	r8, [r2], r6, asr #4
    d398:	3c4280bc 	mcrrcc	0, 11, r8, r2, cr12
	...
    d3a4:	00181800 	andseq	r1, r8, r0, lsl #16
    d3a8:	18180000 	ldmdane	r8, {}	; <UNPREDICTABLE>
	...
    d3b4:	00181800 	andseq	r1, r8, r0, lsl #16
    d3b8:	18180000 	ldmdane	r8, {}	; <UNPREDICTABLE>
    d3bc:	00000408 	andeq	r0, r0, r8, lsl #8
    d3c0:	00000000 	andeq	r0, r0, r0
    d3c4:	0e708000 	cdpeq	0, 7, cr8, cr0, cr0, {0}
    d3c8:	0080700e 	addeq	r7, r0, lr
	...
    d3d4:	00fe0000 	rscseq	r0, lr, r0
    d3d8:	0000fe00 	andeq	pc, r0, r0, lsl #28
	...
    d3e4:	e01c0200 	ands	r0, ip, r0, lsl #4
    d3e8:	00021ce0 	andeq	r1, r2, r0, ror #25
    d3ec:	00000000 	andeq	r0, r0, r0
    d3f0:	1c000000 	stcne	0, cr0, [r0], {-0}
    d3f4:	08102022 	ldmdaeq	r0, {r1, r5, sp}
    d3f8:	08080008 	stmdaeq	r8, {r3}
    d3fc:	00000000 	andeq	r0, r0, r0
    d400:	78000000 	stmdavc	r0, {}	; <UNPREDICTABLE>
    d404:	92e284cc 	rscls	r8, r2, #204, 8	; 0xcc000000
    d408:	04e29292 	strbteq	r9, [r2], #658	; 0x292
    d40c:	0000780c 	andeq	r7, r0, ip, lsl #16
    d410:	10000000 	andne	r0, r0, r0
    d414:	44282828 	strtmi	r2, [r8], #-2088	; 0xfffff7d8
    d418:	82c67c44 	sbchi	r7, r6, #68, 24	; 0x4400
    d41c:	00000000 	andeq	r0, r0, r0
    d420:	7e000000 	cdpvc	0, 0, cr0, cr0, cr0, {0}
    d424:	7e828282 	cdpvc	2, 8, cr8, cr2, cr2, {4}
    d428:	7e828282 	cdpvc	2, 8, cr8, cr2, cr2, {4}
    d42c:	00000000 	andeq	r0, r0, r0
    d430:	78000000 	stmdavc	r0, {}	; <UNPREDICTABLE>
    d434:	02020284 	andeq	r0, r2, #132, 4	; 0x40000008
    d438:	78840202 	stmvc	r4, {r1, r9}
    d43c:	00000000 	andeq	r0, r0, r0
    d440:	3e000000 	cdpcc	0, 0, cr0, cr0, cr0, {0}
    d444:	82828242 	addhi	r8, r2, #536870916	; 0x20000004
    d448:	3e428282 	cdpcc	2, 4, cr8, cr2, cr2, {4}
    d44c:	00000000 	andeq	r0, r0, r0
    d450:	fe000000 	cdp2	0, 0, cr0, cr0, cr0, {0}
    d454:	fe020202 	cdp2	2, 0, cr0, cr2, cr2, {0}
    d458:	fe020202 	cdp2	2, 0, cr0, cr2, cr2, {0}
    d45c:	00000000 	andeq	r0, r0, r0
    d460:	fe000000 	cdp2	0, 0, cr0, cr0, cr0, {0}
    d464:	fe020202 	cdp2	2, 0, cr0, cr2, cr2, {0}
    d468:	02020202 	andeq	r0, r2, #536870912	; 0x20000000
    d46c:	00000000 	andeq	r0, r0, r0
    d470:	78000000 	stmdavc	r0, {}	; <UNPREDICTABLE>
    d474:	c2020284 	andgt	r0, r2, #132, 4	; 0x40000008
    d478:	78848282 	stmvc	r4, {r1, r7, r9, pc}
    d47c:	00000000 	andeq	r0, r0, r0
    d480:	82000000 	andhi	r0, r0, #0
    d484:	fe828282 	cdp2	2, 8, cr8, cr2, cr2, {4}
    d488:	82828282 	addhi	r8, r2, #536870920	; 0x20000008
    d48c:	00000000 	andeq	r0, r0, r0
    d490:	3e000000 	cdpcc	0, 0, cr0, cr0, cr0, {0}
    d494:	08080808 	stmdaeq	r8, {r3, fp}
    d498:	3e080808 	cdpcc	8, 0, cr0, cr8, cr8, {0}
    d49c:	00000000 	andeq	r0, r0, r0
    d4a0:	38000000 	stmdacc	r0, {}	; <UNPREDICTABLE>
    d4a4:	20202020 	eorcs	r2, r0, r0, lsr #32
    d4a8:	1c222020 	stcne	0, cr2, [r2], #-128	; 0xffffff80
    d4ac:	00000000 	andeq	r0, r0, r0
    d4b0:	42000000 	andmi	r0, r0, #0
    d4b4:	0e0a1222 	cdpeq	2, 0, cr1, cr10, cr2, {1}
    d4b8:	42222212 	eormi	r2, r2, #536870913	; 0x20000001
    d4bc:	00000000 	andeq	r0, r0, r0
    d4c0:	02000000 	andeq	r0, r0, #0
    d4c4:	02020202 	andeq	r0, r2, #536870912	; 0x20000000
    d4c8:	fe020202 	cdp2	2, 0, cr0, cr2, cr2, {0}
    d4cc:	00000000 	andeq	r0, r0, r0
    d4d0:	c6000000 	strgt	r0, [r0], -r0
    d4d4:	aaaaaac6 	bge	feab7ff4 <__ram_end+0xf6ab7ff4>
    d4d8:	82828292 	addhi	r8, r2, #536870921	; 0x20000009
    d4dc:	00000000 	andeq	r0, r0, r0
    d4e0:	86000000 	strhi	r0, [r0], -r0
    d4e4:	928a8a86 	addls	r8, sl, #548864	; 0x86000
    d4e8:	c2c2a2a2 	sbcgt	sl, r2, #536870922	; 0x2000000a
    d4ec:	00000000 	andeq	r0, r0, r0
    d4f0:	38000000 	stmdacc	r0, {}	; <UNPREDICTABLE>
    d4f4:	82828244 	addhi	r8, r2, #68, 4	; 0x40000004
    d4f8:	38448282 	stmdacc	r4, {r1, r7, r9, pc}^
    d4fc:	00000000 	andeq	r0, r0, r0
    d500:	7e000000 	cdpvc	0, 0, cr0, cr0, cr0, {0}
    d504:	c28282c2 	addgt	r8, r2, #536870924	; 0x2000000c
    d508:	0202027e 	andeq	r0, r2, #-536870905	; 0xe0000007
    d50c:	00000000 	andeq	r0, r0, r0
    d510:	38000000 	stmdacc	r0, {}	; <UNPREDICTABLE>
    d514:	82828244 	addhi	r8, r2, #68, 4	; 0x40000004
    d518:	78448282 	stmdavc	r4, {r1, r7, r9, pc}^
    d51c:	00004060 	andeq	r4, r0, r0, rrx
    d520:	7e000000 	cdpvc	0, 0, cr0, cr0, cr0, {0}
    d524:	7e8282c2 	cdpvc	2, 8, cr8, cr2, cr2, {6}
    d528:	02828242 	addeq	r8, r2, #536870916	; 0x20000004
    d52c:	00000000 	andeq	r0, r0, r0
    d530:	7c000000 	stcvc	0, cr0, [r0], {-0}
    d534:	7c060286 	sfmvc	f0, 4, [r6], {134}	; 0x86
    d538:	7dc280c0 	stclvc	0, cr8, [r2, #768]	; 0x300
    d53c:	00000000 	andeq	r0, r0, r0
    d540:	7f000000 	svcvc	0x00000000
    d544:	08080808 	stmdaeq	r8, {r3, fp}
    d548:	08080808 	stmdaeq	r8, {r3, fp}
    d54c:	00000000 	andeq	r0, r0, r0
    d550:	82000000 	andhi	r0, r0, #0
    d554:	82828282 	addhi	r8, r2, #536870920	; 0x20000008
    d558:	7c828282 	sfmvc	f0, 1, [r2], {130}	; 0x82
    d55c:	00000000 	andeq	r0, r0, r0
    d560:	82000000 	andhi	r0, r0, #0
    d564:	444444c6 	strbmi	r4, [r4], #-1222	; 0xfffffb3a
    d568:	10282828 	eorne	r2, r8, r8, lsr #16
    d56c:	00000000 	andeq	r0, r0, r0
    d570:	81000000 	mrshi	r0, (UNDEF: 0)
    d574:	5a5a8181 	bpl	16adb80 <__sys_stack_top+0x168a4d0>
    d578:	6666665a 			; <UNDEFINED> instruction: 0x6666665a
    d57c:	00000000 	andeq	r0, r0, r0
    d580:	c6000000 	strgt	r0, [r0], -r0
    d584:	10382844 	eorsne	r2, r8, r4, asr #16
    d588:	82446c28 	subhi	r6, r4, #40, 24	; 0x2800
    d58c:	00000000 	andeq	r0, r0, r0
    d590:	41000000 	mrsmi	r0, (UNDEF: 0)
    d594:	08141422 	ldmdaeq	r4, {r1, r5, sl, ip}
    d598:	08080808 	stmdaeq	r8, {r3, fp}
    d59c:	00000000 	andeq	r0, r0, r0
    d5a0:	fe000000 	cdp2	0, 0, cr0, cr0, cr0, {0}
    d5a4:	102060c0 	eorne	r6, r0, r0, asr #1
    d5a8:	fe060c08 	cdp2	12, 0, cr0, cr6, cr8, {0}
    d5ac:	00000000 	andeq	r0, r0, r0
    d5b0:	08083800 	stmdaeq	r8, {fp, ip, sp}
    d5b4:	08080808 	stmdaeq	r8, {r3, fp}
    d5b8:	08080808 	stmdaeq	r8, {r3, fp}
    d5bc:	00000038 	andeq	r0, r0, r8, lsr r0
    d5c0:	02000000 	andeq	r0, r0, #0
    d5c4:	08080404 	stmdaeq	r8, {r2, sl}
    d5c8:	20101018 	andscs	r1, r0, r8, lsl r0
    d5cc:	00004020 	andeq	r4, r0, r0, lsr #32
    d5d0:	10101c00 	andsne	r1, r0, r0, lsl #24
    d5d4:	10101010 	andsne	r1, r0, r0, lsl r0
    d5d8:	10101010 	andsne	r1, r0, r0, lsl r0
    d5dc:	0000001c 	andeq	r0, r0, ip, lsl r0
    d5e0:	08000000 	stmdaeq	r0, {}	; <UNPREDICTABLE>
    d5e4:	00632214 	rsbeq	r2, r3, r4, lsl r2
	...
    d5fc:	007f0000 	rsbseq	r0, pc, r0
    d600:	10080000 	andne	r0, r8, r0
	...
    d614:	40443800 	submi	r3, r4, r0, lsl #16
    d618:	5c62427c 	sfmpl	f4, 2, [r2], #-496	; 0xfffffe10
    d61c:	00000000 	andeq	r0, r0, r0
    d620:	02020200 	andeq	r0, r2, #0, 4
    d624:	42663e02 	rsbmi	r3, r6, #2, 28
    d628:	3e664242 	cdpcc	2, 6, cr4, cr6, cr2, {2}
	...
    d634:	02443800 	subeq	r3, r4, #0, 16
    d638:	38440202 	stmdacc	r4, {r1, r9}^
    d63c:	00000000 	andeq	r0, r0, r0
    d640:	40404000 	submi	r4, r0, r0
    d644:	42667c40 	rsbmi	r7, r6, #64, 24	; 0x4000
    d648:	7c664242 	sfmvc	f4, 2, [r6], #-264	; 0xfffffef8
	...
    d654:	42663c00 	rsbmi	r3, r6, #0, 24
    d658:	3c46027e 	sfmcc	f0, 2, [r6], {126}	; 0x7e
    d65c:	00000000 	andeq	r0, r0, r0
    d660:	08083000 	stmdaeq	r8, {ip, sp}
    d664:	08083e08 	stmdaeq	r8, {r3, r9, sl, fp, ip, sp}
    d668:	08080808 	stmdaeq	r8, {r3, fp}
	...
    d674:	42667c00 	rsbmi	r7, r6, #0, 24
    d678:	5c664242 	sfmpl	f4, 2, [r6], #-264	; 0xfffffef8
    d67c:	00384440 	eorseq	r4, r8, r0, asr #8
    d680:	02020200 	andeq	r0, r2, #0, 4
    d684:	42463a02 	submi	r3, r6, #8192	; 0x2000
    d688:	42424242 	submi	r4, r2, #536870916	; 0x20000004
    d68c:	00000000 	andeq	r0, r0, r0
    d690:	00000800 	andeq	r0, r0, r0, lsl #16
    d694:	08080e00 	stmdaeq	r8, {r9, sl, fp}
    d698:	3e080808 	cdpcc	8, 0, cr0, cr8, cr8, {0}
    d69c:	00000000 	andeq	r0, r0, r0
    d6a0:	00001000 	andeq	r1, r0, r0
    d6a4:	10101c00 	andsne	r1, r0, r0, lsl #24
    d6a8:	10101010 	andsne	r1, r0, r0, lsl r0
    d6ac:	000e1010 	andeq	r1, lr, r0, lsl r0
    d6b0:	02020200 	andeq	r0, r2, #0, 4
    d6b4:	0a122202 	beq	495ec4 <__sys_stack_top+0x472814>
    d6b8:	4222120e 	eormi	r1, r2, #-536870912	; 0xe0000000
    d6bc:	00000000 	andeq	r0, r0, r0
    d6c0:	08080e00 	stmdaeq	r8, {r9, sl, fp}
    d6c4:	08080808 	stmdaeq	r8, {r3, fp}
    d6c8:	70080808 	andvc	r0, r8, r8, lsl #16
	...
    d6d4:	9292fe00 	addsls	pc, r2, #0, 28
    d6d8:	92929292 	addsls	r9, r2, #536870921	; 0x20000009
	...
    d6e4:	42463a00 	submi	r3, r6, #0, 20
    d6e8:	42424242 	submi	r4, r2, #536870916	; 0x20000004
	...
    d6f4:	42663c00 	rsbmi	r3, r6, #0, 24
    d6f8:	3c664242 	sfmcc	f4, 2, [r6], #-264	; 0xfffffef8
	...
    d704:	42663e00 	rsbmi	r3, r6, #0, 28
    d708:	3e664242 	cdpcc	2, 6, cr4, cr6, cr2, {2}
    d70c:	00020202 	andeq	r0, r2, r2, lsl #4
    d710:	00000000 	andeq	r0, r0, r0
    d714:	42667c00 	rsbmi	r7, r6, #0, 24
    d718:	5c664242 	sfmpl	f4, 2, [r6], #-264	; 0xfffffef8
    d71c:	00404040 	subeq	r4, r0, r0, asr #32
    d720:	00000000 	andeq	r0, r0, r0
    d724:	044c3c00 	strbeq	r3, [ip], #-3072	; 0xfffff400
    d728:	04040404 	streq	r0, [r4], #-1028	; 0xfffffbfc
	...
    d734:	02423c00 	subeq	r3, r2, #0, 24
    d738:	3c42403c 	mcrrcc	0, 3, r4, r2, cr12
    d73c:	00000000 	andeq	r0, r0, r0
    d740:	08000000 	stmdaeq	r0, {}	; <UNPREDICTABLE>
    d744:	08087e08 	stmdaeq	r8, {r3, r9, sl, fp, ip, sp, lr}
    d748:	70080808 	andvc	r0, r8, r8, lsl #16
	...
    d754:	42424200 	submi	r4, r2, #0, 4
    d758:	5c624242 	sfmpl	f4, 2, [r2], #-264	; 0xfffffef8
	...
    d764:	24664200 	strbtcs	r4, [r6], #-512	; 0xfffffe00
    d768:	18183c24 	ldmdane	r8, {r2, r5, sl, fp, ip, sp}
	...
    d774:	5a818100 	bpl	fe06db7c <__ram_end+0xf606db7c>
    d778:	24245a5a 	strtcs	r5, [r4], #-2650	; 0xfffff5a6
	...
    d784:	18246600 	stmdane	r4!, {r9, sl, sp, lr}
    d788:	66241818 			; <UNDEFINED> instruction: 0x66241818
	...
    d794:	24444200 	strbcs	r4, [r4], #-512	; 0xfffffe00
    d798:	10182824 	andsne	r2, r8, r4, lsr #16
    d79c:	000c0810 	andeq	r0, ip, r0, lsl r8
    d7a0:	00000000 	andeq	r0, r0, r0
    d7a4:	20407e00 	subcs	r7, r0, r0, lsl #28
    d7a8:	7e020418 	cfmvdlrvc	mvd2, r0
    d7ac:	00000000 	andeq	r0, r0, r0
    d7b0:	08083800 	stmdaeq	r8, {fp, ip, sp}
    d7b4:	08060808 	stmdaeq	r6, {r3, fp}
    d7b8:	08080808 	stmdaeq	r8, {r3, fp}
    d7bc:	00000030 	andeq	r0, r0, r0, lsr r0
    d7c0:	08080800 	stmdaeq	r8, {fp}
    d7c4:	08080808 	stmdaeq	r8, {r3, fp}
    d7c8:	08080808 	stmdaeq	r8, {r3, fp}
    d7cc:	00000808 	andeq	r0, r0, r8, lsl #16
    d7d0:	08080e00 	stmdaeq	r8, {r9, sl, fp}
    d7d4:	08300808 	ldmdaeq	r0!, {r3, fp}
    d7d8:	08080808 	stmdaeq	r8, {r3, fp}
    d7dc:	00000006 	andeq	r0, r0, r6
    d7e0:	00000000 	andeq	r0, r0, r0
    d7e4:	9c000000 	stcls	0, cr0, [r0], {-0}
    d7e8:	00000062 	andeq	r0, r0, r2, rrx
    d7ec:	00000000 	andeq	r0, r0, r0
    d7f0:	ffffffff 			; <UNDEFINED> instruction: 0xffffffff
    d7f4:	ffffffff 			; <UNDEFINED> instruction: 0xffffffff
    d7f8:	ffffffff 			; <UNDEFINED> instruction: 0xffffffff
    d7fc:	ffffffff 			; <UNDEFINED> instruction: 0xffffffff

0000d800 <get_fileinfo>:
    d800:	e5903010 	ldr	r3, [r0, #16]
    d804:	e92d41f0 	push	{r4, r5, r6, r7, r8, lr}
    d808:	e3530000 	cmp	r3, #0
    d80c:	e2812009 	add	r2, r1, #9
    d810:	0a000071 	beq	d9dc <get_fileinfo+0x1dc>
    d814:	e5903014 	ldr	r3, [r0, #20]
    d818:	e5d3e00c 	ldrb	lr, [r3, #12]
    d81c:	e5d3c000 	ldrb	ip, [r3]
    d820:	e31e0008 	tst	lr, #8
    d824:	1a000095 	bne	da80 <get_fileinfo+0x280>
    d828:	e35c0020 	cmp	ip, #32
    d82c:	0a000034 	beq	d904 <get_fileinfo+0x104>
    d830:	e35c0005 	cmp	ip, #5
    d834:	03a0c0e5 	moveq	ip, #229	; 0xe5
    d838:	e5c1c009 	strb	ip, [r1, #9]
    d83c:	e5d3c001 	ldrb	ip, [r3, #1]
    d840:	e281200a 	add	r2, r1, #10
    d844:	e35c0020 	cmp	ip, #32
    d848:	0a00002d 	beq	d904 <get_fileinfo+0x104>
    d84c:	e35c0005 	cmp	ip, #5
    d850:	03a0c0e5 	moveq	ip, #229	; 0xe5
    d854:	e5c1c00a 	strb	ip, [r1, #10]
    d858:	e5d3c002 	ldrb	ip, [r3, #2]
    d85c:	e281200b 	add	r2, r1, #11
    d860:	e35c0020 	cmp	ip, #32
    d864:	0a000026 	beq	d904 <get_fileinfo+0x104>
    d868:	e35c0005 	cmp	ip, #5
    d86c:	03a0c0e5 	moveq	ip, #229	; 0xe5
    d870:	e5c1c00b 	strb	ip, [r1, #11]
    d874:	e5d3c003 	ldrb	ip, [r3, #3]
    d878:	e281200c 	add	r2, r1, #12
    d87c:	e35c0020 	cmp	ip, #32
    d880:	0a00001f 	beq	d904 <get_fileinfo+0x104>
    d884:	e35c0005 	cmp	ip, #5
    d888:	03a0c0e5 	moveq	ip, #229	; 0xe5
    d88c:	e5c1c00c 	strb	ip, [r1, #12]
    d890:	e5d3c004 	ldrb	ip, [r3, #4]
    d894:	e281200d 	add	r2, r1, #13
    d898:	e35c0020 	cmp	ip, #32
    d89c:	0a000018 	beq	d904 <get_fileinfo+0x104>
    d8a0:	e35c0005 	cmp	ip, #5
    d8a4:	03a0c0e5 	moveq	ip, #229	; 0xe5
    d8a8:	e5c1c00d 	strb	ip, [r1, #13]
    d8ac:	e5d3c005 	ldrb	ip, [r3, #5]
    d8b0:	e281200e 	add	r2, r1, #14
    d8b4:	e35c0020 	cmp	ip, #32
    d8b8:	0a000011 	beq	d904 <get_fileinfo+0x104>
    d8bc:	e35c0005 	cmp	ip, #5
    d8c0:	03a0c0e5 	moveq	ip, #229	; 0xe5
    d8c4:	e5c1c00e 	strb	ip, [r1, #14]
    d8c8:	e5d3c006 	ldrb	ip, [r3, #6]
    d8cc:	e281200f 	add	r2, r1, #15
    d8d0:	e35c0020 	cmp	ip, #32
    d8d4:	0a00000a 	beq	d904 <get_fileinfo+0x104>
    d8d8:	e35c0005 	cmp	ip, #5
    d8dc:	03a0c0e5 	moveq	ip, #229	; 0xe5
    d8e0:	e5c1c00f 	strb	ip, [r1, #15]
    d8e4:	e5d3c007 	ldrb	ip, [r3, #7]
    d8e8:	e2812010 	add	r2, r1, #16
    d8ec:	e35c0020 	cmp	ip, #32
    d8f0:	0a000003 	beq	d904 <get_fileinfo+0x104>
    d8f4:	e35c0005 	cmp	ip, #5
    d8f8:	03a0c0e5 	moveq	ip, #229	; 0xe5
    d8fc:	e2812011 	add	r2, r1, #17
    d900:	e5c1c010 	strb	ip, [r1, #16]
    d904:	e5d3c008 	ldrb	ip, [r3, #8]
    d908:	e35c0020 	cmp	ip, #32
    d90c:	0a00001f 	beq	d990 <get_fileinfo+0x190>
    d910:	e3a0c02e 	mov	ip, #46	; 0x2e
    d914:	e31e0010 	tst	lr, #16
    d918:	e5c2c000 	strb	ip, [r2]
    d91c:	e282e001 	add	lr, r2, #1
    d920:	e5d3c008 	ldrb	ip, [r3, #8]
    d924:	0a0000b5 	beq	dc00 <get_fileinfo+0x400>
    d928:	e35c0020 	cmp	ip, #32
    d92c:	0a0000bf 	beq	dc30 <get_fileinfo+0x430>
    d930:	e24ce041 	sub	lr, ip, #65	; 0x41
    d934:	e35e0019 	cmp	lr, #25
    d938:	928cc020 	addls	ip, ip, #32
    d93c:	96efc07c 	uxtbls	ip, ip
    d940:	e5c2c001 	strb	ip, [r2, #1]
    d944:	e5d3c009 	ldrb	ip, [r3, #9]
    d948:	e282e002 	add	lr, r2, #2
    d94c:	e35c0020 	cmp	ip, #32
    d950:	0a0000b6 	beq	dc30 <get_fileinfo+0x430>
    d954:	e24ce041 	sub	lr, ip, #65	; 0x41
    d958:	e35e0019 	cmp	lr, #25
    d95c:	928cc020 	addls	ip, ip, #32
    d960:	96efc07c 	uxtbls	ip, ip
    d964:	e5c2c002 	strb	ip, [r2, #2]
    d968:	e5d3c00a 	ldrb	ip, [r3, #10]
    d96c:	e282e003 	add	lr, r2, #3
    d970:	e35c0020 	cmp	ip, #32
    d974:	0a0000ad 	beq	dc30 <get_fileinfo+0x430>
    d978:	e24ce041 	sub	lr, ip, #65	; 0x41
    d97c:	e35e0019 	cmp	lr, #25
    d980:	928cc020 	addls	ip, ip, #32
    d984:	96efc07c 	uxtbls	ip, ip
    d988:	e5c2c003 	strb	ip, [r2, #3]
    d98c:	e2822004 	add	r2, r2, #4
    d990:	e5d3c00b 	ldrb	ip, [r3, #11]
    d994:	e5c1c008 	strb	ip, [r1, #8]
    d998:	e5d3c01e 	ldrb	ip, [r3, #30]
    d99c:	e5d3401f 	ldrb	r4, [r3, #31]
    d9a0:	e5d3e01c 	ldrb	lr, [r3, #28]
    d9a4:	e1a0c80c 	lsl	ip, ip, #16
    d9a8:	e18ccc04 	orr	ip, ip, r4, lsl #24
    d9ac:	e5d3401d 	ldrb	r4, [r3, #29]
    d9b0:	e18cc00e 	orr	ip, ip, lr
    d9b4:	e18cc404 	orr	ip, ip, r4, lsl #8
    d9b8:	e581c000 	str	ip, [r1]
    d9bc:	e5d3e019 	ldrb	lr, [r3, #25]
    d9c0:	e5d3c018 	ldrb	ip, [r3, #24]
    d9c4:	e18cc40e 	orr	ip, ip, lr, lsl #8
    d9c8:	e1c1c0b4 	strh	ip, [r1, #4]
    d9cc:	e5d3c017 	ldrb	ip, [r3, #23]
    d9d0:	e5d33016 	ldrb	r3, [r3, #22]
    d9d4:	e183340c 	orr	r3, r3, ip, lsl #8
    d9d8:	e1c130b6 	strh	r3, [r1, #6]
    d9dc:	e3a05000 	mov	r5, #0
    d9e0:	e5c25000 	strb	r5, [r2]
    d9e4:	e5917018 	ldr	r7, [r1, #24]
    d9e8:	e1570005 	cmp	r7, r5
    d9ec:	08bd81f0 	popeq	{r4, r5, r6, r7, r8, pc}
    d9f0:	e591301c 	ldr	r3, [r1, #28]
    d9f4:	e1530005 	cmp	r3, r5
    d9f8:	08bd81f0 	popeq	{r4, r5, r6, r7, r8, pc}
    d9fc:	e5903010 	ldr	r3, [r0, #16]
    da00:	e1530005 	cmp	r3, r5
    da04:	1a000003 	bne	da18 <get_fileinfo+0x218>
    da08:	e3a05000 	mov	r5, #0
    da0c:	e3a03000 	mov	r3, #0
    da10:	e7c73005 	strb	r3, [r7, r5]
    da14:	e8bd81f0 	pop	{r4, r5, r6, r7, r8, pc}
    da18:	e1d022b0 	ldrh	r2, [r0, #32]
    da1c:	e59f3214 	ldr	r3, [pc, #532]	; dc38 <get_fileinfo+0x438>
    da20:	e1520003 	cmp	r2, r3
    da24:	0afffff7 	beq	da08 <get_fileinfo+0x208>
    da28:	e590601c 	ldr	r6, [r0, #28]
    da2c:	e1d600b0 	ldrh	r0, [r6]
    da30:	e2866002 	add	r6, r6, #2
    da34:	e3500000 	cmp	r0, #0
    da38:	0afffff2 	beq	da08 <get_fileinfo+0x208>
    da3c:	e1a04001 	mov	r4, r1
    da40:	e2478001 	sub	r8, r7, #1
    da44:	ea000008 	b	da6c <get_fileinfo+0x26c>
    da48:	e594301c 	ldr	r3, [r4, #28]
    da4c:	e2433001 	sub	r3, r3, #1
    da50:	e1530005 	cmp	r3, r5
    da54:	9affffeb 	bls	da08 <get_fileinfo+0x208>
    da58:	e5e80001 	strb	r0, [r8, #1]!
    da5c:	e0d600b2 	ldrh	r0, [r6], #2
    da60:	e2855001 	add	r5, r5, #1
    da64:	e3500000 	cmp	r0, #0
    da68:	0affffe7 	beq	da0c <get_fileinfo+0x20c>
    da6c:	e3a01000 	mov	r1, #0
    da70:	eb0028b6 	bl	17d50 <ff_convert>
    da74:	e3500000 	cmp	r0, #0
    da78:	1afffff2 	bne	da48 <get_fileinfo+0x248>
    da7c:	eaffffe1 	b	da08 <get_fileinfo+0x208>
    da80:	e35c0020 	cmp	ip, #32
    da84:	0affff9e 	beq	d904 <get_fileinfo+0x104>
    da88:	e35c0005 	cmp	ip, #5
    da8c:	03a0c0e5 	moveq	ip, #229	; 0xe5
    da90:	0a000003 	beq	daa4 <get_fileinfo+0x2a4>
    da94:	e24c2041 	sub	r2, ip, #65	; 0x41
    da98:	e3520019 	cmp	r2, #25
    da9c:	928cc020 	addls	ip, ip, #32
    daa0:	96efc07c 	uxtbls	ip, ip
    daa4:	e5c1c009 	strb	ip, [r1, #9]
    daa8:	e5d3c001 	ldrb	ip, [r3, #1]
    daac:	e281200a 	add	r2, r1, #10
    dab0:	e35c0020 	cmp	ip, #32
    dab4:	0affff92 	beq	d904 <get_fileinfo+0x104>
    dab8:	e35c0005 	cmp	ip, #5
    dabc:	03a0c0e5 	moveq	ip, #229	; 0xe5
    dac0:	0a000003 	beq	dad4 <get_fileinfo+0x2d4>
    dac4:	e24c2041 	sub	r2, ip, #65	; 0x41
    dac8:	e3520019 	cmp	r2, #25
    dacc:	928cc020 	addls	ip, ip, #32
    dad0:	96efc07c 	uxtbls	ip, ip
    dad4:	e5c1c00a 	strb	ip, [r1, #10]
    dad8:	e5d3c002 	ldrb	ip, [r3, #2]
    dadc:	e281200b 	add	r2, r1, #11
    dae0:	e35c0020 	cmp	ip, #32
    dae4:	0affff86 	beq	d904 <get_fileinfo+0x104>
    dae8:	e35c0005 	cmp	ip, #5
    daec:	03a0c0e5 	moveq	ip, #229	; 0xe5
    daf0:	0a000003 	beq	db04 <get_fileinfo+0x304>
    daf4:	e24c2041 	sub	r2, ip, #65	; 0x41
    daf8:	e3520019 	cmp	r2, #25
    dafc:	928cc020 	addls	ip, ip, #32
    db00:	96efc07c 	uxtbls	ip, ip
    db04:	e5c1c00b 	strb	ip, [r1, #11]
    db08:	e5d3c003 	ldrb	ip, [r3, #3]
    db0c:	e281200c 	add	r2, r1, #12
    db10:	e35c0020 	cmp	ip, #32
    db14:	0affff7a 	beq	d904 <get_fileinfo+0x104>
    db18:	e35c0005 	cmp	ip, #5
    db1c:	03a0c0e5 	moveq	ip, #229	; 0xe5
    db20:	0a000003 	beq	db34 <get_fileinfo+0x334>
    db24:	e24c2041 	sub	r2, ip, #65	; 0x41
    db28:	e3520019 	cmp	r2, #25
    db2c:	928cc020 	addls	ip, ip, #32
    db30:	96efc07c 	uxtbls	ip, ip
    db34:	e5c1c00c 	strb	ip, [r1, #12]
    db38:	e5d3c004 	ldrb	ip, [r3, #4]
    db3c:	e281200d 	add	r2, r1, #13
    db40:	e35c0020 	cmp	ip, #32
    db44:	0affff6e 	beq	d904 <get_fileinfo+0x104>
    db48:	e35c0005 	cmp	ip, #5
    db4c:	03a0c0e5 	moveq	ip, #229	; 0xe5
    db50:	0a000003 	beq	db64 <get_fileinfo+0x364>
    db54:	e24c2041 	sub	r2, ip, #65	; 0x41
    db58:	e3520019 	cmp	r2, #25
    db5c:	928cc020 	addls	ip, ip, #32
    db60:	96efc07c 	uxtbls	ip, ip
    db64:	e5c1c00d 	strb	ip, [r1, #13]
    db68:	e5d3c005 	ldrb	ip, [r3, #5]
    db6c:	e281200e 	add	r2, r1, #14
    db70:	e35c0020 	cmp	ip, #32
    db74:	0affff62 	beq	d904 <get_fileinfo+0x104>
    db78:	e35c0005 	cmp	ip, #5
    db7c:	03a0c0e5 	moveq	ip, #229	; 0xe5
    db80:	0a000003 	beq	db94 <get_fileinfo+0x394>
    db84:	e24c2041 	sub	r2, ip, #65	; 0x41
    db88:	e3520019 	cmp	r2, #25
    db8c:	928cc020 	addls	ip, ip, #32
    db90:	96efc07c 	uxtbls	ip, ip
    db94:	e5c1c00e 	strb	ip, [r1, #14]
    db98:	e5d3c006 	ldrb	ip, [r3, #6]
    db9c:	e281200f 	add	r2, r1, #15
    dba0:	e35c0020 	cmp	ip, #32
    dba4:	0affff56 	beq	d904 <get_fileinfo+0x104>
    dba8:	e35c0005 	cmp	ip, #5
    dbac:	03a0c0e5 	moveq	ip, #229	; 0xe5
    dbb0:	0a000003 	beq	dbc4 <get_fileinfo+0x3c4>
    dbb4:	e24c2041 	sub	r2, ip, #65	; 0x41
    dbb8:	e3520019 	cmp	r2, #25
    dbbc:	928cc020 	addls	ip, ip, #32
    dbc0:	96efc07c 	uxtbls	ip, ip
    dbc4:	e5c1c00f 	strb	ip, [r1, #15]
    dbc8:	e5d3c007 	ldrb	ip, [r3, #7]
    dbcc:	e2812010 	add	r2, r1, #16
    dbd0:	e35c0020 	cmp	ip, #32
    dbd4:	0affff4a 	beq	d904 <get_fileinfo+0x104>
    dbd8:	e35c0005 	cmp	ip, #5
    dbdc:	03a0c0e5 	moveq	ip, #229	; 0xe5
    dbe0:	0a000003 	beq	dbf4 <get_fileinfo+0x3f4>
    dbe4:	e24c2041 	sub	r2, ip, #65	; 0x41
    dbe8:	e3520019 	cmp	r2, #25
    dbec:	928cc020 	addls	ip, ip, #32
    dbf0:	96efc07c 	uxtbls	ip, ip
    dbf4:	e5c1c010 	strb	ip, [r1, #16]
    dbf8:	e2812011 	add	r2, r1, #17
    dbfc:	eaffff40 	b	d904 <get_fileinfo+0x104>
    dc00:	e35c0020 	cmp	ip, #32
    dc04:	0a000009 	beq	dc30 <get_fileinfo+0x430>
    dc08:	e5c2c001 	strb	ip, [r2, #1]
    dc0c:	e5d3c009 	ldrb	ip, [r3, #9]
    dc10:	e282e002 	add	lr, r2, #2
    dc14:	e35c0020 	cmp	ip, #32
    dc18:	0a000004 	beq	dc30 <get_fileinfo+0x430>
    dc1c:	e5c2c002 	strb	ip, [r2, #2]
    dc20:	e5d3c00a 	ldrb	ip, [r3, #10]
    dc24:	e282e003 	add	lr, r2, #3
    dc28:	e35c0020 	cmp	ip, #32
    dc2c:	1affff55 	bne	d988 <get_fileinfo+0x188>
    dc30:	e1a0200e 	mov	r2, lr
    dc34:	eaffff55 	b	d990 <get_fileinfo+0x190>
    dc38:	0000ffff 	strdeq	pc, [r0], -pc	; <UNPREDICTABLE>

0000dc3c <check_fs>:
    dc3c:	e92d4010 	push	{r4, lr}
    dc40:	e1a04000 	mov	r4, r0
    dc44:	e1a02001 	mov	r2, r1
    dc48:	e5d00001 	ldrb	r0, [r0, #1]
    dc4c:	e2841034 	add	r1, r4, #52	; 0x34
    dc50:	e3a03001 	mov	r3, #1
    dc54:	eb002879 	bl	17e40 <disk_read>
    dc58:	e3500000 	cmp	r0, #0
    dc5c:	0a000001 	beq	dc68 <check_fs+0x2c>
    dc60:	e3a00003 	mov	r0, #3
    dc64:	e8bd8010 	pop	{r4, pc}
    dc68:	e5d41233 	ldrb	r1, [r4, #563]	; 0x233
    dc6c:	e5d43232 	ldrb	r3, [r4, #562]	; 0x232
    dc70:	e59f2070 	ldr	r2, [pc, #112]	; dce8 <check_fs+0xac>
    dc74:	e1833401 	orr	r3, r3, r1, lsl #8
    dc78:	e1530002 	cmp	r3, r2
    dc7c:	0a000001 	beq	dc88 <check_fs+0x4c>
    dc80:	e3a00002 	mov	r0, #2
    dc84:	e8bd8010 	pop	{r4, pc}
    dc88:	e5d4306c 	ldrb	r3, [r4, #108]	; 0x6c
    dc8c:	e5d4106d 	ldrb	r1, [r4, #109]	; 0x6d
    dc90:	e1a03803 	lsl	r3, r3, #16
    dc94:	e5d4206a 	ldrb	r2, [r4, #106]	; 0x6a
    dc98:	e1833c01 	orr	r3, r3, r1, lsl #24
    dc9c:	e5d4106b 	ldrb	r1, [r4, #107]	; 0x6b
    dca0:	e1833002 	orr	r3, r3, r2
    dca4:	e1833401 	orr	r3, r3, r1, lsl #8
    dca8:	e59f103c 	ldr	r1, [pc, #60]	; dcec <check_fs+0xb0>
    dcac:	e3c334ff 	bic	r3, r3, #-16777216	; 0xff000000
    dcb0:	e1530001 	cmp	r3, r1
    dcb4:	08bd8010 	popeq	{r4, pc}
    dcb8:	e5d43088 	ldrb	r3, [r4, #136]	; 0x88
    dcbc:	e5d40089 	ldrb	r0, [r4, #137]	; 0x89
    dcc0:	e5d42086 	ldrb	r2, [r4, #134]	; 0x86
    dcc4:	e1a03803 	lsl	r3, r3, #16
    dcc8:	e1833c00 	orr	r3, r3, r0, lsl #24
    dccc:	e5d40087 	ldrb	r0, [r4, #135]	; 0x87
    dcd0:	e1833002 	orr	r3, r3, r2
    dcd4:	e1833400 	orr	r3, r3, r0, lsl #8
    dcd8:	e3c334ff 	bic	r3, r3, #-16777216	; 0xff000000
    dcdc:	e0530001 	subs	r0, r3, r1
    dce0:	13a00001 	movne	r0, #1
    dce4:	e8bd8010 	pop	{r4, pc}
    dce8:	0000aa55 	andeq	sl, r0, r5, asr sl
    dcec:	00544146 	subseq	r4, r4, r6, asr #2

0000dcf0 <move_window>:
    dcf0:	e92d41f0 	push	{r4, r5, r6, r7, r8, lr}
    dcf4:	e5905030 	ldr	r5, [r0, #48]	; 0x30
    dcf8:	e1550001 	cmp	r5, r1
    dcfc:	0a00002e 	beq	ddbc <move_window+0xcc>
    dd00:	e5d03004 	ldrb	r3, [r0, #4]
    dd04:	e1a06001 	mov	r6, r1
    dd08:	e3530000 	cmp	r3, #0
    dd0c:	e1a04000 	mov	r4, r0
    dd10:	e2807034 	add	r7, r0, #52	; 0x34
    dd14:	1a000008 	bne	dd3c <move_window+0x4c>
    dd18:	e1a01007 	mov	r1, r7
    dd1c:	e5d40001 	ldrb	r0, [r4, #1]
    dd20:	e1a02006 	mov	r2, r6
    dd24:	e3a03001 	mov	r3, #1
    dd28:	eb002844 	bl	17e40 <disk_read>
    dd2c:	e3500000 	cmp	r0, #0
    dd30:	1a000008 	bne	dd58 <move_window+0x68>
    dd34:	e5846030 	str	r6, [r4, #48]	; 0x30
    dd38:	e8bd81f0 	pop	{r4, r5, r6, r7, r8, pc}
    dd3c:	e1a01007 	mov	r1, r7
    dd40:	e5d00001 	ldrb	r0, [r0, #1]
    dd44:	e1a02005 	mov	r2, r5
    dd48:	e3a03001 	mov	r3, #1
    dd4c:	eb002859 	bl	17eb8 <disk_write>
    dd50:	e3500000 	cmp	r0, #0
    dd54:	0a000001 	beq	dd60 <move_window+0x70>
    dd58:	e3a00001 	mov	r0, #1
    dd5c:	e8bd81f0 	pop	{r4, r5, r6, r7, r8, pc}
    dd60:	e5942024 	ldr	r2, [r4, #36]	; 0x24
    dd64:	e5c40004 	strb	r0, [r4, #4]
    dd68:	e1550002 	cmp	r5, r2
    dd6c:	3affffe9 	bcc	dd18 <move_window+0x28>
    dd70:	e594301c 	ldr	r3, [r4, #28]
    dd74:	e0832002 	add	r2, r3, r2
    dd78:	e1550002 	cmp	r5, r2
    dd7c:	2affffe5 	bcs	dd18 <move_window+0x28>
    dd80:	e5d48003 	ldrb	r8, [r4, #3]
    dd84:	e3580001 	cmp	r8, #1
    dd88:	8a000001 	bhi	dd94 <move_window+0xa4>
    dd8c:	eaffffe1 	b	dd18 <move_window+0x28>
    dd90:	e594301c 	ldr	r3, [r4, #28]
    dd94:	e0855003 	add	r5, r5, r3
    dd98:	e2488001 	sub	r8, r8, #1
    dd9c:	e1a02005 	mov	r2, r5
    dda0:	e5d40001 	ldrb	r0, [r4, #1]
    dda4:	e1a01007 	mov	r1, r7
    dda8:	e3a03001 	mov	r3, #1
    ddac:	eb002841 	bl	17eb8 <disk_write>
    ddb0:	e3580001 	cmp	r8, #1
    ddb4:	1afffff5 	bne	dd90 <move_window+0xa0>
    ddb8:	eaffffd6 	b	dd18 <move_window+0x28>
    ddbc:	e3a00000 	mov	r0, #0
    ddc0:	e8bd81f0 	pop	{r4, r5, r6, r7, r8, pc}

0000ddc4 <sync_fs>:
    ddc4:	e92d4ff8 	push	{r3, r4, r5, r6, r7, r8, r9, sl, fp, lr}
    ddc8:	e5d03004 	ldrb	r3, [r0, #4]
    ddcc:	e1a04000 	mov	r4, r0
    ddd0:	e3530000 	cmp	r3, #0
    ddd4:	1a000009 	bne	de00 <sync_fs+0x3c>
    ddd8:	e5d43000 	ldrb	r3, [r4]
    dddc:	e3530003 	cmp	r3, #3
    dde0:	0a000028 	beq	de88 <sync_fs+0xc4>
    dde4:	e3a01000 	mov	r1, #0
    dde8:	e5d40001 	ldrb	r0, [r4, #1]
    ddec:	e1a02001 	mov	r2, r1
    ddf0:	eb002839 	bl	17edc <disk_ioctl>
    ddf4:	e2900000 	adds	r0, r0, #0
    ddf8:	13a00001 	movne	r0, #1
    ddfc:	e8bd8ff8 	pop	{r3, r4, r5, r6, r7, r8, r9, sl, fp, pc}
    de00:	e5905030 	ldr	r5, [r0, #48]	; 0x30
    de04:	e2807034 	add	r7, r0, #52	; 0x34
    de08:	e1a02005 	mov	r2, r5
    de0c:	e1a01007 	mov	r1, r7
    de10:	e5d00001 	ldrb	r0, [r0, #1]
    de14:	e3a03001 	mov	r3, #1
    de18:	eb002826 	bl	17eb8 <disk_write>
    de1c:	e3500000 	cmp	r0, #0
    de20:	1a000016 	bne	de80 <sync_fs+0xbc>
    de24:	e5942024 	ldr	r2, [r4, #36]	; 0x24
    de28:	e5c40004 	strb	r0, [r4, #4]
    de2c:	e1550002 	cmp	r5, r2
    de30:	3affffe8 	bcc	ddd8 <sync_fs+0x14>
    de34:	e594301c 	ldr	r3, [r4, #28]
    de38:	e0832002 	add	r2, r3, r2
    de3c:	e1550002 	cmp	r5, r2
    de40:	2affffe4 	bcs	ddd8 <sync_fs+0x14>
    de44:	e5d46003 	ldrb	r6, [r4, #3]
    de48:	e3560001 	cmp	r6, #1
    de4c:	8a000001 	bhi	de58 <sync_fs+0x94>
    de50:	eaffffe0 	b	ddd8 <sync_fs+0x14>
    de54:	e594301c 	ldr	r3, [r4, #28]
    de58:	e0855003 	add	r5, r5, r3
    de5c:	e2466001 	sub	r6, r6, #1
    de60:	e1a02005 	mov	r2, r5
    de64:	e5d40001 	ldrb	r0, [r4, #1]
    de68:	e1a01007 	mov	r1, r7
    de6c:	e3a03001 	mov	r3, #1
    de70:	eb002810 	bl	17eb8 <disk_write>
    de74:	e3560001 	cmp	r6, #1
    de78:	1afffff5 	bne	de54 <sync_fs+0x90>
    de7c:	eaffffd5 	b	ddd8 <sync_fs+0x14>
    de80:	e3a00001 	mov	r0, #1
    de84:	e8bd8ff8 	pop	{r3, r4, r5, r6, r7, r8, r9, sl, fp, pc}
    de88:	e5d43005 	ldrb	r3, [r4, #5]
    de8c:	e3530000 	cmp	r3, #0
    de90:	0affffd3 	beq	dde4 <sync_fs+0x20>
    de94:	e3a03000 	mov	r3, #0
    de98:	e2841034 	add	r1, r4, #52	; 0x34
    de9c:	e2612000 	rsb	r2, r1, #0
    dea0:	e2122003 	ands	r2, r2, #3
    dea4:	e5843030 	str	r3, [r4, #48]	; 0x30
    dea8:	0a00004a 	beq	dfd8 <sync_fs+0x214>
    deac:	e3520001 	cmp	r2, #1
    deb0:	e5c43034 	strb	r3, [r4, #52]	; 0x34
    deb4:	e2847035 	add	r7, r4, #53	; 0x35
    deb8:	0a000044 	beq	dfd0 <sync_fs+0x20c>
    debc:	e3520003 	cmp	r2, #3
    dec0:	e5c43035 	strb	r3, [r4, #53]	; 0x35
    dec4:	e2847036 	add	r7, r4, #54	; 0x36
    dec8:	1a00003e 	bne	dfc8 <sync_fs+0x204>
    decc:	e59f611c 	ldr	r6, [pc, #284]	; dff0 <sync_fs+0x22c>
    ded0:	e5c43036 	strb	r3, [r4, #54]	; 0x36
    ded4:	e2847037 	add	r7, r4, #55	; 0x37
    ded8:	e3a05f7f 	mov	r5, #508	; 0x1fc
    dedc:	e3a0c07f 	mov	ip, #127	; 0x7f
    dee0:	e2628c02 	rsb	r8, r2, #512	; 0x200
    dee4:	e3a03000 	mov	r3, #0
    dee8:	e1a0e003 	mov	lr, r3
    deec:	e0812002 	add	r2, r1, r2
    def0:	e2833001 	add	r3, r3, #1
    def4:	e15c0003 	cmp	ip, r3
    def8:	e482e004 	str	lr, [r2], #4
    defc:	e3a00000 	mov	r0, #0
    df00:	8afffffa 	bhi	def0 <sync_fs+0x12c>
    df04:	e1580005 	cmp	r8, r5
    df08:	e0653006 	rsb	r3, r5, r6
    df0c:	e0872005 	add	r2, r7, r5
    df10:	0a000005 	beq	df2c <sync_fs+0x168>
    df14:	e3530001 	cmp	r3, #1
    df18:	e7c70005 	strb	r0, [r7, r5]
    df1c:	0a000002 	beq	df2c <sync_fs+0x168>
    df20:	e3530002 	cmp	r3, #2
    df24:	e5c20001 	strb	r0, [r2, #1]
    df28:	15c20002 	strbne	r0, [r2, #2]
    df2c:	e3a0e061 	mov	lr, #97	; 0x61
    df30:	e3a0c041 	mov	ip, #65	; 0x41
    df34:	e3a00072 	mov	r0, #114	; 0x72
    df38:	e3a05052 	mov	r5, #82	; 0x52
    df3c:	e3a07055 	mov	r7, #85	; 0x55
    df40:	e3e06055 	mvn	r6, #85	; 0x55
    df44:	e5942010 	ldr	r2, [r4, #16]
    df48:	e594300c 	ldr	r3, [r4, #12]
    df4c:	e1a0b422 	lsr	fp, r2, #8
    df50:	e1a0a822 	lsr	sl, r2, #16
    df54:	e1a09c22 	lsr	r9, r2, #24
    df58:	e1a08423 	lsr	r8, r3, #8
    df5c:	e5c4221c 	strb	r2, [r4, #540]	; 0x21c
    df60:	e5c4b21d 	strb	fp, [r4, #541]	; 0x21d
    df64:	e1a02823 	lsr	r2, r3, #16
    df68:	e1a0bc23 	lsr	fp, r3, #24
    df6c:	e5c43220 	strb	r3, [r4, #544]	; 0x220
    df70:	e5c42222 	strb	r2, [r4, #546]	; 0x222
    df74:	e5c40218 	strb	r0, [r4, #536]	; 0x218
    df78:	e5c40219 	strb	r0, [r4, #537]	; 0x219
    df7c:	e3a03001 	mov	r3, #1
    df80:	e5c4a21e 	strb	sl, [r4, #542]	; 0x21e
    df84:	e5c4921f 	strb	r9, [r4, #543]	; 0x21f
    df88:	e5c48221 	strb	r8, [r4, #545]	; 0x221
    df8c:	e5c4b223 	strb	fp, [r4, #547]	; 0x223
    df90:	e5c47232 	strb	r7, [r4, #562]	; 0x232
    df94:	e5c46233 	strb	r6, [r4, #563]	; 0x233
    df98:	e5c45034 	strb	r5, [r4, #52]	; 0x34
    df9c:	e5c45035 	strb	r5, [r4, #53]	; 0x35
    dfa0:	e5c4e036 	strb	lr, [r4, #54]	; 0x36
    dfa4:	e5c4e21b 	strb	lr, [r4, #539]	; 0x21b
    dfa8:	e5c4c037 	strb	ip, [r4, #55]	; 0x37
    dfac:	e5c4c21a 	strb	ip, [r4, #538]	; 0x21a
    dfb0:	e5d40001 	ldrb	r0, [r4, #1]
    dfb4:	e5942014 	ldr	r2, [r4, #20]
    dfb8:	eb0027be 	bl	17eb8 <disk_write>
    dfbc:	e3a03000 	mov	r3, #0
    dfc0:	e5c43005 	strb	r3, [r4, #5]
    dfc4:	eaffff86 	b	dde4 <sync_fs+0x20>
    dfc8:	e59f6024 	ldr	r6, [pc, #36]	; dff4 <sync_fs+0x230>
    dfcc:	eaffffc1 	b	ded8 <sync_fs+0x114>
    dfd0:	e59f6020 	ldr	r6, [pc, #32]	; dff8 <sync_fs+0x234>
    dfd4:	eaffffbf 	b	ded8 <sync_fs+0x114>
    dfd8:	e3a05c02 	mov	r5, #512	; 0x200
    dfdc:	e1a07001 	mov	r7, r1
    dfe0:	e1a08005 	mov	r8, r5
    dfe4:	e1a06005 	mov	r6, r5
    dfe8:	e3a0c080 	mov	ip, #128	; 0x80
    dfec:	eaffffbc 	b	dee4 <sync_fs+0x120>
    dff0:	000001fd 	strdeq	r0, [r0], -sp
    dff4:	000001fe 	strdeq	r0, [r0], -lr
    dff8:	000001ff 	strdeq	r0, [r0], -pc	; <UNPREDICTABLE>

0000dffc <put_fat.part.6>:
    dffc:	e92d4ff8 	push	{r3, r4, r5, r6, r7, r8, r9, sl, fp, lr}
    e000:	e5d03000 	ldrb	r3, [r0]
    e004:	e1a04000 	mov	r4, r0
    e008:	e3530002 	cmp	r3, #2
    e00c:	e1a05001 	mov	r5, r1
    e010:	e1a07002 	mov	r7, r2
    e014:	0a000079 	beq	e200 <put_fat.part.6+0x204>
    e018:	e3530003 	cmp	r3, #3
    e01c:	0a000055 	beq	e178 <put_fat.part.6+0x17c>
    e020:	e3530001 	cmp	r3, #1
    e024:	13a00002 	movne	r0, #2
    e028:	0a000002 	beq	e038 <put_fat.part.6+0x3c>
    e02c:	e3a03001 	mov	r3, #1
    e030:	e5c43004 	strb	r3, [r4, #4]
    e034:	e8bd8ff8 	pop	{r3, r4, r5, r6, r7, r8, r9, sl, fp, pc}
    e038:	e5946024 	ldr	r6, [r4, #36]	; 0x24
    e03c:	e08180a1 	add	r8, r1, r1, lsr #1
    e040:	e594a030 	ldr	sl, [r4, #48]	; 0x30
    e044:	e08694a8 	add	r9, r6, r8, lsr #9
    e048:	e159000a 	cmp	r9, sl
    e04c:	0a0000f4 	beq	e424 <put_fat.part.6+0x428>
    e050:	e5d42004 	ldrb	r2, [r4, #4]
    e054:	e2846034 	add	r6, r4, #52	; 0x34
    e058:	e3520000 	cmp	r2, #0
    e05c:	1a00009f 	bne	e2e0 <put_fat.part.6+0x2e4>
    e060:	e1a01006 	mov	r1, r6
    e064:	e5d40001 	ldrb	r0, [r4, #1]
    e068:	e1a02009 	mov	r2, r9
    e06c:	e3a03001 	mov	r3, #1
    e070:	eb002772 	bl	17e40 <disk_read>
    e074:	e3500000 	cmp	r0, #0
    e078:	1a0000e7 	bne	e41c <put_fat.part.6+0x420>
    e07c:	e1a0a009 	mov	sl, r9
    e080:	e5946024 	ldr	r6, [r4, #36]	; 0x24
    e084:	e5849030 	str	r9, [r4, #48]	; 0x30
    e088:	e1a03b88 	lsl	r3, r8, #23
    e08c:	e2155001 	ands	r5, r5, #1
    e090:	e1a03ba3 	lsr	r3, r3, #23
    e094:	1a0000cc 	bne	e3cc <put_fat.part.6+0x3d0>
    e098:	e3a02001 	mov	r2, #1
    e09c:	e0888002 	add	r8, r8, r2
    e0a0:	e08664a8 	add	r6, r6, r8, lsr #9
    e0a4:	e0843003 	add	r3, r4, r3
    e0a8:	e1560009 	cmp	r6, r9
    e0ac:	e5c37034 	strb	r7, [r3, #52]	; 0x34
    e0b0:	e5c42004 	strb	r2, [r4, #4]
    e0b4:	0a0000dc 	beq	e42c <put_fat.part.6+0x430>
    e0b8:	e284b034 	add	fp, r4, #52	; 0x34
    e0bc:	e1a0100b 	mov	r1, fp
    e0c0:	e5d40001 	ldrb	r0, [r4, #1]
    e0c4:	e1a02009 	mov	r2, r9
    e0c8:	e3a03001 	mov	r3, #1
    e0cc:	eb002779 	bl	17eb8 <disk_write>
    e0d0:	e3500000 	cmp	r0, #0
    e0d4:	1a0000d0 	bne	e41c <put_fat.part.6+0x420>
    e0d8:	e5942024 	ldr	r2, [r4, #36]	; 0x24
    e0dc:	e5c40004 	strb	r0, [r4, #4]
    e0e0:	e1590002 	cmp	r9, r2
    e0e4:	3a000011 	bcc	e130 <put_fat.part.6+0x134>
    e0e8:	e594301c 	ldr	r3, [r4, #28]
    e0ec:	e0832002 	add	r2, r3, r2
    e0f0:	e1590002 	cmp	r9, r2
    e0f4:	2a00000d 	bcs	e130 <put_fat.part.6+0x134>
    e0f8:	e5d49003 	ldrb	r9, [r4, #3]
    e0fc:	e3590001 	cmp	r9, #1
    e100:	8a000001 	bhi	e10c <put_fat.part.6+0x110>
    e104:	ea000009 	b	e130 <put_fat.part.6+0x134>
    e108:	e594301c 	ldr	r3, [r4, #28]
    e10c:	e08aa003 	add	sl, sl, r3
    e110:	e2499001 	sub	r9, r9, #1
    e114:	e1a0200a 	mov	r2, sl
    e118:	e5d40001 	ldrb	r0, [r4, #1]
    e11c:	e1a0100b 	mov	r1, fp
    e120:	e3a03001 	mov	r3, #1
    e124:	eb002763 	bl	17eb8 <disk_write>
    e128:	e3590001 	cmp	r9, #1
    e12c:	1afffff5 	bne	e108 <put_fat.part.6+0x10c>
    e130:	e1a0100b 	mov	r1, fp
    e134:	e5d40001 	ldrb	r0, [r4, #1]
    e138:	e1a02006 	mov	r2, r6
    e13c:	e3a03001 	mov	r3, #1
    e140:	eb00273e 	bl	17e40 <disk_read>
    e144:	e3500000 	cmp	r0, #0
    e148:	1a0000b3 	bne	e41c <put_fat.part.6+0x420>
    e14c:	e1a08b88 	lsl	r8, r8, #23
    e150:	e3550000 	cmp	r5, #0
    e154:	e1a03ba8 	lsr	r3, r8, #23
    e158:	e5846030 	str	r6, [r4, #48]	; 0x30
    e15c:	1a0000a8 	bne	e404 <put_fat.part.6+0x408>
    e160:	e0843003 	add	r3, r4, r3
    e164:	e5d32034 	ldrb	r2, [r3, #52]	; 0x34
    e168:	e1a07a07 	lsl	r7, r7, #20
    e16c:	e3c2200f 	bic	r2, r2, #15
    e170:	e1827e27 	orr	r7, r2, r7, lsr #28
    e174:	ea0000a5 	b	e410 <put_fat.part.6+0x414>
    e178:	e5908024 	ldr	r8, [r0, #36]	; 0x24
    e17c:	e5909030 	ldr	r9, [r0, #48]	; 0x30
    e180:	e08883a1 	add	r8, r8, r1, lsr #7
    e184:	e1580009 	cmp	r8, r9
    e188:	0a00000b 	beq	e1bc <put_fat.part.6+0x1c0>
    e18c:	e5d03004 	ldrb	r3, [r0, #4]
    e190:	e2806034 	add	r6, r0, #52	; 0x34
    e194:	e3530000 	cmp	r3, #0
    e198:	1a00006d 	bne	e354 <put_fat.part.6+0x358>
    e19c:	e1a01006 	mov	r1, r6
    e1a0:	e5d40001 	ldrb	r0, [r4, #1]
    e1a4:	e1a02008 	mov	r2, r8
    e1a8:	e3a03001 	mov	r3, #1
    e1ac:	eb002723 	bl	17e40 <disk_read>
    e1b0:	e3500000 	cmp	r0, #0
    e1b4:	05848030 	streq	r8, [r4, #48]	; 0x30
    e1b8:	1a000097 	bne	e41c <put_fat.part.6+0x420>
    e1bc:	e1a05105 	lsl	r5, r5, #2
    e1c0:	e2055f7f 	and	r5, r5, #508	; 0x1fc
    e1c4:	e0842005 	add	r2, r4, r5
    e1c8:	e5d23037 	ldrb	r3, [r2, #55]	; 0x37
    e1cc:	e1a05002 	mov	r5, r2
    e1d0:	e1a03c03 	lsl	r3, r3, #24
    e1d4:	e203320f 	and	r3, r3, #-268435456	; 0xf0000000
    e1d8:	e1837007 	orr	r7, r3, r7
    e1dc:	e1a0c427 	lsr	ip, r7, #8
    e1e0:	e1a01827 	lsr	r1, r7, #16
    e1e4:	e1a03c27 	lsr	r3, r7, #24
    e1e8:	e5c27034 	strb	r7, [r2, #52]	; 0x34
    e1ec:	e3a00000 	mov	r0, #0
    e1f0:	e5c2c035 	strb	ip, [r2, #53]	; 0x35
    e1f4:	e5c21036 	strb	r1, [r2, #54]	; 0x36
    e1f8:	e5c23037 	strb	r3, [r2, #55]	; 0x37
    e1fc:	eaffff8a 	b	e02c <put_fat.part.6+0x30>
    e200:	e5908024 	ldr	r8, [r0, #36]	; 0x24
    e204:	e5909030 	ldr	r9, [r0, #48]	; 0x30
    e208:	e0888421 	add	r8, r8, r1, lsr #8
    e20c:	e1580009 	cmp	r8, r9
    e210:	0a00000b 	beq	e244 <put_fat.part.6+0x248>
    e214:	e5d03004 	ldrb	r3, [r0, #4]
    e218:	e2806034 	add	r6, r0, #52	; 0x34
    e21c:	e3530000 	cmp	r3, #0
    e220:	1a000010 	bne	e268 <put_fat.part.6+0x26c>
    e224:	e1a01006 	mov	r1, r6
    e228:	e5d40001 	ldrb	r0, [r4, #1]
    e22c:	e1a02008 	mov	r2, r8
    e230:	e3a03001 	mov	r3, #1
    e234:	eb002701 	bl	17e40 <disk_read>
    e238:	e3500000 	cmp	r0, #0
    e23c:	05848030 	streq	r8, [r4, #48]	; 0x30
    e240:	1a000075 	bne	e41c <put_fat.part.6+0x420>
    e244:	e59f31ec 	ldr	r3, [pc, #492]	; e438 <put_fat.part.6+0x43c>
    e248:	e1a05085 	lsl	r5, r5, #1
    e24c:	e0033005 	and	r3, r3, r5
    e250:	e0841003 	add	r1, r4, r3
    e254:	e1a02427 	lsr	r2, r7, #8
    e258:	e5c17034 	strb	r7, [r1, #52]	; 0x34
    e25c:	e3a00000 	mov	r0, #0
    e260:	e5c12035 	strb	r2, [r1, #53]	; 0x35
    e264:	eaffff70 	b	e02c <put_fat.part.6+0x30>
    e268:	e1a01006 	mov	r1, r6
    e26c:	e5d00001 	ldrb	r0, [r0, #1]
    e270:	e1a02009 	mov	r2, r9
    e274:	e3a03001 	mov	r3, #1
    e278:	eb00270e 	bl	17eb8 <disk_write>
    e27c:	e3500000 	cmp	r0, #0
    e280:	1a000065 	bne	e41c <put_fat.part.6+0x420>
    e284:	e5942024 	ldr	r2, [r4, #36]	; 0x24
    e288:	e5c40004 	strb	r0, [r4, #4]
    e28c:	e1590002 	cmp	r9, r2
    e290:	3affffe3 	bcc	e224 <put_fat.part.6+0x228>
    e294:	e594301c 	ldr	r3, [r4, #28]
    e298:	e0832002 	add	r2, r3, r2
    e29c:	e1590002 	cmp	r9, r2
    e2a0:	2affffdf 	bcs	e224 <put_fat.part.6+0x228>
    e2a4:	e5d4a003 	ldrb	sl, [r4, #3]
    e2a8:	e35a0001 	cmp	sl, #1
    e2ac:	8a000001 	bhi	e2b8 <put_fat.part.6+0x2bc>
    e2b0:	eaffffdb 	b	e224 <put_fat.part.6+0x228>
    e2b4:	e594301c 	ldr	r3, [r4, #28]
    e2b8:	e0899003 	add	r9, r9, r3
    e2bc:	e24aa001 	sub	sl, sl, #1
    e2c0:	e1a02009 	mov	r2, r9
    e2c4:	e5d40001 	ldrb	r0, [r4, #1]
    e2c8:	e1a01006 	mov	r1, r6
    e2cc:	e3a03001 	mov	r3, #1
    e2d0:	eb0026f8 	bl	17eb8 <disk_write>
    e2d4:	e35a0001 	cmp	sl, #1
    e2d8:	1afffff5 	bne	e2b4 <put_fat.part.6+0x2b8>
    e2dc:	eaffffd0 	b	e224 <put_fat.part.6+0x228>
    e2e0:	e1a01006 	mov	r1, r6
    e2e4:	e5d40001 	ldrb	r0, [r4, #1]
    e2e8:	e1a0200a 	mov	r2, sl
    e2ec:	eb0026f1 	bl	17eb8 <disk_write>
    e2f0:	e3500000 	cmp	r0, #0
    e2f4:	1a000048 	bne	e41c <put_fat.part.6+0x420>
    e2f8:	e5942024 	ldr	r2, [r4, #36]	; 0x24
    e2fc:	e5c40004 	strb	r0, [r4, #4]
    e300:	e15a0002 	cmp	sl, r2
    e304:	3affff55 	bcc	e060 <put_fat.part.6+0x64>
    e308:	e594301c 	ldr	r3, [r4, #28]
    e30c:	e0832002 	add	r2, r3, r2
    e310:	e15a0002 	cmp	sl, r2
    e314:	2affff51 	bcs	e060 <put_fat.part.6+0x64>
    e318:	e5d4b003 	ldrb	fp, [r4, #3]
    e31c:	e35b0001 	cmp	fp, #1
    e320:	8a000001 	bhi	e32c <put_fat.part.6+0x330>
    e324:	eaffff4d 	b	e060 <put_fat.part.6+0x64>
    e328:	e594301c 	ldr	r3, [r4, #28]
    e32c:	e08aa003 	add	sl, sl, r3
    e330:	e24bb001 	sub	fp, fp, #1
    e334:	e1a0200a 	mov	r2, sl
    e338:	e5d40001 	ldrb	r0, [r4, #1]
    e33c:	e1a01006 	mov	r1, r6
    e340:	e3a03001 	mov	r3, #1
    e344:	eb0026db 	bl	17eb8 <disk_write>
    e348:	e35b0001 	cmp	fp, #1
    e34c:	1afffff5 	bne	e328 <put_fat.part.6+0x32c>
    e350:	eaffff42 	b	e060 <put_fat.part.6+0x64>
    e354:	e1a01006 	mov	r1, r6
    e358:	e5d00001 	ldrb	r0, [r0, #1]
    e35c:	e1a02009 	mov	r2, r9
    e360:	e3a03001 	mov	r3, #1
    e364:	eb0026d3 	bl	17eb8 <disk_write>
    e368:	e3500000 	cmp	r0, #0
    e36c:	1a00002a 	bne	e41c <put_fat.part.6+0x420>
    e370:	e5942024 	ldr	r2, [r4, #36]	; 0x24
    e374:	e5c40004 	strb	r0, [r4, #4]
    e378:	e1590002 	cmp	r9, r2
    e37c:	3affff86 	bcc	e19c <put_fat.part.6+0x1a0>
    e380:	e594301c 	ldr	r3, [r4, #28]
    e384:	e0832002 	add	r2, r3, r2
    e388:	e1590002 	cmp	r9, r2
    e38c:	2affff82 	bcs	e19c <put_fat.part.6+0x1a0>
    e390:	e5d4a003 	ldrb	sl, [r4, #3]
    e394:	e35a0001 	cmp	sl, #1
    e398:	8a000001 	bhi	e3a4 <put_fat.part.6+0x3a8>
    e39c:	eaffff7e 	b	e19c <put_fat.part.6+0x1a0>
    e3a0:	e594301c 	ldr	r3, [r4, #28]
    e3a4:	e0899003 	add	r9, r9, r3
    e3a8:	e24aa001 	sub	sl, sl, #1
    e3ac:	e1a02009 	mov	r2, r9
    e3b0:	e5d40001 	ldrb	r0, [r4, #1]
    e3b4:	e1a01006 	mov	r1, r6
    e3b8:	e3a03001 	mov	r3, #1
    e3bc:	eb0026bd 	bl	17eb8 <disk_write>
    e3c0:	e35a0001 	cmp	sl, #1
    e3c4:	1afffff5 	bne	e3a0 <put_fat.part.6+0x3a4>
    e3c8:	eaffff73 	b	e19c <put_fat.part.6+0x1a0>
    e3cc:	e3a00001 	mov	r0, #1
    e3d0:	e0843003 	add	r3, r4, r3
    e3d4:	e5d32034 	ldrb	r2, [r3, #52]	; 0x34
    e3d8:	e0888000 	add	r8, r8, r0
    e3dc:	e202100f 	and	r1, r2, #15
    e3e0:	e08664a8 	add	r6, r6, r8, lsr #9
    e3e4:	e6ef2077 	uxtb	r2, r7
    e3e8:	e1812202 	orr	r2, r1, r2, lsl #4
    e3ec:	e1560009 	cmp	r6, r9
    e3f0:	e5c32034 	strb	r2, [r3, #52]	; 0x34
    e3f4:	e5c40004 	strb	r0, [r4, #4]
    e3f8:	1affff2e 	bne	e0b8 <put_fat.part.6+0xbc>
    e3fc:	e1a03b88 	lsl	r3, r8, #23
    e400:	e1a03ba3 	lsr	r3, r3, #23
    e404:	e1a07227 	lsr	r7, r7, #4
    e408:	e6ef7077 	uxtb	r7, r7
    e40c:	e0843003 	add	r3, r4, r3
    e410:	e5c37034 	strb	r7, [r3, #52]	; 0x34
    e414:	e3a00000 	mov	r0, #0
    e418:	eaffff03 	b	e02c <put_fat.part.6+0x30>
    e41c:	e3a00001 	mov	r0, #1
    e420:	eaffff01 	b	e02c <put_fat.part.6+0x30>
    e424:	e1a0a009 	mov	sl, r9
    e428:	eaffff16 	b	e088 <put_fat.part.6+0x8c>
    e42c:	e1a03b88 	lsl	r3, r8, #23
    e430:	e1a03ba3 	lsr	r3, r3, #23
    e434:	eaffff49 	b	e160 <put_fat.part.6+0x164>
    e438:	000001fe 	strdeq	r0, [r0], -lr

0000e43c <remove_chain.part.8>:
    e43c:	e92d4ff0 	push	{r4, r5, r6, r7, r8, r9, sl, fp, lr}
    e440:	e1a04000 	mov	r4, r0
    e444:	e1a05001 	mov	r5, r1
    e448:	e5943018 	ldr	r3, [r4, #24]
    e44c:	e24dd00c 	sub	sp, sp, #12
    e450:	e1550003 	cmp	r5, r3
    e454:	e2806034 	add	r6, r0, #52	; 0x34
    e458:	e3a07001 	mov	r7, #1
    e45c:	2a00006d 	bcs	e618 <remove_chain.part.8+0x1dc>
    e460:	e3550001 	cmp	r5, #1
    e464:	9a00002c 	bls	e51c <remove_chain.part.8+0xe0>
    e468:	e5d43000 	ldrb	r3, [r4]
    e46c:	e3530002 	cmp	r3, #2
    e470:	0a00006a 	beq	e620 <remove_chain.part.8+0x1e4>
    e474:	e3530003 	cmp	r3, #3
    e478:	0a000004 	beq	e490 <remove_chain.part.8+0x54>
    e47c:	e3530001 	cmp	r3, #1
    e480:	0a000028 	beq	e528 <remove_chain.part.8+0xec>
    e484:	e3a00001 	mov	r0, #1
    e488:	e28dd00c 	add	sp, sp, #12
    e48c:	e8bd8ff0 	pop	{r4, r5, r6, r7, r8, r9, sl, fp, pc}
    e490:	e5948024 	ldr	r8, [r4, #36]	; 0x24
    e494:	e5949030 	ldr	r9, [r4, #48]	; 0x30
    e498:	e08883a5 	add	r8, r8, r5, lsr #7
    e49c:	e1580009 	cmp	r8, r9
    e4a0:	0a00000a 	beq	e4d0 <remove_chain.part.8+0x94>
    e4a4:	e5d43004 	ldrb	r3, [r4, #4]
    e4a8:	e3530000 	cmp	r3, #0
    e4ac:	1a0000ae 	bne	e76c <remove_chain.part.8+0x330>
    e4b0:	e5d40001 	ldrb	r0, [r4, #1]
    e4b4:	e1a01006 	mov	r1, r6
    e4b8:	e1a02008 	mov	r2, r8
    e4bc:	e3a03001 	mov	r3, #1
    e4c0:	eb00265e 	bl	17e40 <disk_read>
    e4c4:	e3500000 	cmp	r0, #0
    e4c8:	1affffed 	bne	e484 <remove_chain.part.8+0x48>
    e4cc:	e5848030 	str	r8, [r4, #48]	; 0x30
    e4d0:	e1a03105 	lsl	r3, r5, #2
    e4d4:	e2033f7f 	and	r3, r3, #508	; 0x1fc
    e4d8:	e0841003 	add	r1, r4, r3
    e4dc:	e5d12037 	ldrb	r2, [r1, #55]	; 0x37
    e4e0:	e5d10036 	ldrb	r0, [r1, #54]	; 0x36
    e4e4:	e1a02c02 	lsl	r2, r2, #24
    e4e8:	e5d18035 	ldrb	r8, [r1, #53]	; 0x35
    e4ec:	e5d13034 	ldrb	r3, [r1, #52]	; 0x34
    e4f0:	e1822800 	orr	r2, r2, r0, lsl #16
    e4f4:	e1828408 	orr	r8, r2, r8, lsl #8
    e4f8:	e1888003 	orr	r8, r8, r3
    e4fc:	e3c8820f 	bic	r8, r8, #-268435456	; 0xf0000000
    e500:	e3580000 	cmp	r8, #0
    e504:	0a000043 	beq	e618 <remove_chain.part.8+0x1dc>
    e508:	e3580001 	cmp	r8, #1
    e50c:	0a000002 	beq	e51c <remove_chain.part.8+0xe0>
    e510:	e5943018 	ldr	r3, [r4, #24]
    e514:	e1550003 	cmp	r5, r3
    e518:	3a00002f 	bcc	e5dc <remove_chain.part.8+0x1a0>
    e51c:	e3a00002 	mov	r0, #2
    e520:	e28dd00c 	add	sp, sp, #12
    e524:	e8bd8ff0 	pop	{r4, r5, r6, r7, r8, r9, sl, fp, pc}
    e528:	e594a024 	ldr	sl, [r4, #36]	; 0x24
    e52c:	e08580a5 	add	r8, r5, r5, lsr #1
    e530:	e594b030 	ldr	fp, [r4, #48]	; 0x30
    e534:	e08a94a8 	add	r9, sl, r8, lsr #9
    e538:	e15b0009 	cmp	fp, r9
    e53c:	0a00000b 	beq	e570 <remove_chain.part.8+0x134>
    e540:	e5d42004 	ldrb	r2, [r4, #4]
    e544:	e3520000 	cmp	r2, #0
    e548:	1a00004c 	bne	e680 <remove_chain.part.8+0x244>
    e54c:	e5d40001 	ldrb	r0, [r4, #1]
    e550:	e1a01006 	mov	r1, r6
    e554:	e1a02009 	mov	r2, r9
    e558:	e3a03001 	mov	r3, #1
    e55c:	eb002637 	bl	17e40 <disk_read>
    e560:	e3500000 	cmp	r0, #0
    e564:	1affffc6 	bne	e484 <remove_chain.part.8+0x48>
    e568:	e594a024 	ldr	sl, [r4, #36]	; 0x24
    e56c:	e5849030 	str	r9, [r4, #48]	; 0x30
    e570:	e288b001 	add	fp, r8, #1
    e574:	e08aa4ab 	add	sl, sl, fp, lsr #9
    e578:	e1a08b88 	lsl	r8, r8, #23
    e57c:	e0848ba8 	add	r8, r4, r8, lsr #23
    e580:	e159000a 	cmp	r9, sl
    e584:	e5d88034 	ldrb	r8, [r8, #52]	; 0x34
    e588:	0a00000a 	beq	e5b8 <remove_chain.part.8+0x17c>
    e58c:	e5d43004 	ldrb	r3, [r4, #4]
    e590:	e3530000 	cmp	r3, #0
    e594:	1a000092 	bne	e7e4 <remove_chain.part.8+0x3a8>
    e598:	e5d40001 	ldrb	r0, [r4, #1]
    e59c:	e1a01006 	mov	r1, r6
    e5a0:	e1a0200a 	mov	r2, sl
    e5a4:	e3a03001 	mov	r3, #1
    e5a8:	eb002624 	bl	17e40 <disk_read>
    e5ac:	e3500000 	cmp	r0, #0
    e5b0:	1affffb3 	bne	e484 <remove_chain.part.8+0x48>
    e5b4:	e584a030 	str	sl, [r4, #48]	; 0x30
    e5b8:	e1a03b8b 	lsl	r3, fp, #23
    e5bc:	e0843ba3 	add	r3, r4, r3, lsr #23
    e5c0:	e5d33034 	ldrb	r3, [r3, #52]	; 0x34
    e5c4:	e3150001 	tst	r5, #1
    e5c8:	e1888403 	orr	r8, r8, r3, lsl #8
    e5cc:	11a08228 	lsrne	r8, r8, #4
    e5d0:	01a08a08 	lsleq	r8, r8, #20
    e5d4:	01a08a28 	lsreq	r8, r8, #20
    e5d8:	eaffffc8 	b	e500 <remove_chain.part.8+0xc4>
    e5dc:	e1a01005 	mov	r1, r5
    e5e0:	e1a00004 	mov	r0, r4
    e5e4:	e3a02000 	mov	r2, #0
    e5e8:	ebfffe83 	bl	dffc <put_fat.part.6>
    e5ec:	e3500000 	cmp	r0, #0
    e5f0:	1affffa4 	bne	e488 <remove_chain.part.8+0x4c>
    e5f4:	e1a05008 	mov	r5, r8
    e5f8:	e5943010 	ldr	r3, [r4, #16]
    e5fc:	e3730001 	cmn	r3, #1
    e600:	12833001 	addne	r3, r3, #1
    e604:	15843010 	strne	r3, [r4, #16]
    e608:	e5943018 	ldr	r3, [r4, #24]
    e60c:	15c47005 	strbne	r7, [r4, #5]
    e610:	e1550003 	cmp	r5, r3
    e614:	3affff91 	bcc	e460 <remove_chain.part.8+0x24>
    e618:	e3a00000 	mov	r0, #0
    e61c:	eaffff99 	b	e488 <remove_chain.part.8+0x4c>
    e620:	e5948024 	ldr	r8, [r4, #36]	; 0x24
    e624:	e5949030 	ldr	r9, [r4, #48]	; 0x30
    e628:	e0888425 	add	r8, r8, r5, lsr #8
    e62c:	e1580009 	cmp	r8, r9
    e630:	0a00000a 	beq	e660 <remove_chain.part.8+0x224>
    e634:	e5d43004 	ldrb	r3, [r4, #4]
    e638:	e3530000 	cmp	r3, #0
    e63c:	1a00002c 	bne	e6f4 <remove_chain.part.8+0x2b8>
    e640:	e5d40001 	ldrb	r0, [r4, #1]
    e644:	e1a01006 	mov	r1, r6
    e648:	e1a02008 	mov	r2, r8
    e64c:	e3a03001 	mov	r3, #1
    e650:	eb0025fa 	bl	17e40 <disk_read>
    e654:	e3500000 	cmp	r0, #0
    e658:	1affff89 	bne	e484 <remove_chain.part.8+0x48>
    e65c:	e5848030 	str	r8, [r4, #48]	; 0x30
    e660:	e59f3200 	ldr	r3, [pc, #512]	; e868 <remove_chain.part.8+0x42c>
    e664:	e1a02085 	lsl	r2, r5, #1
    e668:	e0033002 	and	r3, r3, r2
    e66c:	e0841003 	add	r1, r4, r3
    e670:	e5d13034 	ldrb	r3, [r1, #52]	; 0x34
    e674:	e5d18035 	ldrb	r8, [r1, #53]	; 0x35
    e678:	e1838408 	orr	r8, r3, r8, lsl #8
    e67c:	eaffff9f 	b	e500 <remove_chain.part.8+0xc4>
    e680:	e5d40001 	ldrb	r0, [r4, #1]
    e684:	e1a01006 	mov	r1, r6
    e688:	e1a0200b 	mov	r2, fp
    e68c:	eb002609 	bl	17eb8 <disk_write>
    e690:	e3500000 	cmp	r0, #0
    e694:	1affff7a 	bne	e484 <remove_chain.part.8+0x48>
    e698:	e5942024 	ldr	r2, [r4, #36]	; 0x24
    e69c:	e5c40004 	strb	r0, [r4, #4]
    e6a0:	e15b0002 	cmp	fp, r2
    e6a4:	3affffa8 	bcc	e54c <remove_chain.part.8+0x110>
    e6a8:	e594301c 	ldr	r3, [r4, #28]
    e6ac:	e0832002 	add	r2, r3, r2
    e6b0:	e15b0002 	cmp	fp, r2
    e6b4:	2affffa4 	bcs	e54c <remove_chain.part.8+0x110>
    e6b8:	e5d4a003 	ldrb	sl, [r4, #3]
    e6bc:	e35a0001 	cmp	sl, #1
    e6c0:	8a000001 	bhi	e6cc <remove_chain.part.8+0x290>
    e6c4:	eaffffa0 	b	e54c <remove_chain.part.8+0x110>
    e6c8:	e594301c 	ldr	r3, [r4, #28]
    e6cc:	e08bb003 	add	fp, fp, r3
    e6d0:	e24aa001 	sub	sl, sl, #1
    e6d4:	e1a0200b 	mov	r2, fp
    e6d8:	e5d40001 	ldrb	r0, [r4, #1]
    e6dc:	e1a01006 	mov	r1, r6
    e6e0:	e3a03001 	mov	r3, #1
    e6e4:	eb0025f3 	bl	17eb8 <disk_write>
    e6e8:	e35a0001 	cmp	sl, #1
    e6ec:	1afffff5 	bne	e6c8 <remove_chain.part.8+0x28c>
    e6f0:	eaffff95 	b	e54c <remove_chain.part.8+0x110>
    e6f4:	e5d40001 	ldrb	r0, [r4, #1]
    e6f8:	e1a01006 	mov	r1, r6
    e6fc:	e1a02009 	mov	r2, r9
    e700:	e3a03001 	mov	r3, #1
    e704:	eb0025eb 	bl	17eb8 <disk_write>
    e708:	e3500000 	cmp	r0, #0
    e70c:	1affff5c 	bne	e484 <remove_chain.part.8+0x48>
    e710:	e5942024 	ldr	r2, [r4, #36]	; 0x24
    e714:	e5c40004 	strb	r0, [r4, #4]
    e718:	e1590002 	cmp	r9, r2
    e71c:	3affffc7 	bcc	e640 <remove_chain.part.8+0x204>
    e720:	e594301c 	ldr	r3, [r4, #28]
    e724:	e0832002 	add	r2, r3, r2
    e728:	e1590002 	cmp	r9, r2
    e72c:	2affffc3 	bcs	e640 <remove_chain.part.8+0x204>
    e730:	e5d4a003 	ldrb	sl, [r4, #3]
    e734:	e35a0001 	cmp	sl, #1
    e738:	8a000001 	bhi	e744 <remove_chain.part.8+0x308>
    e73c:	eaffffbf 	b	e640 <remove_chain.part.8+0x204>
    e740:	e594301c 	ldr	r3, [r4, #28]
    e744:	e0899003 	add	r9, r9, r3
    e748:	e24aa001 	sub	sl, sl, #1
    e74c:	e1a02009 	mov	r2, r9
    e750:	e5d40001 	ldrb	r0, [r4, #1]
    e754:	e1a01006 	mov	r1, r6
    e758:	e3a03001 	mov	r3, #1
    e75c:	eb0025d5 	bl	17eb8 <disk_write>
    e760:	e35a0001 	cmp	sl, #1
    e764:	1afffff5 	bne	e740 <remove_chain.part.8+0x304>
    e768:	eaffffb4 	b	e640 <remove_chain.part.8+0x204>
    e76c:	e5d40001 	ldrb	r0, [r4, #1]
    e770:	e1a01006 	mov	r1, r6
    e774:	e1a02009 	mov	r2, r9
    e778:	e3a03001 	mov	r3, #1
    e77c:	eb0025cd 	bl	17eb8 <disk_write>
    e780:	e3500000 	cmp	r0, #0
    e784:	1affff3e 	bne	e484 <remove_chain.part.8+0x48>
    e788:	e5942024 	ldr	r2, [r4, #36]	; 0x24
    e78c:	e5c40004 	strb	r0, [r4, #4]
    e790:	e1590002 	cmp	r9, r2
    e794:	3affff45 	bcc	e4b0 <remove_chain.part.8+0x74>
    e798:	e594301c 	ldr	r3, [r4, #28]
    e79c:	e0832002 	add	r2, r3, r2
    e7a0:	e1590002 	cmp	r9, r2
    e7a4:	2affff41 	bcs	e4b0 <remove_chain.part.8+0x74>
    e7a8:	e5d4a003 	ldrb	sl, [r4, #3]
    e7ac:	e35a0001 	cmp	sl, #1
    e7b0:	8a000001 	bhi	e7bc <remove_chain.part.8+0x380>
    e7b4:	eaffff3d 	b	e4b0 <remove_chain.part.8+0x74>
    e7b8:	e594301c 	ldr	r3, [r4, #28]
    e7bc:	e0899003 	add	r9, r9, r3
    e7c0:	e24aa001 	sub	sl, sl, #1
    e7c4:	e1a02009 	mov	r2, r9
    e7c8:	e5d40001 	ldrb	r0, [r4, #1]
    e7cc:	e1a01006 	mov	r1, r6
    e7d0:	e3a03001 	mov	r3, #1
    e7d4:	eb0025b7 	bl	17eb8 <disk_write>
    e7d8:	e35a0001 	cmp	sl, #1
    e7dc:	1afffff5 	bne	e7b8 <remove_chain.part.8+0x37c>
    e7e0:	eaffff32 	b	e4b0 <remove_chain.part.8+0x74>
    e7e4:	e5d40001 	ldrb	r0, [r4, #1]
    e7e8:	e1a01006 	mov	r1, r6
    e7ec:	e1a02009 	mov	r2, r9
    e7f0:	e3a03001 	mov	r3, #1
    e7f4:	eb0025af 	bl	17eb8 <disk_write>
    e7f8:	e3500000 	cmp	r0, #0
    e7fc:	1affff20 	bne	e484 <remove_chain.part.8+0x48>
    e800:	e5942024 	ldr	r2, [r4, #36]	; 0x24
    e804:	e5c40004 	strb	r0, [r4, #4]
    e808:	e1590002 	cmp	r9, r2
    e80c:	3affff61 	bcc	e598 <remove_chain.part.8+0x15c>
    e810:	e594301c 	ldr	r3, [r4, #28]
    e814:	e0832002 	add	r2, r3, r2
    e818:	e1590002 	cmp	r9, r2
    e81c:	2affff5d 	bcs	e598 <remove_chain.part.8+0x15c>
    e820:	e5d4c003 	ldrb	ip, [r4, #3]
    e824:	e35c0001 	cmp	ip, #1
    e828:	8a000001 	bhi	e834 <remove_chain.part.8+0x3f8>
    e82c:	eaffff59 	b	e598 <remove_chain.part.8+0x15c>
    e830:	e594301c 	ldr	r3, [r4, #28]
    e834:	e0899003 	add	r9, r9, r3
    e838:	e24cc001 	sub	ip, ip, #1
    e83c:	e1a02009 	mov	r2, r9
    e840:	e5d40001 	ldrb	r0, [r4, #1]
    e844:	e1a01006 	mov	r1, r6
    e848:	e3a03001 	mov	r3, #1
    e84c:	e58dc000 	str	ip, [sp]
    e850:	e58dc004 	str	ip, [sp, #4]
    e854:	eb002597 	bl	17eb8 <disk_write>
    e858:	e59dc000 	ldr	ip, [sp]
    e85c:	e35c0001 	cmp	ip, #1
    e860:	1afffff2 	bne	e830 <remove_chain.part.8+0x3f4>
    e864:	eaffff4b 	b	e598 <remove_chain.part.8+0x15c>
    e868:	000001fe 	strdeq	r0, [r0], -lr

0000e86c <get_fat.part.5>:
    e86c:	e92d4ff8 	push	{r3, r4, r5, r6, r7, r8, r9, sl, fp, lr}
    e870:	e5d03000 	ldrb	r3, [r0]
    e874:	e1a04000 	mov	r4, r0
    e878:	e3530002 	cmp	r3, #2
    e87c:	e1a05001 	mov	r5, r1
    e880:	0a000053 	beq	e9d4 <get_fat.part.5+0x168>
    e884:	e3530003 	cmp	r3, #3
    e888:	0a000032 	beq	e958 <get_fat.part.5+0xec>
    e88c:	e3530001 	cmp	r3, #1
    e890:	0a000001 	beq	e89c <get_fat.part.5+0x30>
    e894:	e3e00000 	mvn	r0, #0
    e898:	e8bd8ff8 	pop	{r3, r4, r5, r6, r7, r8, r9, sl, fp, pc}
    e89c:	e5909024 	ldr	r9, [r0, #36]	; 0x24
    e8a0:	e08160a1 	add	r6, r1, r1, lsr #1
    e8a4:	e590a030 	ldr	sl, [r0, #48]	; 0x30
    e8a8:	e08984a6 	add	r8, r9, r6, lsr #9
    e8ac:	e158000a 	cmp	r8, sl
    e8b0:	0a0000d8 	beq	ec18 <get_fat.part.5+0x3ac>
    e8b4:	e5d02004 	ldrb	r2, [r0, #4]
    e8b8:	e2807034 	add	r7, r0, #52	; 0x34
    e8bc:	e3520000 	cmp	r2, #0
    e8c0:	1a00007b 	bne	eab4 <get_fat.part.5+0x248>
    e8c4:	e1a01007 	mov	r1, r7
    e8c8:	e5d40001 	ldrb	r0, [r4, #1]
    e8cc:	e1a02008 	mov	r2, r8
    e8d0:	e3a03001 	mov	r3, #1
    e8d4:	eb002559 	bl	17e40 <disk_read>
    e8d8:	e3500000 	cmp	r0, #0
    e8dc:	1affffec 	bne	e894 <get_fat.part.5+0x28>
    e8e0:	e1a0b008 	mov	fp, r8
    e8e4:	e5949024 	ldr	r9, [r4, #36]	; 0x24
    e8e8:	e5848030 	str	r8, [r4, #48]	; 0x30
    e8ec:	e286a001 	add	sl, r6, #1
    e8f0:	e08994aa 	add	r9, r9, sl, lsr #9
    e8f4:	e1a06b86 	lsl	r6, r6, #23
    e8f8:	e0846ba6 	add	r6, r4, r6, lsr #23
    e8fc:	e1590008 	cmp	r9, r8
    e900:	e5d66034 	ldrb	r6, [r6, #52]	; 0x34
    e904:	0a00000b 	beq	e938 <get_fat.part.5+0xcc>
    e908:	e5d43004 	ldrb	r3, [r4, #4]
    e90c:	e2847034 	add	r7, r4, #52	; 0x34
    e910:	e3530000 	cmp	r3, #0
    e914:	1a0000a1 	bne	eba0 <get_fat.part.5+0x334>
    e918:	e1a01007 	mov	r1, r7
    e91c:	e5d40001 	ldrb	r0, [r4, #1]
    e920:	e1a02009 	mov	r2, r9
    e924:	e3a03001 	mov	r3, #1
    e928:	eb002544 	bl	17e40 <disk_read>
    e92c:	e3500000 	cmp	r0, #0
    e930:	05849030 	streq	r9, [r4, #48]	; 0x30
    e934:	1affffd6 	bne	e894 <get_fat.part.5+0x28>
    e938:	e1a0ab8a 	lsl	sl, sl, #23
    e93c:	e0844baa 	add	r4, r4, sl, lsr #23
    e940:	e5d40034 	ldrb	r0, [r4, #52]	; 0x34
    e944:	e3150001 	tst	r5, #1
    e948:	e1866400 	orr	r6, r6, r0, lsl #8
    e94c:	0a0000b3 	beq	ec20 <get_fat.part.5+0x3b4>
    e950:	e1a00226 	lsr	r0, r6, #4
    e954:	e8bd8ff8 	pop	{r3, r4, r5, r6, r7, r8, r9, sl, fp, pc}
    e958:	e5906024 	ldr	r6, [r0, #36]	; 0x24
    e95c:	e5908030 	ldr	r8, [r0, #48]	; 0x30
    e960:	e08663a1 	add	r6, r6, r1, lsr #7
    e964:	e1560008 	cmp	r6, r8
    e968:	0a00000b 	beq	e99c <get_fat.part.5+0x130>
    e96c:	e5d03004 	ldrb	r3, [r0, #4]
    e970:	e2807034 	add	r7, r0, #52	; 0x34
    e974:	e3530000 	cmp	r3, #0
    e978:	1a00006a 	bne	eb28 <get_fat.part.5+0x2bc>
    e97c:	e1a01007 	mov	r1, r7
    e980:	e5d40001 	ldrb	r0, [r4, #1]
    e984:	e1a02006 	mov	r2, r6
    e988:	e3a03001 	mov	r3, #1
    e98c:	eb00252b 	bl	17e40 <disk_read>
    e990:	e3500000 	cmp	r0, #0
    e994:	05846030 	streq	r6, [r4, #48]	; 0x30
    e998:	1affffbd 	bne	e894 <get_fat.part.5+0x28>
    e99c:	e1a05105 	lsl	r5, r5, #2
    e9a0:	e2055f7f 	and	r5, r5, #508	; 0x1fc
    e9a4:	e0843005 	add	r3, r4, r5
    e9a8:	e5d32037 	ldrb	r2, [r3, #55]	; 0x37
    e9ac:	e5d31036 	ldrb	r1, [r3, #54]	; 0x36
    e9b0:	e5d30035 	ldrb	r0, [r3, #53]	; 0x35
    e9b4:	e1a02c02 	lsl	r2, r2, #24
    e9b8:	e1a04003 	mov	r4, r3
    e9bc:	e1822801 	orr	r2, r2, r1, lsl #16
    e9c0:	e5d33034 	ldrb	r3, [r3, #52]	; 0x34
    e9c4:	e1820400 	orr	r0, r2, r0, lsl #8
    e9c8:	e1800003 	orr	r0, r0, r3
    e9cc:	e3c0020f 	bic	r0, r0, #-268435456	; 0xf0000000
    e9d0:	e8bd8ff8 	pop	{r3, r4, r5, r6, r7, r8, r9, sl, fp, pc}
    e9d4:	e5906024 	ldr	r6, [r0, #36]	; 0x24
    e9d8:	e5908030 	ldr	r8, [r0, #48]	; 0x30
    e9dc:	e0866421 	add	r6, r6, r1, lsr #8
    e9e0:	e1560008 	cmp	r6, r8
    e9e4:	0a00000b 	beq	ea18 <get_fat.part.5+0x1ac>
    e9e8:	e5d03004 	ldrb	r3, [r0, #4]
    e9ec:	e2807034 	add	r7, r0, #52	; 0x34
    e9f0:	e3530000 	cmp	r3, #0
    e9f4:	1a000010 	bne	ea3c <get_fat.part.5+0x1d0>
    e9f8:	e1a01007 	mov	r1, r7
    e9fc:	e5d40001 	ldrb	r0, [r4, #1]
    ea00:	e1a02006 	mov	r2, r6
    ea04:	e3a03001 	mov	r3, #1
    ea08:	eb00250c 	bl	17e40 <disk_read>
    ea0c:	e3500000 	cmp	r0, #0
    ea10:	05846030 	streq	r6, [r4, #48]	; 0x30
    ea14:	1affff9e 	bne	e894 <get_fat.part.5+0x28>
    ea18:	e59f320c 	ldr	r3, [pc, #524]	; ec2c <get_fat.part.5+0x3c0>
    ea1c:	e1a05085 	lsl	r5, r5, #1
    ea20:	e0033005 	and	r3, r3, r5
    ea24:	e0842003 	add	r2, r4, r3
    ea28:	e5d23034 	ldrb	r3, [r2, #52]	; 0x34
    ea2c:	e5d20035 	ldrb	r0, [r2, #53]	; 0x35
    ea30:	e1a04002 	mov	r4, r2
    ea34:	e1830400 	orr	r0, r3, r0, lsl #8
    ea38:	e8bd8ff8 	pop	{r3, r4, r5, r6, r7, r8, r9, sl, fp, pc}
    ea3c:	e1a01007 	mov	r1, r7
    ea40:	e5d00001 	ldrb	r0, [r0, #1]
    ea44:	e1a02008 	mov	r2, r8
    ea48:	e3a03001 	mov	r3, #1
    ea4c:	eb002519 	bl	17eb8 <disk_write>
    ea50:	e3500000 	cmp	r0, #0
    ea54:	1affff8e 	bne	e894 <get_fat.part.5+0x28>
    ea58:	e5942024 	ldr	r2, [r4, #36]	; 0x24
    ea5c:	e5c40004 	strb	r0, [r4, #4]
    ea60:	e1580002 	cmp	r8, r2
    ea64:	3affffe3 	bcc	e9f8 <get_fat.part.5+0x18c>
    ea68:	e594301c 	ldr	r3, [r4, #28]
    ea6c:	e0832002 	add	r2, r3, r2
    ea70:	e1580002 	cmp	r8, r2
    ea74:	2affffdf 	bcs	e9f8 <get_fat.part.5+0x18c>
    ea78:	e5d49003 	ldrb	r9, [r4, #3]
    ea7c:	e3590001 	cmp	r9, #1
    ea80:	8a000001 	bhi	ea8c <get_fat.part.5+0x220>
    ea84:	eaffffdb 	b	e9f8 <get_fat.part.5+0x18c>
    ea88:	e594301c 	ldr	r3, [r4, #28]
    ea8c:	e0888003 	add	r8, r8, r3
    ea90:	e2499001 	sub	r9, r9, #1
    ea94:	e1a02008 	mov	r2, r8
    ea98:	e5d40001 	ldrb	r0, [r4, #1]
    ea9c:	e1a01007 	mov	r1, r7
    eaa0:	e3a03001 	mov	r3, #1
    eaa4:	eb002503 	bl	17eb8 <disk_write>
    eaa8:	e3590001 	cmp	r9, #1
    eaac:	1afffff5 	bne	ea88 <get_fat.part.5+0x21c>
    eab0:	eaffffd0 	b	e9f8 <get_fat.part.5+0x18c>
    eab4:	e1a01007 	mov	r1, r7
    eab8:	e5d00001 	ldrb	r0, [r0, #1]
    eabc:	e1a0200a 	mov	r2, sl
    eac0:	eb0024fc 	bl	17eb8 <disk_write>
    eac4:	e3500000 	cmp	r0, #0
    eac8:	1affff71 	bne	e894 <get_fat.part.5+0x28>
    eacc:	e5942024 	ldr	r2, [r4, #36]	; 0x24
    ead0:	e5c40004 	strb	r0, [r4, #4]
    ead4:	e15a0002 	cmp	sl, r2
    ead8:	3affff79 	bcc	e8c4 <get_fat.part.5+0x58>
    eadc:	e594301c 	ldr	r3, [r4, #28]
    eae0:	e0832002 	add	r2, r3, r2
    eae4:	e15a0002 	cmp	sl, r2
    eae8:	2affff75 	bcs	e8c4 <get_fat.part.5+0x58>
    eaec:	e5d49003 	ldrb	r9, [r4, #3]
    eaf0:	e3590001 	cmp	r9, #1
    eaf4:	8a000001 	bhi	eb00 <get_fat.part.5+0x294>
    eaf8:	eaffff71 	b	e8c4 <get_fat.part.5+0x58>
    eafc:	e594301c 	ldr	r3, [r4, #28]
    eb00:	e08aa003 	add	sl, sl, r3
    eb04:	e2499001 	sub	r9, r9, #1
    eb08:	e1a0200a 	mov	r2, sl
    eb0c:	e5d40001 	ldrb	r0, [r4, #1]
    eb10:	e1a01007 	mov	r1, r7
    eb14:	e3a03001 	mov	r3, #1
    eb18:	eb0024e6 	bl	17eb8 <disk_write>
    eb1c:	e3590001 	cmp	r9, #1
    eb20:	1afffff5 	bne	eafc <get_fat.part.5+0x290>
    eb24:	eaffff66 	b	e8c4 <get_fat.part.5+0x58>
    eb28:	e1a01007 	mov	r1, r7
    eb2c:	e5d00001 	ldrb	r0, [r0, #1]
    eb30:	e1a02008 	mov	r2, r8
    eb34:	e3a03001 	mov	r3, #1
    eb38:	eb0024de 	bl	17eb8 <disk_write>
    eb3c:	e3500000 	cmp	r0, #0
    eb40:	1affff53 	bne	e894 <get_fat.part.5+0x28>
    eb44:	e5942024 	ldr	r2, [r4, #36]	; 0x24
    eb48:	e5c40004 	strb	r0, [r4, #4]
    eb4c:	e1580002 	cmp	r8, r2
    eb50:	3affff89 	bcc	e97c <get_fat.part.5+0x110>
    eb54:	e594301c 	ldr	r3, [r4, #28]
    eb58:	e0832002 	add	r2, r3, r2
    eb5c:	e1580002 	cmp	r8, r2
    eb60:	2affff85 	bcs	e97c <get_fat.part.5+0x110>
    eb64:	e5d49003 	ldrb	r9, [r4, #3]
    eb68:	e3590001 	cmp	r9, #1
    eb6c:	8a000001 	bhi	eb78 <get_fat.part.5+0x30c>
    eb70:	eaffff81 	b	e97c <get_fat.part.5+0x110>
    eb74:	e594301c 	ldr	r3, [r4, #28]
    eb78:	e0888003 	add	r8, r8, r3
    eb7c:	e2499001 	sub	r9, r9, #1
    eb80:	e1a02008 	mov	r2, r8
    eb84:	e5d40001 	ldrb	r0, [r4, #1]
    eb88:	e1a01007 	mov	r1, r7
    eb8c:	e3a03001 	mov	r3, #1
    eb90:	eb0024c8 	bl	17eb8 <disk_write>
    eb94:	e3590001 	cmp	r9, #1
    eb98:	1afffff5 	bne	eb74 <get_fat.part.5+0x308>
    eb9c:	eaffff76 	b	e97c <get_fat.part.5+0x110>
    eba0:	e1a01007 	mov	r1, r7
    eba4:	e5d40001 	ldrb	r0, [r4, #1]
    eba8:	e1a02008 	mov	r2, r8
    ebac:	e3a03001 	mov	r3, #1
    ebb0:	eb0024c0 	bl	17eb8 <disk_write>
    ebb4:	e3500000 	cmp	r0, #0
    ebb8:	1affff35 	bne	e894 <get_fat.part.5+0x28>
    ebbc:	e5942024 	ldr	r2, [r4, #36]	; 0x24
    ebc0:	e5c40004 	strb	r0, [r4, #4]
    ebc4:	e1520008 	cmp	r2, r8
    ebc8:	8affff52 	bhi	e918 <get_fat.part.5+0xac>
    ebcc:	e594301c 	ldr	r3, [r4, #28]
    ebd0:	e0832002 	add	r2, r3, r2
    ebd4:	e1520008 	cmp	r2, r8
    ebd8:	9affff4e 	bls	e918 <get_fat.part.5+0xac>
    ebdc:	e5d48003 	ldrb	r8, [r4, #3]
    ebe0:	e3580001 	cmp	r8, #1
    ebe4:	8a000001 	bhi	ebf0 <get_fat.part.5+0x384>
    ebe8:	eaffff4a 	b	e918 <get_fat.part.5+0xac>
    ebec:	e594301c 	ldr	r3, [r4, #28]
    ebf0:	e08bb003 	add	fp, fp, r3
    ebf4:	e2488001 	sub	r8, r8, #1
    ebf8:	e1a0200b 	mov	r2, fp
    ebfc:	e5d40001 	ldrb	r0, [r4, #1]
    ec00:	e1a01007 	mov	r1, r7
    ec04:	e3a03001 	mov	r3, #1
    ec08:	eb0024aa 	bl	17eb8 <disk_write>
    ec0c:	e3580001 	cmp	r8, #1
    ec10:	1afffff5 	bne	ebec <get_fat.part.5+0x380>
    ec14:	eaffff3f 	b	e918 <get_fat.part.5+0xac>
    ec18:	e1a0b008 	mov	fp, r8
    ec1c:	eaffff32 	b	e8ec <get_fat.part.5+0x80>
    ec20:	e1a00a06 	lsl	r0, r6, #20
    ec24:	e1a00a20 	lsr	r0, r0, #20
    ec28:	e8bd8ff8 	pop	{r3, r4, r5, r6, r7, r8, r9, sl, fp, pc}
    ec2c:	000001fe 	strdeq	r0, [r0], -lr

0000ec30 <dir_sdi>:
    ec30:	e92d4070 	push	{r4, r5, r6, lr}
    ec34:	e1a05000 	mov	r5, r0
    ec38:	e5903008 	ldr	r3, [r0, #8]
    ec3c:	e1a04001 	mov	r4, r1
    ec40:	e3530001 	cmp	r3, #1
    ec44:	e1c510b6 	strh	r1, [r5, #6]
    ec48:	0a000003 	beq	ec5c <dir_sdi+0x2c>
    ec4c:	e5900000 	ldr	r0, [r0]
    ec50:	e5902018 	ldr	r2, [r0, #24]
    ec54:	e1530002 	cmp	r3, r2
    ec58:	3a000001 	bcc	ec64 <dir_sdi+0x34>
    ec5c:	e3a00002 	mov	r0, #2
    ec60:	e8bd8070 	pop	{r4, r5, r6, pc}
    ec64:	e3530000 	cmp	r3, #0
    ec68:	1a000014 	bne	ecc0 <dir_sdi+0x90>
    ec6c:	e5d03000 	ldrb	r3, [r0]
    ec70:	e3530003 	cmp	r3, #3
    ec74:	0a00000e 	beq	ecb4 <dir_sdi+0x84>
    ec78:	e3a02000 	mov	r2, #0
    ec7c:	e1d030b8 	ldrh	r3, [r0, #8]
    ec80:	e585200c 	str	r2, [r5, #12]
    ec84:	e1530004 	cmp	r3, r4
    ec88:	9afffff3 	bls	ec5c <dir_sdi+0x2c>
    ec8c:	e5902028 	ldr	r2, [r0, #40]	; 0x28
    ec90:	e1a03224 	lsr	r3, r4, #4
    ec94:	e6f23073 	uxtah	r3, r2, r3
    ec98:	e5853010 	str	r3, [r5, #16]
    ec9c:	e204400f 	and	r4, r4, #15
    eca0:	e0804284 	add	r4, r0, r4, lsl #5
    eca4:	e2844034 	add	r4, r4, #52	; 0x34
    eca8:	e5854014 	str	r4, [r5, #20]
    ecac:	e3a00000 	mov	r0, #0
    ecb0:	e8bd8070 	pop	{r4, r5, r6, pc}
    ecb4:	e5903028 	ldr	r3, [r0, #40]	; 0x28
    ecb8:	e3530000 	cmp	r3, #0
    ecbc:	0affffed 	beq	ec78 <dir_sdi+0x48>
    ecc0:	e5d06002 	ldrb	r6, [r0, #2]
    ecc4:	e1a06206 	lsl	r6, r6, #4
    ecc8:	e1540006 	cmp	r4, r6
    eccc:	3a000018 	bcc	ed34 <dir_sdi+0x104>
    ecd0:	e0664004 	rsb	r4, r6, r4
    ecd4:	e6ff4074 	uxth	r4, r4
    ecd8:	ea00000f 	b	ed1c <dir_sdi+0xec>
    ecdc:	e1a01003 	mov	r1, r3
    ece0:	ebfffee1 	bl	e86c <get_fat.part.5>
    ece4:	e3700001 	cmn	r0, #1
    ece8:	e1a03000 	mov	r3, r0
    ecec:	e0661004 	rsb	r1, r6, r4
    ecf0:	0a00001b 	beq	ed64 <dir_sdi+0x134>
    ecf4:	e3500001 	cmp	r0, #1
    ecf8:	9affffd7 	bls	ec5c <dir_sdi+0x2c>
    ecfc:	e5950000 	ldr	r0, [r5]
    ed00:	e6ff1071 	uxth	r1, r1
    ed04:	e5902018 	ldr	r2, [r0, #24]
    ed08:	e1520003 	cmp	r2, r3
    ed0c:	9affffd2 	bls	ec5c <dir_sdi+0x2c>
    ed10:	e1560004 	cmp	r6, r4
    ed14:	8a000006 	bhi	ed34 <dir_sdi+0x104>
    ed18:	e1a04001 	mov	r4, r1
    ed1c:	e3530001 	cmp	r3, #1
    ed20:	9affffcd 	bls	ec5c <dir_sdi+0x2c>
    ed24:	e1530002 	cmp	r3, r2
    ed28:	3affffeb 	bcc	ecdc <dir_sdi+0xac>
    ed2c:	e3a00002 	mov	r0, #2
    ed30:	e8bd8070 	pop	{r4, r5, r6, pc}
    ed34:	e2431002 	sub	r1, r3, #2
    ed38:	e2422002 	sub	r2, r2, #2
    ed3c:	e1510002 	cmp	r1, r2
    ed40:	23a01000 	movcs	r1, #0
    ed44:	e585300c 	str	r3, [r5, #12]
    ed48:	35d02002 	ldrbcc	r2, [r0, #2]
    ed4c:	3590302c 	ldrcc	r3, [r0, #44]	; 0x2c
    ed50:	30213192 	mlacc	r1, r2, r1, r3
    ed54:	e1a03224 	lsr	r3, r4, #4
    ed58:	e6f11073 	uxtah	r1, r1, r3
    ed5c:	e5851010 	str	r1, [r5, #16]
    ed60:	eaffffcd 	b	ec9c <dir_sdi+0x6c>
    ed64:	e3a00001 	mov	r0, #1
    ed68:	e8bd8070 	pop	{r4, r5, r6, pc}

0000ed6c <create_chain>:
    ed6c:	e92d4ff0 	push	{r4, r5, r6, r7, r8, r9, sl, fp, lr}
    ed70:	e2518000 	subs	r8, r1, #0
    ed74:	e24dd00c 	sub	sp, sp, #12
    ed78:	e1a05000 	mov	r5, r0
    ed7c:	1a0000a4 	bne	f014 <create_chain+0x2a8>
    ed80:	e590600c 	ldr	r6, [r0, #12]
    ed84:	e5903018 	ldr	r3, [r0, #24]
    ed88:	e3560000 	cmp	r6, #0
    ed8c:	03a06001 	moveq	r6, #1
    ed90:	1a0000ac 	bne	f048 <create_chain+0x2dc>
    ed94:	e1a04006 	mov	r4, r6
    ed98:	e2857034 	add	r7, r5, #52	; 0x34
    ed9c:	e2844001 	add	r4, r4, #1
    eda0:	e1540003 	cmp	r4, r3
    eda4:	3a000006 	bcc	edc4 <create_chain+0x58>
    eda8:	e3560001 	cmp	r6, #1
    edac:	9a0000a8 	bls	f054 <create_chain+0x2e8>
    edb0:	e3530002 	cmp	r3, #2
    edb4:	8a00012d 	bhi	f270 <create_chain+0x504>
    edb8:	e3a00001 	mov	r0, #1
    edbc:	e28dd00c 	add	sp, sp, #12
    edc0:	e8bd8ff0 	pop	{r4, r5, r6, r7, r8, r9, sl, fp, pc}
    edc4:	e3540001 	cmp	r4, #1
    edc8:	9afffffa 	bls	edb8 <create_chain+0x4c>
    edcc:	e5d53000 	ldrb	r3, [r5]
    edd0:	e3530002 	cmp	r3, #2
    edd4:	0a000006 	beq	edf4 <create_chain+0x88>
    edd8:	e3530003 	cmp	r3, #3
    eddc:	0a00004b 	beq	ef10 <create_chain+0x1a4>
    ede0:	e3530001 	cmp	r3, #1
    ede4:	0a00001a 	beq	ee54 <create_chain+0xe8>
    ede8:	e3e00000 	mvn	r0, #0
    edec:	e28dd00c 	add	sp, sp, #12
    edf0:	e8bd8ff0 	pop	{r4, r5, r6, r7, r8, r9, sl, fp, pc}
    edf4:	e5959024 	ldr	r9, [r5, #36]	; 0x24
    edf8:	e595a030 	ldr	sl, [r5, #48]	; 0x30
    edfc:	e0899424 	add	r9, r9, r4, lsr #8
    ee00:	e159000a 	cmp	r9, sl
    ee04:	0a00000a 	beq	ee34 <create_chain+0xc8>
    ee08:	e5d53004 	ldrb	r3, [r5, #4]
    ee0c:	e3530000 	cmp	r3, #0
    ee10:	1a0000cf 	bne	f154 <create_chain+0x3e8>
    ee14:	e5d50001 	ldrb	r0, [r5, #1]
    ee18:	e1a01007 	mov	r1, r7
    ee1c:	e1a02009 	mov	r2, r9
    ee20:	e3a03001 	mov	r3, #1
    ee24:	eb002405 	bl	17e40 <disk_read>
    ee28:	e3500000 	cmp	r0, #0
    ee2c:	1affffed 	bne	ede8 <create_chain+0x7c>
    ee30:	e5859030 	str	r9, [r5, #48]	; 0x30
    ee34:	e59f344c 	ldr	r3, [pc, #1100]	; f288 <create_chain+0x51c>
    ee38:	e1a02084 	lsl	r2, r4, #1
    ee3c:	e0033002 	and	r3, r3, r2
    ee40:	e0851003 	add	r1, r5, r3
    ee44:	e5d13034 	ldrb	r3, [r1, #52]	; 0x34
    ee48:	e5d10035 	ldrb	r0, [r1, #53]	; 0x35
    ee4c:	e1830400 	orr	r0, r3, r0, lsl #8
    ee50:	ea00004a 	b	ef80 <create_chain+0x214>
    ee54:	e5952024 	ldr	r2, [r5, #36]	; 0x24
    ee58:	e08490a4 	add	r9, r4, r4, lsr #1
    ee5c:	e595b030 	ldr	fp, [r5, #48]	; 0x30
    ee60:	e082a4a9 	add	sl, r2, r9, lsr #9
    ee64:	e15b000a 	cmp	fp, sl
    ee68:	0a00000b 	beq	ee9c <create_chain+0x130>
    ee6c:	e5d52004 	ldrb	r2, [r5, #4]
    ee70:	e3520000 	cmp	r2, #0
    ee74:	1a000078 	bne	f05c <create_chain+0x2f0>
    ee78:	e5d50001 	ldrb	r0, [r5, #1]
    ee7c:	e1a01007 	mov	r1, r7
    ee80:	e1a0200a 	mov	r2, sl
    ee84:	e3a03001 	mov	r3, #1
    ee88:	eb0023ec 	bl	17e40 <disk_read>
    ee8c:	e3500000 	cmp	r0, #0
    ee90:	1affffd4 	bne	ede8 <create_chain+0x7c>
    ee94:	e5952024 	ldr	r2, [r5, #36]	; 0x24
    ee98:	e585a030 	str	sl, [r5, #48]	; 0x30
    ee9c:	e289c001 	add	ip, r9, #1
    eea0:	e082b4ac 	add	fp, r2, ip, lsr #9
    eea4:	e1a09b89 	lsl	r9, r9, #23
    eea8:	e0859ba9 	add	r9, r5, r9, lsr #23
    eeac:	e15a000b 	cmp	sl, fp
    eeb0:	e5d99034 	ldrb	r9, [r9, #52]	; 0x34
    eeb4:	0a00000c 	beq	eeec <create_chain+0x180>
    eeb8:	e5d53004 	ldrb	r3, [r5, #4]
    eebc:	e3530000 	cmp	r3, #0
    eec0:	1a0000c7 	bne	f1e4 <create_chain+0x478>
    eec4:	e5d50001 	ldrb	r0, [r5, #1]
    eec8:	e1a01007 	mov	r1, r7
    eecc:	e1a0200b 	mov	r2, fp
    eed0:	e3a03001 	mov	r3, #1
    eed4:	e58dc000 	str	ip, [sp]
    eed8:	eb0023d8 	bl	17e40 <disk_read>
    eedc:	e3500000 	cmp	r0, #0
    eee0:	e59dc000 	ldr	ip, [sp]
    eee4:	1affffbf 	bne	ede8 <create_chain+0x7c>
    eee8:	e585b030 	str	fp, [r5, #48]	; 0x30
    eeec:	e1a03b8c 	lsl	r3, ip, #23
    eef0:	e0853ba3 	add	r3, r5, r3, lsr #23
    eef4:	e5d30034 	ldrb	r0, [r3, #52]	; 0x34
    eef8:	e3140001 	tst	r4, #1
    eefc:	e1890400 	orr	r0, r9, r0, lsl #8
    ef00:	11a00220 	lsrne	r0, r0, #4
    ef04:	01a00a00 	lsleq	r0, r0, #20
    ef08:	01a00a20 	lsreq	r0, r0, #20
    ef0c:	ea00001b 	b	ef80 <create_chain+0x214>
    ef10:	e5959024 	ldr	r9, [r5, #36]	; 0x24
    ef14:	e595a030 	ldr	sl, [r5, #48]	; 0x30
    ef18:	e08993a4 	add	r9, r9, r4, lsr #7
    ef1c:	e159000a 	cmp	r9, sl
    ef20:	0a00000a 	beq	ef50 <create_chain+0x1e4>
    ef24:	e5d53004 	ldrb	r3, [r5, #4]
    ef28:	e3530000 	cmp	r3, #0
    ef2c:	1a00006a 	bne	f0dc <create_chain+0x370>
    ef30:	e5d50001 	ldrb	r0, [r5, #1]
    ef34:	e1a01007 	mov	r1, r7
    ef38:	e1a02009 	mov	r2, r9
    ef3c:	e3a03001 	mov	r3, #1
    ef40:	eb0023be 	bl	17e40 <disk_read>
    ef44:	e3500000 	cmp	r0, #0
    ef48:	1affffa6 	bne	ede8 <create_chain+0x7c>
    ef4c:	e5859030 	str	r9, [r5, #48]	; 0x30
    ef50:	e1a03104 	lsl	r3, r4, #2
    ef54:	e2033f7f 	and	r3, r3, #508	; 0x1fc
    ef58:	e0851003 	add	r1, r5, r3
    ef5c:	e5d12037 	ldrb	r2, [r1, #55]	; 0x37
    ef60:	e5d1c036 	ldrb	ip, [r1, #54]	; 0x36
    ef64:	e1a02c02 	lsl	r2, r2, #24
    ef68:	e5d10035 	ldrb	r0, [r1, #53]	; 0x35
    ef6c:	e5d13034 	ldrb	r3, [r1, #52]	; 0x34
    ef70:	e182280c 	orr	r2, r2, ip, lsl #16
    ef74:	e1820400 	orr	r0, r2, r0, lsl #8
    ef78:	e1800003 	orr	r0, r0, r3
    ef7c:	e3c0020f 	bic	r0, r0, #-268435456	; 0xf0000000
    ef80:	e3500000 	cmp	r0, #0
    ef84:	1a000090 	bne	f1cc <create_chain+0x460>
    ef88:	e5953018 	ldr	r3, [r5, #24]
    ef8c:	e1530004 	cmp	r3, r4
    ef90:	9affff88 	bls	edb8 <create_chain+0x4c>
    ef94:	e1a00005 	mov	r0, r5
    ef98:	e1a01004 	mov	r1, r4
    ef9c:	e3e0220f 	mvn	r2, #-268435456	; 0xf0000000
    efa0:	ebfffc15 	bl	dffc <put_fat.part.6>
    efa4:	e16f3f10 	clz	r3, r0
    efa8:	e3580000 	cmp	r8, #0
    efac:	e1a032a3 	lsr	r3, r3, #5
    efb0:	03a03000 	moveq	r3, #0
    efb4:	e3530000 	cmp	r3, #0
    efb8:	0a000008 	beq	efe0 <create_chain+0x274>
    efbc:	e3580001 	cmp	r8, #1
    efc0:	9affff7c 	bls	edb8 <create_chain+0x4c>
    efc4:	e5953018 	ldr	r3, [r5, #24]
    efc8:	e1580003 	cmp	r8, r3
    efcc:	2affff79 	bcs	edb8 <create_chain+0x4c>
    efd0:	e1a01008 	mov	r1, r8
    efd4:	e1a00005 	mov	r0, r5
    efd8:	e1a02004 	mov	r2, r4
    efdc:	ebfffc06 	bl	dffc <put_fat.part.6>
    efe0:	e3500000 	cmp	r0, #0
    efe4:	1a0000a3 	bne	f278 <create_chain+0x50c>
    efe8:	e5953010 	ldr	r3, [r5, #16]
    efec:	e585400c 	str	r4, [r5, #12]
    eff0:	e3730001 	cmn	r3, #1
    eff4:	01a00004 	moveq	r0, r4
    eff8:	0affff6f 	beq	edbc <create_chain+0x50>
    effc:	e3a02001 	mov	r2, #1
    f000:	e2433001 	sub	r3, r3, #1
    f004:	e5853010 	str	r3, [r5, #16]
    f008:	e1a00004 	mov	r0, r4
    f00c:	e5c52005 	strb	r2, [r5, #5]
    f010:	eaffff69 	b	edbc <create_chain+0x50>
    f014:	e3580001 	cmp	r8, #1
    f018:	9affff66 	bls	edb8 <create_chain+0x4c>
    f01c:	e5903018 	ldr	r3, [r0, #24]
    f020:	e1580003 	cmp	r8, r3
    f024:	2affff63 	bcs	edb8 <create_chain+0x4c>
    f028:	ebfffe0f 	bl	e86c <get_fat.part.5>
    f02c:	e3500001 	cmp	r0, #1
    f030:	9affff60 	bls	edb8 <create_chain+0x4c>
    f034:	e5953018 	ldr	r3, [r5, #24]
    f038:	e1530000 	cmp	r3, r0
    f03c:	8affff5e 	bhi	edbc <create_chain+0x50>
    f040:	e1a06008 	mov	r6, r8
    f044:	eaffff52 	b	ed94 <create_chain+0x28>
    f048:	e1560003 	cmp	r6, r3
    f04c:	23a06001 	movcs	r6, #1
    f050:	eaffff4f 	b	ed94 <create_chain+0x28>
    f054:	e3a00000 	mov	r0, #0
    f058:	eaffff57 	b	edbc <create_chain+0x50>
    f05c:	e5d50001 	ldrb	r0, [r5, #1]
    f060:	e1a01007 	mov	r1, r7
    f064:	e1a0200b 	mov	r2, fp
    f068:	eb002392 	bl	17eb8 <disk_write>
    f06c:	e3500000 	cmp	r0, #0
    f070:	1affff5c 	bne	ede8 <create_chain+0x7c>
    f074:	e5952024 	ldr	r2, [r5, #36]	; 0x24
    f078:	e5c50004 	strb	r0, [r5, #4]
    f07c:	e15b0002 	cmp	fp, r2
    f080:	3affff7c 	bcc	ee78 <create_chain+0x10c>
    f084:	e595301c 	ldr	r3, [r5, #28]
    f088:	e0832002 	add	r2, r3, r2
    f08c:	e15b0002 	cmp	fp, r2
    f090:	2affff78 	bcs	ee78 <create_chain+0x10c>
    f094:	e5d5c003 	ldrb	ip, [r5, #3]
    f098:	e35c0001 	cmp	ip, #1
    f09c:	9affff75 	bls	ee78 <create_chain+0x10c>
    f0a0:	e58d4000 	str	r4, [sp]
    f0a4:	e1a0400c 	mov	r4, ip
    f0a8:	ea000000 	b	f0b0 <create_chain+0x344>
    f0ac:	e595301c 	ldr	r3, [r5, #28]
    f0b0:	e08bb003 	add	fp, fp, r3
    f0b4:	e2444001 	sub	r4, r4, #1
    f0b8:	e1a0200b 	mov	r2, fp
    f0bc:	e5d50001 	ldrb	r0, [r5, #1]
    f0c0:	e1a01007 	mov	r1, r7
    f0c4:	e3a03001 	mov	r3, #1
    f0c8:	eb00237a 	bl	17eb8 <disk_write>
    f0cc:	e3540001 	cmp	r4, #1
    f0d0:	1afffff5 	bne	f0ac <create_chain+0x340>
    f0d4:	e59d4000 	ldr	r4, [sp]
    f0d8:	eaffff66 	b	ee78 <create_chain+0x10c>
    f0dc:	e5d50001 	ldrb	r0, [r5, #1]
    f0e0:	e1a01007 	mov	r1, r7
    f0e4:	e1a0200a 	mov	r2, sl
    f0e8:	e3a03001 	mov	r3, #1
    f0ec:	eb002371 	bl	17eb8 <disk_write>
    f0f0:	e3500000 	cmp	r0, #0
    f0f4:	1affff3b 	bne	ede8 <create_chain+0x7c>
    f0f8:	e5952024 	ldr	r2, [r5, #36]	; 0x24
    f0fc:	e5c50004 	strb	r0, [r5, #4]
    f100:	e15a0002 	cmp	sl, r2
    f104:	3affff89 	bcc	ef30 <create_chain+0x1c4>
    f108:	e595301c 	ldr	r3, [r5, #28]
    f10c:	e0832002 	add	r2, r3, r2
    f110:	e15a0002 	cmp	sl, r2
    f114:	2affff85 	bcs	ef30 <create_chain+0x1c4>
    f118:	e5d5b003 	ldrb	fp, [r5, #3]
    f11c:	e35b0001 	cmp	fp, #1
    f120:	8a000001 	bhi	f12c <create_chain+0x3c0>
    f124:	eaffff81 	b	ef30 <create_chain+0x1c4>
    f128:	e595301c 	ldr	r3, [r5, #28]
    f12c:	e08aa003 	add	sl, sl, r3
    f130:	e24bb001 	sub	fp, fp, #1
    f134:	e1a0200a 	mov	r2, sl
    f138:	e5d50001 	ldrb	r0, [r5, #1]
    f13c:	e1a01007 	mov	r1, r7
    f140:	e3a03001 	mov	r3, #1
    f144:	eb00235b 	bl	17eb8 <disk_write>
    f148:	e35b0001 	cmp	fp, #1
    f14c:	1afffff5 	bne	f128 <create_chain+0x3bc>
    f150:	eaffff76 	b	ef30 <create_chain+0x1c4>
    f154:	e5d50001 	ldrb	r0, [r5, #1]
    f158:	e1a01007 	mov	r1, r7
    f15c:	e1a0200a 	mov	r2, sl
    f160:	e3a03001 	mov	r3, #1
    f164:	eb002353 	bl	17eb8 <disk_write>
    f168:	e3500000 	cmp	r0, #0
    f16c:	1affff1d 	bne	ede8 <create_chain+0x7c>
    f170:	e5952024 	ldr	r2, [r5, #36]	; 0x24
    f174:	e5c50004 	strb	r0, [r5, #4]
    f178:	e15a0002 	cmp	sl, r2
    f17c:	3affff24 	bcc	ee14 <create_chain+0xa8>
    f180:	e595301c 	ldr	r3, [r5, #28]
    f184:	e0832002 	add	r2, r3, r2
    f188:	e15a0002 	cmp	sl, r2
    f18c:	2affff20 	bcs	ee14 <create_chain+0xa8>
    f190:	e5d5b003 	ldrb	fp, [r5, #3]
    f194:	e35b0001 	cmp	fp, #1
    f198:	8a000001 	bhi	f1a4 <create_chain+0x438>
    f19c:	eaffff1c 	b	ee14 <create_chain+0xa8>
    f1a0:	e595301c 	ldr	r3, [r5, #28]
    f1a4:	e08aa003 	add	sl, sl, r3
    f1a8:	e24bb001 	sub	fp, fp, #1
    f1ac:	e1a0200a 	mov	r2, sl
    f1b0:	e5d50001 	ldrb	r0, [r5, #1]
    f1b4:	e1a01007 	mov	r1, r7
    f1b8:	e3a03001 	mov	r3, #1
    f1bc:	eb00233d 	bl	17eb8 <disk_write>
    f1c0:	e35b0001 	cmp	fp, #1
    f1c4:	1afffff5 	bne	f1a0 <create_chain+0x434>
    f1c8:	eaffff11 	b	ee14 <create_chain+0xa8>
    f1cc:	e3500001 	cmp	r0, #1
    f1d0:	0afffef9 	beq	edbc <create_chain+0x50>
    f1d4:	e1560004 	cmp	r6, r4
    f1d8:	0affff9d 	beq	f054 <create_chain+0x2e8>
    f1dc:	e5953018 	ldr	r3, [r5, #24]
    f1e0:	eafffeed 	b	ed9c <create_chain+0x30>
    f1e4:	e5d50001 	ldrb	r0, [r5, #1]
    f1e8:	e1a01007 	mov	r1, r7
    f1ec:	e1a0200a 	mov	r2, sl
    f1f0:	e3a03001 	mov	r3, #1
    f1f4:	e58dc000 	str	ip, [sp]
    f1f8:	eb00232e 	bl	17eb8 <disk_write>
    f1fc:	e3500000 	cmp	r0, #0
    f200:	1afffef8 	bne	ede8 <create_chain+0x7c>
    f204:	e5952024 	ldr	r2, [r5, #36]	; 0x24
    f208:	e5c50004 	strb	r0, [r5, #4]
    f20c:	e15a0002 	cmp	sl, r2
    f210:	e59dc000 	ldr	ip, [sp]
    f214:	3affff2a 	bcc	eec4 <create_chain+0x158>
    f218:	e595301c 	ldr	r3, [r5, #28]
    f21c:	e0832002 	add	r2, r3, r2
    f220:	e15a0002 	cmp	sl, r2
    f224:	2affff26 	bcs	eec4 <create_chain+0x158>
    f228:	e5d52003 	ldrb	r2, [r5, #3]
    f22c:	e3520001 	cmp	r2, #1
    f230:	9affff23 	bls	eec4 <create_chain+0x158>
    f234:	e88d1010 	stm	sp, {r4, ip}
    f238:	e1a04002 	mov	r4, r2
    f23c:	ea000000 	b	f244 <create_chain+0x4d8>
    f240:	e595301c 	ldr	r3, [r5, #28]
    f244:	e08aa003 	add	sl, sl, r3
    f248:	e2444001 	sub	r4, r4, #1
    f24c:	e1a0200a 	mov	r2, sl
    f250:	e5d50001 	ldrb	r0, [r5, #1]
    f254:	e1a01007 	mov	r1, r7
    f258:	e3a03001 	mov	r3, #1
    f25c:	eb002315 	bl	17eb8 <disk_write>
    f260:	e3540001 	cmp	r4, #1
    f264:	1afffff5 	bne	f240 <create_chain+0x4d4>
    f268:	e89d1010 	ldm	sp, {r4, ip}
    f26c:	eaffff14 	b	eec4 <create_chain+0x158>
    f270:	e3a04002 	mov	r4, #2
    f274:	eafffed4 	b	edcc <create_chain+0x60>
    f278:	e3500001 	cmp	r0, #1
    f27c:	03e00000 	mvneq	r0, #0
    f280:	13a00001 	movne	r0, #1
    f284:	eafffecc 	b	edbc <create_chain+0x50>
    f288:	000001fe 	strdeq	r0, [r0], -lr

0000f28c <f_read.part.9>:
    f28c:	e92d4ff0 	push	{r4, r5, r6, r7, r8, r9, sl, fp, lr}
    f290:	e590e008 	ldr	lr, [r0, #8]
    f294:	e1a08000 	mov	r8, r0
    f298:	e590000c 	ldr	r0, [r0, #12]
    f29c:	e1a09001 	mov	r9, r1
    f2a0:	e06e1000 	rsb	r1, lr, r0
    f2a4:	e1520001 	cmp	r2, r1
    f2a8:	31a0a002 	movcc	sl, r2
    f2ac:	21a0a001 	movcs	sl, r1
    f2b0:	e35a0000 	cmp	sl, #0
    f2b4:	e24dd014 	sub	sp, sp, #20
    f2b8:	0a000056 	beq	f418 <f_read.part.9+0x18c>
    f2bc:	e1a0c003 	mov	ip, r3
    f2c0:	e1a0b00c 	mov	fp, ip
    f2c4:	e2883024 	add	r3, r8, #36	; 0x24
    f2c8:	e58d3004 	str	r3, [sp, #4]
    f2cc:	e2883028 	add	r3, r8, #40	; 0x28
    f2d0:	e58d3008 	str	r3, [sp, #8]
    f2d4:	e2883f89 	add	r3, r8, #548	; 0x224
    f2d8:	e58d300c 	str	r3, [sp, #12]
    f2dc:	e1a03b8e 	lsl	r3, lr, #23
    f2e0:	e1b04ba3 	lsrs	r4, r3, #23
    f2e4:	1a000069 	bne	f490 <f_read.part.9+0x204>
    f2e8:	e5983000 	ldr	r3, [r8]
    f2ec:	e5d35002 	ldrb	r5, [r3, #2]
    f2f0:	e2455001 	sub	r5, r5, #1
    f2f4:	e00554ae 	and	r5, r5, lr, lsr #9
    f2f8:	e21550ff 	ands	r5, r5, #255	; 0xff
    f2fc:	0a000097 	beq	f560 <f_read.part.9+0x2d4>
    f300:	e5987014 	ldr	r7, [r8, #20]
    f304:	e5932018 	ldr	r2, [r3, #24]
    f308:	e2477002 	sub	r7, r7, #2
    f30c:	e2422002 	sub	r2, r2, #2
    f310:	e1570002 	cmp	r7, r2
    f314:	2a0000ab 	bcs	f5c8 <f_read.part.9+0x33c>
    f318:	e5d32002 	ldrb	r2, [r3, #2]
    f31c:	e593c02c 	ldr	ip, [r3, #44]	; 0x2c
    f320:	e0070792 	mul	r7, r2, r7
    f324:	e097600c 	adds	r6, r7, ip
    f328:	0a0000a6 	beq	f5c8 <f_read.part.9+0x33c>
    f32c:	e1b044aa 	lsrs	r4, sl, #9
    f330:	e0866005 	add	r6, r6, r5
    f334:	0a00003a 	beq	f424 <f_read.part.9+0x198>
    f338:	e0851004 	add	r1, r5, r4
    f33c:	e1520001 	cmp	r2, r1
    f340:	30654002 	rsbcc	r4, r5, r2
    f344:	e5d30001 	ldrb	r0, [r3, #1]
    f348:	e1a01009 	mov	r1, r9
    f34c:	e6ef3074 	uxtb	r3, r4
    f350:	e1a02006 	mov	r2, r6
    f354:	e58dc000 	str	ip, [sp]
    f358:	eb0022b8 	bl	17e40 <disk_read>
    f35c:	e3500000 	cmp	r0, #0
    f360:	e5d83006 	ldrb	r3, [r8, #6]
    f364:	e59dc000 	ldr	ip, [sp]
    f368:	1a00009e 	bne	f5e8 <f_read.part.9+0x35c>
    f36c:	e3130040 	tst	r3, #64	; 0x40
    f370:	0a00001e 	beq	f3f0 <f_read.part.9+0x164>
    f374:	e5983018 	ldr	r3, [r8, #24]
    f378:	e0666003 	rsb	r6, r6, r3
    f37c:	e1540006 	cmp	r4, r6
    f380:	9a00001a 	bls	f3f0 <f_read.part.9+0x164>
    f384:	e06c2003 	rsb	r2, ip, r3
    f388:	e0652002 	rsb	r2, r5, r2
    f38c:	e0672002 	rsb	r2, r7, r2
    f390:	e59d0004 	ldr	r0, [sp, #4]
    f394:	e1a02482 	lsl	r2, r2, #9
    f398:	e0893002 	add	r3, r9, r2
    f39c:	e1831000 	orr	r1, r3, r0
    f3a0:	e2822004 	add	r2, r2, #4
    f3a4:	e59dc008 	ldr	ip, [sp, #8]
    f3a8:	e0892002 	add	r2, r9, r2
    f3ac:	e3110003 	tst	r1, #3
    f3b0:	03a01001 	moveq	r1, #1
    f3b4:	13a01000 	movne	r1, #0
    f3b8:	e153000c 	cmp	r3, ip
    f3bc:	31500002 	cmpcc	r0, r2
    f3c0:	23a02001 	movcs	r2, #1
    f3c4:	33a02000 	movcc	r2, #0
    f3c8:	e1110002 	tst	r1, r2
    f3cc:	e1a06486 	lsl	r6, r6, #9
    f3d0:	e1a02000 	mov	r2, r0
    f3d4:	0a00008c 	beq	f60c <f_read.part.9+0x380>
    f3d8:	e2882020 	add	r2, r8, #32
    f3dc:	e2830c02 	add	r0, r3, #512	; 0x200
    f3e0:	e5b21004 	ldr	r1, [r2, #4]!
    f3e4:	e4831004 	str	r1, [r3], #4
    f3e8:	e1530000 	cmp	r3, r0
    f3ec:	1afffffb 	bne	f3e0 <f_read.part.9+0x154>
    f3f0:	e598e008 	ldr	lr, [r8, #8]
    f3f4:	e1a04484 	lsl	r4, r4, #9
    f3f8:	e59b3000 	ldr	r3, [fp]
    f3fc:	e08ee004 	add	lr, lr, r4
    f400:	e0833004 	add	r3, r3, r4
    f404:	e05aa004 	subs	sl, sl, r4
    f408:	e588e008 	str	lr, [r8, #8]
    f40c:	e0899004 	add	r9, r9, r4
    f410:	e58b3000 	str	r3, [fp]
    f414:	1affffb0 	bne	f2dc <f_read.part.9+0x50>
    f418:	e3a00000 	mov	r0, #0
    f41c:	e28dd014 	add	sp, sp, #20
    f420:	e8bd8ff0 	pop	{r4, r5, r6, r7, r8, r9, sl, fp, pc}
    f424:	e5982018 	ldr	r2, [r8, #24]
    f428:	e1560002 	cmp	r6, r2
    f42c:	0a000013 	beq	f480 <f_read.part.9+0x1f4>
    f430:	e5d81006 	ldrb	r1, [r8, #6]
    f434:	e3110040 	tst	r1, #64	; 0x40
    f438:	0a000009 	beq	f464 <f_read.part.9+0x1d8>
    f43c:	e5d30001 	ldrb	r0, [r3, #1]
    f440:	e59d1004 	ldr	r1, [sp, #4]
    f444:	e3a03001 	mov	r3, #1
    f448:	eb00229a 	bl	17eb8 <disk_write>
    f44c:	e3500000 	cmp	r0, #0
    f450:	1a000063 	bne	f5e4 <f_read.part.9+0x358>
    f454:	e5d82006 	ldrb	r2, [r8, #6]
    f458:	e5983000 	ldr	r3, [r8]
    f45c:	e3c22040 	bic	r2, r2, #64	; 0x40
    f460:	e5c82006 	strb	r2, [r8, #6]
    f464:	e5d30001 	ldrb	r0, [r3, #1]
    f468:	e59d1004 	ldr	r1, [sp, #4]
    f46c:	e1a02006 	mov	r2, r6
    f470:	e3a03001 	mov	r3, #1
    f474:	eb002271 	bl	17e40 <disk_read>
    f478:	e3500000 	cmp	r0, #0
    f47c:	1a000058 	bne	f5e4 <f_read.part.9+0x358>
    f480:	e5984008 	ldr	r4, [r8, #8]
    f484:	e5886018 	str	r6, [r8, #24]
    f488:	e1a04b84 	lsl	r4, r4, #23
    f48c:	e1a04ba4 	lsr	r4, r4, #23
    f490:	e2842020 	add	r2, r4, #32
    f494:	e0882002 	add	r2, r8, r2
    f498:	e2644c02 	rsb	r4, r4, #512	; 0x200
    f49c:	e2823004 	add	r3, r2, #4
    f4a0:	e154000a 	cmp	r4, sl
    f4a4:	e1891003 	orr	r1, r9, r3
    f4a8:	21a0400a 	movcs	r4, sl
    f4ac:	e283e004 	add	lr, r3, #4
    f4b0:	e3110003 	tst	r1, #3
    f4b4:	e2891004 	add	r1, r9, #4
    f4b8:	03a0c001 	moveq	ip, #1
    f4bc:	13a0c000 	movne	ip, #0
    f4c0:	e159000e 	cmp	r9, lr
    f4c4:	31530001 	cmpcc	r3, r1
    f4c8:	23a01001 	movcs	r1, #1
    f4cc:	33a01000 	movcc	r1, #0
    f4d0:	e001100c 	and	r1, r1, ip
    f4d4:	e3540009 	cmp	r4, #9
    f4d8:	93a01000 	movls	r1, #0
    f4dc:	82011001 	andhi	r1, r1, #1
    f4e0:	e3510000 	cmp	r1, #0
    f4e4:	e244c001 	sub	ip, r4, #1
    f4e8:	0a000029 	beq	f594 <f_read.part.9+0x308>
    f4ec:	e2441004 	sub	r1, r4, #4
    f4f0:	e1a01121 	lsr	r1, r1, #2
    f4f4:	e2811001 	add	r1, r1, #1
    f4f8:	e35c0002 	cmp	ip, #2
    f4fc:	e1a00101 	lsl	r0, r1, #2
    f500:	9a000021 	bls	f58c <f_read.part.9+0x300>
    f504:	e1a05009 	mov	r5, r9
    f508:	e3a0e000 	mov	lr, #0
    f50c:	e28ee001 	add	lr, lr, #1
    f510:	e5b26004 	ldr	r6, [r2, #4]!
    f514:	e151000e 	cmp	r1, lr
    f518:	e4856004 	str	r6, [r5], #4
    f51c:	8afffffa 	bhi	f50c <f_read.part.9+0x280>
    f520:	e1540000 	cmp	r4, r0
    f524:	e0833000 	add	r3, r3, r0
    f528:	e060c00c 	rsb	ip, r0, ip
    f52c:	e0890000 	add	r0, r9, r0
    f530:	0a000008 	beq	f558 <f_read.part.9+0x2cc>
    f534:	e5d32000 	ldrb	r2, [r3]
    f538:	e35c0000 	cmp	ip, #0
    f53c:	e5c02000 	strb	r2, [r0]
    f540:	0a000004 	beq	f558 <f_read.part.9+0x2cc>
    f544:	e5d32001 	ldrb	r2, [r3, #1]
    f548:	e35c0001 	cmp	ip, #1
    f54c:	e5c02001 	strb	r2, [r0, #1]
    f550:	15d33002 	ldrbne	r3, [r3, #2]
    f554:	15c03002 	strbne	r3, [r0, #2]
    f558:	e598e008 	ldr	lr, [r8, #8]
    f55c:	eaffffa5 	b	f3f8 <f_read.part.9+0x16c>
    f560:	e35e0000 	cmp	lr, #0
    f564:	1a000011 	bne	f5b0 <f_read.part.9+0x324>
    f568:	e5980010 	ldr	r0, [r8, #16]
    f56c:	e3500001 	cmp	r0, #1
    f570:	9a000014 	bls	f5c8 <f_read.part.9+0x33c>
    f574:	e3700001 	cmn	r0, #1
    f578:	0a000019 	beq	f5e4 <f_read.part.9+0x358>
    f57c:	e1a07000 	mov	r7, r0
    f580:	e5983000 	ldr	r3, [r8]
    f584:	e5880014 	str	r0, [r8, #20]
    f588:	eaffff5d 	b	f304 <f_read.part.9+0x78>
    f58c:	e1a00009 	mov	r0, r9
    f590:	eaffffe7 	b	f534 <f_read.part.9+0x2a8>
    f594:	e2492001 	sub	r2, r9, #1
    f598:	e0830004 	add	r0, r3, r4
    f59c:	e4d31001 	ldrb	r1, [r3], #1
    f5a0:	e1530000 	cmp	r3, r0
    f5a4:	e5e21001 	strb	r1, [r2, #1]!
    f5a8:	1afffffb 	bne	f59c <f_read.part.9+0x310>
    f5ac:	eaffffe9 	b	f558 <f_read.part.9+0x2cc>
    f5b0:	e5981014 	ldr	r1, [r8, #20]
    f5b4:	e3510001 	cmp	r1, #1
    f5b8:	9a000002 	bls	f5c8 <f_read.part.9+0x33c>
    f5bc:	e5932018 	ldr	r2, [r3, #24]
    f5c0:	e1510002 	cmp	r1, r2
    f5c4:	3a00000d 	bcc	f600 <f_read.part.9+0x374>
    f5c8:	e5d83006 	ldrb	r3, [r8, #6]
    f5cc:	e3a00002 	mov	r0, #2
    f5d0:	e1e03c83 	mvn	r3, r3, lsl #25
    f5d4:	e1e03ca3 	mvn	r3, r3, lsr #25
    f5d8:	e5c83006 	strb	r3, [r8, #6]
    f5dc:	e28dd014 	add	sp, sp, #20
    f5e0:	e8bd8ff0 	pop	{r4, r5, r6, r7, r8, r9, sl, fp, pc}
    f5e4:	e5d83006 	ldrb	r3, [r8, #6]
    f5e8:	e1e03c83 	mvn	r3, r3, lsl #25
    f5ec:	e3a00001 	mov	r0, #1
    f5f0:	e1e03ca3 	mvn	r3, r3, lsr #25
    f5f4:	e5c83006 	strb	r3, [r8, #6]
    f5f8:	e28dd014 	add	sp, sp, #20
    f5fc:	e8bd8ff0 	pop	{r4, r5, r6, r7, r8, r9, sl, fp, pc}
    f600:	e1a00003 	mov	r0, r3
    f604:	ebfffc98 	bl	e86c <get_fat.part.5>
    f608:	eaffffd7 	b	f56c <f_read.part.9+0x2e0>
    f60c:	e2466001 	sub	r6, r6, #1
    f610:	e59d000c 	ldr	r0, [sp, #12]
    f614:	e0893006 	add	r3, r9, r6
    f618:	e4d21001 	ldrb	r1, [r2], #1
    f61c:	e1520000 	cmp	r2, r0
    f620:	e5e31001 	strb	r1, [r3, #1]!
    f624:	1afffffb 	bne	f618 <f_read.part.9+0x38c>
    f628:	eaffff70 	b	f3f0 <f_read.part.9+0x164>

0000f62c <dir_next.constprop.14>:
    f62c:	e92d4070 	push	{r4, r5, r6, lr}
    f630:	e1d040b6 	ldrh	r4, [r0, #6]
    f634:	e2844001 	add	r4, r4, #1
    f638:	e6ff4074 	uxth	r4, r4
    f63c:	e3540000 	cmp	r4, #0
    f640:	1a000001 	bne	f64c <dir_next.constprop.14+0x20>
    f644:	e3a00004 	mov	r0, #4
    f648:	e8bd8070 	pop	{r4, r5, r6, pc}
    f64c:	e5903010 	ldr	r3, [r0, #16]
    f650:	e3530000 	cmp	r3, #0
    f654:	0afffffa 	beq	f644 <dir_next.constprop.14+0x18>
    f658:	e214600f 	ands	r6, r4, #15
    f65c:	e1a05000 	mov	r5, r0
    f660:	0a000006 	beq	f680 <dir_next.constprop.14+0x54>
    f664:	e5903000 	ldr	r3, [r0]
    f668:	e0833286 	add	r3, r3, r6, lsl #5
    f66c:	e2833034 	add	r3, r3, #52	; 0x34
    f670:	e5853014 	str	r3, [r5, #20]
    f674:	e1c540b6 	strh	r4, [r5, #6]
    f678:	e3a00000 	mov	r0, #0
    f67c:	e8bd8070 	pop	{r4, r5, r6, pc}
    f680:	e590100c 	ldr	r1, [r0, #12]
    f684:	e2833001 	add	r3, r3, #1
    f688:	e3510000 	cmp	r1, #0
    f68c:	e5803010 	str	r3, [r0, #16]
    f690:	e5903000 	ldr	r3, [r0]
    f694:	0a00000a 	beq	f6c4 <dir_next.constprop.14+0x98>
    f698:	e5d32002 	ldrb	r2, [r3, #2]
    f69c:	e2422001 	sub	r2, r2, #1
    f6a0:	e0122224 	ands	r2, r2, r4, lsr #4
    f6a4:	1affffef 	bne	f668 <dir_next.constprop.14+0x3c>
    f6a8:	e3510001 	cmp	r1, #1
    f6ac:	9a000002 	bls	f6bc <dir_next.constprop.14+0x90>
    f6b0:	e5932018 	ldr	r2, [r3, #24]
    f6b4:	e1510002 	cmp	r1, r2
    f6b8:	3a000005 	bcc	f6d4 <dir_next.constprop.14+0xa8>
    f6bc:	e3a00002 	mov	r0, #2
    f6c0:	e8bd8070 	pop	{r4, r5, r6, pc}
    f6c4:	e1d320b8 	ldrh	r2, [r3, #8]
    f6c8:	e1520004 	cmp	r2, r4
    f6cc:	9affffdc 	bls	f644 <dir_next.constprop.14+0x18>
    f6d0:	eaffffe4 	b	f668 <dir_next.constprop.14+0x3c>
    f6d4:	e1a00003 	mov	r0, r3
    f6d8:	ebfffc63 	bl	e86c <get_fat.part.5>
    f6dc:	e3500001 	cmp	r0, #1
    f6e0:	9afffff5 	bls	f6bc <dir_next.constprop.14+0x90>
    f6e4:	e3700001 	cmn	r0, #1
    f6e8:	0a00000d 	beq	f724 <dir_next.constprop.14+0xf8>
    f6ec:	e5953000 	ldr	r3, [r5]
    f6f0:	e5932018 	ldr	r2, [r3, #24]
    f6f4:	e1500002 	cmp	r0, r2
    f6f8:	2affffd1 	bcs	f644 <dir_next.constprop.14+0x18>
    f6fc:	e2401002 	sub	r1, r0, #2
    f700:	e2422002 	sub	r2, r2, #2
    f704:	e1510002 	cmp	r1, r2
    f708:	23a01000 	movcs	r1, #0
    f70c:	e585000c 	str	r0, [r5, #12]
    f710:	35d30002 	ldrbcc	r0, [r3, #2]
    f714:	3593202c 	ldrcc	r2, [r3, #44]	; 0x2c
    f718:	30212190 	mlacc	r1, r0, r1, r2
    f71c:	e5851010 	str	r1, [r5, #16]
    f720:	eaffffd0 	b	f668 <dir_next.constprop.14+0x3c>
    f724:	e3a00001 	mov	r0, #1
    f728:	e8bd8070 	pop	{r4, r5, r6, pc}

0000f72c <dir_remove>:
    f72c:	e92d4ff8 	push	{r3, r4, r5, r6, r7, r8, r9, sl, fp, lr}
    f730:	e1d012b0 	ldrh	r1, [r0, #32]
    f734:	e59f31e8 	ldr	r3, [pc, #488]	; f924 <dir_remove+0x1f8>
    f738:	e1d0a0b6 	ldrh	sl, [r0, #6]
    f73c:	e1510003 	cmp	r1, r3
    f740:	01a0100a 	moveq	r1, sl
    f744:	e1a07000 	mov	r7, r0
    f748:	ebfffd38 	bl	ec30 <dir_sdi>
    f74c:	e2509000 	subs	r9, r0, #0
    f750:	1a00001e 	bne	f7d0 <dir_remove+0xa4>
    f754:	e5974000 	ldr	r4, [r7]
    f758:	e5976010 	ldr	r6, [r7, #16]
    f75c:	e5945030 	ldr	r5, [r4, #48]	; 0x30
    f760:	e1550006 	cmp	r5, r6
    f764:	0a00000b 	beq	f798 <dir_remove+0x6c>
    f768:	e5d43004 	ldrb	r3, [r4, #4]
    f76c:	e2848034 	add	r8, r4, #52	; 0x34
    f770:	e3530000 	cmp	r3, #0
    f774:	1a000025 	bne	f810 <dir_remove+0xe4>
    f778:	e1a01008 	mov	r1, r8
    f77c:	e5d40001 	ldrb	r0, [r4, #1]
    f780:	e1a02006 	mov	r2, r6
    f784:	e3a03001 	mov	r3, #1
    f788:	eb0021ac 	bl	17e40 <disk_read>
    f78c:	e3500000 	cmp	r0, #0
    f790:	1a000010 	bne	f7d8 <dir_remove+0xac>
    f794:	e5846030 	str	r6, [r4, #48]	; 0x30
    f798:	e3e0201a 	mvn	r2, #26
    f79c:	e5973014 	ldr	r3, [r7, #20]
    f7a0:	e5c32000 	strb	r2, [r3]
    f7a4:	e3a02001 	mov	r2, #1
    f7a8:	e5973000 	ldr	r3, [r7]
    f7ac:	e5c32004 	strb	r2, [r3, #4]
    f7b0:	e1d750b6 	ldrh	r5, [r7, #6]
    f7b4:	e15a0005 	cmp	sl, r5
    f7b8:	9a000004 	bls	f7d0 <dir_remove+0xa4>
    f7bc:	e2855001 	add	r5, r5, #1
    f7c0:	e6ff5075 	uxth	r5, r5
    f7c4:	e3550000 	cmp	r5, #0
    f7c8:	1a000005 	bne	f7e4 <dir_remove+0xb8>
    f7cc:	e3a09002 	mov	r9, #2
    f7d0:	e1a00009 	mov	r0, r9
    f7d4:	e8bd8ff8 	pop	{r3, r4, r5, r6, r7, r8, r9, sl, fp, pc}
    f7d8:	e3a09001 	mov	r9, #1
    f7dc:	e1a00009 	mov	r0, r9
    f7e0:	e8bd8ff8 	pop	{r3, r4, r5, r6, r7, r8, r9, sl, fp, pc}
    f7e4:	e5976010 	ldr	r6, [r7, #16]
    f7e8:	e3560000 	cmp	r6, #0
    f7ec:	0afffff6 	beq	f7cc <dir_remove+0xa0>
    f7f0:	e215800f 	ands	r8, r5, #15
    f7f4:	0a000023 	beq	f888 <dir_remove+0x15c>
    f7f8:	e5974000 	ldr	r4, [r7]
    f7fc:	e0848288 	add	r8, r4, r8, lsl #5
    f800:	e2888034 	add	r8, r8, #52	; 0x34
    f804:	e5878014 	str	r8, [r7, #20]
    f808:	e1c750b6 	strh	r5, [r7, #6]
    f80c:	eaffffd2 	b	f75c <dir_remove+0x30>
    f810:	e1a01008 	mov	r1, r8
    f814:	e5d40001 	ldrb	r0, [r4, #1]
    f818:	e1a02005 	mov	r2, r5
    f81c:	e3a03001 	mov	r3, #1
    f820:	eb0021a4 	bl	17eb8 <disk_write>
    f824:	e3500000 	cmp	r0, #0
    f828:	1affffea 	bne	f7d8 <dir_remove+0xac>
    f82c:	e5942024 	ldr	r2, [r4, #36]	; 0x24
    f830:	e5c40004 	strb	r0, [r4, #4]
    f834:	e1550002 	cmp	r5, r2
    f838:	3affffce 	bcc	f778 <dir_remove+0x4c>
    f83c:	e594301c 	ldr	r3, [r4, #28]
    f840:	e0832002 	add	r2, r3, r2
    f844:	e1550002 	cmp	r5, r2
    f848:	2affffca 	bcs	f778 <dir_remove+0x4c>
    f84c:	e5d4b003 	ldrb	fp, [r4, #3]
    f850:	e35b0001 	cmp	fp, #1
    f854:	8a000001 	bhi	f860 <dir_remove+0x134>
    f858:	eaffffc6 	b	f778 <dir_remove+0x4c>
    f85c:	e594301c 	ldr	r3, [r4, #28]
    f860:	e0855003 	add	r5, r5, r3
    f864:	e24bb001 	sub	fp, fp, #1
    f868:	e1a02005 	mov	r2, r5
    f86c:	e5d40001 	ldrb	r0, [r4, #1]
    f870:	e1a01008 	mov	r1, r8
    f874:	e3a03001 	mov	r3, #1
    f878:	eb00218e 	bl	17eb8 <disk_write>
    f87c:	e35b0001 	cmp	fp, #1
    f880:	1afffff5 	bne	f85c <dir_remove+0x130>
    f884:	eaffffbb 	b	f778 <dir_remove+0x4c>
    f888:	e597100c 	ldr	r1, [r7, #12]
    f88c:	e2866001 	add	r6, r6, #1
    f890:	e3510000 	cmp	r1, #0
    f894:	e5876010 	str	r6, [r7, #16]
    f898:	e5974000 	ldr	r4, [r7]
    f89c:	0a00001c 	beq	f914 <dir_remove+0x1e8>
    f8a0:	e5d43002 	ldrb	r3, [r4, #2]
    f8a4:	e2433001 	sub	r3, r3, #1
    f8a8:	e0133225 	ands	r3, r3, r5, lsr #4
    f8ac:	1affffd2 	bne	f7fc <dir_remove+0xd0>
    f8b0:	e3510001 	cmp	r1, #1
    f8b4:	9affffc4 	bls	f7cc <dir_remove+0xa0>
    f8b8:	e5943018 	ldr	r3, [r4, #24]
    f8bc:	e1510003 	cmp	r1, r3
    f8c0:	2affffc1 	bcs	f7cc <dir_remove+0xa0>
    f8c4:	e1a00004 	mov	r0, r4
    f8c8:	ebfffbe7 	bl	e86c <get_fat.part.5>
    f8cc:	e3500001 	cmp	r0, #1
    f8d0:	9affffbd 	bls	f7cc <dir_remove+0xa0>
    f8d4:	e3700001 	cmn	r0, #1
    f8d8:	0affffbe 	beq	f7d8 <dir_remove+0xac>
    f8dc:	e5974000 	ldr	r4, [r7]
    f8e0:	e5943018 	ldr	r3, [r4, #24]
    f8e4:	e1500003 	cmp	r0, r3
    f8e8:	2affffb7 	bcs	f7cc <dir_remove+0xa0>
    f8ec:	e2433002 	sub	r3, r3, #2
    f8f0:	e2402002 	sub	r2, r0, #2
    f8f4:	e1520003 	cmp	r2, r3
    f8f8:	23a06000 	movcs	r6, #0
    f8fc:	e587000c 	str	r0, [r7, #12]
    f900:	35d46002 	ldrbcc	r6, [r4, #2]
    f904:	3594302c 	ldrcc	r3, [r4, #44]	; 0x2c
    f908:	30263296 	mlacc	r6, r6, r2, r3
    f90c:	e5876010 	str	r6, [r7, #16]
    f910:	eaffffb9 	b	f7fc <dir_remove+0xd0>
    f914:	e1d430b8 	ldrh	r3, [r4, #8]
    f918:	e1530005 	cmp	r3, r5
    f91c:	9affffaa 	bls	f7cc <dir_remove+0xa0>
    f920:	eaffffb5 	b	f7fc <dir_remove+0xd0>
    f924:	0000ffff 	strdeq	pc, [r0], -pc	; <UNPREDICTABLE>

0000f928 <dir_read.constprop.13>:
    f928:	e92d4ff8 	push	{r3, r4, r5, r6, r7, r8, r9, sl, fp, lr}
    f92c:	e3a0a0ff 	mov	sl, #255	; 0xff
    f930:	e5906010 	ldr	r6, [r0, #16]
    f934:	e1a07000 	mov	r7, r0
    f938:	e3560000 	cmp	r6, #0
    f93c:	e1a0900a 	mov	r9, sl
    f940:	e3a03004 	mov	r3, #4
    f944:	0a000036 	beq	fa24 <dir_read.constprop.13+0xfc>
    f948:	e5974000 	ldr	r4, [r7]
    f94c:	e5945030 	ldr	r5, [r4, #48]	; 0x30
    f950:	e1550006 	cmp	r5, r6
    f954:	0a00000b 	beq	f988 <dir_read.constprop.13+0x60>
    f958:	e5d43004 	ldrb	r3, [r4, #4]
    f95c:	e2848034 	add	r8, r4, #52	; 0x34
    f960:	e3530000 	cmp	r3, #0
    f964:	1a000031 	bne	fa30 <dir_read.constprop.13+0x108>
    f968:	e1a01008 	mov	r1, r8
    f96c:	e5d40001 	ldrb	r0, [r4, #1]
    f970:	e1a02006 	mov	r2, r6
    f974:	e3a03001 	mov	r3, #1
    f978:	eb002130 	bl	17e40 <disk_read>
    f97c:	e3500000 	cmp	r0, #0
    f980:	1a000018 	bne	f9e8 <dir_read.constprop.13+0xc0>
    f984:	e5846030 	str	r6, [r4, #48]	; 0x30
    f988:	e5970014 	ldr	r0, [r7, #20]
    f98c:	e5d01000 	ldrb	r1, [r0]
    f990:	e3510000 	cmp	r1, #0
    f994:	0a00000f 	beq	f9d8 <dir_read.constprop.13+0xb0>
    f998:	e35100e5 	cmp	r1, #229	; 0xe5
    f99c:	1351002e 	cmpne	r1, #46	; 0x2e
    f9a0:	03a02001 	moveq	r2, #1
    f9a4:	13a02000 	movne	r2, #0
    f9a8:	e5d0300b 	ldrb	r3, [r0, #11]
    f9ac:	e203303f 	and	r3, r3, #63	; 0x3f
    f9b0:	e3530008 	cmp	r3, #8
    f9b4:	03822001 	orreq	r2, r2, #1
    f9b8:	e3520000 	cmp	r2, #0
    f9bc:	0a000039 	beq	faa8 <dir_read.constprop.13+0x180>
    f9c0:	e3a090ff 	mov	r9, #255	; 0xff
    f9c4:	e1d740b6 	ldrh	r4, [r7, #6]
    f9c8:	e2844001 	add	r4, r4, #1
    f9cc:	e6ff4074 	uxth	r4, r4
    f9d0:	e3540000 	cmp	r4, #0
    f9d4:	1a000005 	bne	f9f0 <dir_read.constprop.13+0xc8>
    f9d8:	e3a00004 	mov	r0, #4
    f9dc:	e3a03000 	mov	r3, #0
    f9e0:	e5873010 	str	r3, [r7, #16]
    f9e4:	e8bd8ff8 	pop	{r3, r4, r5, r6, r7, r8, r9, sl, fp, pc}
    f9e8:	e3a00001 	mov	r0, #1
    f9ec:	eafffffa 	b	f9dc <dir_read.constprop.13+0xb4>
    f9f0:	e5976010 	ldr	r6, [r7, #16]
    f9f4:	e3560000 	cmp	r6, #0
    f9f8:	0afffff6 	beq	f9d8 <dir_read.constprop.13+0xb0>
    f9fc:	e214500f 	ands	r5, r4, #15
    fa00:	0a000055 	beq	fb5c <dir_read.constprop.13+0x234>
    fa04:	e5972000 	ldr	r2, [r7]
    fa08:	e0822285 	add	r2, r2, r5, lsl #5
    fa0c:	e2822034 	add	r2, r2, #52	; 0x34
    fa10:	e3560000 	cmp	r6, #0
    fa14:	e3a03000 	mov	r3, #0
    fa18:	e5872014 	str	r2, [r7, #20]
    fa1c:	e1c740b6 	strh	r4, [r7, #6]
    fa20:	1affffc8 	bne	f948 <dir_read.constprop.13+0x20>
    fa24:	e2530000 	subs	r0, r3, #0
    fa28:	08bd8ff8 	popeq	{r3, r4, r5, r6, r7, r8, r9, sl, fp, pc}
    fa2c:	eaffffea 	b	f9dc <dir_read.constprop.13+0xb4>
    fa30:	e1a01008 	mov	r1, r8
    fa34:	e5d40001 	ldrb	r0, [r4, #1]
    fa38:	e1a02005 	mov	r2, r5
    fa3c:	e3a03001 	mov	r3, #1
    fa40:	eb00211c 	bl	17eb8 <disk_write>
    fa44:	e3500000 	cmp	r0, #0
    fa48:	1affffe6 	bne	f9e8 <dir_read.constprop.13+0xc0>
    fa4c:	e5942024 	ldr	r2, [r4, #36]	; 0x24
    fa50:	e5c40004 	strb	r0, [r4, #4]
    fa54:	e1550002 	cmp	r5, r2
    fa58:	3affffc2 	bcc	f968 <dir_read.constprop.13+0x40>
    fa5c:	e594301c 	ldr	r3, [r4, #28]
    fa60:	e0832002 	add	r2, r3, r2
    fa64:	e1550002 	cmp	r5, r2
    fa68:	2affffbe 	bcs	f968 <dir_read.constprop.13+0x40>
    fa6c:	e5d4b003 	ldrb	fp, [r4, #3]
    fa70:	e35b0001 	cmp	fp, #1
    fa74:	8a000001 	bhi	fa80 <dir_read.constprop.13+0x158>
    fa78:	eaffffba 	b	f968 <dir_read.constprop.13+0x40>
    fa7c:	e594301c 	ldr	r3, [r4, #28]
    fa80:	e0855003 	add	r5, r5, r3
    fa84:	e24bb001 	sub	fp, fp, #1
    fa88:	e1a02005 	mov	r2, r5
    fa8c:	e5d40001 	ldrb	r0, [r4, #1]
    fa90:	e1a01008 	mov	r1, r8
    fa94:	e3a03001 	mov	r3, #1
    fa98:	eb002106 	bl	17eb8 <disk_write>
    fa9c:	e35b0001 	cmp	fp, #1
    faa0:	1afffff5 	bne	fa7c <dir_read.constprop.13+0x154>
    faa4:	eaffffaf 	b	f968 <dir_read.constprop.13+0x40>
    faa8:	e353000f 	cmp	r3, #15
    faac:	1a00004b 	bne	fbe0 <dir_read.constprop.13+0x2b8>
    fab0:	e3110040 	tst	r1, #64	; 0x40
    fab4:	0a000025 	beq	fb50 <dir_read.constprop.13+0x228>
    fab8:	e1d730b6 	ldrh	r3, [r7, #6]
    fabc:	e5d0a00d 	ldrb	sl, [r0, #13]
    fac0:	e20190bf 	and	r9, r1, #191	; 0xbf
    fac4:	e1c732b0 	strh	r3, [r7, #32]
    fac8:	e5d0e00d 	ldrb	lr, [r0, #13]
    facc:	e15e000a 	cmp	lr, sl
    fad0:	1affffba 	bne	f9c0 <dir_read.constprop.13+0x98>
    fad4:	e5d03000 	ldrb	r3, [r0]
    fad8:	e3a04001 	mov	r4, #1
    fadc:	e203303f 	and	r3, r3, #63	; 0x3f
    fae0:	e2433001 	sub	r3, r3, #1
    fae4:	e0831083 	add	r1, r3, r3, lsl #1
    fae8:	e597501c 	ldr	r5, [r7, #28]
    faec:	e59fc224 	ldr	ip, [pc, #548]	; fd18 <dir_read.constprop.13+0x3f0>
    faf0:	e0831101 	add	r1, r3, r1, lsl #2
    faf4:	ea000007 	b	fb18 <dir_read.constprop.13+0x1f0>
    faf8:	e351003f 	cmp	r1, #63	; 0x3f
    fafc:	8a000010 	bhi	fb44 <dir_read.constprop.13+0x21c>
    fb00:	e1a04003 	mov	r4, r3
    fb04:	e18530b2 	strh	r3, [r5, r2]
    fb08:	e2811001 	add	r1, r1, #1
    fb0c:	e59f3208 	ldr	r3, [pc, #520]	; fd1c <dir_read.constprop.13+0x3f4>
    fb10:	e15c0003 	cmp	ip, r3
    fb14:	0a000025 	beq	fbb0 <dir_read.constprop.13+0x288>
    fb18:	e5fc2001 	ldrb	r2, [ip, #1]!
    fb1c:	e3540000 	cmp	r4, #0
    fb20:	e0803002 	add	r3, r0, r2
    fb24:	e5d36001 	ldrb	r6, [r3, #1]
    fb28:	e7d03002 	ldrb	r3, [r0, r2]
    fb2c:	e1a02081 	lsl	r2, r1, #1
    fb30:	e1833406 	orr	r3, r3, r6, lsl #8
    fb34:	1affffef 	bne	faf8 <dir_read.constprop.13+0x1d0>
    fb38:	e59f21e0 	ldr	r2, [pc, #480]	; fd20 <dir_read.constprop.13+0x3f8>
    fb3c:	e1530002 	cmp	r3, r2
    fb40:	0afffff1 	beq	fb0c <dir_read.constprop.13+0x1e4>
    fb44:	e1a0a00e 	mov	sl, lr
    fb48:	e3a090ff 	mov	r9, #255	; 0xff
    fb4c:	eaffff9c 	b	f9c4 <dir_read.constprop.13+0x9c>
    fb50:	e1510009 	cmp	r1, r9
    fb54:	1affff99 	bne	f9c0 <dir_read.constprop.13+0x98>
    fb58:	eaffffda 	b	fac8 <dir_read.constprop.13+0x1a0>
    fb5c:	e597100c 	ldr	r1, [r7, #12]
    fb60:	e2866001 	add	r6, r6, #1
    fb64:	e3510000 	cmp	r1, #0
    fb68:	e5876010 	str	r6, [r7, #16]
    fb6c:	e5972000 	ldr	r2, [r7]
    fb70:	1a000003 	bne	fb84 <dir_read.constprop.13+0x25c>
    fb74:	e1d230b8 	ldrh	r3, [r2, #8]
    fb78:	e1530004 	cmp	r3, r4
    fb7c:	9affff95 	bls	f9d8 <dir_read.constprop.13+0xb0>
    fb80:	eaffffa0 	b	fa08 <dir_read.constprop.13+0xe0>
    fb84:	e5d23002 	ldrb	r3, [r2, #2]
    fb88:	e2433001 	sub	r3, r3, #1
    fb8c:	e0133224 	ands	r3, r3, r4, lsr #4
    fb90:	1affff9c 	bne	fa08 <dir_read.constprop.13+0xe0>
    fb94:	e3510001 	cmp	r1, #1
    fb98:	9a000002 	bls	fba8 <dir_read.constprop.13+0x280>
    fb9c:	e5923018 	ldr	r3, [r2, #24]
    fba0:	e1510003 	cmp	r1, r3
    fba4:	3a000047 	bcc	fcc8 <dir_read.constprop.13+0x3a0>
    fba8:	e3a00002 	mov	r0, #2
    fbac:	eaffff8a 	b	f9dc <dir_read.constprop.13+0xb4>
    fbb0:	e5d03000 	ldrb	r3, [r0]
    fbb4:	e3130040 	tst	r3, #64	; 0x40
    fbb8:	0a000004 	beq	fbd0 <dir_read.constprop.13+0x2a8>
    fbbc:	e351003f 	cmp	r1, #63	; 0x3f
    fbc0:	8affffdf 	bhi	fb44 <dir_read.constprop.13+0x21c>
    fbc4:	e3a03000 	mov	r3, #0
    fbc8:	e1a01081 	lsl	r1, r1, #1
    fbcc:	e18530b1 	strh	r3, [r5, r1]
    fbd0:	e2499001 	sub	r9, r9, #1
    fbd4:	e6ef9079 	uxtb	r9, r9
    fbd8:	e1a0a00e 	mov	sl, lr
    fbdc:	eaffff78 	b	f9c4 <dir_read.constprop.13+0x9c>
    fbe0:	e3590000 	cmp	r9, #0
    fbe4:	1a000033 	bne	fcb8 <dir_read.constprop.13+0x390>
    fbe8:	e5d02001 	ldrb	r2, [r0, #1]
    fbec:	e1a03381 	lsl	r3, r1, #7
    fbf0:	e18310a1 	orr	r1, r3, r1, lsr #1
    fbf4:	e0813002 	add	r3, r1, r2
    fbf8:	e6ef1073 	uxtb	r1, r3
    fbfc:	e5d02002 	ldrb	r2, [r0, #2]
    fc00:	e1a03383 	lsl	r3, r3, #7
    fc04:	e18330a1 	orr	r3, r3, r1, lsr #1
    fc08:	e6e23073 	uxtab	r3, r2, r3
    fc0c:	e6ef1073 	uxtb	r1, r3
    fc10:	e5d02003 	ldrb	r2, [r0, #3]
    fc14:	e1a03383 	lsl	r3, r3, #7
    fc18:	e18330a1 	orr	r3, r3, r1, lsr #1
    fc1c:	e6e23073 	uxtab	r3, r2, r3
    fc20:	e6ef1073 	uxtb	r1, r3
    fc24:	e5d02004 	ldrb	r2, [r0, #4]
    fc28:	e1a03383 	lsl	r3, r3, #7
    fc2c:	e18330a1 	orr	r3, r3, r1, lsr #1
    fc30:	e6e23073 	uxtab	r3, r2, r3
    fc34:	e6ef1073 	uxtb	r1, r3
    fc38:	e5d02005 	ldrb	r2, [r0, #5]
    fc3c:	e1a03383 	lsl	r3, r3, #7
    fc40:	e18330a1 	orr	r3, r3, r1, lsr #1
    fc44:	e6e23073 	uxtab	r3, r2, r3
    fc48:	e6ef1073 	uxtb	r1, r3
    fc4c:	e5d02006 	ldrb	r2, [r0, #6]
    fc50:	e1a03383 	lsl	r3, r3, #7
    fc54:	e18330a1 	orr	r3, r3, r1, lsr #1
    fc58:	e6e23073 	uxtab	r3, r2, r3
    fc5c:	e6ef1073 	uxtb	r1, r3
    fc60:	e5d02007 	ldrb	r2, [r0, #7]
    fc64:	e1a03383 	lsl	r3, r3, #7
    fc68:	e18330a1 	orr	r3, r3, r1, lsr #1
    fc6c:	e6e23073 	uxtab	r3, r2, r3
    fc70:	e6ef1073 	uxtb	r1, r3
    fc74:	e5d02008 	ldrb	r2, [r0, #8]
    fc78:	e1a03383 	lsl	r3, r3, #7
    fc7c:	e18330a1 	orr	r3, r3, r1, lsr #1
    fc80:	e6e23073 	uxtab	r3, r2, r3
    fc84:	e6ef1073 	uxtb	r1, r3
    fc88:	e5d02009 	ldrb	r2, [r0, #9]
    fc8c:	e1a03383 	lsl	r3, r3, #7
    fc90:	e18330a1 	orr	r3, r3, r1, lsr #1
    fc94:	e6e23073 	uxtab	r3, r2, r3
    fc98:	e5d0100a 	ldrb	r1, [r0, #10]
    fc9c:	e1a02383 	lsl	r2, r3, #7
    fca0:	e6ef0073 	uxtb	r0, r3
    fca4:	e18230a0 	orr	r3, r2, r0, lsr #1
    fca8:	e6e13073 	uxtab	r3, r1, r3
    fcac:	e6ef3073 	uxtb	r3, r3
    fcb0:	e153000a 	cmp	r3, sl
    fcb4:	0a000001 	beq	fcc0 <dir_read.constprop.13+0x398>
    fcb8:	e3e03000 	mvn	r3, #0
    fcbc:	e1c732b0 	strh	r3, [r7, #32]
    fcc0:	e3a00000 	mov	r0, #0
    fcc4:	e8bd8ff8 	pop	{r3, r4, r5, r6, r7, r8, r9, sl, fp, pc}
    fcc8:	e1a00002 	mov	r0, r2
    fccc:	ebfffae6 	bl	e86c <get_fat.part.5>
    fcd0:	e3500001 	cmp	r0, #1
    fcd4:	9affffb3 	bls	fba8 <dir_read.constprop.13+0x280>
    fcd8:	e3700001 	cmn	r0, #1
    fcdc:	0affff41 	beq	f9e8 <dir_read.constprop.13+0xc0>
    fce0:	e5972000 	ldr	r2, [r7]
    fce4:	e5923018 	ldr	r3, [r2, #24]
    fce8:	e1500003 	cmp	r0, r3
    fcec:	2affff39 	bcs	f9d8 <dir_read.constprop.13+0xb0>
    fcf0:	e2433002 	sub	r3, r3, #2
    fcf4:	e2401002 	sub	r1, r0, #2
    fcf8:	e1510003 	cmp	r1, r3
    fcfc:	23a06000 	movcs	r6, #0
    fd00:	e587000c 	str	r0, [r7, #12]
    fd04:	35d26002 	ldrbcc	r6, [r2, #2]
    fd08:	3592302c 	ldrcc	r3, [r2, #44]	; 0x2c
    fd0c:	30263196 	mlacc	r6, r6, r1, r3
    fd10:	e5876010 	str	r6, [r7, #16]
    fd14:	eaffff3b 	b	fa08 <dir_read.constprop.13+0xe0>
    fd18:	0001da1f 	andeq	sp, r1, pc, lsl sl
    fd1c:	0001da2c 	andeq	sp, r1, ip, lsr #20
    fd20:	0000ffff 	strdeq	pc, [r0], -pc	; <UNPREDICTABLE>

0000fd24 <dir_find.part.7>:
    fd24:	e3a030ff 	mov	r3, #255	; 0xff
    fd28:	e92d4ff0 	push	{r4, r5, r6, r7, r8, r9, sl, fp, lr}
    fd2c:	e1a06000 	mov	r6, r0
    fd30:	e1a09003 	mov	r9, r3
    fd34:	e3e0a000 	mvn	sl, #0
    fd38:	e24dd00c 	sub	sp, sp, #12
    fd3c:	e5904000 	ldr	r4, [r0]
    fd40:	e5907010 	ldr	r7, [r0, #16]
    fd44:	e58d3004 	str	r3, [sp, #4]
    fd48:	e5948030 	ldr	r8, [r4, #48]	; 0x30
    fd4c:	e1580007 	cmp	r8, r7
    fd50:	0a00000b 	beq	fd84 <dir_find.part.7+0x60>
    fd54:	e5d43004 	ldrb	r3, [r4, #4]
    fd58:	e284b034 	add	fp, r4, #52	; 0x34
    fd5c:	e3530000 	cmp	r3, #0
    fd60:	1a000096 	bne	ffc0 <dir_find.part.7+0x29c>
    fd64:	e1a0100b 	mov	r1, fp
    fd68:	e5d40001 	ldrb	r0, [r4, #1]
    fd6c:	e1a02007 	mov	r2, r7
    fd70:	e3a03001 	mov	r3, #1
    fd74:	eb002031 	bl	17e40 <disk_read>
    fd78:	e3500000 	cmp	r0, #0
    fd7c:	1a000082 	bne	ff8c <dir_find.part.7+0x268>
    fd80:	e5847030 	str	r7, [r4, #48]	; 0x30
    fd84:	e5964014 	ldr	r4, [r6, #20]
    fd88:	e5d43000 	ldrb	r3, [r4]
    fd8c:	e3530000 	cmp	r3, #0
    fd90:	0a00000d 	beq	fdcc <dir_find.part.7+0xa8>
    fd94:	e5d4200b 	ldrb	r2, [r4, #11]
    fd98:	e35300e5 	cmp	r3, #229	; 0xe5
    fd9c:	e202103f 	and	r1, r2, #63	; 0x3f
    fda0:	0a000003 	beq	fdb4 <dir_find.part.7+0x90>
    fda4:	e3120008 	tst	r2, #8
    fda8:	0a00000a 	beq	fdd8 <dir_find.part.7+0xb4>
    fdac:	e351000f 	cmp	r1, #15
    fdb0:	0a0000a0 	beq	10038 <dir_find.part.7+0x314>
    fdb4:	e3a090ff 	mov	r9, #255	; 0xff
    fdb8:	e1d680b6 	ldrh	r8, [r6, #6]
    fdbc:	e2888001 	add	r8, r8, #1
    fdc0:	e6ff8078 	uxth	r8, r8
    fdc4:	e3580000 	cmp	r8, #0
    fdc8:	1a000071 	bne	ff94 <dir_find.part.7+0x270>
    fdcc:	e3a00004 	mov	r0, #4
    fdd0:	e28dd00c 	add	sp, sp, #12
    fdd4:	e8bd8ff0 	pop	{r4, r5, r6, r7, r8, r9, sl, fp, pc}
    fdd8:	e351000f 	cmp	r1, #15
    fddc:	0a000095 	beq	10038 <dir_find.part.7+0x314>
    fde0:	e3590000 	cmp	r9, #0
    fde4:	1a000034 	bne	febc <dir_find.part.7+0x198>
    fde8:	e1a01383 	lsl	r1, r3, #7
    fdec:	e5d42001 	ldrb	r2, [r4, #1]
    fdf0:	e18130a3 	orr	r3, r1, r3, lsr #1
    fdf4:	e0833002 	add	r3, r3, r2
    fdf8:	e6ef2073 	uxtb	r2, r3
    fdfc:	e5d41002 	ldrb	r1, [r4, #2]
    fe00:	e1a03383 	lsl	r3, r3, #7
    fe04:	e18330a2 	orr	r3, r3, r2, lsr #1
    fe08:	e6e12073 	uxtab	r2, r1, r3
    fe0c:	e6ef3072 	uxtb	r3, r2
    fe10:	e5d41003 	ldrb	r1, [r4, #3]
    fe14:	e1a02382 	lsl	r2, r2, #7
    fe18:	e18220a3 	orr	r2, r2, r3, lsr #1
    fe1c:	e6e13072 	uxtab	r3, r1, r2
    fe20:	e6ef2073 	uxtb	r2, r3
    fe24:	e5d41004 	ldrb	r1, [r4, #4]
    fe28:	e1a03383 	lsl	r3, r3, #7
    fe2c:	e18330a2 	orr	r3, r3, r2, lsr #1
    fe30:	e6e12073 	uxtab	r2, r1, r3
    fe34:	e6ef3072 	uxtb	r3, r2
    fe38:	e5d41005 	ldrb	r1, [r4, #5]
    fe3c:	e1a02382 	lsl	r2, r2, #7
    fe40:	e18220a3 	orr	r2, r2, r3, lsr #1
    fe44:	e6e13072 	uxtab	r3, r1, r2
    fe48:	e6ef2073 	uxtb	r2, r3
    fe4c:	e5d41006 	ldrb	r1, [r4, #6]
    fe50:	e1a03383 	lsl	r3, r3, #7
    fe54:	e18330a2 	orr	r3, r3, r2, lsr #1
    fe58:	e6e12073 	uxtab	r2, r1, r3
    fe5c:	e6ef3072 	uxtb	r3, r2
    fe60:	e5d41007 	ldrb	r1, [r4, #7]
    fe64:	e1a02382 	lsl	r2, r2, #7
    fe68:	e18220a3 	orr	r2, r2, r3, lsr #1
    fe6c:	e6e13072 	uxtab	r3, r1, r2
    fe70:	e6ef2073 	uxtb	r2, r3
    fe74:	e5d41008 	ldrb	r1, [r4, #8]
    fe78:	e1a03383 	lsl	r3, r3, #7
    fe7c:	e18330a2 	orr	r3, r3, r2, lsr #1
    fe80:	e6e12073 	uxtab	r2, r1, r3
    fe84:	e6ef3072 	uxtb	r3, r2
    fe88:	e5d41009 	ldrb	r1, [r4, #9]
    fe8c:	e1a02382 	lsl	r2, r2, #7
    fe90:	e18220a3 	orr	r2, r2, r3, lsr #1
    fe94:	e6e13072 	uxtab	r3, r1, r2
    fe98:	e1a02383 	lsl	r2, r3, #7
    fe9c:	e6ef0073 	uxtb	r0, r3
    fea0:	e5d4100a 	ldrb	r1, [r4, #10]
    fea4:	e18230a0 	orr	r3, r2, r0, lsr #1
    fea8:	e6e13073 	uxtab	r3, r1, r3
    feac:	e59d2004 	ldr	r2, [sp, #4]
    feb0:	e6ef3073 	uxtb	r3, r3
    feb4:	e1530002 	cmp	r3, r2
    feb8:	0a000030 	beq	ff80 <dir_find.part.7+0x25c>
    febc:	e5963018 	ldr	r3, [r6, #24]
    fec0:	e1c6a2b0 	strh	sl, [r6, #32]
    fec4:	e5d3200b 	ldrb	r2, [r3, #11]
    fec8:	e3120001 	tst	r2, #1
    fecc:	1affffb8 	bne	fdb4 <dir_find.part.7+0x90>
    fed0:	e5d31000 	ldrb	r1, [r3]
    fed4:	e5d42000 	ldrb	r2, [r4]
    fed8:	e1510002 	cmp	r1, r2
    fedc:	1affffb4 	bne	fdb4 <dir_find.part.7+0x90>
    fee0:	e5d41001 	ldrb	r1, [r4, #1]
    fee4:	e5d32001 	ldrb	r2, [r3, #1]
    fee8:	e1510002 	cmp	r1, r2
    feec:	1affffb0 	bne	fdb4 <dir_find.part.7+0x90>
    fef0:	e5d41002 	ldrb	r1, [r4, #2]
    fef4:	e5d32002 	ldrb	r2, [r3, #2]
    fef8:	e1510002 	cmp	r1, r2
    fefc:	1affffac 	bne	fdb4 <dir_find.part.7+0x90>
    ff00:	e5d41003 	ldrb	r1, [r4, #3]
    ff04:	e5d32003 	ldrb	r2, [r3, #3]
    ff08:	e1510002 	cmp	r1, r2
    ff0c:	1affffa8 	bne	fdb4 <dir_find.part.7+0x90>
    ff10:	e5d41004 	ldrb	r1, [r4, #4]
    ff14:	e5d32004 	ldrb	r2, [r3, #4]
    ff18:	e1510002 	cmp	r1, r2
    ff1c:	1affffa4 	bne	fdb4 <dir_find.part.7+0x90>
    ff20:	e5d41005 	ldrb	r1, [r4, #5]
    ff24:	e5d32005 	ldrb	r2, [r3, #5]
    ff28:	e1510002 	cmp	r1, r2
    ff2c:	1affffa0 	bne	fdb4 <dir_find.part.7+0x90>
    ff30:	e5d41006 	ldrb	r1, [r4, #6]
    ff34:	e5d32006 	ldrb	r2, [r3, #6]
    ff38:	e1510002 	cmp	r1, r2
    ff3c:	1affff9c 	bne	fdb4 <dir_find.part.7+0x90>
    ff40:	e5d41007 	ldrb	r1, [r4, #7]
    ff44:	e5d32007 	ldrb	r2, [r3, #7]
    ff48:	e1510002 	cmp	r1, r2
    ff4c:	1affff98 	bne	fdb4 <dir_find.part.7+0x90>
    ff50:	e5d41008 	ldrb	r1, [r4, #8]
    ff54:	e5d32008 	ldrb	r2, [r3, #8]
    ff58:	e1510002 	cmp	r1, r2
    ff5c:	1affff94 	bne	fdb4 <dir_find.part.7+0x90>
    ff60:	e5d41009 	ldrb	r1, [r4, #9]
    ff64:	e5d32009 	ldrb	r2, [r3, #9]
    ff68:	e1510002 	cmp	r1, r2
    ff6c:	1affff90 	bne	fdb4 <dir_find.part.7+0x90>
    ff70:	e5d4200a 	ldrb	r2, [r4, #10]
    ff74:	e5d3300a 	ldrb	r3, [r3, #10]
    ff78:	e1520003 	cmp	r2, r3
    ff7c:	1affff8c 	bne	fdb4 <dir_find.part.7+0x90>
    ff80:	e3a00000 	mov	r0, #0
    ff84:	e28dd00c 	add	sp, sp, #12
    ff88:	e8bd8ff0 	pop	{r4, r5, r6, r7, r8, r9, sl, fp, pc}
    ff8c:	e3a00001 	mov	r0, #1
    ff90:	eaffff8e 	b	fdd0 <dir_find.part.7+0xac>
    ff94:	e5967010 	ldr	r7, [r6, #16]
    ff98:	e3570000 	cmp	r7, #0
    ff9c:	0affff8a 	beq	fdcc <dir_find.part.7+0xa8>
    ffa0:	e218b00f 	ands	fp, r8, #15
    ffa4:	0a000056 	beq	10104 <dir_find.part.7+0x3e0>
    ffa8:	e5964000 	ldr	r4, [r6]
    ffac:	e084b28b 	add	fp, r4, fp, lsl #5
    ffb0:	e28bb034 	add	fp, fp, #52	; 0x34
    ffb4:	e586b014 	str	fp, [r6, #20]
    ffb8:	e1c680b6 	strh	r8, [r6, #6]
    ffbc:	eaffff61 	b	fd48 <dir_find.part.7+0x24>
    ffc0:	e1a0100b 	mov	r1, fp
    ffc4:	e5d40001 	ldrb	r0, [r4, #1]
    ffc8:	e1a02008 	mov	r2, r8
    ffcc:	e3a03001 	mov	r3, #1
    ffd0:	eb001fb8 	bl	17eb8 <disk_write>
    ffd4:	e3500000 	cmp	r0, #0
    ffd8:	1affffeb 	bne	ff8c <dir_find.part.7+0x268>
    ffdc:	e5942024 	ldr	r2, [r4, #36]	; 0x24
    ffe0:	e5c40004 	strb	r0, [r4, #4]
    ffe4:	e1580002 	cmp	r8, r2
    ffe8:	3affff5d 	bcc	fd64 <dir_find.part.7+0x40>
    ffec:	e594301c 	ldr	r3, [r4, #28]
    fff0:	e0832002 	add	r2, r3, r2
    fff4:	e1580002 	cmp	r8, r2
    fff8:	2affff59 	bcs	fd64 <dir_find.part.7+0x40>
    fffc:	e5d45003 	ldrb	r5, [r4, #3]
   10000:	e3550001 	cmp	r5, #1
   10004:	8a000001 	bhi	10010 <dir_find.part.7+0x2ec>
   10008:	eaffff55 	b	fd64 <dir_find.part.7+0x40>
   1000c:	e594301c 	ldr	r3, [r4, #28]
   10010:	e0888003 	add	r8, r8, r3
   10014:	e2455001 	sub	r5, r5, #1
   10018:	e1a02008 	mov	r2, r8
   1001c:	e5d40001 	ldrb	r0, [r4, #1]
   10020:	e1a0100b 	mov	r1, fp
   10024:	e3a03001 	mov	r3, #1
   10028:	eb001fa2 	bl	17eb8 <disk_write>
   1002c:	e3550001 	cmp	r5, #1
   10030:	1afffff5 	bne	1000c <dir_find.part.7+0x2e8>
   10034:	eaffff4a 	b	fd64 <dir_find.part.7+0x40>
   10038:	e596701c 	ldr	r7, [r6, #28]
   1003c:	e3570000 	cmp	r7, #0
   10040:	0affff5c 	beq	fdb8 <dir_find.part.7+0x94>
   10044:	e3130040 	tst	r3, #64	; 0x40
   10048:	0a00002a 	beq	100f8 <dir_find.part.7+0x3d4>
   1004c:	e1d620b6 	ldrh	r2, [r6, #6]
   10050:	e20390bf 	and	r9, r3, #191	; 0xbf
   10054:	e5d4300d 	ldrb	r3, [r4, #13]
   10058:	e1c622b0 	strh	r2, [r6, #32]
   1005c:	e58d3004 	str	r3, [sp, #4]
   10060:	e5d4800d 	ldrb	r8, [r4, #13]
   10064:	e59d3004 	ldr	r3, [sp, #4]
   10068:	e1580003 	cmp	r8, r3
   1006c:	1affff50 	bne	fdb4 <dir_find.part.7+0x90>
   10070:	e5d43000 	ldrb	r3, [r4]
   10074:	e3a00001 	mov	r0, #1
   10078:	e3c33040 	bic	r3, r3, #64	; 0x40
   1007c:	e2433001 	sub	r3, r3, #1
   10080:	e083b083 	add	fp, r3, r3, lsl #1
   10084:	e59f5168 	ldr	r5, [pc, #360]	; 101f4 <dir_find.part.7+0x4d0>
   10088:	e083b10b 	add	fp, r3, fp, lsl #2
   1008c:	e58d9004 	str	r9, [sp, #4]
   10090:	ea000005 	b	100ac <dir_find.part.7+0x388>
   10094:	e59f215c 	ldr	r2, [pc, #348]	; 101f8 <dir_find.part.7+0x4d4>
   10098:	e1530002 	cmp	r3, r2
   1009c:	1a000039 	bne	10188 <dir_find.part.7+0x464>
   100a0:	e59f3154 	ldr	r3, [pc, #340]	; 101fc <dir_find.part.7+0x4d8>
   100a4:	e1550003 	cmp	r5, r3
   100a8:	0a00002a 	beq	10158 <dir_find.part.7+0x434>
   100ac:	e5f52001 	ldrb	r2, [r5, #1]!
   100b0:	e3500000 	cmp	r0, #0
   100b4:	e0843002 	add	r3, r4, r2
   100b8:	e5d31001 	ldrb	r1, [r3, #1]
   100bc:	e7d43002 	ldrb	r3, [r4, r2]
   100c0:	e1833401 	orr	r3, r3, r1, lsl #8
   100c4:	0afffff2 	beq	10094 <dir_find.part.7+0x370>
   100c8:	e1a00003 	mov	r0, r3
   100cc:	eb001f3a 	bl	17dbc <ff_wtoupper>
   100d0:	e35b003f 	cmp	fp, #63	; 0x3f
   100d4:	e1a09000 	mov	r9, r0
   100d8:	e1a0208b 	lsl	r2, fp, #1
   100dc:	8a000029 	bhi	10188 <dir_find.part.7+0x464>
   100e0:	e19700b2 	ldrh	r0, [r7, r2]
   100e4:	eb001f34 	bl	17dbc <ff_wtoupper>
   100e8:	e1590000 	cmp	r9, r0
   100ec:	e28bb001 	add	fp, fp, #1
   100f0:	0affffea 	beq	100a0 <dir_find.part.7+0x37c>
   100f4:	ea000023 	b	10188 <dir_find.part.7+0x464>
   100f8:	e1530009 	cmp	r3, r9
   100fc:	1affff2c 	bne	fdb4 <dir_find.part.7+0x90>
   10100:	eaffffd6 	b	10060 <dir_find.part.7+0x33c>
   10104:	e596100c 	ldr	r1, [r6, #12]
   10108:	e2877001 	add	r7, r7, #1
   1010c:	e3510000 	cmp	r1, #0
   10110:	e5867010 	str	r7, [r6, #16]
   10114:	e5964000 	ldr	r4, [r6]
   10118:	1a000003 	bne	1012c <dir_find.part.7+0x408>
   1011c:	e1d430b8 	ldrh	r3, [r4, #8]
   10120:	e1530008 	cmp	r3, r8
   10124:	9affff28 	bls	fdcc <dir_find.part.7+0xa8>
   10128:	eaffff9f 	b	ffac <dir_find.part.7+0x288>
   1012c:	e5d43002 	ldrb	r3, [r4, #2]
   10130:	e2433001 	sub	r3, r3, #1
   10134:	e0133228 	ands	r3, r3, r8, lsr #4
   10138:	1affff9b 	bne	ffac <dir_find.part.7+0x288>
   1013c:	e3510001 	cmp	r1, #1
   10140:	9a000002 	bls	10150 <dir_find.part.7+0x42c>
   10144:	e5943018 	ldr	r3, [r4, #24]
   10148:	e1510003 	cmp	r1, r3
   1014c:	3a000014 	bcc	101a4 <dir_find.part.7+0x480>
   10150:	e3a00002 	mov	r0, #2
   10154:	eaffff1d 	b	fdd0 <dir_find.part.7+0xac>
   10158:	e5d43000 	ldrb	r3, [r4]
   1015c:	e59d9004 	ldr	r9, [sp, #4]
   10160:	e1a03323 	lsr	r3, r3, #6
   10164:	e3500000 	cmp	r0, #0
   10168:	03a01000 	moveq	r1, #0
   1016c:	12031001 	andne	r1, r3, #1
   10170:	e3510000 	cmp	r1, #0
   10174:	0a000006 	beq	10194 <dir_find.part.7+0x470>
   10178:	e1a0b08b 	lsl	fp, fp, #1
   1017c:	e19730bb 	ldrh	r3, [r7, fp]
   10180:	e3530000 	cmp	r3, #0
   10184:	0a000002 	beq	10194 <dir_find.part.7+0x470>
   10188:	e58d8004 	str	r8, [sp, #4]
   1018c:	e3a090ff 	mov	r9, #255	; 0xff
   10190:	eaffff08 	b	fdb8 <dir_find.part.7+0x94>
   10194:	e2499001 	sub	r9, r9, #1
   10198:	e6ef9079 	uxtb	r9, r9
   1019c:	e58d8004 	str	r8, [sp, #4]
   101a0:	eaffff04 	b	fdb8 <dir_find.part.7+0x94>
   101a4:	e1a00004 	mov	r0, r4
   101a8:	ebfff9af 	bl	e86c <get_fat.part.5>
   101ac:	e3500001 	cmp	r0, #1
   101b0:	9affffe6 	bls	10150 <dir_find.part.7+0x42c>
   101b4:	e3700001 	cmn	r0, #1
   101b8:	0affff73 	beq	ff8c <dir_find.part.7+0x268>
   101bc:	e5964000 	ldr	r4, [r6]
   101c0:	e5943018 	ldr	r3, [r4, #24]
   101c4:	e1500003 	cmp	r0, r3
   101c8:	2afffeff 	bcs	fdcc <dir_find.part.7+0xa8>
   101cc:	e2433002 	sub	r3, r3, #2
   101d0:	e2402002 	sub	r2, r0, #2
   101d4:	e1520003 	cmp	r2, r3
   101d8:	23a07000 	movcs	r7, #0
   101dc:	e586000c 	str	r0, [r6, #12]
   101e0:	35d47002 	ldrbcc	r7, [r4, #2]
   101e4:	3594302c 	ldrcc	r3, [r4, #44]	; 0x2c
   101e8:	30273297 	mlacc	r7, r7, r2, r3
   101ec:	e5867010 	str	r7, [r6, #16]
   101f0:	eaffff6d 	b	ffac <dir_find.part.7+0x288>
   101f4:	0001da1f 	andeq	sp, r1, pc, lsl sl
   101f8:	0000ffff 	strdeq	pc, [r0], -pc	; <UNPREDICTABLE>
   101fc:	0001da2c 	andeq	sp, r1, ip, lsr #20

00010200 <dir_register>:
   10200:	e92d4ff0 	push	{r4, r5, r6, r7, r8, r9, sl, fp, lr}
   10204:	e5904018 	ldr	r4, [r0, #24]
   10208:	e24dd044 	sub	sp, sp, #68	; 0x44
   1020c:	e3140003 	tst	r4, #3
   10210:	e1a05000 	mov	r5, r0
   10214:	e590701c 	ldr	r7, [r0, #28]
   10218:	1a000193 	bne	1086c <dir_register+0x66c>
   1021c:	e894000e 	ldm	r4, {r1, r2, r3}
   10220:	e58d1034 	str	r1, [sp, #52]	; 0x34
   10224:	e58d2038 	str	r2, [sp, #56]	; 0x38
   10228:	e58d303c 	str	r3, [sp, #60]	; 0x3c
   1022c:	e5dd303f 	ldrb	r3, [sp, #63]	; 0x3f
   10230:	e3130001 	tst	r3, #1
   10234:	e58d3024 	str	r3, [sp, #36]	; 0x24
   10238:	0a0000fb 	beq	1062c <dir_register+0x42c>
   1023c:	e3a03000 	mov	r3, #0
   10240:	e3a0b001 	mov	fp, #1
   10244:	e3a0607e 	mov	r6, #126	; 0x7e
   10248:	e5c4300b 	strb	r3, [r4, #11]
   1024c:	e585301c 	str	r3, [r5, #28]
   10250:	e5dd3037 	ldrb	r3, [sp, #55]	; 0x37
   10254:	e5dda034 	ldrb	sl, [sp, #52]	; 0x34
   10258:	e58d3020 	str	r3, [sp, #32]
   1025c:	e5dd3038 	ldrb	r3, [sp, #56]	; 0x38
   10260:	e5dd9035 	ldrb	r9, [sp, #53]	; 0x35
   10264:	e58d3004 	str	r3, [sp, #4]
   10268:	e5dd3039 	ldrb	r3, [sp, #57]	; 0x39
   1026c:	e5dd8036 	ldrb	r8, [sp, #54]	; 0x36
   10270:	e58d3008 	str	r3, [sp, #8]
   10274:	e5dd303a 	ldrb	r3, [sp, #58]	; 0x3a
   10278:	e58d3018 	str	r3, [sp, #24]
   1027c:	e5dd303b 	ldrb	r3, [sp, #59]	; 0x3b
   10280:	e58d301c 	str	r3, [sp, #28]
   10284:	e5dd303c 	ldrb	r3, [sp, #60]	; 0x3c
   10288:	e58d3010 	str	r3, [sp, #16]
   1028c:	e5dd303d 	ldrb	r3, [sp, #61]	; 0x3d
   10290:	e58d3014 	str	r3, [sp, #20]
   10294:	e5dd303e 	ldrb	r3, [sp, #62]	; 0x3e
   10298:	e58d300c 	str	r3, [sp, #12]
   1029c:	e5dd3020 	ldrb	r3, [sp, #32]
   102a0:	e35b0005 	cmp	fp, #5
   102a4:	e5c43003 	strb	r3, [r4, #3]
   102a8:	e5dd3004 	ldrb	r3, [sp, #4]
   102ac:	e5c4a000 	strb	sl, [r4]
   102b0:	e5c43004 	strb	r3, [r4, #4]
   102b4:	e5dd3008 	ldrb	r3, [sp, #8]
   102b8:	e5c49001 	strb	r9, [r4, #1]
   102bc:	e5c43005 	strb	r3, [r4, #5]
   102c0:	e5dd3018 	ldrb	r3, [sp, #24]
   102c4:	e5c48002 	strb	r8, [r4, #2]
   102c8:	e5c43006 	strb	r3, [r4, #6]
   102cc:	e5dd301c 	ldrb	r3, [sp, #28]
   102d0:	e5c43007 	strb	r3, [r4, #7]
   102d4:	e5dd3010 	ldrb	r3, [sp, #16]
   102d8:	e5c43008 	strb	r3, [r4, #8]
   102dc:	e5dd3014 	ldrb	r3, [sp, #20]
   102e0:	e5c43009 	strb	r3, [r4, #9]
   102e4:	e5dd300c 	ldrb	r3, [sp, #12]
   102e8:	e5c4300a 	strb	r3, [r4, #10]
   102ec:	91a0300b 	movls	r3, fp
   102f0:	9a000009 	bls	1031c <dir_register+0x11c>
   102f4:	e1a0300b 	mov	r3, fp
   102f8:	e1a01007 	mov	r1, r7
   102fc:	e1d720b0 	ldrh	r2, [r7]
   10300:	e1a00783 	lsl	r0, r3, #15
   10304:	e18030a3 	orr	r3, r0, r3, lsr #1
   10308:	e6f23073 	uxtah	r3, r2, r3
   1030c:	e1f120b2 	ldrh	r2, [r1, #2]!
   10310:	e6ff3073 	uxth	r3, r3
   10314:	e3520000 	cmp	r2, #0
   10318:	1afffff8 	bne	10300 <dir_register+0x100>
   1031c:	e203100f 	and	r1, r3, #15
   10320:	e2812030 	add	r2, r1, #48	; 0x30
   10324:	e1a03223 	lsr	r3, r3, #4
   10328:	e3520039 	cmp	r2, #57	; 0x39
   1032c:	e6ff3073 	uxth	r3, r3
   10330:	82812037 	addhi	r2, r1, #55	; 0x37
   10334:	e3530000 	cmp	r3, #0
   10338:	e5cd2033 	strb	r2, [sp, #51]	; 0x33
   1033c:	0a0000b1 	beq	10608 <dir_register+0x408>
   10340:	e203100f 	and	r1, r3, #15
   10344:	e2812030 	add	r2, r1, #48	; 0x30
   10348:	e3520039 	cmp	r2, #57	; 0x39
   1034c:	82812037 	addhi	r2, r1, #55	; 0x37
   10350:	e1b03223 	lsrs	r3, r3, #4
   10354:	e5cd2032 	strb	r2, [sp, #50]	; 0x32
   10358:	0a0000a7 	beq	105fc <dir_register+0x3fc>
   1035c:	e203100f 	and	r1, r3, #15
   10360:	e2812030 	add	r2, r1, #48	; 0x30
   10364:	e3520039 	cmp	r2, #57	; 0x39
   10368:	82812037 	addhi	r2, r1, #55	; 0x37
   1036c:	e1b03223 	lsrs	r3, r3, #4
   10370:	e5cd2031 	strb	r2, [sp, #49]	; 0x31
   10374:	0a00009d 	beq	105f0 <dir_register+0x3f0>
   10378:	e6ef3073 	uxtb	r3, r3
   1037c:	e2832030 	add	r2, r3, #48	; 0x30
   10380:	e6ef2072 	uxtb	r2, r2
   10384:	e3520039 	cmp	r2, #57	; 0x39
   10388:	82833037 	addhi	r3, r3, #55	; 0x37
   1038c:	86ef2073 	uxtbhi	r2, r3
   10390:	e3a00004 	mov	r0, #4
   10394:	e3a03003 	mov	r3, #3
   10398:	e5cd2030 	strb	r2, [sp, #48]	; 0x30
   1039c:	e5d42000 	ldrb	r2, [r4]
   103a0:	e3520020 	cmp	r2, #32
   103a4:	e28d2040 	add	r2, sp, #64	; 0x40
   103a8:	e0822003 	add	r2, r2, r3
   103ac:	e5426014 	strb	r6, [r2, #-20]	; 0xffffffec
   103b0:	01a01004 	moveq	r1, r4
   103b4:	03a02000 	moveq	r2, #0
   103b8:	01a0c004 	moveq	ip, r4
   103bc:	0a00001f 	beq	10440 <dir_register+0x240>
   103c0:	e5d42001 	ldrb	r2, [r4, #1]
   103c4:	e2841001 	add	r1, r4, #1
   103c8:	e3520020 	cmp	r2, #32
   103cc:	0a00010f 	beq	10810 <dir_register+0x610>
   103d0:	e5d42002 	ldrb	r2, [r4, #2]
   103d4:	e2841002 	add	r1, r4, #2
   103d8:	e3520020 	cmp	r2, #32
   103dc:	0a000108 	beq	10804 <dir_register+0x604>
   103e0:	e3530003 	cmp	r3, #3
   103e4:	0a000012 	beq	10434 <dir_register+0x234>
   103e8:	e5d42003 	ldrb	r2, [r4, #3]
   103ec:	e2841003 	add	r1, r4, #3
   103f0:	e3520020 	cmp	r2, #32
   103f4:	0a0000ff 	beq	107f8 <dir_register+0x5f8>
   103f8:	e3530004 	cmp	r3, #4
   103fc:	0a00000c 	beq	10434 <dir_register+0x234>
   10400:	e5d42004 	ldrb	r2, [r4, #4]
   10404:	e2841004 	add	r1, r4, #4
   10408:	e3520020 	cmp	r2, #32
   1040c:	0a000102 	beq	1081c <dir_register+0x61c>
   10410:	e3530006 	cmp	r3, #6
   10414:	13a02005 	movne	r2, #5
   10418:	1a000006 	bne	10438 <dir_register+0x238>
   1041c:	e5d42005 	ldrb	r2, [r4, #5]
   10420:	e2841005 	add	r1, r4, #5
   10424:	e3520020 	cmp	r2, #32
   10428:	03a02005 	moveq	r2, #5
   1042c:	01a0c001 	moveq	ip, r1
   10430:	0a000002 	beq	10440 <dir_register+0x240>
   10434:	e1a02003 	mov	r2, r3
   10438:	e084c002 	add	ip, r4, r2
   1043c:	e1a0100c 	mov	r1, ip
   10440:	e28de040 	add	lr, sp, #64	; 0x40
   10444:	e08e0000 	add	r0, lr, r0
   10448:	e550e014 	ldrb	lr, [r0, #-20]	; 0xffffffec
   1044c:	e2820002 	add	r0, r2, #2
   10450:	e3500008 	cmp	r0, #8
   10454:	e5c16000 	strb	r6, [r1]
   10458:	e5cce001 	strb	lr, [ip, #1]
   1045c:	e283c002 	add	ip, r3, #2
   10460:	0a000034 	beq	10538 <dir_register+0x338>
   10464:	e35c0008 	cmp	ip, #8
   10468:	e2821003 	add	r1, r2, #3
   1046c:	0a000041 	beq	10578 <dir_register+0x378>
   10470:	e28de040 	add	lr, sp, #64	; 0x40
   10474:	e08ec00c 	add	ip, lr, ip
   10478:	e55cc014 	ldrb	ip, [ip, #-20]	; 0xffffffec
   1047c:	e3510008 	cmp	r1, #8
   10480:	e7c4c000 	strb	ip, [r4, r0]
   10484:	e283c003 	add	ip, r3, #3
   10488:	0a00002a 	beq	10538 <dir_register+0x338>
   1048c:	e35c0008 	cmp	ip, #8
   10490:	e2820004 	add	r0, r2, #4
   10494:	e084e001 	add	lr, r4, r1
   10498:	0a00003c 	beq	10590 <dir_register+0x390>
   1049c:	e28de040 	add	lr, sp, #64	; 0x40
   104a0:	e08ec00c 	add	ip, lr, ip
   104a4:	e55cc014 	ldrb	ip, [ip, #-20]	; 0xffffffec
   104a8:	e3500008 	cmp	r0, #8
   104ac:	e7c4c001 	strb	ip, [r4, r1]
   104b0:	e283c004 	add	ip, r3, #4
   104b4:	0a00001f 	beq	10538 <dir_register+0x338>
   104b8:	e35c0008 	cmp	ip, #8
   104bc:	e2821005 	add	r1, r2, #5
   104c0:	e084e000 	add	lr, r4, r0
   104c4:	0a000037 	beq	105a8 <dir_register+0x3a8>
   104c8:	e28de040 	add	lr, sp, #64	; 0x40
   104cc:	e08ec00c 	add	ip, lr, ip
   104d0:	e55cc014 	ldrb	ip, [ip, #-20]	; 0xffffffec
   104d4:	e3510008 	cmp	r1, #8
   104d8:	e7c4c000 	strb	ip, [r4, r0]
   104dc:	e283c005 	add	ip, r3, #5
   104e0:	0a000014 	beq	10538 <dir_register+0x338>
   104e4:	e35c0008 	cmp	ip, #8
   104e8:	e2820006 	add	r0, r2, #6
   104ec:	e084e001 	add	lr, r4, r1
   104f0:	0a000032 	beq	105c0 <dir_register+0x3c0>
   104f4:	e28de040 	add	lr, sp, #64	; 0x40
   104f8:	e08ec00c 	add	ip, lr, ip
   104fc:	e55cc014 	ldrb	ip, [ip, #-20]	; 0xffffffec
   10500:	e3500008 	cmp	r0, #8
   10504:	e7c4c001 	strb	ip, [r4, r1]
   10508:	e2831006 	add	r1, r3, #6
   1050c:	0a000009 	beq	10538 <dir_register+0x338>
   10510:	e08e1001 	add	r1, lr, r1
   10514:	e5511014 	ldrb	r1, [r1, #-20]	; 0xffffffec
   10518:	e2822007 	add	r2, r2, #7
   1051c:	e3520008 	cmp	r2, #8
   10520:	e7c41000 	strb	r1, [r4, r0]
   10524:	11a0100e 	movne	r1, lr
   10528:	e2833007 	add	r3, r3, #7
   1052c:	10813003 	addne	r3, r1, r3
   10530:	15533014 	ldrbne	r3, [r3, #-20]	; 0xffffffec
   10534:	17c43002 	strbne	r3, [r4, r2]
   10538:	e1a00005 	mov	r0, r5
   1053c:	e3a01000 	mov	r1, #0
   10540:	ebfff9ba 	bl	ec30 <dir_sdi>
   10544:	e3500000 	cmp	r0, #0
   10548:	1a000031 	bne	10614 <dir_register+0x414>
   1054c:	e1a00005 	mov	r0, r5
   10550:	ebfffdf3 	bl	fd24 <dir_find.part.7>
   10554:	e3500000 	cmp	r0, #0
   10558:	1a00002d 	bne	10614 <dir_register+0x414>
   1055c:	e28bb001 	add	fp, fp, #1
   10560:	e6ffb07b 	uxth	fp, fp
   10564:	e35b0064 	cmp	fp, #100	; 0x64
   10568:	1affff4b 	bne	1029c <dir_register+0x9c>
   1056c:	e3a00007 	mov	r0, #7
   10570:	e28dd044 	add	sp, sp, #68	; 0x44
   10574:	e8bd8ff0 	pop	{r4, r5, r6, r7, r8, r9, sl, fp, pc}
   10578:	e3a03020 	mov	r3, #32
   1057c:	e3510008 	cmp	r1, #8
   10580:	e7c43000 	strb	r3, [r4, r0]
   10584:	1084e001 	addne	lr, r4, r1
   10588:	12820004 	addne	r0, r2, #4
   1058c:	0affffe9 	beq	10538 <dir_register+0x338>
   10590:	e3a03020 	mov	r3, #32
   10594:	e3500008 	cmp	r0, #8
   10598:	e5ce3000 	strb	r3, [lr]
   1059c:	12821005 	addne	r1, r2, #5
   105a0:	1084e000 	addne	lr, r4, r0
   105a4:	0affffe3 	beq	10538 <dir_register+0x338>
   105a8:	e3a03020 	mov	r3, #32
   105ac:	e3510008 	cmp	r1, #8
   105b0:	e5ce3000 	strb	r3, [lr]
   105b4:	12810001 	addne	r0, r1, #1
   105b8:	1084e001 	addne	lr, r4, r1
   105bc:	0affffdd 	beq	10538 <dir_register+0x338>
   105c0:	e3a03020 	mov	r3, #32
   105c4:	e3500008 	cmp	r0, #8
   105c8:	e5ce3000 	strb	r3, [lr]
   105cc:	0affffd9 	beq	10538 <dir_register+0x338>
   105d0:	e2812002 	add	r2, r1, #2
   105d4:	e3520008 	cmp	r2, #8
   105d8:	e7c43000 	strb	r3, [r4, r0]
   105dc:	0affffd5 	beq	10538 <dir_register+0x338>
   105e0:	e3510004 	cmp	r1, #4
   105e4:	e7c43002 	strb	r3, [r4, r2]
   105e8:	05c43007 	strbeq	r3, [r4, #7]
   105ec:	eaffffd1 	b	10538 <dir_register+0x338>
   105f0:	e3a00005 	mov	r0, #5
   105f4:	e3a03004 	mov	r3, #4
   105f8:	eaffff67 	b	1039c <dir_register+0x19c>
   105fc:	e3a00006 	mov	r0, #6
   10600:	e3a03005 	mov	r3, #5
   10604:	eaffff64 	b	1039c <dir_register+0x19c>
   10608:	e3a00007 	mov	r0, #7
   1060c:	e3a03006 	mov	r3, #6
   10610:	eaffff61 	b	1039c <dir_register+0x19c>
   10614:	e3500004 	cmp	r0, #4
   10618:	1a00002f 	bne	106dc <dir_register+0x4dc>
   1061c:	e5dd3024 	ldrb	r3, [sp, #36]	; 0x24
   10620:	e5c4300b 	strb	r3, [r4, #11]
   10624:	e59d3024 	ldr	r3, [sp, #36]	; 0x24
   10628:	e585701c 	str	r7, [r5, #28]
   1062c:	e3130002 	tst	r3, #2
   10630:	1a00002b 	bne	106e4 <dir_register+0x4e4>
   10634:	e3a07001 	mov	r7, #1
   10638:	e58d7004 	str	r7, [sp, #4]
   1063c:	e1a00005 	mov	r0, r5
   10640:	e3a01000 	mov	r1, #0
   10644:	ebfff979 	bl	ec30 <dir_sdi>
   10648:	e3500000 	cmp	r0, #0
   1064c:	1a000022 	bne	106dc <dir_register+0x4dc>
   10650:	e1a04000 	mov	r4, r0
   10654:	e595a000 	ldr	sl, [r5]
   10658:	e5959010 	ldr	r9, [r5, #16]
   1065c:	e59a6030 	ldr	r6, [sl, #48]	; 0x30
   10660:	e1560009 	cmp	r6, r9
   10664:	0a00000b 	beq	10698 <dir_register+0x498>
   10668:	e5da3004 	ldrb	r3, [sl, #4]
   1066c:	e28a8034 	add	r8, sl, #52	; 0x34
   10670:	e3530000 	cmp	r3, #0
   10674:	1a000041 	bne	10780 <dir_register+0x580>
   10678:	e1a01008 	mov	r1, r8
   1067c:	e5da0001 	ldrb	r0, [sl, #1]
   10680:	e1a02009 	mov	r2, r9
   10684:	e3a03001 	mov	r3, #1
   10688:	eb001dec 	bl	17e40 <disk_read>
   1068c:	e3500000 	cmp	r0, #0
   10690:	1a00002c 	bne	10748 <dir_register+0x548>
   10694:	e58a9030 	str	r9, [sl, #48]	; 0x30
   10698:	e5953014 	ldr	r3, [r5, #20]
   1069c:	e5d33000 	ldrb	r3, [r3]
   106a0:	e35300e5 	cmp	r3, #229	; 0xe5
   106a4:	13530000 	cmpne	r3, #0
   106a8:	13a03000 	movne	r3, #0
   106ac:	03a03001 	moveq	r3, #1
   106b0:	11a04003 	movne	r4, r3
   106b4:	1a000002 	bne	106c4 <dir_register+0x4c4>
   106b8:	e2844001 	add	r4, r4, #1
   106bc:	e1540007 	cmp	r4, r7
   106c0:	0a000086 	beq	108e0 <dir_register+0x6e0>
   106c4:	e1d560b6 	ldrh	r6, [r5, #6]
   106c8:	e2866001 	add	r6, r6, #1
   106cc:	e6ff6076 	uxth	r6, r6
   106d0:	e3560000 	cmp	r6, #0
   106d4:	1a00001e 	bne	10754 <dir_register+0x554>
   106d8:	e3a00004 	mov	r0, #4
   106dc:	e28dd044 	add	sp, sp, #68	; 0x44
   106e0:	e8bd8ff0 	pop	{r4, r5, r6, r7, r8, r9, sl, fp, pc}
   106e4:	e1d730b0 	ldrh	r3, [r7]
   106e8:	e3530000 	cmp	r3, #0
   106ec:	0affffd0 	beq	10634 <dir_register+0x434>
   106f0:	e3a03000 	mov	r3, #0
   106f4:	e2833001 	add	r3, r3, #1
   106f8:	e6ff3073 	uxth	r3, r3
   106fc:	e1a02083 	lsl	r2, r3, #1
   10700:	e19720b2 	ldrh	r2, [r7, r2]
   10704:	e3520000 	cmp	r2, #0
   10708:	1afffff9 	bne	106f4 <dir_register+0x4f4>
   1070c:	e59f78d0 	ldr	r7, [pc, #2256]	; 10fe4 <dir_register+0xde4>
   10710:	e2833019 	add	r3, r3, #25
   10714:	e0c72397 	smull	r2, r7, r7, r3
   10718:	e1a03fc3 	asr	r3, r3, #31
   1071c:	e0637147 	rsb	r7, r3, r7, asr #2
   10720:	e6ff3077 	uxth	r3, r7
   10724:	e58d3004 	str	r3, [sp, #4]
   10728:	eaffffc3 	b	1063c <dir_register+0x43c>
   1072c:	e1a01007 	mov	r1, r7
   10730:	e5d40001 	ldrb	r0, [r4, #1]
   10734:	e1a02006 	mov	r2, r6
   10738:	e3a03001 	mov	r3, #1
   1073c:	eb001ddd 	bl	17eb8 <disk_write>
   10740:	e3500000 	cmp	r0, #0
   10744:	0a00017a 	beq	10d34 <dir_register+0xb34>
   10748:	e3a00001 	mov	r0, #1
   1074c:	e28dd044 	add	sp, sp, #68	; 0x44
   10750:	e8bd8ff0 	pop	{r4, r5, r6, r7, r8, r9, sl, fp, pc}
   10754:	e5959010 	ldr	r9, [r5, #16]
   10758:	e3590000 	cmp	r9, #0
   1075c:	0affffdd 	beq	106d8 <dir_register+0x4d8>
   10760:	e216800f 	ands	r8, r6, #15
   10764:	0a00002f 	beq	10828 <dir_register+0x628>
   10768:	e595a000 	ldr	sl, [r5]
   1076c:	e08a3288 	add	r3, sl, r8, lsl #5
   10770:	e2833034 	add	r3, r3, #52	; 0x34
   10774:	e5853014 	str	r3, [r5, #20]
   10778:	e1c560b6 	strh	r6, [r5, #6]
   1077c:	eaffffb6 	b	1065c <dir_register+0x45c>
   10780:	e1a01008 	mov	r1, r8
   10784:	e5da0001 	ldrb	r0, [sl, #1]
   10788:	e1a02006 	mov	r2, r6
   1078c:	e3a03001 	mov	r3, #1
   10790:	eb001dc8 	bl	17eb8 <disk_write>
   10794:	e3500000 	cmp	r0, #0
   10798:	1affffea 	bne	10748 <dir_register+0x548>
   1079c:	e59a2024 	ldr	r2, [sl, #36]	; 0x24
   107a0:	e5ca0004 	strb	r0, [sl, #4]
   107a4:	e1560002 	cmp	r6, r2
   107a8:	3affffb2 	bcc	10678 <dir_register+0x478>
   107ac:	e59a301c 	ldr	r3, [sl, #28]
   107b0:	e0832002 	add	r2, r3, r2
   107b4:	e1560002 	cmp	r6, r2
   107b8:	2affffae 	bcs	10678 <dir_register+0x478>
   107bc:	e5dab003 	ldrb	fp, [sl, #3]
   107c0:	e35b0001 	cmp	fp, #1
   107c4:	8a000001 	bhi	107d0 <dir_register+0x5d0>
   107c8:	eaffffaa 	b	10678 <dir_register+0x478>
   107cc:	e59a301c 	ldr	r3, [sl, #28]
   107d0:	e0866003 	add	r6, r6, r3
   107d4:	e24bb001 	sub	fp, fp, #1
   107d8:	e1a02006 	mov	r2, r6
   107dc:	e5da0001 	ldrb	r0, [sl, #1]
   107e0:	e1a01008 	mov	r1, r8
   107e4:	e3a03001 	mov	r3, #1
   107e8:	eb001db2 	bl	17eb8 <disk_write>
   107ec:	e35b0001 	cmp	fp, #1
   107f0:	1afffff5 	bne	107cc <dir_register+0x5cc>
   107f4:	eaffff9f 	b	10678 <dir_register+0x478>
   107f8:	e3a02003 	mov	r2, #3
   107fc:	e1a0c001 	mov	ip, r1
   10800:	eaffff0e 	b	10440 <dir_register+0x240>
   10804:	e3a02002 	mov	r2, #2
   10808:	e1a0c001 	mov	ip, r1
   1080c:	eaffff0b 	b	10440 <dir_register+0x240>
   10810:	e3a02001 	mov	r2, #1
   10814:	e1a0c001 	mov	ip, r1
   10818:	eaffff08 	b	10440 <dir_register+0x240>
   1081c:	e3a02004 	mov	r2, #4
   10820:	e1a0c001 	mov	ip, r1
   10824:	eaffff05 	b	10440 <dir_register+0x240>
   10828:	e595100c 	ldr	r1, [r5, #12]
   1082c:	e2899001 	add	r9, r9, #1
   10830:	e3510000 	cmp	r1, #0
   10834:	e5859010 	str	r9, [r5, #16]
   10838:	e595a000 	ldr	sl, [r5]
   1083c:	0a000023 	beq	108d0 <dir_register+0x6d0>
   10840:	e5da3002 	ldrb	r3, [sl, #2]
   10844:	e2433001 	sub	r3, r3, #1
   10848:	e0133226 	ands	r3, r3, r6, lsr #4
   1084c:	1affffc6 	bne	1076c <dir_register+0x56c>
   10850:	e3510001 	cmp	r1, #1
   10854:	9a000002 	bls	10864 <dir_register+0x664>
   10858:	e59a3018 	ldr	r3, [sl, #24]
   1085c:	e1510003 	cmp	r1, r3
   10860:	3a00014a 	bcc	10d90 <dir_register+0xb90>
   10864:	e3a00002 	mov	r0, #2
   10868:	eaffff9b 	b	106dc <dir_register+0x4dc>
   1086c:	e5d43000 	ldrb	r3, [r4]
   10870:	e5d4b001 	ldrb	fp, [r4, #1]
   10874:	e5d4a002 	ldrb	sl, [r4, #2]
   10878:	e5d49003 	ldrb	r9, [r4, #3]
   1087c:	e5d48004 	ldrb	r8, [r4, #4]
   10880:	e5d46005 	ldrb	r6, [r4, #5]
   10884:	e5d4e006 	ldrb	lr, [r4, #6]
   10888:	e5d4c007 	ldrb	ip, [r4, #7]
   1088c:	e5d40008 	ldrb	r0, [r4, #8]
   10890:	e5d41009 	ldrb	r1, [r4, #9]
   10894:	e5d4200a 	ldrb	r2, [r4, #10]
   10898:	e5cd3034 	strb	r3, [sp, #52]	; 0x34
   1089c:	e5d4300b 	ldrb	r3, [r4, #11]
   108a0:	e5cdb035 	strb	fp, [sp, #53]	; 0x35
   108a4:	e5cda036 	strb	sl, [sp, #54]	; 0x36
   108a8:	e5cd9037 	strb	r9, [sp, #55]	; 0x37
   108ac:	e5cd8038 	strb	r8, [sp, #56]	; 0x38
   108b0:	e5cd6039 	strb	r6, [sp, #57]	; 0x39
   108b4:	e5cde03a 	strb	lr, [sp, #58]	; 0x3a
   108b8:	e5cdc03b 	strb	ip, [sp, #59]	; 0x3b
   108bc:	e5cd003c 	strb	r0, [sp, #60]	; 0x3c
   108c0:	e5cd103d 	strb	r1, [sp, #61]	; 0x3d
   108c4:	e5cd203e 	strb	r2, [sp, #62]	; 0x3e
   108c8:	e5cd303f 	strb	r3, [sp, #63]	; 0x3f
   108cc:	eafffe56 	b	1022c <dir_register+0x2c>
   108d0:	e1da30b8 	ldrh	r3, [sl, #8]
   108d4:	e1530006 	cmp	r3, r6
   108d8:	9affff7e 	bls	106d8 <dir_register+0x4d8>
   108dc:	eaffffa2 	b	1076c <dir_register+0x56c>
   108e0:	e59d3004 	ldr	r3, [sp, #4]
   108e4:	e2438001 	sub	r8, r3, #1
   108e8:	e6ff8078 	uxth	r8, r8
   108ec:	e3580000 	cmp	r8, #0
   108f0:	1a00005c 	bne	10a68 <dir_register+0x868>
   108f4:	e5954000 	ldr	r4, [r5]
   108f8:	e5959010 	ldr	r9, [r5, #16]
   108fc:	e5946030 	ldr	r6, [r4, #48]	; 0x30
   10900:	e1560009 	cmp	r6, r9
   10904:	0a00000b 	beq	10938 <dir_register+0x738>
   10908:	e5d43004 	ldrb	r3, [r4, #4]
   1090c:	e2847034 	add	r7, r4, #52	; 0x34
   10910:	e3530000 	cmp	r3, #0
   10914:	1affff84 	bne	1072c <dir_register+0x52c>
   10918:	e1a01007 	mov	r1, r7
   1091c:	e5d40001 	ldrb	r0, [r4, #1]
   10920:	e1a02009 	mov	r2, r9
   10924:	e3a03001 	mov	r3, #1
   10928:	eb001d44 	bl	17e40 <disk_read>
   1092c:	e3500000 	cmp	r0, #0
   10930:	05849030 	streq	r9, [r4, #48]	; 0x30
   10934:	1affff83 	bne	10748 <dir_register+0x548>
   10938:	e5953014 	ldr	r3, [r5, #20]
   1093c:	e2630000 	rsb	r0, r3, #0
   10940:	e2100003 	ands	r0, r0, #3
   10944:	0a000184 	beq	10f5c <dir_register+0xd5c>
   10948:	e3a02000 	mov	r2, #0
   1094c:	e3500001 	cmp	r0, #1
   10950:	e5c32000 	strb	r2, [r3]
   10954:	e283e001 	add	lr, r3, #1
   10958:	03a0201f 	moveq	r2, #31
   1095c:	0a000006 	beq	1097c <dir_register+0x77c>
   10960:	e3500003 	cmp	r0, #3
   10964:	e5c32001 	strb	r2, [r3, #1]
   10968:	05c32002 	strbeq	r2, [r3, #2]
   1096c:	13a0201e 	movne	r2, #30
   10970:	03a0201d 	moveq	r2, #29
   10974:	e283e002 	add	lr, r3, #2
   10978:	0283e003 	addeq	lr, r3, #3
   1097c:	e3a0c007 	mov	ip, #7
   10980:	e3a0401c 	mov	r4, #28
   10984:	e2606020 	rsb	r6, r0, #32
   10988:	e3a01000 	mov	r1, #0
   1098c:	e35c0008 	cmp	ip, #8
   10990:	e083c000 	add	ip, r3, r0
   10994:	e7831000 	str	r1, [r3, r0]
   10998:	058c101c 	streq	r1, [ip, #28]
   1099c:	e1540006 	cmp	r4, r6
   109a0:	e58c1004 	str	r1, [ip, #4]
   109a4:	e58c1008 	str	r1, [ip, #8]
   109a8:	e58c100c 	str	r1, [ip, #12]
   109ac:	e58c1010 	str	r1, [ip, #16]
   109b0:	e58c1014 	str	r1, [ip, #20]
   109b4:	e58c1018 	str	r1, [ip, #24]
   109b8:	e0642002 	rsb	r2, r4, r2
   109bc:	e08e1004 	add	r1, lr, r4
   109c0:	0a000006 	beq	109e0 <dir_register+0x7e0>
   109c4:	e3a03000 	mov	r3, #0
   109c8:	e3520001 	cmp	r2, #1
   109cc:	e7ce3004 	strb	r3, [lr, r4]
   109d0:	0a000002 	beq	109e0 <dir_register+0x7e0>
   109d4:	e3520002 	cmp	r2, #2
   109d8:	e5c13001 	strb	r3, [r1, #1]
   109dc:	15c13002 	strbne	r3, [r1, #2]
   109e0:	e5953014 	ldr	r3, [r5, #20]
   109e4:	e5952018 	ldr	r2, [r5, #24]
   109e8:	e283c004 	add	ip, r3, #4
   109ec:	e1831002 	orr	r1, r3, r2
   109f0:	e3110003 	tst	r1, #3
   109f4:	e2821004 	add	r1, r2, #4
   109f8:	03a00001 	moveq	r0, #1
   109fc:	13a00000 	movne	r0, #0
   10a00:	e152000c 	cmp	r2, ip
   10a04:	31530001 	cmpcc	r3, r1
   10a08:	23a01001 	movcs	r1, #1
   10a0c:	33a01000 	movcc	r1, #0
   10a10:	e1100001 	tst	r0, r1
   10a14:	0a00013f 	beq	10f18 <dir_register+0xd18>
   10a18:	e5921000 	ldr	r1, [r2]
   10a1c:	e5831000 	str	r1, [r3]
   10a20:	e5921004 	ldr	r1, [r2, #4]
   10a24:	e5831004 	str	r1, [r3, #4]
   10a28:	e5d21008 	ldrb	r1, [r2, #8]
   10a2c:	e3a00000 	mov	r0, #0
   10a30:	e5c31008 	strb	r1, [r3, #8]
   10a34:	e5d21009 	ldrb	r1, [r2, #9]
   10a38:	e5c31009 	strb	r1, [r3, #9]
   10a3c:	e5d2200a 	ldrb	r2, [r2, #10]
   10a40:	e5c3200a 	strb	r2, [r3, #10]
   10a44:	e3a02001 	mov	r2, #1
   10a48:	e5953018 	ldr	r3, [r5, #24]
   10a4c:	e5951014 	ldr	r1, [r5, #20]
   10a50:	e5d3300b 	ldrb	r3, [r3, #11]
   10a54:	e2033018 	and	r3, r3, #24
   10a58:	e5c1300c 	strb	r3, [r1, #12]
   10a5c:	e5953000 	ldr	r3, [r5]
   10a60:	e5c32004 	strb	r2, [r3, #4]
   10a64:	eaffff1c 	b	106dc <dir_register+0x4dc>
   10a68:	e1d510b6 	ldrh	r1, [r5, #6]
   10a6c:	e1a00005 	mov	r0, r5
   10a70:	e0681001 	rsb	r1, r8, r1
   10a74:	e6ff1071 	uxth	r1, r1
   10a78:	ebfff86c 	bl	ec30 <dir_sdi>
   10a7c:	e3500000 	cmp	r0, #0
   10a80:	1affff15 	bne	106dc <dir_register+0x4dc>
   10a84:	e5952018 	ldr	r2, [r5, #24]
   10a88:	e58d0008 	str	r0, [sp, #8]
   10a8c:	e5d23000 	ldrb	r3, [r2]
   10a90:	e5d20001 	ldrb	r0, [r2, #1]
   10a94:	e1a01383 	lsl	r1, r3, #7
   10a98:	e18130a3 	orr	r3, r1, r3, lsr #1
   10a9c:	e0833000 	add	r3, r3, r0
   10aa0:	e6ef0073 	uxtb	r0, r3
   10aa4:	e5d21002 	ldrb	r1, [r2, #2]
   10aa8:	e1a03383 	lsl	r3, r3, #7
   10aac:	e18330a0 	orr	r3, r3, r0, lsr #1
   10ab0:	e6e13073 	uxtab	r3, r1, r3
   10ab4:	e6ef0073 	uxtb	r0, r3
   10ab8:	e5d21003 	ldrb	r1, [r2, #3]
   10abc:	e1a03383 	lsl	r3, r3, #7
   10ac0:	e18330a0 	orr	r3, r3, r0, lsr #1
   10ac4:	e6e13073 	uxtab	r3, r1, r3
   10ac8:	e6ef0073 	uxtb	r0, r3
   10acc:	e5d21004 	ldrb	r1, [r2, #4]
   10ad0:	e1a03383 	lsl	r3, r3, #7
   10ad4:	e18330a0 	orr	r3, r3, r0, lsr #1
   10ad8:	e6e13073 	uxtab	r3, r1, r3
   10adc:	e6ef0073 	uxtb	r0, r3
   10ae0:	e5d21005 	ldrb	r1, [r2, #5]
   10ae4:	e1a03383 	lsl	r3, r3, #7
   10ae8:	e18330a0 	orr	r3, r3, r0, lsr #1
   10aec:	e6e13073 	uxtab	r3, r1, r3
   10af0:	e6ef0073 	uxtb	r0, r3
   10af4:	e5d21006 	ldrb	r1, [r2, #6]
   10af8:	e1a03383 	lsl	r3, r3, #7
   10afc:	e18330a0 	orr	r3, r3, r0, lsr #1
   10b00:	e6e13073 	uxtab	r3, r1, r3
   10b04:	e6ef0073 	uxtb	r0, r3
   10b08:	e5d21007 	ldrb	r1, [r2, #7]
   10b0c:	e1a03383 	lsl	r3, r3, #7
   10b10:	e18330a0 	orr	r3, r3, r0, lsr #1
   10b14:	e6e13073 	uxtab	r3, r1, r3
   10b18:	e6ef0073 	uxtb	r0, r3
   10b1c:	e5d21008 	ldrb	r1, [r2, #8]
   10b20:	e1a03383 	lsl	r3, r3, #7
   10b24:	e18330a0 	orr	r3, r3, r0, lsr #1
   10b28:	e6e13073 	uxtab	r3, r1, r3
   10b2c:	e6ef0073 	uxtb	r0, r3
   10b30:	e5d21009 	ldrb	r1, [r2, #9]
   10b34:	e1a03383 	lsl	r3, r3, #7
   10b38:	e18330a0 	orr	r3, r3, r0, lsr #1
   10b3c:	e6e13073 	uxtab	r3, r1, r3
   10b40:	e6ef1073 	uxtb	r1, r3
   10b44:	e5d2200a 	ldrb	r2, [r2, #10]
   10b48:	e1a03383 	lsl	r3, r3, #7
   10b4c:	e18330a1 	orr	r3, r3, r1, lsr #1
   10b50:	e6e23073 	uxtab	r3, r2, r3
   10b54:	e6ef3073 	uxtb	r3, r3
   10b58:	e59f7488 	ldr	r7, [pc, #1160]	; 10fe8 <dir_register+0xde8>
   10b5c:	e59f6488 	ldr	r6, [pc, #1160]	; 10fec <dir_register+0xdec>
   10b60:	e58d3004 	str	r3, [sp, #4]
   10b64:	e5954000 	ldr	r4, [r5]
   10b68:	e595a010 	ldr	sl, [r5, #16]
   10b6c:	e5949030 	ldr	r9, [r4, #48]	; 0x30
   10b70:	e15a0009 	cmp	sl, r9
   10b74:	0a00000b 	beq	10ba8 <dir_register+0x9a8>
   10b78:	e5d43004 	ldrb	r3, [r4, #4]
   10b7c:	e284b034 	add	fp, r4, #52	; 0x34
   10b80:	e3530000 	cmp	r3, #0
   10b84:	1a000043 	bne	10c98 <dir_register+0xa98>
   10b88:	e1a0100b 	mov	r1, fp
   10b8c:	e5d40001 	ldrb	r0, [r4, #1]
   10b90:	e1a0200a 	mov	r2, sl
   10b94:	e3a03001 	mov	r3, #1
   10b98:	eb001ca8 	bl	17e40 <disk_read>
   10b9c:	e3500000 	cmp	r0, #0
   10ba0:	1afffee8 	bne	10748 <dir_register+0x548>
   10ba4:	e584a030 	str	sl, [r4, #48]	; 0x30
   10ba8:	e6efa078 	uxtb	sl, r8
   10bac:	e24a3001 	sub	r3, sl, #1
   10bb0:	e0832083 	add	r2, r3, r3, lsl #1
   10bb4:	e595e014 	ldr	lr, [r5, #20]
   10bb8:	e0832102 	add	r2, r3, r2, lsl #2
   10bbc:	e5dd3004 	ldrb	r3, [sp, #4]
   10bc0:	e595401c 	ldr	r4, [r5, #28]
   10bc4:	e5ce300d 	strb	r3, [lr, #13]
   10bc8:	e3a0300f 	mov	r3, #15
   10bcc:	e5ce300b 	strb	r3, [lr, #11]
   10bd0:	e59d3008 	ldr	r3, [sp, #8]
   10bd4:	e59fc414 	ldr	ip, [pc, #1044]	; 10ff0 <dir_register+0xdf0>
   10bd8:	e5ce300c 	strb	r3, [lr, #12]
   10bdc:	e5ce301a 	strb	r3, [lr, #26]
   10be0:	e5ce301b 	strb	r3, [lr, #27]
   10be4:	e3e09000 	mvn	r9, #0
   10be8:	e3a03000 	mov	r3, #0
   10bec:	ea00000b 	b	10c20 <dir_register+0xa20>
   10bf0:	e1a0000e 	mov	r0, lr
   10bf4:	e19430b1 	ldrh	r3, [r4, r1]
   10bf8:	e5dc1000 	ldrb	r1, [ip]
   10bfc:	e3530000 	cmp	r3, #0
   10c00:	e28cc001 	add	ip, ip, #1
   10c04:	e7e03001 	strb	r3, [r0, r1]!
   10c08:	e1a01423 	lsr	r1, r3, #8
   10c0c:	059f33d8 	ldreq	r3, [pc, #984]	; 10fec <dir_register+0xdec>
   10c10:	e15c0007 	cmp	ip, r7
   10c14:	e2822001 	add	r2, r2, #1
   10c18:	e5c01001 	strb	r1, [r0, #1]
   10c1c:	0a000009 	beq	10c48 <dir_register+0xa48>
   10c20:	e1530006 	cmp	r3, r6
   10c24:	e1a01082 	lsl	r1, r2, #1
   10c28:	1afffff0 	bne	10bf0 <dir_register+0x9f0>
   10c2c:	e1a0100e 	mov	r1, lr
   10c30:	e5dc0000 	ldrb	r0, [ip]
   10c34:	e28cc001 	add	ip, ip, #1
   10c38:	e7e19000 	strb	r9, [r1, r0]!
   10c3c:	e15c0007 	cmp	ip, r7
   10c40:	e5c19001 	strb	r9, [r1, #1]
   10c44:	1afffff5 	bne	10c20 <dir_register+0xa20>
   10c48:	e1530006 	cmp	r3, r6
   10c4c:	0a000003 	beq	10c60 <dir_register+0xa60>
   10c50:	e1a02082 	lsl	r2, r2, #1
   10c54:	e19430b2 	ldrh	r3, [r4, r2]
   10c58:	e3530000 	cmp	r3, #0
   10c5c:	1a000000 	bne	10c64 <dir_register+0xa64>
   10c60:	e38aa040 	orr	sl, sl, #64	; 0x40
   10c64:	e3a02001 	mov	r2, #1
   10c68:	e5cea000 	strb	sl, [lr]
   10c6c:	e5953000 	ldr	r3, [r5]
   10c70:	e1a00005 	mov	r0, r5
   10c74:	e5c32004 	strb	r2, [r3, #4]
   10c78:	ebfffa6b 	bl	f62c <dir_next.constprop.14>
   10c7c:	e3500000 	cmp	r0, #0
   10c80:	1afffe95 	bne	106dc <dir_register+0x4dc>
   10c84:	e2488001 	sub	r8, r8, #1
   10c88:	e6ff8078 	uxth	r8, r8
   10c8c:	e3580000 	cmp	r8, #0
   10c90:	1affffb3 	bne	10b64 <dir_register+0x964>
   10c94:	eaffff16 	b	108f4 <dir_register+0x6f4>
   10c98:	e1a0100b 	mov	r1, fp
   10c9c:	e5d40001 	ldrb	r0, [r4, #1]
   10ca0:	e1a02009 	mov	r2, r9
   10ca4:	e3a03001 	mov	r3, #1
   10ca8:	eb001c82 	bl	17eb8 <disk_write>
   10cac:	e3500000 	cmp	r0, #0
   10cb0:	1afffea4 	bne	10748 <dir_register+0x548>
   10cb4:	e5942024 	ldr	r2, [r4, #36]	; 0x24
   10cb8:	e5c40004 	strb	r0, [r4, #4]
   10cbc:	e1590002 	cmp	r9, r2
   10cc0:	3affffb0 	bcc	10b88 <dir_register+0x988>
   10cc4:	e594301c 	ldr	r3, [r4, #28]
   10cc8:	e0832002 	add	r2, r3, r2
   10ccc:	e1590002 	cmp	r9, r2
   10cd0:	2affffac 	bcs	10b88 <dir_register+0x988>
   10cd4:	e5d4c003 	ldrb	ip, [r4, #3]
   10cd8:	e35c0001 	cmp	ip, #1
   10cdc:	9affffa9 	bls	10b88 <dir_register+0x988>
   10ce0:	e58d800c 	str	r8, [sp, #12]
   10ce4:	e1a0800b 	mov	r8, fp
   10ce8:	e1a0b005 	mov	fp, r5
   10cec:	e1a05004 	mov	r5, r4
   10cf0:	e1a0400c 	mov	r4, ip
   10cf4:	ea000000 	b	10cfc <dir_register+0xafc>
   10cf8:	e595301c 	ldr	r3, [r5, #28]
   10cfc:	e0899003 	add	r9, r9, r3
   10d00:	e2444001 	sub	r4, r4, #1
   10d04:	e1a02009 	mov	r2, r9
   10d08:	e5d50001 	ldrb	r0, [r5, #1]
   10d0c:	e1a01008 	mov	r1, r8
   10d10:	e3a03001 	mov	r3, #1
   10d14:	eb001c67 	bl	17eb8 <disk_write>
   10d18:	e3540001 	cmp	r4, #1
   10d1c:	1afffff5 	bne	10cf8 <dir_register+0xaf8>
   10d20:	e1a04005 	mov	r4, r5
   10d24:	e1a0500b 	mov	r5, fp
   10d28:	e1a0b008 	mov	fp, r8
   10d2c:	e59d800c 	ldr	r8, [sp, #12]
   10d30:	eaffff94 	b	10b88 <dir_register+0x988>
   10d34:	e5943024 	ldr	r3, [r4, #36]	; 0x24
   10d38:	e5c40004 	strb	r0, [r4, #4]
   10d3c:	e1560003 	cmp	r6, r3
   10d40:	3afffef4 	bcc	10918 <dir_register+0x718>
   10d44:	e594201c 	ldr	r2, [r4, #28]
   10d48:	e0823003 	add	r3, r2, r3
   10d4c:	e1560003 	cmp	r6, r3
   10d50:	2afffef0 	bcs	10918 <dir_register+0x718>
   10d54:	e5d48003 	ldrb	r8, [r4, #3]
   10d58:	e3580001 	cmp	r8, #1
   10d5c:	8a000001 	bhi	10d68 <dir_register+0xb68>
   10d60:	eafffeec 	b	10918 <dir_register+0x718>
   10d64:	e594201c 	ldr	r2, [r4, #28]
   10d68:	e0866002 	add	r6, r6, r2
   10d6c:	e2488001 	sub	r8, r8, #1
   10d70:	e1a02006 	mov	r2, r6
   10d74:	e5d40001 	ldrb	r0, [r4, #1]
   10d78:	e1a01007 	mov	r1, r7
   10d7c:	e3a03001 	mov	r3, #1
   10d80:	eb001c4c 	bl	17eb8 <disk_write>
   10d84:	e3580001 	cmp	r8, #1
   10d88:	1afffff5 	bne	10d64 <dir_register+0xb64>
   10d8c:	eafffee1 	b	10918 <dir_register+0x718>
   10d90:	e1a0000a 	mov	r0, sl
   10d94:	ebfff6b4 	bl	e86c <get_fat.part.5>
   10d98:	e3500001 	cmp	r0, #1
   10d9c:	e1a0b000 	mov	fp, r0
   10da0:	9afffeaf 	bls	10864 <dir_register+0x664>
   10da4:	e3700001 	cmn	r0, #1
   10da8:	0afffe66 	beq	10748 <dir_register+0x548>
   10dac:	e595a000 	ldr	sl, [r5]
   10db0:	e59a2018 	ldr	r2, [sl, #24]
   10db4:	e1500002 	cmp	r0, r2
   10db8:	32422002 	subcc	r2, r2, #2
   10dbc:	32401002 	subcc	r1, r0, #2
   10dc0:	3a000070 	bcc	10f88 <dir_register+0xd88>
   10dc4:	e1a0000a 	mov	r0, sl
   10dc8:	e595100c 	ldr	r1, [r5, #12]
   10dcc:	ebfff7e6 	bl	ed6c <create_chain>
   10dd0:	e250b000 	subs	fp, r0, #0
   10dd4:	0afffde4 	beq	1056c <dir_register+0x36c>
   10dd8:	e35b0001 	cmp	fp, #1
   10ddc:	0afffea0 	beq	10864 <dir_register+0x664>
   10de0:	e37b0001 	cmn	fp, #1
   10de4:	0afffe57 	beq	10748 <dir_register+0x548>
   10de8:	e5950000 	ldr	r0, [r5]
   10dec:	e5d02004 	ldrb	r2, [r0, #4]
   10df0:	e3520000 	cmp	r2, #0
   10df4:	1a00006d 	bne	10fb0 <dir_register+0xdb0>
   10df8:	e2801034 	add	r1, r0, #52	; 0x34
   10dfc:	e2612000 	rsb	r2, r1, #0
   10e00:	e2122003 	ands	r2, r2, #3
   10e04:	0a000070 	beq	10fcc <dir_register+0xdcc>
   10e08:	e3a03000 	mov	r3, #0
   10e0c:	e3520001 	cmp	r2, #1
   10e10:	e5c03034 	strb	r3, [r0, #52]	; 0x34
   10e14:	e280c035 	add	ip, r0, #53	; 0x35
   10e18:	0a000069 	beq	10fc4 <dir_register+0xdc4>
   10e1c:	e3520003 	cmp	r2, #3
   10e20:	e5c03035 	strb	r3, [r0, #53]	; 0x35
   10e24:	e280c036 	add	ip, r0, #54	; 0x36
   10e28:	1a00005e 	bne	10fa8 <dir_register+0xda8>
   10e2c:	e5c03036 	strb	r3, [r0, #54]	; 0x36
   10e30:	e59f31bc 	ldr	r3, [pc, #444]	; 10ff4 <dir_register+0xdf4>
   10e34:	e280c037 	add	ip, r0, #55	; 0x37
   10e38:	e3a0a07f 	mov	sl, #127	; 0x7f
   10e3c:	e3a00f7f 	mov	r0, #508	; 0x1fc
   10e40:	e262ec02 	rsb	lr, r2, #512	; 0x200
   10e44:	e3a09000 	mov	r9, #0
   10e48:	e0811002 	add	r1, r1, r2
   10e4c:	e3a02000 	mov	r2, #0
   10e50:	e2899001 	add	r9, r9, #1
   10e54:	e159000a 	cmp	r9, sl
   10e58:	e4812004 	str	r2, [r1], #4
   10e5c:	3afffffa 	bcc	10e4c <dir_register+0xc4c>
   10e60:	e150000e 	cmp	r0, lr
   10e64:	e0603003 	rsb	r3, r0, r3
   10e68:	e08c1000 	add	r1, ip, r0
   10e6c:	0a000005 	beq	10e88 <dir_register+0xc88>
   10e70:	e3530001 	cmp	r3, #1
   10e74:	e7cc2000 	strb	r2, [ip, r0]
   10e78:	0a000002 	beq	10e88 <dir_register+0xc88>
   10e7c:	e3530002 	cmp	r3, #2
   10e80:	e5c12001 	strb	r2, [r1, #1]
   10e84:	15c12002 	strbne	r2, [r1, #2]
   10e88:	e595a000 	ldr	sl, [r5]
   10e8c:	e24b1002 	sub	r1, fp, #2
   10e90:	e59a2018 	ldr	r2, [sl, #24]
   10e94:	e5da3002 	ldrb	r3, [sl, #2]
   10e98:	e2422002 	sub	r2, r2, #2
   10e9c:	e1510002 	cmp	r1, r2
   10ea0:	23a00000 	movcs	r0, #0
   10ea4:	359a002c 	ldrcc	r0, [sl, #44]	; 0x2c
   10ea8:	30200193 	mlacc	r0, r3, r1, r0
   10eac:	e3530000 	cmp	r3, #0
   10eb0:	e58a0030 	str	r0, [sl, #48]	; 0x30
   10eb4:	0a000031 	beq	10f80 <dir_register+0xd80>
   10eb8:	e3a09000 	mov	r9, #0
   10ebc:	ea000007 	b	10ee0 <dir_register+0xce0>
   10ec0:	e59a0030 	ldr	r0, [sl, #48]	; 0x30
   10ec4:	e2899001 	add	r9, r9, #1
   10ec8:	e5da3002 	ldrb	r3, [sl, #2]
   10ecc:	e6ef9079 	uxtb	r9, r9
   10ed0:	e2800001 	add	r0, r0, #1
   10ed4:	e1530009 	cmp	r3, r9
   10ed8:	e58a0030 	str	r0, [sl, #48]	; 0x30
   10edc:	9a000024 	bls	10f74 <dir_register+0xd74>
   10ee0:	e3a03001 	mov	r3, #1
   10ee4:	e5ca3004 	strb	r3, [sl, #4]
   10ee8:	e595a000 	ldr	sl, [r5]
   10eec:	e5da3004 	ldrb	r3, [sl, #4]
   10ef0:	e3530000 	cmp	r3, #0
   10ef4:	0afffff1 	beq	10ec0 <dir_register+0xcc0>
   10ef8:	e1a0000a 	mov	r0, sl
   10efc:	e58d1008 	str	r1, [sp, #8]
   10f00:	eb001b6f 	bl	17cc4 <sync_window.part.2>
   10f04:	e3500000 	cmp	r0, #0
   10f08:	e59d1008 	ldr	r1, [sp, #8]
   10f0c:	1afffe0d 	bne	10748 <dir_register+0x548>
   10f10:	e595a000 	ldr	sl, [r5]
   10f14:	eaffffe9 	b	10ec0 <dir_register+0xcc0>
   10f18:	e5d21000 	ldrb	r1, [r2]
   10f1c:	e5c31000 	strb	r1, [r3]
   10f20:	e5d21001 	ldrb	r1, [r2, #1]
   10f24:	e5c31001 	strb	r1, [r3, #1]
   10f28:	e5d21002 	ldrb	r1, [r2, #2]
   10f2c:	e5c31002 	strb	r1, [r3, #2]
   10f30:	e5d21003 	ldrb	r1, [r2, #3]
   10f34:	e5c31003 	strb	r1, [r3, #3]
   10f38:	e5d21004 	ldrb	r1, [r2, #4]
   10f3c:	e5c31004 	strb	r1, [r3, #4]
   10f40:	e5d21005 	ldrb	r1, [r2, #5]
   10f44:	e5c31005 	strb	r1, [r3, #5]
   10f48:	e5d21006 	ldrb	r1, [r2, #6]
   10f4c:	e5c31006 	strb	r1, [r3, #6]
   10f50:	e5d21007 	ldrb	r1, [r2, #7]
   10f54:	e5c31007 	strb	r1, [r3, #7]
   10f58:	eafffeb2 	b	10a28 <dir_register+0x828>
   10f5c:	e3a02020 	mov	r2, #32
   10f60:	e1a0e003 	mov	lr, r3
   10f64:	e1a06002 	mov	r6, r2
   10f68:	e1a04002 	mov	r4, r2
   10f6c:	e3a0c008 	mov	ip, #8
   10f70:	eafffe84 	b	10988 <dir_register+0x788>
   10f74:	e1a03009 	mov	r3, r9
   10f78:	e59a2018 	ldr	r2, [sl, #24]
   10f7c:	e2422002 	sub	r2, r2, #2
   10f80:	e0633000 	rsb	r3, r3, r0
   10f84:	e58a3030 	str	r3, [sl, #48]	; 0x30
   10f88:	e1520001 	cmp	r2, r1
   10f8c:	93a09000 	movls	r9, #0
   10f90:	e585b00c 	str	fp, [r5, #12]
   10f94:	85da9002 	ldrbhi	r9, [sl, #2]
   10f98:	859a302c 	ldrhi	r3, [sl, #44]	; 0x2c
   10f9c:	80293199 	mlahi	r9, r9, r1, r3
   10fa0:	e5859010 	str	r9, [r5, #16]
   10fa4:	eafffdf0 	b	1076c <dir_register+0x56c>
   10fa8:	e59f3048 	ldr	r3, [pc, #72]	; 10ff8 <dir_register+0xdf8>
   10fac:	eaffffa1 	b	10e38 <dir_register+0xc38>
   10fb0:	eb001b43 	bl	17cc4 <sync_window.part.2>
   10fb4:	e3500000 	cmp	r0, #0
   10fb8:	1afffde2 	bne	10748 <dir_register+0x548>
   10fbc:	e5950000 	ldr	r0, [r5]
   10fc0:	eaffff8c 	b	10df8 <dir_register+0xbf8>
   10fc4:	e59f3030 	ldr	r3, [pc, #48]	; 10ffc <dir_register+0xdfc>
   10fc8:	eaffff9a 	b	10e38 <dir_register+0xc38>
   10fcc:	e3a0ec02 	mov	lr, #512	; 0x200
   10fd0:	e1a0c001 	mov	ip, r1
   10fd4:	e1a0000e 	mov	r0, lr
   10fd8:	e1a0300e 	mov	r3, lr
   10fdc:	e3a0a080 	mov	sl, #128	; 0x80
   10fe0:	eaffff97 	b	10e44 <dir_register+0xc44>
   10fe4:	4ec4ec4f 	cdpmi	12, 12, cr14, cr4, cr15, {2}
   10fe8:	0001da2d 	andeq	sp, r1, sp, lsr #20
   10fec:	0000ffff 	strdeq	pc, [r0], -pc	; <UNPREDICTABLE>
   10ff0:	0001da20 	andeq	sp, r1, r0, lsr #20
   10ff4:	000001fd 	strdeq	r0, [r0], -sp
   10ff8:	000001fe 	strdeq	r0, [r0], -lr
   10ffc:	000001ff 	strdeq	r0, [r0], -pc	; <UNPREDICTABLE>

00011000 <follow_path>:
   11000:	e92d4ff0 	push	{r4, r5, r6, r7, r8, r9, sl, fp, lr}
   11004:	e5d13000 	ldrb	r3, [r1]
   11008:	e3a0b000 	mov	fp, #0
   1100c:	e353002f 	cmp	r3, #47	; 0x2f
   11010:	1353005c 	cmpne	r3, #92	; 0x5c
   11014:	e1a06001 	mov	r6, r1
   11018:	e580b008 	str	fp, [r0, #8]
   1101c:	02816001 	addeq	r6, r1, #1
   11020:	e1a08000 	mov	r8, r0
   11024:	e5d60000 	ldrb	r0, [r6]
   11028:	e24dd014 	sub	sp, sp, #20
   1102c:	e350001f 	cmp	r0, #31
   11030:	9a000120 	bls	114b8 <follow_path+0x4b8>
   11034:	e3a0a020 	mov	sl, #32
   11038:	e1a03000 	mov	r3, r0
   1103c:	e353002f 	cmp	r3, #47	; 0x2f
   11040:	1353005c 	cmpne	r3, #92	; 0x5c
   11044:	05f63001 	ldrbeq	r3, [r6, #1]!
   11048:	0afffffb 	beq	1103c <follow_path+0x3c>
   1104c:	e6ff0073 	uxth	r0, r3
   11050:	e350002f 	cmp	r0, #47	; 0x2f
   11054:	1350001f 	cmpne	r0, #31
   11058:	e598401c 	ldr	r4, [r8, #28]
   1105c:	93a07001 	movls	r7, #1
   11060:	83a07000 	movhi	r7, #0
   11064:	9a000022 	bls	110f4 <follow_path+0xf4>
   11068:	e350005c 	cmp	r0, #92	; 0x5c
   1106c:	0a000036 	beq	1114c <follow_path+0x14c>
   11070:	e3a01001 	mov	r1, #1
   11074:	eb001b35 	bl	17d50 <ff_convert>
   11078:	e3500000 	cmp	r0, #0
   1107c:	e2449002 	sub	r9, r4, #2
   11080:	e1a05006 	mov	r5, r6
   11084:	e3a07001 	mov	r7, #1
   11088:	0a000019 	beq	110f4 <follow_path+0xf4>
   1108c:	e350007f 	cmp	r0, #127	; 0x7f
   11090:	8a000008 	bhi	110b8 <follow_path+0xb8>
   11094:	e3500022 	cmp	r0, #34	; 0x22
   11098:	0a000015 	beq	110f4 <follow_path+0xf4>
   1109c:	e59f2438 	ldr	r2, [pc, #1080]	; 114dc <follow_path+0x4dc>
   110a0:	ea000001 	b	110ac <follow_path+0xac>
   110a4:	e1500003 	cmp	r0, r3
   110a8:	0a000011 	beq	110f4 <follow_path+0xf4>
   110ac:	e5f23001 	ldrb	r3, [r2, #1]!
   110b0:	e3530000 	cmp	r3, #0
   110b4:	1afffffa 	bne	110a4 <follow_path+0xa4>
   110b8:	e1e900b2 	strh	r0, [r9, #2]!
   110bc:	e5f50001 	ldrb	r0, [r5, #1]!
   110c0:	e2873001 	add	r3, r7, #1
   110c4:	e350002f 	cmp	r0, #47	; 0x2f
   110c8:	1350001f 	cmpne	r0, #31
   110cc:	9a00000b 	bls	11100 <follow_path+0x100>
   110d0:	e350005c 	cmp	r0, #92	; 0x5c
   110d4:	0a00001d 	beq	11150 <follow_path+0x150>
   110d8:	e3530041 	cmp	r3, #65	; 0x41
   110dc:	0a000004 	beq	110f4 <follow_path+0xf4>
   110e0:	e3a01001 	mov	r1, #1
   110e4:	e1a07003 	mov	r7, r3
   110e8:	eb001b18 	bl	17d50 <ff_convert>
   110ec:	e3500000 	cmp	r0, #0
   110f0:	1affffe5 	bne	1108c <follow_path+0x8c>
   110f4:	e3a00006 	mov	r0, #6
   110f8:	e28dd014 	add	sp, sp, #20
   110fc:	e8bd8ff0 	pop	{r4, r5, r6, r7, r8, r9, sl, fp, pc}
   11100:	e350001f 	cmp	r0, #31
   11104:	93a05004 	movls	r5, #4
   11108:	83a05000 	movhi	r5, #0
   1110c:	e0866003 	add	r6, r6, r3
   11110:	e2473106 	sub	r3, r7, #-2147483647	; 0x80000001
   11114:	e1a03083 	lsl	r3, r3, #1
   11118:	e19410b3 	ldrh	r1, [r4, r3]
   1111c:	e0842003 	add	r2, r4, r3
   11120:	e351002e 	cmp	r1, #46	; 0x2e
   11124:	13510020 	cmpne	r1, #32
   11128:	0a000004 	beq	11140 <follow_path+0x140>
   1112c:	ea00000c 	b	11164 <follow_path+0x164>
   11130:	e17230b2 	ldrh	r3, [r2, #-2]!
   11134:	e353002e 	cmp	r3, #46	; 0x2e
   11138:	13530020 	cmpne	r3, #32
   1113c:	1a000008 	bne	11164 <follow_path+0x164>
   11140:	e2577001 	subs	r7, r7, #1
   11144:	1afffff9 	bne	11130 <follow_path+0x130>
   11148:	eaffffe9 	b	110f4 <follow_path+0xf4>
   1114c:	e3a03001 	mov	r3, #1
   11150:	e3570000 	cmp	r7, #0
   11154:	e0866003 	add	r6, r6, r3
   11158:	0affffe5 	beq	110f4 <follow_path+0xf4>
   1115c:	e3a05000 	mov	r5, #0
   11160:	eaffffea 	b	11110 <follow_path+0x110>
   11164:	e5982018 	ldr	r2, [r8, #24]
   11168:	e1a03087 	lsl	r3, r7, #1
   1116c:	e184b0b3 	strh	fp, [r4, r3]
   11170:	e5c2a000 	strb	sl, [r2]
   11174:	e5c2a001 	strb	sl, [r2, #1]
   11178:	e5c2a002 	strb	sl, [r2, #2]
   1117c:	e5c2a003 	strb	sl, [r2, #3]
   11180:	e5c2a004 	strb	sl, [r2, #4]
   11184:	e5c2a005 	strb	sl, [r2, #5]
   11188:	e5c2a006 	strb	sl, [r2, #6]
   1118c:	e5c2a007 	strb	sl, [r2, #7]
   11190:	e5c2a008 	strb	sl, [r2, #8]
   11194:	e5c2a009 	strb	sl, [r2, #9]
   11198:	e5c2a00a 	strb	sl, [r2, #10]
   1119c:	e1d400b0 	ldrh	r0, [r4]
   111a0:	e0843003 	add	r3, r4, r3
   111a4:	e3500020 	cmp	r0, #32
   111a8:	1350002e 	cmpne	r0, #46	; 0x2e
   111ac:	03a09001 	moveq	r9, #1
   111b0:	13a09000 	movne	r9, #0
   111b4:	1a000007 	bne	111d8 <follow_path+0x1d8>
   111b8:	e1a02004 	mov	r2, r4
   111bc:	e3a09000 	mov	r9, #0
   111c0:	e1f200b2 	ldrh	r0, [r2, #2]!
   111c4:	e2899001 	add	r9, r9, #1
   111c8:	e3500020 	cmp	r0, #32
   111cc:	1350002e 	cmpne	r0, #46	; 0x2e
   111d0:	0afffffa 	beq	111c0 <follow_path+0x1c0>
   111d4:	e3855003 	orr	r5, r5, #3
   111d8:	e17320b2 	ldrh	r2, [r3, #-2]!
   111dc:	e352002e 	cmp	r2, #46	; 0x2e
   111e0:	0a000001 	beq	111ec <follow_path+0x1ec>
   111e4:	e2577001 	subs	r7, r7, #1
   111e8:	1afffffa 	bne	111d8 <follow_path+0x1d8>
   111ec:	e3a03000 	mov	r3, #0
   111f0:	e3a02008 	mov	r2, #8
   111f4:	e1a01006 	mov	r1, r6
   111f8:	e1a0c003 	mov	ip, r3
   111fc:	e1a06004 	mov	r6, r4
   11200:	e1a04003 	mov	r4, r3
   11204:	e1a03008 	mov	r3, r8
   11208:	e1a08002 	mov	r8, r2
   1120c:	e1a02001 	mov	r2, r1
   11210:	e3500000 	cmp	r0, #0
   11214:	e2899001 	add	r9, r9, #1
   11218:	0a000014 	beq	11270 <follow_path+0x270>
   1121c:	e3500020 	cmp	r0, #32
   11220:	0a000049 	beq	1134c <follow_path+0x34c>
   11224:	e057e009 	subs	lr, r7, r9
   11228:	13a0e001 	movne	lr, #1
   1122c:	e350002e 	cmp	r0, #46	; 0x2e
   11230:	13a01000 	movne	r1, #0
   11234:	020e1001 	andeq	r1, lr, #1
   11238:	e3510000 	cmp	r1, #0
   1123c:	1a000042 	bne	1134c <follow_path+0x34c>
   11240:	e1570009 	cmp	r7, r9
   11244:	11540008 	cmpne	r4, r8
   11248:	23a01001 	movcs	r1, #1
   1124c:	33a01000 	movcc	r1, #0
   11250:	3a000049 	bcc	1137c <follow_path+0x37c>
   11254:	e358000b 	cmp	r8, #11
   11258:	0a000088 	beq	11480 <follow_path+0x480>
   1125c:	e35e0000 	cmp	lr, #0
   11260:	0a00006f 	beq	11424 <follow_path+0x424>
   11264:	e1570009 	cmp	r7, r9
   11268:	e3855003 	orr	r5, r5, #3
   1126c:	2a00006c 	bcs	11424 <follow_path+0x424>
   11270:	e1a06002 	mov	r6, r2
   11274:	e1a02008 	mov	r2, r8
   11278:	e1a08003 	mov	r8, r3
   1127c:	e5933018 	ldr	r3, [r3, #24]
   11280:	e5d31000 	ldrb	r1, [r3]
   11284:	e35100e5 	cmp	r1, #229	; 0xe5
   11288:	11a0100c 	movne	r1, ip
   1128c:	0a000084 	beq	114a4 <follow_path+0x4a4>
   11290:	e3520008 	cmp	r2, #8
   11294:	01a0c10c 	lsleq	ip, ip, #2
   11298:	06ef107c 	uxtbeq	r1, ip
   1129c:	e201200c 	and	r2, r1, #12
   112a0:	e352000c 	cmp	r2, #12
   112a4:	0a000064 	beq	1143c <follow_path+0x43c>
   112a8:	e2010003 	and	r0, r1, #3
   112ac:	e3500003 	cmp	r0, #3
   112b0:	0a000061 	beq	1143c <follow_path+0x43c>
   112b4:	e3150002 	tst	r5, #2
   112b8:	1a000004 	bne	112d0 <follow_path+0x2d0>
   112bc:	e2011003 	and	r1, r1, #3
   112c0:	e3510001 	cmp	r1, #1
   112c4:	03855010 	orreq	r5, r5, #16
   112c8:	e3520004 	cmp	r2, #4
   112cc:	03855008 	orreq	r5, r5, #8
   112d0:	e5c3500b 	strb	r5, [r3, #11]
   112d4:	e1a00008 	mov	r0, r8
   112d8:	e3a01000 	mov	r1, #0
   112dc:	ebfff653 	bl	ec30 <dir_sdi>
   112e0:	e3500000 	cmp	r0, #0
   112e4:	1a00001c 	bne	1135c <follow_path+0x35c>
   112e8:	e1a00008 	mov	r0, r8
   112ec:	ebfffa8c 	bl	fd24 <dir_find.part.7>
   112f0:	e5983018 	ldr	r3, [r8, #24]
   112f4:	e3500000 	cmp	r0, #0
   112f8:	e5d3300b 	ldrb	r3, [r3, #11]
   112fc:	1a000018 	bne	11364 <follow_path+0x364>
   11300:	e3130004 	tst	r3, #4
   11304:	1affff7b 	bne	110f8 <follow_path+0xf8>
   11308:	e5982014 	ldr	r2, [r8, #20]
   1130c:	e5d2300b 	ldrb	r3, [r2, #11]
   11310:	e3130010 	tst	r3, #16
   11314:	0a00006d 	beq	114d0 <follow_path+0x4d0>
   11318:	e5983000 	ldr	r3, [r8]
   1131c:	e5d2101b 	ldrb	r1, [r2, #27]
   11320:	e5d30000 	ldrb	r0, [r3]
   11324:	e5d2301a 	ldrb	r3, [r2, #26]
   11328:	e3500003 	cmp	r0, #3
   1132c:	e1833401 	orr	r3, r3, r1, lsl #8
   11330:	05d21015 	ldrbeq	r1, [r2, #21]
   11334:	05d22014 	ldrbeq	r2, [r2, #20]
   11338:	01822401 	orreq	r2, r2, r1, lsl #8
   1133c:	01833802 	orreq	r3, r3, r2, lsl #16
   11340:	e5883008 	str	r3, [r8, #8]
   11344:	e5d63000 	ldrb	r3, [r6]
   11348:	eaffff3b 	b	1103c <follow_path+0x3c>
   1134c:	e3855003 	orr	r5, r5, #3
   11350:	e1a01089 	lsl	r1, r9, #1
   11354:	e19600b1 	ldrh	r0, [r6, r1]
   11358:	eaffffac 	b	11210 <follow_path+0x210>
   1135c:	e5983018 	ldr	r3, [r8, #24]
   11360:	e5d3300b 	ldrb	r3, [r3, #11]
   11364:	e3500004 	cmp	r0, #4
   11368:	1affff62 	bne	110f8 <follow_path+0xf8>
   1136c:	e3130004 	tst	r3, #4
   11370:	03a00005 	moveq	r0, #5
   11374:	e28dd014 	add	sp, sp, #20
   11378:	e8bd8ff0 	pop	{r4, r5, r6, r7, r8, r9, sl, fp, pc}
   1137c:	e350007f 	cmp	r0, #127	; 0x7f
   11380:	8a000012 	bhi	113d0 <follow_path+0x3d0>
   11384:	e350002b 	cmp	r0, #43	; 0x2b
   11388:	159fe150 	ldrne	lr, [pc, #336]	; 114e0 <follow_path+0x4e0>
   1138c:	1a000002 	bne	1139c <follow_path+0x39c>
   11390:	ea00001d 	b	1140c <follow_path+0x40c>
   11394:	e1500001 	cmp	r0, r1
   11398:	0a00001b 	beq	1140c <follow_path+0x40c>
   1139c:	e5fe1001 	ldrb	r1, [lr, #1]!
   113a0:	e3510000 	cmp	r1, #0
   113a4:	1afffffa 	bne	11394 <follow_path+0x394>
   113a8:	e2401041 	sub	r1, r0, #65	; 0x41
   113ac:	e6ff1071 	uxth	r1, r1
   113b0:	e3510019 	cmp	r1, #25
   113b4:	938cc002 	orrls	ip, ip, #2
   113b8:	96ef0070 	uxtbls	r0, r0
   113bc:	8a000024 	bhi	11454 <follow_path+0x454>
   113c0:	e5931018 	ldr	r1, [r3, #24]
   113c4:	e7c10004 	strb	r0, [r1, r4]
   113c8:	e2844001 	add	r4, r4, #1
   113cc:	eaffffdf 	b	11350 <follow_path+0x350>
   113d0:	e58d200c 	str	r2, [sp, #12]
   113d4:	e58d3008 	str	r3, [sp, #8]
   113d8:	e58dc004 	str	ip, [sp, #4]
   113dc:	eb001a5b 	bl	17d50 <ff_convert>
   113e0:	e3500000 	cmp	r0, #0
   113e4:	e59dc004 	ldr	ip, [sp, #4]
   113e8:	e59d3008 	ldr	r3, [sp, #8]
   113ec:	e59d200c 	ldr	r2, [sp, #12]
   113f0:	0a000013 	beq	11444 <follow_path+0x444>
   113f4:	e59f10e8 	ldr	r1, [pc, #232]	; 114e4 <follow_path+0x4e4>
   113f8:	e3855002 	orr	r5, r5, #2
   113fc:	e0811000 	add	r1, r1, r0
   11400:	e5510070 	ldrb	r0, [r1, #-112]	; 0xffffff90
   11404:	e3500000 	cmp	r0, #0
   11408:	1affffdd 	bne	11384 <follow_path+0x384>
   1140c:	e3a0005f 	mov	r0, #95	; 0x5f
   11410:	e3855003 	orr	r5, r5, #3
   11414:	e5931018 	ldr	r1, [r3, #24]
   11418:	e7c10004 	strb	r0, [r1, r4]
   1141c:	e2844001 	add	r4, r4, #1
   11420:	eaffffca 	b	11350 <follow_path+0x350>
   11424:	e1a0c10c 	lsl	ip, ip, #2
   11428:	e6efc07c 	uxtb	ip, ip
   1142c:	e1a09007 	mov	r9, r7
   11430:	e3a0800b 	mov	r8, #11
   11434:	e3a04008 	mov	r4, #8
   11438:	eaffffc4 	b	11350 <follow_path+0x350>
   1143c:	e3855002 	orr	r5, r5, #2
   11440:	eaffff9b 	b	112b4 <follow_path+0x2b4>
   11444:	e3855002 	orr	r5, r5, #2
   11448:	e3855003 	orr	r5, r5, #3
   1144c:	e3a0005f 	mov	r0, #95	; 0x5f
   11450:	eaffffef 	b	11414 <follow_path+0x414>
   11454:	e2401061 	sub	r1, r0, #97	; 0x61
   11458:	e6ff1071 	uxth	r1, r1
   1145c:	e3510019 	cmp	r1, #25
   11460:	92400020 	subls	r0, r0, #32
   11464:	e5931018 	ldr	r1, [r3, #24]
   11468:	86ef0070 	uxtbhi	r0, r0
   1146c:	96ef0070 	uxtbls	r0, r0
   11470:	e7c10004 	strb	r0, [r1, r4]
   11474:	938cc001 	orrls	ip, ip, #1
   11478:	e2844001 	add	r4, r4, #1
   1147c:	eaffffb3 	b	11350 <follow_path+0x350>
   11480:	e1a06002 	mov	r6, r2
   11484:	e1a02008 	mov	r2, r8
   11488:	e1a08003 	mov	r8, r3
   1148c:	e5933018 	ldr	r3, [r3, #24]
   11490:	e3855003 	orr	r5, r5, #3
   11494:	e5d30000 	ldrb	r0, [r3]
   11498:	e1a0100c 	mov	r1, ip
   1149c:	e35000e5 	cmp	r0, #229	; 0xe5
   114a0:	1affff7d 	bne	1129c <follow_path+0x29c>
   114a4:	e3a01005 	mov	r1, #5
   114a8:	e5c31000 	strb	r1, [r3]
   114ac:	e5983018 	ldr	r3, [r8, #24]
   114b0:	e1a0100c 	mov	r1, ip
   114b4:	eaffff75 	b	11290 <follow_path+0x290>
   114b8:	e1a00008 	mov	r0, r8
   114bc:	e1a0100b 	mov	r1, fp
   114c0:	ebfff5da 	bl	ec30 <dir_sdi>
   114c4:	e588b014 	str	fp, [r8, #20]
   114c8:	e28dd014 	add	sp, sp, #20
   114cc:	e8bd8ff0 	pop	{r4, r5, r6, r7, r8, r9, sl, fp, pc}
   114d0:	e3a00005 	mov	r0, #5
   114d4:	e28dd014 	add	sp, sp, #20
   114d8:	e8bd8ff0 	pop	{r4, r5, r6, r7, r8, r9, sl, fp, pc}
   114dc:	0001e978 	andeq	lr, r1, r8, ror r9
   114e0:	0001e984 	andeq	lr, r1, r4, lsl #19
   114e4:	0001da20 	andeq	sp, r1, r0, lsr #20

000114e8 <chk_mounted>:
   114e8:	e92d4ff0 	push	{r4, r5, r6, r7, r8, r9, sl, fp, lr}
   114ec:	e590c000 	ldr	ip, [r0]
   114f0:	e24dd00c 	sub	sp, sp, #12
   114f4:	e5dc3000 	ldrb	r3, [ip]
   114f8:	e2433030 	sub	r3, r3, #48	; 0x30
   114fc:	e3530009 	cmp	r3, #9
   11500:	8a000002 	bhi	11510 <chk_mounted+0x28>
   11504:	e5dce001 	ldrb	lr, [ip, #1]
   11508:	e35e003a 	cmp	lr, #58	; 0x3a
   1150c:	0a000017 	beq	11570 <chk_mounted+0x88>
   11510:	e3a03000 	mov	r3, #0
   11514:	e5813000 	str	r3, [r1]
   11518:	e59f6570 	ldr	r6, [pc, #1392]	; 11a90 <chk_mounted+0x5a8>
   1151c:	e5965000 	ldr	r5, [r6]
   11520:	e3550000 	cmp	r5, #0
   11524:	03a0000c 	moveq	r0, #12
   11528:	0a00000e 	beq	11568 <chk_mounted+0x80>
   1152c:	e5815000 	str	r5, [r1]
   11530:	e5d53000 	ldrb	r3, [r5]
   11534:	e1a04002 	mov	r4, r2
   11538:	e3530000 	cmp	r3, #0
   1153c:	0a000014 	beq	11594 <chk_mounted+0xac>
   11540:	e5d50001 	ldrb	r0, [r5, #1]
   11544:	eb001a5d 	bl	17ec0 <disk_status>
   11548:	e3100001 	tst	r0, #1
   1154c:	1a000010 	bne	11594 <chk_mounted+0xac>
   11550:	e3540000 	cmp	r4, #0
   11554:	01a00004 	moveq	r0, r4
   11558:	0a000002 	beq	11568 <chk_mounted+0x80>
   1155c:	e2000004 	and	r0, r0, #4
   11560:	e21000ff 	ands	r0, r0, #255	; 0xff
   11564:	1a000015 	bne	115c0 <chk_mounted+0xd8>
   11568:	e28dd00c 	add	sp, sp, #12
   1156c:	e8bd8ff0 	pop	{r4, r5, r6, r7, r8, r9, sl, fp, pc}
   11570:	e3a0e000 	mov	lr, #0
   11574:	e28cc002 	add	ip, ip, #2
   11578:	e153000e 	cmp	r3, lr
   1157c:	e580c000 	str	ip, [r0]
   11580:	e581e000 	str	lr, [r1]
   11584:	13a0000b 	movne	r0, #11
   11588:	0affffe2 	beq	11518 <chk_mounted+0x30>
   1158c:	e28dd00c 	add	sp, sp, #12
   11590:	e8bd8ff0 	pop	{r4, r5, r6, r7, r8, r9, sl, fp, pc}
   11594:	e3a00000 	mov	r0, #0
   11598:	e5c50000 	strb	r0, [r5]
   1159c:	e5c50001 	strb	r0, [r5, #1]
   115a0:	eb001a15 	bl	17dfc <disk_initialize>
   115a4:	e3100001 	tst	r0, #1
   115a8:	13a00003 	movne	r0, #3
   115ac:	1affffed 	bne	11568 <chk_mounted+0x80>
   115b0:	e3540000 	cmp	r4, #0
   115b4:	0a000003 	beq	115c8 <chk_mounted+0xe0>
   115b8:	e3100004 	tst	r0, #4
   115bc:	0a000001 	beq	115c8 <chk_mounted+0xe0>
   115c0:	e3a0000a 	mov	r0, #10
   115c4:	eaffffe7 	b	11568 <chk_mounted+0x80>
   115c8:	e2854034 	add	r4, r5, #52	; 0x34
   115cc:	e1a01004 	mov	r1, r4
   115d0:	e5d50001 	ldrb	r0, [r5, #1]
   115d4:	e3a02000 	mov	r2, #0
   115d8:	e3a03001 	mov	r3, #1
   115dc:	eb001a17 	bl	17e40 <disk_read>
   115e0:	e3500000 	cmp	r0, #0
   115e4:	0a000001 	beq	115f0 <chk_mounted+0x108>
   115e8:	e3a00001 	mov	r0, #1
   115ec:	eaffffdd 	b	11568 <chk_mounted+0x80>
   115f0:	e5d53232 	ldrb	r3, [r5, #562]	; 0x232
   115f4:	e5d59233 	ldrb	r9, [r5, #563]	; 0x233
   115f8:	e59f2494 	ldr	r2, [pc, #1172]	; 11a94 <chk_mounted+0x5ac>
   115fc:	e1839409 	orr	r9, r3, r9, lsl #8
   11600:	e6bf9079 	sxth	r9, r9
   11604:	e1590002 	cmp	r9, r2
   11608:	13a03002 	movne	r3, #2
   1160c:	0a00007f 	beq	11810 <chk_mounted+0x328>
   11610:	e3a07000 	mov	r7, #0
   11614:	e3530000 	cmp	r3, #0
   11618:	0a000001 	beq	11624 <chk_mounted+0x13c>
   1161c:	e3a0000d 	mov	r0, #13
   11620:	eaffffd0 	b	11568 <chk_mounted+0x80>
   11624:	e5d52040 	ldrb	r2, [r5, #64]	; 0x40
   11628:	e5d5303f 	ldrb	r3, [r5, #63]	; 0x3f
   1162c:	e1833402 	orr	r3, r3, r2, lsl #8
   11630:	e3530c02 	cmp	r3, #512	; 0x200
   11634:	1afffff8 	bne	1161c <chk_mounted+0x134>
   11638:	e5d5904b 	ldrb	r9, [r5, #75]	; 0x4b
   1163c:	e5d5304a 	ldrb	r3, [r5, #74]	; 0x4a
   11640:	e1933409 	orrs	r3, r3, r9, lsl #8
   11644:	11a09003 	movne	r9, r3
   11648:	05d5305a 	ldrbeq	r3, [r5, #90]	; 0x5a
   1164c:	05d5105b 	ldrbeq	r1, [r5, #91]	; 0x5b
   11650:	01a03803 	lsleq	r3, r3, #16
   11654:	05d52058 	ldrbeq	r2, [r5, #88]	; 0x58
   11658:	01833c01 	orreq	r3, r3, r1, lsl #24
   1165c:	05d59059 	ldrbeq	r9, [r5, #89]	; 0x59
   11660:	01833002 	orreq	r3, r3, r2
   11664:	01839409 	orreq	r9, r3, r9, lsl #8
   11668:	e5d53044 	ldrb	r3, [r5, #68]	; 0x44
   1166c:	e585901c 	str	r9, [r5, #28]
   11670:	e2432001 	sub	r2, r3, #1
   11674:	e3520001 	cmp	r2, #1
   11678:	e5c53003 	strb	r3, [r5, #3]
   1167c:	8affffe6 	bhi	1161c <chk_mounted+0x134>
   11680:	e5d51041 	ldrb	r1, [r5, #65]	; 0x41
   11684:	e3510000 	cmp	r1, #0
   11688:	e5c51002 	strb	r1, [r5, #2]
   1168c:	0affffe2 	beq	1161c <chk_mounted+0x134>
   11690:	e2412001 	sub	r2, r1, #1
   11694:	e1120001 	tst	r2, r1
   11698:	1affffdf 	bne	1161c <chk_mounted+0x134>
   1169c:	e5d5b046 	ldrb	fp, [r5, #70]	; 0x46
   116a0:	e5d52045 	ldrb	r2, [r5, #69]	; 0x45
   116a4:	e182b40b 	orr	fp, r2, fp, lsl #8
   116a8:	e31b000f 	tst	fp, #15
   116ac:	e1c5b0b8 	strh	fp, [r5, #8]
   116b0:	1affffd9 	bne	1161c <chk_mounted+0x134>
   116b4:	e5d50048 	ldrb	r0, [r5, #72]	; 0x48
   116b8:	e5d52047 	ldrb	r2, [r5, #71]	; 0x47
   116bc:	e1920400 	orrs	r0, r2, r0, lsl #8
   116c0:	1a000007 	bne	116e4 <chk_mounted+0x1fc>
   116c4:	e5d52056 	ldrb	r2, [r5, #86]	; 0x56
   116c8:	e5d5c057 	ldrb	ip, [r5, #87]	; 0x57
   116cc:	e5d50054 	ldrb	r0, [r5, #84]	; 0x54
   116d0:	e1a02802 	lsl	r2, r2, #16
   116d4:	e1822c0c 	orr	r2, r2, ip, lsl #24
   116d8:	e5d5c055 	ldrb	ip, [r5, #85]	; 0x55
   116dc:	e1822000 	orr	r2, r2, r0
   116e0:	e182040c 	orr	r0, r2, ip, lsl #8
   116e4:	e5d58043 	ldrb	r8, [r5, #67]	; 0x43
   116e8:	e5d52042 	ldrb	r2, [r5, #66]	; 0x42
   116ec:	e1928408 	orrs	r8, r2, r8, lsl #8
   116f0:	0affffc9 	beq	1161c <chk_mounted+0x134>
   116f4:	e0030993 	mul	r3, r3, r9
   116f8:	e088a22b 	add	sl, r8, fp, lsr #4
   116fc:	e08aa003 	add	sl, sl, r3
   11700:	e150000a 	cmp	r0, sl
   11704:	3affffc4 	bcc	1161c <chk_mounted+0x134>
   11708:	e06a0000 	rsb	r0, sl, r0
   1170c:	e58d3004 	str	r3, [sp, #4]
   11710:	eb002d9a 	bl	1cd80 <__aeabi_uidiv>
   11714:	e3500000 	cmp	r0, #0
   11718:	e59d3004 	ldr	r3, [sp, #4]
   1171c:	0affffbe 	beq	1161c <chk_mounted+0x134>
   11720:	e59f2370 	ldr	r2, [pc, #880]	; 11a98 <chk_mounted+0x5b0>
   11724:	e1500002 	cmp	r0, r2
   11728:	9a0000c0 	bls	11a30 <chk_mounted+0x548>
   1172c:	e2822a0f 	add	r2, r2, #61440	; 0xf000
   11730:	e1500002 	cmp	r0, r2
   11734:	9a0000a7 	bls	119d8 <chk_mounted+0x4f0>
   11738:	e2800002 	add	r0, r0, #2
   1173c:	e0878008 	add	r8, r7, r8
   11740:	e08aa007 	add	sl, sl, r7
   11744:	e35b0000 	cmp	fp, #0
   11748:	e5850018 	str	r0, [r5, #24]
   1174c:	e5858024 	str	r8, [r5, #36]	; 0x24
   11750:	e585a02c 	str	sl, [r5, #44]	; 0x2c
   11754:	e5857020 	str	r7, [r5, #32]
   11758:	1affffaf 	bne	1161c <chk_mounted+0x134>
   1175c:	e5d53062 	ldrb	r3, [r5, #98]	; 0x62
   11760:	e5d51063 	ldrb	r1, [r5, #99]	; 0x63
   11764:	e1a03803 	lsl	r3, r3, #16
   11768:	e5d52060 	ldrb	r2, [r5, #96]	; 0x60
   1176c:	e1833c01 	orr	r3, r3, r1, lsl #24
   11770:	e1a00100 	lsl	r0, r0, #2
   11774:	e5d5c061 	ldrb	ip, [r5, #97]	; 0x61
   11778:	e2801f7f 	add	r1, r0, #508	; 0x1fc
   1177c:	e1833002 	orr	r3, r3, r2
   11780:	e183340c 	orr	r3, r3, ip, lsl #8
   11784:	e15904a1 	cmp	r9, r1, lsr #9
   11788:	e5853028 	str	r3, [r5, #40]	; 0x28
   1178c:	3affffa2 	bcc	1161c <chk_mounted+0x134>
   11790:	e3e00000 	mvn	r0, #0
   11794:	e5d53064 	ldrb	r3, [r5, #100]	; 0x64
   11798:	e5d52065 	ldrb	r2, [r5, #101]	; 0x65
   1179c:	e5850010 	str	r0, [r5, #16]
   117a0:	e1832402 	orr	r2, r3, r2, lsl #8
   117a4:	e0872002 	add	r2, r7, r2
   117a8:	e585b00c 	str	fp, [r5, #12]
   117ac:	e5c5b005 	strb	fp, [r5, #5]
   117b0:	e1a01004 	mov	r1, r4
   117b4:	e5852014 	str	r2, [r5, #20]
   117b8:	e5d50001 	ldrb	r0, [r5, #1]
   117bc:	e3a03001 	mov	r3, #1
   117c0:	eb00199e 	bl	17e40 <disk_read>
   117c4:	e3500000 	cmp	r0, #0
   117c8:	1a000005 	bne	117e4 <chk_mounted+0x2fc>
   117cc:	e5d51233 	ldrb	r1, [r5, #563]	; 0x233
   117d0:	e5d53232 	ldrb	r3, [r5, #562]	; 0x232
   117d4:	e59f22c0 	ldr	r2, [pc, #704]	; 11a9c <chk_mounted+0x5b4>
   117d8:	e1833401 	orr	r3, r3, r1, lsl #8
   117dc:	e1530002 	cmp	r3, r2
   117e0:	0a000052 	beq	11930 <chk_mounted+0x448>
   117e4:	e3a03003 	mov	r3, #3
   117e8:	e3a00000 	mov	r0, #0
   117ec:	e1d620b4 	ldrh	r2, [r6, #4]
   117f0:	e5c53000 	strb	r3, [r5]
   117f4:	e2823001 	add	r3, r2, #1
   117f8:	e6ff3073 	uxth	r3, r3
   117fc:	e1c630b4 	strh	r3, [r6, #4]
   11800:	e1c530b6 	strh	r3, [r5, #6]
   11804:	e5850030 	str	r0, [r5, #48]	; 0x30
   11808:	e5c50004 	strb	r0, [r5, #4]
   1180c:	eaffff55 	b	11568 <chk_mounted+0x80>
   11810:	e5d5306c 	ldrb	r3, [r5, #108]	; 0x6c
   11814:	e5d5106d 	ldrb	r1, [r5, #109]	; 0x6d
   11818:	e1a03803 	lsl	r3, r3, #16
   1181c:	e5d5206a 	ldrb	r2, [r5, #106]	; 0x6a
   11820:	e1833c01 	orr	r3, r3, r1, lsl #24
   11824:	e5d5106b 	ldrb	r1, [r5, #107]	; 0x6b
   11828:	e1833002 	orr	r3, r3, r2
   1182c:	e1833401 	orr	r3, r3, r1, lsl #8
   11830:	e59f8268 	ldr	r8, [pc, #616]	; 11aa0 <chk_mounted+0x5b8>
   11834:	e3c334ff 	bic	r3, r3, #-16777216	; 0xff000000
   11838:	e1530008 	cmp	r3, r8
   1183c:	0a000039 	beq	11928 <chk_mounted+0x440>
   11840:	e5d53088 	ldrb	r3, [r5, #136]	; 0x88
   11844:	e5d51089 	ldrb	r1, [r5, #137]	; 0x89
   11848:	e1a03803 	lsl	r3, r3, #16
   1184c:	e5d52086 	ldrb	r2, [r5, #134]	; 0x86
   11850:	e1833c01 	orr	r3, r3, r1, lsl #24
   11854:	e5d51087 	ldrb	r1, [r5, #135]	; 0x87
   11858:	e1833002 	orr	r3, r3, r2
   1185c:	e1833401 	orr	r3, r3, r1, lsl #8
   11860:	e3c334ff 	bic	r3, r3, #-16777216	; 0xff000000
   11864:	e1530008 	cmp	r3, r8
   11868:	0a00002e 	beq	11928 <chk_mounted+0x440>
   1186c:	e5d531f6 	ldrb	r3, [r5, #502]	; 0x1f6
   11870:	e3530000 	cmp	r3, #0
   11874:	0affff68 	beq	1161c <chk_mounted+0x134>
   11878:	e5d531fc 	ldrb	r3, [r5, #508]	; 0x1fc
   1187c:	e5d511fd 	ldrb	r1, [r5, #509]	; 0x1fd
   11880:	e5d521fa 	ldrb	r2, [r5, #506]	; 0x1fa
   11884:	e1a03803 	lsl	r3, r3, #16
   11888:	e1833c01 	orr	r3, r3, r1, lsl #24
   1188c:	e5d571fb 	ldrb	r7, [r5, #507]	; 0x1fb
   11890:	e1833002 	orr	r3, r3, r2
   11894:	e1837407 	orr	r7, r3, r7, lsl #8
   11898:	e1a02007 	mov	r2, r7
   1189c:	e5d50001 	ldrb	r0, [r5, #1]
   118a0:	e1a01004 	mov	r1, r4
   118a4:	e3a03001 	mov	r3, #1
   118a8:	eb001964 	bl	17e40 <disk_read>
   118ac:	e3500000 	cmp	r0, #0
   118b0:	1affff4c 	bne	115e8 <chk_mounted+0x100>
   118b4:	e5d52233 	ldrb	r2, [r5, #563]	; 0x233
   118b8:	e5d53232 	ldrb	r3, [r5, #562]	; 0x232
   118bc:	e1833402 	orr	r3, r3, r2, lsl #8
   118c0:	e6bf3073 	sxth	r3, r3
   118c4:	e1530009 	cmp	r3, r9
   118c8:	1affff53 	bne	1161c <chk_mounted+0x134>
   118cc:	e5d5306c 	ldrb	r3, [r5, #108]	; 0x6c
   118d0:	e5d5106d 	ldrb	r1, [r5, #109]	; 0x6d
   118d4:	e1a03803 	lsl	r3, r3, #16
   118d8:	e5d5206a 	ldrb	r2, [r5, #106]	; 0x6a
   118dc:	e1833c01 	orr	r3, r3, r1, lsl #24
   118e0:	e5d5106b 	ldrb	r1, [r5, #107]	; 0x6b
   118e4:	e1833002 	orr	r3, r3, r2
   118e8:	e1833401 	orr	r3, r3, r1, lsl #8
   118ec:	e3c334ff 	bic	r3, r3, #-16777216	; 0xff000000
   118f0:	e1530008 	cmp	r3, r8
   118f4:	0affff4a 	beq	11624 <chk_mounted+0x13c>
   118f8:	e5d53088 	ldrb	r3, [r5, #136]	; 0x88
   118fc:	e5d50089 	ldrb	r0, [r5, #137]	; 0x89
   11900:	e1a03803 	lsl	r3, r3, #16
   11904:	e5d52086 	ldrb	r2, [r5, #134]	; 0x86
   11908:	e1830c00 	orr	r0, r3, r0, lsl #24
   1190c:	e5d53087 	ldrb	r3, [r5, #135]	; 0x87
   11910:	e1800002 	orr	r0, r0, r2
   11914:	e1803403 	orr	r3, r0, r3, lsl #8
   11918:	e3c334ff 	bic	r3, r3, #-16777216	; 0xff000000
   1191c:	e0533008 	subs	r3, r3, r8
   11920:	13a03001 	movne	r3, #1
   11924:	eaffff3a 	b	11614 <chk_mounted+0x12c>
   11928:	e1a03000 	mov	r3, r0
   1192c:	eaffff37 	b	11610 <chk_mounted+0x128>
   11930:	e5d53036 	ldrb	r3, [r5, #54]	; 0x36
   11934:	e5d51037 	ldrb	r1, [r5, #55]	; 0x37
   11938:	e5d52034 	ldrb	r2, [r5, #52]	; 0x34
   1193c:	e1a03803 	lsl	r3, r3, #16
   11940:	e1833c01 	orr	r3, r3, r1, lsl #24
   11944:	e5d51035 	ldrb	r1, [r5, #53]	; 0x35
   11948:	e1833002 	orr	r3, r3, r2
   1194c:	e59f2150 	ldr	r2, [pc, #336]	; 11aa4 <chk_mounted+0x5bc>
   11950:	e1833401 	orr	r3, r3, r1, lsl #8
   11954:	e1530002 	cmp	r3, r2
   11958:	1affffa1 	bne	117e4 <chk_mounted+0x2fc>
   1195c:	e5d5321a 	ldrb	r3, [r5, #538]	; 0x21a
   11960:	e5d5121b 	ldrb	r1, [r5, #539]	; 0x21b
   11964:	e5d52218 	ldrb	r2, [r5, #536]	; 0x218
   11968:	e1a03803 	lsl	r3, r3, #16
   1196c:	e1833c01 	orr	r3, r3, r1, lsl #24
   11970:	e5d51219 	ldrb	r1, [r5, #537]	; 0x219
   11974:	e1833002 	orr	r3, r3, r2
   11978:	e59f2128 	ldr	r2, [pc, #296]	; 11aa8 <chk_mounted+0x5c0>
   1197c:	e1833401 	orr	r3, r3, r1, lsl #8
   11980:	e1530002 	cmp	r3, r2
   11984:	1affff96 	bne	117e4 <chk_mounted+0x2fc>
   11988:	e5d50222 	ldrb	r0, [r5, #546]	; 0x222
   1198c:	e5d5321e 	ldrb	r3, [r5, #542]	; 0x21e
   11990:	e5d5e223 	ldrb	lr, [r5, #547]	; 0x223
   11994:	e5d5c21f 	ldrb	ip, [r5, #543]	; 0x21f
   11998:	e5d5221c 	ldrb	r2, [r5, #540]	; 0x21c
   1199c:	e1a00800 	lsl	r0, r0, #16
   119a0:	e5d51220 	ldrb	r1, [r5, #544]	; 0x220
   119a4:	e1a03803 	lsl	r3, r3, #16
   119a8:	e1800c0e 	orr	r0, r0, lr, lsl #24
   119ac:	e1833c0c 	orr	r3, r3, ip, lsl #24
   119b0:	e5d5e221 	ldrb	lr, [r5, #545]	; 0x221
   119b4:	e5d5c21d 	ldrb	ip, [r5, #541]	; 0x21d
   119b8:	e1833002 	orr	r3, r3, r2
   119bc:	e1801001 	orr	r1, r0, r1
   119c0:	e183340c 	orr	r3, r3, ip, lsl #8
   119c4:	e181240e 	orr	r2, r1, lr, lsl #8
   119c8:	e5853010 	str	r3, [r5, #16]
   119cc:	e585200c 	str	r2, [r5, #12]
   119d0:	e3a03003 	mov	r3, #3
   119d4:	eaffff83 	b	117e8 <chk_mounted+0x300>
   119d8:	e2800002 	add	r0, r0, #2
   119dc:	e0878008 	add	r8, r7, r8
   119e0:	e08aa007 	add	sl, sl, r7
   119e4:	e35b0000 	cmp	fp, #0
   119e8:	e5850018 	str	r0, [r5, #24]
   119ec:	e5858024 	str	r8, [r5, #36]	; 0x24
   119f0:	e585a02c 	str	sl, [r5, #44]	; 0x2c
   119f4:	e5857020 	str	r7, [r5, #32]
   119f8:	0affff07 	beq	1161c <chk_mounted+0x134>
   119fc:	e1a02080 	lsl	r2, r0, #1
   11a00:	e2822f7f 	add	r2, r2, #508	; 0x1fc
   11a04:	e2822003 	add	r2, r2, #3
   11a08:	e0838008 	add	r8, r3, r8
   11a0c:	e15904a2 	cmp	r9, r2, lsr #9
   11a10:	e5858028 	str	r8, [r5, #40]	; 0x28
   11a14:	3affff00 	bcc	1161c <chk_mounted+0x134>
   11a18:	e3a03000 	mov	r3, #0
   11a1c:	e3e02000 	mvn	r2, #0
   11a20:	e585300c 	str	r3, [r5, #12]
   11a24:	e5852010 	str	r2, [r5, #16]
   11a28:	e3a03002 	mov	r3, #2
   11a2c:	eaffff6d 	b	117e8 <chk_mounted+0x300>
   11a30:	e2800002 	add	r0, r0, #2
   11a34:	e0878008 	add	r8, r7, r8
   11a38:	e08aa007 	add	sl, sl, r7
   11a3c:	e35b0000 	cmp	fp, #0
   11a40:	e5850018 	str	r0, [r5, #24]
   11a44:	e5858024 	str	r8, [r5, #36]	; 0x24
   11a48:	e585a02c 	str	sl, [r5, #44]	; 0x2c
   11a4c:	e5857020 	str	r7, [r5, #32]
   11a50:	0afffef1 	beq	1161c <chk_mounted+0x134>
   11a54:	e2002001 	and	r2, r0, #1
   11a58:	e2822f7f 	add	r2, r2, #508	; 0x1fc
   11a5c:	e2822003 	add	r2, r2, #3
   11a60:	e0800080 	add	r0, r0, r0, lsl #1
   11a64:	e08200a0 	add	r0, r2, r0, lsr #1
   11a68:	e0838008 	add	r8, r3, r8
   11a6c:	e15904a0 	cmp	r9, r0, lsr #9
   11a70:	e5858028 	str	r8, [r5, #40]	; 0x28
   11a74:	3afffee8 	bcc	1161c <chk_mounted+0x134>
   11a78:	e3a03000 	mov	r3, #0
   11a7c:	e3e02000 	mvn	r2, #0
   11a80:	e585300c 	str	r3, [r5, #12]
   11a84:	e5852010 	str	r2, [r5, #16]
   11a88:	e3a03001 	mov	r3, #1
   11a8c:	eaffff55 	b	117e8 <chk_mounted+0x300>
   11a90:	00021bbc 			; <UNDEFINED> instruction: 0x00021bbc
   11a94:	ffffaa55 			; <UNDEFINED> instruction: 0xffffaa55
   11a98:	00000ff5 	strdeq	r0, [r0], -r5
   11a9c:	0000aa55 	andeq	sl, r0, r5, asr sl
   11aa0:	00544146 	subseq	r4, r4, r6, asr #2
   11aa4:	41615252 	cmnmi	r1, r2, asr r2
   11aa8:	61417272 	hvcvs	5922	; 0x1722

00011aac <clust2sect>:
   11aac:	e5903018 	ldr	r3, [r0, #24]
   11ab0:	e2411002 	sub	r1, r1, #2
   11ab4:	e2433002 	sub	r3, r3, #2
   11ab8:	e1510003 	cmp	r1, r3
   11abc:	35d02002 	ldrbcc	r2, [r0, #2]
   11ac0:	3590302c 	ldrcc	r3, [r0, #44]	; 0x2c
   11ac4:	30203192 	mlacc	r0, r2, r1, r3
   11ac8:	23a00000 	movcs	r0, #0
   11acc:	e12fff1e 	bx	lr

00011ad0 <get_fat>:
   11ad0:	e3510001 	cmp	r1, #1
   11ad4:	9a00003e 	bls	11bd4 <get_fat+0x104>
   11ad8:	e92d4ff8 	push	{r3, r4, r5, r6, r7, r8, r9, sl, fp, lr}
   11adc:	e5903018 	ldr	r3, [r0, #24]
   11ae0:	e1510003 	cmp	r1, r3
   11ae4:	2a00000a 	bcs	11b14 <get_fat+0x44>
   11ae8:	e5d03000 	ldrb	r3, [r0]
   11aec:	e1a04000 	mov	r4, r0
   11af0:	e3530002 	cmp	r3, #2
   11af4:	e1a05001 	mov	r5, r1
   11af8:	0a000056 	beq	11c58 <get_fat+0x188>
   11afc:	e3530003 	cmp	r3, #3
   11b00:	0a000035 	beq	11bdc <get_fat+0x10c>
   11b04:	e3530001 	cmp	r3, #1
   11b08:	0a000003 	beq	11b1c <get_fat+0x4c>
   11b0c:	e3e00000 	mvn	r0, #0
   11b10:	e8bd8ff8 	pop	{r3, r4, r5, r6, r7, r8, r9, sl, fp, pc}
   11b14:	e3a00001 	mov	r0, #1
   11b18:	e8bd8ff8 	pop	{r3, r4, r5, r6, r7, r8, r9, sl, fp, pc}
   11b1c:	e5909024 	ldr	r9, [r0, #36]	; 0x24
   11b20:	e08160a1 	add	r6, r1, r1, lsr #1
   11b24:	e590a030 	ldr	sl, [r0, #48]	; 0x30
   11b28:	e08984a6 	add	r8, r9, r6, lsr #9
   11b2c:	e15a0008 	cmp	sl, r8
   11b30:	0a00000c 	beq	11b68 <get_fat+0x98>
   11b34:	e5d02004 	ldrb	r2, [r0, #4]
   11b38:	e2807034 	add	r7, r0, #52	; 0x34
   11b3c:	e3520000 	cmp	r2, #0
   11b40:	1a00005e 	bne	11cc0 <get_fat+0x1f0>
   11b44:	e1a01007 	mov	r1, r7
   11b48:	e5d40001 	ldrb	r0, [r4, #1]
   11b4c:	e1a02008 	mov	r2, r8
   11b50:	e3a03001 	mov	r3, #1
   11b54:	eb0018b9 	bl	17e40 <disk_read>
   11b58:	e3500000 	cmp	r0, #0
   11b5c:	1affffea 	bne	11b0c <get_fat+0x3c>
   11b60:	e5949024 	ldr	r9, [r4, #36]	; 0x24
   11b64:	e5848030 	str	r8, [r4, #48]	; 0x30
   11b68:	e286a001 	add	sl, r6, #1
   11b6c:	e08994aa 	add	r9, r9, sl, lsr #9
   11b70:	e1a06b86 	lsl	r6, r6, #23
   11b74:	e0846ba6 	add	r6, r4, r6, lsr #23
   11b78:	e1580009 	cmp	r8, r9
   11b7c:	e5d66034 	ldrb	r6, [r6, #52]	; 0x34
   11b80:	0a00000b 	beq	11bb4 <get_fat+0xe4>
   11b84:	e5d43004 	ldrb	r3, [r4, #4]
   11b88:	e2847034 	add	r7, r4, #52	; 0x34
   11b8c:	e3530000 	cmp	r3, #0
   11b90:	1a0000a3 	bne	11e24 <get_fat+0x354>
   11b94:	e1a01007 	mov	r1, r7
   11b98:	e5d40001 	ldrb	r0, [r4, #1]
   11b9c:	e1a02009 	mov	r2, r9
   11ba0:	e3a03001 	mov	r3, #1
   11ba4:	eb0018a5 	bl	17e40 <disk_read>
   11ba8:	e3500000 	cmp	r0, #0
   11bac:	05849030 	streq	r9, [r4, #48]	; 0x30
   11bb0:	1affffd5 	bne	11b0c <get_fat+0x3c>
   11bb4:	e1a0ab8a 	lsl	sl, sl, #23
   11bb8:	e0844baa 	add	r4, r4, sl, lsr #23
   11bbc:	e5d40034 	ldrb	r0, [r4, #52]	; 0x34
   11bc0:	e3150001 	tst	r5, #1
   11bc4:	e1860400 	orr	r0, r6, r0, lsl #8
   11bc8:	0a0000b3 	beq	11e9c <get_fat+0x3cc>
   11bcc:	e1a00220 	lsr	r0, r0, #4
   11bd0:	e8bd8ff8 	pop	{r3, r4, r5, r6, r7, r8, r9, sl, fp, pc}
   11bd4:	e3a00001 	mov	r0, #1
   11bd8:	e12fff1e 	bx	lr
   11bdc:	e5906024 	ldr	r6, [r0, #36]	; 0x24
   11be0:	e5908030 	ldr	r8, [r0, #48]	; 0x30
   11be4:	e08663a1 	add	r6, r6, r1, lsr #7
   11be8:	e1560008 	cmp	r6, r8
   11bec:	0a00000b 	beq	11c20 <get_fat+0x150>
   11bf0:	e5d03004 	ldrb	r3, [r0, #4]
   11bf4:	e2807034 	add	r7, r0, #52	; 0x34
   11bf8:	e3530000 	cmp	r3, #0
   11bfc:	1a00004c 	bne	11d34 <get_fat+0x264>
   11c00:	e1a01007 	mov	r1, r7
   11c04:	e5d40001 	ldrb	r0, [r4, #1]
   11c08:	e1a02006 	mov	r2, r6
   11c0c:	e3a03001 	mov	r3, #1
   11c10:	eb00188a 	bl	17e40 <disk_read>
   11c14:	e3500000 	cmp	r0, #0
   11c18:	05846030 	streq	r6, [r4, #48]	; 0x30
   11c1c:	1affffba 	bne	11b0c <get_fat+0x3c>
   11c20:	e1a01105 	lsl	r1, r5, #2
   11c24:	e2011f7f 	and	r1, r1, #508	; 0x1fc
   11c28:	e0843001 	add	r3, r4, r1
   11c2c:	e5d32037 	ldrb	r2, [r3, #55]	; 0x37
   11c30:	e5d3c036 	ldrb	ip, [r3, #54]	; 0x36
   11c34:	e5d30035 	ldrb	r0, [r3, #53]	; 0x35
   11c38:	e1a02c02 	lsl	r2, r2, #24
   11c3c:	e1a04003 	mov	r4, r3
   11c40:	e182280c 	orr	r2, r2, ip, lsl #16
   11c44:	e5d33034 	ldrb	r3, [r3, #52]	; 0x34
   11c48:	e1820400 	orr	r0, r2, r0, lsl #8
   11c4c:	e1800003 	orr	r0, r0, r3
   11c50:	e3c0020f 	bic	r0, r0, #-268435456	; 0xf0000000
   11c54:	e8bd8ff8 	pop	{r3, r4, r5, r6, r7, r8, r9, sl, fp, pc}
   11c58:	e5906024 	ldr	r6, [r0, #36]	; 0x24
   11c5c:	e5908030 	ldr	r8, [r0, #48]	; 0x30
   11c60:	e0866421 	add	r6, r6, r1, lsr #8
   11c64:	e1560008 	cmp	r6, r8
   11c68:	0a00000b 	beq	11c9c <get_fat+0x1cc>
   11c6c:	e5d03004 	ldrb	r3, [r0, #4]
   11c70:	e2807034 	add	r7, r0, #52	; 0x34
   11c74:	e3530000 	cmp	r3, #0
   11c78:	1a00004b 	bne	11dac <get_fat+0x2dc>
   11c7c:	e1a01007 	mov	r1, r7
   11c80:	e5d40001 	ldrb	r0, [r4, #1]
   11c84:	e1a02006 	mov	r2, r6
   11c88:	e3a03001 	mov	r3, #1
   11c8c:	eb00186b 	bl	17e40 <disk_read>
   11c90:	e3500000 	cmp	r0, #0
   11c94:	05846030 	streq	r6, [r4, #48]	; 0x30
   11c98:	1affff9b 	bne	11b0c <get_fat+0x3c>
   11c9c:	e59f3204 	ldr	r3, [pc, #516]	; 11ea8 <get_fat+0x3d8>
   11ca0:	e1a01085 	lsl	r1, r5, #1
   11ca4:	e0033001 	and	r3, r3, r1
   11ca8:	e0842003 	add	r2, r4, r3
   11cac:	e5d23034 	ldrb	r3, [r2, #52]	; 0x34
   11cb0:	e5d20035 	ldrb	r0, [r2, #53]	; 0x35
   11cb4:	e1a04002 	mov	r4, r2
   11cb8:	e1830400 	orr	r0, r3, r0, lsl #8
   11cbc:	e8bd8ff8 	pop	{r3, r4, r5, r6, r7, r8, r9, sl, fp, pc}
   11cc0:	e1a01007 	mov	r1, r7
   11cc4:	e5d00001 	ldrb	r0, [r0, #1]
   11cc8:	e1a0200a 	mov	r2, sl
   11ccc:	eb001879 	bl	17eb8 <disk_write>
   11cd0:	e3500000 	cmp	r0, #0
   11cd4:	1affff8c 	bne	11b0c <get_fat+0x3c>
   11cd8:	e5942024 	ldr	r2, [r4, #36]	; 0x24
   11cdc:	e5c40004 	strb	r0, [r4, #4]
   11ce0:	e15a0002 	cmp	sl, r2
   11ce4:	3affff96 	bcc	11b44 <get_fat+0x74>
   11ce8:	e594301c 	ldr	r3, [r4, #28]
   11cec:	e0832002 	add	r2, r3, r2
   11cf0:	e15a0002 	cmp	sl, r2
   11cf4:	2affff92 	bcs	11b44 <get_fat+0x74>
   11cf8:	e5d49003 	ldrb	r9, [r4, #3]
   11cfc:	e3590001 	cmp	r9, #1
   11d00:	8a000001 	bhi	11d0c <get_fat+0x23c>
   11d04:	eaffff8e 	b	11b44 <get_fat+0x74>
   11d08:	e594301c 	ldr	r3, [r4, #28]
   11d0c:	e08aa003 	add	sl, sl, r3
   11d10:	e2499001 	sub	r9, r9, #1
   11d14:	e1a0200a 	mov	r2, sl
   11d18:	e5d40001 	ldrb	r0, [r4, #1]
   11d1c:	e1a01007 	mov	r1, r7
   11d20:	e3a03001 	mov	r3, #1
   11d24:	eb001863 	bl	17eb8 <disk_write>
   11d28:	e3590001 	cmp	r9, #1
   11d2c:	1afffff5 	bne	11d08 <get_fat+0x238>
   11d30:	eaffff83 	b	11b44 <get_fat+0x74>
   11d34:	e1a01007 	mov	r1, r7
   11d38:	e5d00001 	ldrb	r0, [r0, #1]
   11d3c:	e1a02008 	mov	r2, r8
   11d40:	e3a03001 	mov	r3, #1
   11d44:	eb00185b 	bl	17eb8 <disk_write>
   11d48:	e3500000 	cmp	r0, #0
   11d4c:	1affff6e 	bne	11b0c <get_fat+0x3c>
   11d50:	e5942024 	ldr	r2, [r4, #36]	; 0x24
   11d54:	e5c40004 	strb	r0, [r4, #4]
   11d58:	e1580002 	cmp	r8, r2
   11d5c:	3affffa7 	bcc	11c00 <get_fat+0x130>
   11d60:	e594301c 	ldr	r3, [r4, #28]
   11d64:	e0832002 	add	r2, r3, r2
   11d68:	e1580002 	cmp	r8, r2
   11d6c:	2affffa3 	bcs	11c00 <get_fat+0x130>
   11d70:	e5d49003 	ldrb	r9, [r4, #3]
   11d74:	e3590001 	cmp	r9, #1
   11d78:	8a000001 	bhi	11d84 <get_fat+0x2b4>
   11d7c:	eaffff9f 	b	11c00 <get_fat+0x130>
   11d80:	e594301c 	ldr	r3, [r4, #28]
   11d84:	e0888003 	add	r8, r8, r3
   11d88:	e2499001 	sub	r9, r9, #1
   11d8c:	e1a02008 	mov	r2, r8
   11d90:	e5d40001 	ldrb	r0, [r4, #1]
   11d94:	e1a01007 	mov	r1, r7
   11d98:	e3a03001 	mov	r3, #1
   11d9c:	eb001845 	bl	17eb8 <disk_write>
   11da0:	e3590001 	cmp	r9, #1
   11da4:	1afffff5 	bne	11d80 <get_fat+0x2b0>
   11da8:	eaffff94 	b	11c00 <get_fat+0x130>
   11dac:	e1a01007 	mov	r1, r7
   11db0:	e5d00001 	ldrb	r0, [r0, #1]
   11db4:	e1a02008 	mov	r2, r8
   11db8:	e3a03001 	mov	r3, #1
   11dbc:	eb00183d 	bl	17eb8 <disk_write>
   11dc0:	e3500000 	cmp	r0, #0
   11dc4:	1affff50 	bne	11b0c <get_fat+0x3c>
   11dc8:	e5942024 	ldr	r2, [r4, #36]	; 0x24
   11dcc:	e5c40004 	strb	r0, [r4, #4]
   11dd0:	e1580002 	cmp	r8, r2
   11dd4:	3affffa8 	bcc	11c7c <get_fat+0x1ac>
   11dd8:	e594301c 	ldr	r3, [r4, #28]
   11ddc:	e0832002 	add	r2, r3, r2
   11de0:	e1580002 	cmp	r8, r2
   11de4:	2affffa4 	bcs	11c7c <get_fat+0x1ac>
   11de8:	e5d49003 	ldrb	r9, [r4, #3]
   11dec:	e3590001 	cmp	r9, #1
   11df0:	8a000001 	bhi	11dfc <get_fat+0x32c>
   11df4:	eaffffa0 	b	11c7c <get_fat+0x1ac>
   11df8:	e594301c 	ldr	r3, [r4, #28]
   11dfc:	e0888003 	add	r8, r8, r3
   11e00:	e2499001 	sub	r9, r9, #1
   11e04:	e1a02008 	mov	r2, r8
   11e08:	e5d40001 	ldrb	r0, [r4, #1]
   11e0c:	e1a01007 	mov	r1, r7
   11e10:	e3a03001 	mov	r3, #1
   11e14:	eb001827 	bl	17eb8 <disk_write>
   11e18:	e3590001 	cmp	r9, #1
   11e1c:	1afffff5 	bne	11df8 <get_fat+0x328>
   11e20:	eaffff95 	b	11c7c <get_fat+0x1ac>
   11e24:	e1a01007 	mov	r1, r7
   11e28:	e5d40001 	ldrb	r0, [r4, #1]
   11e2c:	e1a02008 	mov	r2, r8
   11e30:	e3a03001 	mov	r3, #1
   11e34:	eb00181f 	bl	17eb8 <disk_write>
   11e38:	e3500000 	cmp	r0, #0
   11e3c:	1affff32 	bne	11b0c <get_fat+0x3c>
   11e40:	e5942024 	ldr	r2, [r4, #36]	; 0x24
   11e44:	e5c40004 	strb	r0, [r4, #4]
   11e48:	e1580002 	cmp	r8, r2
   11e4c:	3affff50 	bcc	11b94 <get_fat+0xc4>
   11e50:	e594301c 	ldr	r3, [r4, #28]
   11e54:	e0832002 	add	r2, r3, r2
   11e58:	e1580002 	cmp	r8, r2
   11e5c:	2affff4c 	bcs	11b94 <get_fat+0xc4>
   11e60:	e5d4b003 	ldrb	fp, [r4, #3]
   11e64:	e35b0001 	cmp	fp, #1
   11e68:	8a000001 	bhi	11e74 <get_fat+0x3a4>
   11e6c:	eaffff48 	b	11b94 <get_fat+0xc4>
   11e70:	e594301c 	ldr	r3, [r4, #28]
   11e74:	e0888003 	add	r8, r8, r3
   11e78:	e24bb001 	sub	fp, fp, #1
   11e7c:	e1a02008 	mov	r2, r8
   11e80:	e5d40001 	ldrb	r0, [r4, #1]
   11e84:	e1a01007 	mov	r1, r7
   11e88:	e3a03001 	mov	r3, #1
   11e8c:	eb001809 	bl	17eb8 <disk_write>
   11e90:	e35b0001 	cmp	fp, #1
   11e94:	1afffff5 	bne	11e70 <get_fat+0x3a0>
   11e98:	eaffff3d 	b	11b94 <get_fat+0xc4>
   11e9c:	e1a00a00 	lsl	r0, r0, #20
   11ea0:	e1a00a20 	lsr	r0, r0, #20
   11ea4:	e8bd8ff8 	pop	{r3, r4, r5, r6, r7, r8, r9, sl, fp, pc}
   11ea8:	000001fe 	strdeq	r0, [r0], -lr

00011eac <put_fat>:
   11eac:	e3510001 	cmp	r1, #1
   11eb0:	e92d4ff8 	push	{r3, r4, r5, r6, r7, r8, r9, sl, fp, lr}
   11eb4:	e1a04001 	mov	r4, r1
   11eb8:	9a000003 	bls	11ecc <put_fat+0x20>
   11ebc:	e5903018 	ldr	r3, [r0, #24]
   11ec0:	e1a05000 	mov	r5, r0
   11ec4:	e1510003 	cmp	r1, r3
   11ec8:	3a000001 	bcc	11ed4 <put_fat+0x28>
   11ecc:	e3a00002 	mov	r0, #2
   11ed0:	e8bd8ff8 	pop	{r3, r4, r5, r6, r7, r8, r9, sl, fp, pc}
   11ed4:	e5d03000 	ldrb	r3, [r0]
   11ed8:	e1a06002 	mov	r6, r2
   11edc:	e3530002 	cmp	r3, #2
   11ee0:	0a000007 	beq	11f04 <put_fat+0x58>
   11ee4:	e3530003 	cmp	r3, #3
   11ee8:	0a000074 	beq	120c0 <put_fat+0x214>
   11eec:	e3530001 	cmp	r3, #1
   11ef0:	13a00002 	movne	r0, #2
   11ef4:	0a00001e 	beq	11f74 <put_fat+0xc8>
   11ef8:	e3a03001 	mov	r3, #1
   11efc:	e5c53004 	strb	r3, [r5, #4]
   11f00:	e8bd8ff8 	pop	{r3, r4, r5, r6, r7, r8, r9, sl, fp, pc}
   11f04:	e5908024 	ldr	r8, [r0, #36]	; 0x24
   11f08:	e5909030 	ldr	r9, [r0, #48]	; 0x30
   11f0c:	e0888421 	add	r8, r8, r1, lsr #8
   11f10:	e1580009 	cmp	r8, r9
   11f14:	0a00000b 	beq	11f48 <put_fat+0x9c>
   11f18:	e5d03004 	ldrb	r3, [r0, #4]
   11f1c:	e2807034 	add	r7, r0, #52	; 0x34
   11f20:	e3530000 	cmp	r3, #0
   11f24:	1a0000d2 	bne	12274 <put_fat+0x3c8>
   11f28:	e1a01007 	mov	r1, r7
   11f2c:	e5d50001 	ldrb	r0, [r5, #1]
   11f30:	e1a02008 	mov	r2, r8
   11f34:	e3a03001 	mov	r3, #1
   11f38:	eb0017c0 	bl	17e40 <disk_read>
   11f3c:	e3500000 	cmp	r0, #0
   11f40:	05858030 	streq	r8, [r5, #48]	; 0x30
   11f44:	1a000008 	bne	11f6c <put_fat+0xc0>
   11f48:	e59f33a8 	ldr	r3, [pc, #936]	; 122f8 <put_fat+0x44c>
   11f4c:	e1a04084 	lsl	r4, r4, #1
   11f50:	e0033004 	and	r3, r3, r4
   11f54:	e0851003 	add	r1, r5, r3
   11f58:	e1a02426 	lsr	r2, r6, #8
   11f5c:	e5c16034 	strb	r6, [r1, #52]	; 0x34
   11f60:	e3a00000 	mov	r0, #0
   11f64:	e5c12035 	strb	r2, [r1, #53]	; 0x35
   11f68:	eaffffe2 	b	11ef8 <put_fat+0x4c>
   11f6c:	e3a00001 	mov	r0, #1
   11f70:	eaffffe0 	b	11ef8 <put_fat+0x4c>
   11f74:	e5957024 	ldr	r7, [r5, #36]	; 0x24
   11f78:	e08180a1 	add	r8, r1, r1, lsr #1
   11f7c:	e595a030 	ldr	sl, [r5, #48]	; 0x30
   11f80:	e08794a8 	add	r9, r7, r8, lsr #9
   11f84:	e15a0009 	cmp	sl, r9
   11f88:	0a00000c 	beq	11fc0 <put_fat+0x114>
   11f8c:	e5d52004 	ldrb	r2, [r5, #4]
   11f90:	e2857034 	add	r7, r5, #52	; 0x34
   11f94:	e3520000 	cmp	r2, #0
   11f98:	1a00007a 	bne	12188 <put_fat+0x2dc>
   11f9c:	e1a01007 	mov	r1, r7
   11fa0:	e5d50001 	ldrb	r0, [r5, #1]
   11fa4:	e1a02009 	mov	r2, r9
   11fa8:	e3a03001 	mov	r3, #1
   11fac:	eb0017a3 	bl	17e40 <disk_read>
   11fb0:	e3500000 	cmp	r0, #0
   11fb4:	1affffec 	bne	11f6c <put_fat+0xc0>
   11fb8:	e5957024 	ldr	r7, [r5, #36]	; 0x24
   11fbc:	e5859030 	str	r9, [r5, #48]	; 0x30
   11fc0:	e1a03b88 	lsl	r3, r8, #23
   11fc4:	e2144001 	ands	r4, r4, #1
   11fc8:	e1a03ba3 	lsr	r3, r3, #23
   11fcc:	0a00005d 	beq	12148 <put_fat+0x29c>
   11fd0:	e3a00001 	mov	r0, #1
   11fd4:	e0853003 	add	r3, r5, r3
   11fd8:	e5d32034 	ldrb	r2, [r3, #52]	; 0x34
   11fdc:	e0888000 	add	r8, r8, r0
   11fe0:	e202100f 	and	r1, r2, #15
   11fe4:	e08774a8 	add	r7, r7, r8, lsr #9
   11fe8:	e6ef2076 	uxtb	r2, r6
   11fec:	e1812202 	orr	r2, r1, r2, lsl #4
   11ff0:	e1590007 	cmp	r9, r7
   11ff4:	e5c32034 	strb	r2, [r3, #52]	; 0x34
   11ff8:	e5c50004 	strb	r0, [r5, #4]
   11ffc:	0a0000ba 	beq	122ec <put_fat+0x440>
   12000:	e285a034 	add	sl, r5, #52	; 0x34
   12004:	e1a0100a 	mov	r1, sl
   12008:	e5d50001 	ldrb	r0, [r5, #1]
   1200c:	e1a02009 	mov	r2, r9
   12010:	e3a03001 	mov	r3, #1
   12014:	eb0017a7 	bl	17eb8 <disk_write>
   12018:	e3500000 	cmp	r0, #0
   1201c:	1affffd2 	bne	11f6c <put_fat+0xc0>
   12020:	e5952024 	ldr	r2, [r5, #36]	; 0x24
   12024:	e5c50004 	strb	r0, [r5, #4]
   12028:	e1590002 	cmp	r9, r2
   1202c:	3a000011 	bcc	12078 <put_fat+0x1cc>
   12030:	e595301c 	ldr	r3, [r5, #28]
   12034:	e0832002 	add	r2, r3, r2
   12038:	e1590002 	cmp	r9, r2
   1203c:	2a00000d 	bcs	12078 <put_fat+0x1cc>
   12040:	e5d5b003 	ldrb	fp, [r5, #3]
   12044:	e35b0001 	cmp	fp, #1
   12048:	8a000001 	bhi	12054 <put_fat+0x1a8>
   1204c:	ea000009 	b	12078 <put_fat+0x1cc>
   12050:	e595301c 	ldr	r3, [r5, #28]
   12054:	e0899003 	add	r9, r9, r3
   12058:	e24bb001 	sub	fp, fp, #1
   1205c:	e1a02009 	mov	r2, r9
   12060:	e5d50001 	ldrb	r0, [r5, #1]
   12064:	e1a0100a 	mov	r1, sl
   12068:	e3a03001 	mov	r3, #1
   1206c:	eb001791 	bl	17eb8 <disk_write>
   12070:	e35b0001 	cmp	fp, #1
   12074:	1afffff5 	bne	12050 <put_fat+0x1a4>
   12078:	e1a0100a 	mov	r1, sl
   1207c:	e5d50001 	ldrb	r0, [r5, #1]
   12080:	e1a02007 	mov	r2, r7
   12084:	e3a03001 	mov	r3, #1
   12088:	eb00176c 	bl	17e40 <disk_read>
   1208c:	e3500000 	cmp	r0, #0
   12090:	1affffb5 	bne	11f6c <put_fat+0xc0>
   12094:	e1a03b88 	lsl	r3, r8, #23
   12098:	e3540000 	cmp	r4, #0
   1209c:	e1a03ba3 	lsr	r3, r3, #23
   120a0:	e5857030 	str	r7, [r5, #48]	; 0x30
   120a4:	0a000031 	beq	12170 <put_fat+0x2c4>
   120a8:	e1a02226 	lsr	r2, r6, #4
   120ac:	e6ef2072 	uxtb	r2, r2
   120b0:	e0853003 	add	r3, r5, r3
   120b4:	e5c32034 	strb	r2, [r3, #52]	; 0x34
   120b8:	e3a00000 	mov	r0, #0
   120bc:	eaffff8d 	b	11ef8 <put_fat+0x4c>
   120c0:	e5908024 	ldr	r8, [r0, #36]	; 0x24
   120c4:	e5909030 	ldr	r9, [r0, #48]	; 0x30
   120c8:	e08883a1 	add	r8, r8, r1, lsr #7
   120cc:	e1580009 	cmp	r8, r9
   120d0:	0a00000b 	beq	12104 <put_fat+0x258>
   120d4:	e5d03004 	ldrb	r3, [r0, #4]
   120d8:	e2807034 	add	r7, r0, #52	; 0x34
   120dc:	e3530000 	cmp	r3, #0
   120e0:	1a000045 	bne	121fc <put_fat+0x350>
   120e4:	e1a01007 	mov	r1, r7
   120e8:	e5d50001 	ldrb	r0, [r5, #1]
   120ec:	e1a02008 	mov	r2, r8
   120f0:	e3a03001 	mov	r3, #1
   120f4:	eb001751 	bl	17e40 <disk_read>
   120f8:	e3500000 	cmp	r0, #0
   120fc:	05858030 	streq	r8, [r5, #48]	; 0x30
   12100:	1affff99 	bne	11f6c <put_fat+0xc0>
   12104:	e1a04104 	lsl	r4, r4, #2
   12108:	e2044f7f 	and	r4, r4, #508	; 0x1fc
   1210c:	e0852004 	add	r2, r5, r4
   12110:	e5d23037 	ldrb	r3, [r2, #55]	; 0x37
   12114:	e1a04002 	mov	r4, r2
   12118:	e1a03c03 	lsl	r3, r3, #24
   1211c:	e203320f 	and	r3, r3, #-268435456	; 0xf0000000
   12120:	e1836006 	orr	r6, r3, r6
   12124:	e1a0c426 	lsr	ip, r6, #8
   12128:	e1a01826 	lsr	r1, r6, #16
   1212c:	e1a03c26 	lsr	r3, r6, #24
   12130:	e5c26034 	strb	r6, [r2, #52]	; 0x34
   12134:	e3a00000 	mov	r0, #0
   12138:	e5c2c035 	strb	ip, [r2, #53]	; 0x35
   1213c:	e5c21036 	strb	r1, [r2, #54]	; 0x36
   12140:	e5c23037 	strb	r3, [r2, #55]	; 0x37
   12144:	eaffff6b 	b	11ef8 <put_fat+0x4c>
   12148:	e3a02001 	mov	r2, #1
   1214c:	e0888002 	add	r8, r8, r2
   12150:	e08774a8 	add	r7, r7, r8, lsr #9
   12154:	e0853003 	add	r3, r5, r3
   12158:	e1590007 	cmp	r9, r7
   1215c:	e5c36034 	strb	r6, [r3, #52]	; 0x34
   12160:	e5c52004 	strb	r2, [r5, #4]
   12164:	1affffa5 	bne	12000 <put_fat+0x154>
   12168:	e1a03b88 	lsl	r3, r8, #23
   1216c:	e1a03ba3 	lsr	r3, r3, #23
   12170:	e0853003 	add	r3, r5, r3
   12174:	e5d32034 	ldrb	r2, [r3, #52]	; 0x34
   12178:	e1a06a06 	lsl	r6, r6, #20
   1217c:	e3c2200f 	bic	r2, r2, #15
   12180:	e1822e26 	orr	r2, r2, r6, lsr #28
   12184:	eaffffca 	b	120b4 <put_fat+0x208>
   12188:	e1a01007 	mov	r1, r7
   1218c:	e5d50001 	ldrb	r0, [r5, #1]
   12190:	e1a0200a 	mov	r2, sl
   12194:	eb001747 	bl	17eb8 <disk_write>
   12198:	e3500000 	cmp	r0, #0
   1219c:	1affff72 	bne	11f6c <put_fat+0xc0>
   121a0:	e5952024 	ldr	r2, [r5, #36]	; 0x24
   121a4:	e5c50004 	strb	r0, [r5, #4]
   121a8:	e15a0002 	cmp	sl, r2
   121ac:	3affff7a 	bcc	11f9c <put_fat+0xf0>
   121b0:	e595301c 	ldr	r3, [r5, #28]
   121b4:	e0832002 	add	r2, r3, r2
   121b8:	e15a0002 	cmp	sl, r2
   121bc:	2affff76 	bcs	11f9c <put_fat+0xf0>
   121c0:	e5d5b003 	ldrb	fp, [r5, #3]
   121c4:	e35b0001 	cmp	fp, #1
   121c8:	8a000001 	bhi	121d4 <put_fat+0x328>
   121cc:	eaffff72 	b	11f9c <put_fat+0xf0>
   121d0:	e595301c 	ldr	r3, [r5, #28]
   121d4:	e08aa003 	add	sl, sl, r3
   121d8:	e24bb001 	sub	fp, fp, #1
   121dc:	e1a0200a 	mov	r2, sl
   121e0:	e5d50001 	ldrb	r0, [r5, #1]
   121e4:	e1a01007 	mov	r1, r7
   121e8:	e3a03001 	mov	r3, #1
   121ec:	eb001731 	bl	17eb8 <disk_write>
   121f0:	e35b0001 	cmp	fp, #1
   121f4:	1afffff5 	bne	121d0 <put_fat+0x324>
   121f8:	eaffff67 	b	11f9c <put_fat+0xf0>
   121fc:	e1a01007 	mov	r1, r7
   12200:	e5d00001 	ldrb	r0, [r0, #1]
   12204:	e1a02009 	mov	r2, r9
   12208:	e3a03001 	mov	r3, #1
   1220c:	eb001729 	bl	17eb8 <disk_write>
   12210:	e3500000 	cmp	r0, #0
   12214:	1affff54 	bne	11f6c <put_fat+0xc0>
   12218:	e5952024 	ldr	r2, [r5, #36]	; 0x24
   1221c:	e5c50004 	strb	r0, [r5, #4]
   12220:	e1590002 	cmp	r9, r2
   12224:	3affffae 	bcc	120e4 <put_fat+0x238>
   12228:	e595301c 	ldr	r3, [r5, #28]
   1222c:	e0832002 	add	r2, r3, r2
   12230:	e1590002 	cmp	r9, r2
   12234:	2affffaa 	bcs	120e4 <put_fat+0x238>
   12238:	e5d5a003 	ldrb	sl, [r5, #3]
   1223c:	e35a0001 	cmp	sl, #1
   12240:	8a000001 	bhi	1224c <put_fat+0x3a0>
   12244:	eaffffa6 	b	120e4 <put_fat+0x238>
   12248:	e595301c 	ldr	r3, [r5, #28]
   1224c:	e0899003 	add	r9, r9, r3
   12250:	e24aa001 	sub	sl, sl, #1
   12254:	e1a02009 	mov	r2, r9
   12258:	e5d50001 	ldrb	r0, [r5, #1]
   1225c:	e1a01007 	mov	r1, r7
   12260:	e3a03001 	mov	r3, #1
   12264:	eb001713 	bl	17eb8 <disk_write>
   12268:	e35a0001 	cmp	sl, #1
   1226c:	1afffff5 	bne	12248 <put_fat+0x39c>
   12270:	eaffff9b 	b	120e4 <put_fat+0x238>
   12274:	e1a01007 	mov	r1, r7
   12278:	e5d00001 	ldrb	r0, [r0, #1]
   1227c:	e1a02009 	mov	r2, r9
   12280:	e3a03001 	mov	r3, #1
   12284:	eb00170b 	bl	17eb8 <disk_write>
   12288:	e3500000 	cmp	r0, #0
   1228c:	1affff36 	bne	11f6c <put_fat+0xc0>
   12290:	e5952024 	ldr	r2, [r5, #36]	; 0x24
   12294:	e5c50004 	strb	r0, [r5, #4]
   12298:	e1590002 	cmp	r9, r2
   1229c:	3affff21 	bcc	11f28 <put_fat+0x7c>
   122a0:	e595301c 	ldr	r3, [r5, #28]
   122a4:	e0832002 	add	r2, r3, r2
   122a8:	e1590002 	cmp	r9, r2
   122ac:	2affff1d 	bcs	11f28 <put_fat+0x7c>
   122b0:	e5d5a003 	ldrb	sl, [r5, #3]
   122b4:	e35a0001 	cmp	sl, #1
   122b8:	8a000001 	bhi	122c4 <put_fat+0x418>
   122bc:	eaffff19 	b	11f28 <put_fat+0x7c>
   122c0:	e595301c 	ldr	r3, [r5, #28]
   122c4:	e0899003 	add	r9, r9, r3
   122c8:	e24aa001 	sub	sl, sl, #1
   122cc:	e1a02009 	mov	r2, r9
   122d0:	e5d50001 	ldrb	r0, [r5, #1]
   122d4:	e1a01007 	mov	r1, r7
   122d8:	e3a03001 	mov	r3, #1
   122dc:	eb0016f5 	bl	17eb8 <disk_write>
   122e0:	e35a0001 	cmp	sl, #1
   122e4:	1afffff5 	bne	122c0 <put_fat+0x414>
   122e8:	eaffff0e 	b	11f28 <put_fat+0x7c>
   122ec:	e1a03b88 	lsl	r3, r8, #23
   122f0:	e1a03ba3 	lsr	r3, r3, #23
   122f4:	eaffff6b 	b	120a8 <put_fat+0x1fc>
   122f8:	000001fe 	strdeq	r0, [r0], -lr

000122fc <gen_numname>:
   122fc:	e180c001 	orr	ip, r0, r1
   12300:	e92d4030 	push	{r4, r5, lr}
   12304:	e31c0003 	tst	ip, #3
   12308:	e2814004 	add	r4, r1, #4
   1230c:	e280c004 	add	ip, r0, #4
   12310:	03a0e001 	moveq	lr, #1
   12314:	13a0e000 	movne	lr, #0
   12318:	e1500004 	cmp	r0, r4
   1231c:	3151000c 	cmpcc	r1, ip
   12320:	23a0c001 	movcs	ip, #1
   12324:	33a0c000 	movcc	ip, #0
   12328:	e11e000c 	tst	lr, ip
   1232c:	e24dd00c 	sub	sp, sp, #12
   12330:	0a0000e3 	beq	126c4 <gen_numname+0x3c8>
   12334:	e591c000 	ldr	ip, [r1]
   12338:	e580c000 	str	ip, [r0]
   1233c:	e591c004 	ldr	ip, [r1, #4]
   12340:	e580c004 	str	ip, [r0, #4]
   12344:	e5d1c008 	ldrb	ip, [r1, #8]
   12348:	e3530005 	cmp	r3, #5
   1234c:	e5c0c008 	strb	ip, [r0, #8]
   12350:	e5d1c009 	ldrb	ip, [r1, #9]
   12354:	e5c0c009 	strb	ip, [r0, #9]
   12358:	e5d1100a 	ldrb	r1, [r1, #10]
   1235c:	e5c0100a 	strb	r1, [r0, #10]
   12360:	9a000098 	bls	125c8 <gen_numname+0x2cc>
   12364:	e1d2c0b0 	ldrh	ip, [r2]
   12368:	e1a01783 	lsl	r1, r3, #15
   1236c:	e18130a3 	orr	r3, r1, r3, lsr #1
   12370:	e6fc3073 	uxtah	r3, ip, r3
   12374:	e1f2c0b2 	ldrh	ip, [r2, #2]!
   12378:	e6ff3073 	uxth	r3, r3
   1237c:	e35c0000 	cmp	ip, #0
   12380:	1afffff8 	bne	12368 <gen_numname+0x6c>
   12384:	e203100f 	and	r1, r3, #15
   12388:	e2812030 	add	r2, r1, #48	; 0x30
   1238c:	e3520039 	cmp	r2, #57	; 0x39
   12390:	82812037 	addhi	r2, r1, #55	; 0x37
   12394:	e1b03223 	lsrs	r3, r3, #4
   12398:	e5cd2007 	strb	r2, [sp, #7]
   1239c:	03a0c006 	moveq	ip, #6
   123a0:	0a00001f 	beq	12424 <gen_numname+0x128>
   123a4:	e203100f 	and	r1, r3, #15
   123a8:	e2812030 	add	r2, r1, #48	; 0x30
   123ac:	e1a03223 	lsr	r3, r3, #4
   123b0:	e3520039 	cmp	r2, #57	; 0x39
   123b4:	e6ff3073 	uxth	r3, r3
   123b8:	82812037 	addhi	r2, r1, #55	; 0x37
   123bc:	e3530000 	cmp	r3, #0
   123c0:	e5cd2006 	strb	r2, [sp, #6]
   123c4:	0a0000d1 	beq	12710 <gen_numname+0x414>
   123c8:	e203100f 	and	r1, r3, #15
   123cc:	e2812030 	add	r2, r1, #48	; 0x30
   123d0:	e3520039 	cmp	r2, #57	; 0x39
   123d4:	82812037 	addhi	r2, r1, #55	; 0x37
   123d8:	e1b03223 	lsrs	r3, r3, #4
   123dc:	e5cd2005 	strb	r2, [sp, #5]
   123e0:	0a0000cc 	beq	12718 <gen_numname+0x41c>
   123e4:	e203100f 	and	r1, r3, #15
   123e8:	e2812030 	add	r2, r1, #48	; 0x30
   123ec:	e3520039 	cmp	r2, #57	; 0x39
   123f0:	82812037 	addhi	r2, r1, #55	; 0x37
   123f4:	e1b03223 	lsrs	r3, r3, #4
   123f8:	e5cd2004 	strb	r2, [sp, #4]
   123fc:	0a0000c1 	beq	12708 <gen_numname+0x40c>
   12400:	e6ef3073 	uxtb	r3, r3
   12404:	e2832030 	add	r2, r3, #48	; 0x30
   12408:	e6ef2072 	uxtb	r2, r2
   1240c:	e2833037 	add	r3, r3, #55	; 0x37
   12410:	e6ef3073 	uxtb	r3, r3
   12414:	e3520039 	cmp	r2, #57	; 0x39
   12418:	81a02003 	movhi	r2, r3
   1241c:	e3a0c002 	mov	ip, #2
   12420:	e5cd2003 	strb	r2, [sp, #3]
   12424:	e3a0307e 	mov	r3, #126	; 0x7e
   12428:	e5d02000 	ldrb	r2, [r0]
   1242c:	e28d1008 	add	r1, sp, #8
   12430:	e3520020 	cmp	r2, #32
   12434:	e081e00c 	add	lr, r1, ip
   12438:	e54e3008 	strb	r3, [lr, #-8]
   1243c:	03a02001 	moveq	r2, #1
   12440:	01a03000 	moveq	r3, r0
   12444:	0a00000a 	beq	12474 <gen_numname+0x178>
   12448:	e1a02000 	mov	r2, r0
   1244c:	e3a03000 	mov	r3, #0
   12450:	ea000002 	b	12460 <gen_numname+0x164>
   12454:	e5f21001 	ldrb	r1, [r2, #1]!
   12458:	e3510020 	cmp	r1, #32
   1245c:	0a000002 	beq	1246c <gen_numname+0x170>
   12460:	e2833001 	add	r3, r3, #1
   12464:	e153000c 	cmp	r3, ip
   12468:	1afffff9 	bne	12454 <gen_numname+0x158>
   1246c:	e2832001 	add	r2, r3, #1
   12470:	e0803003 	add	r3, r0, r3
   12474:	e55e1008 	ldrb	r1, [lr, #-8]
   12478:	e3520007 	cmp	r2, #7
   1247c:	e5c31000 	strb	r1, [r3]
   12480:	e28c3001 	add	r3, ip, #1
   12484:	8a00004d 	bhi	125c0 <gen_numname+0x2c4>
   12488:	e3530007 	cmp	r3, #7
   1248c:	e282e001 	add	lr, r2, #1
   12490:	8a00005e 	bhi	12610 <gen_numname+0x314>
   12494:	e28d1008 	add	r1, sp, #8
   12498:	e0811003 	add	r1, r1, r3
   1249c:	e5511008 	ldrb	r1, [r1, #-8]
   124a0:	e35e0007 	cmp	lr, #7
   124a4:	e7c01002 	strb	r1, [r0, r2]
   124a8:	e28c4002 	add	r4, ip, #2
   124ac:	8a000043 	bhi	125c0 <gen_numname+0x2c4>
   124b0:	e3540008 	cmp	r4, #8
   124b4:	e2821002 	add	r1, r2, #2
   124b8:	e080500e 	add	r5, r0, lr
   124bc:	0a00007c 	beq	126b4 <gen_numname+0x3b8>
   124c0:	e28d5008 	add	r5, sp, #8
   124c4:	e0854004 	add	r4, r5, r4
   124c8:	e5544008 	ldrb	r4, [r4, #-8]
   124cc:	e3510007 	cmp	r1, #7
   124d0:	e7c0400e 	strb	r4, [r0, lr]
   124d4:	e28c4003 	add	r4, ip, #3
   124d8:	8a000038 	bhi	125c0 <gen_numname+0x2c4>
   124dc:	e3540007 	cmp	r4, #7
   124e0:	e282e003 	add	lr, r2, #3
   124e4:	e0805001 	add	r5, r0, r1
   124e8:	8a000053 	bhi	1263c <gen_numname+0x340>
   124ec:	e28d5008 	add	r5, sp, #8
   124f0:	e0854004 	add	r4, r5, r4
   124f4:	e5544008 	ldrb	r4, [r4, #-8]
   124f8:	e35e0008 	cmp	lr, #8
   124fc:	e7c04001 	strb	r4, [r0, r1]
   12500:	e28c4004 	add	r4, ip, #4
   12504:	0a00002d 	beq	125c0 <gen_numname+0x2c4>
   12508:	e3540008 	cmp	r4, #8
   1250c:	e2821004 	add	r1, r2, #4
   12510:	e080500e 	add	r5, r0, lr
   12514:	0a000068 	beq	126bc <gen_numname+0x3c0>
   12518:	e28d5008 	add	r5, sp, #8
   1251c:	e0854004 	add	r4, r5, r4
   12520:	e5544008 	ldrb	r4, [r4, #-8]
   12524:	e3510008 	cmp	r1, #8
   12528:	e7c0400e 	strb	r4, [r0, lr]
   1252c:	e28cc005 	add	ip, ip, #5
   12530:	0a000022 	beq	125c0 <gen_numname+0x2c4>
   12534:	e35c0007 	cmp	ip, #7
   12538:	e282e005 	add	lr, r2, #5
   1253c:	e0804001 	add	r4, r0, r1
   12540:	8a000048 	bhi	12668 <gen_numname+0x36c>
   12544:	e085c00c 	add	ip, r5, ip
   12548:	e55cc008 	ldrb	ip, [ip, #-8]
   1254c:	e35e0008 	cmp	lr, #8
   12550:	e7c0c001 	strb	ip, [r0, r1]
   12554:	e283c005 	add	ip, r3, #5
   12558:	0a000018 	beq	125c0 <gen_numname+0x2c4>
   1255c:	e35c0008 	cmp	ip, #8
   12560:	e2821006 	add	r1, r2, #6
   12564:	e080400e 	add	r4, r0, lr
   12568:	0a00004f 	beq	126ac <gen_numname+0x3b0>
   1256c:	e085c00c 	add	ip, r5, ip
   12570:	e55cc008 	ldrb	ip, [ip, #-8]
   12574:	e3510008 	cmp	r1, #8
   12578:	e7c0c00e 	strb	ip, [r0, lr]
   1257c:	e283c006 	add	ip, r3, #6
   12580:	0a00000e 	beq	125c0 <gen_numname+0x2c4>
   12584:	e35c0007 	cmp	ip, #7
   12588:	e2822007 	add	r2, r2, #7
   1258c:	e080e001 	add	lr, r0, r1
   12590:	8a00003f 	bhi	12694 <gen_numname+0x398>
   12594:	e085c00c 	add	ip, r5, ip
   12598:	e55cc008 	ldrb	ip, [ip, #-8]
   1259c:	e3520008 	cmp	r2, #8
   125a0:	e1a0e005 	mov	lr, r5
   125a4:	e7c0c001 	strb	ip, [r0, r1]
   125a8:	0a000004 	beq	125c0 <gen_numname+0x2c4>
   125ac:	e3530000 	cmp	r3, #0
   125b0:	13a03020 	movne	r3, #32
   125b4:	05dd3007 	ldrbeq	r3, [sp, #7]
   125b8:	e0802002 	add	r2, r0, r2
   125bc:	e5c23000 	strb	r3, [r2]
   125c0:	e28dd00c 	add	sp, sp, #12
   125c4:	e8bd8030 	pop	{r4, r5, pc}
   125c8:	e203300f 	and	r3, r3, #15
   125cc:	e2832030 	add	r2, r3, #48	; 0x30
   125d0:	e3520039 	cmp	r2, #57	; 0x39
   125d4:	91a03002 	movls	r3, r2
   125d8:	e3a0207e 	mov	r2, #126	; 0x7e
   125dc:	e5d01000 	ldrb	r1, [r0]
   125e0:	82833037 	addhi	r3, r3, #55	; 0x37
   125e4:	e3510020 	cmp	r1, #32
   125e8:	e5cd3007 	strb	r3, [sp, #7]
   125ec:	e5cd2006 	strb	r2, [sp, #6]
   125f0:	01a03000 	moveq	r3, r0
   125f4:	03a02001 	moveq	r2, #1
   125f8:	03a0c006 	moveq	ip, #6
   125fc:	028de00e 	addeq	lr, sp, #14
   12600:	0affff9b 	beq	12474 <gen_numname+0x178>
   12604:	e3a0c006 	mov	ip, #6
   12608:	e28de00e 	add	lr, sp, #14
   1260c:	eaffff8d 	b	12448 <gen_numname+0x14c>
   12610:	e3a03020 	mov	r3, #32
   12614:	e35e0007 	cmp	lr, #7
   12618:	e7c03002 	strb	r3, [r0, r2]
   1261c:	92821002 	addls	r1, r2, #2
   12620:	9080500e 	addls	r5, r0, lr
   12624:	8affffe5 	bhi	125c0 <gen_numname+0x2c4>
   12628:	e3510007 	cmp	r1, #7
   1262c:	e5c53000 	strb	r3, [r5]
   12630:	9281e001 	addls	lr, r1, #1
   12634:	90805001 	addls	r5, r0, r1
   12638:	8affffe0 	bhi	125c0 <gen_numname+0x2c4>
   1263c:	e3a03020 	mov	r3, #32
   12640:	e35e0008 	cmp	lr, #8
   12644:	e5c53000 	strb	r3, [r5]
   12648:	128e1001 	addne	r1, lr, #1
   1264c:	1080500e 	addne	r5, r0, lr
   12650:	0affffda 	beq	125c0 <gen_numname+0x2c4>
   12654:	e3510008 	cmp	r1, #8
   12658:	e5c53000 	strb	r3, [r5]
   1265c:	1281e001 	addne	lr, r1, #1
   12660:	10804001 	addne	r4, r0, r1
   12664:	0affffd5 	beq	125c0 <gen_numname+0x2c4>
   12668:	e3a03020 	mov	r3, #32
   1266c:	e35e0008 	cmp	lr, #8
   12670:	e5c43000 	strb	r3, [r4]
   12674:	128e1001 	addne	r1, lr, #1
   12678:	1080400e 	addne	r4, r0, lr
   1267c:	0affffcf 	beq	125c0 <gen_numname+0x2c4>
   12680:	e3510008 	cmp	r1, #8
   12684:	e5c43000 	strb	r3, [r4]
   12688:	12812001 	addne	r2, r1, #1
   1268c:	1080e001 	addne	lr, r0, r1
   12690:	0affffca 	beq	125c0 <gen_numname+0x2c4>
   12694:	e3a03020 	mov	r3, #32
   12698:	e3520008 	cmp	r2, #8
   1269c:	e5ce3000 	strb	r3, [lr]
   126a0:	10802002 	addne	r2, r0, r2
   126a4:	1affffc4 	bne	125bc <gen_numname+0x2c0>
   126a8:	eaffffc4 	b	125c0 <gen_numname+0x2c4>
   126ac:	e3a03020 	mov	r3, #32
   126b0:	eafffff2 	b	12680 <gen_numname+0x384>
   126b4:	e3a03020 	mov	r3, #32
   126b8:	eaffffda 	b	12628 <gen_numname+0x32c>
   126bc:	e3a03020 	mov	r3, #32
   126c0:	eaffffe3 	b	12654 <gen_numname+0x358>
   126c4:	e5d1c000 	ldrb	ip, [r1]
   126c8:	e5c0c000 	strb	ip, [r0]
   126cc:	e5d1c001 	ldrb	ip, [r1, #1]
   126d0:	e5c0c001 	strb	ip, [r0, #1]
   126d4:	e5d1c002 	ldrb	ip, [r1, #2]
   126d8:	e5c0c002 	strb	ip, [r0, #2]
   126dc:	e5d1c003 	ldrb	ip, [r1, #3]
   126e0:	e5c0c003 	strb	ip, [r0, #3]
   126e4:	e5d1c004 	ldrb	ip, [r1, #4]
   126e8:	e5c0c004 	strb	ip, [r0, #4]
   126ec:	e5d1c005 	ldrb	ip, [r1, #5]
   126f0:	e5c0c005 	strb	ip, [r0, #5]
   126f4:	e5d1c006 	ldrb	ip, [r1, #6]
   126f8:	e5c0c006 	strb	ip, [r0, #6]
   126fc:	e5d1c007 	ldrb	ip, [r1, #7]
   12700:	e5c0c007 	strb	ip, [r0, #7]
   12704:	eaffff0e 	b	12344 <gen_numname+0x48>
   12708:	e3a0c003 	mov	ip, #3
   1270c:	eaffff44 	b	12424 <gen_numname+0x128>
   12710:	e3a0c005 	mov	ip, #5
   12714:	eaffff42 	b	12424 <gen_numname+0x128>
   12718:	e3a0c004 	mov	ip, #4
   1271c:	eaffff40 	b	12424 <gen_numname+0x128>

00012720 <f_mount>:
   12720:	e3500000 	cmp	r0, #0
   12724:	0a000001 	beq	12730 <f_mount+0x10>
   12728:	e3a0000b 	mov	r0, #11
   1272c:	e12fff1e 	bx	lr
   12730:	e59f3020 	ldr	r3, [pc, #32]	; 12758 <f_mount+0x38>
   12734:	e5932000 	ldr	r2, [r3]
   12738:	e5831000 	str	r1, [r3]
   1273c:	e3520000 	cmp	r2, #0
   12740:	15c20000 	strbne	r0, [r2]
   12744:	e3510000 	cmp	r1, #0
   12748:	13a02000 	movne	r2, #0
   1274c:	e3a00000 	mov	r0, #0
   12750:	15c12000 	strbne	r2, [r1]
   12754:	e12fff1e 	bx	lr
   12758:	00021bbc 			; <UNDEFINED> instruction: 0x00021bbc

0001275c <f_open>:
   1275c:	e92d4ff0 	push	{r4, r5, r6, r7, r8, r9, sl, fp, lr}
   12760:	e2504000 	subs	r4, r0, #0
   12764:	e24dd044 	sub	sp, sp, #68	; 0x44
   12768:	03a00009 	moveq	r0, #9
   1276c:	0a00001a 	beq	127dc <f_open+0x80>
   12770:	e3a03000 	mov	r3, #0
   12774:	e5843000 	str	r3, [r4]
   12778:	e5d13000 	ldrb	r3, [r1]
   1277c:	e1a05001 	mov	r5, r1
   12780:	e2433030 	sub	r3, r3, #48	; 0x30
   12784:	e3530009 	cmp	r3, #9
   12788:	e1a06002 	mov	r6, r2
   1278c:	9a000014 	bls	127e4 <f_open+0x88>
   12790:	e59f871c 	ldr	r8, [pc, #1820]	; 12eb4 <f_open+0x758>
   12794:	e5987000 	ldr	r7, [r8]
   12798:	e3570000 	cmp	r7, #0
   1279c:	03a0000c 	moveq	r0, #12
   127a0:	0a00000d 	beq	127dc <f_open+0x80>
   127a4:	e58d701c 	str	r7, [sp, #28]
   127a8:	e5d73000 	ldrb	r3, [r7]
   127ac:	e206901e 	and	r9, r6, #30
   127b0:	e3530000 	cmp	r3, #0
   127b4:	0a000012 	beq	12804 <f_open+0xa8>
   127b8:	e5d70001 	ldrb	r0, [r7, #1]
   127bc:	eb0015bf 	bl	17ec0 <disk_status>
   127c0:	e3100001 	tst	r0, #1
   127c4:	1a00000e 	bne	12804 <f_open+0xa8>
   127c8:	e3590000 	cmp	r9, #0
   127cc:	0a0000a6 	beq	12a6c <f_open+0x310>
   127d0:	e3100004 	tst	r0, #4
   127d4:	0a0000a4 	beq	12a6c <f_open+0x310>
   127d8:	e3a0000a 	mov	r0, #10
   127dc:	e28dd044 	add	sp, sp, #68	; 0x44
   127e0:	e8bd8ff0 	pop	{r4, r5, r6, r7, r8, r9, sl, fp, pc}
   127e4:	e5d12001 	ldrb	r2, [r1, #1]
   127e8:	e352003a 	cmp	r2, #58	; 0x3a
   127ec:	1affffe7 	bne	12790 <f_open+0x34>
   127f0:	e3530000 	cmp	r3, #0
   127f4:	13a0000b 	movne	r0, #11
   127f8:	1afffff7 	bne	127dc <f_open+0x80>
   127fc:	e2815002 	add	r5, r1, #2
   12800:	eaffffe2 	b	12790 <f_open+0x34>
   12804:	e3a00000 	mov	r0, #0
   12808:	e5c70000 	strb	r0, [r7]
   1280c:	e5c70001 	strb	r0, [r7, #1]
   12810:	eb001579 	bl	17dfc <disk_initialize>
   12814:	e3100001 	tst	r0, #1
   12818:	13a00003 	movne	r0, #3
   1281c:	1affffee 	bne	127dc <f_open+0x80>
   12820:	e3590000 	cmp	r9, #0
   12824:	0a000001 	beq	12830 <f_open+0xd4>
   12828:	e3100004 	tst	r0, #4
   1282c:	1affffe9 	bne	127d8 <f_open+0x7c>
   12830:	e2879034 	add	r9, r7, #52	; 0x34
   12834:	e1a01009 	mov	r1, r9
   12838:	e5d70001 	ldrb	r0, [r7, #1]
   1283c:	e3a02000 	mov	r2, #0
   12840:	e3a03001 	mov	r3, #1
   12844:	eb00157d 	bl	17e40 <disk_read>
   12848:	e3500000 	cmp	r0, #0
   1284c:	13a00003 	movne	r0, #3
   12850:	0a000102 	beq	12c60 <f_open+0x504>
   12854:	e3a0a000 	mov	sl, #0
   12858:	e3500003 	cmp	r0, #3
   1285c:	03a00001 	moveq	r0, #1
   12860:	0affffdd 	beq	127dc <f_open+0x80>
   12864:	e3500000 	cmp	r0, #0
   12868:	0a000001 	beq	12874 <f_open+0x118>
   1286c:	e3a0000d 	mov	r0, #13
   12870:	eaffffd9 	b	127dc <f_open+0x80>
   12874:	e5d72040 	ldrb	r2, [r7, #64]	; 0x40
   12878:	e5d7303f 	ldrb	r3, [r7, #63]	; 0x3f
   1287c:	e1833402 	orr	r3, r3, r2, lsl #8
   12880:	e3530c02 	cmp	r3, #512	; 0x200
   12884:	1afffff8 	bne	1286c <f_open+0x110>
   12888:	e5d7204b 	ldrb	r2, [r7, #75]	; 0x4b
   1288c:	e5d7304a 	ldrb	r3, [r7, #74]	; 0x4a
   12890:	e1933402 	orrs	r3, r3, r2, lsl #8
   12894:	1a000007 	bne	128b8 <f_open+0x15c>
   12898:	e5d7305a 	ldrb	r3, [r7, #90]	; 0x5a
   1289c:	e5d7205b 	ldrb	r2, [r7, #91]	; 0x5b
   128a0:	e1a03803 	lsl	r3, r3, #16
   128a4:	e5d71058 	ldrb	r1, [r7, #88]	; 0x58
   128a8:	e1832c02 	orr	r2, r3, r2, lsl #24
   128ac:	e5d73059 	ldrb	r3, [r7, #89]	; 0x59
   128b0:	e1822001 	orr	r2, r2, r1
   128b4:	e1823403 	orr	r3, r2, r3, lsl #8
   128b8:	e5d7e044 	ldrb	lr, [r7, #68]	; 0x44
   128bc:	e587301c 	str	r3, [r7, #28]
   128c0:	e24e2001 	sub	r2, lr, #1
   128c4:	e3520001 	cmp	r2, #1
   128c8:	e5c7e003 	strb	lr, [r7, #3]
   128cc:	8affffe6 	bhi	1286c <f_open+0x110>
   128d0:	e5d71041 	ldrb	r1, [r7, #65]	; 0x41
   128d4:	e3510000 	cmp	r1, #0
   128d8:	e5c71002 	strb	r1, [r7, #2]
   128dc:	0affffe2 	beq	1286c <f_open+0x110>
   128e0:	e2412001 	sub	r2, r1, #1
   128e4:	e1120001 	tst	r2, r1
   128e8:	1affffdf 	bne	1286c <f_open+0x110>
   128ec:	e5d7c046 	ldrb	ip, [r7, #70]	; 0x46
   128f0:	e5d72045 	ldrb	r2, [r7, #69]	; 0x45
   128f4:	e182c40c 	orr	ip, r2, ip, lsl #8
   128f8:	e31c000f 	tst	ip, #15
   128fc:	e1c7c0b8 	strh	ip, [r7, #8]
   12900:	1affffd9 	bne	1286c <f_open+0x110>
   12904:	e5d70048 	ldrb	r0, [r7, #72]	; 0x48
   12908:	e5d72047 	ldrb	r2, [r7, #71]	; 0x47
   1290c:	e1920400 	orrs	r0, r2, r0, lsl #8
   12910:	1a000007 	bne	12934 <f_open+0x1d8>
   12914:	e5d70056 	ldrb	r0, [r7, #86]	; 0x56
   12918:	e5d7b057 	ldrb	fp, [r7, #87]	; 0x57
   1291c:	e1a00800 	lsl	r0, r0, #16
   12920:	e5d72054 	ldrb	r2, [r7, #84]	; 0x54
   12924:	e180bc0b 	orr	fp, r0, fp, lsl #24
   12928:	e5d70055 	ldrb	r0, [r7, #85]	; 0x55
   1292c:	e18b2002 	orr	r2, fp, r2
   12930:	e1820400 	orr	r0, r2, r0, lsl #8
   12934:	e5d7b043 	ldrb	fp, [r7, #67]	; 0x43
   12938:	e5d72042 	ldrb	r2, [r7, #66]	; 0x42
   1293c:	e192b40b 	orrs	fp, r2, fp, lsl #8
   12940:	0affffc9 	beq	1286c <f_open+0x110>
   12944:	e002039e 	mul	r2, lr, r3
   12948:	e1a0e002 	mov	lr, r2
   1294c:	e58d2000 	str	r2, [sp]
   12950:	e08b222c 	add	r2, fp, ip, lsr #4
   12954:	e082200e 	add	r2, r2, lr
   12958:	e1520000 	cmp	r2, r0
   1295c:	8affffc2 	bhi	1286c <f_open+0x110>
   12960:	e0620000 	rsb	r0, r2, r0
   12964:	e58dc00c 	str	ip, [sp, #12]
   12968:	e58d3008 	str	r3, [sp, #8]
   1296c:	e58d2004 	str	r2, [sp, #4]
   12970:	eb002902 	bl	1cd80 <__aeabi_uidiv>
   12974:	e99d100c 	ldmib	sp, {r2, r3, ip}
   12978:	e3500000 	cmp	r0, #0
   1297c:	0affffba 	beq	1286c <f_open+0x110>
   12980:	e59f1530 	ldr	r1, [pc, #1328]	; 12eb8 <f_open+0x75c>
   12984:	e1500001 	cmp	r0, r1
   12988:	9a000106 	bls	12da8 <f_open+0x64c>
   1298c:	e2811a0f 	add	r1, r1, #61440	; 0xf000
   12990:	e1500001 	cmp	r0, r1
   12994:	9a0000ec 	bls	12d4c <f_open+0x5f0>
   12998:	e2800002 	add	r0, r0, #2
   1299c:	e08ab00b 	add	fp, sl, fp
   129a0:	e082200a 	add	r2, r2, sl
   129a4:	e35c0000 	cmp	ip, #0
   129a8:	e5870018 	str	r0, [r7, #24]
   129ac:	e587b024 	str	fp, [r7, #36]	; 0x24
   129b0:	e587202c 	str	r2, [r7, #44]	; 0x2c
   129b4:	e587a020 	str	sl, [r7, #32]
   129b8:	1affffab 	bne	1286c <f_open+0x110>
   129bc:	e5d71062 	ldrb	r1, [r7, #98]	; 0x62
   129c0:	e5d7e063 	ldrb	lr, [r7, #99]	; 0x63
   129c4:	e1a01801 	lsl	r1, r1, #16
   129c8:	e5d72060 	ldrb	r2, [r7, #96]	; 0x60
   129cc:	e1811c0e 	orr	r1, r1, lr, lsl #24
   129d0:	e1a00100 	lsl	r0, r0, #2
   129d4:	e5d7e061 	ldrb	lr, [r7, #97]	; 0x61
   129d8:	e2800f7f 	add	r0, r0, #508	; 0x1fc
   129dc:	e1812002 	orr	r2, r1, r2
   129e0:	e15304a0 	cmp	r3, r0, lsr #9
   129e4:	e182340e 	orr	r3, r2, lr, lsl #8
   129e8:	e5873028 	str	r3, [r7, #40]	; 0x28
   129ec:	3affff9e 	bcc	1286c <f_open+0x110>
   129f0:	e3e00000 	mvn	r0, #0
   129f4:	e5d73064 	ldrb	r3, [r7, #100]	; 0x64
   129f8:	e5d72065 	ldrb	r2, [r7, #101]	; 0x65
   129fc:	e5870010 	str	r0, [r7, #16]
   12a00:	e1832402 	orr	r2, r3, r2, lsl #8
   12a04:	e08a2002 	add	r2, sl, r2
   12a08:	e587c00c 	str	ip, [r7, #12]
   12a0c:	e5c7c005 	strb	ip, [r7, #5]
   12a10:	e1a01009 	mov	r1, r9
   12a14:	e5872014 	str	r2, [r7, #20]
   12a18:	e5d70001 	ldrb	r0, [r7, #1]
   12a1c:	e3a03001 	mov	r3, #1
   12a20:	eb001506 	bl	17e40 <disk_read>
   12a24:	e3500000 	cmp	r0, #0
   12a28:	1a000005 	bne	12a44 <f_open+0x2e8>
   12a2c:	e5d71233 	ldrb	r1, [r7, #563]	; 0x233
   12a30:	e5d73232 	ldrb	r3, [r7, #562]	; 0x232
   12a34:	e59f2480 	ldr	r2, [pc, #1152]	; 12ebc <f_open+0x760>
   12a38:	e1833401 	orr	r3, r3, r1, lsl #8
   12a3c:	e1530002 	cmp	r3, r2
   12a40:	0a0000f1 	beq	12e0c <f_open+0x6b0>
   12a44:	e3a03003 	mov	r3, #3
   12a48:	e3a01000 	mov	r1, #0
   12a4c:	e1d820b4 	ldrh	r2, [r8, #4]
   12a50:	e5c73000 	strb	r3, [r7]
   12a54:	e2823001 	add	r3, r2, #1
   12a58:	e6ff3073 	uxth	r3, r3
   12a5c:	e1c830b4 	strh	r3, [r8, #4]
   12a60:	e1c730b6 	strh	r3, [r7, #6]
   12a64:	e5871030 	str	r1, [r7, #48]	; 0x30
   12a68:	e5c71004 	strb	r1, [r7, #4]
   12a6c:	e59f344c 	ldr	r3, [pc, #1100]	; 12ec0 <f_open+0x764>
   12a70:	e1a01005 	mov	r1, r5
   12a74:	e58d3038 	str	r3, [sp, #56]	; 0x38
   12a78:	e28d001c 	add	r0, sp, #28
   12a7c:	e28d3010 	add	r3, sp, #16
   12a80:	e58d3034 	str	r3, [sp, #52]	; 0x34
   12a84:	ebfff95d 	bl	11000 <follow_path>
   12a88:	e3500000 	cmp	r0, #0
   12a8c:	e206701f 	and	r7, r6, #31
   12a90:	e59d5030 	ldr	r5, [sp, #48]	; 0x30
   12a94:	0a00002a 	beq	12b44 <f_open+0x3e8>
   12a98:	e316001c 	tst	r6, #28
   12a9c:	0affff4e 	beq	127dc <f_open+0x80>
   12aa0:	e3500004 	cmp	r0, #4
   12aa4:	1affff4c 	bne	127dc <f_open+0x80>
   12aa8:	e28d001c 	add	r0, sp, #28
   12aac:	ebfff5d3 	bl	10200 <dir_register>
   12ab0:	e3500000 	cmp	r0, #0
   12ab4:	e3877008 	orr	r7, r7, #8
   12ab8:	e59d5030 	ldr	r5, [sp, #48]	; 0x30
   12abc:	1affff46 	bne	127dc <f_open+0x80>
   12ac0:	e3170008 	tst	r7, #8
   12ac4:	059dc01c 	ldreq	ip, [sp, #28]
   12ac8:	1a00003b 	bne	12bbc <f_open+0x460>
   12acc:	e3a00000 	mov	r0, #0
   12ad0:	e59c3030 	ldr	r3, [ip, #48]	; 0x30
   12ad4:	e5c47006 	strb	r7, [r4, #6]
   12ad8:	e5845020 	str	r5, [r4, #32]
   12adc:	e584301c 	str	r3, [r4, #28]
   12ae0:	e5dc1000 	ldrb	r1, [ip]
   12ae4:	e5d5201b 	ldrb	r2, [r5, #27]
   12ae8:	e5d5301a 	ldrb	r3, [r5, #26]
   12aec:	e3510003 	cmp	r1, #3
   12af0:	05d51015 	ldrbeq	r1, [r5, #21]
   12af4:	e1833402 	orr	r3, r3, r2, lsl #8
   12af8:	05d52014 	ldrbeq	r2, [r5, #20]
   12afc:	01822401 	orreq	r2, r2, r1, lsl #8
   12b00:	01833802 	orreq	r3, r3, r2, lsl #16
   12b04:	e5843010 	str	r3, [r4, #16]
   12b08:	e5d5301e 	ldrb	r3, [r5, #30]
   12b0c:	e5d5101f 	ldrb	r1, [r5, #31]
   12b10:	e5d5201c 	ldrb	r2, [r5, #28]
   12b14:	e1a03803 	lsl	r3, r3, #16
   12b18:	e1833c01 	orr	r3, r3, r1, lsl #24
   12b1c:	e5d5101d 	ldrb	r1, [r5, #29]
   12b20:	e1833002 	orr	r3, r3, r2
   12b24:	e1dc20b6 	ldrh	r2, [ip, #6]
   12b28:	e1833401 	orr	r3, r3, r1, lsl #8
   12b2c:	e584300c 	str	r3, [r4, #12]
   12b30:	e584c000 	str	ip, [r4]
   12b34:	e1c420b4 	strh	r2, [r4, #4]
   12b38:	e5840008 	str	r0, [r4, #8]
   12b3c:	e5840018 	str	r0, [r4, #24]
   12b40:	eaffff25 	b	127dc <f_open+0x80>
   12b44:	e3550000 	cmp	r5, #0
   12b48:	0a000019 	beq	12bb4 <f_open+0x458>
   12b4c:	e316001c 	tst	r6, #28
   12b50:	0a000006 	beq	12b70 <f_open+0x414>
   12b54:	e5d5300b 	ldrb	r3, [r5, #11]
   12b58:	e3130011 	tst	r3, #17
   12b5c:	1a000012 	bne	12bac <f_open+0x450>
   12b60:	e3160004 	tst	r6, #4
   12b64:	13a00008 	movne	r0, #8
   12b68:	1affff1b 	bne	127dc <f_open+0x80>
   12b6c:	eaffffd3 	b	12ac0 <f_open+0x364>
   12b70:	e5d5300b 	ldrb	r3, [r5, #11]
   12b74:	e3130010 	tst	r3, #16
   12b78:	13a00004 	movne	r0, #4
   12b7c:	1affff16 	bne	127dc <f_open+0x80>
   12b80:	e3160002 	tst	r6, #2
   12b84:	0a000001 	beq	12b90 <f_open+0x434>
   12b88:	e3130001 	tst	r3, #1
   12b8c:	1a000006 	bne	12bac <f_open+0x450>
   12b90:	e2063008 	and	r3, r6, #8
   12b94:	e6ef3073 	uxtb	r3, r3
   12b98:	e3530000 	cmp	r3, #0
   12b9c:	e59dc01c 	ldr	ip, [sp, #28]
   12ba0:	0affffc9 	beq	12acc <f_open+0x370>
   12ba4:	e3877020 	orr	r7, r7, #32
   12ba8:	eaffffc7 	b	12acc <f_open+0x370>
   12bac:	e3a00007 	mov	r0, #7
   12bb0:	eaffff09 	b	127dc <f_open+0x80>
   12bb4:	e3a00006 	mov	r0, #6
   12bb8:	eaffff07 	b	127dc <f_open+0x80>
   12bbc:	eb0014de 	bl	17f3c <get_fattime>
   12bc0:	e3a03000 	mov	r3, #0
   12bc4:	e1a02c20 	lsr	r2, r0, #24
   12bc8:	e59dc01c 	ldr	ip, [sp, #28]
   12bcc:	e1a0e420 	lsr	lr, r0, #8
   12bd0:	e1a01820 	lsr	r1, r0, #16
   12bd4:	e5c5300b 	strb	r3, [r5, #11]
   12bd8:	e5c5301c 	strb	r3, [r5, #28]
   12bdc:	e5c5301d 	strb	r3, [r5, #29]
   12be0:	e5c5301e 	strb	r3, [r5, #30]
   12be4:	e5c5301f 	strb	r3, [r5, #31]
   12be8:	e5c5000e 	strb	r0, [r5, #14]
   12bec:	e5c5e00f 	strb	lr, [r5, #15]
   12bf0:	e5c51010 	strb	r1, [r5, #16]
   12bf4:	e5c52011 	strb	r2, [r5, #17]
   12bf8:	e5dc2000 	ldrb	r2, [ip]
   12bfc:	e5d5301a 	ldrb	r3, [r5, #26]
   12c00:	e5d5601b 	ldrb	r6, [r5, #27]
   12c04:	e3520003 	cmp	r2, #3
   12c08:	e1836406 	orr	r6, r3, r6, lsl #8
   12c0c:	05d52015 	ldrbeq	r2, [r5, #21]
   12c10:	05d53014 	ldrbeq	r3, [r5, #20]
   12c14:	01833402 	orreq	r3, r3, r2, lsl #8
   12c18:	01866803 	orreq	r6, r6, r3, lsl #16
   12c1c:	e3a03000 	mov	r3, #0
   12c20:	e3a02001 	mov	r2, #1
   12c24:	e1560003 	cmp	r6, r3
   12c28:	e5c5301a 	strb	r3, [r5, #26]
   12c2c:	e5c5301b 	strb	r3, [r5, #27]
   12c30:	e5c53014 	strb	r3, [r5, #20]
   12c34:	e5c53015 	strb	r3, [r5, #21]
   12c38:	e5cc2004 	strb	r2, [ip, #4]
   12c3c:	0affffd8 	beq	12ba4 <f_open+0x448>
   12c40:	e1560002 	cmp	r6, r2
   12c44:	e59c8030 	ldr	r8, [ip, #48]	; 0x30
   12c48:	9a000002 	bls	12c58 <f_open+0x4fc>
   12c4c:	e59c3018 	ldr	r3, [ip, #24]
   12c50:	e1530006 	cmp	r3, r6
   12c54:	8a00002e 	bhi	12d14 <f_open+0x5b8>
   12c58:	e3a00002 	mov	r0, #2
   12c5c:	eafffede 	b	127dc <f_open+0x80>
   12c60:	e5d71233 	ldrb	r1, [r7, #563]	; 0x233
   12c64:	e5d73232 	ldrb	r3, [r7, #562]	; 0x232
   12c68:	e59f224c 	ldr	r2, [pc, #588]	; 12ebc <f_open+0x760>
   12c6c:	e1833401 	orr	r3, r3, r1, lsl #8
   12c70:	e1530002 	cmp	r3, r2
   12c74:	13a00002 	movne	r0, #2
   12c78:	1afffef5 	bne	12854 <f_open+0xf8>
   12c7c:	e5d7306c 	ldrb	r3, [r7, #108]	; 0x6c
   12c80:	e5d7106d 	ldrb	r1, [r7, #109]	; 0x6d
   12c84:	e1a03803 	lsl	r3, r3, #16
   12c88:	e5d7206a 	ldrb	r2, [r7, #106]	; 0x6a
   12c8c:	e1833c01 	orr	r3, r3, r1, lsl #24
   12c90:	e5d7106b 	ldrb	r1, [r7, #107]	; 0x6b
   12c94:	e1833002 	orr	r3, r3, r2
   12c98:	e1833401 	orr	r3, r3, r1, lsl #8
   12c9c:	e59f1220 	ldr	r1, [pc, #544]	; 12ec4 <f_open+0x768>
   12ca0:	e3c334ff 	bic	r3, r3, #-16777216	; 0xff000000
   12ca4:	e1530001 	cmp	r3, r1
   12ca8:	0afffee9 	beq	12854 <f_open+0xf8>
   12cac:	e5d73088 	ldrb	r3, [r7, #136]	; 0x88
   12cb0:	e5d7c089 	ldrb	ip, [r7, #137]	; 0x89
   12cb4:	e1a03803 	lsl	r3, r3, #16
   12cb8:	e5d72086 	ldrb	r2, [r7, #134]	; 0x86
   12cbc:	e1833c0c 	orr	r3, r3, ip, lsl #24
   12cc0:	e5d7c087 	ldrb	ip, [r7, #135]	; 0x87
   12cc4:	e1833002 	orr	r3, r3, r2
   12cc8:	e183340c 	orr	r3, r3, ip, lsl #8
   12ccc:	e3c334ff 	bic	r3, r3, #-16777216	; 0xff000000
   12cd0:	e1530001 	cmp	r3, r1
   12cd4:	0afffede 	beq	12854 <f_open+0xf8>
   12cd8:	e5d731f6 	ldrb	r3, [r7, #502]	; 0x1f6
   12cdc:	e3530000 	cmp	r3, #0
   12ce0:	0afffee1 	beq	1286c <f_open+0x110>
   12ce4:	e5d731fc 	ldrb	r3, [r7, #508]	; 0x1fc
   12ce8:	e5d711fd 	ldrb	r1, [r7, #509]	; 0x1fd
   12cec:	e5d721fa 	ldrb	r2, [r7, #506]	; 0x1fa
   12cf0:	e1a03803 	lsl	r3, r3, #16
   12cf4:	e1833c01 	orr	r3, r3, r1, lsl #24
   12cf8:	e5d7a1fb 	ldrb	sl, [r7, #507]	; 0x1fb
   12cfc:	e1833002 	orr	r3, r3, r2
   12d00:	e183a40a 	orr	sl, r3, sl, lsl #8
   12d04:	e1a0100a 	mov	r1, sl
   12d08:	e1a00007 	mov	r0, r7
   12d0c:	ebffebca 	bl	dc3c <check_fs>
   12d10:	eafffed0 	b	12858 <f_open+0xfc>
   12d14:	e1a0000c 	mov	r0, ip
   12d18:	e1a01006 	mov	r1, r6
   12d1c:	ebffedc6 	bl	e43c <remove_chain.part.8>
   12d20:	e3500000 	cmp	r0, #0
   12d24:	1afffeac 	bne	127dc <f_open+0x80>
   12d28:	e59d001c 	ldr	r0, [sp, #28]
   12d2c:	e2466001 	sub	r6, r6, #1
   12d30:	e1a01008 	mov	r1, r8
   12d34:	e580600c 	str	r6, [r0, #12]
   12d38:	ebffebec 	bl	dcf0 <move_window>
   12d3c:	e3500000 	cmp	r0, #0
   12d40:	059dc01c 	ldreq	ip, [sp, #28]
   12d44:	0affff96 	beq	12ba4 <f_open+0x448>
   12d48:	eafffea3 	b	127dc <f_open+0x80>
   12d4c:	e2800002 	add	r0, r0, #2
   12d50:	e08ab00b 	add	fp, sl, fp
   12d54:	e082200a 	add	r2, r2, sl
   12d58:	e35c0000 	cmp	ip, #0
   12d5c:	e5870018 	str	r0, [r7, #24]
   12d60:	e587b024 	str	fp, [r7, #36]	; 0x24
   12d64:	e587202c 	str	r2, [r7, #44]	; 0x2c
   12d68:	e587a020 	str	sl, [r7, #32]
   12d6c:	0afffebe 	beq	1286c <f_open+0x110>
   12d70:	e1a02080 	lsl	r2, r0, #1
   12d74:	e2822f7f 	add	r2, r2, #508	; 0x1fc
   12d78:	e2822003 	add	r2, r2, #3
   12d7c:	e15304a2 	cmp	r3, r2, lsr #9
   12d80:	e59d3000 	ldr	r3, [sp]
   12d84:	e083b00b 	add	fp, r3, fp
   12d88:	e587b028 	str	fp, [r7, #40]	; 0x28
   12d8c:	3afffeb6 	bcc	1286c <f_open+0x110>
   12d90:	e3a03000 	mov	r3, #0
   12d94:	e3e02000 	mvn	r2, #0
   12d98:	e587300c 	str	r3, [r7, #12]
   12d9c:	e5872010 	str	r2, [r7, #16]
   12da0:	e3a03002 	mov	r3, #2
   12da4:	eaffff27 	b	12a48 <f_open+0x2ec>
   12da8:	e2800002 	add	r0, r0, #2
   12dac:	e08ab00b 	add	fp, sl, fp
   12db0:	e082200a 	add	r2, r2, sl
   12db4:	e35c0000 	cmp	ip, #0
   12db8:	e5870018 	str	r0, [r7, #24]
   12dbc:	e587b024 	str	fp, [r7, #36]	; 0x24
   12dc0:	e587202c 	str	r2, [r7, #44]	; 0x2c
   12dc4:	e587a020 	str	sl, [r7, #32]
   12dc8:	0afffea7 	beq	1286c <f_open+0x110>
   12dcc:	e2002001 	and	r2, r0, #1
   12dd0:	e2822f7f 	add	r2, r2, #508	; 0x1fc
   12dd4:	e2822003 	add	r2, r2, #3
   12dd8:	e0800080 	add	r0, r0, r0, lsl #1
   12ddc:	e08200a0 	add	r0, r2, r0, lsr #1
   12de0:	e59d2000 	ldr	r2, [sp]
   12de4:	e15304a0 	cmp	r3, r0, lsr #9
   12de8:	e082b00b 	add	fp, r2, fp
   12dec:	e587b028 	str	fp, [r7, #40]	; 0x28
   12df0:	3afffe9d 	bcc	1286c <f_open+0x110>
   12df4:	e3a03000 	mov	r3, #0
   12df8:	e3e02000 	mvn	r2, #0
   12dfc:	e587300c 	str	r3, [r7, #12]
   12e00:	e5872010 	str	r2, [r7, #16]
   12e04:	e3a03001 	mov	r3, #1
   12e08:	eaffff0e 	b	12a48 <f_open+0x2ec>
   12e0c:	e5d73036 	ldrb	r3, [r7, #54]	; 0x36
   12e10:	e5d71037 	ldrb	r1, [r7, #55]	; 0x37
   12e14:	e5d72034 	ldrb	r2, [r7, #52]	; 0x34
   12e18:	e1a03803 	lsl	r3, r3, #16
   12e1c:	e1833c01 	orr	r3, r3, r1, lsl #24
   12e20:	e5d71035 	ldrb	r1, [r7, #53]	; 0x35
   12e24:	e1833002 	orr	r3, r3, r2
   12e28:	e59f2098 	ldr	r2, [pc, #152]	; 12ec8 <f_open+0x76c>
   12e2c:	e1833401 	orr	r3, r3, r1, lsl #8
   12e30:	e1530002 	cmp	r3, r2
   12e34:	1affff02 	bne	12a44 <f_open+0x2e8>
   12e38:	e5d7321a 	ldrb	r3, [r7, #538]	; 0x21a
   12e3c:	e5d7121b 	ldrb	r1, [r7, #539]	; 0x21b
   12e40:	e5d72218 	ldrb	r2, [r7, #536]	; 0x218
   12e44:	e1a03803 	lsl	r3, r3, #16
   12e48:	e1833c01 	orr	r3, r3, r1, lsl #24
   12e4c:	e5d71219 	ldrb	r1, [r7, #537]	; 0x219
   12e50:	e1833002 	orr	r3, r3, r2
   12e54:	e59f2070 	ldr	r2, [pc, #112]	; 12ecc <f_open+0x770>
   12e58:	e1833401 	orr	r3, r3, r1, lsl #8
   12e5c:	e1530002 	cmp	r3, r2
   12e60:	1afffef7 	bne	12a44 <f_open+0x2e8>
   12e64:	e5d70222 	ldrb	r0, [r7, #546]	; 0x222
   12e68:	e5d7321e 	ldrb	r3, [r7, #542]	; 0x21e
   12e6c:	e5d7e223 	ldrb	lr, [r7, #547]	; 0x223
   12e70:	e5d7c21f 	ldrb	ip, [r7, #543]	; 0x21f
   12e74:	e5d7221c 	ldrb	r2, [r7, #540]	; 0x21c
   12e78:	e1a00800 	lsl	r0, r0, #16
   12e7c:	e5d71220 	ldrb	r1, [r7, #544]	; 0x220
   12e80:	e1a03803 	lsl	r3, r3, #16
   12e84:	e1800c0e 	orr	r0, r0, lr, lsl #24
   12e88:	e1833c0c 	orr	r3, r3, ip, lsl #24
   12e8c:	e5d7e221 	ldrb	lr, [r7, #545]	; 0x221
   12e90:	e5d7c21d 	ldrb	ip, [r7, #541]	; 0x21d
   12e94:	e1833002 	orr	r3, r3, r2
   12e98:	e1801001 	orr	r1, r0, r1
   12e9c:	e183340c 	orr	r3, r3, ip, lsl #8
   12ea0:	e181240e 	orr	r2, r1, lr, lsl #8
   12ea4:	e5873010 	str	r3, [r7, #16]
   12ea8:	e587200c 	str	r2, [r7, #12]
   12eac:	e3a03003 	mov	r3, #3
   12eb0:	eafffee4 	b	12a48 <f_open+0x2ec>
   12eb4:	00021bbc 			; <UNDEFINED> instruction: 0x00021bbc
   12eb8:	00000ff5 	strdeq	r0, [r0], -r5
   12ebc:	0000aa55 	andeq	sl, r0, r5, asr sl
   12ec0:	00021bc4 	andeq	r1, r2, r4, asr #23
   12ec4:	00544146 	subseq	r4, r4, r6, asr #2
   12ec8:	41615252 	cmnmi	r1, r2, asr r2
   12ecc:	61417272 	hvcvs	5922	; 0x1722

00012ed0 <f_read>:
   12ed0:	e3a0c000 	mov	ip, #0
   12ed4:	e3500000 	cmp	r0, #0
   12ed8:	e583c000 	str	ip, [r3]
   12edc:	0a00000a 	beq	12f0c <f_read+0x3c>
   12ee0:	e590c000 	ldr	ip, [r0]
   12ee4:	e35c0000 	cmp	ip, #0
   12ee8:	0a000007 	beq	12f0c <f_read+0x3c>
   12eec:	e92d4010 	push	{r4, lr}
   12ef0:	e5dce000 	ldrb	lr, [ip]
   12ef4:	e24dd010 	sub	sp, sp, #16
   12ef8:	e35e0000 	cmp	lr, #0
   12efc:	1a000004 	bne	12f14 <f_read+0x44>
   12f00:	e3a00009 	mov	r0, #9
   12f04:	e28dd010 	add	sp, sp, #16
   12f08:	e8bd8010 	pop	{r4, pc}
   12f0c:	e3a00009 	mov	r0, #9
   12f10:	e12fff1e 	bx	lr
   12f14:	e1dc40b6 	ldrh	r4, [ip, #6]
   12f18:	e1d0e0b4 	ldrh	lr, [r0, #4]
   12f1c:	e154000e 	cmp	r4, lr
   12f20:	1afffff6 	bne	12f00 <f_read+0x30>
   12f24:	e1a04000 	mov	r4, r0
   12f28:	e5dc0001 	ldrb	r0, [ip, #1]
   12f2c:	e58d200c 	str	r2, [sp, #12]
   12f30:	e58d1008 	str	r1, [sp, #8]
   12f34:	e58d3004 	str	r3, [sp, #4]
   12f38:	eb0013e0 	bl	17ec0 <disk_status>
   12f3c:	e3100001 	tst	r0, #1
   12f40:	e59d3004 	ldr	r3, [sp, #4]
   12f44:	e59d1008 	ldr	r1, [sp, #8]
   12f48:	e59d200c 	ldr	r2, [sp, #12]
   12f4c:	13a00003 	movne	r0, #3
   12f50:	1affffeb 	bne	12f04 <f_read+0x34>
   12f54:	e5d40006 	ldrb	r0, [r4, #6]
   12f58:	e3100080 	tst	r0, #128	; 0x80
   12f5c:	1a000006 	bne	12f7c <f_read+0xac>
   12f60:	e3100001 	tst	r0, #1
   12f64:	03a00007 	moveq	r0, #7
   12f68:	0affffe5 	beq	12f04 <f_read+0x34>
   12f6c:	e1a00004 	mov	r0, r4
   12f70:	e28dd010 	add	sp, sp, #16
   12f74:	e8bd4010 	pop	{r4, lr}
   12f78:	eafff0c3 	b	f28c <f_read.part.9>
   12f7c:	e3a00002 	mov	r0, #2
   12f80:	eaffffdf 	b	12f04 <f_read+0x34>

00012f84 <f_write>:
   12f84:	e1a0c003 	mov	ip, r3
   12f88:	e3a03000 	mov	r3, #0
   12f8c:	e92d4ff0 	push	{r4, r5, r6, r7, r8, r9, sl, fp, lr}
   12f90:	e2509000 	subs	r9, r0, #0
   12f94:	e24dd014 	sub	sp, sp, #20
   12f98:	e58c3000 	str	r3, [ip]
   12f9c:	0a000006 	beq	12fbc <f_write+0x38>
   12fa0:	e5993000 	ldr	r3, [r9]
   12fa4:	e3530000 	cmp	r3, #0
   12fa8:	0a000003 	beq	12fbc <f_write+0x38>
   12fac:	e1a0b002 	mov	fp, r2
   12fb0:	e5d32000 	ldrb	r2, [r3]
   12fb4:	e3520000 	cmp	r2, #0
   12fb8:	1a000002 	bne	12fc8 <f_write+0x44>
   12fbc:	e3a00009 	mov	r0, #9
   12fc0:	e28dd014 	add	sp, sp, #20
   12fc4:	e8bd8ff0 	pop	{r4, r5, r6, r7, r8, r9, sl, fp, pc}
   12fc8:	e1a05001 	mov	r5, r1
   12fcc:	e1d920b4 	ldrh	r2, [r9, #4]
   12fd0:	e1d310b6 	ldrh	r1, [r3, #6]
   12fd4:	e1510002 	cmp	r1, r2
   12fd8:	1afffff7 	bne	12fbc <f_write+0x38>
   12fdc:	e5d30001 	ldrb	r0, [r3, #1]
   12fe0:	e58dc000 	str	ip, [sp]
   12fe4:	eb0013b5 	bl	17ec0 <disk_status>
   12fe8:	e3100001 	tst	r0, #1
   12fec:	e59dc000 	ldr	ip, [sp]
   12ff0:	13a00003 	movne	r0, #3
   12ff4:	1afffff1 	bne	12fc0 <f_write+0x3c>
   12ff8:	e5d93006 	ldrb	r3, [r9, #6]
   12ffc:	e3130080 	tst	r3, #128	; 0x80
   13000:	1a000101 	bne	1340c <f_write+0x488>
   13004:	e3130002 	tst	r3, #2
   13008:	03a00007 	moveq	r0, #7
   1300c:	0affffeb 	beq	12fc0 <f_write+0x3c>
   13010:	e599200c 	ldr	r2, [r9, #12]
   13014:	e5991008 	ldr	r1, [r9, #8]
   13018:	e17b0002 	cmn	fp, r2
   1301c:	3a000005 	bcc	13038 <f_write+0xb4>
   13020:	e1510002 	cmp	r1, r2
   13024:	e3833020 	orr	r3, r3, #32
   13028:	8589100c 	strhi	r1, [r9, #12]
   1302c:	e5c93006 	strb	r3, [r9, #6]
   13030:	e3a00000 	mov	r0, #0
   13034:	eaffffe1 	b	12fc0 <f_write+0x3c>
   13038:	e35b0000 	cmp	fp, #0
   1303c:	0afffff7 	beq	13020 <f_write+0x9c>
   13040:	e1a0a00c 	mov	sl, ip
   13044:	e2893024 	add	r3, r9, #36	; 0x24
   13048:	e58d3004 	str	r3, [sp, #4]
   1304c:	e2893028 	add	r3, r9, #40	; 0x28
   13050:	e58d3008 	str	r3, [sp, #8]
   13054:	e2893f89 	add	r3, r9, #548	; 0x224
   13058:	e58d300c 	str	r3, [sp, #12]
   1305c:	e1a03b81 	lsl	r3, r1, #23
   13060:	e1b04ba3 	lsrs	r4, r3, #23
   13064:	1a000066 	bne	13204 <f_write+0x280>
   13068:	e5993000 	ldr	r3, [r9]
   1306c:	e5d37002 	ldrb	r7, [r3, #2]
   13070:	e2477001 	sub	r7, r7, #1
   13074:	e00774a1 	and	r7, r7, r1, lsr #9
   13078:	e21770ff 	ands	r7, r7, #255	; 0xff
   1307c:	1a00000a 	bne	130ac <f_write+0x128>
   13080:	e3510000 	cmp	r1, #0
   13084:	1a0000b7 	bne	13368 <f_write+0x3e4>
   13088:	e5990010 	ldr	r0, [r9, #16]
   1308c:	e3500000 	cmp	r0, #0
   13090:	0a0000bd 	beq	1338c <f_write+0x408>
   13094:	e3500001 	cmp	r0, #1
   13098:	0a0000d5 	beq	133f4 <f_write+0x470>
   1309c:	e3700001 	cmn	r0, #1
   130a0:	0a0000aa 	beq	13350 <f_write+0x3cc>
   130a4:	e5993000 	ldr	r3, [r9]
   130a8:	e5890014 	str	r0, [r9, #20]
   130ac:	e5d91006 	ldrb	r1, [r9, #6]
   130b0:	e3110040 	tst	r1, #64	; 0x40
   130b4:	1a000091 	bne	13300 <f_write+0x37c>
   130b8:	e5998014 	ldr	r8, [r9, #20]
   130bc:	e5932018 	ldr	r2, [r3, #24]
   130c0:	e2488002 	sub	r8, r8, #2
   130c4:	e2422002 	sub	r2, r2, #2
   130c8:	e1580002 	cmp	r8, r2
   130cc:	2a0000bc 	bcs	133c4 <f_write+0x440>
   130d0:	e5d32002 	ldrb	r2, [r3, #2]
   130d4:	e593c02c 	ldr	ip, [r3, #44]	; 0x2c
   130d8:	e0080298 	mul	r8, r8, r2
   130dc:	e098600c 	adds	r6, r8, ip
   130e0:	0a0000b7 	beq	133c4 <f_write+0x440>
   130e4:	e1b044ab 	lsrs	r4, fp, #9
   130e8:	e0876006 	add	r6, r7, r6
   130ec:	0a00003a 	beq	131dc <f_write+0x258>
   130f0:	e0871004 	add	r1, r7, r4
   130f4:	e1520001 	cmp	r2, r1
   130f8:	30674002 	rsbcc	r4, r7, r2
   130fc:	e5d30001 	ldrb	r0, [r3, #1]
   13100:	e1a01005 	mov	r1, r5
   13104:	e1a02006 	mov	r2, r6
   13108:	e6ef3074 	uxtb	r3, r4
   1310c:	e58dc000 	str	ip, [sp]
   13110:	eb001368 	bl	17eb8 <disk_write>
   13114:	e3500000 	cmp	r0, #0
   13118:	e59dc000 	ldr	ip, [sp]
   1311c:	1a00008b 	bne	13350 <f_write+0x3cc>
   13120:	e5993018 	ldr	r3, [r9, #24]
   13124:	e0666003 	rsb	r6, r6, r3
   13128:	e1540006 	cmp	r4, r6
   1312c:	9a00001d 	bls	131a8 <f_write+0x224>
   13130:	e06c3003 	rsb	r3, ip, r3
   13134:	e0683003 	rsb	r3, r8, r3
   13138:	e0673003 	rsb	r3, r7, r3
   1313c:	e1a03483 	lsl	r3, r3, #9
   13140:	e59d0004 	ldr	r0, [sp, #4]
   13144:	e0852003 	add	r2, r5, r3
   13148:	e1821000 	orr	r1, r2, r0
   1314c:	e2833004 	add	r3, r3, #4
   13150:	e59dc008 	ldr	ip, [sp, #8]
   13154:	e0853003 	add	r3, r5, r3
   13158:	e3110003 	tst	r1, #3
   1315c:	03a01001 	moveq	r1, #1
   13160:	13a01000 	movne	r1, #0
   13164:	e152000c 	cmp	r2, ip
   13168:	31500003 	cmpcc	r0, r3
   1316c:	23a03001 	movcs	r3, #1
   13170:	33a03000 	movcc	r3, #0
   13174:	e1110003 	tst	r1, r3
   13178:	e0853486 	add	r3, r5, r6, lsl #9
   1317c:	0a000095 	beq	133d8 <f_write+0x454>
   13180:	e1a03000 	mov	r3, r0
   13184:	e59d000c 	ldr	r0, [sp, #12]
   13188:	e2422004 	sub	r2, r2, #4
   1318c:	e5b21004 	ldr	r1, [r2, #4]!
   13190:	e4831004 	str	r1, [r3], #4
   13194:	e1530000 	cmp	r3, r0
   13198:	1afffffb 	bne	1318c <f_write+0x208>
   1319c:	e5d93006 	ldrb	r3, [r9, #6]
   131a0:	e3c33040 	bic	r3, r3, #64	; 0x40
   131a4:	e5c93006 	strb	r3, [r9, #6]
   131a8:	e1a04484 	lsl	r4, r4, #9
   131ac:	e5991008 	ldr	r1, [r9, #8]
   131b0:	e0855004 	add	r5, r5, r4
   131b4:	e59a3000 	ldr	r3, [sl]
   131b8:	e0811004 	add	r1, r1, r4
   131bc:	e05bb004 	subs	fp, fp, r4
   131c0:	e0834004 	add	r4, r3, r4
   131c4:	e5891008 	str	r1, [r9, #8]
   131c8:	e58a4000 	str	r4, [sl]
   131cc:	1affffa2 	bne	1305c <f_write+0xd8>
   131d0:	e599200c 	ldr	r2, [r9, #12]
   131d4:	e5d93006 	ldrb	r3, [r9, #6]
   131d8:	eaffff90 	b	13020 <f_write+0x9c>
   131dc:	e5992018 	ldr	r2, [r9, #24]
   131e0:	e5994008 	ldr	r4, [r9, #8]
   131e4:	e1560002 	cmp	r6, r2
   131e8:	0a000002 	beq	131f8 <f_write+0x274>
   131ec:	e599200c 	ldr	r2, [r9, #12]
   131f0:	e1540002 	cmp	r4, r2
   131f4:	3a000069 	bcc	133a0 <f_write+0x41c>
   131f8:	e1a04b84 	lsl	r4, r4, #23
   131fc:	e1a04ba4 	lsr	r4, r4, #23
   13200:	e5896018 	str	r6, [r9, #24]
   13204:	e2841020 	add	r1, r4, #32
   13208:	e0891001 	add	r1, r9, r1
   1320c:	e2644c02 	rsb	r4, r4, #512	; 0x200
   13210:	e2812004 	add	r2, r1, #4
   13214:	e154000b 	cmp	r4, fp
   13218:	e1853002 	orr	r3, r5, r2
   1321c:	21a0400b 	movcs	r4, fp
   13220:	e282e004 	add	lr, r2, #4
   13224:	e3130003 	tst	r3, #3
   13228:	e2853004 	add	r3, r5, #4
   1322c:	03a0c001 	moveq	ip, #1
   13230:	13a0c000 	movne	ip, #0
   13234:	e155000e 	cmp	r5, lr
   13238:	31520003 	cmpcc	r2, r3
   1323c:	23a03001 	movcs	r3, #1
   13240:	33a03000 	movcc	r3, #0
   13244:	e003300c 	and	r3, r3, ip
   13248:	e3540009 	cmp	r4, #9
   1324c:	93a03000 	movls	r3, #0
   13250:	82033001 	andhi	r3, r3, #1
   13254:	e3530000 	cmp	r3, #0
   13258:	e2440001 	sub	r0, r4, #1
   1325c:	0a000033 	beq	13330 <f_write+0x3ac>
   13260:	e2441004 	sub	r1, r4, #4
   13264:	e1a01121 	lsr	r1, r1, #2
   13268:	e2811001 	add	r1, r1, #1
   1326c:	e3500002 	cmp	r0, #2
   13270:	e1a03101 	lsl	r3, r1, #2
   13274:	9a00001f 	bls	132f8 <f_write+0x374>
   13278:	e1a06002 	mov	r6, r2
   1327c:	e3a0c000 	mov	ip, #0
   13280:	e245e004 	sub	lr, r5, #4
   13284:	e28cc001 	add	ip, ip, #1
   13288:	e5be7004 	ldr	r7, [lr, #4]!
   1328c:	e151000c 	cmp	r1, ip
   13290:	e4867004 	str	r7, [r6], #4
   13294:	8afffffa 	bhi	13284 <f_write+0x300>
   13298:	e1540003 	cmp	r4, r3
   1329c:	e0822003 	add	r2, r2, r3
   132a0:	e0630000 	rsb	r0, r3, r0
   132a4:	e0853003 	add	r3, r5, r3
   132a8:	01a05003 	moveq	r5, r3
   132ac:	0a00000a 	beq	132dc <f_write+0x358>
   132b0:	e5d31000 	ldrb	r1, [r3]
   132b4:	e3500000 	cmp	r0, #0
   132b8:	e5c21000 	strb	r1, [r2]
   132bc:	0a00000b 	beq	132f0 <f_write+0x36c>
   132c0:	e5d31001 	ldrb	r1, [r3, #1]
   132c4:	e3500001 	cmp	r0, #1
   132c8:	e5c21001 	strb	r1, [r2, #1]
   132cc:	0a000007 	beq	132f0 <f_write+0x36c>
   132d0:	e5d33002 	ldrb	r3, [r3, #2]
   132d4:	e0855004 	add	r5, r5, r4
   132d8:	e5c23002 	strb	r3, [r2, #2]
   132dc:	e5d93006 	ldrb	r3, [r9, #6]
   132e0:	e5991008 	ldr	r1, [r9, #8]
   132e4:	e3833040 	orr	r3, r3, #64	; 0x40
   132e8:	e5c93006 	strb	r3, [r9, #6]
   132ec:	eaffffb0 	b	131b4 <f_write+0x230>
   132f0:	e0855004 	add	r5, r5, r4
   132f4:	eafffff8 	b	132dc <f_write+0x358>
   132f8:	e1a03005 	mov	r3, r5
   132fc:	eaffffeb 	b	132b0 <f_write+0x32c>
   13300:	e5d30001 	ldrb	r0, [r3, #1]
   13304:	e59d1004 	ldr	r1, [sp, #4]
   13308:	e5992018 	ldr	r2, [r9, #24]
   1330c:	e3a03001 	mov	r3, #1
   13310:	eb0012e8 	bl	17eb8 <disk_write>
   13314:	e3500000 	cmp	r0, #0
   13318:	1a00000c 	bne	13350 <f_write+0x3cc>
   1331c:	e5d91006 	ldrb	r1, [r9, #6]
   13320:	e5993000 	ldr	r3, [r9]
   13324:	e20110bf 	and	r1, r1, #191	; 0xbf
   13328:	e5c91006 	strb	r1, [r9, #6]
   1332c:	eaffff61 	b	130b8 <f_write+0x134>
   13330:	e1a03005 	mov	r3, r5
   13334:	e2811003 	add	r1, r1, #3
   13338:	e0855004 	add	r5, r5, r4
   1333c:	e4d32001 	ldrb	r2, [r3], #1
   13340:	e1530005 	cmp	r3, r5
   13344:	e5e12001 	strb	r2, [r1, #1]!
   13348:	1afffffb 	bne	1333c <f_write+0x3b8>
   1334c:	eaffffe2 	b	132dc <f_write+0x358>
   13350:	e5d93006 	ldrb	r3, [r9, #6]
   13354:	e3a00001 	mov	r0, #1
   13358:	e1e03c83 	mvn	r3, r3, lsl #25
   1335c:	e1e03ca3 	mvn	r3, r3, lsr #25
   13360:	e5c93006 	strb	r3, [r9, #6]
   13364:	eaffff15 	b	12fc0 <f_write+0x3c>
   13368:	e1a00003 	mov	r0, r3
   1336c:	e5991014 	ldr	r1, [r9, #20]
   13370:	ebffee7d 	bl	ed6c <create_chain>
   13374:	e3500000 	cmp	r0, #0
   13378:	1affff45 	bne	13094 <f_write+0x110>
   1337c:	e5991008 	ldr	r1, [r9, #8]
   13380:	e599200c 	ldr	r2, [r9, #12]
   13384:	e5d93006 	ldrb	r3, [r9, #6]
   13388:	eaffff24 	b	13020 <f_write+0x9c>
   1338c:	e1a00003 	mov	r0, r3
   13390:	e1a01007 	mov	r1, r7
   13394:	ebffee74 	bl	ed6c <create_chain>
   13398:	e5890010 	str	r0, [r9, #16]
   1339c:	eafffff4 	b	13374 <f_write+0x3f0>
   133a0:	e5d30001 	ldrb	r0, [r3, #1]
   133a4:	e59d1004 	ldr	r1, [sp, #4]
   133a8:	e1a02006 	mov	r2, r6
   133ac:	e3a03001 	mov	r3, #1
   133b0:	eb0012a2 	bl	17e40 <disk_read>
   133b4:	e3500000 	cmp	r0, #0
   133b8:	1affffe4 	bne	13350 <f_write+0x3cc>
   133bc:	e5994008 	ldr	r4, [r9, #8]
   133c0:	eaffff8c 	b	131f8 <f_write+0x274>
   133c4:	e1e01c81 	mvn	r1, r1, lsl #25
   133c8:	e1e01ca1 	mvn	r1, r1, lsr #25
   133cc:	e3a00002 	mov	r0, #2
   133d0:	e5c91006 	strb	r1, [r9, #6]
   133d4:	eafffef9 	b	12fc0 <f_write+0x3c>
   133d8:	e2892023 	add	r2, r9, #35	; 0x23
   133dc:	e2830c02 	add	r0, r3, #512	; 0x200
   133e0:	e4d31001 	ldrb	r1, [r3], #1
   133e4:	e1530000 	cmp	r3, r0
   133e8:	e5e21001 	strb	r1, [r2, #1]!
   133ec:	1afffffb 	bne	133e0 <f_write+0x45c>
   133f0:	eaffff69 	b	1319c <f_write+0x218>
   133f4:	e5d93006 	ldrb	r3, [r9, #6]
   133f8:	e3a00002 	mov	r0, #2
   133fc:	e1e03c83 	mvn	r3, r3, lsl #25
   13400:	e1e03ca3 	mvn	r3, r3, lsr #25
   13404:	e5c93006 	strb	r3, [r9, #6]
   13408:	eafffeec 	b	12fc0 <f_write+0x3c>
   1340c:	e3a00002 	mov	r0, #2
   13410:	eafffeea 	b	12fc0 <f_write+0x3c>

00013414 <f_sync>:
   13414:	e3500000 	cmp	r0, #0
   13418:	0a000008 	beq	13440 <f_sync+0x2c>
   1341c:	e92d43f8 	push	{r3, r4, r5, r6, r7, r8, r9, lr}
   13420:	e5903000 	ldr	r3, [r0]
   13424:	e3530000 	cmp	r3, #0
   13428:	0a000002 	beq	13438 <f_sync+0x24>
   1342c:	e5d32000 	ldrb	r2, [r3]
   13430:	e3520000 	cmp	r2, #0
   13434:	1a000003 	bne	13448 <f_sync+0x34>
   13438:	e3a00009 	mov	r0, #9
   1343c:	e8bd83f8 	pop	{r3, r4, r5, r6, r7, r8, r9, pc}
   13440:	e3a00009 	mov	r0, #9
   13444:	e12fff1e 	bx	lr
   13448:	e1d310b6 	ldrh	r1, [r3, #6]
   1344c:	e1d020b4 	ldrh	r2, [r0, #4]
   13450:	e1510002 	cmp	r1, r2
   13454:	1afffff7 	bne	13438 <f_sync+0x24>
   13458:	e1a04000 	mov	r4, r0
   1345c:	e5d30001 	ldrb	r0, [r3, #1]
   13460:	eb001296 	bl	17ec0 <disk_status>
   13464:	e3100001 	tst	r0, #1
   13468:	0a000001 	beq	13474 <f_sync+0x60>
   1346c:	e3a00003 	mov	r0, #3
   13470:	e8bd83f8 	pop	{r3, r4, r5, r6, r7, r8, r9, pc}
   13474:	e5d42006 	ldrb	r2, [r4, #6]
   13478:	e2023020 	and	r3, r2, #32
   1347c:	e21330ff 	ands	r3, r3, #255	; 0xff
   13480:	1a000001 	bne	1348c <f_sync+0x78>
   13484:	e1a00003 	mov	r0, r3
   13488:	e8bd83f8 	pop	{r3, r4, r5, r6, r7, r8, r9, pc}
   1348c:	e3120040 	tst	r2, #64	; 0x40
   13490:	0a00000a 	beq	134c0 <f_sync+0xac>
   13494:	e1a01004 	mov	r1, r4
   13498:	e4913024 	ldr	r3, [r1], #36	; 0x24
   1349c:	e5942018 	ldr	r2, [r4, #24]
   134a0:	e5d30001 	ldrb	r0, [r3, #1]
   134a4:	e3a03001 	mov	r3, #1
   134a8:	eb001282 	bl	17eb8 <disk_write>
   134ac:	e3500000 	cmp	r0, #0
   134b0:	1a00003c 	bne	135a8 <f_sync+0x194>
   134b4:	e5d43006 	ldrb	r3, [r4, #6]
   134b8:	e3c33040 	bic	r3, r3, #64	; 0x40
   134bc:	e5c43006 	strb	r3, [r4, #6]
   134c0:	e5945000 	ldr	r5, [r4]
   134c4:	e594701c 	ldr	r7, [r4, #28]
   134c8:	e5956030 	ldr	r6, [r5, #48]	; 0x30
   134cc:	e1560007 	cmp	r6, r7
   134d0:	0a00000b 	beq	13504 <f_sync+0xf0>
   134d4:	e5d53004 	ldrb	r3, [r5, #4]
   134d8:	e2858034 	add	r8, r5, #52	; 0x34
   134dc:	e3530000 	cmp	r3, #0
   134e0:	1a000032 	bne	135b0 <f_sync+0x19c>
   134e4:	e1a01008 	mov	r1, r8
   134e8:	e5d50001 	ldrb	r0, [r5, #1]
   134ec:	e1a02007 	mov	r2, r7
   134f0:	e3a03001 	mov	r3, #1
   134f4:	eb001251 	bl	17e40 <disk_read>
   134f8:	e3500000 	cmp	r0, #0
   134fc:	05857030 	streq	r7, [r5, #48]	; 0x30
   13500:	1a000028 	bne	135a8 <f_sync+0x194>
   13504:	e5945020 	ldr	r5, [r4, #32]
   13508:	e5d5300b 	ldrb	r3, [r5, #11]
   1350c:	e3833020 	orr	r3, r3, #32
   13510:	e5c5300b 	strb	r3, [r5, #11]
   13514:	e594300c 	ldr	r3, [r4, #12]
   13518:	e5c5301c 	strb	r3, [r5, #28]
   1351c:	e1d430bc 	ldrh	r3, [r4, #12]
   13520:	e1a03423 	lsr	r3, r3, #8
   13524:	e5c5301d 	strb	r3, [r5, #29]
   13528:	e1d430be 	ldrh	r3, [r4, #14]
   1352c:	e5c5301e 	strb	r3, [r5, #30]
   13530:	e5d4300f 	ldrb	r3, [r4, #15]
   13534:	e5c5301f 	strb	r3, [r5, #31]
   13538:	e5943010 	ldr	r3, [r4, #16]
   1353c:	e1a02823 	lsr	r2, r3, #16
   13540:	e1a01422 	lsr	r1, r2, #8
   13544:	e1a00423 	lsr	r0, r3, #8
   13548:	e5c5301a 	strb	r3, [r5, #26]
   1354c:	e5c52014 	strb	r2, [r5, #20]
   13550:	e5c51015 	strb	r1, [r5, #21]
   13554:	e5c5001b 	strb	r0, [r5, #27]
   13558:	eb001277 	bl	17f3c <get_fattime>
   1355c:	e3a03000 	mov	r3, #0
   13560:	e3a01001 	mov	r1, #1
   13564:	e1a0e420 	lsr	lr, r0, #8
   13568:	e1a02c20 	lsr	r2, r0, #24
   1356c:	e1a0c820 	lsr	ip, r0, #16
   13570:	e5c50016 	strb	r0, [r5, #22]
   13574:	e5c5e017 	strb	lr, [r5, #23]
   13578:	e5c5c018 	strb	ip, [r5, #24]
   1357c:	e5c52019 	strb	r2, [r5, #25]
   13580:	e5c53012 	strb	r3, [r5, #18]
   13584:	e5c53013 	strb	r3, [r5, #19]
   13588:	e5d43006 	ldrb	r3, [r4, #6]
   1358c:	e5942000 	ldr	r2, [r4]
   13590:	e3c33020 	bic	r3, r3, #32
   13594:	e5c43006 	strb	r3, [r4, #6]
   13598:	e5c21004 	strb	r1, [r2, #4]
   1359c:	e5940000 	ldr	r0, [r4]
   135a0:	e8bd43f8 	pop	{r3, r4, r5, r6, r7, r8, r9, lr}
   135a4:	eaffea06 	b	ddc4 <sync_fs>
   135a8:	e3a00001 	mov	r0, #1
   135ac:	e8bd83f8 	pop	{r3, r4, r5, r6, r7, r8, r9, pc}
   135b0:	e1a01008 	mov	r1, r8
   135b4:	e5d50001 	ldrb	r0, [r5, #1]
   135b8:	e1a02006 	mov	r2, r6
   135bc:	e3a03001 	mov	r3, #1
   135c0:	eb00123c 	bl	17eb8 <disk_write>
   135c4:	e3500000 	cmp	r0, #0
   135c8:	1afffff6 	bne	135a8 <f_sync+0x194>
   135cc:	e5952024 	ldr	r2, [r5, #36]	; 0x24
   135d0:	e5c50004 	strb	r0, [r5, #4]
   135d4:	e1560002 	cmp	r6, r2
   135d8:	3affffc1 	bcc	134e4 <f_sync+0xd0>
   135dc:	e595301c 	ldr	r3, [r5, #28]
   135e0:	e0832002 	add	r2, r3, r2
   135e4:	e1560002 	cmp	r6, r2
   135e8:	2affffbd 	bcs	134e4 <f_sync+0xd0>
   135ec:	e5d59003 	ldrb	r9, [r5, #3]
   135f0:	e3590001 	cmp	r9, #1
   135f4:	8a000001 	bhi	13600 <f_sync+0x1ec>
   135f8:	eaffffb9 	b	134e4 <f_sync+0xd0>
   135fc:	e595301c 	ldr	r3, [r5, #28]
   13600:	e0866003 	add	r6, r6, r3
   13604:	e2499001 	sub	r9, r9, #1
   13608:	e1a02006 	mov	r2, r6
   1360c:	e5d50001 	ldrb	r0, [r5, #1]
   13610:	e1a01008 	mov	r1, r8
   13614:	e3a03001 	mov	r3, #1
   13618:	eb001226 	bl	17eb8 <disk_write>
   1361c:	e3590001 	cmp	r9, #1
   13620:	1afffff5 	bne	135fc <f_sync+0x1e8>
   13624:	eaffffae 	b	134e4 <f_sync+0xd0>

00013628 <f_close>:
   13628:	e3500000 	cmp	r0, #0
   1362c:	0a000008 	beq	13654 <f_close+0x2c>
   13630:	e92d43f8 	push	{r3, r4, r5, r6, r7, r8, r9, lr}
   13634:	e5903000 	ldr	r3, [r0]
   13638:	e3530000 	cmp	r3, #0
   1363c:	0a000002 	beq	1364c <f_close+0x24>
   13640:	e5d32000 	ldrb	r2, [r3]
   13644:	e3520000 	cmp	r2, #0
   13648:	1a000003 	bne	1365c <f_close+0x34>
   1364c:	e3a00009 	mov	r0, #9
   13650:	e8bd83f8 	pop	{r3, r4, r5, r6, r7, r8, r9, pc}
   13654:	e3a00009 	mov	r0, #9
   13658:	e12fff1e 	bx	lr
   1365c:	e1d310b6 	ldrh	r1, [r3, #6]
   13660:	e1d020b4 	ldrh	r2, [r0, #4]
   13664:	e1510002 	cmp	r1, r2
   13668:	1afffff7 	bne	1364c <f_close+0x24>
   1366c:	e1a04000 	mov	r4, r0
   13670:	e5d30001 	ldrb	r0, [r3, #1]
   13674:	eb001211 	bl	17ec0 <disk_status>
   13678:	e3100001 	tst	r0, #1
   1367c:	0a000001 	beq	13688 <f_close+0x60>
   13680:	e3a00003 	mov	r0, #3
   13684:	e8bd83f8 	pop	{r3, r4, r5, r6, r7, r8, r9, pc}
   13688:	e5d43006 	ldrb	r3, [r4, #6]
   1368c:	e3130020 	tst	r3, #32
   13690:	1a000002 	bne	136a0 <f_close+0x78>
   13694:	e3a00000 	mov	r0, #0
   13698:	e5840000 	str	r0, [r4]
   1369c:	e8bd83f8 	pop	{r3, r4, r5, r6, r7, r8, r9, pc}
   136a0:	e3130040 	tst	r3, #64	; 0x40
   136a4:	0a00000a 	beq	136d4 <f_close+0xac>
   136a8:	e1a01004 	mov	r1, r4
   136ac:	e4913024 	ldr	r3, [r1], #36	; 0x24
   136b0:	e5942018 	ldr	r2, [r4, #24]
   136b4:	e5d30001 	ldrb	r0, [r3, #1]
   136b8:	e3a03001 	mov	r3, #1
   136bc:	eb0011fd 	bl	17eb8 <disk_write>
   136c0:	e3500000 	cmp	r0, #0
   136c4:	1a00003e 	bne	137c4 <f_close+0x19c>
   136c8:	e5d43006 	ldrb	r3, [r4, #6]
   136cc:	e3c33040 	bic	r3, r3, #64	; 0x40
   136d0:	e5c43006 	strb	r3, [r4, #6]
   136d4:	e5945000 	ldr	r5, [r4]
   136d8:	e594701c 	ldr	r7, [r4, #28]
   136dc:	e5956030 	ldr	r6, [r5, #48]	; 0x30
   136e0:	e1570006 	cmp	r7, r6
   136e4:	0a00000b 	beq	13718 <f_close+0xf0>
   136e8:	e5d53004 	ldrb	r3, [r5, #4]
   136ec:	e2858034 	add	r8, r5, #52	; 0x34
   136f0:	e3530000 	cmp	r3, #0
   136f4:	1a000034 	bne	137cc <f_close+0x1a4>
   136f8:	e1a01008 	mov	r1, r8
   136fc:	e5d50001 	ldrb	r0, [r5, #1]
   13700:	e1a02007 	mov	r2, r7
   13704:	e3a03001 	mov	r3, #1
   13708:	eb0011cc 	bl	17e40 <disk_read>
   1370c:	e3500000 	cmp	r0, #0
   13710:	05857030 	streq	r7, [r5, #48]	; 0x30
   13714:	1a00002a 	bne	137c4 <f_close+0x19c>
   13718:	e5945020 	ldr	r5, [r4, #32]
   1371c:	e5d5300b 	ldrb	r3, [r5, #11]
   13720:	e3833020 	orr	r3, r3, #32
   13724:	e5c5300b 	strb	r3, [r5, #11]
   13728:	e594300c 	ldr	r3, [r4, #12]
   1372c:	e5c5301c 	strb	r3, [r5, #28]
   13730:	e1d430bc 	ldrh	r3, [r4, #12]
   13734:	e1a03423 	lsr	r3, r3, #8
   13738:	e5c5301d 	strb	r3, [r5, #29]
   1373c:	e1d430be 	ldrh	r3, [r4, #14]
   13740:	e5c5301e 	strb	r3, [r5, #30]
   13744:	e5d4300f 	ldrb	r3, [r4, #15]
   13748:	e5c5301f 	strb	r3, [r5, #31]
   1374c:	e5943010 	ldr	r3, [r4, #16]
   13750:	e1a02823 	lsr	r2, r3, #16
   13754:	e1a01422 	lsr	r1, r2, #8
   13758:	e1a00423 	lsr	r0, r3, #8
   1375c:	e5c5301a 	strb	r3, [r5, #26]
   13760:	e5c52014 	strb	r2, [r5, #20]
   13764:	e5c51015 	strb	r1, [r5, #21]
   13768:	e5c5001b 	strb	r0, [r5, #27]
   1376c:	eb0011f2 	bl	17f3c <get_fattime>
   13770:	e3a03000 	mov	r3, #0
   13774:	e3a01001 	mov	r1, #1
   13778:	e1a0e420 	lsr	lr, r0, #8
   1377c:	e1a0c820 	lsr	ip, r0, #16
   13780:	e1a02c20 	lsr	r2, r0, #24
   13784:	e5c50016 	strb	r0, [r5, #22]
   13788:	e5c5e017 	strb	lr, [r5, #23]
   1378c:	e5c5c018 	strb	ip, [r5, #24]
   13790:	e5c52019 	strb	r2, [r5, #25]
   13794:	e5c53012 	strb	r3, [r5, #18]
   13798:	e5c53013 	strb	r3, [r5, #19]
   1379c:	e5d43006 	ldrb	r3, [r4, #6]
   137a0:	e5942000 	ldr	r2, [r4]
   137a4:	e3c33020 	bic	r3, r3, #32
   137a8:	e5c43006 	strb	r3, [r4, #6]
   137ac:	e5c21004 	strb	r1, [r2, #4]
   137b0:	e5940000 	ldr	r0, [r4]
   137b4:	ebffe982 	bl	ddc4 <sync_fs>
   137b8:	e3500000 	cmp	r0, #0
   137bc:	0affffb4 	beq	13694 <f_close+0x6c>
   137c0:	e8bd83f8 	pop	{r3, r4, r5, r6, r7, r8, r9, pc}
   137c4:	e3a00001 	mov	r0, #1
   137c8:	e8bd83f8 	pop	{r3, r4, r5, r6, r7, r8, r9, pc}
   137cc:	e1a01008 	mov	r1, r8
   137d0:	e5d50001 	ldrb	r0, [r5, #1]
   137d4:	e1a02006 	mov	r2, r6
   137d8:	e3a03001 	mov	r3, #1
   137dc:	eb0011b5 	bl	17eb8 <disk_write>
   137e0:	e3500000 	cmp	r0, #0
   137e4:	1afffff6 	bne	137c4 <f_close+0x19c>
   137e8:	e5952024 	ldr	r2, [r5, #36]	; 0x24
   137ec:	e5c50004 	strb	r0, [r5, #4]
   137f0:	e1560002 	cmp	r6, r2
   137f4:	3affffbf 	bcc	136f8 <f_close+0xd0>
   137f8:	e595301c 	ldr	r3, [r5, #28]
   137fc:	e0832002 	add	r2, r3, r2
   13800:	e1560002 	cmp	r6, r2
   13804:	2affffbb 	bcs	136f8 <f_close+0xd0>
   13808:	e5d59003 	ldrb	r9, [r5, #3]
   1380c:	e3590001 	cmp	r9, #1
   13810:	8a000001 	bhi	1381c <f_close+0x1f4>
   13814:	eaffffb7 	b	136f8 <f_close+0xd0>
   13818:	e595301c 	ldr	r3, [r5, #28]
   1381c:	e0866003 	add	r6, r6, r3
   13820:	e2499001 	sub	r9, r9, #1
   13824:	e1a02006 	mov	r2, r6
   13828:	e5d50001 	ldrb	r0, [r5, #1]
   1382c:	e1a01008 	mov	r1, r8
   13830:	e3a03001 	mov	r3, #1
   13834:	eb00119f 	bl	17eb8 <disk_write>
   13838:	e3590001 	cmp	r9, #1
   1383c:	1afffff5 	bne	13818 <f_close+0x1f0>
   13840:	eaffffac 	b	136f8 <f_close+0xd0>

00013844 <f_lseek>:
   13844:	e92d43f8 	push	{r3, r4, r5, r6, r7, r8, r9, lr}
   13848:	e2504000 	subs	r4, r0, #0
   1384c:	0a000005 	beq	13868 <f_lseek+0x24>
   13850:	e5943000 	ldr	r3, [r4]
   13854:	e3530000 	cmp	r3, #0
   13858:	0a000002 	beq	13868 <f_lseek+0x24>
   1385c:	e5d32000 	ldrb	r2, [r3]
   13860:	e3520000 	cmp	r2, #0
   13864:	1a000001 	bne	13870 <f_lseek+0x2c>
   13868:	e3a00009 	mov	r0, #9
   1386c:	e8bd83f8 	pop	{r3, r4, r5, r6, r7, r8, r9, pc}
   13870:	e1a05001 	mov	r5, r1
   13874:	e1d420b4 	ldrh	r2, [r4, #4]
   13878:	e1d310b6 	ldrh	r1, [r3, #6]
   1387c:	e1510002 	cmp	r1, r2
   13880:	1afffff8 	bne	13868 <f_lseek+0x24>
   13884:	e5d30001 	ldrb	r0, [r3, #1]
   13888:	eb00118c 	bl	17ec0 <disk_status>
   1388c:	e3100001 	tst	r0, #1
   13890:	0a000001 	beq	1389c <f_lseek+0x58>
   13894:	e3a00003 	mov	r0, #3
   13898:	e8bd83f8 	pop	{r3, r4, r5, r6, r7, r8, r9, pc}
   1389c:	e5d42006 	ldrb	r2, [r4, #6]
   138a0:	e3120080 	tst	r2, #128	; 0x80
   138a4:	1a0000a1 	bne	13b30 <f_lseek+0x2ec>
   138a8:	e594300c 	ldr	r3, [r4, #12]
   138ac:	e1530005 	cmp	r3, r5
   138b0:	2a000001 	bcs	138bc <f_lseek+0x78>
   138b4:	e3120002 	tst	r2, #2
   138b8:	01a05003 	moveq	r5, r3
   138bc:	e3a02000 	mov	r2, #0
   138c0:	e1550002 	cmp	r5, r2
   138c4:	e5943008 	ldr	r3, [r4, #8]
   138c8:	e5842008 	str	r2, [r4, #8]
   138cc:	0a00003e 	beq	139cc <f_lseek+0x188>
   138d0:	e5948000 	ldr	r8, [r4]
   138d4:	e1530002 	cmp	r3, r2
   138d8:	e5d86002 	ldrb	r6, [r8, #2]
   138dc:	e1a06486 	lsl	r6, r6, #9
   138e0:	0a00003b 	beq	139d4 <f_lseek+0x190>
   138e4:	e1a01006 	mov	r1, r6
   138e8:	e2450001 	sub	r0, r5, #1
   138ec:	e2437001 	sub	r7, r3, #1
   138f0:	eb002522 	bl	1cd80 <__aeabi_uidiv>
   138f4:	e1a01006 	mov	r1, r6
   138f8:	e1a09000 	mov	r9, r0
   138fc:	e1a00007 	mov	r0, r7
   13900:	eb00251e 	bl	1cd80 <__aeabi_uidiv>
   13904:	e1590000 	cmp	r9, r0
   13908:	3a000031 	bcc	139d4 <f_lseek+0x190>
   1390c:	e2663000 	rsb	r3, r6, #0
   13910:	e0033007 	and	r3, r3, r7
   13914:	e5941014 	ldr	r1, [r4, #20]
   13918:	e5843008 	str	r3, [r4, #8]
   1391c:	e0635005 	rsb	r5, r3, r5
   13920:	e3510000 	cmp	r1, #0
   13924:	1a00002f 	bne	139e8 <f_lseek+0x1a4>
   13928:	e1a05001 	mov	r5, r1
   1392c:	e5943008 	ldr	r3, [r4, #8]
   13930:	e1b02b83 	lsls	r2, r3, #23
   13934:	0a000074 	beq	13b0c <f_lseek+0x2c8>
   13938:	e5942018 	ldr	r2, [r4, #24]
   1393c:	e1520005 	cmp	r2, r5
   13940:	0a000071 	beq	13b0c <f_lseek+0x2c8>
   13944:	e5d43006 	ldrb	r3, [r4, #6]
   13948:	e3130040 	tst	r3, #64	; 0x40
   1394c:	02846024 	addeq	r6, r4, #36	; 0x24
   13950:	0a00000a 	beq	13980 <f_lseek+0x13c>
   13954:	e5943000 	ldr	r3, [r4]
   13958:	e2846024 	add	r6, r4, #36	; 0x24
   1395c:	e5d30001 	ldrb	r0, [r3, #1]
   13960:	e1a01006 	mov	r1, r6
   13964:	e3a03001 	mov	r3, #1
   13968:	eb001152 	bl	17eb8 <disk_write>
   1396c:	e5d43006 	ldrb	r3, [r4, #6]
   13970:	e3500000 	cmp	r0, #0
   13974:	03c33040 	biceq	r3, r3, #64	; 0x40
   13978:	05c43006 	strbeq	r3, [r4, #6]
   1397c:	1a00005d 	bne	13af8 <f_lseek+0x2b4>
   13980:	e5943000 	ldr	r3, [r4]
   13984:	e1a01006 	mov	r1, r6
   13988:	e5d30001 	ldrb	r0, [r3, #1]
   1398c:	e1a02005 	mov	r2, r5
   13990:	e3a03001 	mov	r3, #1
   13994:	eb001129 	bl	17e40 <disk_read>
   13998:	e3500000 	cmp	r0, #0
   1399c:	1a000054 	bne	13af4 <f_lseek+0x2b0>
   139a0:	e5943008 	ldr	r3, [r4, #8]
   139a4:	e594200c 	ldr	r2, [r4, #12]
   139a8:	e5845018 	str	r5, [r4, #24]
   139ac:	e1530002 	cmp	r3, r2
   139b0:	9a000005 	bls	139cc <f_lseek+0x188>
   139b4:	e5d42006 	ldrb	r2, [r4, #6]
   139b8:	e584300c 	str	r3, [r4, #12]
   139bc:	e3823020 	orr	r3, r2, #32
   139c0:	e5c43006 	strb	r3, [r4, #6]
   139c4:	e3a00000 	mov	r0, #0
   139c8:	e8bd83f8 	pop	{r3, r4, r5, r6, r7, r8, r9, pc}
   139cc:	e3a00000 	mov	r0, #0
   139d0:	e8bd83f8 	pop	{r3, r4, r5, r6, r7, r8, r9, pc}
   139d4:	e5941010 	ldr	r1, [r4, #16]
   139d8:	e3510000 	cmp	r1, #0
   139dc:	0a00003c 	beq	13ad4 <f_lseek+0x290>
   139e0:	e5841014 	str	r1, [r4, #20]
   139e4:	eaffffcd 	b	13920 <f_lseek+0xdc>
   139e8:	e1550006 	cmp	r5, r6
   139ec:	85940000 	ldrhi	r0, [r4]
   139f0:	9a00004c 	bls	13b28 <f_lseek+0x2e4>
   139f4:	e5d43006 	ldrb	r3, [r4, #6]
   139f8:	e0665005 	rsb	r5, r6, r5
   139fc:	e3130002 	tst	r3, #2
   13a00:	1a000009 	bne	13a2c <f_lseek+0x1e8>
   13a04:	e3510001 	cmp	r1, #1
   13a08:	9a000002 	bls	13a18 <f_lseek+0x1d4>
   13a0c:	e5902018 	ldr	r2, [r0, #24]
   13a10:	e1520001 	cmp	r2, r1
   13a14:	8a00002b 	bhi	13ac8 <f_lseek+0x284>
   13a18:	e1e03c83 	mvn	r3, r3, lsl #25
   13a1c:	e1e03ca3 	mvn	r3, r3, lsr #25
   13a20:	e3a00002 	mov	r0, #2
   13a24:	e5c43006 	strb	r3, [r4, #6]
   13a28:	e8bd83f8 	pop	{r3, r4, r5, r6, r7, r8, r9, pc}
   13a2c:	ebffecce 	bl	ed6c <create_chain>
   13a30:	e2501000 	subs	r1, r0, #0
   13a34:	0a00003a 	beq	13b24 <f_lseek+0x2e0>
   13a38:	e3710001 	cmn	r1, #1
   13a3c:	0a00002c 	beq	13af4 <f_lseek+0x2b0>
   13a40:	e3510001 	cmp	r1, #1
   13a44:	9a000032 	bls	13b14 <f_lseek+0x2d0>
   13a48:	e5940000 	ldr	r0, [r4]
   13a4c:	e5903018 	ldr	r3, [r0, #24]
   13a50:	e1510003 	cmp	r1, r3
   13a54:	2a00002e 	bcs	13b14 <f_lseek+0x2d0>
   13a58:	e5943008 	ldr	r3, [r4, #8]
   13a5c:	e1560005 	cmp	r6, r5
   13a60:	e0863003 	add	r3, r6, r3
   13a64:	e5843008 	str	r3, [r4, #8]
   13a68:	e5841014 	str	r1, [r4, #20]
   13a6c:	3affffe0 	bcc	139f4 <f_lseek+0x1b0>
   13a70:	e1a02b85 	lsl	r2, r5, #23
   13a74:	e0833005 	add	r3, r3, r5
   13a78:	e1b02ba2 	lsrs	r2, r2, #23
   13a7c:	e5843008 	str	r3, [r4, #8]
   13a80:	0a000025 	beq	13b1c <f_lseek+0x2d8>
   13a84:	e5940000 	ldr	r0, [r4]
   13a88:	e2411002 	sub	r1, r1, #2
   13a8c:	e5902018 	ldr	r2, [r0, #24]
   13a90:	e2422002 	sub	r2, r2, #2
   13a94:	e1510002 	cmp	r1, r2
   13a98:	2a000004 	bcs	13ab0 <f_lseek+0x26c>
   13a9c:	e5d02002 	ldrb	r2, [r0, #2]
   13aa0:	e590002c 	ldr	r0, [r0, #44]	; 0x2c
   13aa4:	e0310192 	mlas	r1, r2, r1, r0
   13aa8:	108154a5 	addne	r5, r1, r5, lsr #9
   13aac:	1affff9f 	bne	13930 <f_lseek+0xec>
   13ab0:	e5d43006 	ldrb	r3, [r4, #6]
   13ab4:	e3a00002 	mov	r0, #2
   13ab8:	e1e03c83 	mvn	r3, r3, lsl #25
   13abc:	e1e03ca3 	mvn	r3, r3, lsr #25
   13ac0:	e5c43006 	strb	r3, [r4, #6]
   13ac4:	e8bd83f8 	pop	{r3, r4, r5, r6, r7, r8, r9, pc}
   13ac8:	ebffeb67 	bl	e86c <get_fat.part.5>
   13acc:	e1a01000 	mov	r1, r0
   13ad0:	eaffffd8 	b	13a38 <f_lseek+0x1f4>
   13ad4:	e1a00008 	mov	r0, r8
   13ad8:	ebffeca3 	bl	ed6c <create_chain>
   13adc:	e3500001 	cmp	r0, #1
   13ae0:	e1a01000 	mov	r1, r0
   13ae4:	0afffff1 	beq	13ab0 <f_lseek+0x26c>
   13ae8:	e3700001 	cmn	r0, #1
   13aec:	15840010 	strne	r0, [r4, #16]
   13af0:	1affffba 	bne	139e0 <f_lseek+0x19c>
   13af4:	e5d43006 	ldrb	r3, [r4, #6]
   13af8:	e1e03c83 	mvn	r3, r3, lsl #25
   13afc:	e1e03ca3 	mvn	r3, r3, lsr #25
   13b00:	e3a00001 	mov	r0, #1
   13b04:	e5c43006 	strb	r3, [r4, #6]
   13b08:	e8bd83f8 	pop	{r3, r4, r5, r6, r7, r8, r9, pc}
   13b0c:	e594200c 	ldr	r2, [r4, #12]
   13b10:	eaffffa5 	b	139ac <f_lseek+0x168>
   13b14:	e5d43006 	ldrb	r3, [r4, #6]
   13b18:	eaffffbe 	b	13a18 <f_lseek+0x1d4>
   13b1c:	e1a05002 	mov	r5, r2
   13b20:	eaffff82 	b	13930 <f_lseek+0xec>
   13b24:	e1a05006 	mov	r5, r6
   13b28:	e5943008 	ldr	r3, [r4, #8]
   13b2c:	eaffffcf 	b	13a70 <f_lseek+0x22c>
   13b30:	e3a00002 	mov	r0, #2
   13b34:	e8bd83f8 	pop	{r3, r4, r5, r6, r7, r8, r9, pc}

00013b38 <f_opendir>:
   13b38:	e92d4ff0 	push	{r4, r5, r6, r7, r8, r9, sl, fp, lr}
   13b3c:	e2504000 	subs	r4, r0, #0
   13b40:	e24dd024 	sub	sp, sp, #36	; 0x24
   13b44:	03a00009 	moveq	r0, #9
   13b48:	0a000021 	beq	13bd4 <f_opendir+0x9c>
   13b4c:	e5d13000 	ldrb	r3, [r1]
   13b50:	e1a05001 	mov	r5, r1
   13b54:	e2433030 	sub	r3, r3, #48	; 0x30
   13b58:	e3530009 	cmp	r3, #9
   13b5c:	9a00001e 	bls	13bdc <f_opendir+0xa4>
   13b60:	e3a03000 	mov	r3, #0
   13b64:	e5843000 	str	r3, [r4]
   13b68:	e59f7590 	ldr	r7, [pc, #1424]	; 14100 <f_opendir+0x5c8>
   13b6c:	e5976000 	ldr	r6, [r7]
   13b70:	e3560000 	cmp	r6, #0
   13b74:	0a00003a 	beq	13c64 <f_opendir+0x12c>
   13b78:	e5846000 	str	r6, [r4]
   13b7c:	e5d63000 	ldrb	r3, [r6]
   13b80:	e3530000 	cmp	r3, #0
   13b84:	0a000020 	beq	13c0c <f_opendir+0xd4>
   13b88:	e5d60001 	ldrb	r0, [r6, #1]
   13b8c:	eb0010cb 	bl	17ec0 <disk_status>
   13b90:	e3100001 	tst	r0, #1
   13b94:	1a00001c 	bne	13c0c <f_opendir+0xd4>
   13b98:	e59f2564 	ldr	r2, [pc, #1380]	; 14104 <f_opendir+0x5cc>
   13b9c:	e28d3014 	add	r3, sp, #20
   13ba0:	e1a01005 	mov	r1, r5
   13ba4:	e5843018 	str	r3, [r4, #24]
   13ba8:	e584201c 	str	r2, [r4, #28]
   13bac:	e1a00004 	mov	r0, r4
   13bb0:	e5945000 	ldr	r5, [r4]
   13bb4:	ebfff511 	bl	11000 <follow_path>
   13bb8:	e2503000 	subs	r3, r0, #0
   13bbc:	0a00002a 	beq	13c6c <f_opendir+0x134>
   13bc0:	e3530004 	cmp	r3, #4
   13bc4:	0a000043 	beq	13cd8 <f_opendir+0x1a0>
   13bc8:	e3a02000 	mov	r2, #0
   13bcc:	e1a00003 	mov	r0, r3
   13bd0:	e5842000 	str	r2, [r4]
   13bd4:	e28dd024 	add	sp, sp, #36	; 0x24
   13bd8:	e8bd8ff0 	pop	{r4, r5, r6, r7, r8, r9, sl, fp, pc}
   13bdc:	e5d12001 	ldrb	r2, [r1, #1]
   13be0:	e352003a 	cmp	r2, #58	; 0x3a
   13be4:	1affffdd 	bne	13b60 <f_opendir+0x28>
   13be8:	e3a02000 	mov	r2, #0
   13bec:	e1530002 	cmp	r3, r2
   13bf0:	e5842000 	str	r2, [r4]
   13bf4:	13a0000b 	movne	r0, #11
   13bf8:	0a0000fc 	beq	13ff0 <f_opendir+0x4b8>
   13bfc:	e3a03000 	mov	r3, #0
   13c00:	e5843000 	str	r3, [r4]
   13c04:	e28dd024 	add	sp, sp, #36	; 0x24
   13c08:	e8bd8ff0 	pop	{r4, r5, r6, r7, r8, r9, sl, fp, pc}
   13c0c:	e3a00000 	mov	r0, #0
   13c10:	e5c60000 	strb	r0, [r6]
   13c14:	e5c60001 	strb	r0, [r6, #1]
   13c18:	eb001077 	bl	17dfc <disk_initialize>
   13c1c:	e2102001 	ands	r2, r0, #1
   13c20:	13a00003 	movne	r0, #3
   13c24:	1afffff4 	bne	13bfc <f_opendir+0xc4>
   13c28:	e2868034 	add	r8, r6, #52	; 0x34
   13c2c:	e1a01008 	mov	r1, r8
   13c30:	e5d60001 	ldrb	r0, [r6, #1]
   13c34:	e3a03001 	mov	r3, #1
   13c38:	eb001080 	bl	17e40 <disk_read>
   13c3c:	e3500000 	cmp	r0, #0
   13c40:	13a00003 	movne	r0, #3
   13c44:	0a000025 	beq	13ce0 <f_opendir+0x1a8>
   13c48:	e3a09000 	mov	r9, #0
   13c4c:	e3500003 	cmp	r0, #3
   13c50:	0a0000ce 	beq	13f90 <f_opendir+0x458>
   13c54:	e3500000 	cmp	r0, #0
   13c58:	0a00004d 	beq	13d94 <f_opendir+0x25c>
   13c5c:	e3a0000d 	mov	r0, #13
   13c60:	eaffffe5 	b	13bfc <f_opendir+0xc4>
   13c64:	e3a0000c 	mov	r0, #12
   13c68:	eaffffe3 	b	13bfc <f_opendir+0xc4>
   13c6c:	e5943014 	ldr	r3, [r4, #20]
   13c70:	e3530000 	cmp	r3, #0
   13c74:	0a00000c 	beq	13cac <f_opendir+0x174>
   13c78:	e5d3200b 	ldrb	r2, [r3, #11]
   13c7c:	e3120010 	tst	r2, #16
   13c80:	0a000014 	beq	13cd8 <f_opendir+0x1a0>
   13c84:	e5d50000 	ldrb	r0, [r5]
   13c88:	e5d3101b 	ldrb	r1, [r3, #27]
   13c8c:	e5d3201a 	ldrb	r2, [r3, #26]
   13c90:	e3500003 	cmp	r0, #3
   13c94:	e1822401 	orr	r2, r2, r1, lsl #8
   13c98:	05d31015 	ldrbeq	r1, [r3, #21]
   13c9c:	05d33014 	ldrbeq	r3, [r3, #20]
   13ca0:	01833401 	orreq	r3, r3, r1, lsl #8
   13ca4:	01822803 	orreq	r2, r2, r3, lsl #16
   13ca8:	e5842008 	str	r2, [r4, #8]
   13cac:	e1d530b6 	ldrh	r3, [r5, #6]
   13cb0:	e1a00004 	mov	r0, r4
   13cb4:	e1c430b4 	strh	r3, [r4, #4]
   13cb8:	e3a01000 	mov	r1, #0
   13cbc:	ebffebdb 	bl	ec30 <dir_sdi>
   13cc0:	e3500004 	cmp	r0, #4
   13cc4:	e1a03000 	mov	r3, r0
   13cc8:	0a000002 	beq	13cd8 <f_opendir+0x1a0>
   13ccc:	e3500000 	cmp	r0, #0
   13cd0:	0affffbf 	beq	13bd4 <f_opendir+0x9c>
   13cd4:	eaffffbb 	b	13bc8 <f_opendir+0x90>
   13cd8:	e3a03005 	mov	r3, #5
   13cdc:	eaffffb9 	b	13bc8 <f_opendir+0x90>
   13ce0:	e5d61233 	ldrb	r1, [r6, #563]	; 0x233
   13ce4:	e5d63232 	ldrb	r3, [r6, #562]	; 0x232
   13ce8:	e59f2418 	ldr	r2, [pc, #1048]	; 14108 <f_opendir+0x5d0>
   13cec:	e1833401 	orr	r3, r3, r1, lsl #8
   13cf0:	e1530002 	cmp	r3, r2
   13cf4:	13a00002 	movne	r0, #2
   13cf8:	1affffd2 	bne	13c48 <f_opendir+0x110>
   13cfc:	e5d6306c 	ldrb	r3, [r6, #108]	; 0x6c
   13d00:	e5d6106d 	ldrb	r1, [r6, #109]	; 0x6d
   13d04:	e1a03803 	lsl	r3, r3, #16
   13d08:	e5d6206a 	ldrb	r2, [r6, #106]	; 0x6a
   13d0c:	e1833c01 	orr	r3, r3, r1, lsl #24
   13d10:	e5d6106b 	ldrb	r1, [r6, #107]	; 0x6b
   13d14:	e1833002 	orr	r3, r3, r2
   13d18:	e1833401 	orr	r3, r3, r1, lsl #8
   13d1c:	e59f13e8 	ldr	r1, [pc, #1000]	; 1410c <f_opendir+0x5d4>
   13d20:	e3c334ff 	bic	r3, r3, #-16777216	; 0xff000000
   13d24:	e1530001 	cmp	r3, r1
   13d28:	0affffc6 	beq	13c48 <f_opendir+0x110>
   13d2c:	e5d63088 	ldrb	r3, [r6, #136]	; 0x88
   13d30:	e5d6c089 	ldrb	ip, [r6, #137]	; 0x89
   13d34:	e1a03803 	lsl	r3, r3, #16
   13d38:	e5d62086 	ldrb	r2, [r6, #134]	; 0x86
   13d3c:	e1833c0c 	orr	r3, r3, ip, lsl #24
   13d40:	e5d6c087 	ldrb	ip, [r6, #135]	; 0x87
   13d44:	e1833002 	orr	r3, r3, r2
   13d48:	e183340c 	orr	r3, r3, ip, lsl #8
   13d4c:	e3c334ff 	bic	r3, r3, #-16777216	; 0xff000000
   13d50:	e1530001 	cmp	r3, r1
   13d54:	0affffbb 	beq	13c48 <f_opendir+0x110>
   13d58:	e5d631f6 	ldrb	r3, [r6, #502]	; 0x1f6
   13d5c:	e3530000 	cmp	r3, #0
   13d60:	0affffbd 	beq	13c5c <f_opendir+0x124>
   13d64:	e5d631fc 	ldrb	r3, [r6, #508]	; 0x1fc
   13d68:	e5d611fd 	ldrb	r1, [r6, #509]	; 0x1fd
   13d6c:	e5d621fa 	ldrb	r2, [r6, #506]	; 0x1fa
   13d70:	e1a03803 	lsl	r3, r3, #16
   13d74:	e1833c01 	orr	r3, r3, r1, lsl #24
   13d78:	e5d691fb 	ldrb	r9, [r6, #507]	; 0x1fb
   13d7c:	e1833002 	orr	r3, r3, r2
   13d80:	e1839409 	orr	r9, r3, r9, lsl #8
   13d84:	e1a01009 	mov	r1, r9
   13d88:	e1a00006 	mov	r0, r6
   13d8c:	ebffe7aa 	bl	dc3c <check_fs>
   13d90:	eaffffad 	b	13c4c <f_opendir+0x114>
   13d94:	e5d62040 	ldrb	r2, [r6, #64]	; 0x40
   13d98:	e5d6303f 	ldrb	r3, [r6, #63]	; 0x3f
   13d9c:	e1833402 	orr	r3, r3, r2, lsl #8
   13da0:	e3530c02 	cmp	r3, #512	; 0x200
   13da4:	1affffac 	bne	13c5c <f_opendir+0x124>
   13da8:	e5d6b04b 	ldrb	fp, [r6, #75]	; 0x4b
   13dac:	e5d6304a 	ldrb	r3, [r6, #74]	; 0x4a
   13db0:	e193340b 	orrs	r3, r3, fp, lsl #8
   13db4:	11a0b003 	movne	fp, r3
   13db8:	05d6305a 	ldrbeq	r3, [r6, #90]	; 0x5a
   13dbc:	05d6105b 	ldrbeq	r1, [r6, #91]	; 0x5b
   13dc0:	01a03803 	lsleq	r3, r3, #16
   13dc4:	05d62058 	ldrbeq	r2, [r6, #88]	; 0x58
   13dc8:	01833c01 	orreq	r3, r3, r1, lsl #24
   13dcc:	01833002 	orreq	r3, r3, r2
   13dd0:	05d6b059 	ldrbeq	fp, [r6, #89]	; 0x59
   13dd4:	e5d62044 	ldrb	r2, [r6, #68]	; 0x44
   13dd8:	0183b40b 	orreq	fp, r3, fp, lsl #8
   13ddc:	e2423001 	sub	r3, r2, #1
   13de0:	e3530001 	cmp	r3, #1
   13de4:	e586b01c 	str	fp, [r6, #28]
   13de8:	e5c62003 	strb	r2, [r6, #3]
   13dec:	8affff9a 	bhi	13c5c <f_opendir+0x124>
   13df0:	e5d61041 	ldrb	r1, [r6, #65]	; 0x41
   13df4:	e3510000 	cmp	r1, #0
   13df8:	e5c61002 	strb	r1, [r6, #2]
   13dfc:	0affff96 	beq	13c5c <f_opendir+0x124>
   13e00:	e2413001 	sub	r3, r1, #1
   13e04:	e1130001 	tst	r3, r1
   13e08:	1affff93 	bne	13c5c <f_opendir+0x124>
   13e0c:	e5d6c046 	ldrb	ip, [r6, #70]	; 0x46
   13e10:	e5d63045 	ldrb	r3, [r6, #69]	; 0x45
   13e14:	e183c40c 	orr	ip, r3, ip, lsl #8
   13e18:	e31c000f 	tst	ip, #15
   13e1c:	e1c6c0b8 	strh	ip, [r6, #8]
   13e20:	1affff8d 	bne	13c5c <f_opendir+0x124>
   13e24:	e5d60048 	ldrb	r0, [r6, #72]	; 0x48
   13e28:	e5d63047 	ldrb	r3, [r6, #71]	; 0x47
   13e2c:	e1930400 	orrs	r0, r3, r0, lsl #8
   13e30:	1a000007 	bne	13e54 <f_opendir+0x31c>
   13e34:	e5d63056 	ldrb	r3, [r6, #86]	; 0x56
   13e38:	e5d6e057 	ldrb	lr, [r6, #87]	; 0x57
   13e3c:	e5d60054 	ldrb	r0, [r6, #84]	; 0x54
   13e40:	e1a03803 	lsl	r3, r3, #16
   13e44:	e1833c0e 	orr	r3, r3, lr, lsl #24
   13e48:	e5d6e055 	ldrb	lr, [r6, #85]	; 0x55
   13e4c:	e1833000 	orr	r3, r3, r0
   13e50:	e183040e 	orr	r0, r3, lr, lsl #8
   13e54:	e5d6a043 	ldrb	sl, [r6, #67]	; 0x43
   13e58:	e5d63042 	ldrb	r3, [r6, #66]	; 0x42
   13e5c:	e193a40a 	orrs	sl, r3, sl, lsl #8
   13e60:	0affff7d 	beq	13c5c <f_opendir+0x124>
   13e64:	e0020b92 	mul	r2, r2, fp
   13e68:	e08a322c 	add	r3, sl, ip, lsr #4
   13e6c:	e0833002 	add	r3, r3, r2
   13e70:	e1530000 	cmp	r3, r0
   13e74:	8affff78 	bhi	13c5c <f_opendir+0x124>
   13e78:	e0630000 	rsb	r0, r3, r0
   13e7c:	e58dc00c 	str	ip, [sp, #12]
   13e80:	e58d2008 	str	r2, [sp, #8]
   13e84:	e58d3004 	str	r3, [sp, #4]
   13e88:	eb0023bc 	bl	1cd80 <__aeabi_uidiv>
   13e8c:	e3500000 	cmp	r0, #0
   13e90:	e59d3004 	ldr	r3, [sp, #4]
   13e94:	e59d2008 	ldr	r2, [sp, #8]
   13e98:	e59dc00c 	ldr	ip, [sp, #12]
   13e9c:	0affff6e 	beq	13c5c <f_opendir+0x124>
   13ea0:	e59f1268 	ldr	r1, [pc, #616]	; 14110 <f_opendir+0x5d8>
   13ea4:	e1500001 	cmp	r0, r1
   13ea8:	9a000052 	bls	13ff8 <f_opendir+0x4c0>
   13eac:	e2811a0f 	add	r1, r1, #61440	; 0xf000
   13eb0:	e1500001 	cmp	r0, r1
   13eb4:	9a000037 	bls	13f98 <f_opendir+0x460>
   13eb8:	e2800002 	add	r0, r0, #2
   13ebc:	e089a00a 	add	sl, r9, sl
   13ec0:	e0833009 	add	r3, r3, r9
   13ec4:	e35c0000 	cmp	ip, #0
   13ec8:	e5860018 	str	r0, [r6, #24]
   13ecc:	e586a024 	str	sl, [r6, #36]	; 0x24
   13ed0:	e586302c 	str	r3, [r6, #44]	; 0x2c
   13ed4:	e5869020 	str	r9, [r6, #32]
   13ed8:	1affff5f 	bne	13c5c <f_opendir+0x124>
   13edc:	e5d63062 	ldrb	r3, [r6, #98]	; 0x62
   13ee0:	e5d61063 	ldrb	r1, [r6, #99]	; 0x63
   13ee4:	e1a03803 	lsl	r3, r3, #16
   13ee8:	e5d62060 	ldrb	r2, [r6, #96]	; 0x60
   13eec:	e1833c01 	orr	r3, r3, r1, lsl #24
   13ef0:	e1a00100 	lsl	r0, r0, #2
   13ef4:	e5d6e061 	ldrb	lr, [r6, #97]	; 0x61
   13ef8:	e2801f7f 	add	r1, r0, #508	; 0x1fc
   13efc:	e1833002 	orr	r3, r3, r2
   13f00:	e183340e 	orr	r3, r3, lr, lsl #8
   13f04:	e15b04a1 	cmp	fp, r1, lsr #9
   13f08:	e5863028 	str	r3, [r6, #40]	; 0x28
   13f0c:	3affff52 	bcc	13c5c <f_opendir+0x124>
   13f10:	e3e00000 	mvn	r0, #0
   13f14:	e5d63064 	ldrb	r3, [r6, #100]	; 0x64
   13f18:	e5d62065 	ldrb	r2, [r6, #101]	; 0x65
   13f1c:	e5860010 	str	r0, [r6, #16]
   13f20:	e1832402 	orr	r2, r3, r2, lsl #8
   13f24:	e0892002 	add	r2, r9, r2
   13f28:	e586c00c 	str	ip, [r6, #12]
   13f2c:	e5c6c005 	strb	ip, [r6, #5]
   13f30:	e1a01008 	mov	r1, r8
   13f34:	e5862014 	str	r2, [r6, #20]
   13f38:	e5d60001 	ldrb	r0, [r6, #1]
   13f3c:	e3a03001 	mov	r3, #1
   13f40:	eb000fbe 	bl	17e40 <disk_read>
   13f44:	e3500000 	cmp	r0, #0
   13f48:	1a000005 	bne	13f64 <f_opendir+0x42c>
   13f4c:	e5d61233 	ldrb	r1, [r6, #563]	; 0x233
   13f50:	e5d63232 	ldrb	r3, [r6, #562]	; 0x232
   13f54:	e59f21ac 	ldr	r2, [pc, #428]	; 14108 <f_opendir+0x5d0>
   13f58:	e1833401 	orr	r3, r3, r1, lsl #8
   13f5c:	e1530002 	cmp	r3, r2
   13f60:	0a00003c 	beq	14058 <f_opendir+0x520>
   13f64:	e3a03003 	mov	r3, #3
   13f68:	e3a01000 	mov	r1, #0
   13f6c:	e1d720b4 	ldrh	r2, [r7, #4]
   13f70:	e5c63000 	strb	r3, [r6]
   13f74:	e2823001 	add	r3, r2, #1
   13f78:	e6ff3073 	uxth	r3, r3
   13f7c:	e1c730b4 	strh	r3, [r7, #4]
   13f80:	e1c630b6 	strh	r3, [r6, #6]
   13f84:	e5861030 	str	r1, [r6, #48]	; 0x30
   13f88:	e5c61004 	strb	r1, [r6, #4]
   13f8c:	eaffff01 	b	13b98 <f_opendir+0x60>
   13f90:	e3a00001 	mov	r0, #1
   13f94:	eaffff18 	b	13bfc <f_opendir+0xc4>
   13f98:	e2800002 	add	r0, r0, #2
   13f9c:	e089a00a 	add	sl, r9, sl
   13fa0:	e0833009 	add	r3, r3, r9
   13fa4:	e35c0000 	cmp	ip, #0
   13fa8:	e5860018 	str	r0, [r6, #24]
   13fac:	e586a024 	str	sl, [r6, #36]	; 0x24
   13fb0:	e586302c 	str	r3, [r6, #44]	; 0x2c
   13fb4:	e5869020 	str	r9, [r6, #32]
   13fb8:	0affff27 	beq	13c5c <f_opendir+0x124>
   13fbc:	e1a03080 	lsl	r3, r0, #1
   13fc0:	e2833f7f 	add	r3, r3, #508	; 0x1fc
   13fc4:	e2833003 	add	r3, r3, #3
   13fc8:	e082a00a 	add	sl, r2, sl
   13fcc:	e15b04a3 	cmp	fp, r3, lsr #9
   13fd0:	e586a028 	str	sl, [r6, #40]	; 0x28
   13fd4:	3affff20 	bcc	13c5c <f_opendir+0x124>
   13fd8:	e3a03000 	mov	r3, #0
   13fdc:	e3e02000 	mvn	r2, #0
   13fe0:	e586300c 	str	r3, [r6, #12]
   13fe4:	e5862010 	str	r2, [r6, #16]
   13fe8:	e3a03002 	mov	r3, #2
   13fec:	eaffffdd 	b	13f68 <f_opendir+0x430>
   13ff0:	e2815002 	add	r5, r1, #2
   13ff4:	eafffedb 	b	13b68 <f_opendir+0x30>
   13ff8:	e2800002 	add	r0, r0, #2
   13ffc:	e089a00a 	add	sl, r9, sl
   14000:	e0833009 	add	r3, r3, r9
   14004:	e35c0000 	cmp	ip, #0
   14008:	e5860018 	str	r0, [r6, #24]
   1400c:	e586a024 	str	sl, [r6, #36]	; 0x24
   14010:	e586302c 	str	r3, [r6, #44]	; 0x2c
   14014:	e5869020 	str	r9, [r6, #32]
   14018:	0affff0f 	beq	13c5c <f_opendir+0x124>
   1401c:	e2003001 	and	r3, r0, #1
   14020:	e2833f7f 	add	r3, r3, #508	; 0x1fc
   14024:	e2833003 	add	r3, r3, #3
   14028:	e0800080 	add	r0, r0, r0, lsl #1
   1402c:	e08300a0 	add	r0, r3, r0, lsr #1
   14030:	e082a00a 	add	sl, r2, sl
   14034:	e15b04a0 	cmp	fp, r0, lsr #9
   14038:	e586a028 	str	sl, [r6, #40]	; 0x28
   1403c:	3affff06 	bcc	13c5c <f_opendir+0x124>
   14040:	e3a03000 	mov	r3, #0
   14044:	e3e02000 	mvn	r2, #0
   14048:	e586300c 	str	r3, [r6, #12]
   1404c:	e5862010 	str	r2, [r6, #16]
   14050:	e3a03001 	mov	r3, #1
   14054:	eaffffc3 	b	13f68 <f_opendir+0x430>
   14058:	e5d63036 	ldrb	r3, [r6, #54]	; 0x36
   1405c:	e5d61037 	ldrb	r1, [r6, #55]	; 0x37
   14060:	e5d62034 	ldrb	r2, [r6, #52]	; 0x34
   14064:	e1a03803 	lsl	r3, r3, #16
   14068:	e1833c01 	orr	r3, r3, r1, lsl #24
   1406c:	e5d61035 	ldrb	r1, [r6, #53]	; 0x35
   14070:	e1833002 	orr	r3, r3, r2
   14074:	e59f2098 	ldr	r2, [pc, #152]	; 14114 <f_opendir+0x5dc>
   14078:	e1833401 	orr	r3, r3, r1, lsl #8
   1407c:	e1530002 	cmp	r3, r2
   14080:	1affffb7 	bne	13f64 <f_opendir+0x42c>
   14084:	e5d6321a 	ldrb	r3, [r6, #538]	; 0x21a
   14088:	e5d6121b 	ldrb	r1, [r6, #539]	; 0x21b
   1408c:	e5d62218 	ldrb	r2, [r6, #536]	; 0x218
   14090:	e1a03803 	lsl	r3, r3, #16
   14094:	e1833c01 	orr	r3, r3, r1, lsl #24
   14098:	e5d61219 	ldrb	r1, [r6, #537]	; 0x219
   1409c:	e1833002 	orr	r3, r3, r2
   140a0:	e59f2070 	ldr	r2, [pc, #112]	; 14118 <f_opendir+0x5e0>
   140a4:	e1833401 	orr	r3, r3, r1, lsl #8
   140a8:	e1530002 	cmp	r3, r2
   140ac:	1affffac 	bne	13f64 <f_opendir+0x42c>
   140b0:	e5d60222 	ldrb	r0, [r6, #546]	; 0x222
   140b4:	e5d6321e 	ldrb	r3, [r6, #542]	; 0x21e
   140b8:	e5d6e223 	ldrb	lr, [r6, #547]	; 0x223
   140bc:	e5d6c21f 	ldrb	ip, [r6, #543]	; 0x21f
   140c0:	e5d6221c 	ldrb	r2, [r6, #540]	; 0x21c
   140c4:	e1a00800 	lsl	r0, r0, #16
   140c8:	e5d61220 	ldrb	r1, [r6, #544]	; 0x220
   140cc:	e1a03803 	lsl	r3, r3, #16
   140d0:	e1800c0e 	orr	r0, r0, lr, lsl #24
   140d4:	e1833c0c 	orr	r3, r3, ip, lsl #24
   140d8:	e5d6e221 	ldrb	lr, [r6, #545]	; 0x221
   140dc:	e5d6c21d 	ldrb	ip, [r6, #541]	; 0x21d
   140e0:	e1833002 	orr	r3, r3, r2
   140e4:	e1801001 	orr	r1, r0, r1
   140e8:	e183340c 	orr	r3, r3, ip, lsl #8
   140ec:	e181240e 	orr	r2, r1, lr, lsl #8
   140f0:	e5863010 	str	r3, [r6, #16]
   140f4:	e586200c 	str	r2, [r6, #12]
   140f8:	e3a03003 	mov	r3, #3
   140fc:	eaffff99 	b	13f68 <f_opendir+0x430>
   14100:	00021bbc 			; <UNDEFINED> instruction: 0x00021bbc
   14104:	00021bc4 	andeq	r1, r2, r4, asr #23
   14108:	0000aa55 	andeq	sl, r0, r5, asr sl
   1410c:	00544146 	subseq	r4, r4, r6, asr #2
   14110:	00000ff5 	strdeq	r0, [r0], -r5
   14114:	41615252 	cmnmi	r1, r2, asr r2
   14118:	61417272 	hvcvs	5922	; 0x1722

0001411c <f_readdir>:
   1411c:	e3500000 	cmp	r0, #0
   14120:	0a000005 	beq	1413c <f_readdir+0x20>
   14124:	e5903000 	ldr	r3, [r0]
   14128:	e3530000 	cmp	r3, #0
   1412c:	0a000002 	beq	1413c <f_readdir+0x20>
   14130:	e5d32000 	ldrb	r2, [r3]
   14134:	e3520000 	cmp	r2, #0
   14138:	1a000001 	bne	14144 <f_readdir+0x28>
   1413c:	e3a00009 	mov	r0, #9
   14140:	e12fff1e 	bx	lr
   14144:	e1d3c0b6 	ldrh	ip, [r3, #6]
   14148:	e1d020b4 	ldrh	r2, [r0, #4]
   1414c:	e15c0002 	cmp	ip, r2
   14150:	1afffff9 	bne	1413c <f_readdir+0x20>
   14154:	e92d4070 	push	{r4, r5, r6, lr}
   14158:	e1a04000 	mov	r4, r0
   1415c:	e24dd010 	sub	sp, sp, #16
   14160:	e5d30001 	ldrb	r0, [r3, #1]
   14164:	e1a05001 	mov	r5, r1
   14168:	eb000f54 	bl	17ec0 <disk_status>
   1416c:	e2106001 	ands	r6, r0, #1
   14170:	13a00003 	movne	r0, #3
   14174:	0a000001 	beq	14180 <f_readdir+0x64>
   14178:	e28dd010 	add	sp, sp, #16
   1417c:	e8bd8070 	pop	{r4, r5, r6, pc}
   14180:	e3550000 	cmp	r5, #0
   14184:	0a000014 	beq	141dc <f_readdir+0xc0>
   14188:	e59f205c 	ldr	r2, [pc, #92]	; 141ec <f_readdir+0xd0>
   1418c:	e28d3004 	add	r3, sp, #4
   14190:	e584201c 	str	r2, [r4, #28]
   14194:	e5843018 	str	r3, [r4, #24]
   14198:	e1a00004 	mov	r0, r4
   1419c:	ebffede1 	bl	f928 <dir_read.constprop.13>
   141a0:	e3500004 	cmp	r0, #4
   141a4:	05846010 	streq	r6, [r4, #16]
   141a8:	0a000001 	beq	141b4 <f_readdir+0x98>
   141ac:	e3500000 	cmp	r0, #0
   141b0:	1afffff0 	bne	14178 <f_readdir+0x5c>
   141b4:	e1a01005 	mov	r1, r5
   141b8:	e1a00004 	mov	r0, r4
   141bc:	ebffe58f 	bl	d800 <get_fileinfo>
   141c0:	e1a00004 	mov	r0, r4
   141c4:	ebffed18 	bl	f62c <dir_next.constprop.14>
   141c8:	e3500004 	cmp	r0, #4
   141cc:	03a00000 	moveq	r0, #0
   141d0:	05840010 	streq	r0, [r4, #16]
   141d4:	e28dd010 	add	sp, sp, #16
   141d8:	e8bd8070 	pop	{r4, r5, r6, pc}
   141dc:	e1a00004 	mov	r0, r4
   141e0:	e1a01005 	mov	r1, r5
   141e4:	ebffea91 	bl	ec30 <dir_sdi>
   141e8:	eaffffe2 	b	14178 <f_readdir+0x5c>
   141ec:	00021bc4 	andeq	r1, r2, r4, asr #23

000141f0 <f_stat>:
   141f0:	e92d4ff0 	push	{r4, r5, r6, r7, r8, r9, sl, fp, lr}
   141f4:	e5d03000 	ldrb	r3, [r0]
   141f8:	e24dd044 	sub	sp, sp, #68	; 0x44
   141fc:	e2433030 	sub	r3, r3, #48	; 0x30
   14200:	e3530009 	cmp	r3, #9
   14204:	e1a04000 	mov	r4, r0
   14208:	e1a06001 	mov	r6, r1
   1420c:	9a00001f 	bls	14290 <f_stat+0xa0>
   14210:	e59f7588 	ldr	r7, [pc, #1416]	; 147a0 <f_stat+0x5b0>
   14214:	e5975000 	ldr	r5, [r7]
   14218:	e3550000 	cmp	r5, #0
   1421c:	03a0400c 	moveq	r4, #12
   14220:	0a000017 	beq	14284 <f_stat+0x94>
   14224:	e58d501c 	str	r5, [sp, #28]
   14228:	e5d53000 	ldrb	r3, [r5]
   1422c:	e3530000 	cmp	r3, #0
   14230:	0a00001e 	beq	142b0 <f_stat+0xc0>
   14234:	e5d50001 	ldrb	r0, [r5, #1]
   14238:	eb000f20 	bl	17ec0 <disk_status>
   1423c:	e3100001 	tst	r0, #1
   14240:	1a00001a 	bne	142b0 <f_stat+0xc0>
   14244:	e59f3558 	ldr	r3, [pc, #1368]	; 147a4 <f_stat+0x5b4>
   14248:	e1a01004 	mov	r1, r4
   1424c:	e58d3038 	str	r3, [sp, #56]	; 0x38
   14250:	e28d001c 	add	r0, sp, #28
   14254:	e28d3010 	add	r3, sp, #16
   14258:	e58d3034 	str	r3, [sp, #52]	; 0x34
   1425c:	ebfff367 	bl	11000 <follow_path>
   14260:	e2504000 	subs	r4, r0, #0
   14264:	1a000006 	bne	14284 <f_stat+0x94>
   14268:	e59d3030 	ldr	r3, [sp, #48]	; 0x30
   1426c:	e3530000 	cmp	r3, #0
   14270:	03a04006 	moveq	r4, #6
   14274:	0a000002 	beq	14284 <f_stat+0x94>
   14278:	e28d001c 	add	r0, sp, #28
   1427c:	e1a01006 	mov	r1, r6
   14280:	ebffe55e 	bl	d800 <get_fileinfo>
   14284:	e1a00004 	mov	r0, r4
   14288:	e28dd044 	add	sp, sp, #68	; 0x44
   1428c:	e8bd8ff0 	pop	{r4, r5, r6, r7, r8, r9, sl, fp, pc}
   14290:	e5d02001 	ldrb	r2, [r0, #1]
   14294:	e352003a 	cmp	r2, #58	; 0x3a
   14298:	1affffdc 	bne	14210 <f_stat+0x20>
   1429c:	e3530000 	cmp	r3, #0
   142a0:	13a0400b 	movne	r4, #11
   142a4:	1afffff6 	bne	14284 <f_stat+0x94>
   142a8:	e2844002 	add	r4, r4, #2
   142ac:	eaffffd7 	b	14210 <f_stat+0x20>
   142b0:	e3a00000 	mov	r0, #0
   142b4:	e5c50000 	strb	r0, [r5]
   142b8:	e5c50001 	strb	r0, [r5, #1]
   142bc:	eb000ece 	bl	17dfc <disk_initialize>
   142c0:	e2102001 	ands	r2, r0, #1
   142c4:	13a04003 	movne	r4, #3
   142c8:	1affffed 	bne	14284 <f_stat+0x94>
   142cc:	e2858034 	add	r8, r5, #52	; 0x34
   142d0:	e1a01008 	mov	r1, r8
   142d4:	e5d50001 	ldrb	r0, [r5, #1]
   142d8:	e3a03001 	mov	r3, #1
   142dc:	eb000ed7 	bl	17e40 <disk_read>
   142e0:	e3500000 	cmp	r0, #0
   142e4:	0a000001 	beq	142f0 <f_stat+0x100>
   142e8:	e3a04001 	mov	r4, #1
   142ec:	eaffffe4 	b	14284 <f_stat+0x94>
   142f0:	e5d53232 	ldrb	r3, [r5, #562]	; 0x232
   142f4:	e5d5b233 	ldrb	fp, [r5, #563]	; 0x233
   142f8:	e59f24a8 	ldr	r2, [pc, #1192]	; 147a8 <f_stat+0x5b8>
   142fc:	e183b40b 	orr	fp, r3, fp, lsl #8
   14300:	e6bfb07b 	sxth	fp, fp
   14304:	e15b0002 	cmp	fp, r2
   14308:	13a03002 	movne	r3, #2
   1430c:	0a000083 	beq	14520 <f_stat+0x330>
   14310:	e3a09000 	mov	r9, #0
   14314:	e3530000 	cmp	r3, #0
   14318:	0a000001 	beq	14324 <f_stat+0x134>
   1431c:	e3a0400d 	mov	r4, #13
   14320:	eaffffd7 	b	14284 <f_stat+0x94>
   14324:	e5d52040 	ldrb	r2, [r5, #64]	; 0x40
   14328:	e5d5303f 	ldrb	r3, [r5, #63]	; 0x3f
   1432c:	e1833402 	orr	r3, r3, r2, lsl #8
   14330:	e3530c02 	cmp	r3, #512	; 0x200
   14334:	1afffff8 	bne	1431c <f_stat+0x12c>
   14338:	e5d5a04b 	ldrb	sl, [r5, #75]	; 0x4b
   1433c:	e5d5304a 	ldrb	r3, [r5, #74]	; 0x4a
   14340:	e193340a 	orrs	r3, r3, sl, lsl #8
   14344:	11a0a003 	movne	sl, r3
   14348:	05d5305a 	ldrbeq	r3, [r5, #90]	; 0x5a
   1434c:	05d5105b 	ldrbeq	r1, [r5, #91]	; 0x5b
   14350:	01a03803 	lsleq	r3, r3, #16
   14354:	05d52058 	ldrbeq	r2, [r5, #88]	; 0x58
   14358:	01833c01 	orreq	r3, r3, r1, lsl #24
   1435c:	01833002 	orreq	r3, r3, r2
   14360:	05d5a059 	ldrbeq	sl, [r5, #89]	; 0x59
   14364:	e5d52044 	ldrb	r2, [r5, #68]	; 0x44
   14368:	0183a40a 	orreq	sl, r3, sl, lsl #8
   1436c:	e2423001 	sub	r3, r2, #1
   14370:	e3530001 	cmp	r3, #1
   14374:	e585a01c 	str	sl, [r5, #28]
   14378:	e5c52003 	strb	r2, [r5, #3]
   1437c:	8affffe6 	bhi	1431c <f_stat+0x12c>
   14380:	e5d51041 	ldrb	r1, [r5, #65]	; 0x41
   14384:	e3510000 	cmp	r1, #0
   14388:	e5c51002 	strb	r1, [r5, #2]
   1438c:	0affffe2 	beq	1431c <f_stat+0x12c>
   14390:	e2413001 	sub	r3, r1, #1
   14394:	e1130001 	tst	r3, r1
   14398:	1affffdf 	bne	1431c <f_stat+0x12c>
   1439c:	e5d5c046 	ldrb	ip, [r5, #70]	; 0x46
   143a0:	e5d53045 	ldrb	r3, [r5, #69]	; 0x45
   143a4:	e183c40c 	orr	ip, r3, ip, lsl #8
   143a8:	e31c000f 	tst	ip, #15
   143ac:	e1c5c0b8 	strh	ip, [r5, #8]
   143b0:	1affffd9 	bne	1431c <f_stat+0x12c>
   143b4:	e5d50048 	ldrb	r0, [r5, #72]	; 0x48
   143b8:	e5d53047 	ldrb	r3, [r5, #71]	; 0x47
   143bc:	e1930400 	orrs	r0, r3, r0, lsl #8
   143c0:	1a000007 	bne	143e4 <f_stat+0x1f4>
   143c4:	e5d53056 	ldrb	r3, [r5, #86]	; 0x56
   143c8:	e5d5e057 	ldrb	lr, [r5, #87]	; 0x57
   143cc:	e5d50054 	ldrb	r0, [r5, #84]	; 0x54
   143d0:	e1a03803 	lsl	r3, r3, #16
   143d4:	e1833c0e 	orr	r3, r3, lr, lsl #24
   143d8:	e5d5e055 	ldrb	lr, [r5, #85]	; 0x55
   143dc:	e1833000 	orr	r3, r3, r0
   143e0:	e183040e 	orr	r0, r3, lr, lsl #8
   143e4:	e5d5b043 	ldrb	fp, [r5, #67]	; 0x43
   143e8:	e5d53042 	ldrb	r3, [r5, #66]	; 0x42
   143ec:	e193b40b 	orrs	fp, r3, fp, lsl #8
   143f0:	0affffc9 	beq	1431c <f_stat+0x12c>
   143f4:	e0020a92 	mul	r2, r2, sl
   143f8:	e08b322c 	add	r3, fp, ip, lsr #4
   143fc:	e0833002 	add	r3, r3, r2
   14400:	e1530000 	cmp	r3, r0
   14404:	8affffc4 	bhi	1431c <f_stat+0x12c>
   14408:	e0630000 	rsb	r0, r3, r0
   1440c:	e58dc00c 	str	ip, [sp, #12]
   14410:	e58d2008 	str	r2, [sp, #8]
   14414:	e58d3004 	str	r3, [sp, #4]
   14418:	eb002258 	bl	1cd80 <__aeabi_uidiv>
   1441c:	e3500000 	cmp	r0, #0
   14420:	e59d3004 	ldr	r3, [sp, #4]
   14424:	e59d2008 	ldr	r2, [sp, #8]
   14428:	e59dc00c 	ldr	ip, [sp, #12]
   1442c:	0affffba 	beq	1431c <f_stat+0x12c>
   14430:	e59f1374 	ldr	r1, [pc, #884]	; 147ac <f_stat+0x5bc>
   14434:	e1500001 	cmp	r0, r1
   14438:	9a000096 	bls	14698 <f_stat+0x4a8>
   1443c:	e2811a0f 	add	r1, r1, #61440	; 0xf000
   14440:	e1500001 	cmp	r0, r1
   14444:	9a00007d 	bls	14640 <f_stat+0x450>
   14448:	e2800002 	add	r0, r0, #2
   1444c:	e089b00b 	add	fp, r9, fp
   14450:	e0833009 	add	r3, r3, r9
   14454:	e35c0000 	cmp	ip, #0
   14458:	e5850018 	str	r0, [r5, #24]
   1445c:	e585b024 	str	fp, [r5, #36]	; 0x24
   14460:	e585302c 	str	r3, [r5, #44]	; 0x2c
   14464:	e5859020 	str	r9, [r5, #32]
   14468:	1affffab 	bne	1431c <f_stat+0x12c>
   1446c:	e5d53062 	ldrb	r3, [r5, #98]	; 0x62
   14470:	e5d51063 	ldrb	r1, [r5, #99]	; 0x63
   14474:	e1a03803 	lsl	r3, r3, #16
   14478:	e5d52060 	ldrb	r2, [r5, #96]	; 0x60
   1447c:	e1833c01 	orr	r3, r3, r1, lsl #24
   14480:	e1a00100 	lsl	r0, r0, #2
   14484:	e5d5e061 	ldrb	lr, [r5, #97]	; 0x61
   14488:	e2801f7f 	add	r1, r0, #508	; 0x1fc
   1448c:	e1833002 	orr	r3, r3, r2
   14490:	e183340e 	orr	r3, r3, lr, lsl #8
   14494:	e15a04a1 	cmp	sl, r1, lsr #9
   14498:	e5853028 	str	r3, [r5, #40]	; 0x28
   1449c:	3affff9e 	bcc	1431c <f_stat+0x12c>
   144a0:	e3e00000 	mvn	r0, #0
   144a4:	e5d53064 	ldrb	r3, [r5, #100]	; 0x64
   144a8:	e5d52065 	ldrb	r2, [r5, #101]	; 0x65
   144ac:	e5850010 	str	r0, [r5, #16]
   144b0:	e1832402 	orr	r2, r3, r2, lsl #8
   144b4:	e0892002 	add	r2, r9, r2
   144b8:	e585c00c 	str	ip, [r5, #12]
   144bc:	e5c5c005 	strb	ip, [r5, #5]
   144c0:	e1a01008 	mov	r1, r8
   144c4:	e5852014 	str	r2, [r5, #20]
   144c8:	e5d50001 	ldrb	r0, [r5, #1]
   144cc:	e3a03001 	mov	r3, #1
   144d0:	eb000e5a 	bl	17e40 <disk_read>
   144d4:	e3500000 	cmp	r0, #0
   144d8:	1a000005 	bne	144f4 <f_stat+0x304>
   144dc:	e5d51233 	ldrb	r1, [r5, #563]	; 0x233
   144e0:	e5d53232 	ldrb	r3, [r5, #562]	; 0x232
   144e4:	e59f22c4 	ldr	r2, [pc, #708]	; 147b0 <f_stat+0x5c0>
   144e8:	e1833401 	orr	r3, r3, r1, lsl #8
   144ec:	e1530002 	cmp	r3, r2
   144f0:	0a000080 	beq	146f8 <f_stat+0x508>
   144f4:	e3a03003 	mov	r3, #3
   144f8:	e3a01000 	mov	r1, #0
   144fc:	e1d720b4 	ldrh	r2, [r7, #4]
   14500:	e5c53000 	strb	r3, [r5]
   14504:	e2823001 	add	r3, r2, #1
   14508:	e6ff3073 	uxth	r3, r3
   1450c:	e1c730b4 	strh	r3, [r7, #4]
   14510:	e1c530b6 	strh	r3, [r5, #6]
   14514:	e5851030 	str	r1, [r5, #48]	; 0x30
   14518:	e5c51004 	strb	r1, [r5, #4]
   1451c:	eaffff48 	b	14244 <f_stat+0x54>
   14520:	e5d5306c 	ldrb	r3, [r5, #108]	; 0x6c
   14524:	e5d5106d 	ldrb	r1, [r5, #109]	; 0x6d
   14528:	e1a03803 	lsl	r3, r3, #16
   1452c:	e5d5206a 	ldrb	r2, [r5, #106]	; 0x6a
   14530:	e1833c01 	orr	r3, r3, r1, lsl #24
   14534:	e5d5106b 	ldrb	r1, [r5, #107]	; 0x6b
   14538:	e1833002 	orr	r3, r3, r2
   1453c:	e1833401 	orr	r3, r3, r1, lsl #8
   14540:	e59fa26c 	ldr	sl, [pc, #620]	; 147b4 <f_stat+0x5c4>
   14544:	e3c334ff 	bic	r3, r3, #-16777216	; 0xff000000
   14548:	e153000a 	cmp	r3, sl
   1454c:	0a000039 	beq	14638 <f_stat+0x448>
   14550:	e5d53088 	ldrb	r3, [r5, #136]	; 0x88
   14554:	e5d51089 	ldrb	r1, [r5, #137]	; 0x89
   14558:	e1a03803 	lsl	r3, r3, #16
   1455c:	e5d52086 	ldrb	r2, [r5, #134]	; 0x86
   14560:	e1833c01 	orr	r3, r3, r1, lsl #24
   14564:	e5d51087 	ldrb	r1, [r5, #135]	; 0x87
   14568:	e1833002 	orr	r3, r3, r2
   1456c:	e1833401 	orr	r3, r3, r1, lsl #8
   14570:	e3c334ff 	bic	r3, r3, #-16777216	; 0xff000000
   14574:	e153000a 	cmp	r3, sl
   14578:	0a00002e 	beq	14638 <f_stat+0x448>
   1457c:	e5d531f6 	ldrb	r3, [r5, #502]	; 0x1f6
   14580:	e3530000 	cmp	r3, #0
   14584:	0affff64 	beq	1431c <f_stat+0x12c>
   14588:	e5d531fc 	ldrb	r3, [r5, #508]	; 0x1fc
   1458c:	e5d511fd 	ldrb	r1, [r5, #509]	; 0x1fd
   14590:	e5d521fa 	ldrb	r2, [r5, #506]	; 0x1fa
   14594:	e1a03803 	lsl	r3, r3, #16
   14598:	e1833c01 	orr	r3, r3, r1, lsl #24
   1459c:	e5d591fb 	ldrb	r9, [r5, #507]	; 0x1fb
   145a0:	e1833002 	orr	r3, r3, r2
   145a4:	e1839409 	orr	r9, r3, r9, lsl #8
   145a8:	e1a02009 	mov	r2, r9
   145ac:	e5d50001 	ldrb	r0, [r5, #1]
   145b0:	e1a01008 	mov	r1, r8
   145b4:	e3a03001 	mov	r3, #1
   145b8:	eb000e20 	bl	17e40 <disk_read>
   145bc:	e3500000 	cmp	r0, #0
   145c0:	1affff48 	bne	142e8 <f_stat+0xf8>
   145c4:	e5d52233 	ldrb	r2, [r5, #563]	; 0x233
   145c8:	e5d53232 	ldrb	r3, [r5, #562]	; 0x232
   145cc:	e1833402 	orr	r3, r3, r2, lsl #8
   145d0:	e6bf3073 	sxth	r3, r3
   145d4:	e153000b 	cmp	r3, fp
   145d8:	1affff4f 	bne	1431c <f_stat+0x12c>
   145dc:	e5d5306c 	ldrb	r3, [r5, #108]	; 0x6c
   145e0:	e5d5106d 	ldrb	r1, [r5, #109]	; 0x6d
   145e4:	e1a03803 	lsl	r3, r3, #16
   145e8:	e5d5206a 	ldrb	r2, [r5, #106]	; 0x6a
   145ec:	e1833c01 	orr	r3, r3, r1, lsl #24
   145f0:	e5d5106b 	ldrb	r1, [r5, #107]	; 0x6b
   145f4:	e1833002 	orr	r3, r3, r2
   145f8:	e1833401 	orr	r3, r3, r1, lsl #8
   145fc:	e3c334ff 	bic	r3, r3, #-16777216	; 0xff000000
   14600:	e153000a 	cmp	r3, sl
   14604:	0affff46 	beq	14324 <f_stat+0x134>
   14608:	e5d53088 	ldrb	r3, [r5, #136]	; 0x88
   1460c:	e5d51089 	ldrb	r1, [r5, #137]	; 0x89
   14610:	e1a03803 	lsl	r3, r3, #16
   14614:	e5d52086 	ldrb	r2, [r5, #134]	; 0x86
   14618:	e1833c01 	orr	r3, r3, r1, lsl #24
   1461c:	e5d51087 	ldrb	r1, [r5, #135]	; 0x87
   14620:	e1833002 	orr	r3, r3, r2
   14624:	e1833401 	orr	r3, r3, r1, lsl #8
   14628:	e3c334ff 	bic	r3, r3, #-16777216	; 0xff000000
   1462c:	e053300a 	subs	r3, r3, sl
   14630:	13a03001 	movne	r3, #1
   14634:	eaffff36 	b	14314 <f_stat+0x124>
   14638:	e1a03000 	mov	r3, r0
   1463c:	eaffff33 	b	14310 <f_stat+0x120>
   14640:	e2800002 	add	r0, r0, #2
   14644:	e089b00b 	add	fp, r9, fp
   14648:	e0833009 	add	r3, r3, r9
   1464c:	e35c0000 	cmp	ip, #0
   14650:	e5850018 	str	r0, [r5, #24]
   14654:	e585b024 	str	fp, [r5, #36]	; 0x24
   14658:	e585302c 	str	r3, [r5, #44]	; 0x2c
   1465c:	e5859020 	str	r9, [r5, #32]
   14660:	0affff2d 	beq	1431c <f_stat+0x12c>
   14664:	e1a03080 	lsl	r3, r0, #1
   14668:	e2833f7f 	add	r3, r3, #508	; 0x1fc
   1466c:	e2833003 	add	r3, r3, #3
   14670:	e082b00b 	add	fp, r2, fp
   14674:	e15a04a3 	cmp	sl, r3, lsr #9
   14678:	e585b028 	str	fp, [r5, #40]	; 0x28
   1467c:	3affff26 	bcc	1431c <f_stat+0x12c>
   14680:	e3a03000 	mov	r3, #0
   14684:	e3e02000 	mvn	r2, #0
   14688:	e585300c 	str	r3, [r5, #12]
   1468c:	e5852010 	str	r2, [r5, #16]
   14690:	e3a03002 	mov	r3, #2
   14694:	eaffff97 	b	144f8 <f_stat+0x308>
   14698:	e2800002 	add	r0, r0, #2
   1469c:	e089b00b 	add	fp, r9, fp
   146a0:	e0833009 	add	r3, r3, r9
   146a4:	e35c0000 	cmp	ip, #0
   146a8:	e5850018 	str	r0, [r5, #24]
   146ac:	e585b024 	str	fp, [r5, #36]	; 0x24
   146b0:	e585302c 	str	r3, [r5, #44]	; 0x2c
   146b4:	e5859020 	str	r9, [r5, #32]
   146b8:	0affff17 	beq	1431c <f_stat+0x12c>
   146bc:	e2003001 	and	r3, r0, #1
   146c0:	e2833f7f 	add	r3, r3, #508	; 0x1fc
   146c4:	e2833003 	add	r3, r3, #3
   146c8:	e0800080 	add	r0, r0, r0, lsl #1
   146cc:	e08300a0 	add	r0, r3, r0, lsr #1
   146d0:	e082b00b 	add	fp, r2, fp
   146d4:	e15a04a0 	cmp	sl, r0, lsr #9
   146d8:	e585b028 	str	fp, [r5, #40]	; 0x28
   146dc:	3affff0e 	bcc	1431c <f_stat+0x12c>
   146e0:	e3a03000 	mov	r3, #0
   146e4:	e3e02000 	mvn	r2, #0
   146e8:	e585300c 	str	r3, [r5, #12]
   146ec:	e5852010 	str	r2, [r5, #16]
   146f0:	e3a03001 	mov	r3, #1
   146f4:	eaffff7f 	b	144f8 <f_stat+0x308>
   146f8:	e5d53036 	ldrb	r3, [r5, #54]	; 0x36
   146fc:	e5d51037 	ldrb	r1, [r5, #55]	; 0x37
   14700:	e5d52034 	ldrb	r2, [r5, #52]	; 0x34
   14704:	e1a03803 	lsl	r3, r3, #16
   14708:	e1833c01 	orr	r3, r3, r1, lsl #24
   1470c:	e5d51035 	ldrb	r1, [r5, #53]	; 0x35
   14710:	e1833002 	orr	r3, r3, r2
   14714:	e59f209c 	ldr	r2, [pc, #156]	; 147b8 <f_stat+0x5c8>
   14718:	e1833401 	orr	r3, r3, r1, lsl #8
   1471c:	e1530002 	cmp	r3, r2
   14720:	1affff73 	bne	144f4 <f_stat+0x304>
   14724:	e5d5321a 	ldrb	r3, [r5, #538]	; 0x21a
   14728:	e5d5121b 	ldrb	r1, [r5, #539]	; 0x21b
   1472c:	e5d52218 	ldrb	r2, [r5, #536]	; 0x218
   14730:	e1a03803 	lsl	r3, r3, #16
   14734:	e1833c01 	orr	r3, r3, r1, lsl #24
   14738:	e5d51219 	ldrb	r1, [r5, #537]	; 0x219
   1473c:	e1833002 	orr	r3, r3, r2
   14740:	e59f2074 	ldr	r2, [pc, #116]	; 147bc <f_stat+0x5cc>
   14744:	e1833401 	orr	r3, r3, r1, lsl #8
   14748:	e1530002 	cmp	r3, r2
   1474c:	1affff68 	bne	144f4 <f_stat+0x304>
   14750:	e5d50222 	ldrb	r0, [r5, #546]	; 0x222
   14754:	e5d5321e 	ldrb	r3, [r5, #542]	; 0x21e
   14758:	e5d5e223 	ldrb	lr, [r5, #547]	; 0x223
   1475c:	e5d5c21f 	ldrb	ip, [r5, #543]	; 0x21f
   14760:	e5d5221c 	ldrb	r2, [r5, #540]	; 0x21c
   14764:	e1a00800 	lsl	r0, r0, #16
   14768:	e5d51220 	ldrb	r1, [r5, #544]	; 0x220
   1476c:	e1a03803 	lsl	r3, r3, #16
   14770:	e1800c0e 	orr	r0, r0, lr, lsl #24
   14774:	e1833c0c 	orr	r3, r3, ip, lsl #24
   14778:	e5d5e221 	ldrb	lr, [r5, #545]	; 0x221
   1477c:	e5d5c21d 	ldrb	ip, [r5, #541]	; 0x21d
   14780:	e1833002 	orr	r3, r3, r2
   14784:	e1801001 	orr	r1, r0, r1
   14788:	e183340c 	orr	r3, r3, ip, lsl #8
   1478c:	e181240e 	orr	r2, r1, lr, lsl #8
   14790:	e5853010 	str	r3, [r5, #16]
   14794:	e585200c 	str	r2, [r5, #12]
   14798:	e3a03003 	mov	r3, #3
   1479c:	eaffff55 	b	144f8 <f_stat+0x308>
   147a0:	00021bbc 			; <UNDEFINED> instruction: 0x00021bbc
   147a4:	00021bc4 	andeq	r1, r2, r4, asr #23
   147a8:	ffffaa55 			; <UNDEFINED> instruction: 0xffffaa55
   147ac:	00000ff5 	strdeq	r0, [r0], -r5
   147b0:	0000aa55 	andeq	sl, r0, r5, asr sl
   147b4:	00544146 	subseq	r4, r4, r6, asr #2
   147b8:	41615252 	cmnmi	r1, r2, asr r2
   147bc:	61417272 	hvcvs	5922	; 0x1722

000147c0 <f_getfree>:
   147c0:	e92d4ff0 	push	{r4, r5, r6, r7, r8, r9, sl, fp, lr}
   147c4:	e24dd014 	sub	sp, sp, #20
   147c8:	e28d3010 	add	r3, sp, #16
   147cc:	e5230004 	str	r0, [r3, #-4]!
   147d0:	e1a04002 	mov	r4, r2
   147d4:	e58d1004 	str	r1, [sp, #4]
   147d8:	e1a00003 	mov	r0, r3
   147dc:	e1a01002 	mov	r1, r2
   147e0:	e3a02000 	mov	r2, #0
   147e4:	ebfff33f 	bl	114e8 <chk_mounted>
   147e8:	e250b000 	subs	fp, r0, #0
   147ec:	e5947000 	ldr	r7, [r4]
   147f0:	1a00004b 	bne	14924 <f_getfree+0x164>
   147f4:	e5975018 	ldr	r5, [r7, #24]
   147f8:	e5973010 	ldr	r3, [r7, #16]
   147fc:	e2452002 	sub	r2, r5, #2
   14800:	e1530002 	cmp	r3, r2
   14804:	9a000049 	bls	14930 <f_getfree+0x170>
   14808:	e5d79000 	ldrb	r9, [r7]
   1480c:	e3590001 	cmp	r9, #1
   14810:	0a000064 	beq	149a8 <f_getfree+0x1e8>
   14814:	e1a0400b 	mov	r4, fp
   14818:	e1a0600b 	mov	r6, fp
   1481c:	e1a0800b 	mov	r8, fp
   14820:	e597a024 	ldr	sl, [r7, #36]	; 0x24
   14824:	e58db008 	str	fp, [sp, #8]
   14828:	ea000010 	b	14870 <f_getfree+0xb0>
   1482c:	e3590002 	cmp	r9, #2
   14830:	0a000023 	beq	148c4 <f_getfree+0x104>
   14834:	e5d43002 	ldrb	r3, [r4, #2]
   14838:	e5d41003 	ldrb	r1, [r4, #3]
   1483c:	e5d42000 	ldrb	r2, [r4]
   14840:	e1a03803 	lsl	r3, r3, #16
   14844:	e1833c01 	orr	r3, r3, r1, lsl #24
   14848:	e5d41001 	ldrb	r1, [r4, #1]
   1484c:	e1833002 	orr	r3, r3, r2
   14850:	e1833401 	orr	r3, r3, r1, lsl #8
   14854:	e3c3320f 	bic	r3, r3, #-268435456	; 0xf0000000
   14858:	e3530000 	cmp	r3, #0
   1485c:	02888001 	addeq	r8, r8, #1
   14860:	e2555001 	subs	r5, r5, #1
   14864:	e2844004 	add	r4, r4, #4
   14868:	e2466004 	sub	r6, r6, #4
   1486c:	0a00001c 	beq	148e4 <f_getfree+0x124>
   14870:	e3560000 	cmp	r6, #0
   14874:	1affffec 	bne	1482c <f_getfree+0x6c>
   14878:	e597b030 	ldr	fp, [r7, #48]	; 0x30
   1487c:	e15a000b 	cmp	sl, fp
   14880:	0a00002f 	beq	14944 <f_getfree+0x184>
   14884:	e5d73004 	ldrb	r3, [r7, #4]
   14888:	e2874034 	add	r4, r7, #52	; 0x34
   1488c:	e3530000 	cmp	r3, #0
   14890:	1a000015 	bne	148ec <f_getfree+0x12c>
   14894:	e5d70001 	ldrb	r0, [r7, #1]
   14898:	e1a01004 	mov	r1, r4
   1489c:	e1a0200a 	mov	r2, sl
   148a0:	e3a03001 	mov	r3, #1
   148a4:	eb000d65 	bl	17e40 <disk_read>
   148a8:	e3500000 	cmp	r0, #0
   148ac:	1a000015 	bne	14908 <f_getfree+0x148>
   148b0:	e587a030 	str	sl, [r7, #48]	; 0x30
   148b4:	e3590002 	cmp	r9, #2
   148b8:	e28aa001 	add	sl, sl, #1
   148bc:	e3a06c02 	mov	r6, #512	; 0x200
   148c0:	1affffdb 	bne	14834 <f_getfree+0x74>
   148c4:	e5d42001 	ldrb	r2, [r4, #1]
   148c8:	e5d43000 	ldrb	r3, [r4]
   148cc:	e2466002 	sub	r6, r6, #2
   148d0:	e1933402 	orrs	r3, r3, r2, lsl #8
   148d4:	02888001 	addeq	r8, r8, #1
   148d8:	e2555001 	subs	r5, r5, #1
   148dc:	e2844002 	add	r4, r4, #2
   148e0:	1affffe2 	bne	14870 <f_getfree+0xb0>
   148e4:	e59db008 	ldr	fp, [sp, #8]
   148e8:	ea000007 	b	1490c <f_getfree+0x14c>
   148ec:	e1a01004 	mov	r1, r4
   148f0:	e5d70001 	ldrb	r0, [r7, #1]
   148f4:	e1a0200b 	mov	r2, fp
   148f8:	e3a03001 	mov	r3, #1
   148fc:	eb000d6d 	bl	17eb8 <disk_write>
   14900:	e3500000 	cmp	r0, #0
   14904:	0a000010 	beq	1494c <f_getfree+0x18c>
   14908:	e3a0b001 	mov	fp, #1
   1490c:	e3590003 	cmp	r9, #3
   14910:	03a03001 	moveq	r3, #1
   14914:	e5878010 	str	r8, [r7, #16]
   14918:	05c73005 	strbeq	r3, [r7, #5]
   1491c:	e59d3004 	ldr	r3, [sp, #4]
   14920:	e5838000 	str	r8, [r3]
   14924:	e1a0000b 	mov	r0, fp
   14928:	e28dd014 	add	sp, sp, #20
   1492c:	e8bd8ff0 	pop	{r4, r5, r6, r7, r8, r9, sl, fp, pc}
   14930:	e1a0000b 	mov	r0, fp
   14934:	e59d2004 	ldr	r2, [sp, #4]
   14938:	e5823000 	str	r3, [r2]
   1493c:	e28dd014 	add	sp, sp, #20
   14940:	e8bd8ff0 	pop	{r4, r5, r6, r7, r8, r9, sl, fp, pc}
   14944:	e2874034 	add	r4, r7, #52	; 0x34
   14948:	eaffffd9 	b	148b4 <f_getfree+0xf4>
   1494c:	e5972024 	ldr	r2, [r7, #36]	; 0x24
   14950:	e5c76004 	strb	r6, [r7, #4]
   14954:	e15b0002 	cmp	fp, r2
   14958:	3affffcd 	bcc	14894 <f_getfree+0xd4>
   1495c:	e597301c 	ldr	r3, [r7, #28]
   14960:	e0832002 	add	r2, r3, r2
   14964:	e15b0002 	cmp	fp, r2
   14968:	2affffc9 	bcs	14894 <f_getfree+0xd4>
   1496c:	e5d76003 	ldrb	r6, [r7, #3]
   14970:	e3560001 	cmp	r6, #1
   14974:	8a000001 	bhi	14980 <f_getfree+0x1c0>
   14978:	eaffffc5 	b	14894 <f_getfree+0xd4>
   1497c:	e597301c 	ldr	r3, [r7, #28]
   14980:	e08bb003 	add	fp, fp, r3
   14984:	e2466001 	sub	r6, r6, #1
   14988:	e1a0200b 	mov	r2, fp
   1498c:	e5d70001 	ldrb	r0, [r7, #1]
   14990:	e1a01004 	mov	r1, r4
   14994:	e3a03001 	mov	r3, #1
   14998:	eb000d46 	bl	17eb8 <disk_write>
   1499c:	e3560001 	cmp	r6, #1
   149a0:	1afffff5 	bne	1497c <f_getfree+0x1bc>
   149a4:	eaffffba 	b	14894 <f_getfree+0xd4>
   149a8:	e3a04002 	mov	r4, #2
   149ac:	e1a0800b 	mov	r8, fp
   149b0:	e1540005 	cmp	r4, r5
   149b4:	2a00000e 	bcs	149f4 <f_getfree+0x234>
   149b8:	e1a01004 	mov	r1, r4
   149bc:	e1a00007 	mov	r0, r7
   149c0:	ebffe7a9 	bl	e86c <get_fat.part.5>
   149c4:	e3700001 	cmn	r0, #1
   149c8:	e2844001 	add	r4, r4, #1
   149cc:	0a00000b 	beq	14a00 <f_getfree+0x240>
   149d0:	e3500001 	cmp	r0, #1
   149d4:	0a000006 	beq	149f4 <f_getfree+0x234>
   149d8:	e5975018 	ldr	r5, [r7, #24]
   149dc:	e3500000 	cmp	r0, #0
   149e0:	02888001 	addeq	r8, r8, #1
   149e4:	e1540005 	cmp	r4, r5
   149e8:	2a000002 	bcs	149f8 <f_getfree+0x238>
   149ec:	e3540001 	cmp	r4, #1
   149f0:	8affffee 	bhi	149b0 <f_getfree+0x1f0>
   149f4:	e3a0b002 	mov	fp, #2
   149f8:	e5878010 	str	r8, [r7, #16]
   149fc:	eaffffc6 	b	1491c <f_getfree+0x15c>
   14a00:	e3a0b001 	mov	fp, #1
   14a04:	eafffffb 	b	149f8 <f_getfree+0x238>

00014a08 <f_truncate>:
   14a08:	e3500000 	cmp	r0, #0
   14a0c:	0a000005 	beq	14a28 <f_truncate+0x20>
   14a10:	e5903000 	ldr	r3, [r0]
   14a14:	e3530000 	cmp	r3, #0
   14a18:	0a000002 	beq	14a28 <f_truncate+0x20>
   14a1c:	e5d32000 	ldrb	r2, [r3]
   14a20:	e3520000 	cmp	r2, #0
   14a24:	1a000001 	bne	14a30 <f_truncate+0x28>
   14a28:	e3a00009 	mov	r0, #9
   14a2c:	e12fff1e 	bx	lr
   14a30:	e1d310b6 	ldrh	r1, [r3, #6]
   14a34:	e1d020b4 	ldrh	r2, [r0, #4]
   14a38:	e1510002 	cmp	r1, r2
   14a3c:	1afffff9 	bne	14a28 <f_truncate+0x20>
   14a40:	e92d41f0 	push	{r4, r5, r6, r7, r8, lr}
   14a44:	e1a04000 	mov	r4, r0
   14a48:	e5d30001 	ldrb	r0, [r3, #1]
   14a4c:	eb000d1b 	bl	17ec0 <disk_status>
   14a50:	e3100001 	tst	r0, #1
   14a54:	0a000001 	beq	14a60 <f_truncate+0x58>
   14a58:	e3a00003 	mov	r0, #3
   14a5c:	e8bd81f0 	pop	{r4, r5, r6, r7, r8, pc}
   14a60:	e5d43006 	ldrb	r3, [r4, #6]
   14a64:	e3130080 	tst	r3, #128	; 0x80
   14a68:	1a000053 	bne	14bbc <f_truncate+0x1b4>
   14a6c:	e3130002 	tst	r3, #2
   14a70:	1a000001 	bne	14a7c <f_truncate+0x74>
   14a74:	e3a00007 	mov	r0, #7
   14a78:	e8bd81f0 	pop	{r4, r5, r6, r7, r8, pc}
   14a7c:	e5942008 	ldr	r2, [r4, #8]
   14a80:	e594100c 	ldr	r1, [r4, #12]
   14a84:	e1510002 	cmp	r1, r2
   14a88:	8a000001 	bhi	14a94 <f_truncate+0x8c>
   14a8c:	e3a00000 	mov	r0, #0
   14a90:	e8bd81f0 	pop	{r4, r5, r6, r7, r8, pc}
   14a94:	e3833020 	orr	r3, r3, #32
   14a98:	e3520000 	cmp	r2, #0
   14a9c:	e5c43006 	strb	r3, [r4, #6]
   14aa0:	e584200c 	str	r2, [r4, #12]
   14aa4:	1a00002e 	bne	14b64 <f_truncate+0x15c>
   14aa8:	e5946010 	ldr	r6, [r4, #16]
   14aac:	e5945000 	ldr	r5, [r4]
   14ab0:	e3560001 	cmp	r6, #1
   14ab4:	9a000003 	bls	14ac8 <f_truncate+0xc0>
   14ab8:	e5952018 	ldr	r2, [r5, #24]
   14abc:	e1560002 	cmp	r6, r2
   14ac0:	33a08001 	movcc	r8, #1
   14ac4:	3a000015 	bcc	14b20 <f_truncate+0x118>
   14ac8:	e3a00002 	mov	r0, #2
   14acc:	e3a02000 	mov	r2, #0
   14ad0:	e5842010 	str	r2, [r4, #16]
   14ad4:	e1e03c83 	mvn	r3, r3, lsl #25
   14ad8:	e1e03ca3 	mvn	r3, r3, lsr #25
   14adc:	e5c43006 	strb	r3, [r4, #6]
   14ae0:	e8bd81f0 	pop	{r4, r5, r6, r7, r8, pc}
   14ae4:	e1a01006 	mov	r1, r6
   14ae8:	e1a00005 	mov	r0, r5
   14aec:	e3a02000 	mov	r2, #0
   14af0:	ebffe541 	bl	dffc <put_fat.part.6>
   14af4:	e3500000 	cmp	r0, #0
   14af8:	1a000031 	bne	14bc4 <f_truncate+0x1bc>
   14afc:	e5953010 	ldr	r3, [r5, #16]
   14b00:	e3730001 	cmn	r3, #1
   14b04:	12833001 	addne	r3, r3, #1
   14b08:	15853010 	strne	r3, [r5, #16]
   14b0c:	e5953018 	ldr	r3, [r5, #24]
   14b10:	15c58005 	strbne	r8, [r5, #5]
   14b14:	e1530007 	cmp	r3, r7
   14b18:	9a000021 	bls	14ba4 <f_truncate+0x19c>
   14b1c:	e1a06007 	mov	r6, r7
   14b20:	e3560001 	cmp	r6, #1
   14b24:	9a000028 	bls	14bcc <f_truncate+0x1c4>
   14b28:	e1a00005 	mov	r0, r5
   14b2c:	e1a01006 	mov	r1, r6
   14b30:	ebffe74d 	bl	e86c <get_fat.part.5>
   14b34:	e2507000 	subs	r7, r0, #0
   14b38:	0a000019 	beq	14ba4 <f_truncate+0x19c>
   14b3c:	e3570001 	cmp	r7, #1
   14b40:	0a000004 	beq	14b58 <f_truncate+0x150>
   14b44:	e3770001 	cmn	r7, #1
   14b48:	0a000018 	beq	14bb0 <f_truncate+0x1a8>
   14b4c:	e5953018 	ldr	r3, [r5, #24]
   14b50:	e1560003 	cmp	r6, r3
   14b54:	3affffe2 	bcc	14ae4 <f_truncate+0xdc>
   14b58:	e5d43006 	ldrb	r3, [r4, #6]
   14b5c:	e3a00002 	mov	r0, #2
   14b60:	eaffffd9 	b	14acc <f_truncate+0xc4>
   14b64:	e5941014 	ldr	r1, [r4, #20]
   14b68:	e5940000 	ldr	r0, [r4]
   14b6c:	e3510001 	cmp	r1, #1
   14b70:	9a000002 	bls	14b80 <f_truncate+0x178>
   14b74:	e5902018 	ldr	r2, [r0, #24]
   14b78:	e1520001 	cmp	r2, r1
   14b7c:	8a000001 	bhi	14b88 <f_truncate+0x180>
   14b80:	e3a00002 	mov	r0, #2
   14b84:	eaffffd2 	b	14ad4 <f_truncate+0xcc>
   14b88:	ebffe737 	bl	e86c <get_fat.part.5>
   14b8c:	e3700001 	cmn	r0, #1
   14b90:	e1a05000 	mov	r5, r0
   14b94:	1a000011 	bne	14be0 <f_truncate+0x1d8>
   14b98:	e5d43006 	ldrb	r3, [r4, #6]
   14b9c:	e3a00001 	mov	r0, #1
   14ba0:	eaffffcb 	b	14ad4 <f_truncate+0xcc>
   14ba4:	e3a00000 	mov	r0, #0
   14ba8:	e5840010 	str	r0, [r4, #16]
   14bac:	e8bd81f0 	pop	{r4, r5, r6, r7, r8, pc}
   14bb0:	e5d43006 	ldrb	r3, [r4, #6]
   14bb4:	e3a00001 	mov	r0, #1
   14bb8:	eaffffc3 	b	14acc <f_truncate+0xc4>
   14bbc:	e3a00002 	mov	r0, #2
   14bc0:	e8bd81f0 	pop	{r4, r5, r6, r7, r8, pc}
   14bc4:	e5d43006 	ldrb	r3, [r4, #6]
   14bc8:	eaffffbf 	b	14acc <f_truncate+0xc4>
   14bcc:	e3a02000 	mov	r2, #0
   14bd0:	e5d43006 	ldrb	r3, [r4, #6]
   14bd4:	e5842010 	str	r2, [r4, #16]
   14bd8:	e3a00002 	mov	r0, #2
   14bdc:	eaffffbc 	b	14ad4 <f_truncate+0xcc>
   14be0:	e3500001 	cmp	r0, #1
   14be4:	05d43006 	ldrbeq	r3, [r4, #6]
   14be8:	0affffe4 	beq	14b80 <f_truncate+0x178>
   14bec:	e5940000 	ldr	r0, [r4]
   14bf0:	e5903018 	ldr	r3, [r0, #24]
   14bf4:	e1530005 	cmp	r3, r5
   14bf8:	9affffa3 	bls	14a8c <f_truncate+0x84>
   14bfc:	e5941014 	ldr	r1, [r4, #20]
   14c00:	e1530001 	cmp	r3, r1
   14c04:	83510001 	cmphi	r1, #1
   14c08:	8a000002 	bhi	14c18 <f_truncate+0x210>
   14c0c:	e5d43006 	ldrb	r3, [r4, #6]
   14c10:	e3a00002 	mov	r0, #2
   14c14:	eaffffae 	b	14ad4 <f_truncate+0xcc>
   14c18:	e3e0220f 	mvn	r2, #-268435456	; 0xf0000000
   14c1c:	ebffe4f6 	bl	dffc <put_fat.part.6>
   14c20:	e3500000 	cmp	r0, #0
   14c24:	1a000024 	bne	14cbc <f_truncate+0x2b4>
   14c28:	e3550001 	cmp	r5, #1
   14c2c:	e5946000 	ldr	r6, [r4]
   14c30:	9afffff5 	bls	14c0c <f_truncate+0x204>
   14c34:	e5963018 	ldr	r3, [r6, #24]
   14c38:	e1530005 	cmp	r3, r5
   14c3c:	83a08001 	movhi	r8, #1
   14c40:	9afffff1 	bls	14c0c <f_truncate+0x204>
   14c44:	ea000008 	b	14c6c <f_truncate+0x264>
   14c48:	e5963010 	ldr	r3, [r6, #16]
   14c4c:	e3730001 	cmn	r3, #1
   14c50:	12833001 	addne	r3, r3, #1
   14c54:	15863010 	strne	r3, [r6, #16]
   14c58:	e5963018 	ldr	r3, [r6, #24]
   14c5c:	15c68005 	strbne	r8, [r6, #5]
   14c60:	e1530007 	cmp	r3, r7
   14c64:	9affff88 	bls	14a8c <f_truncate+0x84>
   14c68:	e1a05007 	mov	r5, r7
   14c6c:	e3550001 	cmp	r5, #1
   14c70:	9affffe5 	bls	14c0c <f_truncate+0x204>
   14c74:	e1a00006 	mov	r0, r6
   14c78:	e1a01005 	mov	r1, r5
   14c7c:	ebffe6fa 	bl	e86c <get_fat.part.5>
   14c80:	e2507000 	subs	r7, r0, #0
   14c84:	0affff80 	beq	14a8c <f_truncate+0x84>
   14c88:	e3570001 	cmp	r7, #1
   14c8c:	0affffde 	beq	14c0c <f_truncate+0x204>
   14c90:	e3770001 	cmn	r7, #1
   14c94:	0affffbf 	beq	14b98 <f_truncate+0x190>
   14c98:	e5963018 	ldr	r3, [r6, #24]
   14c9c:	e1550003 	cmp	r5, r3
   14ca0:	2affffd9 	bcs	14c0c <f_truncate+0x204>
   14ca4:	e1a01005 	mov	r1, r5
   14ca8:	e1a00006 	mov	r0, r6
   14cac:	e3a02000 	mov	r2, #0
   14cb0:	ebffe4d1 	bl	dffc <put_fat.part.6>
   14cb4:	e3500000 	cmp	r0, #0
   14cb8:	0affffe2 	beq	14c48 <f_truncate+0x240>
   14cbc:	e5d43006 	ldrb	r3, [r4, #6]
   14cc0:	eaffff83 	b	14ad4 <f_truncate+0xcc>

00014cc4 <f_unlink>:
   14cc4:	e92d4ff0 	push	{r4, r5, r6, r7, r8, r9, sl, fp, lr}
   14cc8:	e5d03000 	ldrb	r3, [r0]
   14ccc:	e24dd064 	sub	sp, sp, #100	; 0x64
   14cd0:	e2433030 	sub	r3, r3, #48	; 0x30
   14cd4:	e3530009 	cmp	r3, #9
   14cd8:	e1a04000 	mov	r4, r0
   14cdc:	9a000011 	bls	14d28 <f_unlink+0x64>
   14ce0:	e59f6694 	ldr	r6, [pc, #1684]	; 1537c <f_unlink+0x6b8>
   14ce4:	e5965000 	ldr	r5, [r6]
   14ce8:	e3550000 	cmp	r5, #0
   14cec:	03a0000c 	moveq	r0, #12
   14cf0:	0a00000a 	beq	14d20 <f_unlink+0x5c>
   14cf4:	e58d5018 	str	r5, [sp, #24]
   14cf8:	e5d53000 	ldrb	r3, [r5]
   14cfc:	e3530000 	cmp	r3, #0
   14d00:	0a000010 	beq	14d48 <f_unlink+0x84>
   14d04:	e5d50001 	ldrb	r0, [r5, #1]
   14d08:	eb000c6c 	bl	17ec0 <disk_status>
   14d0c:	e3100001 	tst	r0, #1
   14d10:	1a00000c 	bne	14d48 <f_unlink+0x84>
   14d14:	e3100004 	tst	r0, #4
   14d18:	0a000097 	beq	14f7c <f_unlink+0x2b8>
   14d1c:	e3a0000a 	mov	r0, #10
   14d20:	e28dd064 	add	sp, sp, #100	; 0x64
   14d24:	e8bd8ff0 	pop	{r4, r5, r6, r7, r8, r9, sl, fp, pc}
   14d28:	e5d02001 	ldrb	r2, [r0, #1]
   14d2c:	e352003a 	cmp	r2, #58	; 0x3a
   14d30:	1affffea 	bne	14ce0 <f_unlink+0x1c>
   14d34:	e3530000 	cmp	r3, #0
   14d38:	13a0000b 	movne	r0, #11
   14d3c:	1afffff7 	bne	14d20 <f_unlink+0x5c>
   14d40:	e2844002 	add	r4, r4, #2
   14d44:	eaffffe5 	b	14ce0 <f_unlink+0x1c>
   14d48:	e3a00000 	mov	r0, #0
   14d4c:	e5c50000 	strb	r0, [r5]
   14d50:	e5c50001 	strb	r0, [r5, #1]
   14d54:	eb000c28 	bl	17dfc <disk_initialize>
   14d58:	e3100001 	tst	r0, #1
   14d5c:	13a00003 	movne	r0, #3
   14d60:	1affffee 	bne	14d20 <f_unlink+0x5c>
   14d64:	e2000004 	and	r0, r0, #4
   14d68:	e21020ff 	ands	r2, r0, #255	; 0xff
   14d6c:	1affffea 	bne	14d1c <f_unlink+0x58>
   14d70:	e2857034 	add	r7, r5, #52	; 0x34
   14d74:	e3a03001 	mov	r3, #1
   14d78:	e1a01007 	mov	r1, r7
   14d7c:	e5d50001 	ldrb	r0, [r5, #1]
   14d80:	eb000c2e 	bl	17e40 <disk_read>
   14d84:	e2503000 	subs	r3, r0, #0
   14d88:	0a0000cf 	beq	150cc <f_unlink+0x408>
   14d8c:	e3a00001 	mov	r0, #1
   14d90:	eaffffe2 	b	14d20 <f_unlink+0x5c>
   14d94:	e5d52040 	ldrb	r2, [r5, #64]	; 0x40
   14d98:	e5d5303f 	ldrb	r3, [r5, #63]	; 0x3f
   14d9c:	e1833402 	orr	r3, r3, r2, lsl #8
   14da0:	e3530c02 	cmp	r3, #512	; 0x200
   14da4:	1a0000d3 	bne	150f8 <f_unlink+0x434>
   14da8:	e5d5a04b 	ldrb	sl, [r5, #75]	; 0x4b
   14dac:	e5d5304a 	ldrb	r3, [r5, #74]	; 0x4a
   14db0:	e193340a 	orrs	r3, r3, sl, lsl #8
   14db4:	11a0a003 	movne	sl, r3
   14db8:	05d5305a 	ldrbeq	r3, [r5, #90]	; 0x5a
   14dbc:	05d5105b 	ldrbeq	r1, [r5, #91]	; 0x5b
   14dc0:	01a03803 	lsleq	r3, r3, #16
   14dc4:	05d52058 	ldrbeq	r2, [r5, #88]	; 0x58
   14dc8:	01833c01 	orreq	r3, r3, r1, lsl #24
   14dcc:	01833002 	orreq	r3, r3, r2
   14dd0:	05d5a059 	ldrbeq	sl, [r5, #89]	; 0x59
   14dd4:	e5d52044 	ldrb	r2, [r5, #68]	; 0x44
   14dd8:	0183a40a 	orreq	sl, r3, sl, lsl #8
   14ddc:	e2423001 	sub	r3, r2, #1
   14de0:	e3530001 	cmp	r3, #1
   14de4:	e585a01c 	str	sl, [r5, #28]
   14de8:	e5c52003 	strb	r2, [r5, #3]
   14dec:	8a0000c1 	bhi	150f8 <f_unlink+0x434>
   14df0:	e5d51041 	ldrb	r1, [r5, #65]	; 0x41
   14df4:	e3510000 	cmp	r1, #0
   14df8:	e5c51002 	strb	r1, [r5, #2]
   14dfc:	0a0000bd 	beq	150f8 <f_unlink+0x434>
   14e00:	e2413001 	sub	r3, r1, #1
   14e04:	e1130001 	tst	r3, r1
   14e08:	1a0000ba 	bne	150f8 <f_unlink+0x434>
   14e0c:	e5d50046 	ldrb	r0, [r5, #70]	; 0x46
   14e10:	e5d53045 	ldrb	r3, [r5, #69]	; 0x45
   14e14:	e1833400 	orr	r3, r3, r0, lsl #8
   14e18:	e313000f 	tst	r3, #15
   14e1c:	e1c530b8 	strh	r3, [r5, #8]
   14e20:	1a0000b4 	bne	150f8 <f_unlink+0x434>
   14e24:	e5d5c048 	ldrb	ip, [r5, #72]	; 0x48
   14e28:	e5d50047 	ldrb	r0, [r5, #71]	; 0x47
   14e2c:	e190040c 	orrs	r0, r0, ip, lsl #8
   14e30:	1a000007 	bne	14e54 <f_unlink+0x190>
   14e34:	e5d50056 	ldrb	r0, [r5, #86]	; 0x56
   14e38:	e5d5e057 	ldrb	lr, [r5, #87]	; 0x57
   14e3c:	e1a00800 	lsl	r0, r0, #16
   14e40:	e5d5c054 	ldrb	ip, [r5, #84]	; 0x54
   14e44:	e1800c0e 	orr	r0, r0, lr, lsl #24
   14e48:	e5d5e055 	ldrb	lr, [r5, #85]	; 0x55
   14e4c:	e180000c 	orr	r0, r0, ip
   14e50:	e180040e 	orr	r0, r0, lr, lsl #8
   14e54:	e5d59043 	ldrb	r9, [r5, #67]	; 0x43
   14e58:	e5d5c042 	ldrb	ip, [r5, #66]	; 0x42
   14e5c:	e19c9409 	orrs	r9, ip, r9, lsl #8
   14e60:	0a0000a4 	beq	150f8 <f_unlink+0x434>
   14e64:	e0020a92 	mul	r2, r2, sl
   14e68:	e089b223 	add	fp, r9, r3, lsr #4
   14e6c:	e08bb002 	add	fp, fp, r2
   14e70:	e15b0000 	cmp	fp, r0
   14e74:	8a00009f 	bhi	150f8 <f_unlink+0x434>
   14e78:	e06b0000 	rsb	r0, fp, r0
   14e7c:	e88d000c 	stm	sp, {r2, r3}
   14e80:	eb001fbe 	bl	1cd80 <__aeabi_uidiv>
   14e84:	e89d000c 	ldm	sp, {r2, r3}
   14e88:	e3500000 	cmp	r0, #0
   14e8c:	0a000099 	beq	150f8 <f_unlink+0x434>
   14e90:	e59f14e8 	ldr	r1, [pc, #1256]	; 15380 <f_unlink+0x6bc>
   14e94:	e1500001 	cmp	r0, r1
   14e98:	9a0000f5 	bls	15274 <f_unlink+0x5b0>
   14e9c:	e2811a0f 	add	r1, r1, #61440	; 0xf000
   14ea0:	e1500001 	cmp	r0, r1
   14ea4:	9a0000dc 	bls	1521c <f_unlink+0x558>
   14ea8:	e2800002 	add	r0, r0, #2
   14eac:	e0889009 	add	r9, r8, r9
   14eb0:	e08bb008 	add	fp, fp, r8
   14eb4:	e3530000 	cmp	r3, #0
   14eb8:	e5850018 	str	r0, [r5, #24]
   14ebc:	e5859024 	str	r9, [r5, #36]	; 0x24
   14ec0:	e585b02c 	str	fp, [r5, #44]	; 0x2c
   14ec4:	e5858020 	str	r8, [r5, #32]
   14ec8:	1a00008a 	bne	150f8 <f_unlink+0x434>
   14ecc:	e5d52062 	ldrb	r2, [r5, #98]	; 0x62
   14ed0:	e5d5c063 	ldrb	ip, [r5, #99]	; 0x63
   14ed4:	e1a02802 	lsl	r2, r2, #16
   14ed8:	e5d51060 	ldrb	r1, [r5, #96]	; 0x60
   14edc:	e1822c0c 	orr	r2, r2, ip, lsl #24
   14ee0:	e1a00100 	lsl	r0, r0, #2
   14ee4:	e5d5c061 	ldrb	ip, [r5, #97]	; 0x61
   14ee8:	e2800f7f 	add	r0, r0, #508	; 0x1fc
   14eec:	e1822001 	orr	r2, r2, r1
   14ef0:	e182240c 	orr	r2, r2, ip, lsl #8
   14ef4:	e15a04a0 	cmp	sl, r0, lsr #9
   14ef8:	e5852028 	str	r2, [r5, #40]	; 0x28
   14efc:	3a00007d 	bcc	150f8 <f_unlink+0x434>
   14f00:	e3e00000 	mvn	r0, #0
   14f04:	e5d51065 	ldrb	r1, [r5, #101]	; 0x65
   14f08:	e5d52064 	ldrb	r2, [r5, #100]	; 0x64
   14f0c:	e585300c 	str	r3, [r5, #12]
   14f10:	e1822401 	orr	r2, r2, r1, lsl #8
   14f14:	e0882002 	add	r2, r8, r2
   14f18:	e5c53005 	strb	r3, [r5, #5]
   14f1c:	e5850010 	str	r0, [r5, #16]
   14f20:	e1a01007 	mov	r1, r7
   14f24:	e5852014 	str	r2, [r5, #20]
   14f28:	e5d50001 	ldrb	r0, [r5, #1]
   14f2c:	e3a03001 	mov	r3, #1
   14f30:	eb000bc2 	bl	17e40 <disk_read>
   14f34:	e3500000 	cmp	r0, #0
   14f38:	1a000005 	bne	14f54 <f_unlink+0x290>
   14f3c:	e5d51233 	ldrb	r1, [r5, #563]	; 0x233
   14f40:	e5d53232 	ldrb	r3, [r5, #562]	; 0x232
   14f44:	e59f2438 	ldr	r2, [pc, #1080]	; 15384 <f_unlink+0x6c0>
   14f48:	e1833401 	orr	r3, r3, r1, lsl #8
   14f4c:	e1530002 	cmp	r3, r2
   14f50:	0a0000df 	beq	152d4 <f_unlink+0x610>
   14f54:	e3a03003 	mov	r3, #3
   14f58:	e3a01000 	mov	r1, #0
   14f5c:	e1d620b4 	ldrh	r2, [r6, #4]
   14f60:	e5c53000 	strb	r3, [r5]
   14f64:	e2823001 	add	r3, r2, #1
   14f68:	e6ff3073 	uxth	r3, r3
   14f6c:	e1c630b4 	strh	r3, [r6, #4]
   14f70:	e1c530b6 	strh	r3, [r5, #6]
   14f74:	e5851030 	str	r1, [r5, #48]	; 0x30
   14f78:	e5c51004 	strb	r1, [r5, #4]
   14f7c:	e59f2404 	ldr	r2, [pc, #1028]	; 15388 <f_unlink+0x6c4>
   14f80:	e28d300c 	add	r3, sp, #12
   14f84:	e1a01004 	mov	r1, r4
   14f88:	e28d0018 	add	r0, sp, #24
   14f8c:	e58d2034 	str	r2, [sp, #52]	; 0x34
   14f90:	e58d3030 	str	r3, [sp, #48]	; 0x30
   14f94:	ebfff019 	bl	11000 <follow_path>
   14f98:	e3500000 	cmp	r0, #0
   14f9c:	1affff5f 	bne	14d20 <f_unlink+0x5c>
   14fa0:	e59d302c 	ldr	r3, [sp, #44]	; 0x2c
   14fa4:	e3530000 	cmp	r3, #0
   14fa8:	03a00006 	moveq	r0, #6
   14fac:	0a000002 	beq	14fbc <f_unlink+0x2f8>
   14fb0:	e5d3000b 	ldrb	r0, [r3, #11]
   14fb4:	e2100001 	ands	r0, r0, #1
   14fb8:	13a00007 	movne	r0, #7
   14fbc:	e59d2018 	ldr	r2, [sp, #24]
   14fc0:	e5d3401b 	ldrb	r4, [r3, #27]
   14fc4:	e5d21000 	ldrb	r1, [r2]
   14fc8:	e5d3201a 	ldrb	r2, [r3, #26]
   14fcc:	e3510003 	cmp	r1, #3
   14fd0:	e1824404 	orr	r4, r2, r4, lsl #8
   14fd4:	05d31015 	ldrbeq	r1, [r3, #21]
   14fd8:	05d32014 	ldrbeq	r2, [r3, #20]
   14fdc:	01822401 	orreq	r2, r2, r1, lsl #8
   14fe0:	01844802 	orreq	r4, r4, r2, lsl #16
   14fe4:	e3500000 	cmp	r0, #0
   14fe8:	1affff4c 	bne	14d20 <f_unlink+0x5c>
   14fec:	e5d3300b 	ldrb	r3, [r3, #11]
   14ff0:	e3130010 	tst	r3, #16
   14ff4:	0a00001e 	beq	15074 <f_unlink+0x3b0>
   14ff8:	e3540001 	cmp	r4, #1
   14ffc:	9a000025 	bls	15098 <f_unlink+0x3d4>
   15000:	e59d8018 	ldr	r8, [sp, #24]
   15004:	e59d701c 	ldr	r7, [sp, #28]
   15008:	e59d6024 	ldr	r6, [sp, #36]	; 0x24
   1500c:	e59d5028 	ldr	r5, [sp, #40]	; 0x28
   15010:	e59de02c 	ldr	lr, [sp, #44]	; 0x2c
   15014:	e59dc030 	ldr	ip, [sp, #48]	; 0x30
   15018:	e59d2034 	ldr	r2, [sp, #52]	; 0x34
   1501c:	e59d3038 	ldr	r3, [sp, #56]	; 0x38
   15020:	e28d003c 	add	r0, sp, #60	; 0x3c
   15024:	e3a01002 	mov	r1, #2
   15028:	e58d4044 	str	r4, [sp, #68]	; 0x44
   1502c:	e58d803c 	str	r8, [sp, #60]	; 0x3c
   15030:	e58d7040 	str	r7, [sp, #64]	; 0x40
   15034:	e58d6048 	str	r6, [sp, #72]	; 0x48
   15038:	e58d504c 	str	r5, [sp, #76]	; 0x4c
   1503c:	e58de050 	str	lr, [sp, #80]	; 0x50
   15040:	e58dc054 	str	ip, [sp, #84]	; 0x54
   15044:	e58d2058 	str	r2, [sp, #88]	; 0x58
   15048:	e58d305c 	str	r3, [sp, #92]	; 0x5c
   1504c:	ebffe6f7 	bl	ec30 <dir_sdi>
   15050:	e3500000 	cmp	r0, #0
   15054:	1affff31 	bne	14d20 <f_unlink+0x5c>
   15058:	e28d003c 	add	r0, sp, #60	; 0x3c
   1505c:	ebffea31 	bl	f928 <dir_read.constprop.13>
   15060:	e3500000 	cmp	r0, #0
   15064:	03a00007 	moveq	r0, #7
   15068:	0affff2c 	beq	14d20 <f_unlink+0x5c>
   1506c:	e3500004 	cmp	r0, #4
   15070:	1affff2a 	bne	14d20 <f_unlink+0x5c>
   15074:	e28d0018 	add	r0, sp, #24
   15078:	ebffe9ab 	bl	f72c <dir_remove>
   1507c:	e3500000 	cmp	r0, #0
   15080:	1affff26 	bne	14d20 <f_unlink+0x5c>
   15084:	e3540000 	cmp	r4, #0
   15088:	1a000004 	bne	150a0 <f_unlink+0x3dc>
   1508c:	e59d0018 	ldr	r0, [sp, #24]
   15090:	ebffe34b 	bl	ddc4 <sync_fs>
   15094:	eaffff21 	b	14d20 <f_unlink+0x5c>
   15098:	e3a00002 	mov	r0, #2
   1509c:	eaffff1f 	b	14d20 <f_unlink+0x5c>
   150a0:	e3540001 	cmp	r4, #1
   150a4:	e59d0018 	ldr	r0, [sp, #24]
   150a8:	9afffffa 	bls	15098 <f_unlink+0x3d4>
   150ac:	e5903018 	ldr	r3, [r0, #24]
   150b0:	e1530004 	cmp	r3, r4
   150b4:	9afffff7 	bls	15098 <f_unlink+0x3d4>
   150b8:	e1a01004 	mov	r1, r4
   150bc:	ebffe4de 	bl	e43c <remove_chain.part.8>
   150c0:	e3500000 	cmp	r0, #0
   150c4:	1affff15 	bne	14d20 <f_unlink+0x5c>
   150c8:	eaffffef 	b	1508c <f_unlink+0x3c8>
   150cc:	e5d59233 	ldrb	r9, [r5, #563]	; 0x233
   150d0:	e5d52232 	ldrb	r2, [r5, #562]	; 0x232
   150d4:	e59f12b0 	ldr	r1, [pc, #688]	; 1538c <f_unlink+0x6c8>
   150d8:	e1829409 	orr	r9, r2, r9, lsl #8
   150dc:	e6bf9079 	sxth	r9, r9
   150e0:	e1590001 	cmp	r9, r1
   150e4:	13a03002 	movne	r3, #2
   150e8:	0a000004 	beq	15100 <f_unlink+0x43c>
   150ec:	e3a08000 	mov	r8, #0
   150f0:	e3530000 	cmp	r3, #0
   150f4:	0affff26 	beq	14d94 <f_unlink+0xd0>
   150f8:	e3a0000d 	mov	r0, #13
   150fc:	eaffff07 	b	14d20 <f_unlink+0x5c>
   15100:	e5d5206c 	ldrb	r2, [r5, #108]	; 0x6c
   15104:	e5d5006d 	ldrb	r0, [r5, #109]	; 0x6d
   15108:	e1a02802 	lsl	r2, r2, #16
   1510c:	e5d5106a 	ldrb	r1, [r5, #106]	; 0x6a
   15110:	e1822c00 	orr	r2, r2, r0, lsl #24
   15114:	e5d5006b 	ldrb	r0, [r5, #107]	; 0x6b
   15118:	e1822001 	orr	r2, r2, r1
   1511c:	e1822400 	orr	r2, r2, r0, lsl #8
   15120:	e59fa268 	ldr	sl, [pc, #616]	; 15390 <f_unlink+0x6cc>
   15124:	e3c224ff 	bic	r2, r2, #-16777216	; 0xff000000
   15128:	e152000a 	cmp	r2, sl
   1512c:	0affffee 	beq	150ec <f_unlink+0x428>
   15130:	e5d52088 	ldrb	r2, [r5, #136]	; 0x88
   15134:	e5d50089 	ldrb	r0, [r5, #137]	; 0x89
   15138:	e1a02802 	lsl	r2, r2, #16
   1513c:	e5d51086 	ldrb	r1, [r5, #134]	; 0x86
   15140:	e1822c00 	orr	r2, r2, r0, lsl #24
   15144:	e5d50087 	ldrb	r0, [r5, #135]	; 0x87
   15148:	e1822001 	orr	r2, r2, r1
   1514c:	e1822400 	orr	r2, r2, r0, lsl #8
   15150:	e3c224ff 	bic	r2, r2, #-16777216	; 0xff000000
   15154:	e152000a 	cmp	r2, sl
   15158:	0affffe3 	beq	150ec <f_unlink+0x428>
   1515c:	e5d531f6 	ldrb	r3, [r5, #502]	; 0x1f6
   15160:	e3530000 	cmp	r3, #0
   15164:	0affffe3 	beq	150f8 <f_unlink+0x434>
   15168:	e5d531fc 	ldrb	r3, [r5, #508]	; 0x1fc
   1516c:	e5d511fd 	ldrb	r1, [r5, #509]	; 0x1fd
   15170:	e5d521fa 	ldrb	r2, [r5, #506]	; 0x1fa
   15174:	e1a03803 	lsl	r3, r3, #16
   15178:	e1833c01 	orr	r3, r3, r1, lsl #24
   1517c:	e5d581fb 	ldrb	r8, [r5, #507]	; 0x1fb
   15180:	e1833002 	orr	r3, r3, r2
   15184:	e1838408 	orr	r8, r3, r8, lsl #8
   15188:	e1a02008 	mov	r2, r8
   1518c:	e5d50001 	ldrb	r0, [r5, #1]
   15190:	e1a01007 	mov	r1, r7
   15194:	e3a03001 	mov	r3, #1
   15198:	eb000b28 	bl	17e40 <disk_read>
   1519c:	e3500000 	cmp	r0, #0
   151a0:	1afffef9 	bne	14d8c <f_unlink+0xc8>
   151a4:	e5d52233 	ldrb	r2, [r5, #563]	; 0x233
   151a8:	e5d53232 	ldrb	r3, [r5, #562]	; 0x232
   151ac:	e1833402 	orr	r3, r3, r2, lsl #8
   151b0:	e6bf3073 	sxth	r3, r3
   151b4:	e1530009 	cmp	r3, r9
   151b8:	1affffce 	bne	150f8 <f_unlink+0x434>
   151bc:	e5d5306c 	ldrb	r3, [r5, #108]	; 0x6c
   151c0:	e5d5106d 	ldrb	r1, [r5, #109]	; 0x6d
   151c4:	e1a03803 	lsl	r3, r3, #16
   151c8:	e5d5206a 	ldrb	r2, [r5, #106]	; 0x6a
   151cc:	e1833c01 	orr	r3, r3, r1, lsl #24
   151d0:	e5d5106b 	ldrb	r1, [r5, #107]	; 0x6b
   151d4:	e1833002 	orr	r3, r3, r2
   151d8:	e1833401 	orr	r3, r3, r1, lsl #8
   151dc:	e3c334ff 	bic	r3, r3, #-16777216	; 0xff000000
   151e0:	e153000a 	cmp	r3, sl
   151e4:	0afffeea 	beq	14d94 <f_unlink+0xd0>
   151e8:	e5d53088 	ldrb	r3, [r5, #136]	; 0x88
   151ec:	e5d51089 	ldrb	r1, [r5, #137]	; 0x89
   151f0:	e5d52086 	ldrb	r2, [r5, #134]	; 0x86
   151f4:	e1a03803 	lsl	r3, r3, #16
   151f8:	e1833c01 	orr	r3, r3, r1, lsl #24
   151fc:	e5d51087 	ldrb	r1, [r5, #135]	; 0x87
   15200:	e1833002 	orr	r3, r3, r2
   15204:	e1833401 	orr	r3, r3, r1, lsl #8
   15208:	e59f2180 	ldr	r2, [pc, #384]	; 15390 <f_unlink+0x6cc>
   1520c:	e3c334ff 	bic	r3, r3, #-16777216	; 0xff000000
   15210:	e0533002 	subs	r3, r3, r2
   15214:	13a03001 	movne	r3, #1
   15218:	eaffffb4 	b	150f0 <f_unlink+0x42c>
   1521c:	e2800002 	add	r0, r0, #2
   15220:	e0889009 	add	r9, r8, r9
   15224:	e08bb008 	add	fp, fp, r8
   15228:	e3530000 	cmp	r3, #0
   1522c:	e5850018 	str	r0, [r5, #24]
   15230:	e5859024 	str	r9, [r5, #36]	; 0x24
   15234:	e585b02c 	str	fp, [r5, #44]	; 0x2c
   15238:	e5858020 	str	r8, [r5, #32]
   1523c:	0affffad 	beq	150f8 <f_unlink+0x434>
   15240:	e1a03080 	lsl	r3, r0, #1
   15244:	e2833f7f 	add	r3, r3, #508	; 0x1fc
   15248:	e2833003 	add	r3, r3, #3
   1524c:	e0829009 	add	r9, r2, r9
   15250:	e15a04a3 	cmp	sl, r3, lsr #9
   15254:	e5859028 	str	r9, [r5, #40]	; 0x28
   15258:	3affffa6 	bcc	150f8 <f_unlink+0x434>
   1525c:	e3a03000 	mov	r3, #0
   15260:	e3e02000 	mvn	r2, #0
   15264:	e585300c 	str	r3, [r5, #12]
   15268:	e5852010 	str	r2, [r5, #16]
   1526c:	e3a03002 	mov	r3, #2
   15270:	eaffff38 	b	14f58 <f_unlink+0x294>
   15274:	e2800002 	add	r0, r0, #2
   15278:	e0889009 	add	r9, r8, r9
   1527c:	e08bb008 	add	fp, fp, r8
   15280:	e3530000 	cmp	r3, #0
   15284:	e5850018 	str	r0, [r5, #24]
   15288:	e5859024 	str	r9, [r5, #36]	; 0x24
   1528c:	e585b02c 	str	fp, [r5, #44]	; 0x2c
   15290:	e5858020 	str	r8, [r5, #32]
   15294:	0affff97 	beq	150f8 <f_unlink+0x434>
   15298:	e2003001 	and	r3, r0, #1
   1529c:	e2833f7f 	add	r3, r3, #508	; 0x1fc
   152a0:	e2833003 	add	r3, r3, #3
   152a4:	e0800080 	add	r0, r0, r0, lsl #1
   152a8:	e08300a0 	add	r0, r3, r0, lsr #1
   152ac:	e0829009 	add	r9, r2, r9
   152b0:	e15a04a0 	cmp	sl, r0, lsr #9
   152b4:	e5859028 	str	r9, [r5, #40]	; 0x28
   152b8:	3affff8e 	bcc	150f8 <f_unlink+0x434>
   152bc:	e3a03000 	mov	r3, #0
   152c0:	e3e02000 	mvn	r2, #0
   152c4:	e585300c 	str	r3, [r5, #12]
   152c8:	e5852010 	str	r2, [r5, #16]
   152cc:	e3a03001 	mov	r3, #1
   152d0:	eaffff20 	b	14f58 <f_unlink+0x294>
   152d4:	e5d53036 	ldrb	r3, [r5, #54]	; 0x36
   152d8:	e5d51037 	ldrb	r1, [r5, #55]	; 0x37
   152dc:	e5d52034 	ldrb	r2, [r5, #52]	; 0x34
   152e0:	e1a03803 	lsl	r3, r3, #16
   152e4:	e1833c01 	orr	r3, r3, r1, lsl #24
   152e8:	e5d51035 	ldrb	r1, [r5, #53]	; 0x35
   152ec:	e1833002 	orr	r3, r3, r2
   152f0:	e59f209c 	ldr	r2, [pc, #156]	; 15394 <f_unlink+0x6d0>
   152f4:	e1833401 	orr	r3, r3, r1, lsl #8
   152f8:	e1530002 	cmp	r3, r2
   152fc:	1affff14 	bne	14f54 <f_unlink+0x290>
   15300:	e5d5321a 	ldrb	r3, [r5, #538]	; 0x21a
   15304:	e5d5121b 	ldrb	r1, [r5, #539]	; 0x21b
   15308:	e5d52218 	ldrb	r2, [r5, #536]	; 0x218
   1530c:	e1a03803 	lsl	r3, r3, #16
   15310:	e1833c01 	orr	r3, r3, r1, lsl #24
   15314:	e5d51219 	ldrb	r1, [r5, #537]	; 0x219
   15318:	e1833002 	orr	r3, r3, r2
   1531c:	e59f2074 	ldr	r2, [pc, #116]	; 15398 <f_unlink+0x6d4>
   15320:	e1833401 	orr	r3, r3, r1, lsl #8
   15324:	e1530002 	cmp	r3, r2
   15328:	1affff09 	bne	14f54 <f_unlink+0x290>
   1532c:	e5d50222 	ldrb	r0, [r5, #546]	; 0x222
   15330:	e5d5321e 	ldrb	r3, [r5, #542]	; 0x21e
   15334:	e5d5e223 	ldrb	lr, [r5, #547]	; 0x223
   15338:	e5d5c21f 	ldrb	ip, [r5, #543]	; 0x21f
   1533c:	e5d5221c 	ldrb	r2, [r5, #540]	; 0x21c
   15340:	e1a00800 	lsl	r0, r0, #16
   15344:	e5d51220 	ldrb	r1, [r5, #544]	; 0x220
   15348:	e1a03803 	lsl	r3, r3, #16
   1534c:	e1800c0e 	orr	r0, r0, lr, lsl #24
   15350:	e1833c0c 	orr	r3, r3, ip, lsl #24
   15354:	e5d5e221 	ldrb	lr, [r5, #545]	; 0x221
   15358:	e5d5c21d 	ldrb	ip, [r5, #541]	; 0x21d
   1535c:	e1833002 	orr	r3, r3, r2
   15360:	e1801001 	orr	r1, r0, r1
   15364:	e183340c 	orr	r3, r3, ip, lsl #8
   15368:	e181240e 	orr	r2, r1, lr, lsl #8
   1536c:	e5853010 	str	r3, [r5, #16]
   15370:	e585200c 	str	r2, [r5, #12]
   15374:	e3a03003 	mov	r3, #3
   15378:	eafffef6 	b	14f58 <f_unlink+0x294>
   1537c:	00021bbc 			; <UNDEFINED> instruction: 0x00021bbc
   15380:	00000ff5 	strdeq	r0, [r0], -r5
   15384:	0000aa55 	andeq	sl, r0, r5, asr sl
   15388:	00021bc4 	andeq	r1, r2, r4, asr #23
   1538c:	ffffaa55 			; <UNDEFINED> instruction: 0xffffaa55
   15390:	00544146 	subseq	r4, r4, r6, asr #2
   15394:	41615252 	cmnmi	r1, r2, asr r2
   15398:	61417272 	hvcvs	5922	; 0x1722

0001539c <f_mkdir>:
   1539c:	e92d4ff0 	push	{r4, r5, r6, r7, r8, r9, sl, fp, lr}
   153a0:	e24dd064 	sub	sp, sp, #100	; 0x64
   153a4:	e28d4060 	add	r4, sp, #96	; 0x60
   153a8:	e5240034 	str	r0, [r4, #-52]!	; 0xffffffcc
   153ac:	eb000ae2 	bl	17f3c <get_fattime>
   153b0:	e28d103c 	add	r1, sp, #60	; 0x3c
   153b4:	e1a06000 	mov	r6, r0
   153b8:	e3a02001 	mov	r2, #1
   153bc:	e1a00004 	mov	r0, r4
   153c0:	ebfff048 	bl	114e8 <chk_mounted>
   153c4:	e3500000 	cmp	r0, #0
   153c8:	e1a04000 	mov	r4, r0
   153cc:	0a000002 	beq	153dc <f_mkdir+0x40>
   153d0:	e1a00004 	mov	r0, r4
   153d4:	e28dd064 	add	sp, sp, #100	; 0x64
   153d8:	e8bd8ff0 	pop	{r4, r5, r6, r7, r8, r9, sl, fp, pc}
   153dc:	e59f2840 	ldr	r2, [pc, #2112]	; 15c24 <f_mkdir+0x888>
   153e0:	e28d3030 	add	r3, sp, #48	; 0x30
   153e4:	e1a05000 	mov	r5, r0
   153e8:	e59d102c 	ldr	r1, [sp, #44]	; 0x2c
   153ec:	e28d003c 	add	r0, sp, #60	; 0x3c
   153f0:	e58d2058 	str	r2, [sp, #88]	; 0x58
   153f4:	e58d3054 	str	r3, [sp, #84]	; 0x54
   153f8:	ebffef00 	bl	11000 <follow_path>
   153fc:	e2504000 	subs	r4, r0, #0
   15400:	03a04008 	moveq	r4, #8
   15404:	0afffff1 	beq	153d0 <f_mkdir+0x34>
   15408:	e3540004 	cmp	r4, #4
   1540c:	1affffef 	bne	153d0 <f_mkdir+0x34>
   15410:	e1a01005 	mov	r1, r5
   15414:	e59d003c 	ldr	r0, [sp, #60]	; 0x3c
   15418:	ebffe653 	bl	ed6c <create_chain>
   1541c:	e2503000 	subs	r3, r0, #0
   15420:	e58d3008 	str	r3, [sp, #8]
   15424:	1a000015 	bne	15480 <f_mkdir+0xe4>
   15428:	e3a04007 	mov	r4, #7
   1542c:	e59d2008 	ldr	r2, [sp, #8]
   15430:	e59d503c 	ldr	r5, [sp, #60]	; 0x3c
   15434:	e3520001 	cmp	r2, #1
   15438:	9affffe4 	bls	153d0 <f_mkdir+0x34>
   1543c:	e5953018 	ldr	r3, [r5, #24]
   15440:	e1520003 	cmp	r2, r3
   15444:	33a0a001 	movcc	sl, #1
   15448:	358d4000 	strcc	r4, [sp]
   1544c:	31a06002 	movcc	r6, r2
   15450:	2affffde 	bcs	153d0 <f_mkdir+0x34>
   15454:	e3560001 	cmp	r6, #1
   15458:	9a000006 	bls	15478 <f_mkdir+0xdc>
   1545c:	e5d53000 	ldrb	r3, [r5]
   15460:	e3530002 	cmp	r3, #2
   15464:	0a000157 	beq	159c8 <f_mkdir+0x62c>
   15468:	e3530003 	cmp	r3, #3
   1546c:	0a000137 	beq	15950 <f_mkdir+0x5b4>
   15470:	e3530001 	cmp	r3, #1
   15474:	0a0000ed 	beq	15830 <f_mkdir+0x494>
   15478:	e59d4000 	ldr	r4, [sp]
   1547c:	eaffffd3 	b	153d0 <f_mkdir+0x34>
   15480:	e3530001 	cmp	r3, #1
   15484:	03a04002 	moveq	r4, #2
   15488:	0affffe7 	beq	1542c <f_mkdir+0x90>
   1548c:	e59d3008 	ldr	r3, [sp, #8]
   15490:	e3730001 	cmn	r3, #1
   15494:	1a000001 	bne	154a0 <f_mkdir+0x104>
   15498:	e3a04001 	mov	r4, #1
   1549c:	eaffffe2 	b	1542c <f_mkdir+0x90>
   154a0:	e59d503c 	ldr	r5, [sp, #60]	; 0x3c
   154a4:	e5d53004 	ldrb	r3, [r5, #4]
   154a8:	e3530000 	cmp	r3, #0
   154ac:	1a0000be 	bne	157ac <f_mkdir+0x410>
   154b0:	e5952018 	ldr	r2, [r5, #24]
   154b4:	e59d3008 	ldr	r3, [sp, #8]
   154b8:	e2422002 	sub	r2, r2, #2
   154bc:	e2433002 	sub	r3, r3, #2
   154c0:	e1530002 	cmp	r3, r2
   154c4:	23a07000 	movcs	r7, #0
   154c8:	35d57002 	ldrbcc	r7, [r5, #2]
   154cc:	3595202c 	ldrcc	r2, [r5, #44]	; 0x2c
   154d0:	30272397 	mlacc	r7, r7, r3, r2
   154d4:	e2853034 	add	r3, r5, #52	; 0x34
   154d8:	e1a02003 	mov	r2, r3
   154dc:	e3a01000 	mov	r1, #0
   154e0:	e58d3004 	str	r3, [sp, #4]
   154e4:	e2854f8d 	add	r4, r5, #564	; 0x234
   154e8:	e4821004 	str	r1, [r2], #4
   154ec:	e1520004 	cmp	r2, r4
   154f0:	1afffffc 	bne	154e8 <f_mkdir+0x14c>
   154f4:	e2851058 	add	r1, r5, #88	; 0x58
   154f8:	e2852054 	add	r2, r5, #84	; 0x54
   154fc:	e2850038 	add	r0, r5, #56	; 0x38
   15500:	e1520000 	cmp	r2, r0
   15504:	31530001 	cmpcc	r3, r1
   15508:	e59d0008 	ldr	r0, [sp, #8]
   1550c:	23a01001 	movcs	r1, #1
   15510:	33a01000 	movcc	r1, #0
   15514:	e3120003 	tst	r2, #3
   15518:	13a01000 	movne	r1, #0
   1551c:	e6ffe070 	uxth	lr, r0
   15520:	e3a0c020 	mov	ip, #32
   15524:	e1a0e42e 	lsr	lr, lr, #8
   15528:	e3a0b02e 	mov	fp, #46	; 0x2e
   1552c:	e58de020 	str	lr, [sp, #32]
   15530:	e5c5e04f 	strb	lr, [r5, #79]	; 0x4f
   15534:	e3a0e010 	mov	lr, #16
   15538:	02011001 	andeq	r1, r1, #1
   1553c:	e6ff9076 	uxth	r9, r6
   15540:	e1a00820 	lsr	r0, r0, #16
   15544:	e3510000 	cmp	r1, #0
   15548:	e1a01429 	lsr	r1, r9, #8
   1554c:	e6ef9070 	uxtb	r9, r0
   15550:	e1a00420 	lsr	r0, r0, #8
   15554:	e59fa6cc 	ldr	sl, [pc, #1740]	; 15c28 <f_mkdir+0x88c>
   15558:	e1a08826 	lsr	r8, r6, #16
   1555c:	e58d0028 	str	r0, [sp, #40]	; 0x28
   15560:	e5c50049 	strb	r0, [r5, #73]	; 0x49
   15564:	e5dd0008 	ldrb	r0, [sp, #8]
   15568:	e6ef8078 	uxtb	r8, r8
   1556c:	e58d1014 	str	r1, [sp, #20]
   15570:	e5c5104b 	strb	r1, [r5, #75]	; 0x4b
   15574:	e5c5c03c 	strb	ip, [r5, #60]	; 0x3c
   15578:	e6ef1076 	uxtb	r1, r6
   1557c:	e5c5c03d 	strb	ip, [r5, #61]	; 0x3d
   15580:	e5c5c03e 	strb	ip, [r5, #62]	; 0x3e
   15584:	e1a0cc26 	lsr	ip, r6, #24
   15588:	e585a034 	str	sl, [r5, #52]	; 0x34
   1558c:	e58d8018 	str	r8, [sp, #24]
   15590:	e58d9024 	str	r9, [sp, #36]	; 0x24
   15594:	e585a038 	str	sl, [r5, #56]	; 0x38
   15598:	e5c5804c 	strb	r8, [r5, #76]	; 0x4c
   1559c:	e5c59048 	strb	r9, [r5, #72]	; 0x48
   155a0:	e58d1010 	str	r1, [sp, #16]
   155a4:	e58dc01c 	str	ip, [sp, #28]
   155a8:	e5c5b034 	strb	fp, [r5, #52]	; 0x34
   155ac:	e58d000c 	str	r0, [sp, #12]
   155b0:	e5c5e03f 	strb	lr, [r5, #63]	; 0x3f
   155b4:	e5c5104a 	strb	r1, [r5, #74]	; 0x4a
   155b8:	e5c5c04d 	strb	ip, [r5, #77]	; 0x4d
   155bc:	e5c5004e 	strb	r0, [r5, #78]	; 0x4e
   155c0:	0a000119 	beq	15a2c <f_mkdir+0x690>
   155c4:	e5953034 	ldr	r3, [r5, #52]	; 0x34
   155c8:	e595203c 	ldr	r2, [r5, #60]	; 0x3c
   155cc:	e5853054 	str	r3, [r5, #84]	; 0x54
   155d0:	e5953040 	ldr	r3, [r5, #64]	; 0x40
   155d4:	e585205c 	str	r2, [r5, #92]	; 0x5c
   155d8:	e5853060 	str	r3, [r5, #96]	; 0x60
   155dc:	e5952044 	ldr	r2, [r5, #68]	; 0x44
   155e0:	e5953048 	ldr	r3, [r5, #72]	; 0x48
   155e4:	e5852064 	str	r2, [r5, #100]	; 0x64
   155e8:	e5853068 	str	r3, [r5, #104]	; 0x68
   155ec:	e595204c 	ldr	r2, [r5, #76]	; 0x4c
   155f0:	e5953050 	ldr	r3, [r5, #80]	; 0x50
   155f4:	e585a058 	str	sl, [r5, #88]	; 0x58
   155f8:	e585206c 	str	r2, [r5, #108]	; 0x6c
   155fc:	e5853070 	str	r3, [r5, #112]	; 0x70
   15600:	e3a0302e 	mov	r3, #46	; 0x2e
   15604:	e59d603c 	ldr	r6, [sp, #60]	; 0x3c
   15608:	e5c53055 	strb	r3, [r5, #85]	; 0x55
   1560c:	e5d63000 	ldrb	r3, [r6]
   15610:	e59d2044 	ldr	r2, [sp, #68]	; 0x44
   15614:	e3530003 	cmp	r3, #3
   15618:	0a00005b 	beq	1578c <f_mkdir+0x3f0>
   1561c:	e1a03822 	lsr	r3, r2, #16
   15620:	e6ff1072 	uxth	r1, r2
   15624:	e6ef0073 	uxtb	r0, r3
   15628:	e1a01421 	lsr	r1, r1, #8
   1562c:	e6ef2072 	uxtb	r2, r2
   15630:	e1a03423 	lsr	r3, r3, #8
   15634:	e5c5206e 	strb	r2, [r5, #110]	; 0x6e
   15638:	e5c5106f 	strb	r1, [r5, #111]	; 0x6f
   1563c:	e5c50068 	strb	r0, [r5, #104]	; 0x68
   15640:	e5c53069 	strb	r3, [r5, #105]	; 0x69
   15644:	e5d63002 	ldrb	r3, [r6, #2]
   15648:	e3530000 	cmp	r3, #0
   1564c:	0a000030 	beq	15714 <f_mkdir+0x378>
   15650:	e3a0b001 	mov	fp, #1
   15654:	e3a05000 	mov	r5, #0
   15658:	e243a001 	sub	sl, r3, #1
   1565c:	e6efa07a 	uxtb	sl, sl
   15660:	e08aa00b 	add	sl, sl, fp
   15664:	e08a3007 	add	r3, sl, r7
   15668:	e58d3000 	str	r3, [sp]
   1566c:	e2869034 	add	r9, r6, #52	; 0x34
   15670:	e5867030 	str	r7, [r6, #48]	; 0x30
   15674:	e5c6b004 	strb	fp, [r6, #4]
   15678:	e1a01009 	mov	r1, r9
   1567c:	e5d60001 	ldrb	r0, [r6, #1]
   15680:	e1a02007 	mov	r2, r7
   15684:	e3a03001 	mov	r3, #1
   15688:	eb000a0a 	bl	17eb8 <disk_write>
   1568c:	e3500000 	cmp	r0, #0
   15690:	e2878001 	add	r8, r7, #1
   15694:	1affff7f 	bne	15498 <f_mkdir+0xfc>
   15698:	e5962024 	ldr	r2, [r6, #36]	; 0x24
   1569c:	e5c60004 	strb	r0, [r6, #4]
   156a0:	e1520007 	cmp	r2, r7
   156a4:	8a000011 	bhi	156f0 <f_mkdir+0x354>
   156a8:	e596301c 	ldr	r3, [r6, #28]
   156ac:	e0832002 	add	r2, r3, r2
   156b0:	e1520007 	cmp	r2, r7
   156b4:	9a00000d 	bls	156f0 <f_mkdir+0x354>
   156b8:	e5d6a003 	ldrb	sl, [r6, #3]
   156bc:	e35a0001 	cmp	sl, #1
   156c0:	8a000001 	bhi	156cc <f_mkdir+0x330>
   156c4:	ea000009 	b	156f0 <f_mkdir+0x354>
   156c8:	e596301c 	ldr	r3, [r6, #28]
   156cc:	e0877003 	add	r7, r7, r3
   156d0:	e24aa001 	sub	sl, sl, #1
   156d4:	e1a02007 	mov	r2, r7
   156d8:	e5d60001 	ldrb	r0, [r6, #1]
   156dc:	e1a01009 	mov	r1, r9
   156e0:	e3a03001 	mov	r3, #1
   156e4:	eb0009f3 	bl	17eb8 <disk_write>
   156e8:	e35a0001 	cmp	sl, #1
   156ec:	1afffff5 	bne	156c8 <f_mkdir+0x32c>
   156f0:	e59d3004 	ldr	r3, [sp, #4]
   156f4:	e4835004 	str	r5, [r3], #4
   156f8:	e1540003 	cmp	r4, r3
   156fc:	1afffffc 	bne	156f4 <f_mkdir+0x358>
   15700:	e59d3000 	ldr	r3, [sp]
   15704:	e1580003 	cmp	r8, r3
   15708:	11a07008 	movne	r7, r8
   1570c:	159d603c 	ldrne	r6, [sp, #60]	; 0x3c
   15710:	1affffd5 	bne	1566c <f_mkdir+0x2d0>
   15714:	e28d003c 	add	r0, sp, #60	; 0x3c
   15718:	ebffeab8 	bl	10200 <dir_register>
   1571c:	e2504000 	subs	r4, r0, #0
   15720:	1affff41 	bne	1542c <f_mkdir+0x90>
   15724:	e3a00010 	mov	r0, #16
   15728:	e3a01001 	mov	r1, #1
   1572c:	e59d3050 	ldr	r3, [sp, #80]	; 0x50
   15730:	e59d203c 	ldr	r2, [sp, #60]	; 0x3c
   15734:	e5c3000b 	strb	r0, [r3, #11]
   15738:	e5dd0010 	ldrb	r0, [sp, #16]
   1573c:	e5c30016 	strb	r0, [r3, #22]
   15740:	e5dd0014 	ldrb	r0, [sp, #20]
   15744:	e5c30017 	strb	r0, [r3, #23]
   15748:	e5dd0018 	ldrb	r0, [sp, #24]
   1574c:	e5c30018 	strb	r0, [r3, #24]
   15750:	e5dd001c 	ldrb	r0, [sp, #28]
   15754:	e5c30019 	strb	r0, [r3, #25]
   15758:	e5dd000c 	ldrb	r0, [sp, #12]
   1575c:	e5c3001a 	strb	r0, [r3, #26]
   15760:	e5dd0020 	ldrb	r0, [sp, #32]
   15764:	e5c3001b 	strb	r0, [r3, #27]
   15768:	e5dd0024 	ldrb	r0, [sp, #36]	; 0x24
   1576c:	e5c30014 	strb	r0, [r3, #20]
   15770:	e5dd0028 	ldrb	r0, [sp, #40]	; 0x28
   15774:	e5c30015 	strb	r0, [r3, #21]
   15778:	e1a00002 	mov	r0, r2
   1577c:	e5c21004 	strb	r1, [r2, #4]
   15780:	ebffe18f 	bl	ddc4 <sync_fs>
   15784:	e1a04000 	mov	r4, r0
   15788:	eaffff10 	b	153d0 <f_mkdir+0x34>
   1578c:	e5963028 	ldr	r3, [r6, #40]	; 0x28
   15790:	e1530002 	cmp	r3, r2
   15794:	1affffa0 	bne	1561c <f_mkdir+0x280>
   15798:	e3a03000 	mov	r3, #0
   1579c:	e1a00003 	mov	r0, r3
   157a0:	e1a01003 	mov	r1, r3
   157a4:	e1a02003 	mov	r2, r3
   157a8:	eaffffa1 	b	15634 <f_mkdir+0x298>
   157ac:	e5954030 	ldr	r4, [r5, #48]	; 0x30
   157b0:	e2858034 	add	r8, r5, #52	; 0x34
   157b4:	e1a02004 	mov	r2, r4
   157b8:	e1a01008 	mov	r1, r8
   157bc:	e5d50001 	ldrb	r0, [r5, #1]
   157c0:	e3a03001 	mov	r3, #1
   157c4:	eb0009bb 	bl	17eb8 <disk_write>
   157c8:	e3500000 	cmp	r0, #0
   157cc:	1affff31 	bne	15498 <f_mkdir+0xfc>
   157d0:	e5953024 	ldr	r3, [r5, #36]	; 0x24
   157d4:	e5c50004 	strb	r0, [r5, #4]
   157d8:	e1540003 	cmp	r4, r3
   157dc:	3a000011 	bcc	15828 <f_mkdir+0x48c>
   157e0:	e595201c 	ldr	r2, [r5, #28]
   157e4:	e0823003 	add	r3, r2, r3
   157e8:	e1540003 	cmp	r4, r3
   157ec:	2a00000d 	bcs	15828 <f_mkdir+0x48c>
   157f0:	e5d57003 	ldrb	r7, [r5, #3]
   157f4:	e3570001 	cmp	r7, #1
   157f8:	8a000001 	bhi	15804 <f_mkdir+0x468>
   157fc:	ea000009 	b	15828 <f_mkdir+0x48c>
   15800:	e595201c 	ldr	r2, [r5, #28]
   15804:	e0844002 	add	r4, r4, r2
   15808:	e2477001 	sub	r7, r7, #1
   1580c:	e1a02004 	mov	r2, r4
   15810:	e5d50001 	ldrb	r0, [r5, #1]
   15814:	e1a01008 	mov	r1, r8
   15818:	e3a03001 	mov	r3, #1
   1581c:	eb0009a5 	bl	17eb8 <disk_write>
   15820:	e3570001 	cmp	r7, #1
   15824:	1afffff5 	bne	15800 <f_mkdir+0x464>
   15828:	e59d503c 	ldr	r5, [sp, #60]	; 0x3c
   1582c:	eaffff1f 	b	154b0 <f_mkdir+0x114>
   15830:	e5958024 	ldr	r8, [r5, #36]	; 0x24
   15834:	e08690a6 	add	r9, r6, r6, lsr #1
   15838:	e595b030 	ldr	fp, [r5, #48]	; 0x30
   1583c:	e08874a9 	add	r7, r8, r9, lsr #9
   15840:	e157000b 	cmp	r7, fp
   15844:	0a0000d7 	beq	15ba8 <f_mkdir+0x80c>
   15848:	e5d52004 	ldrb	r2, [r5, #4]
   1584c:	e2858034 	add	r8, r5, #52	; 0x34
   15850:	e3520000 	cmp	r2, #0
   15854:	1a0000b6 	bne	15b34 <f_mkdir+0x798>
   15858:	e1a01008 	mov	r1, r8
   1585c:	e5d50001 	ldrb	r0, [r5, #1]
   15860:	e1a02007 	mov	r2, r7
   15864:	e3a03001 	mov	r3, #1
   15868:	eb000974 	bl	17e40 <disk_read>
   1586c:	e3500000 	cmp	r0, #0
   15870:	1affff00 	bne	15478 <f_mkdir+0xdc>
   15874:	e1a04007 	mov	r4, r7
   15878:	e5958024 	ldr	r8, [r5, #36]	; 0x24
   1587c:	e5857030 	str	r7, [r5, #48]	; 0x30
   15880:	e1a03b89 	lsl	r3, r9, #23
   15884:	e289b001 	add	fp, r9, #1
   15888:	e0853ba3 	add	r3, r5, r3, lsr #23
   1588c:	e08884ab 	add	r8, r8, fp, lsr #9
   15890:	e5d33034 	ldrb	r3, [r3, #52]	; 0x34
   15894:	e1580007 	cmp	r8, r7
   15898:	e58d3004 	str	r3, [sp, #4]
   1589c:	0a00000b 	beq	158d0 <f_mkdir+0x534>
   158a0:	e5d53004 	ldrb	r3, [r5, #4]
   158a4:	e2859034 	add	r9, r5, #52	; 0x34
   158a8:	e3530000 	cmp	r3, #0
   158ac:	1a0000bf 	bne	15bb0 <f_mkdir+0x814>
   158b0:	e1a01009 	mov	r1, r9
   158b4:	e5d50001 	ldrb	r0, [r5, #1]
   158b8:	e1a02008 	mov	r2, r8
   158bc:	e3a03001 	mov	r3, #1
   158c0:	eb00095e 	bl	17e40 <disk_read>
   158c4:	e3500000 	cmp	r0, #0
   158c8:	1afffeea 	bne	15478 <f_mkdir+0xdc>
   158cc:	e5858030 	str	r8, [r5, #48]	; 0x30
   158d0:	e1a03b8b 	lsl	r3, fp, #23
   158d4:	e0853ba3 	add	r3, r5, r3, lsr #23
   158d8:	e5d37034 	ldrb	r7, [r3, #52]	; 0x34
   158dc:	e59d3004 	ldr	r3, [sp, #4]
   158e0:	e3160001 	tst	r6, #1
   158e4:	e1837407 	orr	r7, r3, r7, lsl #8
   158e8:	11a07227 	lsrne	r7, r7, #4
   158ec:	01a07a07 	lsleq	r7, r7, #20
   158f0:	01a07a27 	lsreq	r7, r7, #20
   158f4:	e3570000 	cmp	r7, #0
   158f8:	0afffede 	beq	15478 <f_mkdir+0xdc>
   158fc:	e3570001 	cmp	r7, #1
   15900:	0afffedc 	beq	15478 <f_mkdir+0xdc>
   15904:	e5953018 	ldr	r3, [r5, #24]
   15908:	e1560003 	cmp	r6, r3
   1590c:	2afffed9 	bcs	15478 <f_mkdir+0xdc>
   15910:	e1a01006 	mov	r1, r6
   15914:	e1a00005 	mov	r0, r5
   15918:	e3a02000 	mov	r2, #0
   1591c:	ebffe1b6 	bl	dffc <put_fat.part.6>
   15920:	e3500000 	cmp	r0, #0
   15924:	1afffed3 	bne	15478 <f_mkdir+0xdc>
   15928:	e5953010 	ldr	r3, [r5, #16]
   1592c:	e3730001 	cmn	r3, #1
   15930:	12833001 	addne	r3, r3, #1
   15934:	15853010 	strne	r3, [r5, #16]
   15938:	e5953018 	ldr	r3, [r5, #24]
   1593c:	15c5a005 	strbne	sl, [r5, #5]
   15940:	e1570003 	cmp	r7, r3
   15944:	2afffecb 	bcs	15478 <f_mkdir+0xdc>
   15948:	e1a06007 	mov	r6, r7
   1594c:	eafffec0 	b	15454 <f_mkdir+0xb8>
   15950:	e5958024 	ldr	r8, [r5, #36]	; 0x24
   15954:	e5957030 	ldr	r7, [r5, #48]	; 0x30
   15958:	e08883a6 	add	r8, r8, r6, lsr #7
   1595c:	e1580007 	cmp	r8, r7
   15960:	0a00000b 	beq	15994 <f_mkdir+0x5f8>
   15964:	e5d53004 	ldrb	r3, [r5, #4]
   15968:	e2859034 	add	r9, r5, #52	; 0x34
   1596c:	e3530000 	cmp	r3, #0
   15970:	1a000033 	bne	15a44 <f_mkdir+0x6a8>
   15974:	e1a01009 	mov	r1, r9
   15978:	e5d50001 	ldrb	r0, [r5, #1]
   1597c:	e1a02008 	mov	r2, r8
   15980:	e3a03001 	mov	r3, #1
   15984:	eb00092d 	bl	17e40 <disk_read>
   15988:	e3500000 	cmp	r0, #0
   1598c:	1afffeb9 	bne	15478 <f_mkdir+0xdc>
   15990:	e5858030 	str	r8, [r5, #48]	; 0x30
   15994:	e1a03106 	lsl	r3, r6, #2
   15998:	e2033f7f 	and	r3, r3, #508	; 0x1fc
   1599c:	e0851003 	add	r1, r5, r3
   159a0:	e5d12037 	ldrb	r2, [r1, #55]	; 0x37
   159a4:	e5d10036 	ldrb	r0, [r1, #54]	; 0x36
   159a8:	e1a02c02 	lsl	r2, r2, #24
   159ac:	e5d17035 	ldrb	r7, [r1, #53]	; 0x35
   159b0:	e5d13034 	ldrb	r3, [r1, #52]	; 0x34
   159b4:	e1822800 	orr	r2, r2, r0, lsl #16
   159b8:	e1827407 	orr	r7, r2, r7, lsl #8
   159bc:	e1877003 	orr	r7, r7, r3
   159c0:	e3c7720f 	bic	r7, r7, #-268435456	; 0xf0000000
   159c4:	eaffffca 	b	158f4 <f_mkdir+0x558>
   159c8:	e5958024 	ldr	r8, [r5, #36]	; 0x24
   159cc:	e5957030 	ldr	r7, [r5, #48]	; 0x30
   159d0:	e0888426 	add	r8, r8, r6, lsr #8
   159d4:	e1580007 	cmp	r8, r7
   159d8:	0a00000b 	beq	15a0c <f_mkdir+0x670>
   159dc:	e5d53004 	ldrb	r3, [r5, #4]
   159e0:	e2859034 	add	r9, r5, #52	; 0x34
   159e4:	e3530000 	cmp	r3, #0
   159e8:	1a000033 	bne	15abc <f_mkdir+0x720>
   159ec:	e1a01009 	mov	r1, r9
   159f0:	e5d50001 	ldrb	r0, [r5, #1]
   159f4:	e1a02008 	mov	r2, r8
   159f8:	e3a03001 	mov	r3, #1
   159fc:	eb00090f 	bl	17e40 <disk_read>
   15a00:	e3500000 	cmp	r0, #0
   15a04:	1afffe9b 	bne	15478 <f_mkdir+0xdc>
   15a08:	e5858030 	str	r8, [r5, #48]	; 0x30
   15a0c:	e59f3218 	ldr	r3, [pc, #536]	; 15c2c <f_mkdir+0x890>
   15a10:	e1a02086 	lsl	r2, r6, #1
   15a14:	e0033002 	and	r3, r3, r2
   15a18:	e0851003 	add	r1, r5, r3
   15a1c:	e5d13034 	ldrb	r3, [r1, #52]	; 0x34
   15a20:	e5d17035 	ldrb	r7, [r1, #53]	; 0x35
   15a24:	e1837407 	orr	r7, r3, r7, lsl #8
   15a28:	eaffffb1 	b	158f4 <f_mkdir+0x558>
   15a2c:	e2851053 	add	r1, r5, #83	; 0x53
   15a30:	e4d30001 	ldrb	r0, [r3], #1
   15a34:	e1530002 	cmp	r3, r2
   15a38:	e5e10001 	strb	r0, [r1, #1]!
   15a3c:	1afffffb 	bne	15a30 <f_mkdir+0x694>
   15a40:	eafffeee 	b	15600 <f_mkdir+0x264>
   15a44:	e1a01009 	mov	r1, r9
   15a48:	e5d50001 	ldrb	r0, [r5, #1]
   15a4c:	e1a02007 	mov	r2, r7
   15a50:	e3a03001 	mov	r3, #1
   15a54:	eb000917 	bl	17eb8 <disk_write>
   15a58:	e3500000 	cmp	r0, #0
   15a5c:	1afffe85 	bne	15478 <f_mkdir+0xdc>
   15a60:	e5953024 	ldr	r3, [r5, #36]	; 0x24
   15a64:	e5c50004 	strb	r0, [r5, #4]
   15a68:	e1570003 	cmp	r7, r3
   15a6c:	3affffc0 	bcc	15974 <f_mkdir+0x5d8>
   15a70:	e595201c 	ldr	r2, [r5, #28]
   15a74:	e0823003 	add	r3, r2, r3
   15a78:	e1570003 	cmp	r7, r3
   15a7c:	2affffbc 	bcs	15974 <f_mkdir+0x5d8>
   15a80:	e5d5b003 	ldrb	fp, [r5, #3]
   15a84:	e35b0001 	cmp	fp, #1
   15a88:	8a000001 	bhi	15a94 <f_mkdir+0x6f8>
   15a8c:	eaffffb8 	b	15974 <f_mkdir+0x5d8>
   15a90:	e595201c 	ldr	r2, [r5, #28]
   15a94:	e0877002 	add	r7, r7, r2
   15a98:	e24bb001 	sub	fp, fp, #1
   15a9c:	e1a02007 	mov	r2, r7
   15aa0:	e5d50001 	ldrb	r0, [r5, #1]
   15aa4:	e1a01009 	mov	r1, r9
   15aa8:	e3a03001 	mov	r3, #1
   15aac:	eb000901 	bl	17eb8 <disk_write>
   15ab0:	e35b0001 	cmp	fp, #1
   15ab4:	1afffff5 	bne	15a90 <f_mkdir+0x6f4>
   15ab8:	eaffffad 	b	15974 <f_mkdir+0x5d8>
   15abc:	e1a01009 	mov	r1, r9
   15ac0:	e5d50001 	ldrb	r0, [r5, #1]
   15ac4:	e1a02007 	mov	r2, r7
   15ac8:	e3a03001 	mov	r3, #1
   15acc:	eb0008f9 	bl	17eb8 <disk_write>
   15ad0:	e3500000 	cmp	r0, #0
   15ad4:	1afffe67 	bne	15478 <f_mkdir+0xdc>
   15ad8:	e5953024 	ldr	r3, [r5, #36]	; 0x24
   15adc:	e5c50004 	strb	r0, [r5, #4]
   15ae0:	e1570003 	cmp	r7, r3
   15ae4:	3affffc0 	bcc	159ec <f_mkdir+0x650>
   15ae8:	e595201c 	ldr	r2, [r5, #28]
   15aec:	e0823003 	add	r3, r2, r3
   15af0:	e1570003 	cmp	r7, r3
   15af4:	2affffbc 	bcs	159ec <f_mkdir+0x650>
   15af8:	e5d5b003 	ldrb	fp, [r5, #3]
   15afc:	e35b0001 	cmp	fp, #1
   15b00:	8a000001 	bhi	15b0c <f_mkdir+0x770>
   15b04:	eaffffb8 	b	159ec <f_mkdir+0x650>
   15b08:	e595201c 	ldr	r2, [r5, #28]
   15b0c:	e0877002 	add	r7, r7, r2
   15b10:	e24bb001 	sub	fp, fp, #1
   15b14:	e1a02007 	mov	r2, r7
   15b18:	e5d50001 	ldrb	r0, [r5, #1]
   15b1c:	e1a01009 	mov	r1, r9
   15b20:	e3a03001 	mov	r3, #1
   15b24:	eb0008e3 	bl	17eb8 <disk_write>
   15b28:	e35b0001 	cmp	fp, #1
   15b2c:	1afffff5 	bne	15b08 <f_mkdir+0x76c>
   15b30:	eaffffad 	b	159ec <f_mkdir+0x650>
   15b34:	e1a01008 	mov	r1, r8
   15b38:	e5d50001 	ldrb	r0, [r5, #1]
   15b3c:	e1a0200b 	mov	r2, fp
   15b40:	eb0008dc 	bl	17eb8 <disk_write>
   15b44:	e3500000 	cmp	r0, #0
   15b48:	1afffe4a 	bne	15478 <f_mkdir+0xdc>
   15b4c:	e5953024 	ldr	r3, [r5, #36]	; 0x24
   15b50:	e5c50004 	strb	r0, [r5, #4]
   15b54:	e15b0003 	cmp	fp, r3
   15b58:	3affff3e 	bcc	15858 <f_mkdir+0x4bc>
   15b5c:	e595201c 	ldr	r2, [r5, #28]
   15b60:	e0823003 	add	r3, r2, r3
   15b64:	e15b0003 	cmp	fp, r3
   15b68:	2affff3a 	bcs	15858 <f_mkdir+0x4bc>
   15b6c:	e5d54003 	ldrb	r4, [r5, #3]
   15b70:	e3540001 	cmp	r4, #1
   15b74:	8a000001 	bhi	15b80 <f_mkdir+0x7e4>
   15b78:	eaffff36 	b	15858 <f_mkdir+0x4bc>
   15b7c:	e595201c 	ldr	r2, [r5, #28]
   15b80:	e08bb002 	add	fp, fp, r2
   15b84:	e2444001 	sub	r4, r4, #1
   15b88:	e1a0200b 	mov	r2, fp
   15b8c:	e5d50001 	ldrb	r0, [r5, #1]
   15b90:	e1a01008 	mov	r1, r8
   15b94:	e3a03001 	mov	r3, #1
   15b98:	eb0008c6 	bl	17eb8 <disk_write>
   15b9c:	e3540001 	cmp	r4, #1
   15ba0:	1afffff5 	bne	15b7c <f_mkdir+0x7e0>
   15ba4:	eaffff2b 	b	15858 <f_mkdir+0x4bc>
   15ba8:	e1a04007 	mov	r4, r7
   15bac:	eaffff33 	b	15880 <f_mkdir+0x4e4>
   15bb0:	e1a01009 	mov	r1, r9
   15bb4:	e5d50001 	ldrb	r0, [r5, #1]
   15bb8:	e1a02007 	mov	r2, r7
   15bbc:	e3a03001 	mov	r3, #1
   15bc0:	eb0008bc 	bl	17eb8 <disk_write>
   15bc4:	e3500000 	cmp	r0, #0
   15bc8:	1afffe2a 	bne	15478 <f_mkdir+0xdc>
   15bcc:	e5953024 	ldr	r3, [r5, #36]	; 0x24
   15bd0:	e5c50004 	strb	r0, [r5, #4]
   15bd4:	e1530007 	cmp	r3, r7
   15bd8:	8affff34 	bhi	158b0 <f_mkdir+0x514>
   15bdc:	e595201c 	ldr	r2, [r5, #28]
   15be0:	e0823003 	add	r3, r2, r3
   15be4:	e1530007 	cmp	r3, r7
   15be8:	9affff30 	bls	158b0 <f_mkdir+0x514>
   15bec:	e5d57003 	ldrb	r7, [r5, #3]
   15bf0:	e3570001 	cmp	r7, #1
   15bf4:	9affff2d 	bls	158b0 <f_mkdir+0x514>
   15bf8:	e0844002 	add	r4, r4, r2
   15bfc:	e2477001 	sub	r7, r7, #1
   15c00:	e1a02004 	mov	r2, r4
   15c04:	e5d50001 	ldrb	r0, [r5, #1]
   15c08:	e1a01009 	mov	r1, r9
   15c0c:	e3a03001 	mov	r3, #1
   15c10:	eb0008a8 	bl	17eb8 <disk_write>
   15c14:	e3570001 	cmp	r7, #1
   15c18:	0affff24 	beq	158b0 <f_mkdir+0x514>
   15c1c:	e595201c 	ldr	r2, [r5, #28]
   15c20:	eafffff4 	b	15bf8 <f_mkdir+0x85c>
   15c24:	00021bc4 	andeq	r1, r2, r4, asr #23
   15c28:	20202020 	eorcs	r2, r0, r0, lsr #32
   15c2c:	000001fe 	strdeq	r0, [r0], -lr

00015c30 <f_chmod>:
   15c30:	e92d4ff0 	push	{r4, r5, r6, r7, r8, r9, sl, fp, lr}
   15c34:	e5d03000 	ldrb	r3, [r0]
   15c38:	e24dd044 	sub	sp, sp, #68	; 0x44
   15c3c:	e2433030 	sub	r3, r3, #48	; 0x30
   15c40:	e3530009 	cmp	r3, #9
   15c44:	e1a04000 	mov	r4, r0
   15c48:	e1a06001 	mov	r6, r1
   15c4c:	e1a07002 	mov	r7, r2
   15c50:	9a000011 	bls	15c9c <f_chmod+0x6c>
   15c54:	e59f85cc 	ldr	r8, [pc, #1484]	; 16228 <f_chmod+0x5f8>
   15c58:	e5985000 	ldr	r5, [r8]
   15c5c:	e3550000 	cmp	r5, #0
   15c60:	03a0000c 	moveq	r0, #12
   15c64:	0a00000a 	beq	15c94 <f_chmod+0x64>
   15c68:	e58d501c 	str	r5, [sp, #28]
   15c6c:	e5d53000 	ldrb	r3, [r5]
   15c70:	e3530000 	cmp	r3, #0
   15c74:	0a000010 	beq	15cbc <f_chmod+0x8c>
   15c78:	e5d50001 	ldrb	r0, [r5, #1]
   15c7c:	eb00088f 	bl	17ec0 <disk_status>
   15c80:	e3100001 	tst	r0, #1
   15c84:	1a00000c 	bne	15cbc <f_chmod+0x8c>
   15c88:	e3100004 	tst	r0, #4
   15c8c:	0a00009b 	beq	15f00 <f_chmod+0x2d0>
   15c90:	e3a0000a 	mov	r0, #10
   15c94:	e28dd044 	add	sp, sp, #68	; 0x44
   15c98:	e8bd8ff0 	pop	{r4, r5, r6, r7, r8, r9, sl, fp, pc}
   15c9c:	e5d02001 	ldrb	r2, [r0, #1]
   15ca0:	e352003a 	cmp	r2, #58	; 0x3a
   15ca4:	1affffea 	bne	15c54 <f_chmod+0x24>
   15ca8:	e3530000 	cmp	r3, #0
   15cac:	13a0000b 	movne	r0, #11
   15cb0:	1afffff7 	bne	15c94 <f_chmod+0x64>
   15cb4:	e2844002 	add	r4, r4, #2
   15cb8:	eaffffe5 	b	15c54 <f_chmod+0x24>
   15cbc:	e3a00000 	mov	r0, #0
   15cc0:	e5c50000 	strb	r0, [r5]
   15cc4:	e5c50001 	strb	r0, [r5, #1]
   15cc8:	eb00084b 	bl	17dfc <disk_initialize>
   15ccc:	e3100001 	tst	r0, #1
   15cd0:	13a00003 	movne	r0, #3
   15cd4:	1affffee 	bne	15c94 <f_chmod+0x64>
   15cd8:	e2000004 	and	r0, r0, #4
   15cdc:	e21020ff 	ands	r2, r0, #255	; 0xff
   15ce0:	1affffea 	bne	15c90 <f_chmod+0x60>
   15ce4:	e2859034 	add	r9, r5, #52	; 0x34
   15ce8:	e3a03001 	mov	r3, #1
   15cec:	e1a01009 	mov	r1, r9
   15cf0:	e5d50001 	ldrb	r0, [r5, #1]
   15cf4:	eb000851 	bl	17e40 <disk_read>
   15cf8:	e2503000 	subs	r3, r0, #0
   15cfc:	0a000099 	beq	15f68 <f_chmod+0x338>
   15d00:	e3a00001 	mov	r0, #1
   15d04:	eaffffe2 	b	15c94 <f_chmod+0x64>
   15d08:	e5d52040 	ldrb	r2, [r5, #64]	; 0x40
   15d0c:	e5d5303f 	ldrb	r3, [r5, #63]	; 0x3f
   15d10:	e1833402 	orr	r3, r3, r2, lsl #8
   15d14:	e3530c02 	cmp	r3, #512	; 0x200
   15d18:	1a00009d 	bne	15f94 <f_chmod+0x364>
   15d1c:	e5d5204b 	ldrb	r2, [r5, #75]	; 0x4b
   15d20:	e5d5304a 	ldrb	r3, [r5, #74]	; 0x4a
   15d24:	e1933402 	orrs	r3, r3, r2, lsl #8
   15d28:	1a000007 	bne	15d4c <f_chmod+0x11c>
   15d2c:	e5d5305a 	ldrb	r3, [r5, #90]	; 0x5a
   15d30:	e5d5205b 	ldrb	r2, [r5, #91]	; 0x5b
   15d34:	e1a03803 	lsl	r3, r3, #16
   15d38:	e5d51058 	ldrb	r1, [r5, #88]	; 0x58
   15d3c:	e1832c02 	orr	r2, r3, r2, lsl #24
   15d40:	e5d53059 	ldrb	r3, [r5, #89]	; 0x59
   15d44:	e1822001 	orr	r2, r2, r1
   15d48:	e1823403 	orr	r3, r2, r3, lsl #8
   15d4c:	e5d5e044 	ldrb	lr, [r5, #68]	; 0x44
   15d50:	e585301c 	str	r3, [r5, #28]
   15d54:	e24e2001 	sub	r2, lr, #1
   15d58:	e3520001 	cmp	r2, #1
   15d5c:	e5c5e003 	strb	lr, [r5, #3]
   15d60:	8a00008b 	bhi	15f94 <f_chmod+0x364>
   15d64:	e5d51041 	ldrb	r1, [r5, #65]	; 0x41
   15d68:	e3510000 	cmp	r1, #0
   15d6c:	e5c51002 	strb	r1, [r5, #2]
   15d70:	0a000087 	beq	15f94 <f_chmod+0x364>
   15d74:	e2412001 	sub	r2, r1, #1
   15d78:	e1120001 	tst	r2, r1
   15d7c:	1a000084 	bne	15f94 <f_chmod+0x364>
   15d80:	e5d5c046 	ldrb	ip, [r5, #70]	; 0x46
   15d84:	e5d52045 	ldrb	r2, [r5, #69]	; 0x45
   15d88:	e182c40c 	orr	ip, r2, ip, lsl #8
   15d8c:	e31c000f 	tst	ip, #15
   15d90:	e1c5c0b8 	strh	ip, [r5, #8]
   15d94:	1a00007e 	bne	15f94 <f_chmod+0x364>
   15d98:	e5d50048 	ldrb	r0, [r5, #72]	; 0x48
   15d9c:	e5d52047 	ldrb	r2, [r5, #71]	; 0x47
   15da0:	e1920400 	orrs	r0, r2, r0, lsl #8
   15da4:	1a000007 	bne	15dc8 <f_chmod+0x198>
   15da8:	e5d52056 	ldrb	r2, [r5, #86]	; 0x56
   15dac:	e5d50057 	ldrb	r0, [r5, #87]	; 0x57
   15db0:	e1a02802 	lsl	r2, r2, #16
   15db4:	e5d5b054 	ldrb	fp, [r5, #84]	; 0x54
   15db8:	e1822c00 	orr	r2, r2, r0, lsl #24
   15dbc:	e5d50055 	ldrb	r0, [r5, #85]	; 0x55
   15dc0:	e182200b 	orr	r2, r2, fp
   15dc4:	e1820400 	orr	r0, r2, r0, lsl #8
   15dc8:	e5d5b043 	ldrb	fp, [r5, #67]	; 0x43
   15dcc:	e5d52042 	ldrb	r2, [r5, #66]	; 0x42
   15dd0:	e192b40b 	orrs	fp, r2, fp, lsl #8
   15dd4:	0a00006e 	beq	15f94 <f_chmod+0x364>
   15dd8:	e002039e 	mul	r2, lr, r3
   15ddc:	e1a0e002 	mov	lr, r2
   15de0:	e58d2000 	str	r2, [sp]
   15de4:	e08b222c 	add	r2, fp, ip, lsr #4
   15de8:	e082200e 	add	r2, r2, lr
   15dec:	e1520000 	cmp	r2, r0
   15df0:	8a000067 	bhi	15f94 <f_chmod+0x364>
   15df4:	e0620000 	rsb	r0, r2, r0
   15df8:	e58dc00c 	str	ip, [sp, #12]
   15dfc:	e58d3008 	str	r3, [sp, #8]
   15e00:	e58d2004 	str	r2, [sp, #4]
   15e04:	eb001bdd 	bl	1cd80 <__aeabi_uidiv>
   15e08:	e99d100c 	ldmib	sp, {r2, r3, ip}
   15e0c:	e3500000 	cmp	r0, #0
   15e10:	0a00005f 	beq	15f94 <f_chmod+0x364>
   15e14:	e59f1410 	ldr	r1, [pc, #1040]	; 1622c <f_chmod+0x5fc>
   15e18:	e1500001 	cmp	r0, r1
   15e1c:	9a0000be 	bls	1611c <f_chmod+0x4ec>
   15e20:	e2811a0f 	add	r1, r1, #61440	; 0xf000
   15e24:	e1500001 	cmp	r0, r1
   15e28:	9a0000a4 	bls	160c0 <f_chmod+0x490>
   15e2c:	e2800002 	add	r0, r0, #2
   15e30:	e08ab00b 	add	fp, sl, fp
   15e34:	e082200a 	add	r2, r2, sl
   15e38:	e35c0000 	cmp	ip, #0
   15e3c:	e5850018 	str	r0, [r5, #24]
   15e40:	e585b024 	str	fp, [r5, #36]	; 0x24
   15e44:	e585202c 	str	r2, [r5, #44]	; 0x2c
   15e48:	e585a020 	str	sl, [r5, #32]
   15e4c:	1a000050 	bne	15f94 <f_chmod+0x364>
   15e50:	e5d51062 	ldrb	r1, [r5, #98]	; 0x62
   15e54:	e5d5e063 	ldrb	lr, [r5, #99]	; 0x63
   15e58:	e1a01801 	lsl	r1, r1, #16
   15e5c:	e5d52060 	ldrb	r2, [r5, #96]	; 0x60
   15e60:	e1811c0e 	orr	r1, r1, lr, lsl #24
   15e64:	e1a00100 	lsl	r0, r0, #2
   15e68:	e5d5e061 	ldrb	lr, [r5, #97]	; 0x61
   15e6c:	e2800f7f 	add	r0, r0, #508	; 0x1fc
   15e70:	e1812002 	orr	r2, r1, r2
   15e74:	e15304a0 	cmp	r3, r0, lsr #9
   15e78:	e182340e 	orr	r3, r2, lr, lsl #8
   15e7c:	e5853028 	str	r3, [r5, #40]	; 0x28
   15e80:	3a000043 	bcc	15f94 <f_chmod+0x364>
   15e84:	e3e00000 	mvn	r0, #0
   15e88:	e5d53064 	ldrb	r3, [r5, #100]	; 0x64
   15e8c:	e5d52065 	ldrb	r2, [r5, #101]	; 0x65
   15e90:	e5850010 	str	r0, [r5, #16]
   15e94:	e1832402 	orr	r2, r3, r2, lsl #8
   15e98:	e08a2002 	add	r2, sl, r2
   15e9c:	e585c00c 	str	ip, [r5, #12]
   15ea0:	e5c5c005 	strb	ip, [r5, #5]
   15ea4:	e1a01009 	mov	r1, r9
   15ea8:	e5852014 	str	r2, [r5, #20]
   15eac:	e5d50001 	ldrb	r0, [r5, #1]
   15eb0:	e3a03001 	mov	r3, #1
   15eb4:	eb0007e1 	bl	17e40 <disk_read>
   15eb8:	e3500000 	cmp	r0, #0
   15ebc:	1a000005 	bne	15ed8 <f_chmod+0x2a8>
   15ec0:	e5d51233 	ldrb	r1, [r5, #563]	; 0x233
   15ec4:	e5d53232 	ldrb	r3, [r5, #562]	; 0x232
   15ec8:	e59f2360 	ldr	r2, [pc, #864]	; 16230 <f_chmod+0x600>
   15ecc:	e1833401 	orr	r3, r3, r1, lsl #8
   15ed0:	e1530002 	cmp	r3, r2
   15ed4:	0a0000a9 	beq	16180 <f_chmod+0x550>
   15ed8:	e3a03003 	mov	r3, #3
   15edc:	e3a01000 	mov	r1, #0
   15ee0:	e1d820b4 	ldrh	r2, [r8, #4]
   15ee4:	e5c53000 	strb	r3, [r5]
   15ee8:	e2823001 	add	r3, r2, #1
   15eec:	e6ff3073 	uxth	r3, r3
   15ef0:	e1c830b4 	strh	r3, [r8, #4]
   15ef4:	e1c530b6 	strh	r3, [r5, #6]
   15ef8:	e5851030 	str	r1, [r5, #48]	; 0x30
   15efc:	e5c51004 	strb	r1, [r5, #4]
   15f00:	e59f332c 	ldr	r3, [pc, #812]	; 16234 <f_chmod+0x604>
   15f04:	e1a01004 	mov	r1, r4
   15f08:	e58d3038 	str	r3, [sp, #56]	; 0x38
   15f0c:	e28d001c 	add	r0, sp, #28
   15f10:	e28d3010 	add	r3, sp, #16
   15f14:	e58d3034 	str	r3, [sp, #52]	; 0x34
   15f18:	ebffec38 	bl	11000 <follow_path>
   15f1c:	e3500000 	cmp	r0, #0
   15f20:	1affff5b 	bne	15c94 <f_chmod+0x64>
   15f24:	e59d3030 	ldr	r3, [sp, #48]	; 0x30
   15f28:	e3530000 	cmp	r3, #0
   15f2c:	03a00006 	moveq	r0, #6
   15f30:	0affff57 	beq	15c94 <f_chmod+0x64>
   15f34:	e3a01001 	mov	r1, #1
   15f38:	e5d3200b 	ldrb	r2, [r3, #11]
   15f3c:	e2077027 	and	r7, r7, #39	; 0x27
   15f40:	e0066007 	and	r6, r6, r7
   15f44:	e1c27007 	bic	r7, r2, r7
   15f48:	e59d201c 	ldr	r2, [sp, #28]
   15f4c:	e1876006 	orr	r6, r7, r6
   15f50:	e5c3600b 	strb	r6, [r3, #11]
   15f54:	e1a00002 	mov	r0, r2
   15f58:	e5c21004 	strb	r1, [r2, #4]
   15f5c:	ebffdf98 	bl	ddc4 <sync_fs>
   15f60:	e28dd044 	add	sp, sp, #68	; 0x44
   15f64:	e8bd8ff0 	pop	{r4, r5, r6, r7, r8, r9, sl, fp, pc}
   15f68:	e5d5b233 	ldrb	fp, [r5, #563]	; 0x233
   15f6c:	e5d52232 	ldrb	r2, [r5, #562]	; 0x232
   15f70:	e59f12c0 	ldr	r1, [pc, #704]	; 16238 <f_chmod+0x608>
   15f74:	e182b40b 	orr	fp, r2, fp, lsl #8
   15f78:	e6bfb07b 	sxth	fp, fp
   15f7c:	e15b0001 	cmp	fp, r1
   15f80:	13a03002 	movne	r3, #2
   15f84:	0a000004 	beq	15f9c <f_chmod+0x36c>
   15f88:	e3a0a000 	mov	sl, #0
   15f8c:	e3530000 	cmp	r3, #0
   15f90:	0affff5c 	beq	15d08 <f_chmod+0xd8>
   15f94:	e3a0000d 	mov	r0, #13
   15f98:	eaffff3d 	b	15c94 <f_chmod+0x64>
   15f9c:	e5d5206c 	ldrb	r2, [r5, #108]	; 0x6c
   15fa0:	e5d5006d 	ldrb	r0, [r5, #109]	; 0x6d
   15fa4:	e1a02802 	lsl	r2, r2, #16
   15fa8:	e5d5106a 	ldrb	r1, [r5, #106]	; 0x6a
   15fac:	e1822c00 	orr	r2, r2, r0, lsl #24
   15fb0:	e5d5006b 	ldrb	r0, [r5, #107]	; 0x6b
   15fb4:	e1822001 	orr	r2, r2, r1
   15fb8:	e1822400 	orr	r2, r2, r0, lsl #8
   15fbc:	e59fc278 	ldr	ip, [pc, #632]	; 1623c <f_chmod+0x60c>
   15fc0:	e3c224ff 	bic	r2, r2, #-16777216	; 0xff000000
   15fc4:	e152000c 	cmp	r2, ip
   15fc8:	0affffee 	beq	15f88 <f_chmod+0x358>
   15fcc:	e5d52088 	ldrb	r2, [r5, #136]	; 0x88
   15fd0:	e5d50089 	ldrb	r0, [r5, #137]	; 0x89
   15fd4:	e1a02802 	lsl	r2, r2, #16
   15fd8:	e5d51086 	ldrb	r1, [r5, #134]	; 0x86
   15fdc:	e1822c00 	orr	r2, r2, r0, lsl #24
   15fe0:	e5d50087 	ldrb	r0, [r5, #135]	; 0x87
   15fe4:	e1822001 	orr	r2, r2, r1
   15fe8:	e1822400 	orr	r2, r2, r0, lsl #8
   15fec:	e3c224ff 	bic	r2, r2, #-16777216	; 0xff000000
   15ff0:	e152000c 	cmp	r2, ip
   15ff4:	0affffe3 	beq	15f88 <f_chmod+0x358>
   15ff8:	e5d531f6 	ldrb	r3, [r5, #502]	; 0x1f6
   15ffc:	e3530000 	cmp	r3, #0
   16000:	0affffe3 	beq	15f94 <f_chmod+0x364>
   16004:	e5d531fc 	ldrb	r3, [r5, #508]	; 0x1fc
   16008:	e5d511fd 	ldrb	r1, [r5, #509]	; 0x1fd
   1600c:	e5d521fa 	ldrb	r2, [r5, #506]	; 0x1fa
   16010:	e1a03803 	lsl	r3, r3, #16
   16014:	e1833c01 	orr	r3, r3, r1, lsl #24
   16018:	e5d5a1fb 	ldrb	sl, [r5, #507]	; 0x1fb
   1601c:	e1833002 	orr	r3, r3, r2
   16020:	e183a40a 	orr	sl, r3, sl, lsl #8
   16024:	e1a0200a 	mov	r2, sl
   16028:	e5d50001 	ldrb	r0, [r5, #1]
   1602c:	e1a01009 	mov	r1, r9
   16030:	e3a03001 	mov	r3, #1
   16034:	e58dc000 	str	ip, [sp]
   16038:	eb000780 	bl	17e40 <disk_read>
   1603c:	e3500000 	cmp	r0, #0
   16040:	e59dc000 	ldr	ip, [sp]
   16044:	1affff2d 	bne	15d00 <f_chmod+0xd0>
   16048:	e5d52233 	ldrb	r2, [r5, #563]	; 0x233
   1604c:	e5d53232 	ldrb	r3, [r5, #562]	; 0x232
   16050:	e1833402 	orr	r3, r3, r2, lsl #8
   16054:	e6bf3073 	sxth	r3, r3
   16058:	e153000b 	cmp	r3, fp
   1605c:	1affffcc 	bne	15f94 <f_chmod+0x364>
   16060:	e5d5306c 	ldrb	r3, [r5, #108]	; 0x6c
   16064:	e5d5106d 	ldrb	r1, [r5, #109]	; 0x6d
   16068:	e1a03803 	lsl	r3, r3, #16
   1606c:	e5d5206a 	ldrb	r2, [r5, #106]	; 0x6a
   16070:	e1833c01 	orr	r3, r3, r1, lsl #24
   16074:	e5d5106b 	ldrb	r1, [r5, #107]	; 0x6b
   16078:	e1833002 	orr	r3, r3, r2
   1607c:	e1833401 	orr	r3, r3, r1, lsl #8
   16080:	e3c334ff 	bic	r3, r3, #-16777216	; 0xff000000
   16084:	e153000c 	cmp	r3, ip
   16088:	0affff1e 	beq	15d08 <f_chmod+0xd8>
   1608c:	e5d53088 	ldrb	r3, [r5, #136]	; 0x88
   16090:	e5d51089 	ldrb	r1, [r5, #137]	; 0x89
   16094:	e5d52086 	ldrb	r2, [r5, #134]	; 0x86
   16098:	e1a03803 	lsl	r3, r3, #16
   1609c:	e1833c01 	orr	r3, r3, r1, lsl #24
   160a0:	e5d51087 	ldrb	r1, [r5, #135]	; 0x87
   160a4:	e1833002 	orr	r3, r3, r2
   160a8:	e1833401 	orr	r3, r3, r1, lsl #8
   160ac:	e59f2188 	ldr	r2, [pc, #392]	; 1623c <f_chmod+0x60c>
   160b0:	e3c334ff 	bic	r3, r3, #-16777216	; 0xff000000
   160b4:	e0533002 	subs	r3, r3, r2
   160b8:	13a03001 	movne	r3, #1
   160bc:	eaffffb2 	b	15f8c <f_chmod+0x35c>
   160c0:	e2800002 	add	r0, r0, #2
   160c4:	e08ab00b 	add	fp, sl, fp
   160c8:	e082200a 	add	r2, r2, sl
   160cc:	e35c0000 	cmp	ip, #0
   160d0:	e5850018 	str	r0, [r5, #24]
   160d4:	e585b024 	str	fp, [r5, #36]	; 0x24
   160d8:	e585202c 	str	r2, [r5, #44]	; 0x2c
   160dc:	e585a020 	str	sl, [r5, #32]
   160e0:	0affffab 	beq	15f94 <f_chmod+0x364>
   160e4:	e1a02080 	lsl	r2, r0, #1
   160e8:	e2822f7f 	add	r2, r2, #508	; 0x1fc
   160ec:	e2822003 	add	r2, r2, #3
   160f0:	e15304a2 	cmp	r3, r2, lsr #9
   160f4:	e59d3000 	ldr	r3, [sp]
   160f8:	e083b00b 	add	fp, r3, fp
   160fc:	e585b028 	str	fp, [r5, #40]	; 0x28
   16100:	3affffa3 	bcc	15f94 <f_chmod+0x364>
   16104:	e3a03000 	mov	r3, #0
   16108:	e3e02000 	mvn	r2, #0
   1610c:	e585300c 	str	r3, [r5, #12]
   16110:	e5852010 	str	r2, [r5, #16]
   16114:	e3a03002 	mov	r3, #2
   16118:	eaffff6f 	b	15edc <f_chmod+0x2ac>
   1611c:	e2800002 	add	r0, r0, #2
   16120:	e08ab00b 	add	fp, sl, fp
   16124:	e082200a 	add	r2, r2, sl
   16128:	e35c0000 	cmp	ip, #0
   1612c:	e5850018 	str	r0, [r5, #24]
   16130:	e585b024 	str	fp, [r5, #36]	; 0x24
   16134:	e585202c 	str	r2, [r5, #44]	; 0x2c
   16138:	e585a020 	str	sl, [r5, #32]
   1613c:	0affff94 	beq	15f94 <f_chmod+0x364>
   16140:	e2002001 	and	r2, r0, #1
   16144:	e2822f7f 	add	r2, r2, #508	; 0x1fc
   16148:	e2822003 	add	r2, r2, #3
   1614c:	e0800080 	add	r0, r0, r0, lsl #1
   16150:	e08200a0 	add	r0, r2, r0, lsr #1
   16154:	e59d2000 	ldr	r2, [sp]
   16158:	e15304a0 	cmp	r3, r0, lsr #9
   1615c:	e082b00b 	add	fp, r2, fp
   16160:	e585b028 	str	fp, [r5, #40]	; 0x28
   16164:	3affff8a 	bcc	15f94 <f_chmod+0x364>
   16168:	e3a03000 	mov	r3, #0
   1616c:	e3e02000 	mvn	r2, #0
   16170:	e585300c 	str	r3, [r5, #12]
   16174:	e5852010 	str	r2, [r5, #16]
   16178:	e3a03001 	mov	r3, #1
   1617c:	eaffff56 	b	15edc <f_chmod+0x2ac>
   16180:	e5d53036 	ldrb	r3, [r5, #54]	; 0x36
   16184:	e5d51037 	ldrb	r1, [r5, #55]	; 0x37
   16188:	e5d52034 	ldrb	r2, [r5, #52]	; 0x34
   1618c:	e1a03803 	lsl	r3, r3, #16
   16190:	e1833c01 	orr	r3, r3, r1, lsl #24
   16194:	e5d51035 	ldrb	r1, [r5, #53]	; 0x35
   16198:	e1833002 	orr	r3, r3, r2
   1619c:	e59f209c 	ldr	r2, [pc, #156]	; 16240 <f_chmod+0x610>
   161a0:	e1833401 	orr	r3, r3, r1, lsl #8
   161a4:	e1530002 	cmp	r3, r2
   161a8:	1affff4a 	bne	15ed8 <f_chmod+0x2a8>
   161ac:	e5d5321a 	ldrb	r3, [r5, #538]	; 0x21a
   161b0:	e5d5121b 	ldrb	r1, [r5, #539]	; 0x21b
   161b4:	e5d52218 	ldrb	r2, [r5, #536]	; 0x218
   161b8:	e1a03803 	lsl	r3, r3, #16
   161bc:	e1833c01 	orr	r3, r3, r1, lsl #24
   161c0:	e5d51219 	ldrb	r1, [r5, #537]	; 0x219
   161c4:	e1833002 	orr	r3, r3, r2
   161c8:	e59f2074 	ldr	r2, [pc, #116]	; 16244 <f_chmod+0x614>
   161cc:	e1833401 	orr	r3, r3, r1, lsl #8
   161d0:	e1530002 	cmp	r3, r2
   161d4:	1affff3f 	bne	15ed8 <f_chmod+0x2a8>
   161d8:	e5d50222 	ldrb	r0, [r5, #546]	; 0x222
   161dc:	e5d5321e 	ldrb	r3, [r5, #542]	; 0x21e
   161e0:	e5d5e223 	ldrb	lr, [r5, #547]	; 0x223
   161e4:	e5d5c21f 	ldrb	ip, [r5, #543]	; 0x21f
   161e8:	e5d5221c 	ldrb	r2, [r5, #540]	; 0x21c
   161ec:	e1a00800 	lsl	r0, r0, #16
   161f0:	e5d51220 	ldrb	r1, [r5, #544]	; 0x220
   161f4:	e1a03803 	lsl	r3, r3, #16
   161f8:	e1800c0e 	orr	r0, r0, lr, lsl #24
   161fc:	e1833c0c 	orr	r3, r3, ip, lsl #24
   16200:	e5d5e221 	ldrb	lr, [r5, #545]	; 0x221
   16204:	e5d5c21d 	ldrb	ip, [r5, #541]	; 0x21d
   16208:	e1833002 	orr	r3, r3, r2
   1620c:	e1801001 	orr	r1, r0, r1
   16210:	e183340c 	orr	r3, r3, ip, lsl #8
   16214:	e181240e 	orr	r2, r1, lr, lsl #8
   16218:	e5853010 	str	r3, [r5, #16]
   1621c:	e585200c 	str	r2, [r5, #12]
   16220:	e3a03003 	mov	r3, #3
   16224:	eaffff2c 	b	15edc <f_chmod+0x2ac>
   16228:	00021bbc 			; <UNDEFINED> instruction: 0x00021bbc
   1622c:	00000ff5 	strdeq	r0, [r0], -r5
   16230:	0000aa55 	andeq	sl, r0, r5, asr sl
   16234:	00021bc4 	andeq	r1, r2, r4, asr #23
   16238:	ffffaa55 			; <UNDEFINED> instruction: 0xffffaa55
   1623c:	00544146 	subseq	r4, r4, r6, asr #2
   16240:	41615252 	cmnmi	r1, r2, asr r2
   16244:	61417272 	hvcvs	5922	; 0x1722

00016248 <f_utime>:
   16248:	e92d4ff0 	push	{r4, r5, r6, r7, r8, r9, sl, fp, lr}
   1624c:	e5d03000 	ldrb	r3, [r0]
   16250:	e24dd044 	sub	sp, sp, #68	; 0x44
   16254:	e2433030 	sub	r3, r3, #48	; 0x30
   16258:	e3530009 	cmp	r3, #9
   1625c:	e1a04000 	mov	r4, r0
   16260:	e1a06001 	mov	r6, r1
   16264:	9a000011 	bls	162b0 <f_utime+0x68>
   16268:	e59f75cc 	ldr	r7, [pc, #1484]	; 1683c <f_utime+0x5f4>
   1626c:	e5975000 	ldr	r5, [r7]
   16270:	e3550000 	cmp	r5, #0
   16274:	03a0000c 	moveq	r0, #12
   16278:	0a00000a 	beq	162a8 <f_utime+0x60>
   1627c:	e58d501c 	str	r5, [sp, #28]
   16280:	e5d53000 	ldrb	r3, [r5]
   16284:	e3530000 	cmp	r3, #0
   16288:	0a000010 	beq	162d0 <f_utime+0x88>
   1628c:	e5d50001 	ldrb	r0, [r5, #1]
   16290:	eb00070a 	bl	17ec0 <disk_status>
   16294:	e3100001 	tst	r0, #1
   16298:	1a00000c 	bne	162d0 <f_utime+0x88>
   1629c:	e3100004 	tst	r0, #4
   162a0:	0a00009b 	beq	16514 <f_utime+0x2cc>
   162a4:	e3a0000a 	mov	r0, #10
   162a8:	e28dd044 	add	sp, sp, #68	; 0x44
   162ac:	e8bd8ff0 	pop	{r4, r5, r6, r7, r8, r9, sl, fp, pc}
   162b0:	e5d02001 	ldrb	r2, [r0, #1]
   162b4:	e352003a 	cmp	r2, #58	; 0x3a
   162b8:	1affffea 	bne	16268 <f_utime+0x20>
   162bc:	e3530000 	cmp	r3, #0
   162c0:	13a0000b 	movne	r0, #11
   162c4:	1afffff7 	bne	162a8 <f_utime+0x60>
   162c8:	e2844002 	add	r4, r4, #2
   162cc:	eaffffe5 	b	16268 <f_utime+0x20>
   162d0:	e3a00000 	mov	r0, #0
   162d4:	e5c50000 	strb	r0, [r5]
   162d8:	e5c50001 	strb	r0, [r5, #1]
   162dc:	eb0006c6 	bl	17dfc <disk_initialize>
   162e0:	e3100001 	tst	r0, #1
   162e4:	13a00003 	movne	r0, #3
   162e8:	1affffee 	bne	162a8 <f_utime+0x60>
   162ec:	e2000004 	and	r0, r0, #4
   162f0:	e21020ff 	ands	r2, r0, #255	; 0xff
   162f4:	1affffea 	bne	162a4 <f_utime+0x5c>
   162f8:	e2858034 	add	r8, r5, #52	; 0x34
   162fc:	e3a03001 	mov	r3, #1
   16300:	e1a01008 	mov	r1, r8
   16304:	e5d50001 	ldrb	r0, [r5, #1]
   16308:	eb0006cc 	bl	17e40 <disk_read>
   1630c:	e2503000 	subs	r3, r0, #0
   16310:	0a00009d 	beq	1658c <f_utime+0x344>
   16314:	e3a00001 	mov	r0, #1
   16318:	eaffffe2 	b	162a8 <f_utime+0x60>
   1631c:	e5d52040 	ldrb	r2, [r5, #64]	; 0x40
   16320:	e5d5303f 	ldrb	r3, [r5, #63]	; 0x3f
   16324:	e1833402 	orr	r3, r3, r2, lsl #8
   16328:	e3530c02 	cmp	r3, #512	; 0x200
   1632c:	1a0000a1 	bne	165b8 <f_utime+0x370>
   16330:	e5d5b04b 	ldrb	fp, [r5, #75]	; 0x4b
   16334:	e5d5304a 	ldrb	r3, [r5, #74]	; 0x4a
   16338:	e193340b 	orrs	r3, r3, fp, lsl #8
   1633c:	11a0b003 	movne	fp, r3
   16340:	05d5305a 	ldrbeq	r3, [r5, #90]	; 0x5a
   16344:	05d5105b 	ldrbeq	r1, [r5, #91]	; 0x5b
   16348:	01a03803 	lsleq	r3, r3, #16
   1634c:	05d52058 	ldrbeq	r2, [r5, #88]	; 0x58
   16350:	01833c01 	orreq	r3, r3, r1, lsl #24
   16354:	01833002 	orreq	r3, r3, r2
   16358:	05d5b059 	ldrbeq	fp, [r5, #89]	; 0x59
   1635c:	e5d52044 	ldrb	r2, [r5, #68]	; 0x44
   16360:	0183b40b 	orreq	fp, r3, fp, lsl #8
   16364:	e2423001 	sub	r3, r2, #1
   16368:	e3530001 	cmp	r3, #1
   1636c:	e585b01c 	str	fp, [r5, #28]
   16370:	e5c52003 	strb	r2, [r5, #3]
   16374:	8a00008f 	bhi	165b8 <f_utime+0x370>
   16378:	e5d51041 	ldrb	r1, [r5, #65]	; 0x41
   1637c:	e3510000 	cmp	r1, #0
   16380:	e5c51002 	strb	r1, [r5, #2]
   16384:	0a00008b 	beq	165b8 <f_utime+0x370>
   16388:	e2413001 	sub	r3, r1, #1
   1638c:	e1130001 	tst	r3, r1
   16390:	1a000088 	bne	165b8 <f_utime+0x370>
   16394:	e5d5c046 	ldrb	ip, [r5, #70]	; 0x46
   16398:	e5d53045 	ldrb	r3, [r5, #69]	; 0x45
   1639c:	e183c40c 	orr	ip, r3, ip, lsl #8
   163a0:	e31c000f 	tst	ip, #15
   163a4:	e1c5c0b8 	strh	ip, [r5, #8]
   163a8:	1a000082 	bne	165b8 <f_utime+0x370>
   163ac:	e5d50048 	ldrb	r0, [r5, #72]	; 0x48
   163b0:	e5d53047 	ldrb	r3, [r5, #71]	; 0x47
   163b4:	e1930400 	orrs	r0, r3, r0, lsl #8
   163b8:	1a000007 	bne	163dc <f_utime+0x194>
   163bc:	e5d53056 	ldrb	r3, [r5, #86]	; 0x56
   163c0:	e5d5e057 	ldrb	lr, [r5, #87]	; 0x57
   163c4:	e5d50054 	ldrb	r0, [r5, #84]	; 0x54
   163c8:	e1a03803 	lsl	r3, r3, #16
   163cc:	e1833c0e 	orr	r3, r3, lr, lsl #24
   163d0:	e5d5e055 	ldrb	lr, [r5, #85]	; 0x55
   163d4:	e1833000 	orr	r3, r3, r0
   163d8:	e183040e 	orr	r0, r3, lr, lsl #8
   163dc:	e5d5a043 	ldrb	sl, [r5, #67]	; 0x43
   163e0:	e5d53042 	ldrb	r3, [r5, #66]	; 0x42
   163e4:	e193a40a 	orrs	sl, r3, sl, lsl #8
   163e8:	0a000072 	beq	165b8 <f_utime+0x370>
   163ec:	e0020b92 	mul	r2, r2, fp
   163f0:	e08a322c 	add	r3, sl, ip, lsr #4
   163f4:	e0833002 	add	r3, r3, r2
   163f8:	e1530000 	cmp	r3, r0
   163fc:	8a00006d 	bhi	165b8 <f_utime+0x370>
   16400:	e0630000 	rsb	r0, r3, r0
   16404:	e58dc00c 	str	ip, [sp, #12]
   16408:	e58d2008 	str	r2, [sp, #8]
   1640c:	e58d3004 	str	r3, [sp, #4]
   16410:	eb001a5a 	bl	1cd80 <__aeabi_uidiv>
   16414:	e3500000 	cmp	r0, #0
   16418:	e59d3004 	ldr	r3, [sp, #4]
   1641c:	e59d2008 	ldr	r2, [sp, #8]
   16420:	e59dc00c 	ldr	ip, [sp, #12]
   16424:	0a000063 	beq	165b8 <f_utime+0x370>
   16428:	e59f1410 	ldr	r1, [pc, #1040]	; 16840 <f_utime+0x5f8>
   1642c:	e1500001 	cmp	r0, r1
   16430:	9a0000bf 	bls	16734 <f_utime+0x4ec>
   16434:	e2811a0f 	add	r1, r1, #61440	; 0xf000
   16438:	e1500001 	cmp	r0, r1
   1643c:	9a0000a6 	bls	166dc <f_utime+0x494>
   16440:	e2800002 	add	r0, r0, #2
   16444:	e089a00a 	add	sl, r9, sl
   16448:	e0833009 	add	r3, r3, r9
   1644c:	e35c0000 	cmp	ip, #0
   16450:	e5850018 	str	r0, [r5, #24]
   16454:	e585a024 	str	sl, [r5, #36]	; 0x24
   16458:	e585302c 	str	r3, [r5, #44]	; 0x2c
   1645c:	e5859020 	str	r9, [r5, #32]
   16460:	1a000054 	bne	165b8 <f_utime+0x370>
   16464:	e5d53062 	ldrb	r3, [r5, #98]	; 0x62
   16468:	e5d51063 	ldrb	r1, [r5, #99]	; 0x63
   1646c:	e1a03803 	lsl	r3, r3, #16
   16470:	e5d52060 	ldrb	r2, [r5, #96]	; 0x60
   16474:	e1833c01 	orr	r3, r3, r1, lsl #24
   16478:	e1a00100 	lsl	r0, r0, #2
   1647c:	e5d5e061 	ldrb	lr, [r5, #97]	; 0x61
   16480:	e2801f7f 	add	r1, r0, #508	; 0x1fc
   16484:	e1833002 	orr	r3, r3, r2
   16488:	e183340e 	orr	r3, r3, lr, lsl #8
   1648c:	e15b04a1 	cmp	fp, r1, lsr #9
   16490:	e5853028 	str	r3, [r5, #40]	; 0x28
   16494:	3a000047 	bcc	165b8 <f_utime+0x370>
   16498:	e3e00000 	mvn	r0, #0
   1649c:	e5d53064 	ldrb	r3, [r5, #100]	; 0x64
   164a0:	e5d52065 	ldrb	r2, [r5, #101]	; 0x65
   164a4:	e5850010 	str	r0, [r5, #16]
   164a8:	e1832402 	orr	r2, r3, r2, lsl #8
   164ac:	e0892002 	add	r2, r9, r2
   164b0:	e585c00c 	str	ip, [r5, #12]
   164b4:	e5c5c005 	strb	ip, [r5, #5]
   164b8:	e1a01008 	mov	r1, r8
   164bc:	e5852014 	str	r2, [r5, #20]
   164c0:	e5d50001 	ldrb	r0, [r5, #1]
   164c4:	e3a03001 	mov	r3, #1
   164c8:	eb00065c 	bl	17e40 <disk_read>
   164cc:	e3500000 	cmp	r0, #0
   164d0:	1a000005 	bne	164ec <f_utime+0x2a4>
   164d4:	e5d51233 	ldrb	r1, [r5, #563]	; 0x233
   164d8:	e5d53232 	ldrb	r3, [r5, #562]	; 0x232
   164dc:	e59f2360 	ldr	r2, [pc, #864]	; 16844 <f_utime+0x5fc>
   164e0:	e1833401 	orr	r3, r3, r1, lsl #8
   164e4:	e1530002 	cmp	r3, r2
   164e8:	0a0000a9 	beq	16794 <f_utime+0x54c>
   164ec:	e3a03003 	mov	r3, #3
   164f0:	e3a01000 	mov	r1, #0
   164f4:	e1d720b4 	ldrh	r2, [r7, #4]
   164f8:	e5c53000 	strb	r3, [r5]
   164fc:	e2823001 	add	r3, r2, #1
   16500:	e6ff3073 	uxth	r3, r3
   16504:	e1c730b4 	strh	r3, [r7, #4]
   16508:	e1c530b6 	strh	r3, [r5, #6]
   1650c:	e5851030 	str	r1, [r5, #48]	; 0x30
   16510:	e5c51004 	strb	r1, [r5, #4]
   16514:	e59f332c 	ldr	r3, [pc, #812]	; 16848 <f_utime+0x600>
   16518:	e1a01004 	mov	r1, r4
   1651c:	e58d3038 	str	r3, [sp, #56]	; 0x38
   16520:	e28d001c 	add	r0, sp, #28
   16524:	e28d3010 	add	r3, sp, #16
   16528:	e58d3034 	str	r3, [sp, #52]	; 0x34
   1652c:	ebffeab3 	bl	11000 <follow_path>
   16530:	e3500000 	cmp	r0, #0
   16534:	1affff5b 	bne	162a8 <f_utime+0x60>
   16538:	e59d3030 	ldr	r3, [sp, #48]	; 0x30
   1653c:	e3530000 	cmp	r3, #0
   16540:	03a00006 	moveq	r0, #6
   16544:	0affff57 	beq	162a8 <f_utime+0x60>
   16548:	e3a0c001 	mov	ip, #1
   1654c:	e1d620b6 	ldrh	r2, [r6, #6]
   16550:	e59d101c 	ldr	r1, [sp, #28]
   16554:	e5c32016 	strb	r2, [r3, #22]
   16558:	e1d620b6 	ldrh	r2, [r6, #6]
   1655c:	e1a00001 	mov	r0, r1
   16560:	e1a02422 	lsr	r2, r2, #8
   16564:	e5c32017 	strb	r2, [r3, #23]
   16568:	e1d620b4 	ldrh	r2, [r6, #4]
   1656c:	e5c32018 	strb	r2, [r3, #24]
   16570:	e1d620b4 	ldrh	r2, [r6, #4]
   16574:	e1a02422 	lsr	r2, r2, #8
   16578:	e5c32019 	strb	r2, [r3, #25]
   1657c:	e5c1c004 	strb	ip, [r1, #4]
   16580:	ebffde0f 	bl	ddc4 <sync_fs>
   16584:	e28dd044 	add	sp, sp, #68	; 0x44
   16588:	e8bd8ff0 	pop	{r4, r5, r6, r7, r8, r9, sl, fp, pc}
   1658c:	e5d5a233 	ldrb	sl, [r5, #563]	; 0x233
   16590:	e5d52232 	ldrb	r2, [r5, #562]	; 0x232
   16594:	e59f12b0 	ldr	r1, [pc, #688]	; 1684c <f_utime+0x604>
   16598:	e182a40a 	orr	sl, r2, sl, lsl #8
   1659c:	e6bfa07a 	sxth	sl, sl
   165a0:	e15a0001 	cmp	sl, r1
   165a4:	13a03002 	movne	r3, #2
   165a8:	0a000004 	beq	165c0 <f_utime+0x378>
   165ac:	e3a09000 	mov	r9, #0
   165b0:	e3530000 	cmp	r3, #0
   165b4:	0affff58 	beq	1631c <f_utime+0xd4>
   165b8:	e3a0000d 	mov	r0, #13
   165bc:	eaffff39 	b	162a8 <f_utime+0x60>
   165c0:	e5d5206c 	ldrb	r2, [r5, #108]	; 0x6c
   165c4:	e5d5006d 	ldrb	r0, [r5, #109]	; 0x6d
   165c8:	e1a02802 	lsl	r2, r2, #16
   165cc:	e5d5106a 	ldrb	r1, [r5, #106]	; 0x6a
   165d0:	e1822c00 	orr	r2, r2, r0, lsl #24
   165d4:	e5d5006b 	ldrb	r0, [r5, #107]	; 0x6b
   165d8:	e1822001 	orr	r2, r2, r1
   165dc:	e1822400 	orr	r2, r2, r0, lsl #8
   165e0:	e59fb268 	ldr	fp, [pc, #616]	; 16850 <f_utime+0x608>
   165e4:	e3c224ff 	bic	r2, r2, #-16777216	; 0xff000000
   165e8:	e152000b 	cmp	r2, fp
   165ec:	0affffee 	beq	165ac <f_utime+0x364>
   165f0:	e5d52088 	ldrb	r2, [r5, #136]	; 0x88
   165f4:	e5d50089 	ldrb	r0, [r5, #137]	; 0x89
   165f8:	e1a02802 	lsl	r2, r2, #16
   165fc:	e5d51086 	ldrb	r1, [r5, #134]	; 0x86
   16600:	e1822c00 	orr	r2, r2, r0, lsl #24
   16604:	e5d50087 	ldrb	r0, [r5, #135]	; 0x87
   16608:	e1822001 	orr	r2, r2, r1
   1660c:	e1822400 	orr	r2, r2, r0, lsl #8
   16610:	e3c224ff 	bic	r2, r2, #-16777216	; 0xff000000
   16614:	e152000b 	cmp	r2, fp
   16618:	0affffe3 	beq	165ac <f_utime+0x364>
   1661c:	e5d531f6 	ldrb	r3, [r5, #502]	; 0x1f6
   16620:	e3530000 	cmp	r3, #0
   16624:	0affffe3 	beq	165b8 <f_utime+0x370>
   16628:	e5d531fc 	ldrb	r3, [r5, #508]	; 0x1fc
   1662c:	e5d511fd 	ldrb	r1, [r5, #509]	; 0x1fd
   16630:	e5d521fa 	ldrb	r2, [r5, #506]	; 0x1fa
   16634:	e1a03803 	lsl	r3, r3, #16
   16638:	e1833c01 	orr	r3, r3, r1, lsl #24
   1663c:	e5d591fb 	ldrb	r9, [r5, #507]	; 0x1fb
   16640:	e1833002 	orr	r3, r3, r2
   16644:	e1839409 	orr	r9, r3, r9, lsl #8
   16648:	e1a02009 	mov	r2, r9
   1664c:	e5d50001 	ldrb	r0, [r5, #1]
   16650:	e1a01008 	mov	r1, r8
   16654:	e3a03001 	mov	r3, #1
   16658:	eb0005f8 	bl	17e40 <disk_read>
   1665c:	e3500000 	cmp	r0, #0
   16660:	1affff2b 	bne	16314 <f_utime+0xcc>
   16664:	e5d52233 	ldrb	r2, [r5, #563]	; 0x233
   16668:	e5d53232 	ldrb	r3, [r5, #562]	; 0x232
   1666c:	e1833402 	orr	r3, r3, r2, lsl #8
   16670:	e6bf3073 	sxth	r3, r3
   16674:	e153000a 	cmp	r3, sl
   16678:	1affffce 	bne	165b8 <f_utime+0x370>
   1667c:	e5d5306c 	ldrb	r3, [r5, #108]	; 0x6c
   16680:	e5d5106d 	ldrb	r1, [r5, #109]	; 0x6d
   16684:	e1a03803 	lsl	r3, r3, #16
   16688:	e5d5206a 	ldrb	r2, [r5, #106]	; 0x6a
   1668c:	e1833c01 	orr	r3, r3, r1, lsl #24
   16690:	e5d5106b 	ldrb	r1, [r5, #107]	; 0x6b
   16694:	e1833002 	orr	r3, r3, r2
   16698:	e1833401 	orr	r3, r3, r1, lsl #8
   1669c:	e3c334ff 	bic	r3, r3, #-16777216	; 0xff000000
   166a0:	e153000b 	cmp	r3, fp
   166a4:	0affff1c 	beq	1631c <f_utime+0xd4>
   166a8:	e5d53088 	ldrb	r3, [r5, #136]	; 0x88
   166ac:	e5d51089 	ldrb	r1, [r5, #137]	; 0x89
   166b0:	e5d52086 	ldrb	r2, [r5, #134]	; 0x86
   166b4:	e1a03803 	lsl	r3, r3, #16
   166b8:	e1833c01 	orr	r3, r3, r1, lsl #24
   166bc:	e5d51087 	ldrb	r1, [r5, #135]	; 0x87
   166c0:	e1833002 	orr	r3, r3, r2
   166c4:	e1833401 	orr	r3, r3, r1, lsl #8
   166c8:	e59f2180 	ldr	r2, [pc, #384]	; 16850 <f_utime+0x608>
   166cc:	e3c334ff 	bic	r3, r3, #-16777216	; 0xff000000
   166d0:	e0533002 	subs	r3, r3, r2
   166d4:	13a03001 	movne	r3, #1
   166d8:	eaffffb4 	b	165b0 <f_utime+0x368>
   166dc:	e2800002 	add	r0, r0, #2
   166e0:	e089a00a 	add	sl, r9, sl
   166e4:	e0833009 	add	r3, r3, r9
   166e8:	e35c0000 	cmp	ip, #0
   166ec:	e5850018 	str	r0, [r5, #24]
   166f0:	e585a024 	str	sl, [r5, #36]	; 0x24
   166f4:	e585302c 	str	r3, [r5, #44]	; 0x2c
   166f8:	e5859020 	str	r9, [r5, #32]
   166fc:	0affffad 	beq	165b8 <f_utime+0x370>
   16700:	e1a03080 	lsl	r3, r0, #1
   16704:	e2833f7f 	add	r3, r3, #508	; 0x1fc
   16708:	e2833003 	add	r3, r3, #3
   1670c:	e082a00a 	add	sl, r2, sl
   16710:	e15b04a3 	cmp	fp, r3, lsr #9
   16714:	e585a028 	str	sl, [r5, #40]	; 0x28
   16718:	3affffa6 	bcc	165b8 <f_utime+0x370>
   1671c:	e3a03000 	mov	r3, #0
   16720:	e3e02000 	mvn	r2, #0
   16724:	e585300c 	str	r3, [r5, #12]
   16728:	e5852010 	str	r2, [r5, #16]
   1672c:	e3a03002 	mov	r3, #2
   16730:	eaffff6e 	b	164f0 <f_utime+0x2a8>
   16734:	e2800002 	add	r0, r0, #2
   16738:	e089a00a 	add	sl, r9, sl
   1673c:	e0833009 	add	r3, r3, r9
   16740:	e35c0000 	cmp	ip, #0
   16744:	e5850018 	str	r0, [r5, #24]
   16748:	e585a024 	str	sl, [r5, #36]	; 0x24
   1674c:	e585302c 	str	r3, [r5, #44]	; 0x2c
   16750:	e5859020 	str	r9, [r5, #32]
   16754:	0affff97 	beq	165b8 <f_utime+0x370>
   16758:	e2003001 	and	r3, r0, #1
   1675c:	e2833f7f 	add	r3, r3, #508	; 0x1fc
   16760:	e2833003 	add	r3, r3, #3
   16764:	e0800080 	add	r0, r0, r0, lsl #1
   16768:	e08300a0 	add	r0, r3, r0, lsr #1
   1676c:	e082a00a 	add	sl, r2, sl
   16770:	e15b04a0 	cmp	fp, r0, lsr #9
   16774:	e585a028 	str	sl, [r5, #40]	; 0x28
   16778:	3affff8e 	bcc	165b8 <f_utime+0x370>
   1677c:	e3a03000 	mov	r3, #0
   16780:	e3e02000 	mvn	r2, #0
   16784:	e585300c 	str	r3, [r5, #12]
   16788:	e5852010 	str	r2, [r5, #16]
   1678c:	e3a03001 	mov	r3, #1
   16790:	eaffff56 	b	164f0 <f_utime+0x2a8>
   16794:	e5d53036 	ldrb	r3, [r5, #54]	; 0x36
   16798:	e5d51037 	ldrb	r1, [r5, #55]	; 0x37
   1679c:	e5d52034 	ldrb	r2, [r5, #52]	; 0x34
   167a0:	e1a03803 	lsl	r3, r3, #16
   167a4:	e1833c01 	orr	r3, r3, r1, lsl #24
   167a8:	e5d51035 	ldrb	r1, [r5, #53]	; 0x35
   167ac:	e1833002 	orr	r3, r3, r2
   167b0:	e59f209c 	ldr	r2, [pc, #156]	; 16854 <f_utime+0x60c>
   167b4:	e1833401 	orr	r3, r3, r1, lsl #8
   167b8:	e1530002 	cmp	r3, r2
   167bc:	1affff4a 	bne	164ec <f_utime+0x2a4>
   167c0:	e5d5321a 	ldrb	r3, [r5, #538]	; 0x21a
   167c4:	e5d5121b 	ldrb	r1, [r5, #539]	; 0x21b
   167c8:	e5d52218 	ldrb	r2, [r5, #536]	; 0x218
   167cc:	e1a03803 	lsl	r3, r3, #16
   167d0:	e1833c01 	orr	r3, r3, r1, lsl #24
   167d4:	e5d51219 	ldrb	r1, [r5, #537]	; 0x219
   167d8:	e1833002 	orr	r3, r3, r2
   167dc:	e59f2074 	ldr	r2, [pc, #116]	; 16858 <f_utime+0x610>
   167e0:	e1833401 	orr	r3, r3, r1, lsl #8
   167e4:	e1530002 	cmp	r3, r2
   167e8:	1affff3f 	bne	164ec <f_utime+0x2a4>
   167ec:	e5d50222 	ldrb	r0, [r5, #546]	; 0x222
   167f0:	e5d5321e 	ldrb	r3, [r5, #542]	; 0x21e
   167f4:	e5d5e223 	ldrb	lr, [r5, #547]	; 0x223
   167f8:	e5d5c21f 	ldrb	ip, [r5, #543]	; 0x21f
   167fc:	e5d5221c 	ldrb	r2, [r5, #540]	; 0x21c
   16800:	e1a00800 	lsl	r0, r0, #16
   16804:	e5d51220 	ldrb	r1, [r5, #544]	; 0x220
   16808:	e1a03803 	lsl	r3, r3, #16
   1680c:	e1800c0e 	orr	r0, r0, lr, lsl #24
   16810:	e1833c0c 	orr	r3, r3, ip, lsl #24
   16814:	e5d5e221 	ldrb	lr, [r5, #545]	; 0x221
   16818:	e5d5c21d 	ldrb	ip, [r5, #541]	; 0x21d
   1681c:	e1833002 	orr	r3, r3, r2
   16820:	e1801001 	orr	r1, r0, r1
   16824:	e183340c 	orr	r3, r3, ip, lsl #8
   16828:	e181240e 	orr	r2, r1, lr, lsl #8
   1682c:	e5853010 	str	r3, [r5, #16]
   16830:	e585200c 	str	r2, [r5, #12]
   16834:	e3a03003 	mov	r3, #3
   16838:	eaffff2c 	b	164f0 <f_utime+0x2a8>
   1683c:	00021bbc 			; <UNDEFINED> instruction: 0x00021bbc
   16840:	00000ff5 	strdeq	r0, [r0], -r5
   16844:	0000aa55 	andeq	sl, r0, r5, asr sl
   16848:	00021bc4 	andeq	r1, r2, r4, asr #23
   1684c:	ffffaa55 			; <UNDEFINED> instruction: 0xffffaa55
   16850:	00544146 	subseq	r4, r4, r6, asr #2
   16854:	41615252 	cmnmi	r1, r2, asr r2
   16858:	61417272 	hvcvs	5922	; 0x1722

0001685c <f_rename>:
   1685c:	e92d4ff0 	push	{r4, r5, r6, r7, r8, r9, sl, fp, lr}
   16860:	e5d03000 	ldrb	r3, [r0]
   16864:	e24dd084 	sub	sp, sp, #132	; 0x84
   16868:	e2433030 	sub	r3, r3, #48	; 0x30
   1686c:	e3530009 	cmp	r3, #9
   16870:	e1a04000 	mov	r4, r0
   16874:	e1a06001 	mov	r6, r1
   16878:	9a000011 	bls	168c4 <f_rename+0x68>
   1687c:	e59f7790 	ldr	r7, [pc, #1936]	; 17014 <f_rename+0x7b8>
   16880:	e5975000 	ldr	r5, [r7]
   16884:	e3550000 	cmp	r5, #0
   16888:	03a0000c 	moveq	r0, #12
   1688c:	0a00000a 	beq	168bc <f_rename+0x60>
   16890:	e58d5038 	str	r5, [sp, #56]	; 0x38
   16894:	e5d53000 	ldrb	r3, [r5]
   16898:	e3530000 	cmp	r3, #0
   1689c:	0a000010 	beq	168e4 <f_rename+0x88>
   168a0:	e5d50001 	ldrb	r0, [r5, #1]
   168a4:	eb000585 	bl	17ec0 <disk_status>
   168a8:	e3100001 	tst	r0, #1
   168ac:	1a00000c 	bne	168e4 <f_rename+0x88>
   168b0:	e3100004 	tst	r0, #4
   168b4:	0a00009b 	beq	16b28 <f_rename+0x2cc>
   168b8:	e3a0000a 	mov	r0, #10
   168bc:	e28dd084 	add	sp, sp, #132	; 0x84
   168c0:	e8bd8ff0 	pop	{r4, r5, r6, r7, r8, r9, sl, fp, pc}
   168c4:	e5d02001 	ldrb	r2, [r0, #1]
   168c8:	e352003a 	cmp	r2, #58	; 0x3a
   168cc:	1affffea 	bne	1687c <f_rename+0x20>
   168d0:	e3530000 	cmp	r3, #0
   168d4:	13a0000b 	movne	r0, #11
   168d8:	1afffff7 	bne	168bc <f_rename+0x60>
   168dc:	e2844002 	add	r4, r4, #2
   168e0:	eaffffe5 	b	1687c <f_rename+0x20>
   168e4:	e3a00000 	mov	r0, #0
   168e8:	e5c50000 	strb	r0, [r5]
   168ec:	e5c50001 	strb	r0, [r5, #1]
   168f0:	eb000541 	bl	17dfc <disk_initialize>
   168f4:	e3100001 	tst	r0, #1
   168f8:	13a00003 	movne	r0, #3
   168fc:	1affffee 	bne	168bc <f_rename+0x60>
   16900:	e2000004 	and	r0, r0, #4
   16904:	e21020ff 	ands	r2, r0, #255	; 0xff
   16908:	1affffea 	bne	168b8 <f_rename+0x5c>
   1690c:	e2859034 	add	r9, r5, #52	; 0x34
   16910:	e3a03001 	mov	r3, #1
   16914:	e1a01009 	mov	r1, r9
   16918:	e5d50001 	ldrb	r0, [r5, #1]
   1691c:	eb000547 	bl	17e40 <disk_read>
   16920:	e2503000 	subs	r3, r0, #0
   16924:	0a0000f4 	beq	16cfc <f_rename+0x4a0>
   16928:	e3a00001 	mov	r0, #1
   1692c:	eaffffe2 	b	168bc <f_rename+0x60>
   16930:	e5d52040 	ldrb	r2, [r5, #64]	; 0x40
   16934:	e5d5303f 	ldrb	r3, [r5, #63]	; 0x3f
   16938:	e1833402 	orr	r3, r3, r2, lsl #8
   1693c:	e3530c02 	cmp	r3, #512	; 0x200
   16940:	1a0000f8 	bne	16d28 <f_rename+0x4cc>
   16944:	e5d5b04b 	ldrb	fp, [r5, #75]	; 0x4b
   16948:	e5d5304a 	ldrb	r3, [r5, #74]	; 0x4a
   1694c:	e193b40b 	orrs	fp, r3, fp, lsl #8
   16950:	1a000007 	bne	16974 <f_rename+0x118>
   16954:	e5d5305a 	ldrb	r3, [r5, #90]	; 0x5a
   16958:	e5d5105b 	ldrb	r1, [r5, #91]	; 0x5b
   1695c:	e1a03803 	lsl	r3, r3, #16
   16960:	e5d52058 	ldrb	r2, [r5, #88]	; 0x58
   16964:	e1833c01 	orr	r3, r3, r1, lsl #24
   16968:	e5d5b059 	ldrb	fp, [r5, #89]	; 0x59
   1696c:	e1833002 	orr	r3, r3, r2
   16970:	e183b40b 	orr	fp, r3, fp, lsl #8
   16974:	e5d52044 	ldrb	r2, [r5, #68]	; 0x44
   16978:	e585b01c 	str	fp, [r5, #28]
   1697c:	e2423001 	sub	r3, r2, #1
   16980:	e3530001 	cmp	r3, #1
   16984:	e5c52003 	strb	r2, [r5, #3]
   16988:	8a0000e6 	bhi	16d28 <f_rename+0x4cc>
   1698c:	e5d51041 	ldrb	r1, [r5, #65]	; 0x41
   16990:	e0020b92 	mul	r2, r2, fp
   16994:	e3510000 	cmp	r1, #0
   16998:	e5c51002 	strb	r1, [r5, #2]
   1699c:	0a0000e1 	beq	16d28 <f_rename+0x4cc>
   169a0:	e2413001 	sub	r3, r1, #1
   169a4:	e1130001 	tst	r3, r1
   169a8:	1a0000de 	bne	16d28 <f_rename+0x4cc>
   169ac:	e5d5c046 	ldrb	ip, [r5, #70]	; 0x46
   169b0:	e5d53045 	ldrb	r3, [r5, #69]	; 0x45
   169b4:	e183c40c 	orr	ip, r3, ip, lsl #8
   169b8:	e31c000f 	tst	ip, #15
   169bc:	e1c5c0b8 	strh	ip, [r5, #8]
   169c0:	1a0000d8 	bne	16d28 <f_rename+0x4cc>
   169c4:	e5d50048 	ldrb	r0, [r5, #72]	; 0x48
   169c8:	e5d53047 	ldrb	r3, [r5, #71]	; 0x47
   169cc:	e1930400 	orrs	r0, r3, r0, lsl #8
   169d0:	1a000007 	bne	169f4 <f_rename+0x198>
   169d4:	e5d53056 	ldrb	r3, [r5, #86]	; 0x56
   169d8:	e5d5e057 	ldrb	lr, [r5, #87]	; 0x57
   169dc:	e5d50054 	ldrb	r0, [r5, #84]	; 0x54
   169e0:	e1a03803 	lsl	r3, r3, #16
   169e4:	e1833c0e 	orr	r3, r3, lr, lsl #24
   169e8:	e5d5e055 	ldrb	lr, [r5, #85]	; 0x55
   169ec:	e1833000 	orr	r3, r3, r0
   169f0:	e183040e 	orr	r0, r3, lr, lsl #8
   169f4:	e5d58043 	ldrb	r8, [r5, #67]	; 0x43
   169f8:	e5d53042 	ldrb	r3, [r5, #66]	; 0x42
   169fc:	e1938408 	orrs	r8, r3, r8, lsl #8
   16a00:	0a0000c8 	beq	16d28 <f_rename+0x4cc>
   16a04:	e088322c 	add	r3, r8, ip, lsr #4
   16a08:	e0833002 	add	r3, r3, r2
   16a0c:	e1530000 	cmp	r3, r0
   16a10:	8a0000c4 	bhi	16d28 <f_rename+0x4cc>
   16a14:	e0630000 	rsb	r0, r3, r0
   16a18:	e58dc00c 	str	ip, [sp, #12]
   16a1c:	e58d2008 	str	r2, [sp, #8]
   16a20:	e58d3004 	str	r3, [sp, #4]
   16a24:	eb0018d5 	bl	1cd80 <__aeabi_uidiv>
   16a28:	e3500000 	cmp	r0, #0
   16a2c:	e59d3004 	ldr	r3, [sp, #4]
   16a30:	e59d2008 	ldr	r2, [sp, #8]
   16a34:	e59dc00c 	ldr	ip, [sp, #12]
   16a38:	0a0000ba 	beq	16d28 <f_rename+0x4cc>
   16a3c:	e59f15d4 	ldr	r1, [pc, #1492]	; 17018 <f_rename+0x7bc>
   16a40:	e1500001 	cmp	r0, r1
   16a44:	9a00011d 	bls	16ec0 <f_rename+0x664>
   16a48:	e2811a0f 	add	r1, r1, #61440	; 0xf000
   16a4c:	e1500001 	cmp	r0, r1
   16a50:	9a000104 	bls	16e68 <f_rename+0x60c>
   16a54:	e2800002 	add	r0, r0, #2
   16a58:	e08a8008 	add	r8, sl, r8
   16a5c:	e083300a 	add	r3, r3, sl
   16a60:	e35c0000 	cmp	ip, #0
   16a64:	e5850018 	str	r0, [r5, #24]
   16a68:	e5858024 	str	r8, [r5, #36]	; 0x24
   16a6c:	e585302c 	str	r3, [r5, #44]	; 0x2c
   16a70:	e585a020 	str	sl, [r5, #32]
   16a74:	1a0000ab 	bne	16d28 <f_rename+0x4cc>
   16a78:	e5d53062 	ldrb	r3, [r5, #98]	; 0x62
   16a7c:	e5d51063 	ldrb	r1, [r5, #99]	; 0x63
   16a80:	e1a03803 	lsl	r3, r3, #16
   16a84:	e5d52060 	ldrb	r2, [r5, #96]	; 0x60
   16a88:	e1833c01 	orr	r3, r3, r1, lsl #24
   16a8c:	e1a00100 	lsl	r0, r0, #2
   16a90:	e5d5e061 	ldrb	lr, [r5, #97]	; 0x61
   16a94:	e2801f7f 	add	r1, r0, #508	; 0x1fc
   16a98:	e1833002 	orr	r3, r3, r2
   16a9c:	e183340e 	orr	r3, r3, lr, lsl #8
   16aa0:	e15b04a1 	cmp	fp, r1, lsr #9
   16aa4:	e5853028 	str	r3, [r5, #40]	; 0x28
   16aa8:	3a00009e 	bcc	16d28 <f_rename+0x4cc>
   16aac:	e3e00000 	mvn	r0, #0
   16ab0:	e5d53064 	ldrb	r3, [r5, #100]	; 0x64
   16ab4:	e5d52065 	ldrb	r2, [r5, #101]	; 0x65
   16ab8:	e5850010 	str	r0, [r5, #16]
   16abc:	e1832402 	orr	r2, r3, r2, lsl #8
   16ac0:	e08a2002 	add	r2, sl, r2
   16ac4:	e585c00c 	str	ip, [r5, #12]
   16ac8:	e5c5c005 	strb	ip, [r5, #5]
   16acc:	e1a01009 	mov	r1, r9
   16ad0:	e5852014 	str	r2, [r5, #20]
   16ad4:	e5d50001 	ldrb	r0, [r5, #1]
   16ad8:	e3a03001 	mov	r3, #1
   16adc:	eb0004d7 	bl	17e40 <disk_read>
   16ae0:	e3500000 	cmp	r0, #0
   16ae4:	1a000005 	bne	16b00 <f_rename+0x2a4>
   16ae8:	e5d51233 	ldrb	r1, [r5, #563]	; 0x233
   16aec:	e5d53232 	ldrb	r3, [r5, #562]	; 0x232
   16af0:	e59f2524 	ldr	r2, [pc, #1316]	; 1701c <f_rename+0x7c0>
   16af4:	e1833401 	orr	r3, r3, r1, lsl #8
   16af8:	e1530002 	cmp	r3, r2
   16afc:	0a000107 	beq	16f20 <f_rename+0x6c4>
   16b00:	e3a03003 	mov	r3, #3
   16b04:	e3a01000 	mov	r1, #0
   16b08:	e1d720b4 	ldrh	r2, [r7, #4]
   16b0c:	e5c53000 	strb	r3, [r5]
   16b10:	e2823001 	add	r3, r2, #1
   16b14:	e6ff3073 	uxth	r3, r3
   16b18:	e1c730b4 	strh	r3, [r7, #4]
   16b1c:	e1c530b6 	strh	r3, [r5, #6]
   16b20:	e5851030 	str	r1, [r5, #48]	; 0x30
   16b24:	e5c51004 	strb	r1, [r5, #4]
   16b28:	e59dc038 	ldr	ip, [sp, #56]	; 0x38
   16b2c:	e59f24ec 	ldr	r2, [pc, #1260]	; 17020 <f_rename+0x7c4>
   16b30:	e28d3014 	add	r3, sp, #20
   16b34:	e1a01004 	mov	r1, r4
   16b38:	e28d0038 	add	r0, sp, #56	; 0x38
   16b3c:	e58dc05c 	str	ip, [sp, #92]	; 0x5c
   16b40:	e58d2054 	str	r2, [sp, #84]	; 0x54
   16b44:	e58d3050 	str	r3, [sp, #80]	; 0x50
   16b48:	ebffe92c 	bl	11000 <follow_path>
   16b4c:	e3500000 	cmp	r0, #0
   16b50:	1affff59 	bne	168bc <f_rename+0x60>
   16b54:	e59d204c 	ldr	r2, [sp, #76]	; 0x4c
   16b58:	e3520000 	cmp	r2, #0
   16b5c:	03a00004 	moveq	r0, #4
   16b60:	0affff55 	beq	168bc <f_rename+0x60>
   16b64:	e282300b 	add	r3, r2, #11
   16b68:	e3130003 	tst	r3, #3
   16b6c:	1a00005b 	bne	16ce0 <f_rename+0x484>
   16b70:	e592400b 	ldr	r4, [r2, #11]
   16b74:	e592e00f 	ldr	lr, [r2, #15]
   16b78:	e592c013 	ldr	ip, [r2, #19]
   16b7c:	e5920017 	ldr	r0, [r2, #23]
   16b80:	e592101b 	ldr	r1, [r2, #27]
   16b84:	e5d2301f 	ldrb	r3, [r2, #31]
   16b88:	e58d4020 	str	r4, [sp, #32]
   16b8c:	e58de024 	str	lr, [sp, #36]	; 0x24
   16b90:	e58dc028 	str	ip, [sp, #40]	; 0x28
   16b94:	e58d002c 	str	r0, [sp, #44]	; 0x2c
   16b98:	e58d1030 	str	r1, [sp, #48]	; 0x30
   16b9c:	e5cd3034 	strb	r3, [sp, #52]	; 0x34
   16ba0:	e59d9038 	ldr	r9, [sp, #56]	; 0x38
   16ba4:	e59d803c 	ldr	r8, [sp, #60]	; 0x3c
   16ba8:	e59d7040 	ldr	r7, [sp, #64]	; 0x40
   16bac:	e59d5044 	ldr	r5, [sp, #68]	; 0x44
   16bb0:	e59d4048 	ldr	r4, [sp, #72]	; 0x48
   16bb4:	e59de04c 	ldr	lr, [sp, #76]	; 0x4c
   16bb8:	e59dc050 	ldr	ip, [sp, #80]	; 0x50
   16bbc:	e59d2054 	ldr	r2, [sp, #84]	; 0x54
   16bc0:	e59d3058 	ldr	r3, [sp, #88]	; 0x58
   16bc4:	e1a01006 	mov	r1, r6
   16bc8:	e28d005c 	add	r0, sp, #92	; 0x5c
   16bcc:	e58d905c 	str	r9, [sp, #92]	; 0x5c
   16bd0:	e58d8060 	str	r8, [sp, #96]	; 0x60
   16bd4:	e58d7064 	str	r7, [sp, #100]	; 0x64
   16bd8:	e58d5068 	str	r5, [sp, #104]	; 0x68
   16bdc:	e58d406c 	str	r4, [sp, #108]	; 0x6c
   16be0:	e58de070 	str	lr, [sp, #112]	; 0x70
   16be4:	e58dc074 	str	ip, [sp, #116]	; 0x74
   16be8:	e58d2078 	str	r2, [sp, #120]	; 0x78
   16bec:	e58d307c 	str	r3, [sp, #124]	; 0x7c
   16bf0:	ebffe902 	bl	11000 <follow_path>
   16bf4:	e3500000 	cmp	r0, #0
   16bf8:	03a00008 	moveq	r0, #8
   16bfc:	0affff2e 	beq	168bc <f_rename+0x60>
   16c00:	e3500004 	cmp	r0, #4
   16c04:	1affff2c 	bne	168bc <f_rename+0x60>
   16c08:	e28d005c 	add	r0, sp, #92	; 0x5c
   16c0c:	ebffe57b 	bl	10200 <dir_register>
   16c10:	e3500000 	cmp	r0, #0
   16c14:	1affff28 	bne	168bc <f_rename+0x60>
   16c18:	e59dc070 	ldr	ip, [sp, #112]	; 0x70
   16c1c:	e28d3022 	add	r3, sp, #34	; 0x22
   16c20:	e28d0035 	add	r0, sp, #53	; 0x35
   16c24:	e28c200c 	add	r2, ip, #12
   16c28:	e4d31001 	ldrb	r1, [r3], #1
   16c2c:	e1530000 	cmp	r3, r0
   16c30:	e5e21001 	strb	r1, [r2, #1]!
   16c34:	1afffffb 	bne	16c28 <f_rename+0x3cc>
   16c38:	e3a02001 	mov	r2, #1
   16c3c:	e5dd3020 	ldrb	r3, [sp, #32]
   16c40:	e59d0038 	ldr	r0, [sp, #56]	; 0x38
   16c44:	e3833020 	orr	r3, r3, #32
   16c48:	e5cc300b 	strb	r3, [ip, #11]
   16c4c:	e5c02004 	strb	r2, [r0, #4]
   16c50:	e59d2040 	ldr	r2, [sp, #64]	; 0x40
   16c54:	e59d3064 	ldr	r3, [sp, #100]	; 0x64
   16c58:	e1520003 	cmp	r2, r3
   16c5c:	0a000018 	beq	16cc4 <f_rename+0x468>
   16c60:	e5dc300b 	ldrb	r3, [ip, #11]
   16c64:	e3130010 	tst	r3, #16
   16c68:	0a000015 	beq	16cc4 <f_rename+0x468>
   16c6c:	e5d01000 	ldrb	r1, [r0]
   16c70:	e5dc201b 	ldrb	r2, [ip, #27]
   16c74:	e5dc301a 	ldrb	r3, [ip, #26]
   16c78:	e3510003 	cmp	r1, #3
   16c7c:	e1833402 	orr	r3, r3, r2, lsl #8
   16c80:	0a00002c 	beq	16d38 <f_rename+0x4dc>
   16c84:	e5902018 	ldr	r2, [r0, #24]
   16c88:	e2433002 	sub	r3, r3, #2
   16c8c:	e2422002 	sub	r2, r2, #2
   16c90:	e1530002 	cmp	r3, r2
   16c94:	2a000025 	bcs	16d30 <f_rename+0x4d4>
   16c98:	e5d02002 	ldrb	r2, [r0, #2]
   16c9c:	e590102c 	ldr	r1, [r0, #44]	; 0x2c
   16ca0:	e0311392 	mlas	r1, r2, r3, r1
   16ca4:	0a000021 	beq	16d30 <f_rename+0x4d4>
   16ca8:	ebffdc10 	bl	dcf0 <move_window>
   16cac:	e3500000 	cmp	r0, #0
   16cb0:	e59d3038 	ldr	r3, [sp, #56]	; 0x38
   16cb4:	1affff00 	bne	168bc <f_rename+0x60>
   16cb8:	e5d32055 	ldrb	r2, [r3, #85]	; 0x55
   16cbc:	e352002e 	cmp	r2, #46	; 0x2e
   16cc0:	0a0000c0 	beq	16fc8 <f_rename+0x76c>
   16cc4:	e28d0038 	add	r0, sp, #56	; 0x38
   16cc8:	ebffe297 	bl	f72c <dir_remove>
   16ccc:	e3500000 	cmp	r0, #0
   16cd0:	1afffef9 	bne	168bc <f_rename+0x60>
   16cd4:	e59d0038 	ldr	r0, [sp, #56]	; 0x38
   16cd8:	ebffdc39 	bl	ddc4 <sync_fs>
   16cdc:	eafffef6 	b	168bc <f_rename+0x60>
   16ce0:	e2822020 	add	r2, r2, #32
   16ce4:	e28d101f 	add	r1, sp, #31
   16ce8:	e4d30001 	ldrb	r0, [r3], #1
   16cec:	e1530002 	cmp	r3, r2
   16cf0:	e5e10001 	strb	r0, [r1, #1]!
   16cf4:	1afffffb 	bne	16ce8 <f_rename+0x48c>
   16cf8:	eaffffa8 	b	16ba0 <f_rename+0x344>
   16cfc:	e5d5b233 	ldrb	fp, [r5, #563]	; 0x233
   16d00:	e5d52232 	ldrb	r2, [r5, #562]	; 0x232
   16d04:	e59f1318 	ldr	r1, [pc, #792]	; 17024 <f_rename+0x7c8>
   16d08:	e182b40b 	orr	fp, r2, fp, lsl #8
   16d0c:	e6bfb07b 	sxth	fp, fp
   16d10:	e15b0001 	cmp	fp, r1
   16d14:	13a03002 	movne	r3, #2
   16d18:	0a00000b 	beq	16d4c <f_rename+0x4f0>
   16d1c:	e3a0a000 	mov	sl, #0
   16d20:	e3530000 	cmp	r3, #0
   16d24:	0affff01 	beq	16930 <f_rename+0xd4>
   16d28:	e3a0000d 	mov	r0, #13
   16d2c:	eafffee2 	b	168bc <f_rename+0x60>
   16d30:	e3a00002 	mov	r0, #2
   16d34:	eafffee0 	b	168bc <f_rename+0x60>
   16d38:	e5dc1015 	ldrb	r1, [ip, #21]
   16d3c:	e5dc2014 	ldrb	r2, [ip, #20]
   16d40:	e1822401 	orr	r2, r2, r1, lsl #8
   16d44:	e1833802 	orr	r3, r3, r2, lsl #16
   16d48:	eaffffcd 	b	16c84 <f_rename+0x428>
   16d4c:	e5d5206c 	ldrb	r2, [r5, #108]	; 0x6c
   16d50:	e5d5006d 	ldrb	r0, [r5, #109]	; 0x6d
   16d54:	e1a02802 	lsl	r2, r2, #16
   16d58:	e5d5106a 	ldrb	r1, [r5, #106]	; 0x6a
   16d5c:	e1822c00 	orr	r2, r2, r0, lsl #24
   16d60:	e5d5006b 	ldrb	r0, [r5, #107]	; 0x6b
   16d64:	e1822001 	orr	r2, r2, r1
   16d68:	e1822400 	orr	r2, r2, r0, lsl #8
   16d6c:	e59f82b4 	ldr	r8, [pc, #692]	; 17028 <f_rename+0x7cc>
   16d70:	e3c224ff 	bic	r2, r2, #-16777216	; 0xff000000
   16d74:	e1520008 	cmp	r2, r8
   16d78:	0affffe7 	beq	16d1c <f_rename+0x4c0>
   16d7c:	e5d52088 	ldrb	r2, [r5, #136]	; 0x88
   16d80:	e5d50089 	ldrb	r0, [r5, #137]	; 0x89
   16d84:	e1a02802 	lsl	r2, r2, #16
   16d88:	e5d51086 	ldrb	r1, [r5, #134]	; 0x86
   16d8c:	e1822c00 	orr	r2, r2, r0, lsl #24
   16d90:	e5d50087 	ldrb	r0, [r5, #135]	; 0x87
   16d94:	e1822001 	orr	r2, r2, r1
   16d98:	e1822400 	orr	r2, r2, r0, lsl #8
   16d9c:	e3c224ff 	bic	r2, r2, #-16777216	; 0xff000000
   16da0:	e1520008 	cmp	r2, r8
   16da4:	0affffdc 	beq	16d1c <f_rename+0x4c0>
   16da8:	e5d531f6 	ldrb	r3, [r5, #502]	; 0x1f6
   16dac:	e3530000 	cmp	r3, #0
   16db0:	0affffdc 	beq	16d28 <f_rename+0x4cc>
   16db4:	e5d531fc 	ldrb	r3, [r5, #508]	; 0x1fc
   16db8:	e5d511fd 	ldrb	r1, [r5, #509]	; 0x1fd
   16dbc:	e5d521fa 	ldrb	r2, [r5, #506]	; 0x1fa
   16dc0:	e1a03803 	lsl	r3, r3, #16
   16dc4:	e1833c01 	orr	r3, r3, r1, lsl #24
   16dc8:	e5d5a1fb 	ldrb	sl, [r5, #507]	; 0x1fb
   16dcc:	e1833002 	orr	r3, r3, r2
   16dd0:	e183a40a 	orr	sl, r3, sl, lsl #8
   16dd4:	e1a0200a 	mov	r2, sl
   16dd8:	e5d50001 	ldrb	r0, [r5, #1]
   16ddc:	e1a01009 	mov	r1, r9
   16de0:	e3a03001 	mov	r3, #1
   16de4:	eb000415 	bl	17e40 <disk_read>
   16de8:	e3500000 	cmp	r0, #0
   16dec:	1afffecd 	bne	16928 <f_rename+0xcc>
   16df0:	e5d52233 	ldrb	r2, [r5, #563]	; 0x233
   16df4:	e5d53232 	ldrb	r3, [r5, #562]	; 0x232
   16df8:	e1833402 	orr	r3, r3, r2, lsl #8
   16dfc:	e6bf3073 	sxth	r3, r3
   16e00:	e153000b 	cmp	r3, fp
   16e04:	1affffc7 	bne	16d28 <f_rename+0x4cc>
   16e08:	e5d5306c 	ldrb	r3, [r5, #108]	; 0x6c
   16e0c:	e5d5106d 	ldrb	r1, [r5, #109]	; 0x6d
   16e10:	e1a03803 	lsl	r3, r3, #16
   16e14:	e5d5206a 	ldrb	r2, [r5, #106]	; 0x6a
   16e18:	e1833c01 	orr	r3, r3, r1, lsl #24
   16e1c:	e5d5106b 	ldrb	r1, [r5, #107]	; 0x6b
   16e20:	e1833002 	orr	r3, r3, r2
   16e24:	e1833401 	orr	r3, r3, r1, lsl #8
   16e28:	e3c334ff 	bic	r3, r3, #-16777216	; 0xff000000
   16e2c:	e1530008 	cmp	r3, r8
   16e30:	0afffebe 	beq	16930 <f_rename+0xd4>
   16e34:	e5d53088 	ldrb	r3, [r5, #136]	; 0x88
   16e38:	e5d51089 	ldrb	r1, [r5, #137]	; 0x89
   16e3c:	e5d52086 	ldrb	r2, [r5, #134]	; 0x86
   16e40:	e1a03803 	lsl	r3, r3, #16
   16e44:	e1833c01 	orr	r3, r3, r1, lsl #24
   16e48:	e5d51087 	ldrb	r1, [r5, #135]	; 0x87
   16e4c:	e1833002 	orr	r3, r3, r2
   16e50:	e1833401 	orr	r3, r3, r1, lsl #8
   16e54:	e59f21cc 	ldr	r2, [pc, #460]	; 17028 <f_rename+0x7cc>
   16e58:	e3c334ff 	bic	r3, r3, #-16777216	; 0xff000000
   16e5c:	e0533002 	subs	r3, r3, r2
   16e60:	13a03001 	movne	r3, #1
   16e64:	eaffffad 	b	16d20 <f_rename+0x4c4>
   16e68:	e2800002 	add	r0, r0, #2
   16e6c:	e08a8008 	add	r8, sl, r8
   16e70:	e083300a 	add	r3, r3, sl
   16e74:	e35c0000 	cmp	ip, #0
   16e78:	e5850018 	str	r0, [r5, #24]
   16e7c:	e5858024 	str	r8, [r5, #36]	; 0x24
   16e80:	e585302c 	str	r3, [r5, #44]	; 0x2c
   16e84:	e585a020 	str	sl, [r5, #32]
   16e88:	0affffa6 	beq	16d28 <f_rename+0x4cc>
   16e8c:	e1a03080 	lsl	r3, r0, #1
   16e90:	e2833f7f 	add	r3, r3, #508	; 0x1fc
   16e94:	e2833003 	add	r3, r3, #3
   16e98:	e0828008 	add	r8, r2, r8
   16e9c:	e15b04a3 	cmp	fp, r3, lsr #9
   16ea0:	e5858028 	str	r8, [r5, #40]	; 0x28
   16ea4:	3affff9f 	bcc	16d28 <f_rename+0x4cc>
   16ea8:	e3a03000 	mov	r3, #0
   16eac:	e3e02000 	mvn	r2, #0
   16eb0:	e585300c 	str	r3, [r5, #12]
   16eb4:	e5852010 	str	r2, [r5, #16]
   16eb8:	e3a03002 	mov	r3, #2
   16ebc:	eaffff10 	b	16b04 <f_rename+0x2a8>
   16ec0:	e2800002 	add	r0, r0, #2
   16ec4:	e08a8008 	add	r8, sl, r8
   16ec8:	e083300a 	add	r3, r3, sl
   16ecc:	e35c0000 	cmp	ip, #0
   16ed0:	e5850018 	str	r0, [r5, #24]
   16ed4:	e5858024 	str	r8, [r5, #36]	; 0x24
   16ed8:	e585302c 	str	r3, [r5, #44]	; 0x2c
   16edc:	e585a020 	str	sl, [r5, #32]
   16ee0:	0affff90 	beq	16d28 <f_rename+0x4cc>
   16ee4:	e2003001 	and	r3, r0, #1
   16ee8:	e2833f7f 	add	r3, r3, #508	; 0x1fc
   16eec:	e2833003 	add	r3, r3, #3
   16ef0:	e0800080 	add	r0, r0, r0, lsl #1
   16ef4:	e08300a0 	add	r0, r3, r0, lsr #1
   16ef8:	e0828008 	add	r8, r2, r8
   16efc:	e15b04a0 	cmp	fp, r0, lsr #9
   16f00:	e5858028 	str	r8, [r5, #40]	; 0x28
   16f04:	3affff87 	bcc	16d28 <f_rename+0x4cc>
   16f08:	e3a03000 	mov	r3, #0
   16f0c:	e3e02000 	mvn	r2, #0
   16f10:	e585300c 	str	r3, [r5, #12]
   16f14:	e5852010 	str	r2, [r5, #16]
   16f18:	e3a03001 	mov	r3, #1
   16f1c:	eafffef8 	b	16b04 <f_rename+0x2a8>
   16f20:	e5d53036 	ldrb	r3, [r5, #54]	; 0x36
   16f24:	e5d51037 	ldrb	r1, [r5, #55]	; 0x37
   16f28:	e5d52034 	ldrb	r2, [r5, #52]	; 0x34
   16f2c:	e1a03803 	lsl	r3, r3, #16
   16f30:	e1833c01 	orr	r3, r3, r1, lsl #24
   16f34:	e5d51035 	ldrb	r1, [r5, #53]	; 0x35
   16f38:	e1833002 	orr	r3, r3, r2
   16f3c:	e59f20e8 	ldr	r2, [pc, #232]	; 1702c <f_rename+0x7d0>
   16f40:	e1833401 	orr	r3, r3, r1, lsl #8
   16f44:	e1530002 	cmp	r3, r2
   16f48:	1afffeec 	bne	16b00 <f_rename+0x2a4>
   16f4c:	e5d5321a 	ldrb	r3, [r5, #538]	; 0x21a
   16f50:	e5d5121b 	ldrb	r1, [r5, #539]	; 0x21b
   16f54:	e5d52218 	ldrb	r2, [r5, #536]	; 0x218
   16f58:	e1a03803 	lsl	r3, r3, #16
   16f5c:	e1833c01 	orr	r3, r3, r1, lsl #24
   16f60:	e5d51219 	ldrb	r1, [r5, #537]	; 0x219
   16f64:	e1833002 	orr	r3, r3, r2
   16f68:	e59f20c0 	ldr	r2, [pc, #192]	; 17030 <f_rename+0x7d4>
   16f6c:	e1833401 	orr	r3, r3, r1, lsl #8
   16f70:	e1530002 	cmp	r3, r2
   16f74:	1afffee1 	bne	16b00 <f_rename+0x2a4>
   16f78:	e5d50222 	ldrb	r0, [r5, #546]	; 0x222
   16f7c:	e5d5321e 	ldrb	r3, [r5, #542]	; 0x21e
   16f80:	e5d5e223 	ldrb	lr, [r5, #547]	; 0x223
   16f84:	e5d5c21f 	ldrb	ip, [r5, #543]	; 0x21f
   16f88:	e5d5221c 	ldrb	r2, [r5, #540]	; 0x21c
   16f8c:	e1a00800 	lsl	r0, r0, #16
   16f90:	e5d51220 	ldrb	r1, [r5, #544]	; 0x220
   16f94:	e1a03803 	lsl	r3, r3, #16
   16f98:	e1800c0e 	orr	r0, r0, lr, lsl #24
   16f9c:	e1833c0c 	orr	r3, r3, ip, lsl #24
   16fa0:	e5d5e221 	ldrb	lr, [r5, #545]	; 0x221
   16fa4:	e5d5c21d 	ldrb	ip, [r5, #541]	; 0x21d
   16fa8:	e1833002 	orr	r3, r3, r2
   16fac:	e1801001 	orr	r1, r0, r1
   16fb0:	e183340c 	orr	r3, r3, ip, lsl #8
   16fb4:	e181240e 	orr	r2, r1, lr, lsl #8
   16fb8:	e5853010 	str	r3, [r5, #16]
   16fbc:	e585200c 	str	r2, [r5, #12]
   16fc0:	e3a03003 	mov	r3, #3
   16fc4:	eafffece 	b	16b04 <f_rename+0x2a8>
   16fc8:	e5d32000 	ldrb	r2, [r3]
   16fcc:	e3520003 	cmp	r2, #3
   16fd0:	e59d2064 	ldr	r2, [sp, #100]	; 0x64
   16fd4:	0a00000a 	beq	17004 <f_rename+0x7a8>
   16fd8:	e1a00002 	mov	r0, r2
   16fdc:	e3a01001 	mov	r1, #1
   16fe0:	e1a02820 	lsr	r2, r0, #16
   16fe4:	e1a0e422 	lsr	lr, r2, #8
   16fe8:	e1a0c420 	lsr	ip, r0, #8
   16fec:	e5c3006e 	strb	r0, [r3, #110]	; 0x6e
   16ff0:	e5c32068 	strb	r2, [r3, #104]	; 0x68
   16ff4:	e5c3e069 	strb	lr, [r3, #105]	; 0x69
   16ff8:	e5c3c06f 	strb	ip, [r3, #111]	; 0x6f
   16ffc:	e5c31004 	strb	r1, [r3, #4]
   17000:	eaffff2f 	b	16cc4 <f_rename+0x468>
   17004:	e5931028 	ldr	r1, [r3, #40]	; 0x28
   17008:	e1520001 	cmp	r2, r1
   1700c:	1afffff1 	bne	16fd8 <f_rename+0x77c>
   17010:	eafffff1 	b	16fdc <f_rename+0x780>
   17014:	00021bbc 			; <UNDEFINED> instruction: 0x00021bbc
   17018:	00000ff5 	strdeq	r0, [r0], -r5
   1701c:	0000aa55 	andeq	sl, r0, r5, asr sl
   17020:	00021bc4 	andeq	r1, r2, r4, asr #23
   17024:	ffffaa55 			; <UNDEFINED> instruction: 0xffffaa55
   17028:	00544146 	subseq	r4, r4, r6, asr #2
   1702c:	41615252 	cmnmi	r1, r2, asr r2
   17030:	61417272 	hvcvs	5922	; 0x1722

00017034 <f_gets>:
   17034:	e92d43f0 	push	{r4, r5, r6, r7, r8, r9, lr}
   17038:	e3a04000 	mov	r4, #0
   1703c:	e1a09000 	mov	r9, r0
   17040:	e1a05002 	mov	r5, r2
   17044:	e1a06000 	mov	r6, r0
   17048:	e1a08004 	mov	r8, r4
   1704c:	e24dd00c 	sub	sp, sp, #12
   17050:	e2417001 	sub	r7, r1, #1
   17054:	e1570004 	cmp	r7, r4
   17058:	da000008 	ble	17080 <f_gets+0x4c>
   1705c:	e3550000 	cmp	r5, #0
   17060:	0a000006 	beq	17080 <f_gets+0x4c>
   17064:	e5953000 	ldr	r3, [r5]
   17068:	e58d8004 	str	r8, [sp, #4]
   1706c:	e3530000 	cmp	r3, #0
   17070:	0a000002 	beq	17080 <f_gets+0x4c>
   17074:	e5d32000 	ldrb	r2, [r3]
   17078:	e3520000 	cmp	r2, #0
   1707c:	1a000006 	bne	1709c <f_gets+0x68>
   17080:	e3a03000 	mov	r3, #0
   17084:	e1540003 	cmp	r4, r3
   17088:	11a00009 	movne	r0, r9
   1708c:	01a00003 	moveq	r0, r3
   17090:	e5c63000 	strb	r3, [r6]
   17094:	e28dd00c 	add	sp, sp, #12
   17098:	e8bd83f0 	pop	{r4, r5, r6, r7, r8, r9, pc}
   1709c:	e1d310b6 	ldrh	r1, [r3, #6]
   170a0:	e1d520b4 	ldrh	r2, [r5, #4]
   170a4:	e1510002 	cmp	r1, r2
   170a8:	1afffff4 	bne	17080 <f_gets+0x4c>
   170ac:	e5d30001 	ldrb	r0, [r3, #1]
   170b0:	eb000382 	bl	17ec0 <disk_status>
   170b4:	e3100001 	tst	r0, #1
   170b8:	0a00000a 	beq	170e8 <f_gets+0xb4>
   170bc:	e59d3004 	ldr	r3, [sp, #4]
   170c0:	e3530001 	cmp	r3, #1
   170c4:	1affffed 	bne	17080 <f_gets+0x4c>
   170c8:	e5dd3000 	ldrb	r3, [sp]
   170cc:	e353000d 	cmp	r3, #13
   170d0:	0affffe3 	beq	17064 <f_gets+0x30>
   170d4:	e353000a 	cmp	r3, #10
   170d8:	e4c63001 	strb	r3, [r6], #1
   170dc:	e2844001 	add	r4, r4, #1
   170e0:	1affffdb 	bne	17054 <f_gets+0x20>
   170e4:	eaffffe5 	b	17080 <f_gets+0x4c>
   170e8:	e5d53006 	ldrb	r3, [r5, #6]
   170ec:	e3130080 	tst	r3, #128	; 0x80
   170f0:	1afffff1 	bne	170bc <f_gets+0x88>
   170f4:	e3130001 	tst	r3, #1
   170f8:	0affffef 	beq	170bc <f_gets+0x88>
   170fc:	e28d3004 	add	r3, sp, #4
   17100:	e1a00005 	mov	r0, r5
   17104:	e1a0100d 	mov	r1, sp
   17108:	e3a02001 	mov	r2, #1
   1710c:	ebffe05e 	bl	f28c <f_read.part.9>
   17110:	e59d3004 	ldr	r3, [sp, #4]
   17114:	eaffffe9 	b	170c0 <f_gets+0x8c>

00017118 <f_putc>:
   17118:	e92d4030 	push	{r4, r5, lr}
   1711c:	e350000a 	cmp	r0, #10
   17120:	e24dd00c 	sub	sp, sp, #12
   17124:	e1a05000 	mov	r5, r0
   17128:	e1a04001 	mov	r4, r1
   1712c:	0a000054 	beq	17284 <f_putc+0x16c>
   17130:	e3540000 	cmp	r4, #0
   17134:	e5cd5004 	strb	r5, [sp, #4]
   17138:	0a000005 	beq	17154 <f_putc+0x3c>
   1713c:	e5943000 	ldr	r3, [r4]
   17140:	e3530000 	cmp	r3, #0
   17144:	0a000002 	beq	17154 <f_putc+0x3c>
   17148:	e5d32000 	ldrb	r2, [r3]
   1714c:	e3520000 	cmp	r2, #0
   17150:	1a000002 	bne	17160 <f_putc+0x48>
   17154:	e3e00000 	mvn	r0, #0
   17158:	e28dd00c 	add	sp, sp, #12
   1715c:	e8bd8030 	pop	{r4, r5, pc}
   17160:	e1d310b6 	ldrh	r1, [r3, #6]
   17164:	e1d420b4 	ldrh	r2, [r4, #4]
   17168:	e1510002 	cmp	r1, r2
   1716c:	1afffff8 	bne	17154 <f_putc+0x3c>
   17170:	e5d30001 	ldrb	r0, [r3, #1]
   17174:	eb000351 	bl	17ec0 <disk_status>
   17178:	e2100001 	ands	r0, r0, #1
   1717c:	1afffff4 	bne	17154 <f_putc+0x3c>
   17180:	e5d4c006 	ldrb	ip, [r4, #6]
   17184:	e31c0080 	tst	ip, #128	; 0x80
   17188:	1afffff1 	bne	17154 <f_putc+0x3c>
   1718c:	e31c0002 	tst	ip, #2
   17190:	0affffef 	beq	17154 <f_putc+0x3c>
   17194:	e594e00c 	ldr	lr, [r4, #12]
   17198:	e37e0001 	cmn	lr, #1
   1719c:	2a00007a 	bcs	1738c <f_putc+0x274>
   171a0:	e5941008 	ldr	r1, [r4, #8]
   171a4:	e1a03b81 	lsl	r3, r1, #23
   171a8:	e1b03ba3 	lsrs	r3, r3, #23
   171ac:	1a000028 	bne	17254 <f_putc+0x13c>
   171b0:	e5940000 	ldr	r0, [r4]
   171b4:	e5d03002 	ldrb	r3, [r0, #2]
   171b8:	e2433001 	sub	r3, r3, #1
   171bc:	e00334a1 	and	r3, r3, r1, lsr #9
   171c0:	e21350ff 	ands	r5, r3, #255	; 0xff
   171c4:	1a00000a 	bne	171f4 <f_putc+0xdc>
   171c8:	e3510000 	cmp	r1, #0
   171cc:	1a000048 	bne	172f4 <f_putc+0x1dc>
   171d0:	e5943010 	ldr	r3, [r4, #16]
   171d4:	e3530000 	cmp	r3, #0
   171d8:	0a000053 	beq	1732c <f_putc+0x214>
   171dc:	e3530001 	cmp	r3, #1
   171e0:	0a000060 	beq	17368 <f_putc+0x250>
   171e4:	e3730001 	cmn	r3, #1
   171e8:	15940000 	ldrne	r0, [r4]
   171ec:	15843014 	strne	r3, [r4, #20]
   171f0:	0a00005c 	beq	17368 <f_putc+0x250>
   171f4:	e31c0040 	tst	ip, #64	; 0x40
   171f8:	1a000031 	bne	172c4 <f_putc+0x1ac>
   171fc:	e5943014 	ldr	r3, [r4, #20]
   17200:	e5902018 	ldr	r2, [r0, #24]
   17204:	e2433002 	sub	r3, r3, #2
   17208:	e2422002 	sub	r2, r2, #2
   1720c:	e1530002 	cmp	r3, r2
   17210:	2a000054 	bcs	17368 <f_putc+0x250>
   17214:	e5d01002 	ldrb	r1, [r0, #2]
   17218:	e590202c 	ldr	r2, [r0, #44]	; 0x2c
   1721c:	e0332391 	mlas	r3, r1, r3, r2
   17220:	0a000050 	beq	17368 <f_putc+0x250>
   17224:	e5942018 	ldr	r2, [r4, #24]
   17228:	e0855003 	add	r5, r5, r3
   1722c:	e1550002 	cmp	r5, r2
   17230:	e5941008 	ldr	r1, [r4, #8]
   17234:	e594e00c 	ldr	lr, [r4, #12]
   17238:	0a000001 	beq	17244 <f_putc+0x12c>
   1723c:	e151000e 	cmp	r1, lr
   17240:	3a00003d 	bcc	1733c <f_putc+0x224>
   17244:	e1a03b81 	lsl	r3, r1, #23
   17248:	e5845018 	str	r5, [r4, #24]
   1724c:	e5dd5004 	ldrb	r5, [sp, #4]
   17250:	e1a03ba3 	lsr	r3, r3, #23
   17254:	e2811001 	add	r1, r1, #1
   17258:	e0843003 	add	r3, r4, r3
   1725c:	e38c2040 	orr	r2, ip, #64	; 0x40
   17260:	e151000e 	cmp	r1, lr
   17264:	e5c35024 	strb	r5, [r3, #36]	; 0x24
   17268:	e5841008 	str	r1, [r4, #8]
   1726c:	e5c42006 	strb	r2, [r4, #6]
   17270:	8a00000b 	bhi	172a4 <f_putc+0x18c>
   17274:	e38cc060 	orr	ip, ip, #96	; 0x60
   17278:	e3a00001 	mov	r0, #1
   1727c:	e5c4c006 	strb	ip, [r4, #6]
   17280:	eaffffb4 	b	17158 <f_putc+0x40>
   17284:	e3a0300d 	mov	r3, #13
   17288:	e28d1008 	add	r1, sp, #8
   1728c:	e5613008 	strb	r3, [r1, #-8]!
   17290:	e1a00004 	mov	r0, r4
   17294:	e3a02001 	mov	r2, #1
   17298:	e28d3004 	add	r3, sp, #4
   1729c:	ebffef38 	bl	12f84 <f_write>
   172a0:	eaffffa2 	b	17130 <f_putc+0x18>
   172a4:	e3a03001 	mov	r3, #1
   172a8:	e3822020 	orr	r2, r2, #32
   172ac:	e3530001 	cmp	r3, #1
   172b0:	e5c42006 	strb	r2, [r4, #6]
   172b4:	e584100c 	str	r1, [r4, #12]
   172b8:	01a00003 	moveq	r0, r3
   172bc:	0affffa5 	beq	17158 <f_putc+0x40>
   172c0:	eaffffa3 	b	17154 <f_putc+0x3c>
   172c4:	e5d00001 	ldrb	r0, [r0, #1]
   172c8:	e2841024 	add	r1, r4, #36	; 0x24
   172cc:	e5942018 	ldr	r2, [r4, #24]
   172d0:	e3a03001 	mov	r3, #1
   172d4:	eb0002f7 	bl	17eb8 <disk_write>
   172d8:	e3500000 	cmp	r0, #0
   172dc:	1a000025 	bne	17378 <f_putc+0x260>
   172e0:	e5d4c006 	ldrb	ip, [r4, #6]
   172e4:	e5940000 	ldr	r0, [r4]
   172e8:	e20cc0bf 	and	ip, ip, #191	; 0xbf
   172ec:	e5c4c006 	strb	ip, [r4, #6]
   172f0:	eaffffc1 	b	171fc <f_putc+0xe4>
   172f4:	e5941014 	ldr	r1, [r4, #20]
   172f8:	ebffde9b 	bl	ed6c <create_chain>
   172fc:	e1a03000 	mov	r3, r0
   17300:	e3530000 	cmp	r3, #0
   17304:	15d4c006 	ldrbne	ip, [r4, #6]
   17308:	1affffb3 	bne	171dc <f_putc+0xc4>
   1730c:	e5941008 	ldr	r1, [r4, #8]
   17310:	e594e00c 	ldr	lr, [r4, #12]
   17314:	e5d42006 	ldrb	r2, [r4, #6]
   17318:	e15e0001 	cmp	lr, r1
   1731c:	3affffe1 	bcc	172a8 <f_putc+0x190>
   17320:	e3822020 	orr	r2, r2, #32
   17324:	e5c42006 	strb	r2, [r4, #6]
   17328:	eaffff89 	b	17154 <f_putc+0x3c>
   1732c:	ebffde8e 	bl	ed6c <create_chain>
   17330:	e1a03000 	mov	r3, r0
   17334:	e5840010 	str	r0, [r4, #16]
   17338:	eafffff0 	b	17300 <f_putc+0x1e8>
   1733c:	e5d00001 	ldrb	r0, [r0, #1]
   17340:	e2841024 	add	r1, r4, #36	; 0x24
   17344:	e1a02005 	mov	r2, r5
   17348:	e3a03001 	mov	r3, #1
   1734c:	eb0002bb 	bl	17e40 <disk_read>
   17350:	e3500000 	cmp	r0, #0
   17354:	1a000007 	bne	17378 <f_putc+0x260>
   17358:	e5941008 	ldr	r1, [r4, #8]
   1735c:	e594e00c 	ldr	lr, [r4, #12]
   17360:	e5d4c006 	ldrb	ip, [r4, #6]
   17364:	eaffffb6 	b	17244 <f_putc+0x12c>
   17368:	e1e0cc8c 	mvn	ip, ip, lsl #25
   1736c:	e1e0ccac 	mvn	ip, ip, lsr #25
   17370:	e5c4c006 	strb	ip, [r4, #6]
   17374:	eaffff76 	b	17154 <f_putc+0x3c>
   17378:	e5d43006 	ldrb	r3, [r4, #6]
   1737c:	e1e03c83 	mvn	r3, r3, lsl #25
   17380:	e1e03ca3 	mvn	r3, r3, lsr #25
   17384:	e5c43006 	strb	r3, [r4, #6]
   17388:	eaffff71 	b	17154 <f_putc+0x3c>
   1738c:	e1a0200c 	mov	r2, ip
   17390:	e1a03000 	mov	r3, r0
   17394:	e5941008 	ldr	r1, [r4, #8]
   17398:	eaffffde 	b	17318 <f_putc+0x200>

0001739c <f_puts>:
   1739c:	e92d43f0 	push	{r4, r5, r6, r7, r8, r9, lr}
   173a0:	e5d09000 	ldrb	r9, [r0]
   173a4:	e24dd00c 	sub	sp, sp, #12
   173a8:	e3590000 	cmp	r9, #0
   173ac:	0a00009f 	beq	17630 <f_puts+0x294>
   173b0:	e359000a 	cmp	r9, #10
   173b4:	e1a04001 	mov	r4, r1
   173b8:	e1a08000 	mov	r8, r0
   173bc:	e3a0700d 	mov	r7, #13
   173c0:	e2805001 	add	r5, r0, #1
   173c4:	e2816024 	add	r6, r1, #36	; 0x24
   173c8:	0a000064 	beq	17560 <f_puts+0x1c4>
   173cc:	e3540000 	cmp	r4, #0
   173d0:	e5cd9004 	strb	r9, [sp, #4]
   173d4:	0a000005 	beq	173f0 <f_puts+0x54>
   173d8:	e5943000 	ldr	r3, [r4]
   173dc:	e3530000 	cmp	r3, #0
   173e0:	0a000002 	beq	173f0 <f_puts+0x54>
   173e4:	e5d32000 	ldrb	r2, [r3]
   173e8:	e3520000 	cmp	r2, #0
   173ec:	1a000002 	bne	173fc <f_puts+0x60>
   173f0:	e3e00000 	mvn	r0, #0
   173f4:	e28dd00c 	add	sp, sp, #12
   173f8:	e8bd83f0 	pop	{r4, r5, r6, r7, r8, r9, pc}
   173fc:	e1d310b6 	ldrh	r1, [r3, #6]
   17400:	e1d420b4 	ldrh	r2, [r4, #4]
   17404:	e1510002 	cmp	r1, r2
   17408:	1afffff8 	bne	173f0 <f_puts+0x54>
   1740c:	e5d30001 	ldrb	r0, [r3, #1]
   17410:	eb0002aa 	bl	17ec0 <disk_status>
   17414:	e2100001 	ands	r0, r0, #1
   17418:	1afffff4 	bne	173f0 <f_puts+0x54>
   1741c:	e5d4c006 	ldrb	ip, [r4, #6]
   17420:	e31c0080 	tst	ip, #128	; 0x80
   17424:	1afffff1 	bne	173f0 <f_puts+0x54>
   17428:	e31c0002 	tst	ip, #2
   1742c:	0affffef 	beq	173f0 <f_puts+0x54>
   17430:	e594e00c 	ldr	lr, [r4, #12]
   17434:	e37e0001 	cmn	lr, #1
   17438:	21a0200c 	movcs	r2, ip
   1743c:	25941008 	ldrcs	r1, [r4, #8]
   17440:	2a00006d 	bcs	175fc <f_puts+0x260>
   17444:	e5941008 	ldr	r1, [r4, #8]
   17448:	e1a03b81 	lsl	r3, r1, #23
   1744c:	e1b03ba3 	lsrs	r3, r3, #23
   17450:	1a000032 	bne	17520 <f_puts+0x184>
   17454:	e5943000 	ldr	r3, [r4]
   17458:	e5d39002 	ldrb	r9, [r3, #2]
   1745c:	e2499001 	sub	r9, r9, #1
   17460:	e00994a1 	and	r9, r9, r1, lsr #9
   17464:	e21990ff 	ands	r9, r9, #255	; 0xff
   17468:	1a00000a 	bne	17498 <f_puts+0xfc>
   1746c:	e3510000 	cmp	r1, #0
   17470:	1a000058 	bne	175d8 <f_puts+0x23c>
   17474:	e5940010 	ldr	r0, [r4, #16]
   17478:	e3500000 	cmp	r0, #0
   1747c:	0a000063 	beq	17610 <f_puts+0x274>
   17480:	e3500001 	cmp	r0, #1
   17484:	0a000065 	beq	17620 <f_puts+0x284>
   17488:	e3700001 	cmn	r0, #1
   1748c:	0a000063 	beq	17620 <f_puts+0x284>
   17490:	e5943000 	ldr	r3, [r4]
   17494:	e5840014 	str	r0, [r4, #20]
   17498:	e31c0040 	tst	ip, #64	; 0x40
   1749c:	1a000041 	bne	175a8 <f_puts+0x20c>
   174a0:	e5942014 	ldr	r2, [r4, #20]
   174a4:	e5931018 	ldr	r1, [r3, #24]
   174a8:	e2422002 	sub	r2, r2, #2
   174ac:	e2411002 	sub	r1, r1, #2
   174b0:	e1520001 	cmp	r2, r1
   174b4:	2a000059 	bcs	17620 <f_puts+0x284>
   174b8:	e5d30002 	ldrb	r0, [r3, #2]
   174bc:	e593102c 	ldr	r1, [r3, #44]	; 0x2c
   174c0:	e0321290 	mlas	r2, r0, r2, r1
   174c4:	0a000055 	beq	17620 <f_puts+0x284>
   174c8:	e5941018 	ldr	r1, [r4, #24]
   174cc:	e0899002 	add	r9, r9, r2
   174d0:	e1590001 	cmp	r9, r1
   174d4:	e594e00c 	ldr	lr, [r4, #12]
   174d8:	e5941008 	ldr	r1, [r4, #8]
   174dc:	0a00000b 	beq	17510 <f_puts+0x174>
   174e0:	e151000e 	cmp	r1, lr
   174e4:	2a000009 	bcs	17510 <f_puts+0x174>
   174e8:	e5d30001 	ldrb	r0, [r3, #1]
   174ec:	e1a01006 	mov	r1, r6
   174f0:	e1a02009 	mov	r2, r9
   174f4:	e3a03001 	mov	r3, #1
   174f8:	eb000250 	bl	17e40 <disk_read>
   174fc:	e3500000 	cmp	r0, #0
   17500:	1a00004c 	bne	17638 <f_puts+0x29c>
   17504:	e5941008 	ldr	r1, [r4, #8]
   17508:	e5d4c006 	ldrb	ip, [r4, #6]
   1750c:	e594e00c 	ldr	lr, [r4, #12]
   17510:	e1a03b81 	lsl	r3, r1, #23
   17514:	e5849018 	str	r9, [r4, #24]
   17518:	e5dd9004 	ldrb	r9, [sp, #4]
   1751c:	e1a03ba3 	lsr	r3, r3, #23
   17520:	e2811001 	add	r1, r1, #1
   17524:	e0843003 	add	r3, r4, r3
   17528:	e38c2040 	orr	r2, ip, #64	; 0x40
   1752c:	e15e0001 	cmp	lr, r1
   17530:	e5c39024 	strb	r9, [r3, #36]	; 0x24
   17534:	e5841008 	str	r1, [r4, #8]
   17538:	e5c42006 	strb	r2, [r4, #6]
   1753c:	3a00000e 	bcc	1757c <f_puts+0x1e0>
   17540:	e38cc060 	orr	ip, ip, #96	; 0x60
   17544:	e5c4c006 	strb	ip, [r4, #6]
   17548:	e0680005 	rsb	r0, r8, r5
   1754c:	e4d59001 	ldrb	r9, [r5], #1
   17550:	e3590000 	cmp	r9, #0
   17554:	0affffa6 	beq	173f4 <f_puts+0x58>
   17558:	e359000a 	cmp	r9, #10
   1755c:	1affff9a 	bne	173cc <f_puts+0x30>
   17560:	e1a00004 	mov	r0, r4
   17564:	e1a0100d 	mov	r1, sp
   17568:	e3a02001 	mov	r2, #1
   1756c:	e28d3004 	add	r3, sp, #4
   17570:	e5cd7000 	strb	r7, [sp]
   17574:	ebffee82 	bl	12f84 <f_write>
   17578:	eaffff93 	b	173cc <f_puts+0x30>
   1757c:	e3a00001 	mov	r0, #1
   17580:	e3822020 	orr	r2, r2, #32
   17584:	e3500001 	cmp	r0, #1
   17588:	e5c42006 	strb	r2, [r4, #6]
   1758c:	e584100c 	str	r1, [r4, #12]
   17590:	1affff96 	bne	173f0 <f_puts+0x54>
   17594:	e0680005 	rsb	r0, r8, r5
   17598:	e4d59001 	ldrb	r9, [r5], #1
   1759c:	e3590000 	cmp	r9, #0
   175a0:	1affffec 	bne	17558 <f_puts+0x1bc>
   175a4:	eaffff92 	b	173f4 <f_puts+0x58>
   175a8:	e5d30001 	ldrb	r0, [r3, #1]
   175ac:	e1a01006 	mov	r1, r6
   175b0:	e5942018 	ldr	r2, [r4, #24]
   175b4:	e3a03001 	mov	r3, #1
   175b8:	eb00023e 	bl	17eb8 <disk_write>
   175bc:	e3500000 	cmp	r0, #0
   175c0:	1a00001c 	bne	17638 <f_puts+0x29c>
   175c4:	e5d4c006 	ldrb	ip, [r4, #6]
   175c8:	e5943000 	ldr	r3, [r4]
   175cc:	e20cc0bf 	and	ip, ip, #191	; 0xbf
   175d0:	e5c4c006 	strb	ip, [r4, #6]
   175d4:	eaffffb1 	b	174a0 <f_puts+0x104>
   175d8:	e1a00003 	mov	r0, r3
   175dc:	e5941014 	ldr	r1, [r4, #20]
   175e0:	ebffdde1 	bl	ed6c <create_chain>
   175e4:	e3500000 	cmp	r0, #0
   175e8:	15d4c006 	ldrbne	ip, [r4, #6]
   175ec:	1affffa3 	bne	17480 <f_puts+0xe4>
   175f0:	e5941008 	ldr	r1, [r4, #8]
   175f4:	e594e00c 	ldr	lr, [r4, #12]
   175f8:	e5d42006 	ldrb	r2, [r4, #6]
   175fc:	e151000e 	cmp	r1, lr
   17600:	8affffde 	bhi	17580 <f_puts+0x1e4>
   17604:	e3822020 	orr	r2, r2, #32
   17608:	e5c42006 	strb	r2, [r4, #6]
   1760c:	eaffff77 	b	173f0 <f_puts+0x54>
   17610:	e1a00003 	mov	r0, r3
   17614:	ebffddd4 	bl	ed6c <create_chain>
   17618:	e5840010 	str	r0, [r4, #16]
   1761c:	eafffff0 	b	175e4 <f_puts+0x248>
   17620:	e1e0cc8c 	mvn	ip, ip, lsl #25
   17624:	e1e0ccac 	mvn	ip, ip, lsr #25
   17628:	e5c4c006 	strb	ip, [r4, #6]
   1762c:	eaffff6f 	b	173f0 <f_puts+0x54>
   17630:	e1a00009 	mov	r0, r9
   17634:	eaffff6e 	b	173f4 <f_puts+0x58>
   17638:	e5d43006 	ldrb	r3, [r4, #6]
   1763c:	e1e03c83 	mvn	r3, r3, lsl #25
   17640:	e1e03ca3 	mvn	r3, r3, lsr #25
   17644:	e5c43006 	strb	r3, [r4, #6]
   17648:	eaffff68 	b	173f0 <f_puts+0x54>

0001764c <f_printf>:
   1764c:	e92d000e 	push	{r1, r2, r3}
   17650:	e3a03000 	mov	r3, #0
   17654:	e92d4ff0 	push	{r4, r5, r6, r7, r8, r9, sl, fp, lr}
   17658:	e24dd038 	sub	sp, sp, #56	; 0x38
   1765c:	e58d3008 	str	r3, [sp, #8]
   17660:	e59d905c 	ldr	r9, [sp, #92]	; 0x5c
   17664:	e28d3060 	add	r3, sp, #96	; 0x60
   17668:	e58d0004 	str	r0, [sp, #4]
   1766c:	e58d3020 	str	r3, [sp, #32]
   17670:	e5d90000 	ldrb	r0, [r9]
   17674:	e3500000 	cmp	r0, #0
   17678:	0a00000c 	beq	176b0 <f_printf+0x64>
   1767c:	e3500025 	cmp	r0, #37	; 0x25
   17680:	0a00000f 	beq	176c4 <f_printf+0x78>
   17684:	e59d1004 	ldr	r1, [sp, #4]
   17688:	ebfffea2 	bl	17118 <f_putc>
   1768c:	e3700001 	cmn	r0, #1
   17690:	0a0000ee 	beq	17a50 <f_printf+0x404>
   17694:	e2899001 	add	r9, r9, #1
   17698:	e59d3008 	ldr	r3, [sp, #8]
   1769c:	e5d90000 	ldrb	r0, [r9]
   176a0:	e2833001 	add	r3, r3, #1
   176a4:	e3500000 	cmp	r0, #0
   176a8:	e58d3008 	str	r3, [sp, #8]
   176ac:	1afffff2 	bne	1767c <f_printf+0x30>
   176b0:	e59d0008 	ldr	r0, [sp, #8]
   176b4:	e28dd038 	add	sp, sp, #56	; 0x38
   176b8:	e8bd4ff0 	pop	{r4, r5, r6, r7, r8, r9, sl, fp, lr}
   176bc:	e28dd00c 	add	sp, sp, #12
   176c0:	e12fff1e 	bx	lr
   176c4:	e5d90001 	ldrb	r0, [r9, #1]
   176c8:	e3500030 	cmp	r0, #48	; 0x30
   176cc:	0a000138 	beq	17bb4 <f_printf+0x568>
   176d0:	e350002d 	cmp	r0, #45	; 0x2d
   176d4:	0a000146 	beq	17bf4 <f_printf+0x5a8>
   176d8:	e3a03000 	mov	r3, #0
   176dc:	e3a02004 	mov	r2, #4
   176e0:	e1a08003 	mov	r8, r3
   176e4:	e58d300c 	str	r3, [sp, #12]
   176e8:	e2899002 	add	r9, r9, #2
   176ec:	e2403030 	sub	r3, r0, #48	; 0x30
   176f0:	e3530009 	cmp	r3, #9
   176f4:	e3a04000 	mov	r4, #0
   176f8:	8a000006 	bhi	17718 <f_printf+0xcc>
   176fc:	e0844104 	add	r4, r4, r4, lsl #2
   17700:	e0804084 	add	r4, r0, r4, lsl #1
   17704:	e4d90001 	ldrb	r0, [r9], #1
   17708:	e2444030 	sub	r4, r4, #48	; 0x30
   1770c:	e2403030 	sub	r3, r0, #48	; 0x30
   17710:	e3530009 	cmp	r3, #9
   17714:	9afffff8 	bls	176fc <f_printf+0xb0>
   17718:	e20030df 	and	r3, r0, #223	; 0xdf
   1771c:	e353004c 	cmp	r3, #76	; 0x4c
   17720:	05d90000 	ldrbeq	r0, [r9]
   17724:	01a08002 	moveq	r8, r2
   17728:	03a01004 	moveq	r1, #4
   1772c:	02899001 	addeq	r9, r9, #1
   17730:	13a01000 	movne	r1, #0
   17734:	e3500000 	cmp	r0, #0
   17738:	0affffdc 	beq	176b0 <f_printf+0x64>
   1773c:	e2403061 	sub	r3, r0, #97	; 0x61
   17740:	e3530019 	cmp	r3, #25
   17744:	81a03000 	movhi	r3, r0
   17748:	92403020 	subls	r3, r0, #32
   1774c:	96ef3073 	uxtbls	r3, r3
   17750:	e2432042 	sub	r2, r3, #66	; 0x42
   17754:	e3520016 	cmp	r2, #22
   17758:	979ff102 	ldrls	pc, [pc, r2, lsl #2]
   1775c:	ea0000f2 	b	17b2c <f_printf+0x4e0>
   17760:	00017a00 	andeq	r7, r1, r0, lsl #20
   17764:	00017a20 	andeq	r7, r1, r0, lsr #20
   17768:	000177bc 			; <UNDEFINED> instruction: 0x000177bc
   1776c:	00017b2c 	andeq	r7, r1, ip, lsr #22
   17770:	00017b2c 	andeq	r7, r1, ip, lsr #22
   17774:	00017b2c 	andeq	r7, r1, ip, lsr #22
   17778:	00017b2c 	andeq	r7, r1, ip, lsr #22
   1777c:	00017b2c 	andeq	r7, r1, ip, lsr #22
   17780:	00017b2c 	andeq	r7, r1, ip, lsr #22
   17784:	00017b2c 	andeq	r7, r1, ip, lsr #22
   17788:	00017b2c 	andeq	r7, r1, ip, lsr #22
   1778c:	00017b2c 	andeq	r7, r1, ip, lsr #22
   17790:	00017b2c 	andeq	r7, r1, ip, lsr #22
   17794:	00017b24 	andeq	r7, r1, r4, lsr #22
   17798:	00017b2c 	andeq	r7, r1, ip, lsr #22
   1779c:	00017b2c 	andeq	r7, r1, ip, lsr #22
   177a0:	00017b2c 	andeq	r7, r1, ip, lsr #22
   177a4:	00017a64 	andeq	r7, r1, r4, ror #20
   177a8:	00017b2c 	andeq	r7, r1, ip, lsr #22
   177ac:	000177bc 			; <UNDEFINED> instruction: 0x000177bc
   177b0:	00017b2c 	andeq	r7, r1, ip, lsr #22
   177b4:	00017b2c 	andeq	r7, r1, ip, lsr #22
   177b8:	00017a5c 	andeq	r7, r1, ip, asr sl
   177bc:	e3510000 	cmp	r1, #0
   177c0:	0a000102 	beq	17bd0 <f_printf+0x584>
   177c4:	e3a0600a 	mov	r6, #10
   177c8:	e59d2020 	ldr	r2, [sp, #32]
   177cc:	e2821004 	add	r1, r2, #4
   177d0:	e58d1020 	str	r1, [sp, #32]
   177d4:	e592b000 	ldr	fp, [r2]
   177d8:	e2433044 	sub	r3, r3, #68	; 0x44
   177dc:	e16f3f13 	clz	r3, r3
   177e0:	e1a032a3 	lsr	r3, r3, #5
   177e4:	e0133fab 	ands	r3, r3, fp, lsr #31
   177e8:	0a000005 	beq	17804 <f_printf+0x1b8>
   177ec:	e208c002 	and	ip, r8, #2
   177f0:	e3883008 	orr	r3, r8, #8
   177f4:	e6ef207c 	uxtb	r2, ip
   177f8:	e26bb000 	rsb	fp, fp, #0
   177fc:	e58d200c 	str	r2, [sp, #12]
   17800:	e6ef8073 	uxtb	r8, r3
   17804:	e28d3028 	add	r3, sp, #40	; 0x28
   17808:	e3500078 	cmp	r0, #120	; 0x78
   1780c:	e58d3010 	str	r3, [sp, #16]
   17810:	e1a07003 	mov	r7, r3
   17814:	e3a05000 	mov	r5, #0
   17818:	0a000061 	beq	179a4 <f_printf+0x358>
   1781c:	e1a0000b 	mov	r0, fp
   17820:	e1a01006 	mov	r1, r6
   17824:	eb0015d0 	bl	1cf6c <__aeabi_uidivmod>
   17828:	e1a0a001 	mov	sl, r1
   1782c:	e1a0000b 	mov	r0, fp
   17830:	e1a01006 	mov	r1, r6
   17834:	eb001551 	bl	1cd80 <__aeabi_uidiv>
   17838:	e6ef307a 	uxtb	r3, sl
   1783c:	e2832007 	add	r2, r3, #7
   17840:	e6ef2072 	uxtb	r2, r2
   17844:	e35a0009 	cmp	sl, #9
   17848:	81a03002 	movhi	r3, r2
   1784c:	e2855001 	add	r5, r5, #1
   17850:	e2902000 	adds	r2, r0, #0
   17854:	13a02001 	movne	r2, #1
   17858:	e355000f 	cmp	r5, #15
   1785c:	83a02000 	movhi	r2, #0
   17860:	e2833030 	add	r3, r3, #48	; 0x30
   17864:	e3520000 	cmp	r2, #0
   17868:	e4c73001 	strb	r3, [r7], #1
   1786c:	e1a0b000 	mov	fp, r0
   17870:	1affffe9 	bne	1781c <f_printf+0x1d0>
   17874:	e3180008 	tst	r8, #8
   17878:	13a0202d 	movne	r2, #45	; 0x2d
   1787c:	128d3038 	addne	r3, sp, #56	; 0x38
   17880:	10833005 	addne	r3, r3, r5
   17884:	15432010 	strbne	r2, [r3, #-16]
   17888:	e59d300c 	ldr	r3, [sp, #12]
   1788c:	12855001 	addne	r5, r5, #1
   17890:	e3180001 	tst	r8, #1
   17894:	03a0a020 	moveq	sl, #32
   17898:	13a0a030 	movne	sl, #48	; 0x30
   1789c:	e3530000 	cmp	r3, #0
   178a0:	1a0000fc 	bne	17c98 <f_printf+0x64c>
   178a4:	e1550004 	cmp	r5, r4
   178a8:	e2856001 	add	r6, r5, #1
   178ac:	2a0000fe 	bcs	17cac <f_printf+0x660>
   178b0:	e1a0b003 	mov	fp, r3
   178b4:	e2843001 	add	r3, r4, #1
   178b8:	e58d5014 	str	r5, [sp, #20]
   178bc:	e1a05003 	mov	r5, r3
   178c0:	e58d905c 	str	r9, [sp, #92]	; 0x5c
   178c4:	e58d400c 	str	r4, [sp, #12]
   178c8:	e1a0900b 	mov	r9, fp
   178cc:	e59d4004 	ldr	r4, [sp, #4]
   178d0:	e59db05c 	ldr	fp, [sp, #92]	; 0x5c
   178d4:	e28d701c 	add	r7, sp, #28
   178d8:	e28d8024 	add	r8, sp, #36	; 0x24
   178dc:	e1a03008 	mov	r3, r8
   178e0:	e1a00004 	mov	r0, r4
   178e4:	e1a01007 	mov	r1, r7
   178e8:	e3a02001 	mov	r2, #1
   178ec:	e5cda01c 	strb	sl, [sp, #28]
   178f0:	ebffeda3 	bl	12f84 <f_write>
   178f4:	e59d3024 	ldr	r3, [sp, #36]	; 0x24
   178f8:	e2866001 	add	r6, r6, #1
   178fc:	e3530001 	cmp	r3, #1
   17900:	03a03001 	moveq	r3, #1
   17904:	13e03000 	mvnne	r3, #0
   17908:	e1560005 	cmp	r6, r5
   1790c:	e0899003 	add	r9, r9, r3
   17910:	1afffff1 	bne	178dc <f_printf+0x290>
   17914:	e58db05c 	str	fp, [sp, #92]	; 0x5c
   17918:	e59d400c 	ldr	r4, [sp, #12]
   1791c:	e1a0b009 	mov	fp, r9
   17920:	e59d5014 	ldr	r5, [sp, #20]
   17924:	e59d905c 	ldr	r9, [sp, #92]	; 0x5c
   17928:	e59d3010 	ldr	r3, [sp, #16]
   1792c:	e58d400c 	str	r4, [sp, #12]
   17930:	e0835005 	add	r5, r3, r5
   17934:	e58d6010 	str	r6, [sp, #16]
   17938:	e59d4004 	ldr	r4, [sp, #4]
   1793c:	e1a0a003 	mov	sl, r3
   17940:	ea00000c 	b	17978 <f_printf+0x32c>
   17944:	e1a03008 	mov	r3, r8
   17948:	e1a00004 	mov	r0, r4
   1794c:	e1a01007 	mov	r1, r7
   17950:	e3a02001 	mov	r2, #1
   17954:	e5cd601c 	strb	r6, [sp, #28]
   17958:	ebffed89 	bl	12f84 <f_write>
   1795c:	e59d3024 	ldr	r3, [sp, #36]	; 0x24
   17960:	e3530001 	cmp	r3, #1
   17964:	03a03001 	moveq	r3, #1
   17968:	13e03000 	mvnne	r3, #0
   1796c:	e155000a 	cmp	r5, sl
   17970:	e08bb003 	add	fp, fp, r3
   17974:	0a000070 	beq	17b3c <f_printf+0x4f0>
   17978:	e5756001 	ldrb	r6, [r5, #-1]!
   1797c:	e356000a 	cmp	r6, #10
   17980:	1affffef 	bne	17944 <f_printf+0x2f8>
   17984:	e3a0c00d 	mov	ip, #13
   17988:	e1a00004 	mov	r0, r4
   1798c:	e1a01007 	mov	r1, r7
   17990:	e3a02001 	mov	r2, #1
   17994:	e1a03008 	mov	r3, r8
   17998:	e5cdc01c 	strb	ip, [sp, #28]
   1799c:	ebffed78 	bl	12f84 <f_write>
   179a0:	eaffffe7 	b	17944 <f_printf+0x2f8>
   179a4:	e1a0000b 	mov	r0, fp
   179a8:	e1a01006 	mov	r1, r6
   179ac:	eb00156e 	bl	1cf6c <__aeabi_uidivmod>
   179b0:	e1a0a001 	mov	sl, r1
   179b4:	e1a0000b 	mov	r0, fp
   179b8:	e1a01006 	mov	r1, r6
   179bc:	eb0014ef 	bl	1cd80 <__aeabi_uidiv>
   179c0:	e6ef307a 	uxtb	r3, sl
   179c4:	e2832027 	add	r2, r3, #39	; 0x27
   179c8:	e6ef2072 	uxtb	r2, r2
   179cc:	e35a0009 	cmp	sl, #9
   179d0:	81a03002 	movhi	r3, r2
   179d4:	e2855001 	add	r5, r5, #1
   179d8:	e2902000 	adds	r2, r0, #0
   179dc:	13a02001 	movne	r2, #1
   179e0:	e355000f 	cmp	r5, #15
   179e4:	83a02000 	movhi	r2, #0
   179e8:	e2833030 	add	r3, r3, #48	; 0x30
   179ec:	e3520000 	cmp	r2, #0
   179f0:	e4c73001 	strb	r3, [r7], #1
   179f4:	e1a0b000 	mov	fp, r0
   179f8:	1affffe9 	bne	179a4 <f_printf+0x358>
   179fc:	eaffff9c 	b	17874 <f_printf+0x228>
   17a00:	e3a06002 	mov	r6, #2
   17a04:	e3510000 	cmp	r1, #0
   17a08:	1affff6e 	bne	177c8 <f_printf+0x17c>
   17a0c:	e59d3020 	ldr	r3, [sp, #32]
   17a10:	e2832004 	add	r2, r3, #4
   17a14:	e58d2020 	str	r2, [sp, #32]
   17a18:	e593b000 	ldr	fp, [r3]
   17a1c:	eaffff78 	b	17804 <f_printf+0x1b8>
   17a20:	e59d3020 	ldr	r3, [sp, #32]
   17a24:	e59d1004 	ldr	r1, [sp, #4]
   17a28:	e2832004 	add	r2, r3, #4
   17a2c:	e5d30000 	ldrb	r0, [r3]
   17a30:	e58d2020 	str	r2, [sp, #32]
   17a34:	ebfffdb7 	bl	17118 <f_putc>
   17a38:	e1a0b000 	mov	fp, r0
   17a3c:	e59d3008 	ldr	r3, [sp, #8]
   17a40:	e37b0001 	cmn	fp, #1
   17a44:	e083300b 	add	r3, r3, fp
   17a48:	e58d3008 	str	r3, [sp, #8]
   17a4c:	1affff07 	bne	17670 <f_printf+0x24>
   17a50:	e3e03000 	mvn	r3, #0
   17a54:	e58d3008 	str	r3, [sp, #8]
   17a58:	eaffff14 	b	176b0 <f_printf+0x64>
   17a5c:	e3a06010 	mov	r6, #16
   17a60:	eaffffe7 	b	17a04 <f_printf+0x3b8>
   17a64:	e59d3020 	ldr	r3, [sp, #32]
   17a68:	e5936000 	ldr	r6, [r3]
   17a6c:	e2833004 	add	r3, r3, #4
   17a70:	e5d6b000 	ldrb	fp, [r6]
   17a74:	e58d3020 	str	r3, [sp, #32]
   17a78:	e35b0000 	cmp	fp, #0
   17a7c:	0a00008e 	beq	17cbc <f_printf+0x670>
   17a80:	e1a03006 	mov	r3, r6
   17a84:	e3a0b000 	mov	fp, #0
   17a88:	e5f32001 	ldrb	r2, [r3, #1]!
   17a8c:	e28bb001 	add	fp, fp, #1
   17a90:	e3520000 	cmp	r2, #0
   17a94:	1afffffb 	bne	17a88 <f_printf+0x43c>
   17a98:	e28b5001 	add	r5, fp, #1
   17a9c:	e59d300c 	ldr	r3, [sp, #12]
   17aa0:	e3530000 	cmp	r3, #0
   17aa4:	13a0a000 	movne	sl, #0
   17aa8:	0a00005b 	beq	17c1c <f_printf+0x5d0>
   17aac:	e1a00006 	mov	r0, r6
   17ab0:	e59d6004 	ldr	r6, [sp, #4]
   17ab4:	e1a01006 	mov	r1, r6
   17ab8:	ebfffe37 	bl	1739c <f_puts>
   17abc:	e15b0004 	cmp	fp, r4
   17ac0:	e08ab000 	add	fp, sl, r0
   17ac4:	2a000051 	bcs	17c10 <f_printf+0x5c4>
   17ac8:	e28d701c 	add	r7, sp, #28
   17acc:	e28d8024 	add	r8, sp, #36	; 0x24
   17ad0:	ea000003 	b	17ae4 <f_printf+0x498>
   17ad4:	e1540005 	cmp	r4, r5
   17ad8:	e28bb001 	add	fp, fp, #1
   17adc:	9affffd6 	bls	17a3c <f_printf+0x3f0>
   17ae0:	e1a05002 	mov	r5, r2
   17ae4:	e3a0c020 	mov	ip, #32
   17ae8:	e3a02001 	mov	r2, #1
   17aec:	e1a03008 	mov	r3, r8
   17af0:	e1a00006 	mov	r0, r6
   17af4:	e1a01007 	mov	r1, r7
   17af8:	e5cdc01c 	strb	ip, [sp, #28]
   17afc:	ebffed20 	bl	12f84 <f_write>
   17b00:	e59d3024 	ldr	r3, [sp, #36]	; 0x24
   17b04:	e2852001 	add	r2, r5, #1
   17b08:	e3530001 	cmp	r3, #1
   17b0c:	0afffff0 	beq	17ad4 <f_printf+0x488>
   17b10:	e1540005 	cmp	r4, r5
   17b14:	e24bb001 	sub	fp, fp, #1
   17b18:	e2852001 	add	r2, r5, #1
   17b1c:	8affffef 	bhi	17ae0 <f_printf+0x494>
   17b20:	eaffffca 	b	17a50 <f_printf+0x404>
   17b24:	e3a06008 	mov	r6, #8
   17b28:	eaffffb5 	b	17a04 <f_printf+0x3b8>
   17b2c:	e59d1004 	ldr	r1, [sp, #4]
   17b30:	ebfffd78 	bl	17118 <f_putc>
   17b34:	e1a0b000 	mov	fp, r0
   17b38:	eaffffbf 	b	17a3c <f_printf+0x3f0>
   17b3c:	e59d400c 	ldr	r4, [sp, #12]
   17b40:	e59d6010 	ldr	r6, [sp, #16]
   17b44:	e1560004 	cmp	r6, r4
   17b48:	3a000003 	bcc	17b5c <f_printf+0x510>
   17b4c:	ea000013 	b	17ba0 <f_printf+0x554>
   17b50:	e1540006 	cmp	r4, r6
   17b54:	e28bb001 	add	fp, fp, #1
   17b58:	9affffb7 	bls	17a3c <f_printf+0x3f0>
   17b5c:	e3a0c020 	mov	ip, #32
   17b60:	e3a02001 	mov	r2, #1
   17b64:	e59d0004 	ldr	r0, [sp, #4]
   17b68:	e1a01007 	mov	r1, r7
   17b6c:	e1a03008 	mov	r3, r8
   17b70:	e5cdc01c 	strb	ip, [sp, #28]
   17b74:	ebffed02 	bl	12f84 <f_write>
   17b78:	e59d2024 	ldr	r2, [sp, #36]	; 0x24
   17b7c:	e2866001 	add	r6, r6, #1
   17b80:	e3520001 	cmp	r2, #1
   17b84:	0afffff1 	beq	17b50 <f_printf+0x504>
   17b88:	e1540006 	cmp	r4, r6
   17b8c:	e24bb001 	sub	fp, fp, #1
   17b90:	8afffff1 	bhi	17b5c <f_printf+0x510>
   17b94:	e3e03000 	mvn	r3, #0
   17b98:	e58d3008 	str	r3, [sp, #8]
   17b9c:	eafffec3 	b	176b0 <f_printf+0x64>
   17ba0:	e3730001 	cmn	r3, #1
   17ba4:	1affffa4 	bne	17a3c <f_printf+0x3f0>
   17ba8:	e3e03000 	mvn	r3, #0
   17bac:	e58d3008 	str	r3, [sp, #8]
   17bb0:	eafffebe 	b	176b0 <f_printf+0x64>
   17bb4:	e3a03000 	mov	r3, #0
   17bb8:	e5d90002 	ldrb	r0, [r9, #2]
   17bbc:	e58d300c 	str	r3, [sp, #12]
   17bc0:	e2899003 	add	r9, r9, #3
   17bc4:	e3a02005 	mov	r2, #5
   17bc8:	e3a08001 	mov	r8, #1
   17bcc:	eafffec6 	b	176ec <f_printf+0xa0>
   17bd0:	e3530044 	cmp	r3, #68	; 0x44
   17bd4:	13a0600a 	movne	r6, #10
   17bd8:	1affff8b 	bne	17a0c <f_printf+0x3c0>
   17bdc:	e59d2020 	ldr	r2, [sp, #32]
   17be0:	e3a0600a 	mov	r6, #10
   17be4:	e2821004 	add	r1, r2, #4
   17be8:	e58d1020 	str	r1, [sp, #32]
   17bec:	e592b000 	ldr	fp, [r2]
   17bf0:	eafffef8 	b	177d8 <f_printf+0x18c>
   17bf4:	e3a03002 	mov	r3, #2
   17bf8:	e5d90002 	ldrb	r0, [r9, #2]
   17bfc:	e58d300c 	str	r3, [sp, #12]
   17c00:	e3a02006 	mov	r2, #6
   17c04:	e1a08003 	mov	r8, r3
   17c08:	e2899003 	add	r9, r9, #3
   17c0c:	eafffeb6 	b	176ec <f_printf+0xa0>
   17c10:	e3700001 	cmn	r0, #1
   17c14:	1affff88 	bne	17a3c <f_printf+0x3f0>
   17c18:	eaffff8c 	b	17a50 <f_printf+0x404>
   17c1c:	e154000b 	cmp	r4, fp
   17c20:	91a0b005 	movls	fp, r5
   17c24:	91a0a003 	movls	sl, r3
   17c28:	92855001 	addls	r5, r5, #1
   17c2c:	9affff9e 	bls	17aac <f_printf+0x460>
   17c30:	e28d701c 	add	r7, sp, #28
   17c34:	e28d8024 	add	r8, sp, #36	; 0x24
   17c38:	e1a0b008 	mov	fp, r8
   17c3c:	e59da00c 	ldr	sl, [sp, #12]
   17c40:	e1a08007 	mov	r8, r7
   17c44:	e59d7004 	ldr	r7, [sp, #4]
   17c48:	ea000000 	b	17c50 <f_printf+0x604>
   17c4c:	e1a05002 	mov	r5, r2
   17c50:	e3a0c020 	mov	ip, #32
   17c54:	e3a02001 	mov	r2, #1
   17c58:	e1a0300b 	mov	r3, fp
   17c5c:	e1a00007 	mov	r0, r7
   17c60:	e1a01008 	mov	r1, r8
   17c64:	e5cdc01c 	strb	ip, [sp, #28]
   17c68:	ebffecc5 	bl	12f84 <f_write>
   17c6c:	e59d3024 	ldr	r3, [sp, #36]	; 0x24
   17c70:	e2852001 	add	r2, r5, #1
   17c74:	e3530001 	cmp	r3, #1
   17c78:	03a03001 	moveq	r3, #1
   17c7c:	13e03000 	mvnne	r3, #0
   17c80:	e1540005 	cmp	r4, r5
   17c84:	e08aa003 	add	sl, sl, r3
   17c88:	8affffef 	bhi	17c4c <f_printf+0x600>
   17c8c:	e1a0b002 	mov	fp, r2
   17c90:	e2825001 	add	r5, r2, #1
   17c94:	eaffff84 	b	17aac <f_printf+0x460>
   17c98:	e1a06005 	mov	r6, r5
   17c9c:	e3a0b000 	mov	fp, #0
   17ca0:	e28d701c 	add	r7, sp, #28
   17ca4:	e28d8024 	add	r8, sp, #36	; 0x24
   17ca8:	eaffff1e 	b	17928 <f_printf+0x2dc>
   17cac:	e59db00c 	ldr	fp, [sp, #12]
   17cb0:	e28d701c 	add	r7, sp, #28
   17cb4:	e28d8024 	add	r8, sp, #36	; 0x24
   17cb8:	eaffff1a 	b	17928 <f_printf+0x2dc>
   17cbc:	e3a05001 	mov	r5, #1
   17cc0:	eaffff75 	b	17a9c <f_printf+0x450>

00017cc4 <sync_window.part.2>:
   17cc4:	e92d40f8 	push	{r3, r4, r5, r6, r7, lr}
   17cc8:	e5905030 	ldr	r5, [r0, #48]	; 0x30
   17ccc:	e2807034 	add	r7, r0, #52	; 0x34
   17cd0:	e1a04000 	mov	r4, r0
   17cd4:	e1a02005 	mov	r2, r5
   17cd8:	e1a01007 	mov	r1, r7
   17cdc:	e5d00001 	ldrb	r0, [r0, #1]
   17ce0:	e3a03001 	mov	r3, #1
   17ce4:	eb000073 	bl	17eb8 <disk_write>
   17ce8:	e3500000 	cmp	r0, #0
   17cec:	1a000015 	bne	17d48 <sync_window.part.2+0x84>
   17cf0:	e5943024 	ldr	r3, [r4, #36]	; 0x24
   17cf4:	e5c40004 	strb	r0, [r4, #4]
   17cf8:	e1550003 	cmp	r5, r3
   17cfc:	2a000001 	bcs	17d08 <sync_window.part.2+0x44>
   17d00:	e3a00000 	mov	r0, #0
   17d04:	e8bd80f8 	pop	{r3, r4, r5, r6, r7, pc}
   17d08:	e594201c 	ldr	r2, [r4, #28]
   17d0c:	e0833002 	add	r3, r3, r2
   17d10:	e1550003 	cmp	r5, r3
   17d14:	35d46003 	ldrbcc	r6, [r4, #3]
   17d18:	2afffff8 	bcs	17d00 <sync_window.part.2+0x3c>
   17d1c:	e3560001 	cmp	r6, #1
   17d20:	9afffff6 	bls	17d00 <sync_window.part.2+0x3c>
   17d24:	e594301c 	ldr	r3, [r4, #28]
   17d28:	e5d40001 	ldrb	r0, [r4, #1]
   17d2c:	e0855003 	add	r5, r5, r3
   17d30:	e1a02005 	mov	r2, r5
   17d34:	e1a01007 	mov	r1, r7
   17d38:	e3a03001 	mov	r3, #1
   17d3c:	eb00005d 	bl	17eb8 <disk_write>
   17d40:	e2466001 	sub	r6, r6, #1
   17d44:	eafffff4 	b	17d1c <sync_window.part.2+0x58>
   17d48:	e3a00001 	mov	r0, #1
   17d4c:	e8bd80f8 	pop	{r3, r4, r5, r6, r7, pc}

00017d50 <ff_convert>:
   17d50:	e350007f 	cmp	r0, #127	; 0x7f
   17d54:	912fff1e 	bxls	lr
   17d58:	e3510000 	cmp	r1, #0
   17d5c:	1a00000b 	bne	17d90 <ff_convert+0x40>
   17d60:	e59f304c 	ldr	r3, [pc, #76]	; 17db4 <ff_convert+0x64>
   17d64:	ea000002 	b	17d74 <ff_convert+0x24>
   17d68:	e6ff107c 	uxth	r1, ip
   17d6c:	e3510080 	cmp	r1, #128	; 0x80
   17d70:	0a00000d 	beq	17dac <ff_convert+0x5c>
   17d74:	e1f320b2 	ldrh	r2, [r3, #2]!
   17d78:	e281c001 	add	ip, r1, #1
   17d7c:	e1520000 	cmp	r2, r0
   17d80:	1afffff8 	bne	17d68 <ff_convert+0x18>
   17d84:	e2811080 	add	r1, r1, #128	; 0x80
   17d88:	e6ff0071 	uxth	r0, r1
   17d8c:	e12fff1e 	bx	lr
   17d90:	e35000ff 	cmp	r0, #255	; 0xff
   17d94:	8a000004 	bhi	17dac <ff_convert+0x5c>
   17d98:	e2401080 	sub	r1, r0, #128	; 0x80
   17d9c:	e59f3014 	ldr	r3, [pc, #20]	; 17db8 <ff_convert+0x68>
   17da0:	e1a01081 	lsl	r1, r1, #1
   17da4:	e19300b1 	ldrh	r0, [r3, r1]
   17da8:	e12fff1e 	bx	lr
   17dac:	e3a00000 	mov	r0, #0
   17db0:	e12fff1e 	bx	lr
   17db4:	0001daae 	andeq	sp, r1, lr, lsr #21
   17db8:	0001dab0 			; <UNDEFINED> instruction: 0x0001dab0

00017dbc <ff_wtoupper>:
   17dbc:	e3500061 	cmp	r0, #97	; 0x61
   17dc0:	e3a02000 	mov	r2, #0
   17dc4:	0a000006 	beq	17de4 <ff_wtoupper+0x28>
   17dc8:	e59f1024 	ldr	r1, [pc, #36]	; 17df4 <ff_wtoupper+0x38>
   17dcc:	e1f130b2 	ldrh	r3, [r1, #2]!
   17dd0:	e2822001 	add	r2, r2, #1
   17dd4:	e3530000 	cmp	r3, #0
   17dd8:	012fff1e 	bxeq	lr
   17ddc:	e1530000 	cmp	r3, r0
   17de0:	1afffff9 	bne	17dcc <ff_wtoupper+0x10>
   17de4:	e59f300c 	ldr	r3, [pc, #12]	; 17df8 <ff_wtoupper+0x3c>
   17de8:	e1a02082 	lsl	r2, r2, #1
   17dec:	e19300b2 	ldrh	r0, [r3, r2]
   17df0:	e12fff1e 	bx	lr
   17df4:	0001dbb0 			; <UNDEFINED> instruction: 0x0001dbb0
   17df8:	0001dd90 	muleq	r1, r0, sp

00017dfc <disk_initialize>:
   17dfc:	e3500000 	cmp	r0, #0
   17e00:	e92d4008 	push	{r3, lr}
   17e04:	0a000003 	beq	17e18 <disk_initialize+0x1c>
   17e08:	e59f3028 	ldr	r3, [pc, #40]	; 17e38 <disk_initialize+0x3c>
   17e0c:	e5d30000 	ldrb	r0, [r3]
   17e10:	e6ef0070 	uxtb	r0, r0
   17e14:	e8bd8008 	pop	{r3, pc}
   17e18:	e59f001c 	ldr	r0, [pc, #28]	; 17e3c <disk_initialize+0x40>
   17e1c:	eb000060 	bl	17fa4 <sd_card_init>
   17e20:	e59f3010 	ldr	r3, [pc, #16]	; 17e38 <disk_initialize+0x3c>
   17e24:	e3500000 	cmp	r0, #0
   17e28:	05d32000 	ldrbeq	r2, [r3]
   17e2c:	020220fe 	andeq	r2, r2, #254	; 0xfe
   17e30:	05c32000 	strbeq	r2, [r3]
   17e34:	eafffff4 	b	17e0c <disk_initialize+0x10>
   17e38:	0001edbe 			; <UNDEFINED> instruction: 0x0001edbe
   17e3c:	00021c48 	andeq	r1, r2, r8, asr #24

00017e40 <disk_read>:
   17e40:	e16fcf13 	clz	ip, r3
   17e44:	e1a0c2ac 	lsr	ip, ip, #5
   17e48:	e3500000 	cmp	r0, #0
   17e4c:	01a0000c 	moveq	r0, ip
   17e50:	138c0001 	orrne	r0, ip, #1
   17e54:	e3500000 	cmp	r0, #0
   17e58:	0a000001 	beq	17e64 <disk_read+0x24>
   17e5c:	e3a00004 	mov	r0, #4
   17e60:	e12fff1e 	bx	lr
   17e64:	e59f0044 	ldr	r0, [pc, #68]	; 17eb0 <disk_read+0x70>
   17e68:	e5d00000 	ldrb	r0, [r0]
   17e6c:	e3100001 	tst	r0, #1
   17e70:	0a000001 	beq	17e7c <disk_read+0x3c>
   17e74:	e3a00003 	mov	r0, #3
   17e78:	e12fff1e 	bx	lr
   17e7c:	e92d4010 	push	{r4, lr}
   17e80:	e1a04003 	mov	r4, r3
   17e84:	e1a03002 	mov	r3, r2
   17e88:	e59f2024 	ldr	r2, [pc, #36]	; 17eb4 <disk_read+0x74>
   17e8c:	e5920000 	ldr	r0, [r2]
   17e90:	e5902010 	ldr	r2, [r0, #16]
   17e94:	e0040492 	mul	r4, r2, r4
   17e98:	e1a02004 	mov	r2, r4
   17e9c:	eb000258 	bl	18804 <sd_read>
   17ea0:	e1540000 	cmp	r4, r0
   17ea4:	93a00000 	movls	r0, #0
   17ea8:	83a00001 	movhi	r0, #1
   17eac:	e8bd8010 	pop	{r4, pc}
   17eb0:	0001edbe 			; <UNDEFINED> instruction: 0x0001edbe
   17eb4:	00021c48 	andeq	r1, r2, r8, asr #24

00017eb8 <disk_write>:
   17eb8:	e3a00000 	mov	r0, #0
   17ebc:	e12fff1e 	bx	lr

00017ec0 <disk_status>:
   17ec0:	e3500000 	cmp	r0, #0
   17ec4:	059f300c 	ldreq	r3, [pc, #12]	; 17ed8 <disk_status+0x18>
   17ec8:	05d30000 	ldrbeq	r0, [r3]
   17ecc:	06ef0070 	uxtbeq	r0, r0
   17ed0:	13a00001 	movne	r0, #1
   17ed4:	e12fff1e 	bx	lr
   17ed8:	0001edbe 			; <UNDEFINED> instruction: 0x0001edbe

00017edc <disk_ioctl>:
   17edc:	e3510003 	cmp	r1, #3
   17ee0:	979ff101 	ldrls	pc, [pc, r1, lsl #2]
   17ee4:	ea000011 	b	17f30 <disk_ioctl+0x54>
   17ee8:	00017f10 	andeq	r7, r1, r0, lsl pc
   17eec:	00017f18 	andeq	r7, r1, r8, lsl pc
   17ef0:	00017ef8 	strdeq	r7, [r1], -r8
   17ef4:	00017ef8 	strdeq	r7, [r1], -r8
   17ef8:	e59f3038 	ldr	r3, [pc, #56]	; 17f38 <disk_ioctl+0x5c>
   17efc:	e3a00000 	mov	r0, #0
   17f00:	e5933000 	ldr	r3, [r3]
   17f04:	e5933010 	ldr	r3, [r3, #16]
   17f08:	e5823000 	str	r3, [r2]
   17f0c:	e12fff1e 	bx	lr
   17f10:	e3a00000 	mov	r0, #0
   17f14:	e12fff1e 	bx	lr
   17f18:	e59f3018 	ldr	r3, [pc, #24]	; 17f38 <disk_ioctl+0x5c>
   17f1c:	e3a00000 	mov	r0, #0
   17f20:	e5933000 	ldr	r3, [r3]
   17f24:	e5933014 	ldr	r3, [r3, #20]
   17f28:	e5823000 	str	r3, [r2]
   17f2c:	e12fff1e 	bx	lr
   17f30:	e3a00004 	mov	r0, #4
   17f34:	e12fff1e 	bx	lr
   17f38:	00021c48 	andeq	r1, r2, r8, asr #24

00017f3c <get_fattime>:
   17f3c:	e3a03000 	mov	r3, #0
   17f40:	e52de004 	push	{lr}		; (str lr, [sp, #-4]!)
   17f44:	e1a00003 	mov	r0, r3
   17f48:	e24dd00c 	sub	sp, sp, #12
   17f4c:	e58d3004 	str	r3, [sp, #4]
   17f50:	eb0006f7 	bl	19b34 <sys_time>
   17f54:	e28d3008 	add	r3, sp, #8
   17f58:	e5230004 	str	r0, [r3, #-4]!
   17f5c:	e1a00003 	mov	r0, r3
   17f60:	eb000a3e 	bl	1a860 <localtime>
   17f64:	e590100c 	ldr	r1, [r0, #12]
   17f68:	e5903008 	ldr	r3, [r0, #8]
   17f6c:	e5902004 	ldr	r2, [r0, #4]
   17f70:	e1a01801 	lsl	r1, r1, #16
   17f74:	e1811583 	orr	r1, r1, r3, lsl #11
   17f78:	e590c000 	ldr	ip, [r0]
   17f7c:	e5903014 	ldr	r3, [r0, #20]
   17f80:	e1812282 	orr	r2, r1, r2, lsl #5
   17f84:	e5900010 	ldr	r0, [r0, #16]
   17f88:	e18220ac 	orr	r2, r2, ip, lsr #1
   17f8c:	e2433050 	sub	r3, r3, #80	; 0x50
   17f90:	e1823c83 	orr	r3, r2, r3, lsl #25
   17f94:	e2800001 	add	r0, r0, #1
   17f98:	e1830a80 	orr	r0, r3, r0, lsl #21
   17f9c:	e28dd00c 	add	sp, sp, #12
   17fa0:	e49df004 	pop	{pc}		; (ldr pc, [sp], #4)

00017fa4 <sd_card_init>:
   17fa4:	e92d40f8 	push	{r3, r4, r5, r6, r7, lr}
   17fa8:	e1a05000 	mov	r5, r0
   17fac:	eb00036e 	bl	18d6c <bcm2825_emmc_init>
   17fb0:	e3500000 	cmp	r0, #0
   17fb4:	1a000101 	bne	183c0 <sd_card_init+0x41c>
   17fb8:	eb000567 	bl	1955c <bcm2835_emmc_enable_all_interrupts_not_arm>
   17fbc:	e3a00e7d 	mov	r0, #2000	; 0x7d0
   17fc0:	eb000a18 	bl	1a828 <udelay>
   17fc4:	e5954000 	ldr	r4, [r5]
   17fc8:	e3540000 	cmp	r4, #0
   17fcc:	0a0000fe 	beq	183cc <sd_card_init+0x428>
   17fd0:	e3a01000 	mov	r1, #0
   17fd4:	e3a02068 	mov	r2, #104	; 0x68
   17fd8:	e1a00004 	mov	r0, r4
   17fdc:	eb000db8 	bl	1b6c4 <memset>
   17fe0:	e3a06001 	mov	r6, #1
   17fe4:	e3a02c02 	mov	r2, #512	; 0x200
   17fe8:	e59f3788 	ldr	r3, [pc, #1928]	; 18778 <sd_card_init+0x7d4>
   17fec:	e5842010 	str	r2, [r4, #16]
   17ff0:	e5843008 	str	r3, [r4, #8]
   17ff4:	e5846000 	str	r6, [r4]
   17ff8:	e5846004 	str	r6, [r4, #4]
   17ffc:	e1a00004 	mov	r0, r4
   18000:	eb0004fb 	bl	193f4 <bcm2835_emmc_handle_interrupts>
   18004:	e5947064 	ldr	r7, [r4, #100]	; 0x64
   18008:	e3570000 	cmp	r7, #0
   1800c:	13a03000 	movne	r3, #0
   18010:	15843040 	strne	r3, [r4, #64]	; 0x40
   18014:	1a00014b 	bne	18548 <sd_card_init+0x5a4>
   18018:	e59f375c 	ldr	r3, [pc, #1884]	; 1877c <sd_card_init+0x7d8>
   1801c:	e584703c 	str	r7, [r4, #60]	; 0x3c
   18020:	e1a00004 	mov	r0, r4
   18024:	e1a01007 	mov	r1, r7
   18028:	e1a02007 	mov	r2, r7
   1802c:	eb0003c7 	bl	18f50 <bcm2835_emmc_issue_command>
   18030:	e5943040 	ldr	r3, [r4, #64]	; 0x40
   18034:	e3530000 	cmp	r3, #0
   18038:	0a000142 	beq	18548 <sd_card_init+0x5a4>
   1803c:	e1a00004 	mov	r0, r4
   18040:	eb0004eb 	bl	193f4 <bcm2835_emmc_handle_interrupts>
   18044:	e5943064 	ldr	r3, [r4, #100]	; 0x64
   18048:	e3530000 	cmp	r3, #0
   1804c:	15847040 	strne	r7, [r4, #64]	; 0x40
   18050:	1a000023 	bne	180e4 <sd_card_init+0x140>
   18054:	e3a03008 	mov	r3, #8
   18058:	e59f7720 	ldr	r7, [pc, #1824]	; 18780 <sd_card_init+0x7dc>
   1805c:	e584303c 	str	r3, [r4, #60]	; 0x3c
   18060:	e1a02007 	mov	r2, r7
   18064:	e59f3710 	ldr	r3, [pc, #1808]	; 1877c <sd_card_init+0x7d8>
   18068:	e1a00004 	mov	r0, r4
   1806c:	e59f1710 	ldr	r1, [pc, #1808]	; 18784 <sd_card_init+0x7e0>
   18070:	eb0003b6 	bl	18f50 <bcm2835_emmc_issue_command>
   18074:	e5943040 	ldr	r3, [r4, #64]	; 0x40
   18078:	e3530000 	cmp	r3, #0
   1807c:	0a000018 	beq	180e4 <sd_card_init+0x140>
   18080:	e5943044 	ldr	r3, [r4, #68]	; 0x44
   18084:	e1a03a03 	lsl	r3, r3, #20
   18088:	e1570a23 	cmp	r7, r3, lsr #20
   1808c:	1a000131 	bne	18558 <sd_card_init+0x5b4>
   18090:	e1a00004 	mov	r0, r4
   18094:	eb0004d6 	bl	193f4 <bcm2835_emmc_handle_interrupts>
   18098:	e5942064 	ldr	r2, [r4, #100]	; 0x64
   1809c:	e3520000 	cmp	r2, #0
   180a0:	13a03000 	movne	r3, #0
   180a4:	15843040 	strne	r3, [r4, #64]	; 0x40
   180a8:	1a000017 	bne	1810c <sd_card_init+0x168>
   180ac:	e3a03005 	mov	r3, #5
   180b0:	e1a00004 	mov	r0, r4
   180b4:	e584303c 	str	r3, [r4, #60]	; 0x3c
   180b8:	e59f16c8 	ldr	r1, [pc, #1736]	; 18788 <sd_card_init+0x7e4>
   180bc:	e59f36c8 	ldr	r3, [pc, #1736]	; 1878c <sd_card_init+0x7e8>
   180c0:	eb0003a2 	bl	18f50 <bcm2835_emmc_issue_command>
   180c4:	e5943040 	ldr	r3, [r4, #64]	; 0x40
   180c8:	e3530000 	cmp	r3, #0
   180cc:	0a00000e 	beq	1810c <sd_card_init+0x168>
   180d0:	e59f06b8 	ldr	r0, [pc, #1720]	; 18790 <sd_card_init+0x7ec>
   180d4:	ebffd3a8 	bl	cf7c <printf>
   180d8:	e3e06000 	mvn	r6, #0
   180dc:	e1a00006 	mov	r0, r6
   180e0:	e8bd80f8 	pop	{r3, r4, r5, r6, r7, pc}
   180e4:	e594302c 	ldr	r3, [r4, #44]	; 0x2c
   180e8:	e3530000 	cmp	r3, #0
   180ec:	0a000028 	beq	18194 <sd_card_init+0x1f0>
   180f0:	e3130801 	tst	r3, #65536	; 0x10000
   180f4:	1a000023 	bne	18188 <sd_card_init+0x1e4>
   180f8:	e5941028 	ldr	r1, [r4, #40]	; 0x28
   180fc:	e59f0690 	ldr	r0, [pc, #1680]	; 18794 <sd_card_init+0x7f0>
   18100:	ebffd39d 	bl	cf7c <printf>
   18104:	e3e06000 	mvn	r6, #0
   18108:	eafffff3 	b	180dc <sd_card_init+0x138>
   1810c:	e594302c 	ldr	r3, [r4, #44]	; 0x2c
   18110:	e3530000 	cmp	r3, #0
   18114:	0a000004 	beq	1812c <sd_card_init+0x188>
   18118:	e3130801 	tst	r3, #65536	; 0x10000
   1811c:	0affffeb 	beq	180d0 <sd_card_init+0x12c>
   18120:	eb0002a3 	bl	18bb4 <bcm2835_emmc_reset_cmd>
   18124:	e3700001 	cmn	r0, #1
   18128:	0a0000a4 	beq	183c0 <sd_card_init+0x41c>
   1812c:	e1a00004 	mov	r0, r4
   18130:	eb0004af 	bl	193f4 <bcm2835_emmc_handle_interrupts>
   18134:	e5943064 	ldr	r3, [r4, #100]	; 0x64
   18138:	e3530000 	cmp	r3, #0
   1813c:	13a03000 	movne	r3, #0
   18140:	15843040 	strne	r3, [r4, #64]	; 0x40
   18144:	1a00000b 	bne	18178 <sd_card_init+0x1d4>
   18148:	e3a03037 	mov	r3, #55	; 0x37
   1814c:	e5942024 	ldr	r2, [r4, #36]	; 0x24
   18150:	e584303c 	str	r3, [r4, #60]	; 0x3c
   18154:	e3520000 	cmp	r2, #0
   18158:	11a02802 	lslne	r2, r2, #16
   1815c:	e59f3618 	ldr	r3, [pc, #1560]	; 1877c <sd_card_init+0x7d8>
   18160:	e1a00004 	mov	r0, r4
   18164:	e59f162c 	ldr	r1, [pc, #1580]	; 18798 <sd_card_init+0x7f4>
   18168:	eb000378 	bl	18f50 <bcm2835_emmc_issue_command>
   1816c:	e5943040 	ldr	r3, [r4, #64]	; 0x40
   18170:	e3530000 	cmp	r3, #0
   18174:	1a000098 	bne	183dc <sd_card_init+0x438>
   18178:	e59f061c 	ldr	r0, [pc, #1564]	; 1879c <sd_card_init+0x7f8>
   1817c:	ebffd37e 	bl	cf7c <printf>
   18180:	e3e06000 	mvn	r6, #0
   18184:	eaffffd4 	b	180dc <sd_card_init+0x138>
   18188:	eb000289 	bl	18bb4 <bcm2835_emmc_reset_cmd>
   1818c:	e3700001 	cmn	r0, #1
   18190:	0a00008a 	beq	183c0 <sd_card_init+0x41c>
   18194:	e3a06000 	mov	r6, #0
   18198:	eaffffbc 	b	18090 <sd_card_init+0xec>
   1819c:	e1a02423 	lsr	r2, r3, #8
   181a0:	e1a03f23 	lsr	r3, r3, #30
   181a4:	e6ff2072 	uxth	r2, r2
   181a8:	e2033001 	and	r3, r3, #1
   181ac:	e5842020 	str	r2, [r4, #32]
   181b0:	e5843018 	str	r3, [r4, #24]
   181b4:	e59f05e4 	ldr	r0, [pc, #1508]	; 187a0 <sd_card_init+0x7fc>
   181b8:	eb0002b3 	bl	18c8c <bcm2835_emmc_set_clock>
   181bc:	e59f05e0 	ldr	r0, [pc, #1504]	; 187a4 <sd_card_init+0x800>
   181c0:	eb000998 	bl	1a828 <udelay>
   181c4:	e1a00004 	mov	r0, r4
   181c8:	eb000489 	bl	193f4 <bcm2835_emmc_handle_interrupts>
   181cc:	e5946064 	ldr	r6, [r4, #100]	; 0x64
   181d0:	e3560000 	cmp	r6, #0
   181d4:	1a0000d5 	bne	18530 <sd_card_init+0x58c>
   181d8:	e3a03002 	mov	r3, #2
   181dc:	e1a00004 	mov	r0, r4
   181e0:	e584303c 	str	r3, [r4, #60]	; 0x3c
   181e4:	e59f15bc 	ldr	r1, [pc, #1468]	; 187a8 <sd_card_init+0x804>
   181e8:	e59f358c 	ldr	r3, [pc, #1420]	; 1877c <sd_card_init+0x7d8>
   181ec:	e1a02006 	mov	r2, r6
   181f0:	eb000356 	bl	18f50 <bcm2835_emmc_issue_command>
   181f4:	e5943040 	ldr	r3, [r4, #64]	; 0x40
   181f8:	e3530000 	cmp	r3, #0
   181fc:	0a0000cd 	beq	18538 <sd_card_init+0x594>
   18200:	e1a00004 	mov	r0, r4
   18204:	eb00047a 	bl	193f4 <bcm2835_emmc_handle_interrupts>
   18208:	e5942064 	ldr	r2, [r4, #100]	; 0x64
   1820c:	e3520000 	cmp	r2, #0
   18210:	15846040 	strne	r6, [r4, #64]	; 0x40
   18214:	1a000138 	bne	186fc <sd_card_init+0x758>
   18218:	e3a03003 	mov	r3, #3
   1821c:	e1a00004 	mov	r0, r4
   18220:	e584303c 	str	r3, [r4, #60]	; 0x3c
   18224:	e59f1580 	ldr	r1, [pc, #1408]	; 187ac <sd_card_init+0x808>
   18228:	e59f354c 	ldr	r3, [pc, #1356]	; 1877c <sd_card_init+0x7d8>
   1822c:	eb000347 	bl	18f50 <bcm2835_emmc_issue_command>
   18230:	e5943040 	ldr	r3, [r4, #64]	; 0x40
   18234:	e3530000 	cmp	r3, #0
   18238:	0a00012f 	beq	186fc <sd_card_init+0x758>
   1823c:	e5943044 	ldr	r3, [r4, #68]	; 0x44
   18240:	e1a07823 	lsr	r7, r3, #16
   18244:	e1a01723 	lsr	r1, r3, #14
   18248:	e1a066a3 	lsr	r6, r3, #13
   1824c:	e3130902 	tst	r3, #32768	; 0x8000
   18250:	e1a03423 	lsr	r3, r3, #8
   18254:	e5847024 	str	r7, [r4, #36]	; 0x24
   18258:	e2011001 	and	r1, r1, #1
   1825c:	e2066001 	and	r6, r6, #1
   18260:	e2033001 	and	r3, r3, #1
   18264:	1a00011e 	bne	186e4 <sd_card_init+0x740>
   18268:	e3510000 	cmp	r1, #0
   1826c:	1a000116 	bne	186cc <sd_card_init+0x728>
   18270:	e3560000 	cmp	r6, #0
   18274:	1a00010e 	bne	186b4 <sd_card_init+0x710>
   18278:	e3530000 	cmp	r3, #0
   1827c:	0a000106 	beq	1869c <sd_card_init+0x6f8>
   18280:	e1a00004 	mov	r0, r4
   18284:	eb00045a 	bl	193f4 <bcm2835_emmc_handle_interrupts>
   18288:	e5943064 	ldr	r3, [r4, #100]	; 0x64
   1828c:	e3530000 	cmp	r3, #0
   18290:	15846040 	strne	r6, [r4, #64]	; 0x40
   18294:	1a00011e 	bne	18714 <sd_card_init+0x770>
   18298:	e3a03007 	mov	r3, #7
   1829c:	e1a02807 	lsl	r2, r7, #16
   182a0:	e584303c 	str	r3, [r4, #60]	; 0x3c
   182a4:	e1a00004 	mov	r0, r4
   182a8:	e59f34cc 	ldr	r3, [pc, #1228]	; 1877c <sd_card_init+0x7d8>
   182ac:	e59f14fc 	ldr	r1, [pc, #1276]	; 187b0 <sd_card_init+0x80c>
   182b0:	eb000326 	bl	18f50 <bcm2835_emmc_issue_command>
   182b4:	e5943040 	ldr	r3, [r4, #64]	; 0x40
   182b8:	e3530000 	cmp	r3, #0
   182bc:	0a000114 	beq	18714 <sd_card_init+0x770>
   182c0:	e5941044 	ldr	r1, [r4, #68]	; 0x44
   182c4:	e1a014a1 	lsr	r1, r1, #9
   182c8:	e201100f 	and	r1, r1, #15
   182cc:	e2413003 	sub	r3, r1, #3
   182d0:	e3530001 	cmp	r3, #1
   182d4:	8a0000a3 	bhi	18568 <sd_card_init+0x5c4>
   182d8:	e5946018 	ldr	r6, [r4, #24]
   182dc:	e3560000 	cmp	r6, #0
   182e0:	1a00000f 	bne	18324 <sd_card_init+0x380>
   182e4:	e1a00004 	mov	r0, r4
   182e8:	eb000441 	bl	193f4 <bcm2835_emmc_handle_interrupts>
   182ec:	e5943064 	ldr	r3, [r4, #100]	; 0x64
   182f0:	e3530000 	cmp	r3, #0
   182f4:	15846040 	strne	r6, [r4, #64]	; 0x40
   182f8:	1a000118 	bne	18760 <sd_card_init+0x7bc>
   182fc:	e3a03010 	mov	r3, #16
   18300:	e1a00004 	mov	r0, r4
   18304:	e584303c 	str	r3, [r4, #60]	; 0x3c
   18308:	e59f14a4 	ldr	r1, [pc, #1188]	; 187b4 <sd_card_init+0x810>
   1830c:	e59f3468 	ldr	r3, [pc, #1128]	; 1877c <sd_card_init+0x7d8>
   18310:	e3a02c02 	mov	r2, #512	; 0x200
   18314:	eb00030d 	bl	18f50 <bcm2835_emmc_issue_command>
   18318:	e5943040 	ldr	r3, [r4, #64]	; 0x40
   1831c:	e3530000 	cmp	r3, #0
   18320:	0a00010e 	beq	18760 <sd_card_init+0x7bc>
   18324:	e3a00c02 	mov	r0, #512	; 0x200
   18328:	e584005c 	str	r0, [r4, #92]	; 0x5c
   1832c:	eb0004a0 	bl	195b4 <bcm2835_emmc_set_block_size>
   18330:	e3a00010 	mov	r0, #16
   18334:	eb000a2c 	bl	1abec <malloc>
   18338:	e3a03001 	mov	r3, #1
   1833c:	e3a02008 	mov	r2, #8
   18340:	e5840030 	str	r0, [r4, #48]	; 0x30
   18344:	e5840054 	str	r0, [r4, #84]	; 0x54
   18348:	e5843058 	str	r3, [r4, #88]	; 0x58
   1834c:	e584205c 	str	r2, [r4, #92]	; 0x5c
   18350:	e1a00004 	mov	r0, r4
   18354:	eb000426 	bl	193f4 <bcm2835_emmc_handle_interrupts>
   18358:	e5946064 	ldr	r6, [r4, #100]	; 0x64
   1835c:	e3560000 	cmp	r6, #0
   18360:	13a03000 	movne	r3, #0
   18364:	15843040 	strne	r3, [r4, #64]	; 0x40
   18368:	1a00000c 	bne	183a0 <sd_card_init+0x3fc>
   1836c:	e3a02037 	mov	r2, #55	; 0x37
   18370:	e5943024 	ldr	r3, [r4, #36]	; 0x24
   18374:	e584203c 	str	r2, [r4, #60]	; 0x3c
   18378:	e3530000 	cmp	r3, #0
   1837c:	11a02803 	lslne	r2, r3, #16
   18380:	01a02006 	moveq	r2, r6
   18384:	e59f33f0 	ldr	r3, [pc, #1008]	; 1877c <sd_card_init+0x7d8>
   18388:	e1a00004 	mov	r0, r4
   1838c:	e59f1404 	ldr	r1, [pc, #1028]	; 18798 <sd_card_init+0x7f4>
   18390:	eb0002ee 	bl	18f50 <bcm2835_emmc_issue_command>
   18394:	e5943040 	ldr	r3, [r4, #64]	; 0x40
   18398:	e3530000 	cmp	r3, #0
   1839c:	1a000077 	bne	18580 <sd_card_init+0x5dc>
   183a0:	e3a03c02 	mov	r3, #512	; 0x200
   183a4:	e584305c 	str	r3, [r4, #92]	; 0x5c
   183a8:	e59f0408 	ldr	r0, [pc, #1032]	; 187b8 <sd_card_init+0x814>
   183ac:	ebffd2f2 	bl	cf7c <printf>
   183b0:	e5940030 	ldr	r0, [r4, #48]	; 0x30
   183b4:	eb000a11 	bl	1ac00 <free>
   183b8:	e1a00004 	mov	r0, r4
   183bc:	eb000a0f 	bl	1ac00 <free>
   183c0:	e3e06000 	mvn	r6, #0
   183c4:	e1a00006 	mov	r0, r6
   183c8:	e8bd80f8 	pop	{r3, r4, r5, r6, r7, pc}
   183cc:	e3a00068 	mov	r0, #104	; 0x68
   183d0:	eb000a05 	bl	1abec <malloc>
   183d4:	e1a04000 	mov	r4, r0
   183d8:	eafffefc 	b	17fd0 <sd_card_init+0x2c>
   183dc:	e3a031a6 	mov	r3, #-2147483607	; 0x80000029
   183e0:	e1a00004 	mov	r0, r4
   183e4:	e584303c 	str	r3, [r4, #60]	; 0x3c
   183e8:	e59f13cc 	ldr	r1, [pc, #972]	; 187bc <sd_card_init+0x818>
   183ec:	e59f3388 	ldr	r3, [pc, #904]	; 1877c <sd_card_init+0x7d8>
   183f0:	e3a02000 	mov	r2, #0
   183f4:	eb0002d5 	bl	18f50 <bcm2835_emmc_issue_command>
   183f8:	e5943040 	ldr	r3, [r4, #64]	; 0x40
   183fc:	e3530000 	cmp	r3, #0
   18400:	0affff5c 	beq	18178 <sd_card_init+0x1d4>
   18404:	e3560000 	cmp	r6, #0
   18408:	e3a06037 	mov	r6, #55	; 0x37
   1840c:	1a000014 	bne	18464 <sd_card_init+0x4c0>
   18410:	e1a00004 	mov	r0, r4
   18414:	eb0003f6 	bl	193f4 <bcm2835_emmc_handle_interrupts>
   18418:	e5943064 	ldr	r3, [r4, #100]	; 0x64
   1841c:	e3530000 	cmp	r3, #0
   18420:	1a00002f 	bne	184e4 <sd_card_init+0x540>
   18424:	e5942024 	ldr	r2, [r4, #36]	; 0x24
   18428:	e59f334c 	ldr	r3, [pc, #844]	; 1877c <sd_card_init+0x7d8>
   1842c:	e3520000 	cmp	r2, #0
   18430:	11a02802 	lslne	r2, r2, #16
   18434:	e584603c 	str	r6, [r4, #60]	; 0x3c
   18438:	e1a00004 	mov	r0, r4
   1843c:	e59f1354 	ldr	r1, [pc, #852]	; 18798 <sd_card_init+0x7f4>
   18440:	eb0002c2 	bl	18f50 <bcm2835_emmc_issue_command>
   18444:	e5943040 	ldr	r3, [r4, #64]	; 0x40
   18448:	e3530000 	cmp	r3, #0
   1844c:	1a000027 	bne	184f0 <sd_card_init+0x54c>
   18450:	e3e06000 	mvn	r6, #0
   18454:	e59f0364 	ldr	r0, [pc, #868]	; 187c0 <sd_card_init+0x81c>
   18458:	ebffd2c7 	bl	cf7c <printf>
   1845c:	e1a00006 	mov	r0, r6
   18460:	e8bd80f8 	pop	{r3, r4, r5, r6, r7, pc}
   18464:	e1a00004 	mov	r0, r4
   18468:	eb0003e1 	bl	193f4 <bcm2835_emmc_handle_interrupts>
   1846c:	e5943064 	ldr	r3, [r4, #100]	; 0x64
   18470:	e3530000 	cmp	r3, #0
   18474:	1a00001a 	bne	184e4 <sd_card_init+0x540>
   18478:	e5942024 	ldr	r2, [r4, #36]	; 0x24
   1847c:	e59f32f8 	ldr	r3, [pc, #760]	; 1877c <sd_card_init+0x7d8>
   18480:	e3520000 	cmp	r2, #0
   18484:	11a02802 	lslne	r2, r2, #16
   18488:	e584603c 	str	r6, [r4, #60]	; 0x3c
   1848c:	e1a00004 	mov	r0, r4
   18490:	e59f1300 	ldr	r1, [pc, #768]	; 18798 <sd_card_init+0x7f4>
   18494:	eb0002ad 	bl	18f50 <bcm2835_emmc_issue_command>
   18498:	e5943040 	ldr	r3, [r4, #64]	; 0x40
   1849c:	e3530000 	cmp	r3, #0
   184a0:	0affffea 	beq	18450 <sd_card_init+0x4ac>
   184a4:	e3a031a6 	mov	r3, #-2147483607	; 0x80000029
   184a8:	e1a00004 	mov	r0, r4
   184ac:	e584303c 	str	r3, [r4, #60]	; 0x3c
   184b0:	e59f1304 	ldr	r1, [pc, #772]	; 187bc <sd_card_init+0x818>
   184b4:	e59f32c0 	ldr	r3, [pc, #704]	; 1877c <sd_card_init+0x7d8>
   184b8:	e59f2304 	ldr	r2, [pc, #772]	; 187c4 <sd_card_init+0x820>
   184bc:	eb0002a3 	bl	18f50 <bcm2835_emmc_issue_command>
   184c0:	e5943040 	ldr	r3, [r4, #64]	; 0x40
   184c4:	e59f02b0 	ldr	r0, [pc, #688]	; 1877c <sd_card_init+0x7d8>
   184c8:	e3530000 	cmp	r3, #0
   184cc:	0affffdf 	beq	18450 <sd_card_init+0x4ac>
   184d0:	e5943044 	ldr	r3, [r4, #68]	; 0x44
   184d4:	e3530000 	cmp	r3, #0
   184d8:	baffff2f 	blt	1819c <sd_card_init+0x1f8>
   184dc:	eb0008d1 	bl	1a828 <udelay>
   184e0:	eaffffdf 	b	18464 <sd_card_init+0x4c0>
   184e4:	e3a03000 	mov	r3, #0
   184e8:	e5843040 	str	r3, [r4, #64]	; 0x40
   184ec:	eaffffd7 	b	18450 <sd_card_init+0x4ac>
   184f0:	e3a031a6 	mov	r3, #-2147483607	; 0x80000029
   184f4:	e1a00004 	mov	r0, r4
   184f8:	e584303c 	str	r3, [r4, #60]	; 0x3c
   184fc:	e59f12b8 	ldr	r1, [pc, #696]	; 187bc <sd_card_init+0x818>
   18500:	e59f3274 	ldr	r3, [pc, #628]	; 1877c <sd_card_init+0x7d8>
   18504:	e59f22bc 	ldr	r2, [pc, #700]	; 187c8 <sd_card_init+0x824>
   18508:	eb000290 	bl	18f50 <bcm2835_emmc_issue_command>
   1850c:	e5943040 	ldr	r3, [r4, #64]	; 0x40
   18510:	e59f0264 	ldr	r0, [pc, #612]	; 1877c <sd_card_init+0x7d8>
   18514:	e3530000 	cmp	r3, #0
   18518:	0affffcc 	beq	18450 <sd_card_init+0x4ac>
   1851c:	e5943044 	ldr	r3, [r4, #68]	; 0x44
   18520:	e3530000 	cmp	r3, #0
   18524:	baffff1c 	blt	1819c <sd_card_init+0x1f8>
   18528:	eb0008be 	bl	1a828 <udelay>
   1852c:	eaffffb7 	b	18410 <sd_card_init+0x46c>
   18530:	e3a03000 	mov	r3, #0
   18534:	e5843040 	str	r3, [r4, #64]	; 0x40
   18538:	e59f028c 	ldr	r0, [pc, #652]	; 187cc <sd_card_init+0x828>
   1853c:	ebffd28e 	bl	cf7c <printf>
   18540:	e3e06000 	mvn	r6, #0
   18544:	eafffee4 	b	180dc <sd_card_init+0x138>
   18548:	e59f0280 	ldr	r0, [pc, #640]	; 187d0 <sd_card_init+0x82c>
   1854c:	ebffd28a 	bl	cf7c <printf>
   18550:	e3e06000 	mvn	r6, #0
   18554:	eafffee0 	b	180dc <sd_card_init+0x138>
   18558:	e59f0274 	ldr	r0, [pc, #628]	; 187d4 <sd_card_init+0x830>
   1855c:	ebffd286 	bl	cf7c <printf>
   18560:	e3e06000 	mvn	r6, #0
   18564:	eafffedc 	b	180dc <sd_card_init+0x138>
   18568:	e59f0268 	ldr	r0, [pc, #616]	; 187d8 <sd_card_init+0x834>
   1856c:	ebffd282 	bl	cf7c <printf>
   18570:	e1a00004 	mov	r0, r4
   18574:	eb0009a1 	bl	1ac00 <free>
   18578:	e3e06000 	mvn	r6, #0
   1857c:	eafffed6 	b	180dc <sd_card_init+0x138>
   18580:	e3a031ce 	mov	r3, #-2147483597	; 0x80000033
   18584:	e3a02000 	mov	r2, #0
   18588:	e584303c 	str	r3, [r4, #60]	; 0x3c
   1858c:	e1a00004 	mov	r0, r4
   18590:	e59f31e4 	ldr	r3, [pc, #484]	; 1877c <sd_card_init+0x7d8>
   18594:	e59f1240 	ldr	r1, [pc, #576]	; 187dc <sd_card_init+0x838>
   18598:	eb00026c 	bl	18f50 <bcm2835_emmc_issue_command>
   1859c:	e3a02c02 	mov	r2, #512	; 0x200
   185a0:	e5943040 	ldr	r3, [r4, #64]	; 0x40
   185a4:	e584205c 	str	r2, [r4, #92]	; 0x5c
   185a8:	e3530000 	cmp	r3, #0
   185ac:	0affff7d 	beq	183a8 <sd_card_init+0x404>
   185b0:	e3a02000 	mov	r2, #0
   185b4:	e5941030 	ldr	r1, [r4, #48]	; 0x30
   185b8:	e5913000 	ldr	r3, [r1]
   185bc:	e581200c 	str	r2, [r1, #12]
   185c0:	e6bf3f33 	rev	r3, r3
   185c4:	e1a02c23 	lsr	r2, r3, #24
   185c8:	e212200f 	ands	r2, r2, #15
   185cc:	e1a00823 	lsr	r0, r3, #16
   185d0:	03a03001 	moveq	r3, #1
   185d4:	e200c00f 	and	ip, r0, #15
   185d8:	e581c008 	str	ip, [r1, #8]
   185dc:	0581300c 	streq	r3, [r1, #12]
   185e0:	0a000005 	beq	185fc <sd_card_init+0x658>
   185e4:	e3520001 	cmp	r2, #1
   185e8:	03a03002 	moveq	r3, #2
   185ec:	0581300c 	streq	r3, [r1, #12]
   185f0:	0a000001 	beq	185fc <sd_card_init+0x658>
   185f4:	e3520002 	cmp	r2, #2
   185f8:	0a00001e 	beq	18678 <sd_card_init+0x6d4>
   185fc:	e3100004 	tst	r0, #4
   18600:	1a000003 	bne	18614 <sd_card_init+0x670>
   18604:	eb0003f2 	bl	195d4 <bcm2835_emmc_reset_interrupt_register>
   18608:	e5854000 	str	r4, [r5]
   1860c:	e1a00006 	mov	r0, r6
   18610:	e8bd80f8 	pop	{r3, r4, r5, r6, r7, pc}
   18614:	eb0003d9 	bl	19580 <bcm2835_emmc_disable_card_interrupt>
   18618:	e1a07000 	mov	r7, r0
   1861c:	e1a00004 	mov	r0, r4
   18620:	eb000373 	bl	193f4 <bcm2835_emmc_handle_interrupts>
   18624:	e5943064 	ldr	r3, [r4, #100]	; 0x64
   18628:	e3530000 	cmp	r3, #0
   1862c:	13a03000 	movne	r3, #0
   18630:	15843040 	strne	r3, [r4, #64]	; 0x40
   18634:	1a00000c 	bne	1866c <sd_card_init+0x6c8>
   18638:	e3a02037 	mov	r2, #55	; 0x37
   1863c:	e5943024 	ldr	r3, [r4, #36]	; 0x24
   18640:	e584203c 	str	r2, [r4, #60]	; 0x3c
   18644:	e3530000 	cmp	r3, #0
   18648:	11a02803 	lslne	r2, r3, #16
   1864c:	01a02003 	moveq	r2, r3
   18650:	e1a00004 	mov	r0, r4
   18654:	e59f3120 	ldr	r3, [pc, #288]	; 1877c <sd_card_init+0x7d8>
   18658:	e59f1138 	ldr	r1, [pc, #312]	; 18798 <sd_card_init+0x7f4>
   1865c:	eb00023b 	bl	18f50 <bcm2835_emmc_issue_command>
   18660:	e5943040 	ldr	r3, [r4, #64]	; 0x40
   18664:	e3530000 	cmp	r3, #0
   18668:	1a00002f 	bne	1872c <sd_card_init+0x788>
   1866c:	e59f016c 	ldr	r0, [pc, #364]	; 187e0 <sd_card_init+0x83c>
   18670:	ebffd241 	bl	cf7c <printf>
   18674:	eaffffe2 	b	18604 <sd_card_init+0x660>
   18678:	e3130902 	tst	r3, #32768	; 0x8000
   1867c:	03a03003 	moveq	r3, #3
   18680:	0581300c 	streq	r3, [r1, #12]
   18684:	0affffdc 	beq	185fc <sd_card_init+0x658>
   18688:	e3130b01 	tst	r3, #1024	; 0x400
   1868c:	03a03004 	moveq	r3, #4
   18690:	13a03005 	movne	r3, #5
   18694:	e581300c 	str	r3, [r1, #12]
   18698:	eaffffd7 	b	185fc <sd_card_init+0x658>
   1869c:	e59f0140 	ldr	r0, [pc, #320]	; 187e4 <sd_card_init+0x840>
   186a0:	ebffd235 	bl	cf7c <printf>
   186a4:	e1a00004 	mov	r0, r4
   186a8:	eb000954 	bl	1ac00 <free>
   186ac:	e3e06000 	mvn	r6, #0
   186b0:	eafffe89 	b	180dc <sd_card_init+0x138>
   186b4:	e59f012c 	ldr	r0, [pc, #300]	; 187e8 <sd_card_init+0x844>
   186b8:	ebffd22f 	bl	cf7c <printf>
   186bc:	e1a00004 	mov	r0, r4
   186c0:	eb00094e 	bl	1ac00 <free>
   186c4:	e3e06000 	mvn	r6, #0
   186c8:	eafffe83 	b	180dc <sd_card_init+0x138>
   186cc:	e59f0118 	ldr	r0, [pc, #280]	; 187ec <sd_card_init+0x848>
   186d0:	ebffd229 	bl	cf7c <printf>
   186d4:	e1a00004 	mov	r0, r4
   186d8:	eb000948 	bl	1ac00 <free>
   186dc:	e3e06000 	mvn	r6, #0
   186e0:	eafffe7d 	b	180dc <sd_card_init+0x138>
   186e4:	e59f0104 	ldr	r0, [pc, #260]	; 187f0 <sd_card_init+0x84c>
   186e8:	ebffd223 	bl	cf7c <printf>
   186ec:	e1a00004 	mov	r0, r4
   186f0:	eb000942 	bl	1ac00 <free>
   186f4:	e3e06000 	mvn	r6, #0
   186f8:	eafffe77 	b	180dc <sd_card_init+0x138>
   186fc:	e59f00f0 	ldr	r0, [pc, #240]	; 187f4 <sd_card_init+0x850>
   18700:	ebffd21d 	bl	cf7c <printf>
   18704:	e1a00004 	mov	r0, r4
   18708:	eb00093c 	bl	1ac00 <free>
   1870c:	e3e06000 	mvn	r6, #0
   18710:	eafffe71 	b	180dc <sd_card_init+0x138>
   18714:	e59f00dc 	ldr	r0, [pc, #220]	; 187f8 <sd_card_init+0x854>
   18718:	ebffd217 	bl	cf7c <printf>
   1871c:	e1a00004 	mov	r0, r4
   18720:	eb000936 	bl	1ac00 <free>
   18724:	e3e06000 	mvn	r6, #0
   18728:	eafffe6b 	b	180dc <sd_card_init+0x138>
   1872c:	e3a0311a 	mov	r3, #-2147483642	; 0x80000006
   18730:	e1a00004 	mov	r0, r4
   18734:	e584303c 	str	r3, [r4, #60]	; 0x3c
   18738:	e59f10bc 	ldr	r1, [pc, #188]	; 187fc <sd_card_init+0x858>
   1873c:	e59f3038 	ldr	r3, [pc, #56]	; 1877c <sd_card_init+0x7d8>
   18740:	e3a02002 	mov	r2, #2
   18744:	eb000201 	bl	18f50 <bcm2835_emmc_issue_command>
   18748:	e5943040 	ldr	r3, [r4, #64]	; 0x40
   1874c:	e3530000 	cmp	r3, #0
   18750:	0affffc5 	beq	1866c <sd_card_init+0x6c8>
   18754:	e1a00007 	mov	r0, r7
   18758:	eb00038e 	bl	19598 <bcm2835_emmc_4bit_mode_change_bit>
   1875c:	eaffffa8 	b	18604 <sd_card_init+0x660>
   18760:	e59f0098 	ldr	r0, [pc, #152]	; 18800 <sd_card_init+0x85c>
   18764:	ebffd204 	bl	cf7c <printf>
   18768:	e1a00004 	mov	r0, r4
   1876c:	eb000923 	bl	1ac00 <free>
   18770:	e3e06000 	mvn	r6, #0
   18774:	eafffe58 	b	180dc <sd_card_init+0x138>
   18778:	00018804 	andeq	r8, r1, r4, lsl #16
   1877c:	0007a120 	andeq	sl, r7, r0, lsr #2
   18780:	000001aa 	andeq	r0, r0, sl, lsr #3
   18784:	080a0000 	stmdaeq	sl, {}	; <UNPREDICTABLE>
   18788:	05010000 	streq	r0, [r1, #-0]
   1878c:	00002710 	andeq	r2, r0, r0, lsl r7
   18790:	0001e9dc 	ldrdeq	lr, [r1], -ip
   18794:	0001e9a4 	andeq	lr, r1, r4, lsr #19
   18798:	370a0000 	strcc	r0, [sl, -r0]
   1879c:	0001ea10 	andeq	lr, r1, r0, lsl sl
   187a0:	02faf080 	rscseq	pc, sl, #128	; 0x80
   187a4:	00001388 	andeq	r1, r0, r8, lsl #7
   187a8:	02090000 	andeq	r0, r9, #0
   187ac:	030a0000 	movweq	r0, #40960	; 0xa000
   187b0:	070b0000 	streq	r0, [fp, -r0]
   187b4:	100a0000 	andne	r0, sl, r0
   187b8:	0001eb38 	andeq	lr, r1, r8, lsr fp
   187bc:	29020000 	stmdbcs	r2, {}	; <UNPREDICTABLE>
   187c0:	0001ea2c 	andeq	lr, r1, ip, lsr #20
   187c4:	50ff8000 	rscspl	r8, pc, r0
   187c8:	00ff8000 	rscseq	r8, pc, r0
   187cc:	0001ea48 	andeq	lr, r1, r8, asr #20
   187d0:	0001e98c 	andeq	lr, r1, ip, lsl #19
   187d4:	0001e9c8 	andeq	lr, r1, r8, asr #19
   187d8:	0001eafc 	strdeq	lr, [r1], -ip
   187dc:	332a0010 	teqcc	sl, #16
   187e0:	0001eb54 	andeq	lr, r1, r4, asr fp
   187e4:	0001eacc 	andeq	lr, r1, ip, asr #21
   187e8:	0001eab8 			; <UNDEFINED> instruction: 0x0001eab8
   187ec:	0001eaa0 	andeq	lr, r1, r0, lsr #21
   187f0:	0001ea90 	muleq	r1, r0, sl
   187f4:	0001ea68 	andeq	lr, r1, r8, ror #20
   187f8:	0001eae4 	andeq	lr, r1, r4, ror #21
   187fc:	060a0000 	streq	r0, [sl], -r0
   18800:	0001eb18 	andeq	lr, r1, r8, lsl fp

00018804 <sd_read>:
   18804:	e92d4ff0 	push	{r4, r5, r6, r7, r8, r9, sl, fp, lr}
   18808:	e5909024 	ldr	r9, [r0, #36]	; 0x24
   1880c:	e24dd014 	sub	sp, sp, #20
   18810:	e3590000 	cmp	r9, #0
   18814:	e1a04000 	mov	r4, r0
   18818:	e58d000c 	str	r0, [sp, #12]
   1881c:	e1a07001 	mov	r7, r1
   18820:	e1a06002 	mov	r6, r2
   18824:	e1a08003 	mov	r8, r3
   18828:	1a000006 	bne	18848 <sd_read+0x44>
   1882c:	e28d000c 	add	r0, sp, #12
   18830:	ebfffddb 	bl	17fa4 <sd_card_init>
   18834:	e3500000 	cmp	r0, #0
   18838:	1a00007e 	bne	18a38 <sd_read+0x234>
   1883c:	e59d500c 	ldr	r5, [sp, #12]
   18840:	e5959024 	ldr	r9, [r5, #36]	; 0x24
   18844:	ea000000 	b	1884c <sd_read+0x48>
   18848:	e1a05000 	mov	r5, r0
   1884c:	e1a00005 	mov	r0, r5
   18850:	eb0002e7 	bl	193f4 <bcm2835_emmc_handle_interrupts>
   18854:	e5953064 	ldr	r3, [r5, #100]	; 0x64
   18858:	e3530000 	cmp	r3, #0
   1885c:	13a03000 	movne	r3, #0
   18860:	15853040 	strne	r3, [r5, #64]	; 0x40
   18864:	1a000006 	bne	18884 <sd_read+0x80>
   18868:	e3a0300d 	mov	r3, #13
   1886c:	e1a02809 	lsl	r2, r9, #16
   18870:	e585303c 	str	r3, [r5, #60]	; 0x3c
   18874:	e1a00005 	mov	r0, r5
   18878:	e59f12e8 	ldr	r1, [pc, #744]	; 18b68 <sd_read+0x364>
   1887c:	e59f32e8 	ldr	r3, [pc, #744]	; 18b6c <sd_read+0x368>
   18880:	eb0001b2 	bl	18f50 <bcm2835_emmc_issue_command>
   18884:	e59d500c 	ldr	r5, [sp, #12]
   18888:	e5959040 	ldr	r9, [r5, #64]	; 0x40
   1888c:	e3590000 	cmp	r9, #0
   18890:	0a0000a6 	beq	18b30 <sd_read+0x32c>
   18894:	e595c044 	ldr	ip, [r5, #68]	; 0x44
   18898:	e1a0c4ac 	lsr	ip, ip, #9
   1889c:	e20cc00f 	and	ip, ip, #15
   188a0:	e35c0003 	cmp	ip, #3
   188a4:	0a000066 	beq	18a44 <sd_read+0x240>
   188a8:	e35c0005 	cmp	ip, #5
   188ac:	0a00007c 	beq	18aa4 <sd_read+0x2a0>
   188b0:	e35c0004 	cmp	ip, #4
   188b4:	0a00001c 	beq	1892c <sd_read+0x128>
   188b8:	e28d000c 	add	r0, sp, #12
   188bc:	ebfffdb8 	bl	17fa4 <sd_card_init>
   188c0:	e3500000 	cmp	r0, #0
   188c4:	1a00005b 	bne	18a38 <sd_read+0x234>
   188c8:	e59d500c 	ldr	r5, [sp, #12]
   188cc:	e1a00005 	mov	r0, r5
   188d0:	e5959024 	ldr	r9, [r5, #36]	; 0x24
   188d4:	eb0002c6 	bl	193f4 <bcm2835_emmc_handle_interrupts>
   188d8:	e5953064 	ldr	r3, [r5, #100]	; 0x64
   188dc:	e3530000 	cmp	r3, #0
   188e0:	13a03000 	movne	r3, #0
   188e4:	15853040 	strne	r3, [r5, #64]	; 0x40
   188e8:	1a000006 	bne	18908 <sd_read+0x104>
   188ec:	e3a0300d 	mov	r3, #13
   188f0:	e1a02809 	lsl	r2, r9, #16
   188f4:	e585303c 	str	r3, [r5, #60]	; 0x3c
   188f8:	e1a00005 	mov	r0, r5
   188fc:	e59f1264 	ldr	r1, [pc, #612]	; 18b68 <sd_read+0x364>
   18900:	e59f3264 	ldr	r3, [pc, #612]	; 18b6c <sd_read+0x368>
   18904:	eb000191 	bl	18f50 <bcm2835_emmc_issue_command>
   18908:	e59d300c 	ldr	r3, [sp, #12]
   1890c:	e5935040 	ldr	r5, [r3, #64]	; 0x40
   18910:	e3550000 	cmp	r5, #0
   18914:	0a00008a 	beq	18b44 <sd_read+0x340>
   18918:	e5931044 	ldr	r1, [r3, #68]	; 0x44
   1891c:	e1a014a1 	lsr	r1, r1, #9
   18920:	e201100f 	and	r1, r1, #15
   18924:	e3510004 	cmp	r1, #4
   18928:	1a000070 	bne	18af0 <sd_read+0x2ec>
   1892c:	e5943018 	ldr	r3, [r4, #24]
   18930:	e594505c 	ldr	r5, [r4, #92]	; 0x5c
   18934:	e3530000 	cmp	r3, #0
   18938:	01a08488 	lsleq	r8, r8, #9
   1893c:	e1560005 	cmp	r6, r5
   18940:	3a000070 	bcc	18b08 <sd_read+0x304>
   18944:	e1a01005 	mov	r1, r5
   18948:	e1a00006 	mov	r0, r6
   1894c:	eb00110b 	bl	1cd80 <__aeabi_uidiv>
   18950:	e1a01005 	mov	r1, r5
   18954:	e5840058 	str	r0, [r4, #88]	; 0x58
   18958:	e1a09000 	mov	r9, r0
   1895c:	e1a00006 	mov	r0, r6
   18960:	eb001181 	bl	1cf6c <__aeabi_uidivmod>
   18964:	e3510000 	cmp	r1, #0
   18968:	1a00006b 	bne	18b1c <sd_read+0x318>
   1896c:	e3590001 	cmp	r9, #1
   18970:	d3a09011 	movle	r9, #17
   18974:	c3a09012 	movgt	r9, #18
   18978:	e5847054 	str	r7, [r4, #84]	; 0x54
   1897c:	e1a0a009 	mov	sl, r9
   18980:	e3a05003 	mov	r5, #3
   18984:	e59fb1e4 	ldr	fp, [pc, #484]	; 18b70 <sd_read+0x36c>
   18988:	ea000010 	b	189d0 <sd_read+0x1cc>
   1898c:	e584903c 	str	r9, [r4, #60]	; 0x3c
   18990:	e1a00004 	mov	r0, r4
   18994:	e1a02008 	mov	r2, r8
   18998:	eb00016c 	bl	18f50 <bcm2835_emmc_issue_command>
   1899c:	e5943040 	ldr	r3, [r4, #64]	; 0x40
   189a0:	e3530000 	cmp	r3, #0
   189a4:	1a00001c 	bne	18a1c <sd_read+0x218>
   189a8:	e1a0100a 	mov	r1, sl
   189ac:	e59f01c0 	ldr	r0, [pc, #448]	; 18b74 <sd_read+0x370>
   189b0:	ebffd171 	bl	cf7c <printf>
   189b4:	e59f01bc 	ldr	r0, [pc, #444]	; 18b78 <sd_read+0x374>
   189b8:	e594102c 	ldr	r1, [r4, #44]	; 0x2c
   189bc:	ebffd16e 	bl	cf7c <printf>
   189c0:	e2555001 	subs	r5, r5, #1
   189c4:	e59f01b0 	ldr	r0, [pc, #432]	; 18b7c <sd_read+0x378>
   189c8:	0a000062 	beq	18b58 <sd_read+0x354>
   189cc:	ebffd16a 	bl	cf7c <printf>
   189d0:	e3a07000 	mov	r7, #0
   189d4:	e1a00004 	mov	r0, r4
   189d8:	e5847060 	str	r7, [r4, #96]	; 0x60
   189dc:	eb000284 	bl	193f4 <bcm2835_emmc_handle_interrupts>
   189e0:	e5942064 	ldr	r2, [r4, #100]	; 0x64
   189e4:	e59f3194 	ldr	r3, [pc, #404]	; 18b80 <sd_read+0x37c>
   189e8:	e1520007 	cmp	r2, r7
   189ec:	15847040 	strne	r7, [r4, #64]	; 0x40
   189f0:	1affffec 	bne	189a8 <sd_read+0x1a4>
   189f4:	e79b1109 	ldr	r1, [fp, r9, lsl #2]
   189f8:	e3710001 	cmn	r1, #1
   189fc:	1affffe2 	bne	1898c <sd_read+0x188>
   18a00:	e59f017c 	ldr	r0, [pc, #380]	; 18b84 <sd_read+0x380>
   18a04:	e1a01009 	mov	r1, r9
   18a08:	e58d2004 	str	r2, [sp, #4]
   18a0c:	ebffd15a 	bl	cf7c <printf>
   18a10:	e59d2004 	ldr	r2, [sp, #4]
   18a14:	e5842040 	str	r2, [r4, #64]	; 0x40
   18a18:	eaffffe2 	b	189a8 <sd_read+0x1a4>
   18a1c:	e1a00006 	mov	r0, r6
   18a20:	e28dd014 	add	sp, sp, #20
   18a24:	e8bd8ff0 	pop	{r4, r5, r6, r7, r8, r9, sl, fp, pc}
   18a28:	e59f0158 	ldr	r0, [pc, #344]	; 18b88 <sd_read+0x384>
   18a2c:	ebffd152 	bl	cf7c <printf>
   18a30:	e59d300c 	ldr	r3, [sp, #12]
   18a34:	e5835024 	str	r5, [r3, #36]	; 0x24
   18a38:	e3e00000 	mvn	r0, #0
   18a3c:	e28dd014 	add	sp, sp, #20
   18a40:	e8bd8ff0 	pop	{r4, r5, r6, r7, r8, r9, sl, fp, pc}
   18a44:	e1a00005 	mov	r0, r5
   18a48:	e5959024 	ldr	r9, [r5, #36]	; 0x24
   18a4c:	eb000268 	bl	193f4 <bcm2835_emmc_handle_interrupts>
   18a50:	e5953064 	ldr	r3, [r5, #100]	; 0x64
   18a54:	e3530000 	cmp	r3, #0
   18a58:	13a03000 	movne	r3, #0
   18a5c:	15853040 	strne	r3, [r5, #64]	; 0x40
   18a60:	1a000006 	bne	18a80 <sd_read+0x27c>
   18a64:	e3a03007 	mov	r3, #7
   18a68:	e1a02809 	lsl	r2, r9, #16
   18a6c:	e585303c 	str	r3, [r5, #60]	; 0x3c
   18a70:	e1a00005 	mov	r0, r5
   18a74:	e59f1110 	ldr	r1, [pc, #272]	; 18b8c <sd_read+0x388>
   18a78:	e59f30ec 	ldr	r3, [pc, #236]	; 18b6c <sd_read+0x368>
   18a7c:	eb000133 	bl	18f50 <bcm2835_emmc_issue_command>
   18a80:	e59d500c 	ldr	r5, [sp, #12]
   18a84:	e5959040 	ldr	r9, [r5, #64]	; 0x40
   18a88:	e3590000 	cmp	r9, #0
   18a8c:	1affff8e 	bne	188cc <sd_read+0xc8>
   18a90:	e59f00f8 	ldr	r0, [pc, #248]	; 18b90 <sd_read+0x38c>
   18a94:	ebffd138 	bl	cf7c <printf>
   18a98:	e59d300c 	ldr	r3, [sp, #12]
   18a9c:	e5839024 	str	r9, [r3, #36]	; 0x24
   18aa0:	eaffffe4 	b	18a38 <sd_read+0x234>
   18aa4:	e1a00005 	mov	r0, r5
   18aa8:	eb000251 	bl	193f4 <bcm2835_emmc_handle_interrupts>
   18aac:	e5952064 	ldr	r2, [r5, #100]	; 0x64
   18ab0:	e3520000 	cmp	r2, #0
   18ab4:	13a03000 	movne	r3, #0
   18ab8:	15853040 	strne	r3, [r5, #64]	; 0x40
   18abc:	1a000005 	bne	18ad8 <sd_read+0x2d4>
   18ac0:	e3a0300c 	mov	r3, #12
   18ac4:	e1a00005 	mov	r0, r5
   18ac8:	e585303c 	str	r3, [r5, #60]	; 0x3c
   18acc:	e59f10c0 	ldr	r1, [pc, #192]	; 18b94 <sd_read+0x390>
   18ad0:	e59f3094 	ldr	r3, [pc, #148]	; 18b6c <sd_read+0x368>
   18ad4:	eb00011d 	bl	18f50 <bcm2835_emmc_issue_command>
   18ad8:	e59d300c 	ldr	r3, [sp, #12]
   18adc:	e5935040 	ldr	r5, [r3, #64]	; 0x40
   18ae0:	e3550000 	cmp	r5, #0
   18ae4:	0affffcf 	beq	18a28 <sd_read+0x224>
   18ae8:	eb00004d 	bl	18c24 <bcm2835_emmc_reset_dat>
   18aec:	eaffff75 	b	188c8 <sd_read+0xc4>
   18af0:	e59f00a0 	ldr	r0, [pc, #160]	; 18b98 <sd_read+0x394>
   18af4:	ebffd120 	bl	cf7c <printf>
   18af8:	e3a02000 	mov	r2, #0
   18afc:	e59d300c 	ldr	r3, [sp, #12]
   18b00:	e5832024 	str	r2, [r3, #36]	; 0x24
   18b04:	eaffffcb 	b	18a38 <sd_read+0x234>
   18b08:	e1a01006 	mov	r1, r6
   18b0c:	e1a02005 	mov	r2, r5
   18b10:	e59f0084 	ldr	r0, [pc, #132]	; 18b9c <sd_read+0x398>
   18b14:	ebffd118 	bl	cf7c <printf>
   18b18:	eaffffc6 	b	18a38 <sd_read+0x234>
   18b1c:	e1a01006 	mov	r1, r6
   18b20:	e1a02005 	mov	r2, r5
   18b24:	e59f0074 	ldr	r0, [pc, #116]	; 18ba0 <sd_read+0x39c>
   18b28:	ebffd113 	bl	cf7c <printf>
   18b2c:	eaffffc1 	b	18a38 <sd_read+0x234>
   18b30:	e59f006c 	ldr	r0, [pc, #108]	; 18ba4 <sd_read+0x3a0>
   18b34:	ebffd110 	bl	cf7c <printf>
   18b38:	e59d300c 	ldr	r3, [sp, #12]
   18b3c:	e5839024 	str	r9, [r3, #36]	; 0x24
   18b40:	eaffffbc 	b	18a38 <sd_read+0x234>
   18b44:	e59f005c 	ldr	r0, [pc, #92]	; 18ba8 <sd_read+0x3a4>
   18b48:	ebffd10b 	bl	cf7c <printf>
   18b4c:	e59d300c 	ldr	r3, [sp, #12]
   18b50:	e5835024 	str	r5, [r3, #36]	; 0x24
   18b54:	eaffffb7 	b	18a38 <sd_read+0x234>
   18b58:	e59f004c 	ldr	r0, [pc, #76]	; 18bac <sd_read+0x3a8>
   18b5c:	ebffd106 	bl	cf7c <printf>
   18b60:	e5845024 	str	r5, [r4, #36]	; 0x24
   18b64:	eaffffb3 	b	18a38 <sd_read+0x234>
   18b68:	0d0a0000 	stceq	0, cr0, [sl, #-0]
   18b6c:	0007a120 	andeq	sl, r7, r0, lsr #2
   18b70:	0001df70 	andeq	sp, r1, r0, ror pc
   18b74:	0001ed40 	andeq	lr, r1, r0, asr #26
   18b78:	0001ed5c 	andeq	lr, r1, ip, asr sp
   18b7c:	0001ed6c 	andeq	lr, r1, ip, ror #26
   18b80:	004c4b40 	subeq	r4, ip, r0, asr #22
   18b84:	0001ed24 	andeq	lr, r1, r4, lsr #26
   18b88:	0001ebd8 	ldrdeq	lr, [r1], -r8
   18b8c:	070b0000 	streq	r0, [fp, -r0]
   18b90:	0001eba8 	andeq	lr, r1, r8, lsr #23
   18b94:	0ccb0000 	stcleq	0, cr0, [fp], {0}
   18b98:	0001ec38 	andeq	lr, r1, r8, lsr ip
   18b9c:	0001ec74 	andeq	lr, r1, r4, ror ip
   18ba0:	0001ecc4 	andeq	lr, r1, r4, asr #25
   18ba4:	0001eb7c 	andeq	lr, r1, ip, ror fp
   18ba8:	0001ec08 	andeq	lr, r1, r8, lsl #24
   18bac:	0001ed7c 	andeq	lr, r1, ip, ror sp

00018bb0 <bcm2835_emmc_sdcard_power_off>:
   18bb0:	e12fff1e 	bx	lr

00018bb4 <bcm2835_emmc_reset_cmd>:
   18bb4:	e59f3060 	ldr	r3, [pc, #96]	; 18c1c <bcm2835_emmc_reset_cmd+0x68>
   18bb8:	e59fc060 	ldr	ip, [pc, #96]	; 18c20 <bcm2835_emmc_reset_cmd+0x6c>
   18bbc:	e593202c 	ldr	r2, [r3, #44]	; 0x2c
   18bc0:	e1a01003 	mov	r1, r3
   18bc4:	e3822402 	orr	r2, r2, #33554432	; 0x2000000
   18bc8:	e583202c 	str	r2, [r3, #44]	; 0x2c
   18bcc:	e59c3004 	ldr	r3, [ip, #4]
   18bd0:	e1a0000c 	mov	r0, ip
   18bd4:	e5932000 	ldr	r2, [r3]
   18bd8:	e282293d 	add	r2, r2, #999424	; 0xf4000
   18bdc:	e2822d09 	add	r2, r2, #576	; 0x240
   18be0:	ea000003 	b	18bf4 <bcm2835_emmc_reset_cmd+0x40>
   18be4:	e5903004 	ldr	r3, [r0, #4]
   18be8:	e5933000 	ldr	r3, [r3]
   18bec:	e1520003 	cmp	r2, r3
   18bf0:	9a000002 	bls	18c00 <bcm2835_emmc_reset_cmd+0x4c>
   18bf4:	e591302c 	ldr	r3, [r1, #44]	; 0x2c
   18bf8:	e3130402 	tst	r3, #33554432	; 0x2000000
   18bfc:	1afffff8 	bne	18be4 <bcm2835_emmc_reset_cmd+0x30>
   18c00:	e59f3014 	ldr	r3, [pc, #20]	; 18c1c <bcm2835_emmc_reset_cmd+0x68>
   18c04:	e593002c 	ldr	r0, [r3, #44]	; 0x2c
   18c08:	e2100402 	ands	r0, r0, #33554432	; 0x2000000
   18c0c:	03a02801 	moveq	r2, #65536	; 0x10000
   18c10:	05832030 	streq	r2, [r3, #48]	; 0x30
   18c14:	13e00000 	mvnne	r0, #0
   18c18:	e12fff1e 	bx	lr
   18c1c:	20300000 	eorscs	r0, r0, r0
   18c20:	20003000 	andcs	r3, r0, r0

00018c24 <bcm2835_emmc_reset_dat>:
   18c24:	e59f3058 	ldr	r3, [pc, #88]	; 18c84 <bcm2835_emmc_reset_dat+0x60>
   18c28:	e59fc058 	ldr	ip, [pc, #88]	; 18c88 <bcm2835_emmc_reset_dat+0x64>
   18c2c:	e593202c 	ldr	r2, [r3, #44]	; 0x2c
   18c30:	e1a01003 	mov	r1, r3
   18c34:	e3822301 	orr	r2, r2, #67108864	; 0x4000000
   18c38:	e583202c 	str	r2, [r3, #44]	; 0x2c
   18c3c:	e59c3004 	ldr	r3, [ip, #4]
   18c40:	e1a0000c 	mov	r0, ip
   18c44:	e5932000 	ldr	r2, [r3]
   18c48:	e282293d 	add	r2, r2, #999424	; 0xf4000
   18c4c:	e2822d09 	add	r2, r2, #576	; 0x240
   18c50:	ea000003 	b	18c64 <bcm2835_emmc_reset_dat+0x40>
   18c54:	e5903004 	ldr	r3, [r0, #4]
   18c58:	e5933000 	ldr	r3, [r3]
   18c5c:	e1520003 	cmp	r2, r3
   18c60:	9a000002 	bls	18c70 <bcm2835_emmc_reset_dat+0x4c>
   18c64:	e591302c 	ldr	r3, [r1, #44]	; 0x2c
   18c68:	e3130301 	tst	r3, #67108864	; 0x4000000
   18c6c:	1afffff8 	bne	18c54 <bcm2835_emmc_reset_dat+0x30>
   18c70:	e59f300c 	ldr	r3, [pc, #12]	; 18c84 <bcm2835_emmc_reset_dat+0x60>
   18c74:	e593002c 	ldr	r0, [r3, #44]	; 0x2c
   18c78:	e2100301 	ands	r0, r0, #67108864	; 0x4000000
   18c7c:	13e00000 	mvnne	r0, #0
   18c80:	e12fff1e 	bx	lr
   18c84:	20300000 	eorscs	r0, r0, r0
   18c88:	20003000 	andcs	r3, r0, r0

00018c8c <bcm2835_emmc_set_clock>:
   18c8c:	e92d41f0 	push	{r4, r5, r6, r7, r8, lr}
   18c90:	e1a06000 	mov	r6, r0
   18c94:	e3a00004 	mov	r0, #4
   18c98:	eb000553 	bl	1a1ec <bcm2835_vc_get_clock_rate>
   18c9c:	e1500006 	cmp	r0, r6
   18ca0:	93a04000 	movls	r4, #0
   18ca4:	e1a05000 	mov	r5, r0
   18ca8:	91a08004 	movls	r8, r4
   18cac:	9a00000f 	bls	18cf0 <bcm2835_emmc_set_clock+0x64>
   18cb0:	e3a04002 	mov	r4, #2
   18cb4:	e59f70a8 	ldr	r7, [pc, #168]	; 18d64 <bcm2835_emmc_set_clock+0xd8>
   18cb8:	ea000002 	b	18cc8 <bcm2835_emmc_set_clock+0x3c>
   18cbc:	e2844002 	add	r4, r4, #2
   18cc0:	e1540007 	cmp	r4, r7
   18cc4:	0a000023 	beq	18d58 <bcm2835_emmc_set_clock+0xcc>
   18cc8:	e1a00005 	mov	r0, r5
   18ccc:	e1a01004 	mov	r1, r4
   18cd0:	eb00102a 	bl	1cd80 <__aeabi_uidiv>
   18cd4:	e1560000 	cmp	r6, r0
   18cd8:	3afffff7 	bcc	18cbc <bcm2835_emmc_set_clock+0x30>
   18cdc:	e1a040c4 	asr	r4, r4, #1
   18ce0:	e1a08404 	lsl	r8, r4, #8
   18ce4:	e2043c03 	and	r3, r4, #768	; 0x300
   18ce8:	e6ff8078 	uxth	r8, r8
   18cec:	e1a04123 	lsr	r4, r3, #2
   18cf0:	e59f3070 	ldr	r3, [pc, #112]	; 18d68 <bcm2835_emmc_set_clock+0xdc>
   18cf4:	e5930024 	ldr	r0, [r3, #36]	; 0x24
   18cf8:	e59f6068 	ldr	r6, [pc, #104]	; 18d68 <bcm2835_emmc_set_clock+0xdc>
   18cfc:	e2105001 	ands	r5, r0, #1
   18d00:	1afffffb 	bne	18cf4 <bcm2835_emmc_set_clock+0x68>
   18d04:	e596702c 	ldr	r7, [r6, #44]	; 0x2c
   18d08:	e1884004 	orr	r4, r8, r4
   18d0c:	e3c73004 	bic	r3, r7, #4
   18d10:	e3c77cff 	bic	r7, r7, #65280	; 0xff00
   18d14:	e3c770e4 	bic	r7, r7, #228	; 0xe4
   18d18:	e586302c 	str	r3, [r6, #44]	; 0x2c
   18d1c:	e1844007 	orr	r4, r4, r7
   18d20:	e3a00e7d 	mov	r0, #2000	; 0x7d0
   18d24:	e3a01000 	mov	r1, #0
   18d28:	eb0006be 	bl	1a828 <udelay>
   18d2c:	e586402c 	str	r4, [r6, #44]	; 0x2c
   18d30:	e3a00e7d 	mov	r0, #2000	; 0x7d0
   18d34:	e3a01000 	mov	r1, #0
   18d38:	e3844004 	orr	r4, r4, #4
   18d3c:	eb0006b9 	bl	1a828 <udelay>
   18d40:	e586402c 	str	r4, [r6, #44]	; 0x2c
   18d44:	e3a00e7d 	mov	r0, #2000	; 0x7d0
   18d48:	e3a01000 	mov	r1, #0
   18d4c:	eb0006b5 	bl	1a828 <udelay>
   18d50:	e1a00005 	mov	r0, r5
   18d54:	e8bd81f0 	pop	{r4, r5, r6, r7, r8, pc}
   18d58:	e3a040c0 	mov	r4, #192	; 0xc0
   18d5c:	e3a08cff 	mov	r8, #65280	; 0xff00
   18d60:	eaffffe2 	b	18cf0 <bcm2835_emmc_set_clock+0x64>
   18d64:	000007fe 	strdeq	r0, [r0], -lr
   18d68:	20300000 	eorscs	r0, r0, r0

00018d6c <bcm2825_emmc_init>:
   18d6c:	e92d43f8 	push	{r3, r4, r5, r6, r7, r8, r9, lr}
   18d70:	e3a00000 	mov	r0, #0
   18d74:	eb0005ad 	bl	1a430 <bcm2835_vc_get_power_state>
   18d78:	e3500000 	cmp	r0, #0
   18d7c:	0a00000a 	beq	18dac <bcm2825_emmc_init+0x40>
   18d80:	e3a00000 	mov	r0, #0
   18d84:	e3a01002 	mov	r1, #2
   18d88:	eb0005ce 	bl	1a4c8 <bcm2835_vc_set_power_state>
   18d8c:	e2403001 	sub	r3, r0, #1
   18d90:	e16f3f13 	clz	r3, r3
   18d94:	e1a032a3 	lsr	r3, r3, #5
   18d98:	e1933fa0 	orrs	r3, r3, r0, lsr #31
   18d9c:	1a000007 	bne	18dc0 <bcm2825_emmc_init+0x54>
   18da0:	e59f0194 	ldr	r0, [pc, #404]	; 18f3c <bcm2825_emmc_init+0x1d0>
   18da4:	e3a01000 	mov	r1, #0
   18da8:	eb00069e 	bl	1a828 <udelay>
   18dac:	e3a00000 	mov	r0, #0
   18db0:	e3a01003 	mov	r1, #3
   18db4:	eb0005c3 	bl	1a4c8 <bcm2835_vc_set_power_state>
   18db8:	e3500001 	cmp	r0, #1
   18dbc:	0a000002 	beq	18dcc <bcm2825_emmc_init+0x60>
   18dc0:	e3e04000 	mvn	r4, #0
   18dc4:	e1a00004 	mov	r0, r4
   18dc8:	e8bd83f8 	pop	{r3, r4, r5, r6, r7, r8, r9, pc}
   18dcc:	e59f216c 	ldr	r2, [pc, #364]	; 18f40 <bcm2825_emmc_init+0x1d4>
   18dd0:	e59230fc 	ldr	r3, [r2, #252]	; 0xfc
   18dd4:	e1a03823 	lsr	r3, r3, #16
   18dd8:	e6ef3073 	uxtb	r3, r3
   18ddc:	e3530001 	cmp	r3, #1
   18de0:	9afffff6 	bls	18dc0 <bcm2825_emmc_init+0x54>
   18de4:	e592302c 	ldr	r3, [r2, #44]	; 0x2c
   18de8:	e59fc154 	ldr	ip, [pc, #340]	; 18f44 <bcm2825_emmc_init+0x1d8>
   18dec:	e3c33005 	bic	r3, r3, #5
   18df0:	e3833401 	orr	r3, r3, #16777216	; 0x1000000
   18df4:	e582302c 	str	r3, [r2, #44]	; 0x2c
   18df8:	e59c3004 	ldr	r3, [ip, #4]
   18dfc:	e1a01002 	mov	r1, r2
   18e00:	e5932000 	ldr	r2, [r3]
   18e04:	e1a0000c 	mov	r0, ip
   18e08:	e282293d 	add	r2, r2, #999424	; 0xf4000
   18e0c:	e2822d09 	add	r2, r2, #576	; 0x240
   18e10:	ea000003 	b	18e24 <bcm2825_emmc_init+0xb8>
   18e14:	e5903004 	ldr	r3, [r0, #4]
   18e18:	e5933000 	ldr	r3, [r3]
   18e1c:	e1520003 	cmp	r2, r3
   18e20:	9a000002 	bls	18e30 <bcm2825_emmc_init+0xc4>
   18e24:	e591302c 	ldr	r3, [r1, #44]	; 0x2c
   18e28:	e3130407 	tst	r3, #117440512	; 0x7000000
   18e2c:	1afffff8 	bne	18e14 <bcm2825_emmc_init+0xa8>
   18e30:	e59f3108 	ldr	r3, [pc, #264]	; 18f40 <bcm2825_emmc_init+0x1d4>
   18e34:	e593402c 	ldr	r4, [r3, #44]	; 0x2c
   18e38:	e2144407 	ands	r4, r4, #117440512	; 0x7000000
   18e3c:	1affffdf 	bne	18dc0 <bcm2825_emmc_init+0x54>
   18e40:	e583403c 	str	r4, [r3, #60]	; 0x3c
   18e44:	e3a00004 	mov	r0, #4
   18e48:	e593702c 	ldr	r7, [r3, #44]	; 0x2c
   18e4c:	eb0004e6 	bl	1a1ec <bcm2835_vc_get_clock_rate>
   18e50:	e59f60f0 	ldr	r6, [pc, #240]	; 18f48 <bcm2825_emmc_init+0x1dc>
   18e54:	e1a08000 	mov	r8, r0
   18e58:	e1500006 	cmp	r0, r6
   18e5c:	91a03004 	movls	r3, r4
   18e60:	91a02004 	movls	r2, r4
   18e64:	9a00000f 	bls	18ea8 <bcm2825_emmc_init+0x13c>
   18e68:	e3a05002 	mov	r5, #2
   18e6c:	e59f90d8 	ldr	r9, [pc, #216]	; 18f4c <bcm2825_emmc_init+0x1e0>
   18e70:	ea000002 	b	18e80 <bcm2825_emmc_init+0x114>
   18e74:	e2855002 	add	r5, r5, #2
   18e78:	e1550009 	cmp	r5, r9
   18e7c:	0a00002b 	beq	18f30 <bcm2825_emmc_init+0x1c4>
   18e80:	e1a00008 	mov	r0, r8
   18e84:	e1a01005 	mov	r1, r5
   18e88:	eb000fbc 	bl	1cd80 <__aeabi_uidiv>
   18e8c:	e1500006 	cmp	r0, r6
   18e90:	8afffff7 	bhi	18e74 <bcm2825_emmc_init+0x108>
   18e94:	e1a050c5 	asr	r5, r5, #1
   18e98:	e1a02405 	lsl	r2, r5, #8
   18e9c:	e2055c03 	and	r5, r5, #768	; 0x300
   18ea0:	e6ff2072 	uxth	r2, r2
   18ea4:	e1a03125 	lsr	r3, r5, #2
   18ea8:	e387c807 	orr	ip, r7, #458752	; 0x70000
   18eac:	e38cc001 	orr	ip, ip, #1
   18eb0:	e59f5088 	ldr	r5, [pc, #136]	; 18f40 <bcm2825_emmc_init+0x1d4>
   18eb4:	e18c2002 	orr	r2, ip, r2
   18eb8:	e1823003 	orr	r3, r2, r3
   18ebc:	e59fe080 	ldr	lr, [pc, #128]	; 18f44 <bcm2825_emmc_init+0x1d8>
   18ec0:	e585302c 	str	r3, [r5, #44]	; 0x2c
   18ec4:	e59e3004 	ldr	r3, [lr, #4]
   18ec8:	e1a01005 	mov	r1, r5
   18ecc:	e5932000 	ldr	r2, [r3]
   18ed0:	e1a0000e 	mov	r0, lr
   18ed4:	e2822401 	add	r2, r2, #16777216	; 0x1000000
   18ed8:	ea000003 	b	18eec <bcm2825_emmc_init+0x180>
   18edc:	e5903004 	ldr	r3, [r0, #4]
   18ee0:	e5933000 	ldr	r3, [r3]
   18ee4:	e1520003 	cmp	r2, r3
   18ee8:	9a000002 	bls	18ef8 <bcm2825_emmc_init+0x18c>
   18eec:	e591302c 	ldr	r3, [r1, #44]	; 0x2c
   18ef0:	e3130002 	tst	r3, #2
   18ef4:	0afffff8 	beq	18edc <bcm2825_emmc_init+0x170>
   18ef8:	e59f5040 	ldr	r5, [pc, #64]	; 18f40 <bcm2825_emmc_init+0x1d4>
   18efc:	e595302c 	ldr	r3, [r5, #44]	; 0x2c
   18f00:	e3130002 	tst	r3, #2
   18f04:	0affffad 	beq	18dc0 <bcm2825_emmc_init+0x54>
   18f08:	e3a00e7d 	mov	r0, #2000	; 0x7d0
   18f0c:	e3a01000 	mov	r1, #0
   18f10:	eb000644 	bl	1a828 <udelay>
   18f14:	e595302c 	ldr	r3, [r5, #44]	; 0x2c
   18f18:	e3a00e7d 	mov	r0, #2000	; 0x7d0
   18f1c:	e3833004 	orr	r3, r3, #4
   18f20:	e3a01000 	mov	r1, #0
   18f24:	e585302c 	str	r3, [r5, #44]	; 0x2c
   18f28:	eb00063e 	bl	1a828 <udelay>
   18f2c:	eaffffa4 	b	18dc4 <bcm2825_emmc_init+0x58>
   18f30:	e3a030c0 	mov	r3, #192	; 0xc0
   18f34:	e3a02cff 	mov	r2, #65280	; 0xff00
   18f38:	eaffffda 	b	18ea8 <bcm2825_emmc_init+0x13c>
   18f3c:	00001388 	andeq	r1, r0, r8, lsl #7
   18f40:	20300000 	eorscs	r0, r0, r0
   18f44:	20003000 	andcs	r3, r0, r0
   18f48:	003d0900 	eorseq	r0, sp, r0, lsl #18
   18f4c:	000007fe 	strdeq	r0, [r0], -lr

00018f50 <bcm2835_emmc_issue_command>:
   18f50:	e92d4ff0 	push	{r4, r5, r6, r7, r8, r9, sl, fp, lr}
   18f54:	e1a06000 	mov	r6, r0
   18f58:	e1a04001 	mov	r4, r1
   18f5c:	e3a00000 	mov	r0, #0
   18f60:	e1a08003 	mov	r8, r3
   18f64:	e59f144c 	ldr	r1, [pc, #1100]	; 193b8 <bcm2835_emmc_issue_command+0x468>
   18f68:	e24dd01c 	sub	sp, sp, #28
   18f6c:	e5864038 	str	r4, [r6, #56]	; 0x38
   18f70:	e5860040 	str	r0, [r6, #64]	; 0x40
   18f74:	e5913024 	ldr	r3, [r1, #36]	; 0x24
   18f78:	e3130001 	tst	r3, #1
   18f7c:	1afffffc 	bne	18f74 <bcm2835_emmc_issue_command+0x24>
   18f80:	e2043803 	and	r3, r4, #196608	; 0x30000
   18f84:	e3530803 	cmp	r3, #196608	; 0x30000
   18f88:	0a000043 	beq	1909c <bcm2835_emmc_issue_command+0x14c>
   18f8c:	e3140602 	tst	r4, #2097152	; 0x200000
   18f90:	0a000012 	beq	18fe0 <bcm2835_emmc_issue_command+0x90>
   18f94:	e5963060 	ldr	r3, [r6, #96]	; 0x60
   18f98:	e3530000 	cmp	r3, #0
   18f9c:	0a00000f 	beq	18fe0 <bcm2835_emmc_issue_command+0x90>
   18fa0:	e5961058 	ldr	r1, [r6, #88]	; 0x58
   18fa4:	e59f340c 	ldr	r3, [pc, #1036]	; 193b8 <bcm2835_emmc_issue_command+0x468>
   18fa8:	e59f040c 	ldr	r0, [pc, #1036]	; 193bc <bcm2835_emmc_issue_command+0x46c>
   18fac:	e3510801 	cmp	r1, #65536	; 0x10000
   18fb0:	e5830000 	str	r0, [r3]
   18fb4:	aa000036 	bge	19094 <bcm2835_emmc_issue_command+0x144>
   18fb8:	e596005c 	ldr	r0, [r6, #92]	; 0x5c
   18fbc:	e3844001 	orr	r4, r4, #1
   18fc0:	e1801801 	orr	r1, r0, r1, lsl #16
   18fc4:	e5831004 	str	r1, [r3, #4]
   18fc8:	e3a01000 	mov	r1, #0
   18fcc:	e58d100c 	str	r1, [sp, #12]
   18fd0:	e5832008 	str	r2, [r3, #8]
   18fd4:	e3a03001 	mov	r3, #1
   18fd8:	e58d3010 	str	r3, [sp, #16]
   18fdc:	ea00000b 	b	19010 <bcm2835_emmc_issue_command+0xc0>
   18fe0:	e5963058 	ldr	r3, [r6, #88]	; 0x58
   18fe4:	e3530801 	cmp	r3, #65536	; 0x10000
   18fe8:	aa000029 	bge	19094 <bcm2835_emmc_issue_command+0x144>
   18fec:	e596105c 	ldr	r1, [r6, #92]	; 0x5c
   18ff0:	e59f03c0 	ldr	r0, [pc, #960]	; 193b8 <bcm2835_emmc_issue_command+0x468>
   18ff4:	e1813803 	orr	r3, r1, r3, lsl #16
   18ff8:	e5803004 	str	r3, [r0, #4]
   18ffc:	e3a03001 	mov	r3, #1
   19000:	e58d300c 	str	r3, [sp, #12]
   19004:	e3a03000 	mov	r3, #0
   19008:	e5802008 	str	r2, [r0, #8]
   1900c:	e58d3010 	str	r3, [sp, #16]
   19010:	e59f53a0 	ldr	r5, [pc, #928]	; 193b8 <bcm2835_emmc_issue_command+0x468>
   19014:	e3a00e7d 	mov	r0, #2000	; 0x7d0
   19018:	e3a01000 	mov	r1, #0
   1901c:	e585400c 	str	r4, [r5, #12]
   19020:	eb000600 	bl	1a828 <udelay>
   19024:	e59f3394 	ldr	r3, [pc, #916]	; 193c0 <bcm2835_emmc_issue_command+0x470>
   19028:	e1a01005 	mov	r1, r5
   1902c:	e1a0c003 	mov	ip, r3
   19030:	e5933004 	ldr	r3, [r3, #4]
   19034:	e5930000 	ldr	r0, [r3]
   19038:	e0880000 	add	r0, r8, r0
   1903c:	ea000003 	b	19050 <bcm2835_emmc_issue_command+0x100>
   19040:	e59c3004 	ldr	r3, [ip, #4]
   19044:	e5933000 	ldr	r3, [r3]
   19048:	e1500003 	cmp	r0, r3
   1904c:	9a000004 	bls	19064 <bcm2835_emmc_issue_command+0x114>
   19050:	e5912030 	ldr	r2, [r1, #48]	; 0x30
   19054:	e59f3368 	ldr	r3, [pc, #872]	; 193c4 <bcm2835_emmc_issue_command+0x474>
   19058:	e0033002 	and	r3, r3, r2
   1905c:	e3530000 	cmp	r3, #0
   19060:	0afffff6 	beq	19040 <bcm2835_emmc_issue_command+0xf0>
   19064:	e59f234c 	ldr	r2, [pc, #844]	; 193b8 <bcm2835_emmc_issue_command+0x468>
   19068:	e59f3358 	ldr	r3, [pc, #856]	; 193c8 <bcm2835_emmc_issue_command+0x478>
   1906c:	e5921030 	ldr	r1, [r2, #48]	; 0x30
   19070:	e5823030 	str	r3, [r2, #48]	; 0x30
   19074:	e3c13cff 	bic	r3, r1, #65280	; 0xff00
   19078:	e3c330fe 	bic	r3, r3, #254	; 0xfe
   1907c:	e3530001 	cmp	r3, #1
   19080:	0a00000d 	beq	190bc <bcm2835_emmc_issue_command+0x16c>
   19084:	e1a03821 	lsr	r3, r1, #16
   19088:	e1a03803 	lsl	r3, r3, #16
   1908c:	e5861028 	str	r1, [r6, #40]	; 0x28
   19090:	e586302c 	str	r3, [r6, #44]	; 0x2c
   19094:	e28dd01c 	add	sp, sp, #28
   19098:	e8bd8ff0 	pop	{r4, r5, r6, r7, r8, r9, sl, fp, pc}
   1909c:	e2043503 	and	r3, r4, #12582912	; 0xc00000
   190a0:	e3530503 	cmp	r3, #12582912	; 0xc00000
   190a4:	0affffb8 	beq	18f8c <bcm2835_emmc_issue_command+0x3c>
   190a8:	e59f1308 	ldr	r1, [pc, #776]	; 193b8 <bcm2835_emmc_issue_command+0x468>
   190ac:	e5913024 	ldr	r3, [r1, #36]	; 0x24
   190b0:	e3130002 	tst	r3, #2
   190b4:	1afffffc 	bne	190ac <bcm2835_emmc_issue_command+0x15c>
   190b8:	eaffffb3 	b	18f8c <bcm2835_emmc_issue_command+0x3c>
   190bc:	e204a803 	and	sl, r4, #196608	; 0x30000
   190c0:	e35a0802 	cmp	sl, #131072	; 0x20000
   190c4:	0a000065 	beq	19260 <bcm2835_emmc_issue_command+0x310>
   190c8:	e35a0803 	cmp	sl, #196608	; 0x30000
   190cc:	0a000063 	beq	19260 <bcm2835_emmc_issue_command+0x310>
   190d0:	e35a0801 	cmp	sl, #65536	; 0x10000
   190d4:	1a000007 	bne	190f8 <bcm2835_emmc_issue_command+0x1a8>
   190d8:	e5923010 	ldr	r3, [r2, #16]
   190dc:	e5863044 	str	r3, [r6, #68]	; 0x44
   190e0:	e5923014 	ldr	r3, [r2, #20]
   190e4:	e5863048 	str	r3, [r6, #72]	; 0x48
   190e8:	e5923018 	ldr	r3, [r2, #24]
   190ec:	e586304c 	str	r3, [r6, #76]	; 0x4c
   190f0:	e592301c 	ldr	r3, [r2, #28]
   190f4:	e5863050 	str	r3, [r6, #80]	; 0x50
   190f8:	e1a03aa4 	lsr	r3, r4, #21
   190fc:	e59d200c 	ldr	r2, [sp, #12]
   19100:	e2033001 	and	r3, r3, #1
   19104:	e1130002 	tst	r3, r2
   19108:	e58d3008 	str	r3, [sp, #8]
   1910c:	0a000037 	beq	191f0 <bcm2835_emmc_issue_command+0x2a0>
   19110:	e59f32b4 	ldr	r3, [pc, #692]	; 193cc <bcm2835_emmc_issue_command+0x47c>
   19114:	e2044010 	and	r4, r4, #16
   19118:	e3540000 	cmp	r4, #0
   1911c:	13a03000 	movne	r3, #0
   19120:	e59fe2a8 	ldr	lr, [pc, #680]	; 193d0 <bcm2835_emmc_issue_command+0x480>
   19124:	01a0e003 	moveq	lr, r3
   19128:	03a03001 	moveq	r3, #1
   1912c:	e58d3004 	str	r3, [sp, #4]
   19130:	13a03020 	movne	r3, #32
   19134:	03a03010 	moveq	r3, #16
   19138:	e59f2294 	ldr	r2, [pc, #660]	; 193d4 <bcm2835_emmc_issue_command+0x484>
   1913c:	e596b058 	ldr	fp, [r6, #88]	; 0x58
   19140:	e59f9290 	ldr	r9, [pc, #656]	; 193d8 <bcm2835_emmc_issue_command+0x488>
   19144:	01a09002 	moveq	r9, r2
   19148:	e35b0000 	cmp	fp, #0
   1914c:	e1a02003 	mov	r2, r3
   19150:	e5965054 	ldr	r5, [r6, #84]	; 0x54
   19154:	da000025 	ble	191f0 <bcm2835_emmc_issue_command+0x2a0>
   19158:	e58da014 	str	sl, [sp, #20]
   1915c:	e3a03000 	mov	r3, #0
   19160:	e1a0a002 	mov	sl, r2
   19164:	e59fc254 	ldr	ip, [pc, #596]	; 193c0 <bcm2835_emmc_issue_command+0x470>
   19168:	e59f1248 	ldr	r1, [pc, #584]	; 193b8 <bcm2835_emmc_issue_command+0x468>
   1916c:	e59c2004 	ldr	r2, [ip, #4]
   19170:	e5920000 	ldr	r0, [r2]
   19174:	e0800008 	add	r0, r0, r8
   19178:	ea000003 	b	1918c <bcm2835_emmc_issue_command+0x23c>
   1917c:	e59c2004 	ldr	r2, [ip, #4]
   19180:	e5922000 	ldr	r2, [r2]
   19184:	e1500002 	cmp	r0, r2
   19188:	9a000002 	bls	19198 <bcm2835_emmc_issue_command+0x248>
   1918c:	e5912030 	ldr	r2, [r1, #48]	; 0x30
   19190:	e11e0002 	tst	lr, r2
   19194:	0afffff8 	beq	1917c <bcm2835_emmc_issue_command+0x22c>
   19198:	e5912030 	ldr	r2, [r1, #48]	; 0x30
   1919c:	e5819030 	str	r9, [r1, #48]	; 0x30
   191a0:	e0090002 	and	r0, r9, r2
   191a4:	e150000a 	cmp	r0, sl
   191a8:	1a000078 	bne	19390 <bcm2835_emmc_issue_command+0x440>
   191ac:	e596005c 	ldr	r0, [r6, #92]	; 0x5c
   191b0:	e3500000 	cmp	r0, #0
   191b4:	0a000009 	beq	191e0 <bcm2835_emmc_issue_command+0x290>
   191b8:	e59d2004 	ldr	r2, [sp, #4]
   191bc:	e3520000 	cmp	r2, #0
   191c0:	e1a02005 	mov	r2, r5
   191c4:	1a000015 	bne	19220 <bcm2835_emmc_issue_command+0x2d0>
   191c8:	e5914020 	ldr	r4, [r1, #32]
   191cc:	e4824004 	str	r4, [r2], #4
   191d0:	e0654002 	rsb	r4, r5, r2
   191d4:	e1540000 	cmp	r4, r0
   191d8:	3afffffa 	bcc	191c8 <bcm2835_emmc_issue_command+0x278>
   191dc:	e1a05002 	mov	r5, r2
   191e0:	e2833001 	add	r3, r3, #1
   191e4:	e153000b 	cmp	r3, fp
   191e8:	1affffdf 	bne	1916c <bcm2835_emmc_issue_command+0x21c>
   191ec:	e59da014 	ldr	sl, [sp, #20]
   191f0:	e59d3008 	ldr	r3, [sp, #8]
   191f4:	e35a0803 	cmp	sl, #196608	; 0x30000
   191f8:	03833001 	orreq	r3, r3, #1
   191fc:	e3530000 	cmp	r3, #0
   19200:	1a00000c 	bne	19238 <bcm2835_emmc_issue_command+0x2e8>
   19204:	e59d3010 	ldr	r3, [sp, #16]
   19208:	e3530000 	cmp	r3, #0
   1920c:	1a000017 	bne	19270 <bcm2835_emmc_issue_command+0x320>
   19210:	e3a03001 	mov	r3, #1
   19214:	e5863040 	str	r3, [r6, #64]	; 0x40
   19218:	e28dd01c 	add	sp, sp, #28
   1921c:	e8bd8ff0 	pop	{r4, r5, r6, r7, r8, r9, sl, fp, pc}
   19220:	e4924004 	ldr	r4, [r2], #4
   19224:	e0657002 	rsb	r7, r5, r2
   19228:	e1570000 	cmp	r7, r0
   1922c:	e5814020 	str	r4, [r1, #32]
   19230:	3afffffa 	bcc	19220 <bcm2835_emmc_issue_command+0x2d0>
   19234:	eaffffe8 	b	191dc <bcm2835_emmc_issue_command+0x28c>
   19238:	e59d300c 	ldr	r3, [sp, #12]
   1923c:	e3530000 	cmp	r3, #0
   19240:	0a00000a 	beq	19270 <bcm2835_emmc_issue_command+0x320>
   19244:	e59f116c 	ldr	r1, [pc, #364]	; 193b8 <bcm2835_emmc_issue_command+0x468>
   19248:	e5913024 	ldr	r3, [r1, #36]	; 0x24
   1924c:	e3130002 	tst	r3, #2
   19250:	1a000035 	bne	1932c <bcm2835_emmc_issue_command+0x3dc>
   19254:	e59f3180 	ldr	r3, [pc, #384]	; 193dc <bcm2835_emmc_issue_command+0x48c>
   19258:	e5813030 	str	r3, [r1, #48]	; 0x30
   1925c:	eaffffeb 	b	19210 <bcm2835_emmc_issue_command+0x2c0>
   19260:	e59f3150 	ldr	r3, [pc, #336]	; 193b8 <bcm2835_emmc_issue_command+0x468>
   19264:	e5933010 	ldr	r3, [r3, #16]
   19268:	e5863044 	str	r3, [r6, #68]	; 0x44
   1926c:	eaffffa1 	b	190f8 <bcm2835_emmc_issue_command+0x1a8>
   19270:	e59f1140 	ldr	r1, [pc, #320]	; 193b8 <bcm2835_emmc_issue_command+0x468>
   19274:	e5913024 	ldr	r3, [r1, #36]	; 0x24
   19278:	e3130002 	tst	r3, #2
   1927c:	059f315c 	ldreq	r3, [pc, #348]	; 193e0 <bcm2835_emmc_issue_command+0x490>
   19280:	05813030 	streq	r3, [r1, #48]	; 0x30
   19284:	0affffe1 	beq	19210 <bcm2835_emmc_issue_command+0x2c0>
   19288:	e59f3130 	ldr	r3, [pc, #304]	; 193c0 <bcm2835_emmc_issue_command+0x470>
   1928c:	e1a00003 	mov	r0, r3
   19290:	e5933004 	ldr	r3, [r3, #4]
   19294:	e5933000 	ldr	r3, [r3]
   19298:	e0838008 	add	r8, r3, r8
   1929c:	ea000003 	b	192b0 <bcm2835_emmc_issue_command+0x360>
   192a0:	e5903004 	ldr	r3, [r0, #4]
   192a4:	e5933000 	ldr	r3, [r3]
   192a8:	e1580003 	cmp	r8, r3
   192ac:	9a000004 	bls	192c4 <bcm2835_emmc_issue_command+0x374>
   192b0:	e5912030 	ldr	r2, [r1, #48]	; 0x30
   192b4:	e59f3128 	ldr	r3, [pc, #296]	; 193e4 <bcm2835_emmc_issue_command+0x494>
   192b8:	e0033002 	and	r3, r3, r2
   192bc:	e3530000 	cmp	r3, #0
   192c0:	0afffff6 	beq	192a0 <bcm2835_emmc_issue_command+0x350>
   192c4:	e59f10ec 	ldr	r1, [pc, #236]	; 193b8 <bcm2835_emmc_issue_command+0x468>
   192c8:	e59f2118 	ldr	r2, [pc, #280]	; 193e8 <bcm2835_emmc_issue_command+0x498>
   192cc:	e5913030 	ldr	r3, [r1, #48]	; 0x30
   192d0:	e59f0108 	ldr	r0, [pc, #264]	; 193e0 <bcm2835_emmc_issue_command+0x490>
   192d4:	e0022003 	and	r2, r2, r3
   192d8:	e3520902 	cmp	r2, #32768	; 0x8000
   192dc:	e5810030 	str	r0, [r1, #48]	; 0x30
   192e0:	0a00000c 	beq	19318 <bcm2835_emmc_issue_command+0x3c8>
   192e4:	e203200a 	and	r2, r3, #10
   192e8:	e3520008 	cmp	r2, #8
   192ec:	0a000009 	beq	19318 <bcm2835_emmc_issue_command+0x3c8>
   192f0:	e3130002 	tst	r3, #2
   192f4:	1a00002a 	bne	193a4 <bcm2835_emmc_issue_command+0x454>
   192f8:	e3530000 	cmp	r3, #0
   192fc:	1a000005 	bne	19318 <bcm2835_emmc_issue_command+0x3c8>
   19300:	e5912024 	ldr	r2, [r1, #36]	; 0x24
   19304:	e2022003 	and	r2, r2, #3
   19308:	e3520002 	cmp	r2, #2
   1930c:	059f20d8 	ldreq	r2, [pc, #216]	; 193ec <bcm2835_emmc_issue_command+0x49c>
   19310:	05922030 	ldreq	r2, [r2, #48]	; 0x30
   19314:	0581200c 	streq	r2, [r1, #12]
   19318:	e1a02823 	lsr	r2, r3, #16
   1931c:	e1a02802 	lsl	r2, r2, #16
   19320:	e5863028 	str	r3, [r6, #40]	; 0x28
   19324:	e586202c 	str	r2, [r6, #44]	; 0x2c
   19328:	eaffff59 	b	19094 <bcm2835_emmc_issue_command+0x144>
   1932c:	e59f308c 	ldr	r3, [pc, #140]	; 193c0 <bcm2835_emmc_issue_command+0x470>
   19330:	e1a00003 	mov	r0, r3
   19334:	e5933004 	ldr	r3, [r3, #4]
   19338:	e5933000 	ldr	r3, [r3]
   1933c:	e0838008 	add	r8, r3, r8
   19340:	ea000003 	b	19354 <bcm2835_emmc_issue_command+0x404>
   19344:	e5903004 	ldr	r3, [r0, #4]
   19348:	e5933000 	ldr	r3, [r3]
   1934c:	e1580003 	cmp	r8, r3
   19350:	9a000004 	bls	19368 <bcm2835_emmc_issue_command+0x418>
   19354:	e5912030 	ldr	r2, [r1, #48]	; 0x30
   19358:	e59f3088 	ldr	r3, [pc, #136]	; 193e8 <bcm2835_emmc_issue_command+0x498>
   1935c:	e0033002 	and	r3, r3, r2
   19360:	e3530000 	cmp	r3, #0
   19364:	0afffff6 	beq	19344 <bcm2835_emmc_issue_command+0x3f4>
   19368:	e59f2048 	ldr	r2, [pc, #72]	; 193b8 <bcm2835_emmc_issue_command+0x468>
   1936c:	e59f307c 	ldr	r3, [pc, #124]	; 193f0 <bcm2835_emmc_issue_command+0x4a0>
   19370:	e5921030 	ldr	r1, [r2, #48]	; 0x30
   19374:	e59f0060 	ldr	r0, [pc, #96]	; 193dc <bcm2835_emmc_issue_command+0x48c>
   19378:	e0033001 	and	r3, r3, r1
   1937c:	e3530002 	cmp	r3, #2
   19380:	e5820030 	str	r0, [r2, #48]	; 0x30
   19384:	05820030 	streq	r0, [r2, #48]	; 0x30
   19388:	0affffa0 	beq	19210 <bcm2835_emmc_issue_command+0x2c0>
   1938c:	eaffff3c 	b	19084 <bcm2835_emmc_issue_command+0x134>
   19390:	e1a03822 	lsr	r3, r2, #16
   19394:	e1a03803 	lsl	r3, r3, #16
   19398:	e5862028 	str	r2, [r6, #40]	; 0x28
   1939c:	e586302c 	str	r3, [r6, #44]	; 0x2c
   193a0:	eaffff3b 	b	19094 <bcm2835_emmc_issue_command+0x144>
   193a4:	e5960054 	ldr	r0, [r6, #84]	; 0x54
   193a8:	e3a01a06 	mov	r1, #24576	; 0x6000
   193ac:	e596205c 	ldr	r2, [r6, #92]	; 0x5c
   193b0:	eb0007df 	bl	1b334 <memcpy>
   193b4:	eaffff95 	b	19210 <bcm2835_emmc_issue_command+0x2c0>
   193b8:	20300000 	eorscs	r0, r0, r0
   193bc:	c0006000 	andgt	r6, r0, r0
   193c0:	20003000 	andcs	r3, r0, r0
   193c4:	00008001 	andeq	r8, r0, r1
   193c8:	ffff0001 			; <UNDEFINED> instruction: 0xffff0001
   193cc:	00008010 	andeq	r8, r0, r0, lsl r0
   193d0:	00008020 	andeq	r8, r0, r0, lsr #32
   193d4:	ffff0010 			; <UNDEFINED> instruction: 0xffff0010
   193d8:	ffff0020 			; <UNDEFINED> instruction: 0xffff0020
   193dc:	ffff0002 			; <UNDEFINED> instruction: 0xffff0002
   193e0:	ffff000a 			; <UNDEFINED> instruction: 0xffff000a
   193e4:	0000800a 	andeq	r8, r0, sl
   193e8:	00008002 	andeq	r8, r0, r2
   193ec:	0001df70 	andeq	sp, r1, r0, ror pc
   193f0:	ffef0002 			; <UNDEFINED> instruction: 0xffef0002

000193f4 <bcm2835_emmc_handle_interrupts>:
   193f4:	e92d4038 	push	{r3, r4, r5, lr}
   193f8:	e59f314c 	ldr	r3, [pc, #332]	; 1954c <bcm2835_emmc_handle_interrupts+0x158>
   193fc:	e5935030 	ldr	r5, [r3, #48]	; 0x30
   19400:	e2054001 	and	r4, r5, #1
   19404:	e3150002 	tst	r5, #2
   19408:	13844002 	orrne	r4, r4, #2
   1940c:	e3150004 	tst	r5, #4
   19410:	13844004 	orrne	r4, r4, #4
   19414:	e3150008 	tst	r5, #8
   19418:	13844008 	orrne	r4, r4, #8
   1941c:	e3150010 	tst	r5, #16
   19420:	1a00000f 	bne	19464 <bcm2835_emmc_handle_interrupts+0x70>
   19424:	e3150020 	tst	r5, #32
   19428:	1a000025 	bne	194c4 <bcm2835_emmc_handle_interrupts+0xd0>
   1942c:	e3150040 	tst	r5, #64	; 0x40
   19430:	13844040 	orrne	r4, r4, #64	; 0x40
   19434:	e3150080 	tst	r5, #128	; 0x80
   19438:	13a03001 	movne	r3, #1
   1943c:	13844080 	orrne	r4, r4, #128	; 0x80
   19440:	15803064 	strne	r3, [r0, #100]	; 0x64
   19444:	e3150c01 	tst	r5, #256	; 0x100
   19448:	1a000034 	bne	19520 <bcm2835_emmc_handle_interrupts+0x12c>
   1944c:	e3150902 	tst	r5, #32768	; 0x8000
   19450:	11e04804 	mvnne	r4, r4, lsl #16
   19454:	11e04824 	mvnne	r4, r4, lsr #16
   19458:	e59f30ec 	ldr	r3, [pc, #236]	; 1954c <bcm2835_emmc_handle_interrupts+0x158>
   1945c:	e5834030 	str	r4, [r3, #48]	; 0x30
   19460:	e8bd8038 	pop	{r3, r4, r5, pc}
   19464:	e59f30e0 	ldr	r3, [pc, #224]	; 1954c <bcm2835_emmc_handle_interrupts+0x158>
   19468:	e59fe0e0 	ldr	lr, [pc, #224]	; 19550 <bcm2835_emmc_handle_interrupts+0x15c>
   1946c:	e593202c 	ldr	r2, [r3, #44]	; 0x2c
   19470:	e1a01003 	mov	r1, r3
   19474:	e3822301 	orr	r2, r2, #67108864	; 0x4000000
   19478:	e583202c 	str	r2, [r3, #44]	; 0x2c
   1947c:	e59e3004 	ldr	r3, [lr, #4]
   19480:	e1a0c00e 	mov	ip, lr
   19484:	e5932000 	ldr	r2, [r3]
   19488:	e3844010 	orr	r4, r4, #16
   1948c:	e282293d 	add	r2, r2, #999424	; 0xf4000
   19490:	e2822d09 	add	r2, r2, #576	; 0x240
   19494:	ea000003 	b	194a8 <bcm2835_emmc_handle_interrupts+0xb4>
   19498:	e59c3004 	ldr	r3, [ip, #4]
   1949c:	e5933000 	ldr	r3, [r3]
   194a0:	e1520003 	cmp	r2, r3
   194a4:	9a000002 	bls	194b4 <bcm2835_emmc_handle_interrupts+0xc0>
   194a8:	e591302c 	ldr	r3, [r1, #44]	; 0x2c
   194ac:	e3130301 	tst	r3, #67108864	; 0x4000000
   194b0:	1afffff8 	bne	19498 <bcm2835_emmc_handle_interrupts+0xa4>
   194b4:	e59f3090 	ldr	r3, [pc, #144]	; 1954c <bcm2835_emmc_handle_interrupts+0x158>
   194b8:	e3150020 	tst	r5, #32
   194bc:	e593302c 	ldr	r3, [r3, #44]	; 0x2c
   194c0:	0affffd9 	beq	1942c <bcm2835_emmc_handle_interrupts+0x38>
   194c4:	e59f3080 	ldr	r3, [pc, #128]	; 1954c <bcm2835_emmc_handle_interrupts+0x158>
   194c8:	e59fe080 	ldr	lr, [pc, #128]	; 19550 <bcm2835_emmc_handle_interrupts+0x15c>
   194cc:	e593202c 	ldr	r2, [r3, #44]	; 0x2c
   194d0:	e1a01003 	mov	r1, r3
   194d4:	e3822301 	orr	r2, r2, #67108864	; 0x4000000
   194d8:	e583202c 	str	r2, [r3, #44]	; 0x2c
   194dc:	e59e3004 	ldr	r3, [lr, #4]
   194e0:	e1a0c00e 	mov	ip, lr
   194e4:	e5932000 	ldr	r2, [r3]
   194e8:	e3844020 	orr	r4, r4, #32
   194ec:	e282293d 	add	r2, r2, #999424	; 0xf4000
   194f0:	e2822d09 	add	r2, r2, #576	; 0x240
   194f4:	ea000003 	b	19508 <bcm2835_emmc_handle_interrupts+0x114>
   194f8:	e59c3004 	ldr	r3, [ip, #4]
   194fc:	e5933000 	ldr	r3, [r3]
   19500:	e1520003 	cmp	r2, r3
   19504:	9a000002 	bls	19514 <bcm2835_emmc_handle_interrupts+0x120>
   19508:	e591302c 	ldr	r3, [r1, #44]	; 0x2c
   1950c:	e3130301 	tst	r3, #67108864	; 0x4000000
   19510:	1afffff8 	bne	194f8 <bcm2835_emmc_handle_interrupts+0x104>
   19514:	e59f3030 	ldr	r3, [pc, #48]	; 1954c <bcm2835_emmc_handle_interrupts+0x158>
   19518:	e593302c 	ldr	r3, [r3, #44]	; 0x2c
   1951c:	eaffffc2 	b	1942c <bcm2835_emmc_handle_interrupts+0x38>
   19520:	e5902024 	ldr	r2, [r0, #36]	; 0x24
   19524:	e3520000 	cmp	r2, #0
   19528:	03844c01 	orreq	r4, r4, #256	; 0x100
   1952c:	0affffc6 	beq	1944c <bcm2835_emmc_handle_interrupts+0x58>
   19530:	e59f301c 	ldr	r3, [pc, #28]	; 19554 <bcm2835_emmc_handle_interrupts+0x160>
   19534:	e1a02802 	lsl	r2, r2, #16
   19538:	e5931034 	ldr	r1, [r3, #52]	; 0x34
   1953c:	e59f3014 	ldr	r3, [pc, #20]	; 19558 <bcm2835_emmc_handle_interrupts+0x164>
   19540:	ebfffe82 	bl	18f50 <bcm2835_emmc_issue_command>
   19544:	e3844c01 	orr	r4, r4, #256	; 0x100
   19548:	eaffffbf 	b	1944c <bcm2835_emmc_handle_interrupts+0x58>
   1954c:	20300000 	eorscs	r0, r0, r0
   19550:	20003000 	andcs	r3, r0, r0
   19554:	0001df70 	andeq	sp, r1, r0, ror pc
   19558:	0007a120 	andeq	sl, r7, r0, lsr #2

0001955c <bcm2835_emmc_enable_all_interrupts_not_arm>:
   1955c:	e3a00000 	mov	r0, #0
   19560:	e3e01000 	mvn	r1, #0
   19564:	e3e02c01 	mvn	r2, #256	; 0x100
   19568:	e59f300c 	ldr	r3, [pc, #12]	; 1957c <bcm2835_emmc_enable_all_interrupts_not_arm+0x20>
   1956c:	e5830038 	str	r0, [r3, #56]	; 0x38
   19570:	e5831030 	str	r1, [r3, #48]	; 0x30
   19574:	e5832034 	str	r2, [r3, #52]	; 0x34
   19578:	e12fff1e 	bx	lr
   1957c:	20300000 	eorscs	r0, r0, r0

00019580 <bcm2835_emmc_disable_card_interrupt>:
   19580:	e59f300c 	ldr	r3, [pc, #12]	; 19594 <bcm2835_emmc_disable_card_interrupt+0x14>
   19584:	e5930034 	ldr	r0, [r3, #52]	; 0x34
   19588:	e3c02c01 	bic	r2, r0, #256	; 0x100
   1958c:	e5832034 	str	r2, [r3, #52]	; 0x34
   19590:	e12fff1e 	bx	lr
   19594:	20300000 	eorscs	r0, r0, r0

00019598 <bcm2835_emmc_4bit_mode_change_bit>:
   19598:	e59f3010 	ldr	r3, [pc, #16]	; 195b0 <bcm2835_emmc_4bit_mode_change_bit+0x18>
   1959c:	e5932028 	ldr	r2, [r3, #40]	; 0x28
   195a0:	e3822002 	orr	r2, r2, #2
   195a4:	e5832028 	str	r2, [r3, #40]	; 0x28
   195a8:	e5830034 	str	r0, [r3, #52]	; 0x34
   195ac:	e12fff1e 	bx	lr
   195b0:	20300000 	eorscs	r0, r0, r0

000195b4 <bcm2835_emmc_set_block_size>:
   195b4:	e59f2014 	ldr	r2, [pc, #20]	; 195d0 <bcm2835_emmc_set_block_size+0x1c>
   195b8:	e5923004 	ldr	r3, [r2, #4]
   195bc:	e3c33eff 	bic	r3, r3, #4080	; 0xff0
   195c0:	e3c3300f 	bic	r3, r3, #15
   195c4:	e1800003 	orr	r0, r0, r3
   195c8:	e5820004 	str	r0, [r2, #4]
   195cc:	e12fff1e 	bx	lr
   195d0:	20300000 	eorscs	r0, r0, r0

000195d4 <bcm2835_emmc_reset_interrupt_register>:
   195d4:	e3e02000 	mvn	r2, #0
   195d8:	e59f3004 	ldr	r3, [pc, #4]	; 195e4 <bcm2835_emmc_reset_interrupt_register+0x10>
   195dc:	e5832030 	str	r2, [r3, #48]	; 0x30
   195e0:	e12fff1e 	bx	lr
   195e4:	20300000 	eorscs	r0, r0, r0

000195e8 <hardware_uptime_seconds>:
   195e8:	e59f1040 	ldr	r1, [pc, #64]	; 19630 <hardware_uptime_seconds+0x48>
   195ec:	e59f0040 	ldr	r0, [pc, #64]	; 19634 <hardware_uptime_seconds+0x4c>
   195f0:	e5912004 	ldr	r2, [r1, #4]
   195f4:	e92d4008 	push	{r3, lr}
   195f8:	e5913008 	ldr	r3, [r1, #8]
   195fc:	e1c000d0 	ldrd	r0, [r0]
   19600:	e0520000 	subs	r0, r2, r0
   19604:	e0c31001 	sbc	r1, r3, r1
   19608:	eb000fc1 	bl	1d514 <__aeabi_ul2d>
   1960c:	ed9f7b05 	vldr	d7, [pc, #20]	; 19628 <hardware_uptime_seconds+0x40>
   19610:	ec410b16 	vmov	d6, r0, r1
   19614:	ee867b07 	vdiv.f64	d7, d6, d7
   19618:	ec510b17 	vmov	r0, r1, d7
   1961c:	eb000fe9 	bl	1d5c8 <__aeabi_d2ulz>
   19620:	e8bd8008 	pop	{r3, pc}
   19624:	e320f000 	nop	{0}
   19628:	00000000 	andeq	r0, r0, r0
   1962c:	412e8480 	smlawbmi	lr, r0, r4, r8
   19630:	20003000 	andcs	r3, r0, r0
   19634:	00021c50 	andeq	r1, r2, r0, asr ip

00019638 <hardware_get_firmware_revision>:
   19638:	ea0003f7 	b	1a61c <bcm2835_vc_get_get_firmware_revision>

0001963c <hardware_get_firmware_copyright>:
   1963c:	e59f0000 	ldr	r0, [pc]	; 19644 <hardware_get_firmware_copyright+0x8>
   19640:	e12fff1e 	bx	lr
   19644:	0001e070 	andeq	lr, r1, r0, ror r0

00019648 <hardware_get_firmware_copyright_length>:
   19648:	e3a0001b 	mov	r0, #27
   1964c:	e12fff1e 	bx	lr

00019650 <hardware_get_board_model_id>:
   19650:	ea000428 	b	1a6f8 <bcm2835_vc_get_get_board_revision>

00019654 <hardware_get_board_model>:
   19654:	e92d4008 	push	{r3, lr}
   19658:	eb000426 	bl	1a6f8 <bcm2835_vc_get_get_board_revision>
   1965c:	e3500000 	cmp	r0, #0
   19660:	da000022 	ble	196f0 <hardware_get_board_model+0x9c>
   19664:	e3500002 	cmp	r0, #2
   19668:	0a00002a 	beq	19718 <hardware_get_board_model+0xc4>
   1966c:	e3500003 	cmp	r0, #3
   19670:	0a00002a 	beq	19720 <hardware_get_board_model+0xcc>
   19674:	e3500004 	cmp	r0, #4
   19678:	0a00002a 	beq	19728 <hardware_get_board_model+0xd4>
   1967c:	e3500005 	cmp	r0, #5
   19680:	0a00002a 	beq	19730 <hardware_get_board_model+0xdc>
   19684:	e3500006 	cmp	r0, #6
   19688:	0a00002a 	beq	19738 <hardware_get_board_model+0xe4>
   1968c:	e3500007 	cmp	r0, #7
   19690:	0a00002a 	beq	19740 <hardware_get_board_model+0xec>
   19694:	e3500008 	cmp	r0, #8
   19698:	0a00002a 	beq	19748 <hardware_get_board_model+0xf4>
   1969c:	e3500009 	cmp	r0, #9
   196a0:	0a00002a 	beq	19750 <hardware_get_board_model+0xfc>
   196a4:	e350000d 	cmp	r0, #13
   196a8:	0a00002a 	beq	19758 <hardware_get_board_model+0x104>
   196ac:	e350000e 	cmp	r0, #14
   196b0:	0a00002a 	beq	19760 <hardware_get_board_model+0x10c>
   196b4:	e350000f 	cmp	r0, #15
   196b8:	0a000014 	beq	19710 <hardware_get_board_model+0xbc>
   196bc:	e3500010 	cmp	r0, #16
   196c0:	0a000028 	beq	19768 <hardware_get_board_model+0x114>
   196c4:	e3500011 	cmp	r0, #17
   196c8:	0a000028 	beq	19770 <hardware_get_board_model+0x11c>
   196cc:	e3500012 	cmp	r0, #18
   196d0:	0a000028 	beq	19778 <hardware_get_board_model+0x124>
   196d4:	e59f30a4 	ldr	r3, [pc, #164]	; 19780 <hardware_get_board_model+0x12c>
   196d8:	e1500003 	cmp	r0, r3
   196dc:	0a000005 	beq	196f8 <hardware_get_board_model+0xa4>
   196e0:	e2833802 	add	r3, r3, #131072	; 0x20000
   196e4:	e1500003 	cmp	r0, r3
   196e8:	03a00010 	moveq	r0, #16
   196ec:	0a000002 	beq	196fc <hardware_get_board_model+0xa8>
   196f0:	e59f008c 	ldr	r0, [pc, #140]	; 19784 <hardware_get_board_model+0x130>
   196f4:	e8bd8008 	pop	{r3, pc}
   196f8:	e3a0000f 	mov	r0, #15
   196fc:	e59f3084 	ldr	r3, [pc, #132]	; 19788 <hardware_get_board_model+0x134>
   19700:	e0600180 	rsb	r0, r0, r0, lsl #3
   19704:	e0830100 	add	r0, r3, r0, lsl #2
   19708:	e2800004 	add	r0, r0, #4
   1970c:	e8bd8008 	pop	{r3, pc}
   19710:	e3a0000b 	mov	r0, #11
   19714:	eafffff8 	b	196fc <hardware_get_board_model+0xa8>
   19718:	e3a00001 	mov	r0, #1
   1971c:	eafffff6 	b	196fc <hardware_get_board_model+0xa8>
   19720:	e3a00002 	mov	r0, #2
   19724:	eafffff4 	b	196fc <hardware_get_board_model+0xa8>
   19728:	e3a00003 	mov	r0, #3
   1972c:	eafffff2 	b	196fc <hardware_get_board_model+0xa8>
   19730:	e3a00004 	mov	r0, #4
   19734:	eafffff0 	b	196fc <hardware_get_board_model+0xa8>
   19738:	e3a00005 	mov	r0, #5
   1973c:	eaffffee 	b	196fc <hardware_get_board_model+0xa8>
   19740:	e3a00006 	mov	r0, #6
   19744:	eaffffec 	b	196fc <hardware_get_board_model+0xa8>
   19748:	e3a00007 	mov	r0, #7
   1974c:	eaffffea 	b	196fc <hardware_get_board_model+0xa8>
   19750:	e3a00008 	mov	r0, #8
   19754:	eaffffe8 	b	196fc <hardware_get_board_model+0xa8>
   19758:	e3a00009 	mov	r0, #9
   1975c:	eaffffe6 	b	196fc <hardware_get_board_model+0xa8>
   19760:	e3a0000a 	mov	r0, #10
   19764:	eaffffe4 	b	196fc <hardware_get_board_model+0xa8>
   19768:	e3a0000c 	mov	r0, #12
   1976c:	eaffffe2 	b	196fc <hardware_get_board_model+0xa8>
   19770:	e3a0000d 	mov	r0, #13
   19774:	eaffffe0 	b	196fc <hardware_get_board_model+0xa8>
   19778:	e3a0000e 	mov	r0, #14
   1977c:	eaffffde 	b	196fc <hardware_get_board_model+0xa8>
   19780:	00a01041 	adceq	r1, r0, r1, asr #32
   19784:	0001e090 	muleq	r1, r0, r0
   19788:	0001e08c 	andeq	lr, r1, ip, lsl #1

0001978c <hardware_get_board_model_length>:
   1978c:	e3a00014 	mov	r0, #20
   19790:	e12fff1e 	bx	lr

00019794 <hardware_led_init>:
   19794:	e59f3004 	ldr	r3, [pc, #4]	; 197a0 <hardware_led_init+0xc>
   19798:	e5933000 	ldr	r3, [r3]
   1979c:	e12fff13 	bx	r3
   197a0:	0001edc0 	andeq	lr, r1, r0, asr #27

000197a4 <hardware_led_set>:
   197a4:	e59f3004 	ldr	r3, [pc, #4]	; 197b0 <hardware_led_set+0xc>
   197a8:	e5933004 	ldr	r3, [r3, #4]
   197ac:	e12fff13 	bx	r3
   197b0:	0001edc0 	andeq	lr, r1, r0, asr #27

000197b4 <hardware_rtc_set>:
   197b4:	e92d4070 	push	{r4, r5, r6, lr}
   197b8:	e1d030b6 	ldrh	r3, [r0, #6]
   197bc:	e5d04002 	ldrb	r4, [r0, #2]
   197c0:	e5d0e001 	ldrb	lr, [r0, #1]
   197c4:	e5d0c000 	ldrb	ip, [r0]
   197c8:	e5d01003 	ldrb	r1, [r0, #3]
   197cc:	e5d02004 	ldrb	r2, [r0, #4]
   197d0:	e24dd048 	sub	sp, sp, #72	; 0x48
   197d4:	e2433e7d 	sub	r3, r3, #2000	; 0x7d0
   197d8:	e3a00000 	mov	r0, #0
   197dc:	e58d3014 	str	r3, [sp, #20]
   197e0:	e58d4008 	str	r4, [sp, #8]
   197e4:	e88d5000 	stm	sp, {ip, lr}
   197e8:	e58d100c 	str	r1, [sp, #12]
   197ec:	e58d2010 	str	r2, [sp, #16]
   197f0:	eb0000e8 	bl	19b98 <mcp7941x_start>
   197f4:	e3500001 	cmp	r0, #1
   197f8:	0a000001 	beq	19804 <hardware_rtc_set+0x50>
   197fc:	e1a0000d 	mov	r0, sp
   19800:	eb000141 	bl	19d0c <mcp7941x_set_date_time>
   19804:	e99d0030 	ldmib	sp, {r4, r5}
   19808:	e3a06000 	mov	r6, #0
   1980c:	e59de000 	ldr	lr, [sp]
   19810:	e59dc00c 	ldr	ip, [sp, #12]
   19814:	e59d1018 	ldr	r1, [sp, #24]
   19818:	e59d2010 	ldr	r2, [sp, #16]
   1981c:	e59d3014 	ldr	r3, [sp, #20]
   19820:	e28d0024 	add	r0, sp, #36	; 0x24
   19824:	e58d6044 	str	r6, [sp, #68]	; 0x44
   19828:	e58d502c 	str	r5, [sp, #44]	; 0x2c
   1982c:	e58d4028 	str	r4, [sp, #40]	; 0x28
   19830:	e58de024 	str	lr, [sp, #36]	; 0x24
   19834:	e58dc030 	str	ip, [sp, #48]	; 0x30
   19838:	e58d103c 	str	r1, [sp, #60]	; 0x3c
   1983c:	e58d2034 	str	r2, [sp, #52]	; 0x34
   19840:	e58d3038 	str	r3, [sp, #56]	; 0x38
   19844:	eb0000af 	bl	19b08 <sys_time_set>
   19848:	e28dd048 	add	sp, sp, #72	; 0x48
   1984c:	e8bd8070 	pop	{r4, r5, r6, pc}

00019850 <hardware_print_board_model>:
   19850:	e92d4008 	push	{r3, lr}
   19854:	eb0003a7 	bl	1a6f8 <bcm2835_vc_get_get_board_revision>
   19858:	e3500000 	cmp	r0, #0
   1985c:	da000022 	ble	198ec <hardware_print_board_model+0x9c>
   19860:	e3500002 	cmp	r0, #2
   19864:	0a00002c 	beq	1991c <hardware_print_board_model+0xcc>
   19868:	e3500003 	cmp	r0, #3
   1986c:	0a00002c 	beq	19924 <hardware_print_board_model+0xd4>
   19870:	e3500004 	cmp	r0, #4
   19874:	0a00002c 	beq	1992c <hardware_print_board_model+0xdc>
   19878:	e3500005 	cmp	r0, #5
   1987c:	0a00002c 	beq	19934 <hardware_print_board_model+0xe4>
   19880:	e3500006 	cmp	r0, #6
   19884:	0a00002c 	beq	1993c <hardware_print_board_model+0xec>
   19888:	e3500007 	cmp	r0, #7
   1988c:	0a00002c 	beq	19944 <hardware_print_board_model+0xf4>
   19890:	e3500008 	cmp	r0, #8
   19894:	0a00002c 	beq	1994c <hardware_print_board_model+0xfc>
   19898:	e3500009 	cmp	r0, #9
   1989c:	0a00002c 	beq	19954 <hardware_print_board_model+0x104>
   198a0:	e350000d 	cmp	r0, #13
   198a4:	0a00002c 	beq	1995c <hardware_print_board_model+0x10c>
   198a8:	e350000e 	cmp	r0, #14
   198ac:	0a00002c 	beq	19964 <hardware_print_board_model+0x114>
   198b0:	e350000f 	cmp	r0, #15
   198b4:	0a000016 	beq	19914 <hardware_print_board_model+0xc4>
   198b8:	e3500010 	cmp	r0, #16
   198bc:	0a00002a 	beq	1996c <hardware_print_board_model+0x11c>
   198c0:	e3500011 	cmp	r0, #17
   198c4:	0a00002a 	beq	19974 <hardware_print_board_model+0x124>
   198c8:	e3500012 	cmp	r0, #18
   198cc:	0a00002a 	beq	1997c <hardware_print_board_model+0x12c>
   198d0:	e59f30ac 	ldr	r3, [pc, #172]	; 19984 <hardware_print_board_model+0x134>
   198d4:	e1500003 	cmp	r0, r3
   198d8:	0a000006 	beq	198f8 <hardware_print_board_model+0xa8>
   198dc:	e2833802 	add	r3, r3, #131072	; 0x20000
   198e0:	e1500003 	cmp	r0, r3
   198e4:	03a00010 	moveq	r0, #16
   198e8:	0a000003 	beq	198fc <hardware_print_board_model+0xac>
   198ec:	e8bd4008 	pop	{r3, lr}
   198f0:	e59f0090 	ldr	r0, [pc, #144]	; 19988 <hardware_print_board_model+0x138>
   198f4:	eaffca9d 	b	c370 <console_puts>
   198f8:	e3a0000f 	mov	r0, #15
   198fc:	e59f3088 	ldr	r3, [pc, #136]	; 1998c <hardware_print_board_model+0x13c>
   19900:	e0600180 	rsb	r0, r0, r0, lsl #3
   19904:	e0830100 	add	r0, r3, r0, lsl #2
   19908:	e2800004 	add	r0, r0, #4
   1990c:	e8bd4008 	pop	{r3, lr}
   19910:	eaffca96 	b	c370 <console_puts>
   19914:	e3a0000b 	mov	r0, #11
   19918:	eafffff7 	b	198fc <hardware_print_board_model+0xac>
   1991c:	e3a00001 	mov	r0, #1
   19920:	eafffff5 	b	198fc <hardware_print_board_model+0xac>
   19924:	e3a00002 	mov	r0, #2
   19928:	eafffff3 	b	198fc <hardware_print_board_model+0xac>
   1992c:	e3a00003 	mov	r0, #3
   19930:	eafffff1 	b	198fc <hardware_print_board_model+0xac>
   19934:	e3a00004 	mov	r0, #4
   19938:	eaffffef 	b	198fc <hardware_print_board_model+0xac>
   1993c:	e3a00005 	mov	r0, #5
   19940:	eaffffed 	b	198fc <hardware_print_board_model+0xac>
   19944:	e3a00006 	mov	r0, #6
   19948:	eaffffeb 	b	198fc <hardware_print_board_model+0xac>
   1994c:	e3a00007 	mov	r0, #7
   19950:	eaffffe9 	b	198fc <hardware_print_board_model+0xac>
   19954:	e3a00008 	mov	r0, #8
   19958:	eaffffe7 	b	198fc <hardware_print_board_model+0xac>
   1995c:	e3a00009 	mov	r0, #9
   19960:	eaffffe5 	b	198fc <hardware_print_board_model+0xac>
   19964:	e3a0000a 	mov	r0, #10
   19968:	eaffffe3 	b	198fc <hardware_print_board_model+0xac>
   1996c:	e3a0000c 	mov	r0, #12
   19970:	eaffffe1 	b	198fc <hardware_print_board_model+0xac>
   19974:	e3a0000d 	mov	r0, #13
   19978:	eaffffdf 	b	198fc <hardware_print_board_model+0xac>
   1997c:	e3a0000e 	mov	r0, #14
   19980:	eaffffdd 	b	198fc <hardware_print_board_model+0xac>
   19984:	00a01041 	adceq	r1, r0, r1, asr #32
   19988:	0001e090 	muleq	r1, r0, r0
   1998c:	0001e08c 	andeq	lr, r1, ip, lsl #1

00019990 <hardware_get_core_temperature>:
   19990:	e92d4008 	push	{r3, lr}
   19994:	eb00025d 	bl	1a310 <bcm2835_vc_get_temperature>
   19998:	e59f200c 	ldr	r2, [pc, #12]	; 199ac <hardware_get_core_temperature+0x1c>
   1999c:	e1a03fc0 	asr	r3, r0, #31
   199a0:	e0c02092 	smull	r2, r0, r2, r0
   199a4:	e0630340 	rsb	r0, r3, r0, asr #6
   199a8:	e8bd8008 	pop	{r3, pc}
   199ac:	10624dd3 	ldrdne	r4, [r2], #-211	; 0xffffff2d	; <UNPREDICTABLE>

000199b0 <hardware_init>:
   199b0:	e59f1054 	ldr	r1, [pc, #84]	; 19a0c <hardware_init+0x5c>
   199b4:	e59f0054 	ldr	r0, [pc, #84]	; 19a10 <hardware_init+0x60>
   199b8:	e5912004 	ldr	r2, [r1, #4]
   199bc:	e5913008 	ldr	r3, [r1, #8]
   199c0:	e92d4010 	push	{r4, lr}
   199c4:	e1c020f0 	strd	r2, [r0]
   199c8:	eb00001c 	bl	19a40 <sys_time_init>
   199cc:	ebffcb0b 	bl	c600 <console_init>
   199d0:	eb000348 	bl	1a6f8 <bcm2835_vc_get_get_board_revision>
   199d4:	e350000f 	cmp	r0, #15
   199d8:	d59f4034 	ldrle	r4, [pc, #52]	; 19a14 <hardware_init+0x64>
   199dc:	c59f2034 	ldrgt	r2, [pc, #52]	; 19a18 <hardware_init+0x68>
   199e0:	c59f402c 	ldrgt	r4, [pc, #44]	; 19a14 <hardware_init+0x64>
   199e4:	c59f1030 	ldrgt	r1, [pc, #48]	; 19a1c <hardware_init+0x6c>
   199e8:	d5943000 	ldrle	r3, [r4]
   199ec:	c1a03002 	movgt	r3, r2
   199f0:	c5842000 	strgt	r2, [r4]
   199f4:	c5841004 	strgt	r1, [r4, #4]
   199f8:	e12fff33 	blx	r3
   199fc:	e5943004 	ldr	r3, [r4, #4]
   19a00:	e3a00001 	mov	r0, #1
   19a04:	e8bd4010 	pop	{r4, lr}
   19a08:	e12fff13 	bx	r3
   19a0c:	20003000 	andcs	r3, r0, r0
   19a10:	00021c50 	andeq	r1, r2, r0, asr ip
   19a14:	0001edc0 	andeq	lr, r1, r0, asr #27
   19a18:	0001a174 	andeq	sl, r1, r4, ror r1
   19a1c:	0001a158 	andeq	sl, r1, r8, asr r1

00019a20 <hardware_reboot>:
   19a20:	e92d4008 	push	{r3, lr}
   19a24:	e59f3010 	ldr	r3, [pc, #16]	; 19a3c <hardware_reboot+0x1c>
   19a28:	e3a00001 	mov	r0, #1
   19a2c:	e5933004 	ldr	r3, [r3, #4]
   19a30:	e12fff33 	blx	r3
   19a34:	eb000351 	bl	1a780 <watchdog_init>
   19a38:	eafffffe 	b	19a38 <hardware_reboot+0x18>
   19a3c:	0001edc0 	andeq	lr, r1, r0, asr #27

00019a40 <sys_time_init>:
   19a40:	e92d40f0 	push	{r4, r5, r6, r7, lr}
   19a44:	e59f10b4 	ldr	r1, [pc, #180]	; 19b00 <sys_time_init+0xc0>
   19a48:	e59f40b4 	ldr	r4, [pc, #180]	; 19b04 <sys_time_init+0xc4>
   19a4c:	e5912004 	ldr	r2, [r1, #4]
   19a50:	e5913008 	ldr	r3, [r1, #8]
   19a54:	e24dd04c 	sub	sp, sp, #76	; 0x4c
   19a58:	e3a00000 	mov	r0, #0
   19a5c:	e1c420f0 	strd	r2, [r4]
   19a60:	eb00004c 	bl	19b98 <mcp7941x_start>
   19a64:	e3500001 	cmp	r0, #1
   19a68:	e1a03000 	mov	r3, r0
   19a6c:	0a000015 	beq	19ac8 <sys_time_init+0x88>
   19a70:	e3a07000 	mov	r7, #0
   19a74:	e1a0000d 	mov	r0, sp
   19a78:	eb00005b 	bl	19bec <mcp7941x_get_date_time>
   19a7c:	e99d0060 	ldmib	sp, {r5, r6}
   19a80:	e59de000 	ldr	lr, [sp]
   19a84:	e59dc00c 	ldr	ip, [sp, #12]
   19a88:	e59d1018 	ldr	r1, [sp, #24]
   19a8c:	e59d2010 	ldr	r2, [sp, #16]
   19a90:	e59d3014 	ldr	r3, [sp, #20]
   19a94:	e28d0024 	add	r0, sp, #36	; 0x24
   19a98:	e58d7044 	str	r7, [sp, #68]	; 0x44
   19a9c:	e58d602c 	str	r6, [sp, #44]	; 0x2c
   19aa0:	e58d5028 	str	r5, [sp, #40]	; 0x28
   19aa4:	e58de024 	str	lr, [sp, #36]	; 0x24
   19aa8:	e58dc030 	str	ip, [sp, #48]	; 0x30
   19aac:	e58d103c 	str	r1, [sp, #60]	; 0x3c
   19ab0:	e58d2034 	str	r2, [sp, #52]	; 0x34
   19ab4:	e58d3038 	str	r3, [sp, #56]	; 0x38
   19ab8:	eb000741 	bl	1b7c4 <mktime>
   19abc:	e5840008 	str	r0, [r4, #8]
   19ac0:	e28dd04c 	add	sp, sp, #76	; 0x4c
   19ac4:	e8bd80f0 	pop	{r4, r5, r6, r7, pc}
   19ac8:	e3a02000 	mov	r2, #0
   19acc:	e3a0100f 	mov	r1, #15
   19ad0:	e28d0024 	add	r0, sp, #36	; 0x24
   19ad4:	e58d3030 	str	r3, [sp, #48]	; 0x30
   19ad8:	e58d3034 	str	r3, [sp, #52]	; 0x34
   19adc:	e58d202c 	str	r2, [sp, #44]	; 0x2c
   19ae0:	e58d2028 	str	r2, [sp, #40]	; 0x28
   19ae4:	e58d2024 	str	r2, [sp, #36]	; 0x24
   19ae8:	e58d2044 	str	r2, [sp, #68]	; 0x44
   19aec:	e58d1038 	str	r1, [sp, #56]	; 0x38
   19af0:	eb000733 	bl	1b7c4 <mktime>
   19af4:	e5840008 	str	r0, [r4, #8]
   19af8:	e28dd04c 	add	sp, sp, #76	; 0x4c
   19afc:	e8bd80f0 	pop	{r4, r5, r6, r7, pc}
   19b00:	20003000 	andcs	r3, r0, r0
   19b04:	00021c58 	andeq	r1, r2, r8, asr ip

00019b08 <sys_time_set>:
   19b08:	e59f101c 	ldr	r1, [pc, #28]	; 19b2c <sys_time_set+0x24>
   19b0c:	e92d4010 	push	{r4, lr}
   19b10:	e5912004 	ldr	r2, [r1, #4]
   19b14:	e59f4014 	ldr	r4, [pc, #20]	; 19b30 <sys_time_set+0x28>
   19b18:	e5913008 	ldr	r3, [r1, #8]
   19b1c:	e1c420f0 	strd	r2, [r4]
   19b20:	eb000727 	bl	1b7c4 <mktime>
   19b24:	e5840008 	str	r0, [r4, #8]
   19b28:	e8bd8010 	pop	{r4, pc}
   19b2c:	20003000 	andcs	r3, r0, r0
   19b30:	00021c58 	andeq	r1, r2, r8, asr ip

00019b34 <sys_time>:
   19b34:	e59f1054 	ldr	r1, [pc, #84]	; 19b90 <sys_time+0x5c>
   19b38:	e59fc054 	ldr	ip, [pc, #84]	; 19b94 <sys_time+0x60>
   19b3c:	e5912004 	ldr	r2, [r1, #4]
   19b40:	e92d4038 	push	{r3, r4, r5, lr}
   19b44:	e5913008 	ldr	r3, [r1, #8]
   19b48:	e1a04000 	mov	r4, r0
   19b4c:	e1cc00d0 	ldrd	r0, [ip]
   19b50:	e0520000 	subs	r0, r2, r0
   19b54:	e0c31001 	sbc	r1, r3, r1
   19b58:	e59c5008 	ldr	r5, [ip, #8]
   19b5c:	eb000e6c 	bl	1d514 <__aeabi_ul2d>
   19b60:	ed9f7b08 	vldr	d7, [pc, #32]	; 19b88 <sys_time+0x54>
   19b64:	ec410b16 	vmov	d6, r0, r1
   19b68:	ee867b07 	vdiv.f64	d7, d6, d7
   19b6c:	eebd7bc7 	vcvt.s32.f64	s14, d7
   19b70:	ee173a10 	vmov	r3, s14
   19b74:	e3540000 	cmp	r4, #0
   19b78:	e0830005 	add	r0, r3, r5
   19b7c:	15840000 	strne	r0, [r4]
   19b80:	e8bd8038 	pop	{r3, r4, r5, pc}
   19b84:	e320f000 	nop	{0}
   19b88:	00000000 	andeq	r0, r0, r0
   19b8c:	412e8480 	smlawbmi	lr, r0, r4, r8
   19b90:	20003000 	andcs	r3, r0, r0
   19b94:	00021c58 	andeq	r1, r2, r8, asr ip

00019b98 <mcp7941x_start>:
   19b98:	e92d4010 	push	{r4, lr}
   19b9c:	e1a04000 	mov	r4, r0
   19ba0:	eb0000b3 	bl	19e74 <bcm2835_i2c_begin>
   19ba4:	e3540000 	cmp	r4, #0
   19ba8:	11a03004 	movne	r3, r4
   19bac:	03a0306f 	moveq	r3, #111	; 0x6f
   19bb0:	e59f2028 	ldr	r2, [pc, #40]	; 19be0 <mcp7941x_start+0x48>
   19bb4:	e1a00003 	mov	r0, r3
   19bb8:	e5c23000 	strb	r3, [r2]
   19bbc:	eb0000c1 	bl	19ec8 <bcm2835_i2c_setSlaveAddress>
   19bc0:	e59f001c 	ldr	r0, [pc, #28]	; 19be4 <mcp7941x_start+0x4c>
   19bc4:	eb0000c3 	bl	19ed8 <bcm2835_i2c_setClockDivider>
   19bc8:	e3a00000 	mov	r0, #0
   19bcc:	e1a01000 	mov	r1, r0
   19bd0:	eb0000c4 	bl	19ee8 <bcm2835_i2c_write>
   19bd4:	e2900000 	adds	r0, r0, #0
   19bd8:	13a00001 	movne	r0, #1
   19bdc:	e8bd8010 	pop	{r4, pc}
   19be0:	0001edc8 	andeq	lr, r1, r8, asr #27
   19be4:	000009c4 	andeq	r0, r0, r4, asr #19

00019be8 <mcp7941x_end>:
   19be8:	ea0000b0 	b	19eb0 <bcm2835_i2c_end>

00019bec <mcp7941x_get_date_time>:
   19bec:	e3a03000 	mov	r3, #0
   19bf0:	e92d4ff0 	push	{r4, r5, r6, r7, r8, r9, sl, fp, lr}
   19bf4:	e59f2108 	ldr	r2, [pc, #264]	; 19d04 <mcp7941x_get_date_time+0x118>
   19bf8:	e24dd014 	sub	sp, sp, #20
   19bfc:	e1a04000 	mov	r4, r0
   19c00:	e3a0a00a 	mov	sl, #10
   19c04:	e5d20000 	ldrb	r0, [r2]
   19c08:	e5cd3004 	strb	r3, [sp, #4]
   19c0c:	e5cd3008 	strb	r3, [sp, #8]
   19c10:	e5cd3009 	strb	r3, [sp, #9]
   19c14:	e5cd300a 	strb	r3, [sp, #10]
   19c18:	e5cd300b 	strb	r3, [sp, #11]
   19c1c:	e5cd300c 	strb	r3, [sp, #12]
   19c20:	e5cd300d 	strb	r3, [sp, #13]
   19c24:	e5cd300e 	strb	r3, [sp, #14]
   19c28:	eb0000a6 	bl	19ec8 <bcm2835_i2c_setSlaveAddress>
   19c2c:	e59f00d4 	ldr	r0, [pc, #212]	; 19d08 <mcp7941x_get_date_time+0x11c>
   19c30:	eb0000a8 	bl	19ed8 <bcm2835_i2c_setClockDivider>
   19c34:	e28d0004 	add	r0, sp, #4
   19c38:	e3a01001 	mov	r1, #1
   19c3c:	eb0000a9 	bl	19ee8 <bcm2835_i2c_write>
   19c40:	e28d0008 	add	r0, sp, #8
   19c44:	e3a01007 	mov	r1, #7
   19c48:	eb0000ee 	bl	1a008 <bcm2835_i2c_read>
   19c4c:	e5dd300d 	ldrb	r3, [sp, #13]
   19c50:	e5dde00e 	ldrb	lr, [sp, #14]
   19c54:	e5ddc008 	ldrb	ip, [sp, #8]
   19c58:	e5dd0009 	ldrb	r0, [sp, #9]
   19c5c:	e5dd100a 	ldrb	r1, [sp, #10]
   19c60:	e5dd200c 	ldrb	r2, [sp, #12]
   19c64:	e203801f 	and	r8, r3, #31
   19c68:	e20e900f 	and	r9, lr, #15
   19c6c:	e1a0e22e 	lsr	lr, lr, #4
   19c70:	e1099e8a 	smlabb	r9, sl, lr, r9
   19c74:	e20c707f 	and	r7, ip, #127	; 0x7f
   19c78:	e200607f 	and	r6, r0, #127	; 0x7f
   19c7c:	e201503f 	and	r5, r1, #63	; 0x3f
   19c80:	e1a08248 	asr	r8, r8, #4
   19c84:	e202e03f 	and	lr, r2, #63	; 0x3f
   19c88:	e5dda00b 	ldrb	sl, [sp, #11]
   19c8c:	e1a0b108 	lsl	fp, r8, #2
   19c90:	e1a07247 	asr	r7, r7, #4
   19c94:	e1a06246 	asr	r6, r6, #4
   19c98:	e1a05245 	asr	r5, r5, #4
   19c9c:	e1a0e24e 	asr	lr, lr, #4
   19ca0:	e20cc00f 	and	ip, ip, #15
   19ca4:	e200000f 	and	r0, r0, #15
   19ca8:	e201100f 	and	r1, r1, #15
   19cac:	e202200f 	and	r2, r2, #15
   19cb0:	e203300f 	and	r3, r3, #15
   19cb4:	e08b8008 	add	r8, fp, r8
   19cb8:	e0877107 	add	r7, r7, r7, lsl #2
   19cbc:	e0866106 	add	r6, r6, r6, lsl #2
   19cc0:	e0855105 	add	r5, r5, r5, lsl #2
   19cc4:	e08ee10e 	add	lr, lr, lr, lsl #2
   19cc8:	e08c7087 	add	r7, ip, r7, lsl #1
   19ccc:	e0806086 	add	r6, r0, r6, lsl #1
   19cd0:	e0815085 	add	r5, r1, r5, lsl #1
   19cd4:	e20aa007 	and	sl, sl, #7
   19cd8:	e082e08e 	add	lr, r2, lr, lsl #1
   19cdc:	e0838088 	add	r8, r3, r8, lsl #1
   19ce0:	e5847000 	str	r7, [r4]
   19ce4:	e5846004 	str	r6, [r4, #4]
   19ce8:	e5845008 	str	r5, [r4, #8]
   19cec:	e584a018 	str	sl, [r4, #24]
   19cf0:	e584e00c 	str	lr, [r4, #12]
   19cf4:	e5848010 	str	r8, [r4, #16]
   19cf8:	e5849014 	str	r9, [r4, #20]
   19cfc:	e28dd014 	add	sp, sp, #20
   19d00:	e8bd8ff0 	pop	{r4, r5, r6, r7, r8, r9, sl, fp, pc}
   19d04:	0001edc8 	andeq	lr, r1, r8, asr #27
   19d08:	000009c4 	andeq	r0, r0, r4, asr #19

00019d0c <mcp7941x_set_date_time>:
   19d0c:	e5902000 	ldr	r2, [r0]
   19d10:	e59f1108 	ldr	r1, [pc, #264]	; 19e20 <mcp7941x_set_date_time+0x114>
   19d14:	e202207f 	and	r2, r2, #127	; 0x7f
   19d18:	e0c3c291 	smull	ip, r3, r1, r2
   19d1c:	e1a03123 	lsr	r3, r3, #2
   19d20:	e083c103 	add	ip, r3, r3, lsl #2
   19d24:	e042208c 	sub	r2, r2, ip, lsl #1
   19d28:	e0823203 	add	r3, r2, r3, lsl #4
   19d2c:	e1e03c83 	mvn	r3, r3, lsl #25
   19d30:	e92d4ff0 	push	{r4, r5, r6, r7, r8, r9, sl, fp, lr}
   19d34:	e1e03ca3 	mvn	r3, r3, lsr #25
   19d38:	e3a0a000 	mov	sl, #0
   19d3c:	e5909004 	ldr	r9, [r0, #4]
   19d40:	e5908008 	ldr	r8, [r0, #8]
   19d44:	e590700c 	ldr	r7, [r0, #12]
   19d48:	e5906010 	ldr	r6, [r0, #16]
   19d4c:	e590b014 	ldr	fp, [r0, #20]
   19d50:	e209907f 	and	r9, r9, #127	; 0x7f
   19d54:	e0c52991 	smull	r2, r5, r1, r9
   19d58:	e206601f 	and	r6, r6, #31
   19d5c:	e208801f 	and	r8, r8, #31
   19d60:	e207703f 	and	r7, r7, #63	; 0x3f
   19d64:	e0c42891 	smull	r2, r4, r1, r8
   19d68:	e0ce2791 	smull	r2, lr, r1, r7
   19d6c:	e0cc2691 	smull	r2, ip, r1, r6
   19d70:	e0c12b91 	smull	r2, r1, r1, fp
   19d74:	e1a05125 	lsr	r5, r5, #2
   19d78:	e1a02fcb 	asr	r2, fp, #31
   19d7c:	e0621141 	rsb	r1, r2, r1, asr #2
   19d80:	e1a04124 	lsr	r4, r4, #2
   19d84:	e0852105 	add	r2, r5, r5, lsl #2
   19d88:	e0499082 	sub	r9, r9, r2, lsl #1
   19d8c:	e1a0e12e 	lsr	lr, lr, #2
   19d90:	e0842104 	add	r2, r4, r4, lsl #2
   19d94:	e0488082 	sub	r8, r8, r2, lsl #1
   19d98:	e1a0c12c 	lsr	ip, ip, #2
   19d9c:	e08e210e 	add	r2, lr, lr, lsl #2
   19da0:	e0477082 	sub	r7, r7, r2, lsl #1
   19da4:	e08c210c 	add	r2, ip, ip, lsl #2
   19da8:	e0462082 	sub	r2, r6, r2, lsl #1
   19dac:	e5900018 	ldr	r0, [r0, #24]
   19db0:	e0816101 	add	r6, r1, r1, lsl #2
   19db4:	e04bb086 	sub	fp, fp, r6, lsl #1
   19db8:	e59f6064 	ldr	r6, [pc, #100]	; 19e24 <mcp7941x_set_date_time+0x118>
   19dbc:	e2000007 	and	r0, r0, #7
   19dc0:	e24dd00c 	sub	sp, sp, #12
   19dc4:	e087e20e 	add	lr, r7, lr, lsl #4
   19dc8:	e082c20c 	add	ip, r2, ip, lsl #4
   19dcc:	e08b1201 	add	r1, fp, r1, lsl #4
   19dd0:	e0884204 	add	r4, r8, r4, lsl #4
   19dd4:	e0895205 	add	r5, r9, r5, lsl #4
   19dd8:	e3808008 	orr	r8, r0, #8
   19ddc:	e5d60000 	ldrb	r0, [r6]
   19de0:	e5cd3001 	strb	r3, [sp, #1]
   19de4:	e5cde005 	strb	lr, [sp, #5]
   19de8:	e5cdc006 	strb	ip, [sp, #6]
   19dec:	e5cd1007 	strb	r1, [sp, #7]
   19df0:	e5cd5002 	strb	r5, [sp, #2]
   19df4:	e5cd4003 	strb	r4, [sp, #3]
   19df8:	e5cd8004 	strb	r8, [sp, #4]
   19dfc:	e5cda000 	strb	sl, [sp]
   19e00:	eb000030 	bl	19ec8 <bcm2835_i2c_setSlaveAddress>
   19e04:	e59f001c 	ldr	r0, [pc, #28]	; 19e28 <mcp7941x_set_date_time+0x11c>
   19e08:	eb000032 	bl	19ed8 <bcm2835_i2c_setClockDivider>
   19e0c:	e1a0000d 	mov	r0, sp
   19e10:	e3a01008 	mov	r1, #8
   19e14:	eb000033 	bl	19ee8 <bcm2835_i2c_write>
   19e18:	e28dd00c 	add	sp, sp, #12
   19e1c:	e8bd8ff0 	pop	{r4, r5, r6, r7, r8, r9, sl, fp, pc}
   19e20:	66666667 	strbtvs	r6, [r6], -r7, ror #12
   19e24:	0001edc8 	andeq	lr, r1, r8, asr #27
   19e28:	000009c4 	andeq	r0, r0, r4, asr #19

00019e2c <bcm2835_gpio_set_pud>:
   19e2c:	e92d4038 	push	{r3, r4, r5, lr}
   19e30:	e59f4038 	ldr	r4, [pc, #56]	; 19e70 <bcm2835_gpio_set_pud+0x44>
   19e34:	e1a05000 	mov	r5, r0
   19e38:	e5841094 	str	r1, [r4, #148]	; 0x94
   19e3c:	e3a0000a 	mov	r0, #10
   19e40:	e3a01000 	mov	r1, #0
   19e44:	eb000277 	bl	1a828 <udelay>
   19e48:	e3a03001 	mov	r3, #1
   19e4c:	e1a00513 	lsl	r0, r3, r5
   19e50:	e5840098 	str	r0, [r4, #152]	; 0x98
   19e54:	e3a01000 	mov	r1, #0
   19e58:	e3a0000a 	mov	r0, #10
   19e5c:	eb000271 	bl	1a828 <udelay>
   19e60:	e3a03000 	mov	r3, #0
   19e64:	e5843094 	str	r3, [r4, #148]	; 0x94
   19e68:	e5843098 	str	r3, [r4, #152]	; 0x98
   19e6c:	e8bd8038 	pop	{r3, r4, r5, pc}
   19e70:	20200000 	eorcs	r0, r0, r0

00019e74 <bcm2835_i2c_begin>:
   19e74:	e59f2028 	ldr	r2, [pc, #40]	; 19ea4 <bcm2835_i2c_begin+0x30>
   19e78:	e59f1028 	ldr	r1, [pc, #40]	; 19ea8 <bcm2835_i2c_begin+0x34>
   19e7c:	e5923000 	ldr	r3, [r2]
   19e80:	e59f0024 	ldr	r0, [pc, #36]	; 19eac <bcm2835_i2c_begin+0x38>
   19e84:	e3c33d3f 	bic	r3, r3, #4032	; 0xfc0
   19e88:	e5823000 	str	r3, [r2]
   19e8c:	e5923000 	ldr	r3, [r2]
   19e90:	e3c33d3f 	bic	r3, r3, #4032	; 0xfc0
   19e94:	e3833c09 	orr	r3, r3, #2304	; 0x900
   19e98:	e5823000 	str	r3, [r2]
   19e9c:	e5810014 	str	r0, [r1, #20]
   19ea0:	e12fff1e 	bx	lr
   19ea4:	20200000 	eorcs	r0, r0, r0
   19ea8:	20804000 	addcs	r4, r0, r0
   19eac:	000009c4 	andeq	r0, r0, r4, asr #19

00019eb0 <bcm2835_i2c_end>:
   19eb0:	e59f200c 	ldr	r2, [pc, #12]	; 19ec4 <bcm2835_i2c_end+0x14>
   19eb4:	e5923000 	ldr	r3, [r2]
   19eb8:	e3c33d3f 	bic	r3, r3, #4032	; 0xfc0
   19ebc:	e5823000 	str	r3, [r2]
   19ec0:	e12fff1e 	bx	lr
   19ec4:	20200000 	eorcs	r0, r0, r0

00019ec8 <bcm2835_i2c_setSlaveAddress>:
   19ec8:	e59f3004 	ldr	r3, [pc, #4]	; 19ed4 <bcm2835_i2c_setSlaveAddress+0xc>
   19ecc:	e583000c 	str	r0, [r3, #12]
   19ed0:	e12fff1e 	bx	lr
   19ed4:	20804000 	addcs	r4, r0, r0

00019ed8 <bcm2835_i2c_setClockDivider>:
   19ed8:	e59f3004 	ldr	r3, [pc, #4]	; 19ee4 <bcm2835_i2c_setClockDivider+0xc>
   19edc:	e5830014 	str	r0, [r3, #20]
   19ee0:	e12fff1e 	bx	lr
   19ee4:	20804000 	addcs	r4, r0, r0

00019ee8 <bcm2835_i2c_write>:
   19ee8:	e3a02020 	mov	r2, #32
   19eec:	e92d4010 	push	{r4, lr}
   19ef0:	e59f3104 	ldr	r3, [pc, #260]	; 19ffc <bcm2835_i2c_write+0x114>
   19ef4:	e59f4104 	ldr	r4, [pc, #260]	; 1a000 <bcm2835_i2c_write+0x118>
   19ef8:	e3510000 	cmp	r1, #0
   19efc:	e5842000 	str	r2, [r4]
   19f00:	e5843004 	str	r3, [r4, #4]
   19f04:	e5841008 	str	r1, [r4, #8]
   19f08:	0a000039 	beq	19ff4 <bcm2835_i2c_write+0x10c>
   19f0c:	e3a03000 	mov	r3, #0
   19f10:	e240c001 	sub	ip, r0, #1
   19f14:	e2511001 	subs	r1, r1, #1
   19f18:	13a02001 	movne	r2, #1
   19f1c:	03a02000 	moveq	r2, #0
   19f20:	e2833001 	add	r3, r3, #1
   19f24:	e353000f 	cmp	r3, #15
   19f28:	83a02000 	movhi	r2, #0
   19f2c:	92022001 	andls	r2, r2, #1
   19f30:	e5fce001 	ldrb	lr, [ip, #1]!
   19f34:	e3520000 	cmp	r2, #0
   19f38:	e584e010 	str	lr, [r4, #16]
   19f3c:	1afffff4 	bne	19f14 <bcm2835_i2c_write+0x2c>
   19f40:	e59fc0b8 	ldr	ip, [pc, #184]	; 1a000 <bcm2835_i2c_write+0x118>
   19f44:	e59fe0b8 	ldr	lr, [pc, #184]	; 1a004 <bcm2835_i2c_write+0x11c>
   19f48:	e1a0200c 	mov	r2, ip
   19f4c:	e58ce000 	str	lr, [ip]
   19f50:	e592c004 	ldr	ip, [r2, #4]
   19f54:	e59fe0a4 	ldr	lr, [pc, #164]	; 1a000 <bcm2835_i2c_write+0x118>
   19f58:	e31c0002 	tst	ip, #2
   19f5c:	1a000011 	bne	19fa8 <bcm2835_i2c_write+0xc0>
   19f60:	e3510000 	cmp	r1, #0
   19f64:	0afffff9 	beq	19f50 <bcm2835_i2c_write+0x68>
   19f68:	e592c004 	ldr	ip, [r2, #4]
   19f6c:	e31c0010 	tst	ip, #16
   19f70:	0afffff6 	beq	19f50 <bcm2835_i2c_write+0x68>
   19f74:	e080c003 	add	ip, r0, r3
   19f78:	e4dce001 	ldrb	lr, [ip], #1
   19f7c:	e2511001 	subs	r1, r1, #1
   19f80:	e2833001 	add	r3, r3, #1
   19f84:	e582e010 	str	lr, [r2, #16]
   19f88:	0afffff0 	beq	19f50 <bcm2835_i2c_write+0x68>
   19f8c:	e592e004 	ldr	lr, [r2, #4]
   19f90:	e31e0010 	tst	lr, #16
   19f94:	1afffff7 	bne	19f78 <bcm2835_i2c_write+0x90>
   19f98:	e592c004 	ldr	ip, [r2, #4]
   19f9c:	e59fe05c 	ldr	lr, [pc, #92]	; 1a000 <bcm2835_i2c_write+0x118>
   19fa0:	e31c0002 	tst	ip, #2
   19fa4:	0affffed 	beq	19f60 <bcm2835_i2c_write+0x78>
   19fa8:	e59e3004 	ldr	r3, [lr, #4]
   19fac:	e3130c01 	tst	r3, #256	; 0x100
   19fb0:	1a00000b 	bne	19fe4 <bcm2835_i2c_write+0xfc>
   19fb4:	e59e3004 	ldr	r3, [lr, #4]
   19fb8:	e3130c02 	tst	r3, #512	; 0x200
   19fbc:	13a00002 	movne	r0, #2
   19fc0:	0a000003 	beq	19fd4 <bcm2835_i2c_write+0xec>
   19fc4:	e3a02002 	mov	r2, #2
   19fc8:	e59f3030 	ldr	r3, [pc, #48]	; 1a000 <bcm2835_i2c_write+0x118>
   19fcc:	e5832000 	str	r2, [r3]
   19fd0:	e8bd8010 	pop	{r4, pc}
   19fd4:	e3510000 	cmp	r1, #0
   19fd8:	13a00004 	movne	r0, #4
   19fdc:	03a00000 	moveq	r0, #0
   19fe0:	eafffff7 	b	19fc4 <bcm2835_i2c_write+0xdc>
   19fe4:	e3a03c01 	mov	r3, #256	; 0x100
   19fe8:	e3a00001 	mov	r0, #1
   19fec:	e58e3004 	str	r3, [lr, #4]
   19ff0:	eafffff3 	b	19fc4 <bcm2835_i2c_write+0xdc>
   19ff4:	e1a03001 	mov	r3, r1
   19ff8:	eaffffd0 	b	19f40 <bcm2835_i2c_write+0x58>
   19ffc:	00000302 	andeq	r0, r0, r2, lsl #6
   1a000:	20804000 	addcs	r4, r0, r0
   1a004:	00008080 	andeq	r8, r0, r0, lsl #1

0001a008 <bcm2835_i2c_read>:
   1a008:	e3a03020 	mov	r3, #32
   1a00c:	e59fc100 	ldr	ip, [pc, #256]	; 1a114 <bcm2835_i2c_read+0x10c>
   1a010:	e59f2100 	ldr	r2, [pc, #256]	; 1a118 <bcm2835_i2c_read+0x110>
   1a014:	e52de004 	push	{lr}		; (str lr, [sp, #-4]!)
   1a018:	e58c3000 	str	r3, [ip]
   1a01c:	e58c2004 	str	r2, [ip, #4]
   1a020:	e1a03001 	mov	r3, r1
   1a024:	e58c1008 	str	r1, [ip, #8]
   1a028:	e1a0200c 	mov	r2, ip
   1a02c:	e3a01000 	mov	r1, #0
   1a030:	e59fe0e4 	ldr	lr, [pc, #228]	; 1a11c <bcm2835_i2c_read+0x114>
   1a034:	e58ce000 	str	lr, [ip]
   1a038:	e592e004 	ldr	lr, [r2, #4]
   1a03c:	e59fc0d0 	ldr	ip, [pc, #208]	; 1a114 <bcm2835_i2c_read+0x10c>
   1a040:	e31e0002 	tst	lr, #2
   1a044:	1a00000e 	bne	1a084 <bcm2835_i2c_read+0x7c>
   1a048:	e592c004 	ldr	ip, [r2, #4]
   1a04c:	e31c0020 	tst	ip, #32
   1a050:	0afffff8 	beq	1a038 <bcm2835_i2c_read+0x30>
   1a054:	e080c001 	add	ip, r0, r1
   1a058:	e592e010 	ldr	lr, [r2, #16]
   1a05c:	e2811001 	add	r1, r1, #1
   1a060:	e4cce001 	strb	lr, [ip], #1
   1a064:	e592e004 	ldr	lr, [r2, #4]
   1a068:	e2433001 	sub	r3, r3, #1
   1a06c:	e31e0020 	tst	lr, #32
   1a070:	1afffff8 	bne	1a058 <bcm2835_i2c_read+0x50>
   1a074:	e592e004 	ldr	lr, [r2, #4]
   1a078:	e59fc094 	ldr	ip, [pc, #148]	; 1a114 <bcm2835_i2c_read+0x10c>
   1a07c:	e31e0002 	tst	lr, #2
   1a080:	0afffff0 	beq	1a048 <bcm2835_i2c_read+0x40>
   1a084:	e3530000 	cmp	r3, #0
   1a088:	0a00000c 	beq	1a0c0 <bcm2835_i2c_read+0xb8>
   1a08c:	e59c2004 	ldr	r2, [ip, #4]
   1a090:	e3120020 	tst	r2, #32
   1a094:	0a00000a 	beq	1a0c4 <bcm2835_i2c_read+0xbc>
   1a098:	e1a0200c 	mov	r2, ip
   1a09c:	e0801001 	add	r1, r0, r1
   1a0a0:	ea000002 	b	1a0b0 <bcm2835_i2c_read+0xa8>
   1a0a4:	e5920004 	ldr	r0, [r2, #4]
   1a0a8:	e3100020 	tst	r0, #32
   1a0ac:	0a000004 	beq	1a0c4 <bcm2835_i2c_read+0xbc>
   1a0b0:	e5920010 	ldr	r0, [r2, #16]
   1a0b4:	e2533001 	subs	r3, r3, #1
   1a0b8:	e4c10001 	strb	r0, [r1], #1
   1a0bc:	1afffff8 	bne	1a0a4 <bcm2835_i2c_read+0x9c>
   1a0c0:	e3a03000 	mov	r3, #0
   1a0c4:	e59f2048 	ldr	r2, [pc, #72]	; 1a114 <bcm2835_i2c_read+0x10c>
   1a0c8:	e5921004 	ldr	r1, [r2, #4]
   1a0cc:	e3110c01 	tst	r1, #256	; 0x100
   1a0d0:	1a00000b 	bne	1a104 <bcm2835_i2c_read+0xfc>
   1a0d4:	e5922004 	ldr	r2, [r2, #4]
   1a0d8:	e3120c02 	tst	r2, #512	; 0x200
   1a0dc:	13a00002 	movne	r0, #2
   1a0e0:	0a000003 	beq	1a0f4 <bcm2835_i2c_read+0xec>
   1a0e4:	e3a02002 	mov	r2, #2
   1a0e8:	e59f3024 	ldr	r3, [pc, #36]	; 1a114 <bcm2835_i2c_read+0x10c>
   1a0ec:	e5832000 	str	r2, [r3]
   1a0f0:	e49df004 	pop	{pc}		; (ldr pc, [sp], #4)
   1a0f4:	e3530000 	cmp	r3, #0
   1a0f8:	13a00004 	movne	r0, #4
   1a0fc:	03a00000 	moveq	r0, #0
   1a100:	eafffff7 	b	1a0e4 <bcm2835_i2c_read+0xdc>
   1a104:	e3a03c01 	mov	r3, #256	; 0x100
   1a108:	e3a00001 	mov	r0, #1
   1a10c:	e5823004 	str	r3, [r2, #4]
   1a110:	eafffff3 	b	1a0e4 <bcm2835_i2c_read+0xdc>
   1a114:	20804000 	addcs	r4, r0, r0
   1a118:	00000302 	andeq	r0, r0, r2, lsl #6
   1a11c:	00008081 	andeq	r8, r0, r1, lsl #1

0001a120 <led_set>:
   1a120:	e3a02801 	mov	r2, #65536	; 0x10000
   1a124:	e59f300c 	ldr	r3, [pc, #12]	; 1a138 <led_set+0x18>
   1a128:	e3500000 	cmp	r0, #0
   1a12c:	1583201c 	strne	r2, [r3, #28]
   1a130:	05832028 	streq	r2, [r3, #40]	; 0x28
   1a134:	e12fff1e 	bx	lr
   1a138:	20200000 	eorcs	r0, r0, r0

0001a13c <led_init>:
   1a13c:	e59f2010 	ldr	r2, [pc, #16]	; 1a154 <led_init+0x18>
   1a140:	e5923004 	ldr	r3, [r2, #4]
   1a144:	e3c33707 	bic	r3, r3, #1835008	; 0x1c0000
   1a148:	e3833701 	orr	r3, r3, #262144	; 0x40000
   1a14c:	e5823004 	str	r3, [r2, #4]
   1a150:	e12fff1e 	bx	lr
   1a154:	20200000 	eorcs	r0, r0, r0

0001a158 <led_rpiplus_set>:
   1a158:	e3a02902 	mov	r2, #32768	; 0x8000
   1a15c:	e59f300c 	ldr	r3, [pc, #12]	; 1a170 <led_rpiplus_set+0x18>
   1a160:	e3500000 	cmp	r0, #0
   1a164:	15832020 	strne	r2, [r3, #32]
   1a168:	0583202c 	streq	r2, [r3, #44]	; 0x2c
   1a16c:	e12fff1e 	bx	lr
   1a170:	20200000 	eorcs	r0, r0, r0

0001a174 <led_rpiplus_init>:
   1a174:	e59f2010 	ldr	r2, [pc, #16]	; 1a18c <led_rpiplus_init+0x18>
   1a178:	e5923010 	ldr	r3, [r2, #16]
   1a17c:	e3c3360e 	bic	r3, r3, #14680064	; 0xe00000
   1a180:	e3833602 	orr	r3, r3, #2097152	; 0x200000
   1a184:	e5823010 	str	r3, [r2, #16]
   1a188:	e12fff1e 	bx	lr
   1a18c:	20200000 	eorcs	r0, r0, r0

0001a190 <bcm2835_mailbox_read>:
   1a190:	e59f1024 	ldr	r1, [pc, #36]	; 1a1bc <bcm2835_mailbox_read+0x2c>
   1a194:	e5913098 	ldr	r3, [r1, #152]	; 0x98
   1a198:	e59f201c 	ldr	r2, [pc, #28]	; 1a1bc <bcm2835_mailbox_read+0x2c>
   1a19c:	e3130101 	tst	r3, #1073741824	; 0x40000000
   1a1a0:	1afffffb 	bne	1a194 <bcm2835_mailbox_read+0x4>
   1a1a4:	e5923080 	ldr	r3, [r2, #128]	; 0x80
   1a1a8:	e203200f 	and	r2, r3, #15
   1a1ac:	e1520000 	cmp	r2, r0
   1a1b0:	1afffff7 	bne	1a194 <bcm2835_mailbox_read+0x4>
   1a1b4:	e3c3000f 	bic	r0, r3, #15
   1a1b8:	e12fff1e 	bx	lr
   1a1bc:	2000b800 	andcs	fp, r0, r0, lsl #16

0001a1c0 <bcm2835_mailbox_write>:
   1a1c0:	e59fc020 	ldr	ip, [pc, #32]	; 1a1e8 <bcm2835_mailbox_write+0x28>
   1a1c4:	e59c3098 	ldr	r3, [ip, #152]	; 0x98
   1a1c8:	e59f2018 	ldr	r2, [pc, #24]	; 1a1e8 <bcm2835_mailbox_write+0x28>
   1a1cc:	e3530000 	cmp	r3, #0
   1a1d0:	bafffffb 	blt	1a1c4 <bcm2835_mailbox_write+0x4>
   1a1d4:	e200000f 	and	r0, r0, #15
   1a1d8:	e3c1100f 	bic	r1, r1, #15
   1a1dc:	e1801001 	orr	r1, r0, r1
   1a1e0:	e58210a0 	str	r1, [r2, #160]	; 0xa0
   1a1e4:	e12fff1e 	bx	lr
   1a1e8:	2000b800 	andcs	fp, r0, r0, lsl #16

0001a1ec <bcm2835_vc_get_clock_rate>:
   1a1ec:	e92d4878 	push	{r3, r4, r5, r6, fp, lr}
   1a1f0:	e3a02004 	mov	r2, #4
   1a1f4:	e3a03000 	mov	r3, #0
   1a1f8:	e3a05008 	mov	r5, #8
   1a1fc:	e3a0e020 	mov	lr, #32
   1a200:	e1a06000 	mov	r6, r0
   1a204:	e28db014 	add	fp, sp, #20
   1a208:	e24dd030 	sub	sp, sp, #48	; 0x30
   1a20c:	e59fc068 	ldr	ip, [pc, #104]	; 1a27c <bcm2835_vc_get_clock_rate+0x90>
   1a210:	e28d400f 	add	r4, sp, #15
   1a214:	e3c4400f 	bic	r4, r4, #15
   1a218:	e5843004 	str	r3, [r4, #4]
   1a21c:	e5843018 	str	r3, [r4, #24]
   1a220:	e584301c 	str	r3, [r4, #28]
   1a224:	e1a01004 	mov	r1, r4
   1a228:	e1a00005 	mov	r0, r5
   1a22c:	e584e000 	str	lr, [r4]
   1a230:	e584c008 	str	ip, [r4, #8]
   1a234:	e5842010 	str	r2, [r4, #16]
   1a238:	e5846014 	str	r6, [r4, #20]
   1a23c:	e584500c 	str	r5, [r4, #12]
   1a240:	ebffffde 	bl	1a1c0 <bcm2835_mailbox_write>
   1a244:	e1a00005 	mov	r0, r5
   1a248:	ebffffd0 	bl	1a190 <bcm2835_mailbox_read>
   1a24c:	e5943004 	ldr	r3, [r4, #4]
   1a250:	e3530102 	cmp	r3, #-2147483648	; 0x80000000
   1a254:	1a000005 	bne	1a270 <bcm2835_vc_get_clock_rate+0x84>
   1a258:	e5943014 	ldr	r3, [r4, #20]
   1a25c:	e1560003 	cmp	r6, r3
   1a260:	1a000002 	bne	1a270 <bcm2835_vc_get_clock_rate+0x84>
   1a264:	e5940018 	ldr	r0, [r4, #24]
   1a268:	e24bd014 	sub	sp, fp, #20
   1a26c:	e8bd8878 	pop	{r3, r4, r5, r6, fp, pc}
   1a270:	e3e00000 	mvn	r0, #0
   1a274:	e24bd014 	sub	sp, fp, #20
   1a278:	e8bd8878 	pop	{r3, r4, r5, r6, fp, pc}
   1a27c:	00030002 	andeq	r0, r3, r2

0001a280 <bcm2835_vc_set_clock_rate>:
   1a280:	e92d4878 	push	{r3, r4, r5, r6, fp, lr}
   1a284:	e3a0c020 	mov	ip, #32
   1a288:	e3a03000 	mov	r3, #0
   1a28c:	e3a05008 	mov	r5, #8
   1a290:	e1a06000 	mov	r6, r0
   1a294:	e28db014 	add	fp, sp, #20
   1a298:	e24dd030 	sub	sp, sp, #48	; 0x30
   1a29c:	e59f2068 	ldr	r2, [pc, #104]	; 1a30c <bcm2835_vc_set_clock_rate+0x8c>
   1a2a0:	e28d400f 	add	r4, sp, #15
   1a2a4:	e3c4400f 	bic	r4, r4, #15
   1a2a8:	e5843004 	str	r3, [r4, #4]
   1a2ac:	e584301c 	str	r3, [r4, #28]
   1a2b0:	e5841018 	str	r1, [r4, #24]
   1a2b4:	e1a00005 	mov	r0, r5
   1a2b8:	e1a01004 	mov	r1, r4
   1a2bc:	e584c000 	str	ip, [r4]
   1a2c0:	e5842008 	str	r2, [r4, #8]
   1a2c4:	e5846014 	str	r6, [r4, #20]
   1a2c8:	e584500c 	str	r5, [r4, #12]
   1a2cc:	e5845010 	str	r5, [r4, #16]
   1a2d0:	ebffffba 	bl	1a1c0 <bcm2835_mailbox_write>
   1a2d4:	e1a00005 	mov	r0, r5
   1a2d8:	ebffffac 	bl	1a190 <bcm2835_mailbox_read>
   1a2dc:	e5943004 	ldr	r3, [r4, #4]
   1a2e0:	e3530102 	cmp	r3, #-2147483648	; 0x80000000
   1a2e4:	1a000005 	bne	1a300 <bcm2835_vc_set_clock_rate+0x80>
   1a2e8:	e5943014 	ldr	r3, [r4, #20]
   1a2ec:	e1560003 	cmp	r6, r3
   1a2f0:	1a000002 	bne	1a300 <bcm2835_vc_set_clock_rate+0x80>
   1a2f4:	e5940018 	ldr	r0, [r4, #24]
   1a2f8:	e24bd014 	sub	sp, fp, #20
   1a2fc:	e8bd8878 	pop	{r3, r4, r5, r6, fp, pc}
   1a300:	e3e00000 	mvn	r0, #0
   1a304:	e24bd014 	sub	sp, fp, #20
   1a308:	e8bd8878 	pop	{r3, r4, r5, r6, fp, pc}
   1a30c:	00038002 	andeq	r8, r3, r2

0001a310 <bcm2835_vc_get_temperature>:
   1a310:	e92d4830 	push	{r4, r5, fp, lr}
   1a314:	e3a03000 	mov	r3, #0
   1a318:	e3a05008 	mov	r5, #8
   1a31c:	e3a0e020 	mov	lr, #32
   1a320:	e3a02004 	mov	r2, #4
   1a324:	e28db00c 	add	fp, sp, #12
   1a328:	e24dd030 	sub	sp, sp, #48	; 0x30
   1a32c:	e59fc068 	ldr	ip, [pc, #104]	; 1a39c <bcm2835_vc_get_temperature+0x8c>
   1a330:	e28d400f 	add	r4, sp, #15
   1a334:	e3c4400f 	bic	r4, r4, #15
   1a338:	e5843004 	str	r3, [r4, #4]
   1a33c:	e5843014 	str	r3, [r4, #20]
   1a340:	e5843018 	str	r3, [r4, #24]
   1a344:	e584301c 	str	r3, [r4, #28]
   1a348:	e1a01004 	mov	r1, r4
   1a34c:	e1a00005 	mov	r0, r5
   1a350:	e584e000 	str	lr, [r4]
   1a354:	e584c008 	str	ip, [r4, #8]
   1a358:	e5842010 	str	r2, [r4, #16]
   1a35c:	e584500c 	str	r5, [r4, #12]
   1a360:	ebffff96 	bl	1a1c0 <bcm2835_mailbox_write>
   1a364:	e1a00005 	mov	r0, r5
   1a368:	ebffff88 	bl	1a190 <bcm2835_mailbox_read>
   1a36c:	e5943004 	ldr	r3, [r4, #4]
   1a370:	e3530102 	cmp	r3, #-2147483648	; 0x80000000
   1a374:	1a000005 	bne	1a390 <bcm2835_vc_get_temperature+0x80>
   1a378:	e5943014 	ldr	r3, [r4, #20]
   1a37c:	e3530000 	cmp	r3, #0
   1a380:	1a000002 	bne	1a390 <bcm2835_vc_get_temperature+0x80>
   1a384:	e5940018 	ldr	r0, [r4, #24]
   1a388:	e24bd00c 	sub	sp, fp, #12
   1a38c:	e8bd8830 	pop	{r4, r5, fp, pc}
   1a390:	e3e00000 	mvn	r0, #0
   1a394:	e24bd00c 	sub	sp, fp, #12
   1a398:	e8bd8830 	pop	{r4, r5, fp, pc}
   1a39c:	00030006 	andeq	r0, r3, r6

0001a3a0 <bcm2835_vc_get_temperature_max>:
   1a3a0:	e92d4830 	push	{r4, r5, fp, lr}
   1a3a4:	e3a03000 	mov	r3, #0
   1a3a8:	e3a05008 	mov	r5, #8
   1a3ac:	e3a0e020 	mov	lr, #32
   1a3b0:	e3a02004 	mov	r2, #4
   1a3b4:	e28db00c 	add	fp, sp, #12
   1a3b8:	e24dd030 	sub	sp, sp, #48	; 0x30
   1a3bc:	e59fc068 	ldr	ip, [pc, #104]	; 1a42c <bcm2835_vc_get_temperature_max+0x8c>
   1a3c0:	e28d400f 	add	r4, sp, #15
   1a3c4:	e3c4400f 	bic	r4, r4, #15
   1a3c8:	e5843004 	str	r3, [r4, #4]
   1a3cc:	e5843014 	str	r3, [r4, #20]
   1a3d0:	e5843018 	str	r3, [r4, #24]
   1a3d4:	e584301c 	str	r3, [r4, #28]
   1a3d8:	e1a01004 	mov	r1, r4
   1a3dc:	e1a00005 	mov	r0, r5
   1a3e0:	e584e000 	str	lr, [r4]
   1a3e4:	e584c008 	str	ip, [r4, #8]
   1a3e8:	e5842010 	str	r2, [r4, #16]
   1a3ec:	e584500c 	str	r5, [r4, #12]
   1a3f0:	ebffff72 	bl	1a1c0 <bcm2835_mailbox_write>
   1a3f4:	e1a00005 	mov	r0, r5
   1a3f8:	ebffff64 	bl	1a190 <bcm2835_mailbox_read>
   1a3fc:	e5943004 	ldr	r3, [r4, #4]
   1a400:	e3530102 	cmp	r3, #-2147483648	; 0x80000000
   1a404:	1a000005 	bne	1a420 <bcm2835_vc_get_temperature_max+0x80>
   1a408:	e5943014 	ldr	r3, [r4, #20]
   1a40c:	e3530000 	cmp	r3, #0
   1a410:	1a000002 	bne	1a420 <bcm2835_vc_get_temperature_max+0x80>
   1a414:	e5940018 	ldr	r0, [r4, #24]
   1a418:	e24bd00c 	sub	sp, fp, #12
   1a41c:	e8bd8830 	pop	{r4, r5, fp, pc}
   1a420:	e3e00000 	mvn	r0, #0
   1a424:	e24bd00c 	sub	sp, fp, #12
   1a428:	e8bd8830 	pop	{r4, r5, fp, pc}
   1a42c:	0003000a 	andeq	r0, r3, sl

0001a430 <bcm2835_vc_get_power_state>:
   1a430:	e92d4878 	push	{r3, r4, r5, r6, fp, lr}
   1a434:	e3a02004 	mov	r2, #4
   1a438:	e3a03000 	mov	r3, #0
   1a43c:	e3a05008 	mov	r5, #8
   1a440:	e3a0e020 	mov	lr, #32
   1a444:	e1a06000 	mov	r6, r0
   1a448:	e28db014 	add	fp, sp, #20
   1a44c:	e24dd030 	sub	sp, sp, #48	; 0x30
   1a450:	e59fc06c 	ldr	ip, [pc, #108]	; 1a4c4 <bcm2835_vc_get_power_state+0x94>
   1a454:	e28d400f 	add	r4, sp, #15
   1a458:	e3c4400f 	bic	r4, r4, #15
   1a45c:	e5843004 	str	r3, [r4, #4]
   1a460:	e5843018 	str	r3, [r4, #24]
   1a464:	e584301c 	str	r3, [r4, #28]
   1a468:	e1a01004 	mov	r1, r4
   1a46c:	e1a00005 	mov	r0, r5
   1a470:	e584e000 	str	lr, [r4]
   1a474:	e584c008 	str	ip, [r4, #8]
   1a478:	e5842010 	str	r2, [r4, #16]
   1a47c:	e5846014 	str	r6, [r4, #20]
   1a480:	e584500c 	str	r5, [r4, #12]
   1a484:	ebffff4d 	bl	1a1c0 <bcm2835_mailbox_write>
   1a488:	e1a00005 	mov	r0, r5
   1a48c:	ebffff3f 	bl	1a190 <bcm2835_mailbox_read>
   1a490:	e5943004 	ldr	r3, [r4, #4]
   1a494:	e3530102 	cmp	r3, #-2147483648	; 0x80000000
   1a498:	1a000006 	bne	1a4b8 <bcm2835_vc_get_power_state+0x88>
   1a49c:	e5943014 	ldr	r3, [r4, #20]
   1a4a0:	e1560003 	cmp	r6, r3
   1a4a4:	1a000003 	bne	1a4b8 <bcm2835_vc_get_power_state+0x88>
   1a4a8:	e5940018 	ldr	r0, [r4, #24]
   1a4ac:	e2000003 	and	r0, r0, #3
   1a4b0:	e24bd014 	sub	sp, fp, #20
   1a4b4:	e8bd8878 	pop	{r3, r4, r5, r6, fp, pc}
   1a4b8:	e3a00003 	mov	r0, #3
   1a4bc:	e24bd014 	sub	sp, fp, #20
   1a4c0:	e8bd8878 	pop	{r3, r4, r5, r6, fp, pc}
   1a4c4:	00020001 	andeq	r0, r2, r1

0001a4c8 <bcm2835_vc_set_power_state>:
   1a4c8:	e92d4878 	push	{r3, r4, r5, r6, fp, lr}
   1a4cc:	e3a0c020 	mov	ip, #32
   1a4d0:	e3a03000 	mov	r3, #0
   1a4d4:	e3a05008 	mov	r5, #8
   1a4d8:	e1a06000 	mov	r6, r0
   1a4dc:	e28db014 	add	fp, sp, #20
   1a4e0:	e24dd030 	sub	sp, sp, #48	; 0x30
   1a4e4:	e59f2068 	ldr	r2, [pc, #104]	; 1a554 <bcm2835_vc_set_power_state+0x8c>
   1a4e8:	e28d400f 	add	r4, sp, #15
   1a4ec:	e3c4400f 	bic	r4, r4, #15
   1a4f0:	e5843004 	str	r3, [r4, #4]
   1a4f4:	e584301c 	str	r3, [r4, #28]
   1a4f8:	e5841018 	str	r1, [r4, #24]
   1a4fc:	e1a00005 	mov	r0, r5
   1a500:	e1a01004 	mov	r1, r4
   1a504:	e584c000 	str	ip, [r4]
   1a508:	e5842008 	str	r2, [r4, #8]
   1a50c:	e5846014 	str	r6, [r4, #20]
   1a510:	e584500c 	str	r5, [r4, #12]
   1a514:	e5845010 	str	r5, [r4, #16]
   1a518:	ebffff28 	bl	1a1c0 <bcm2835_mailbox_write>
   1a51c:	e1a00005 	mov	r0, r5
   1a520:	ebffff1a 	bl	1a190 <bcm2835_mailbox_read>
   1a524:	e5943004 	ldr	r3, [r4, #4]
   1a528:	e3530102 	cmp	r3, #-2147483648	; 0x80000000
   1a52c:	1a000005 	bne	1a548 <bcm2835_vc_set_power_state+0x80>
   1a530:	e5943014 	ldr	r3, [r4, #20]
   1a534:	e1560003 	cmp	r6, r3
   1a538:	1a000002 	bne	1a548 <bcm2835_vc_set_power_state+0x80>
   1a53c:	e5940018 	ldr	r0, [r4, #24]
   1a540:	e24bd014 	sub	sp, fp, #20
   1a544:	e8bd8878 	pop	{r3, r4, r5, r6, fp, pc}
   1a548:	e3e00000 	mvn	r0, #0
   1a54c:	e24bd014 	sub	sp, fp, #20
   1a550:	e8bd8878 	pop	{r3, r4, r5, r6, fp, pc}
   1a554:	00028001 	andeq	r8, r2, r1

0001a558 <bcm2835_vc_get_board_mac_address>:
   1a558:	e92d4878 	push	{r3, r4, r5, r6, fp, lr}
   1a55c:	e3a0c020 	mov	ip, #32
   1a560:	e3a03006 	mov	r3, #6
   1a564:	e3a05000 	mov	r5, #0
   1a568:	e28db014 	add	fp, sp, #20
   1a56c:	e24dd030 	sub	sp, sp, #48	; 0x30
   1a570:	e59f20a0 	ldr	r2, [pc, #160]	; 1a618 <bcm2835_vc_get_board_mac_address+0xc0>
   1a574:	e28d400f 	add	r4, sp, #15
   1a578:	e3c4400f 	bic	r4, r4, #15
   1a57c:	e584300c 	str	r3, [r4, #12]
   1a580:	e1a01004 	mov	r1, r4
   1a584:	e584c000 	str	ip, [r4]
   1a588:	e5842008 	str	r2, [r4, #8]
   1a58c:	e1a06000 	mov	r6, r0
   1a590:	e5845004 	str	r5, [r4, #4]
   1a594:	e3a00008 	mov	r0, #8
   1a598:	e5845010 	str	r5, [r4, #16]
   1a59c:	e5c45014 	strb	r5, [r4, #20]
   1a5a0:	e584501c 	str	r5, [r4, #28]
   1a5a4:	ebffff05 	bl	1a1c0 <bcm2835_mailbox_write>
   1a5a8:	e3a00008 	mov	r0, #8
   1a5ac:	ebfffef7 	bl	1a190 <bcm2835_mailbox_read>
   1a5b0:	e5943004 	ldr	r3, [r4, #4]
   1a5b4:	e3530102 	cmp	r3, #-2147483648	; 0x80000000
   1a5b8:	1a00000e 	bne	1a5f8 <bcm2835_vc_get_board_mac_address+0xa0>
   1a5bc:	e5d4e014 	ldrb	lr, [r4, #20]
   1a5c0:	e5d4c015 	ldrb	ip, [r4, #21]
   1a5c4:	e5d40016 	ldrb	r0, [r4, #22]
   1a5c8:	e5d41017 	ldrb	r1, [r4, #23]
   1a5cc:	e5d42018 	ldrb	r2, [r4, #24]
   1a5d0:	e5d43019 	ldrb	r3, [r4, #25]
   1a5d4:	e5c6e000 	strb	lr, [r6]
   1a5d8:	e5c6c001 	strb	ip, [r6, #1]
   1a5dc:	e5c60002 	strb	r0, [r6, #2]
   1a5e0:	e5c61003 	strb	r1, [r6, #3]
   1a5e4:	e5c62004 	strb	r2, [r6, #4]
   1a5e8:	e5c63005 	strb	r3, [r6, #5]
   1a5ec:	e1a00005 	mov	r0, r5
   1a5f0:	e24bd014 	sub	sp, fp, #20
   1a5f4:	e8bd8878 	pop	{r3, r4, r5, r6, fp, pc}
   1a5f8:	e5c65000 	strb	r5, [r6]
   1a5fc:	e5c65001 	strb	r5, [r6, #1]
   1a600:	e5c65002 	strb	r5, [r6, #2]
   1a604:	e5c65003 	strb	r5, [r6, #3]
   1a608:	e5c65004 	strb	r5, [r6, #4]
   1a60c:	e5c65005 	strb	r5, [r6, #5]
   1a610:	e3e05000 	mvn	r5, #0
   1a614:	eafffff4 	b	1a5ec <bcm2835_vc_get_board_mac_address+0x94>
   1a618:	00010003 	andeq	r0, r1, r3

0001a61c <bcm2835_vc_get_get_firmware_revision>:
   1a61c:	e92d4818 	push	{r3, r4, fp, lr}
   1a620:	e3a0c001 	mov	ip, #1
   1a624:	e3a03000 	mov	r3, #0
   1a628:	e3a0e01c 	mov	lr, #28
   1a62c:	e3a02004 	mov	r2, #4
   1a630:	e28db00c 	add	fp, sp, #12
   1a634:	e24dd030 	sub	sp, sp, #48	; 0x30
   1a638:	e28d400f 	add	r4, sp, #15
   1a63c:	e3c4400f 	bic	r4, r4, #15
   1a640:	e5843004 	str	r3, [r4, #4]
   1a644:	e5843010 	str	r3, [r4, #16]
   1a648:	e5843014 	str	r3, [r4, #20]
   1a64c:	e5843018 	str	r3, [r4, #24]
   1a650:	e1a01004 	mov	r1, r4
   1a654:	e584e000 	str	lr, [r4]
   1a658:	e584c008 	str	ip, [r4, #8]
   1a65c:	e584200c 	str	r2, [r4, #12]
   1a660:	e3a00008 	mov	r0, #8
   1a664:	ebfffed5 	bl	1a1c0 <bcm2835_mailbox_write>
   1a668:	e3a00008 	mov	r0, #8
   1a66c:	ebfffec7 	bl	1a190 <bcm2835_mailbox_read>
   1a670:	e5943004 	ldr	r3, [r4, #4]
   1a674:	e3530102 	cmp	r3, #-2147483648	; 0x80000000
   1a678:	13e00000 	mvnne	r0, #0
   1a67c:	05940014 	ldreq	r0, [r4, #20]
   1a680:	e24bd00c 	sub	sp, fp, #12
   1a684:	e8bd8818 	pop	{r3, r4, fp, pc}

0001a688 <bcm2835_vc_get_get_board_model>:
   1a688:	e92d4818 	push	{r3, r4, fp, lr}
   1a68c:	e3a02004 	mov	r2, #4
   1a690:	e3a03000 	mov	r3, #0
   1a694:	e3a0e01c 	mov	lr, #28
   1a698:	e28db00c 	add	fp, sp, #12
   1a69c:	e24dd030 	sub	sp, sp, #48	; 0x30
   1a6a0:	e59fc04c 	ldr	ip, [pc, #76]	; 1a6f4 <bcm2835_vc_get_get_board_model+0x6c>
   1a6a4:	e28d400f 	add	r4, sp, #15
   1a6a8:	e3c4400f 	bic	r4, r4, #15
   1a6ac:	e5843004 	str	r3, [r4, #4]
   1a6b0:	e5843010 	str	r3, [r4, #16]
   1a6b4:	e5843014 	str	r3, [r4, #20]
   1a6b8:	e5843018 	str	r3, [r4, #24]
   1a6bc:	e1a01004 	mov	r1, r4
   1a6c0:	e584e000 	str	lr, [r4]
   1a6c4:	e584c008 	str	ip, [r4, #8]
   1a6c8:	e584200c 	str	r2, [r4, #12]
   1a6cc:	e3a00008 	mov	r0, #8
   1a6d0:	ebfffeba 	bl	1a1c0 <bcm2835_mailbox_write>
   1a6d4:	e3a00008 	mov	r0, #8
   1a6d8:	ebfffeac 	bl	1a190 <bcm2835_mailbox_read>
   1a6dc:	e5943004 	ldr	r3, [r4, #4]
   1a6e0:	e3530102 	cmp	r3, #-2147483648	; 0x80000000
   1a6e4:	13e00000 	mvnne	r0, #0
   1a6e8:	05940014 	ldreq	r0, [r4, #20]
   1a6ec:	e24bd00c 	sub	sp, fp, #12
   1a6f0:	e8bd8818 	pop	{r3, r4, fp, pc}
   1a6f4:	00010001 	andeq	r0, r1, r1

0001a6f8 <bcm2835_vc_get_get_board_revision>:
   1a6f8:	e92d4818 	push	{r3, r4, fp, lr}
   1a6fc:	e3a02004 	mov	r2, #4
   1a700:	e3a03000 	mov	r3, #0
   1a704:	e3a0e01c 	mov	lr, #28
   1a708:	e28db00c 	add	fp, sp, #12
   1a70c:	e24dd030 	sub	sp, sp, #48	; 0x30
   1a710:	e59fc04c 	ldr	ip, [pc, #76]	; 1a764 <bcm2835_vc_get_get_board_revision+0x6c>
   1a714:	e28d400f 	add	r4, sp, #15
   1a718:	e3c4400f 	bic	r4, r4, #15
   1a71c:	e5843004 	str	r3, [r4, #4]
   1a720:	e5843010 	str	r3, [r4, #16]
   1a724:	e5843014 	str	r3, [r4, #20]
   1a728:	e5843018 	str	r3, [r4, #24]
   1a72c:	e1a01004 	mov	r1, r4
   1a730:	e584e000 	str	lr, [r4]
   1a734:	e584c008 	str	ip, [r4, #8]
   1a738:	e584200c 	str	r2, [r4, #12]
   1a73c:	e3a00008 	mov	r0, #8
   1a740:	ebfffe9e 	bl	1a1c0 <bcm2835_mailbox_write>
   1a744:	e3a00008 	mov	r0, #8
   1a748:	ebfffe90 	bl	1a190 <bcm2835_mailbox_read>
   1a74c:	e5943004 	ldr	r3, [r4, #4]
   1a750:	e3530102 	cmp	r3, #-2147483648	; 0x80000000
   1a754:	13e00000 	mvnne	r0, #0
   1a758:	05940014 	ldreq	r0, [r4, #20]
   1a75c:	e24bd00c 	sub	sp, fp, #12
   1a760:	e8bd8818 	pop	{r3, r4, fp, pc}
   1a764:	00010002 	andeq	r0, r1, r2

0001a768 <watchdog_stop>:
   1a768:	e59f3008 	ldr	r3, [pc, #8]	; 1a778 <watchdog_stop+0x10>
   1a76c:	e59f2008 	ldr	r2, [pc, #8]	; 1a77c <watchdog_stop+0x14>
   1a770:	e583201c 	str	r2, [r3, #28]
   1a774:	e12fff1e 	bx	lr
   1a778:	20100000 	andscs	r0, r0, r0
   1a77c:	5a000102 	bpl	1ab8c <localtime_r+0x318>

0001a780 <watchdog_init>:
   1a780:	e59f2020 	ldr	r2, [pc, #32]	; 1a7a8 <watchdog_init+0x28>
   1a784:	e59f3020 	ldr	r3, [pc, #32]	; 1a7ac <watchdog_init+0x2c>
   1a788:	e5823024 	str	r3, [r2, #36]	; 0x24
   1a78c:	e592301c 	ldr	r3, [r2, #28]
   1a790:	e3c3345a 	bic	r3, r3, #1509949440	; 0x5a000000
   1a794:	e3c33030 	bic	r3, r3, #48	; 0x30
   1a798:	e383345a 	orr	r3, r3, #1509949440	; 0x5a000000
   1a79c:	e3833020 	orr	r3, r3, #32
   1a7a0:	e582301c 	str	r3, [r2, #28]
   1a7a4:	e12fff1e 	bx	lr
   1a7a8:	20100000 	andscs	r0, r0, r0
   1a7ac:	5a00ffff 	bpl	5a7b0 <__sys_stack_top+0x37100>

0001a7b0 <watchdog_feed>:
   1a7b0:	e59f2020 	ldr	r2, [pc, #32]	; 1a7d8 <watchdog_feed+0x28>
   1a7b4:	e59f3020 	ldr	r3, [pc, #32]	; 1a7dc <watchdog_feed+0x2c>
   1a7b8:	e5823024 	str	r3, [r2, #36]	; 0x24
   1a7bc:	e592301c 	ldr	r3, [r2, #28]
   1a7c0:	e3c3345a 	bic	r3, r3, #1509949440	; 0x5a000000
   1a7c4:	e3c33030 	bic	r3, r3, #48	; 0x30
   1a7c8:	e383345a 	orr	r3, r3, #1509949440	; 0x5a000000
   1a7cc:	e3833020 	orr	r3, r3, #32
   1a7d0:	e582301c 	str	r3, [r2, #28]
   1a7d4:	e12fff1e 	bx	lr
   1a7d8:	20100000 	andscs	r0, r0, r0
   1a7dc:	5a00ffff 	bpl	5a7e0 <__sys_stack_top+0x37130>

0001a7e0 <bcm2835_gpio_fsel>:
   1a7e0:	e52de004 	push	{lr}		; (str lr, [sp, #-4]!)
   1a7e4:	e1a03000 	mov	r3, r0
   1a7e8:	e59f0034 	ldr	r0, [pc, #52]	; 1a824 <bcm2835_gpio_fsel+0x44>
   1a7ec:	e3530009 	cmp	r3, #9
   1a7f0:	8243300a 	subhi	r3, r3, #10
   1a7f4:	82800004 	addhi	r0, r0, #4
   1a7f8:	8afffffb 	bhi	1a7ec <bcm2835_gpio_fsel+0xc>
   1a7fc:	e0833083 	add	r3, r3, r3, lsl #1
   1a800:	e3a02007 	mov	r2, #7
   1a804:	e1a02312 	lsl	r2, r2, r3
   1a808:	e1a01311 	lsl	r1, r1, r3
   1a80c:	e5903000 	ldr	r3, [r0]
   1a810:	e0021001 	and	r1, r2, r1
   1a814:	e1c33002 	bic	r3, r3, r2
   1a818:	e1833001 	orr	r3, r3, r1
   1a81c:	e5803000 	str	r3, [r0]
   1a820:	e49df004 	pop	{pc}		; (ldr pc, [sp], #4)
   1a824:	20200000 	eorcs	r0, r0, r0

0001a828 <udelay>:
   1a828:	e92d4030 	push	{r4, r5, lr}
   1a82c:	e1a05000 	mov	r5, r0
   1a830:	e59f4014 	ldr	r4, [pc, #20]	; 1a84c <udelay+0x24>
   1a834:	e1c420d4 	ldrd	r2, [r4, #4]
   1a838:	e1c400d4 	ldrd	r0, [r4, #4]
   1a83c:	e0401002 	sub	r1, r0, r2
   1a840:	e1510005 	cmp	r1, r5
   1a844:	9afffffb 	bls	1a838 <udelay+0x10>
   1a848:	e8bd8030 	pop	{r4, r5, pc}
   1a84c:	20003000 	andcs	r3, r0, r0

0001a850 <__errno>:
   1a850:	e59f3004 	ldr	r3, [pc, #4]	; 1a85c <__errno+0xc>
   1a854:	e5930000 	ldr	r0, [r3]
   1a858:	e12fff1e 	bx	lr
   1a85c:	0001edd0 	ldrdeq	lr, [r1], -r0

0001a860 <localtime>:
   1a860:	e59f3008 	ldr	r3, [pc, #8]	; 1a870 <localtime+0x10>
   1a864:	e5931000 	ldr	r1, [r3]
   1a868:	e281107c 	add	r1, r1, #124	; 0x7c
   1a86c:	ea000000 	b	1a874 <localtime_r>
   1a870:	0001edd0 	ldrdeq	lr, [r1], -r0

0001a874 <localtime_r>:
   1a874:	e92d41f0 	push	{r4, r5, r6, r7, r8, lr}
   1a878:	e1a04001 	mov	r4, r1
   1a87c:	e1a07000 	mov	r7, r0
   1a880:	eb000835 	bl	1c95c <__gettzinfo>
   1a884:	e1a01004 	mov	r1, r4
   1a888:	e1a08000 	mov	r8, r0
   1a88c:	e1a00007 	mov	r0, r7
   1a890:	eb000834 	bl	1c968 <gmtime_r>
   1a894:	e5905014 	ldr	r5, [r0, #20]
   1a898:	e1a04000 	mov	r4, r0
   1a89c:	e2855e76 	add	r5, r5, #1888	; 0x760
   1a8a0:	e285500c 	add	r5, r5, #12
   1a8a4:	e3150003 	tst	r5, #3
   1a8a8:	11a01fc5 	asrne	r1, r5, #31
   1a8ac:	1a000028 	bne	1a954 <localtime_r+0xe0>
   1a8b0:	e3a02064 	mov	r2, #100	; 0x64
   1a8b4:	e59f3318 	ldr	r3, [pc, #792]	; 1abd4 <localtime_r+0x360>
   1a8b8:	e1a01fc5 	asr	r1, r5, #31
   1a8bc:	e0c30593 	smull	r0, r3, r3, r5
   1a8c0:	e06132c3 	rsb	r3, r1, r3, asr #5
   1a8c4:	e0030392 	mul	r3, r2, r3
   1a8c8:	e1550003 	cmp	r5, r3
   1a8cc:	13a03001 	movne	r3, #1
   1a8d0:	0a00001f 	beq	1a954 <localtime_r+0xe0>
   1a8d4:	e1a06083 	lsl	r6, r3, #1
   1a8d8:	e59f22f8 	ldr	r2, [pc, #760]	; 1abd8 <localtime_r+0x364>
   1a8dc:	e0863003 	add	r3, r6, r3
   1a8e0:	e0826203 	add	r6, r2, r3, lsl #4
   1a8e4:	eb000717 	bl	1c548 <__tz_lock>
   1a8e8:	e59f32ec 	ldr	r3, [pc, #748]	; 1abdc <localtime_r+0x368>
   1a8ec:	e5933000 	ldr	r3, [r3]
   1a8f0:	e3530000 	cmp	r3, #0
   1a8f4:	0a000027 	beq	1a998 <localtime_r+0x124>
   1a8f8:	e5983004 	ldr	r3, [r8, #4]
   1a8fc:	e1530005 	cmp	r3, r5
   1a900:	0a000003 	beq	1a914 <localtime_r+0xa0>
   1a904:	e1a00005 	mov	r0, r5
   1a908:	eb000681 	bl	1c314 <__tzcalc_limits>
   1a90c:	e3500000 	cmp	r0, #0
   1a910:	0a000087 	beq	1ab34 <localtime_r+0x2c0>
   1a914:	e5983000 	ldr	r3, [r8]
   1a918:	e3530000 	cmp	r3, #0
   1a91c:	1a000015 	bne	1a978 <localtime_r+0x104>
   1a920:	e5973000 	ldr	r3, [r7]
   1a924:	e598201c 	ldr	r2, [r8, #28]
   1a928:	e1530002 	cmp	r3, r2
   1a92c:	aa000083 	bge	1ab40 <localtime_r+0x2cc>
   1a930:	e5982038 	ldr	r2, [r8, #56]	; 0x38
   1a934:	e1530002 	cmp	r3, r2
   1a938:	a3a03000 	movge	r3, #0
   1a93c:	b3a03001 	movlt	r3, #1
   1a940:	e3530000 	cmp	r3, #0
   1a944:	e5843020 	str	r3, [r4, #32]
   1a948:	0a000013 	beq	1a99c <localtime_r+0x128>
   1a94c:	e598003c 	ldr	r0, [r8, #60]	; 0x3c
   1a950:	ea000012 	b	1a9a0 <localtime_r+0x12c>
   1a954:	e3a02e19 	mov	r2, #400	; 0x190
   1a958:	e59f3274 	ldr	r3, [pc, #628]	; 1abd4 <localtime_r+0x360>
   1a95c:	e0c30593 	smull	r0, r3, r3, r5
   1a960:	e06133c3 	rsb	r3, r1, r3, asr #7
   1a964:	e0030392 	mul	r3, r2, r3
   1a968:	e0633005 	rsb	r3, r3, r5
   1a96c:	e16f3f13 	clz	r3, r3
   1a970:	e1a032a3 	lsr	r3, r3, #5
   1a974:	eaffffd6 	b	1a8d4 <localtime_r+0x60>
   1a978:	e5973000 	ldr	r3, [r7]
   1a97c:	e598201c 	ldr	r2, [r8, #28]
   1a980:	e1530002 	cmp	r3, r2
   1a984:	ba000002 	blt	1a994 <localtime_r+0x120>
   1a988:	e5982038 	ldr	r2, [r8, #56]	; 0x38
   1a98c:	e1530002 	cmp	r3, r2
   1a990:	ba00006a 	blt	1ab40 <localtime_r+0x2cc>
   1a994:	e3a03000 	mov	r3, #0
   1a998:	e5843020 	str	r3, [r4, #32]
   1a99c:	e5980020 	ldr	r0, [r8, #32]
   1a9a0:	e3a02ee1 	mov	r2, #3600	; 0xe10
   1a9a4:	e59f3234 	ldr	r3, [pc, #564]	; 1abe0 <localtime_r+0x36c>
   1a9a8:	e1a0efc0 	asr	lr, r0, #31
   1a9ac:	e0c31093 	smull	r1, r3, r3, r0
   1a9b0:	e0833000 	add	r3, r3, r0
   1a9b4:	e1a035c3 	asr	r3, r3, #11
   1a9b8:	e06e1003 	rsb	r1, lr, r3
   1a9bc:	e0010192 	mul	r1, r2, r1
   1a9c0:	e59f221c 	ldr	r2, [pc, #540]	; 1abe4 <localtime_r+0x370>
   1a9c4:	e0611000 	rsb	r1, r1, r0
   1a9c8:	e0c20192 	smull	r0, r2, r2, r1
   1a9cc:	e1a00fc1 	asr	r0, r1, #31
   1a9d0:	e0822001 	add	r2, r2, r1
   1a9d4:	e060c2c2 	rsb	ip, r0, r2, asr #5
   1a9d8:	e06c220c 	rsb	r2, ip, ip, lsl #4
   1a9dc:	e5940000 	ldr	r0, [r4]
   1a9e0:	e5945008 	ldr	r5, [r4, #8]
   1a9e4:	e0411102 	sub	r1, r1, r2, lsl #2
   1a9e8:	e5942004 	ldr	r2, [r4, #4]
   1a9ec:	e0611000 	rsb	r1, r1, r0
   1a9f0:	e06e3003 	rsb	r3, lr, r3
   1a9f4:	e0633005 	rsb	r3, r3, r5
   1a9f8:	e06c2002 	rsb	r2, ip, r2
   1a9fc:	e351003b 	cmp	r1, #59	; 0x3b
   1aa00:	e884000e 	stm	r4, {r1, r2, r3}
   1aa04:	da000045 	ble	1ab20 <localtime_r+0x2ac>
   1aa08:	e2822001 	add	r2, r2, #1
   1aa0c:	e241103c 	sub	r1, r1, #60	; 0x3c
   1aa10:	e8840006 	stm	r4, {r1, r2}
   1aa14:	e352003b 	cmp	r2, #59	; 0x3b
   1aa18:	da00003b 	ble	1ab0c <localtime_r+0x298>
   1aa1c:	e2833001 	add	r3, r3, #1
   1aa20:	e242203c 	sub	r2, r2, #60	; 0x3c
   1aa24:	e984000c 	stmib	r4, {r2, r3}
   1aa28:	e3530017 	cmp	r3, #23
   1aa2c:	da00001e 	ble	1aaac <localtime_r+0x238>
   1aa30:	e5942018 	ldr	r2, [r4, #24]
   1aa34:	e594101c 	ldr	r1, [r4, #28]
   1aa38:	e2822001 	add	r2, r2, #1
   1aa3c:	e3520006 	cmp	r2, #6
   1aa40:	c3a02000 	movgt	r2, #0
   1aa44:	e5842018 	str	r2, [r4, #24]
   1aa48:	e594200c 	ldr	r2, [r4, #12]
   1aa4c:	e2811001 	add	r1, r1, #1
   1aa50:	e584101c 	str	r1, [r4, #28]
   1aa54:	e2433018 	sub	r3, r3, #24
   1aa58:	e2822001 	add	r2, r2, #1
   1aa5c:	e5941010 	ldr	r1, [r4, #16]
   1aa60:	e5843008 	str	r3, [r4, #8]
   1aa64:	e584200c 	str	r2, [r4, #12]
   1aa68:	e7963101 	ldr	r3, [r6, r1, lsl #2]
   1aa6c:	e1520003 	cmp	r2, r3
   1aa70:	da00000a 	ble	1aaa0 <localtime_r+0x22c>
   1aa74:	e2811001 	add	r1, r1, #1
   1aa78:	e351000c 	cmp	r1, #12
   1aa7c:	e0632002 	rsb	r2, r3, r2
   1aa80:	e584200c 	str	r2, [r4, #12]
   1aa84:	03a02000 	moveq	r2, #0
   1aa88:	05943014 	ldreq	r3, [r4, #20]
   1aa8c:	15841010 	strne	r1, [r4, #16]
   1aa90:	02833001 	addeq	r3, r3, #1
   1aa94:	05842010 	streq	r2, [r4, #16]
   1aa98:	05843014 	streq	r3, [r4, #20]
   1aa9c:	0584201c 	streq	r2, [r4, #28]
   1aaa0:	eb0006a9 	bl	1c54c <__tz_unlock>
   1aaa4:	e1a00004 	mov	r0, r4
   1aaa8:	e8bd81f0 	pop	{r4, r5, r6, r7, r8, pc}
   1aaac:	e3530000 	cmp	r3, #0
   1aab0:	aafffffa 	bge	1aaa0 <localtime_r+0x22c>
   1aab4:	e5942018 	ldr	r2, [r4, #24]
   1aab8:	e594101c 	ldr	r1, [r4, #28]
   1aabc:	e2522001 	subs	r2, r2, #1
   1aac0:	43a02006 	movmi	r2, #6
   1aac4:	e5842018 	str	r2, [r4, #24]
   1aac8:	e594200c 	ldr	r2, [r4, #12]
   1aacc:	e2411001 	sub	r1, r1, #1
   1aad0:	e2422001 	sub	r2, r2, #1
   1aad4:	e2833018 	add	r3, r3, #24
   1aad8:	e3520000 	cmp	r2, #0
   1aadc:	e584101c 	str	r1, [r4, #28]
   1aae0:	e5843008 	str	r3, [r4, #8]
   1aae4:	e584200c 	str	r2, [r4, #12]
   1aae8:	1affffec 	bne	1aaa0 <localtime_r+0x22c>
   1aaec:	e5943010 	ldr	r3, [r4, #16]
   1aaf0:	e2533001 	subs	r3, r3, #1
   1aaf4:	4a000014 	bmi	1ab4c <localtime_r+0x2d8>
   1aaf8:	e5843010 	str	r3, [r4, #16]
   1aafc:	e1a03103 	lsl	r3, r3, #2
   1ab00:	e7963003 	ldr	r3, [r6, r3]
   1ab04:	e584300c 	str	r3, [r4, #12]
   1ab08:	eaffffe4 	b	1aaa0 <localtime_r+0x22c>
   1ab0c:	e3520000 	cmp	r2, #0
   1ab10:	b2433001 	sublt	r3, r3, #1
   1ab14:	b282203c 	addlt	r2, r2, #60	; 0x3c
   1ab18:	b984000c 	stmiblt	r4, {r2, r3}
   1ab1c:	eaffffc1 	b	1aa28 <localtime_r+0x1b4>
   1ab20:	e3510000 	cmp	r1, #0
   1ab24:	b2422001 	sublt	r2, r2, #1
   1ab28:	b281103c 	addlt	r1, r1, #60	; 0x3c
   1ab2c:	b8840006 	stmlt	r4, {r1, r2}
   1ab30:	eaffffb7 	b	1aa14 <localtime_r+0x1a0>
   1ab34:	e3e03000 	mvn	r3, #0
   1ab38:	e5843020 	str	r3, [r4, #32]
   1ab3c:	eaffff96 	b	1a99c <localtime_r+0x128>
   1ab40:	e3a03001 	mov	r3, #1
   1ab44:	e5843020 	str	r3, [r4, #32]
   1ab48:	eaffff7f 	b	1a94c <localtime_r+0xd8>
   1ab4c:	e3a0200b 	mov	r2, #11
   1ab50:	e5943014 	ldr	r3, [r4, #20]
   1ab54:	e5842010 	str	r2, [r4, #16]
   1ab58:	e2432001 	sub	r2, r3, #1
   1ab5c:	e3120003 	tst	r2, #3
   1ab60:	e5842014 	str	r2, [r4, #20]
   1ab64:	0a00000e 	beq	1aba4 <localtime_r+0x330>
   1ab68:	e2833e76 	add	r3, r3, #1888	; 0x760
   1ab6c:	e283300b 	add	r3, r3, #11
   1ab70:	e1a01fc3 	asr	r1, r3, #31
   1ab74:	e3a02e19 	mov	r2, #400	; 0x190
   1ab78:	e59f0054 	ldr	r0, [pc, #84]	; 1abd4 <localtime_r+0x360>
   1ab7c:	e0c0c390 	smull	ip, r0, r0, r3
   1ab80:	e06113c0 	rsb	r1, r1, r0, asr #7
   1ab84:	e0010192 	mul	r1, r2, r1
   1ab88:	e0613003 	rsb	r3, r1, r3
   1ab8c:	e16f3f13 	clz	r3, r3
   1ab90:	e1a032a3 	lsr	r3, r3, #5
   1ab94:	e2832f5b 	add	r2, r3, #364	; 0x16c
   1ab98:	e3a0302c 	mov	r3, #44	; 0x2c
   1ab9c:	e584201c 	str	r2, [r4, #28]
   1aba0:	eaffffd6 	b	1ab00 <localtime_r+0x28c>
   1aba4:	e3a00064 	mov	r0, #100	; 0x64
   1aba8:	e2833e76 	add	r3, r3, #1888	; 0x760
   1abac:	e59f2020 	ldr	r2, [pc, #32]	; 1abd4 <localtime_r+0x360>
   1abb0:	e283300b 	add	r3, r3, #11
   1abb4:	e0c21392 	smull	r1, r2, r2, r3
   1abb8:	e1a01fc3 	asr	r1, r3, #31
   1abbc:	e06122c2 	rsb	r2, r1, r2, asr #5
   1abc0:	e0020290 	mul	r2, r0, r2
   1abc4:	e1530002 	cmp	r3, r2
   1abc8:	159f2018 	ldrne	r2, [pc, #24]	; 1abe8 <localtime_r+0x374>
   1abcc:	1afffff1 	bne	1ab98 <localtime_r+0x324>
   1abd0:	eaffffe7 	b	1ab74 <localtime_r+0x300>
   1abd4:	51eb851f 	mvnpl	r8, pc, lsl r5
   1abd8:	0001e2cc 	andeq	lr, r1, ip, asr #5
   1abdc:	00021ca0 	andeq	r1, r2, r0, lsr #25
   1abe0:	91a2b3c5 			; <UNDEFINED> instruction: 0x91a2b3c5
   1abe4:	88888889 	stmhi	r8, {r0, r3, r7, fp, pc}
   1abe8:	0000016d 	andeq	r0, r0, sp, ror #2

0001abec <malloc>:
   1abec:	e59f3008 	ldr	r3, [pc, #8]	; 1abfc <malloc+0x10>
   1abf0:	e1a01000 	mov	r1, r0
   1abf4:	e5930000 	ldr	r0, [r3]
   1abf8:	ea000005 	b	1ac14 <_malloc_r>
   1abfc:	0001edd0 	ldrdeq	lr, [r1], -r0

0001ac00 <free>:
   1ac00:	e59f3008 	ldr	r3, [pc, #8]	; 1ac10 <free+0x10>
   1ac04:	e1a01000 	mov	r1, r0
   1ac08:	e5930000 	ldr	r0, [r3]
   1ac0c:	ea0006a5 	b	1c6a8 <_free_r>
   1ac10:	0001edd0 	ldrdeq	lr, [r1], -r0

0001ac14 <_malloc_r>:
   1ac14:	e92d4ff0 	push	{r4, r5, r6, r7, r8, r9, sl, fp, lr}
   1ac18:	e281500b 	add	r5, r1, #11
   1ac1c:	e3550016 	cmp	r5, #22
   1ac20:	e24dd00c 	sub	sp, sp, #12
   1ac24:	e1a06000 	mov	r6, r0
   1ac28:	9a00001e 	bls	1aca8 <_malloc_r+0x94>
   1ac2c:	e3c55007 	bic	r5, r5, #7
   1ac30:	e1510005 	cmp	r1, r5
   1ac34:	93a01000 	movls	r1, #0
   1ac38:	83a01001 	movhi	r1, #1
   1ac3c:	e1913fa5 	orrs	r3, r1, r5, lsr #31
   1ac40:	1a000083 	bne	1ae54 <_malloc_r+0x240>
   1ac44:	eb0005a2 	bl	1c2d4 <__malloc_lock>
   1ac48:	e3550f7e 	cmp	r5, #504	; 0x1f8
   1ac4c:	2a00001a 	bcs	1acbc <_malloc_r+0xa8>
   1ac50:	e59f76d0 	ldr	r7, [pc, #1744]	; 1b328 <_malloc_r+0x714>
   1ac54:	e1a011a5 	lsr	r1, r5, #3
   1ac58:	e0873181 	add	r3, r7, r1, lsl #3
   1ac5c:	e593400c 	ldr	r4, [r3, #12]
   1ac60:	e1540003 	cmp	r4, r3
   1ac64:	0a000108 	beq	1b08c <_malloc_r+0x478>
   1ac68:	e5943004 	ldr	r3, [r4, #4]
   1ac6c:	e594100c 	ldr	r1, [r4, #12]
   1ac70:	e3c33003 	bic	r3, r3, #3
   1ac74:	e0843003 	add	r3, r4, r3
   1ac78:	e5932004 	ldr	r2, [r3, #4]
   1ac7c:	e594c008 	ldr	ip, [r4, #8]
   1ac80:	e3822001 	orr	r2, r2, #1
   1ac84:	e58c100c 	str	r1, [ip, #12]
   1ac88:	e1a00006 	mov	r0, r6
   1ac8c:	e581c008 	str	ip, [r1, #8]
   1ac90:	e5832004 	str	r2, [r3, #4]
   1ac94:	eb00058f 	bl	1c2d8 <__malloc_unlock>
   1ac98:	e2844008 	add	r4, r4, #8
   1ac9c:	e1a00004 	mov	r0, r4
   1aca0:	e28dd00c 	add	sp, sp, #12
   1aca4:	e8bd8ff0 	pop	{r4, r5, r6, r7, r8, r9, sl, fp, pc}
   1aca8:	e3510010 	cmp	r1, #16
   1acac:	8a000068 	bhi	1ae54 <_malloc_r+0x240>
   1acb0:	eb000587 	bl	1c2d4 <__malloc_lock>
   1acb4:	e3a05010 	mov	r5, #16
   1acb8:	eaffffe4 	b	1ac50 <_malloc_r+0x3c>
   1acbc:	e1b014a5 	lsrs	r1, r5, #9
   1acc0:	03a0107e 	moveq	r1, #126	; 0x7e
   1acc4:	03a0003f 	moveq	r0, #63	; 0x3f
   1acc8:	1a000067 	bne	1ae6c <_malloc_r+0x258>
   1accc:	e59f7654 	ldr	r7, [pc, #1620]	; 1b328 <_malloc_r+0x714>
   1acd0:	e0871101 	add	r1, r7, r1, lsl #2
   1acd4:	e591400c 	ldr	r4, [r1, #12]
   1acd8:	e1510004 	cmp	r1, r4
   1acdc:	1a000005 	bne	1acf8 <_malloc_r+0xe4>
   1ace0:	ea00000a 	b	1ad10 <_malloc_r+0xfc>
   1ace4:	e3520000 	cmp	r2, #0
   1ace8:	aa0000a2 	bge	1af78 <_malloc_r+0x364>
   1acec:	e594400c 	ldr	r4, [r4, #12]
   1acf0:	e1510004 	cmp	r1, r4
   1acf4:	0a000005 	beq	1ad10 <_malloc_r+0xfc>
   1acf8:	e5943004 	ldr	r3, [r4, #4]
   1acfc:	e3c33003 	bic	r3, r3, #3
   1ad00:	e0652003 	rsb	r2, r5, r3
   1ad04:	e352000f 	cmp	r2, #15
   1ad08:	dafffff5 	ble	1ace4 <_malloc_r+0xd0>
   1ad0c:	e2400001 	sub	r0, r0, #1
   1ad10:	e2801001 	add	r1, r0, #1
   1ad14:	e59fc60c 	ldr	ip, [pc, #1548]	; 1b328 <_malloc_r+0x714>
   1ad18:	e5974010 	ldr	r4, [r7, #16]
   1ad1c:	e28c8008 	add	r8, ip, #8
   1ad20:	e1540008 	cmp	r4, r8
   1ad24:	059ce004 	ldreq	lr, [ip, #4]
   1ad28:	0a000016 	beq	1ad88 <_malloc_r+0x174>
   1ad2c:	e5943004 	ldr	r3, [r4, #4]
   1ad30:	e3c33003 	bic	r3, r3, #3
   1ad34:	e0652003 	rsb	r2, r5, r3
   1ad38:	e352000f 	cmp	r2, #15
   1ad3c:	ca0000c0 	bgt	1b044 <_malloc_r+0x430>
   1ad40:	e3520000 	cmp	r2, #0
   1ad44:	e58c8014 	str	r8, [ip, #20]
   1ad48:	e58c8010 	str	r8, [ip, #16]
   1ad4c:	aa00004c 	bge	1ae84 <_malloc_r+0x270>
   1ad50:	e3530c02 	cmp	r3, #512	; 0x200
   1ad54:	2a0000a1 	bcs	1afe0 <_malloc_r+0x3cc>
   1ad58:	e3a0e001 	mov	lr, #1
   1ad5c:	e1a031a3 	lsr	r3, r3, #3
   1ad60:	e08c0183 	add	r0, ip, r3, lsl #3
   1ad64:	e59c2004 	ldr	r2, [ip, #4]
   1ad68:	e5909008 	ldr	r9, [r0, #8]
   1ad6c:	e1a03143 	asr	r3, r3, #2
   1ad70:	e182e31e 	orr	lr, r2, lr, lsl r3
   1ad74:	e5849008 	str	r9, [r4, #8]
   1ad78:	e584000c 	str	r0, [r4, #12]
   1ad7c:	e58ce004 	str	lr, [ip, #4]
   1ad80:	e5804008 	str	r4, [r0, #8]
   1ad84:	e589400c 	str	r4, [r9, #12]
   1ad88:	e3a00001 	mov	r0, #1
   1ad8c:	e1a03141 	asr	r3, r1, #2
   1ad90:	e1a00310 	lsl	r0, r0, r3
   1ad94:	e150000e 	cmp	r0, lr
   1ad98:	8a000043 	bhi	1aeac <_malloc_r+0x298>
   1ad9c:	e11e0000 	tst	lr, r0
   1ada0:	1a000008 	bne	1adc8 <_malloc_r+0x1b4>
   1ada4:	e1a00080 	lsl	r0, r0, #1
   1ada8:	e3c11003 	bic	r1, r1, #3
   1adac:	e11e0000 	tst	lr, r0
   1adb0:	e2811004 	add	r1, r1, #4
   1adb4:	1a000003 	bne	1adc8 <_malloc_r+0x1b4>
   1adb8:	e1a00080 	lsl	r0, r0, #1
   1adbc:	e11e0000 	tst	lr, r0
   1adc0:	e2811004 	add	r1, r1, #4
   1adc4:	0afffffb 	beq	1adb8 <_malloc_r+0x1a4>
   1adc8:	e0874181 	add	r4, r7, r1, lsl #3
   1adcc:	e1a0c004 	mov	ip, r4
   1add0:	e1a09001 	mov	r9, r1
   1add4:	e59c300c 	ldr	r3, [ip, #12]
   1add8:	e15c0003 	cmp	ip, r3
   1addc:	1a000005 	bne	1adf8 <_malloc_r+0x1e4>
   1ade0:	ea0000a4 	b	1b078 <_malloc_r+0x464>
   1ade4:	e35a0000 	cmp	sl, #0
   1ade8:	aa0000ad 	bge	1b0a4 <_malloc_r+0x490>
   1adec:	e593300c 	ldr	r3, [r3, #12]
   1adf0:	e15c0003 	cmp	ip, r3
   1adf4:	0a00009f 	beq	1b078 <_malloc_r+0x464>
   1adf8:	e5932004 	ldr	r2, [r3, #4]
   1adfc:	e3c22003 	bic	r2, r2, #3
   1ae00:	e065a002 	rsb	sl, r5, r2
   1ae04:	e35a000f 	cmp	sl, #15
   1ae08:	dafffff5 	ble	1ade4 <_malloc_r+0x1d0>
   1ae0c:	e1a04003 	mov	r4, r3
   1ae10:	e593200c 	ldr	r2, [r3, #12]
   1ae14:	e5b41008 	ldr	r1, [r4, #8]!
   1ae18:	e385e001 	orr	lr, r5, #1
   1ae1c:	e38ac001 	orr	ip, sl, #1
   1ae20:	e0835005 	add	r5, r3, r5
   1ae24:	e583e004 	str	lr, [r3, #4]
   1ae28:	e1a00006 	mov	r0, r6
   1ae2c:	e581200c 	str	r2, [r1, #12]
   1ae30:	e5821008 	str	r1, [r2, #8]
   1ae34:	e5875014 	str	r5, [r7, #20]
   1ae38:	e5875010 	str	r5, [r7, #16]
   1ae3c:	e585800c 	str	r8, [r5, #12]
   1ae40:	e5858008 	str	r8, [r5, #8]
   1ae44:	e585c004 	str	ip, [r5, #4]
   1ae48:	e785a00a 	str	sl, [r5, sl]
   1ae4c:	eb000521 	bl	1c2d8 <__malloc_unlock>
   1ae50:	eaffff91 	b	1ac9c <_malloc_r+0x88>
   1ae54:	e3a04000 	mov	r4, #0
   1ae58:	e3a0300c 	mov	r3, #12
   1ae5c:	e1a00004 	mov	r0, r4
   1ae60:	e5863000 	str	r3, [r6]
   1ae64:	e28dd00c 	add	sp, sp, #12
   1ae68:	e8bd8ff0 	pop	{r4, r5, r6, r7, r8, r9, sl, fp, pc}
   1ae6c:	e3510004 	cmp	r1, #4
   1ae70:	8a000050 	bhi	1afb8 <_malloc_r+0x3a4>
   1ae74:	e1a01325 	lsr	r1, r5, #6
   1ae78:	e2810038 	add	r0, r1, #56	; 0x38
   1ae7c:	e1a01080 	lsl	r1, r0, #1
   1ae80:	eaffff91 	b	1accc <_malloc_r+0xb8>
   1ae84:	e0843003 	add	r3, r4, r3
   1ae88:	e5932004 	ldr	r2, [r3, #4]
   1ae8c:	e1a00006 	mov	r0, r6
   1ae90:	e3822001 	orr	r2, r2, #1
   1ae94:	e5832004 	str	r2, [r3, #4]
   1ae98:	e2844008 	add	r4, r4, #8
   1ae9c:	eb00050d 	bl	1c2d8 <__malloc_unlock>
   1aea0:	e1a00004 	mov	r0, r4
   1aea4:	e28dd00c 	add	sp, sp, #12
   1aea8:	e8bd8ff0 	pop	{r4, r5, r6, r7, r8, r9, sl, fp, pc}
   1aeac:	e5974008 	ldr	r4, [r7, #8]
   1aeb0:	e59f1470 	ldr	r1, [pc, #1136]	; 1b328 <_malloc_r+0x714>
   1aeb4:	e5949004 	ldr	r9, [r4, #4]
   1aeb8:	e3c99003 	bic	r9, r9, #3
   1aebc:	e1590005 	cmp	r9, r5
   1aec0:	23a02000 	movcs	r2, #0
   1aec4:	33a02001 	movcc	r2, #1
   1aec8:	e0653009 	rsb	r3, r5, r9
   1aecc:	e353000f 	cmp	r3, #15
   1aed0:	d3822001 	orrle	r2, r2, #1
   1aed4:	e3520000 	cmp	r2, #0
   1aed8:	0a00002a 	beq	1af88 <_malloc_r+0x374>
   1aedc:	e59fa448 	ldr	sl, [pc, #1096]	; 1b32c <_malloc_r+0x718>
   1aee0:	e5913408 	ldr	r3, [r1, #1032]	; 0x408
   1aee4:	e59a8000 	ldr	r8, [sl]
   1aee8:	e3730001 	cmn	r3, #1
   1aeec:	e0858008 	add	r8, r5, r8
   1aef0:	12888a01 	addne	r8, r8, #4096	; 0x1000
   1aef4:	1288800f 	addne	r8, r8, #15
   1aef8:	13c88eff 	bicne	r8, r8, #4080	; 0xff0
   1aefc:	02888010 	addeq	r8, r8, #16
   1af00:	13c8800f 	bicne	r8, r8, #15
   1af04:	e1a00006 	mov	r0, r6
   1af08:	e1a01008 	mov	r1, r8
   1af0c:	eb0004f2 	bl	1c2dc <_sbrk_r>
   1af10:	e3700001 	cmn	r0, #1
   1af14:	e1a0b000 	mov	fp, r0
   1af18:	0a000007 	beq	1af3c <_malloc_r+0x328>
   1af1c:	e0542007 	subs	r2, r4, r7
   1af20:	e0843009 	add	r3, r4, r9
   1af24:	13a02001 	movne	r2, #1
   1af28:	e1540007 	cmp	r4, r7
   1af2c:	11530000 	cmpne	r3, r0
   1af30:	e58d2004 	str	r2, [sp, #4]
   1af34:	e59f03ec 	ldr	r0, [pc, #1004]	; 1b328 <_malloc_r+0x714>
   1af38:	9a000088 	bls	1b160 <_malloc_r+0x54c>
   1af3c:	e5974008 	ldr	r4, [r7, #8]
   1af40:	e5943004 	ldr	r3, [r4, #4]
   1af44:	e3c33003 	bic	r3, r3, #3
   1af48:	e1550003 	cmp	r5, r3
   1af4c:	93a02000 	movls	r2, #0
   1af50:	83a02001 	movhi	r2, #1
   1af54:	e0653003 	rsb	r3, r5, r3
   1af58:	e353000f 	cmp	r3, #15
   1af5c:	d3822001 	orrle	r2, r2, #1
   1af60:	e3520000 	cmp	r2, #0
   1af64:	0a000007 	beq	1af88 <_malloc_r+0x374>
   1af68:	e1a00006 	mov	r0, r6
   1af6c:	eb0004d9 	bl	1c2d8 <__malloc_unlock>
   1af70:	e3a04000 	mov	r4, #0
   1af74:	eaffff48 	b	1ac9c <_malloc_r+0x88>
   1af78:	e0843003 	add	r3, r4, r3
   1af7c:	e5932004 	ldr	r2, [r3, #4]
   1af80:	e594100c 	ldr	r1, [r4, #12]
   1af84:	eaffff3c 	b	1ac7c <_malloc_r+0x68>
   1af88:	e3852001 	orr	r2, r5, #1
   1af8c:	e3833001 	orr	r3, r3, #1
   1af90:	e0845005 	add	r5, r4, r5
   1af94:	e5842004 	str	r2, [r4, #4]
   1af98:	e1a00006 	mov	r0, r6
   1af9c:	e5875008 	str	r5, [r7, #8]
   1afa0:	e2844008 	add	r4, r4, #8
   1afa4:	e5853004 	str	r3, [r5, #4]
   1afa8:	eb0004ca 	bl	1c2d8 <__malloc_unlock>
   1afac:	e1a00004 	mov	r0, r4
   1afb0:	e28dd00c 	add	sp, sp, #12
   1afb4:	e8bd8ff0 	pop	{r4, r5, r6, r7, r8, r9, sl, fp, pc}
   1afb8:	e3510014 	cmp	r1, #20
   1afbc:	9281005b 	addls	r0, r1, #91	; 0x5b
   1afc0:	91a01080 	lslls	r1, r0, #1
   1afc4:	9affff40 	bls	1accc <_malloc_r+0xb8>
   1afc8:	e3510054 	cmp	r1, #84	; 0x54
   1afcc:	8a0000a6 	bhi	1b26c <_malloc_r+0x658>
   1afd0:	e1a01625 	lsr	r1, r5, #12
   1afd4:	e281006e 	add	r0, r1, #110	; 0x6e
   1afd8:	e1a01080 	lsl	r1, r0, #1
   1afdc:	eaffff3a 	b	1accc <_malloc_r+0xb8>
   1afe0:	e1a024a3 	lsr	r2, r3, #9
   1afe4:	e3520004 	cmp	r2, #4
   1afe8:	8a000039 	bhi	1b0d4 <_malloc_r+0x4c0>
   1afec:	e1a02323 	lsr	r2, r3, #6
   1aff0:	e2820038 	add	r0, r2, #56	; 0x38
   1aff4:	e1a0c080 	lsl	ip, r0, #1
   1aff8:	e087c10c 	add	ip, r7, ip, lsl #2
   1affc:	e59c2008 	ldr	r2, [ip, #8]
   1b000:	e59f9320 	ldr	r9, [pc, #800]	; 1b328 <_malloc_r+0x714>
   1b004:	e152000c 	cmp	r2, ip
   1b008:	0a00009d 	beq	1b284 <_malloc_r+0x670>
   1b00c:	e5920004 	ldr	r0, [r2, #4]
   1b010:	e3c00003 	bic	r0, r0, #3
   1b014:	e1530000 	cmp	r3, r0
   1b018:	2a000002 	bcs	1b028 <_malloc_r+0x414>
   1b01c:	e5922008 	ldr	r2, [r2, #8]
   1b020:	e15c0002 	cmp	ip, r2
   1b024:	1afffff8 	bne	1b00c <_malloc_r+0x3f8>
   1b028:	e592300c 	ldr	r3, [r2, #12]
   1b02c:	e597e004 	ldr	lr, [r7, #4]
   1b030:	e584300c 	str	r3, [r4, #12]
   1b034:	e5842008 	str	r2, [r4, #8]
   1b038:	e5834008 	str	r4, [r3, #8]
   1b03c:	e582400c 	str	r4, [r2, #12]
   1b040:	eaffff50 	b	1ad88 <_malloc_r+0x174>
   1b044:	e3851001 	orr	r1, r5, #1
   1b048:	e3823001 	orr	r3, r2, #1
   1b04c:	e0845005 	add	r5, r4, r5
   1b050:	e5841004 	str	r1, [r4, #4]
   1b054:	e1a00006 	mov	r0, r6
   1b058:	e58c5014 	str	r5, [ip, #20]
   1b05c:	e58c5010 	str	r5, [ip, #16]
   1b060:	e585800c 	str	r8, [r5, #12]
   1b064:	e9850108 	stmib	r5, {r3, r8}
   1b068:	e7852002 	str	r2, [r5, r2]
   1b06c:	e2844008 	add	r4, r4, #8
   1b070:	eb000498 	bl	1c2d8 <__malloc_unlock>
   1b074:	eaffff08 	b	1ac9c <_malloc_r+0x88>
   1b078:	e2899001 	add	r9, r9, #1
   1b07c:	e3190003 	tst	r9, #3
   1b080:	e28cc008 	add	ip, ip, #8
   1b084:	1affff52 	bne	1add4 <_malloc_r+0x1c0>
   1b088:	ea00001f 	b	1b10c <_malloc_r+0x4f8>
   1b08c:	e2843008 	add	r3, r4, #8
   1b090:	e5944014 	ldr	r4, [r4, #20]
   1b094:	e1530004 	cmp	r3, r4
   1b098:	02811002 	addeq	r1, r1, #2
   1b09c:	0affff1c 	beq	1ad14 <_malloc_r+0x100>
   1b0a0:	eafffef0 	b	1ac68 <_malloc_r+0x54>
   1b0a4:	e1a04003 	mov	r4, r3
   1b0a8:	e0832002 	add	r2, r3, r2
   1b0ac:	e5921004 	ldr	r1, [r2, #4]
   1b0b0:	e593c00c 	ldr	ip, [r3, #12]
   1b0b4:	e5b4e008 	ldr	lr, [r4, #8]!
   1b0b8:	e3813001 	orr	r3, r1, #1
   1b0bc:	e5823004 	str	r3, [r2, #4]
   1b0c0:	e1a00006 	mov	r0, r6
   1b0c4:	e58ec00c 	str	ip, [lr, #12]
   1b0c8:	e58ce008 	str	lr, [ip, #8]
   1b0cc:	eb000481 	bl	1c2d8 <__malloc_unlock>
   1b0d0:	eafffef1 	b	1ac9c <_malloc_r+0x88>
   1b0d4:	e3520014 	cmp	r2, #20
   1b0d8:	9282005b 	addls	r0, r2, #91	; 0x5b
   1b0dc:	91a0c080 	lslls	ip, r0, #1
   1b0e0:	9affffc4 	bls	1aff8 <_malloc_r+0x3e4>
   1b0e4:	e3520054 	cmp	r2, #84	; 0x54
   1b0e8:	8a000081 	bhi	1b2f4 <_malloc_r+0x6e0>
   1b0ec:	e1a02623 	lsr	r2, r3, #12
   1b0f0:	e282006e 	add	r0, r2, #110	; 0x6e
   1b0f4:	e1a0c080 	lsl	ip, r0, #1
   1b0f8:	eaffffbe 	b	1aff8 <_malloc_r+0x3e4>
   1b0fc:	e5944000 	ldr	r4, [r4]
   1b100:	e2411001 	sub	r1, r1, #1
   1b104:	e1540003 	cmp	r4, r3
   1b108:	1a000004 	bne	1b120 <_malloc_r+0x50c>
   1b10c:	e3110003 	tst	r1, #3
   1b110:	e2443008 	sub	r3, r4, #8
   1b114:	1afffff8 	bne	1b0fc <_malloc_r+0x4e8>
   1b118:	e1cee000 	bic	lr, lr, r0
   1b11c:	e587e004 	str	lr, [r7, #4]
   1b120:	e1a00080 	lsl	r0, r0, #1
   1b124:	e150000e 	cmp	r0, lr
   1b128:	83a03000 	movhi	r3, #0
   1b12c:	93a03001 	movls	r3, #1
   1b130:	e3500000 	cmp	r0, #0
   1b134:	03a03000 	moveq	r3, #0
   1b138:	e3530000 	cmp	r3, #0
   1b13c:	0affff5a 	beq	1aeac <_malloc_r+0x298>
   1b140:	e11e0000 	tst	lr, r0
   1b144:	e1a01009 	mov	r1, r9
   1b148:	1affff1e 	bne	1adc8 <_malloc_r+0x1b4>
   1b14c:	e1a00080 	lsl	r0, r0, #1
   1b150:	e11e0000 	tst	lr, r0
   1b154:	e2811004 	add	r1, r1, #4
   1b158:	0afffffb 	beq	1b14c <_malloc_r+0x538>
   1b15c:	eaffff19 	b	1adc8 <_malloc_r+0x1b4>
   1b160:	e59a1004 	ldr	r1, [sl, #4]
   1b164:	e153000b 	cmp	r3, fp
   1b168:	e0881001 	add	r1, r8, r1
   1b16c:	e58a1004 	str	r1, [sl, #4]
   1b170:	0a000053 	beq	1b2c4 <_malloc_r+0x6b0>
   1b174:	e5970408 	ldr	r0, [r7, #1032]	; 0x408
   1b178:	e59fc1a8 	ldr	ip, [pc, #424]	; 1b328 <_malloc_r+0x714>
   1b17c:	e3700001 	cmn	r0, #1
   1b180:	1063300b 	rsbne	r3, r3, fp
   1b184:	10811003 	addne	r1, r1, r3
   1b188:	158a1004 	strne	r1, [sl, #4]
   1b18c:	058cb408 	streq	fp, [ip, #1032]	; 0x408
   1b190:	e21b3007 	ands	r3, fp, #7
   1b194:	03a01a01 	moveq	r1, #4096	; 0x1000
   1b198:	12631008 	rsbne	r1, r3, #8
   1b19c:	108bb001 	addne	fp, fp, r1
   1b1a0:	12633a01 	rsbne	r3, r3, #4096	; 0x1000
   1b1a4:	12831008 	addne	r1, r3, #8
   1b1a8:	e08b3008 	add	r3, fp, r8
   1b1ac:	e1a03a03 	lsl	r3, r3, #20
   1b1b0:	e0418a23 	sub	r8, r1, r3, lsr #20
   1b1b4:	e1a01008 	mov	r1, r8
   1b1b8:	e1a00006 	mov	r0, r6
   1b1bc:	eb000446 	bl	1c2dc <_sbrk_r>
   1b1c0:	e3700001 	cmn	r0, #1
   1b1c4:	03a08000 	moveq	r8, #0
   1b1c8:	03a03001 	moveq	r3, #1
   1b1cc:	106b3000 	rsbne	r3, fp, r0
   1b1d0:	e59a1004 	ldr	r1, [sl, #4]
   1b1d4:	e59d2004 	ldr	r2, [sp, #4]
   1b1d8:	10883003 	addne	r3, r8, r3
   1b1dc:	13833001 	orrne	r3, r3, #1
   1b1e0:	e0881001 	add	r1, r8, r1
   1b1e4:	e3520000 	cmp	r2, #0
   1b1e8:	e587b008 	str	fp, [r7, #8]
   1b1ec:	e58a1004 	str	r1, [sl, #4]
   1b1f0:	e58b3004 	str	r3, [fp, #4]
   1b1f4:	e59f8130 	ldr	r8, [pc, #304]	; 1b32c <_malloc_r+0x718>
   1b1f8:	0a00000f 	beq	1b23c <_malloc_r+0x628>
   1b1fc:	e359000f 	cmp	r9, #15
   1b200:	93a03001 	movls	r3, #1
   1b204:	958b3004 	strls	r3, [fp, #4]
   1b208:	9affff56 	bls	1af68 <_malloc_r+0x354>
   1b20c:	e3a00005 	mov	r0, #5
   1b210:	e5942004 	ldr	r2, [r4, #4]
   1b214:	e249300c 	sub	r3, r9, #12
   1b218:	e3c33007 	bic	r3, r3, #7
   1b21c:	e2022001 	and	r2, r2, #1
   1b220:	e1832002 	orr	r2, r3, r2
   1b224:	e353000f 	cmp	r3, #15
   1b228:	e0843003 	add	r3, r4, r3
   1b22c:	e5842004 	str	r2, [r4, #4]
   1b230:	e5830004 	str	r0, [r3, #4]
   1b234:	e5830008 	str	r0, [r3, #8]
   1b238:	8a000028 	bhi	1b2e0 <_malloc_r+0x6cc>
   1b23c:	e59a302c 	ldr	r3, [sl, #44]	; 0x2c
   1b240:	e59f20e4 	ldr	r2, [pc, #228]	; 1b32c <_malloc_r+0x718>
   1b244:	e1510003 	cmp	r1, r3
   1b248:	e5974008 	ldr	r4, [r7, #8]
   1b24c:	e59a3030 	ldr	r3, [sl, #48]	; 0x30
   1b250:	8582102c 	strhi	r1, [r2, #44]	; 0x2c
   1b254:	e1510003 	cmp	r1, r3
   1b258:	e59f20cc 	ldr	r2, [pc, #204]	; 1b32c <_malloc_r+0x718>
   1b25c:	e5943004 	ldr	r3, [r4, #4]
   1b260:	85821030 	strhi	r1, [r2, #48]	; 0x30
   1b264:	e3c33003 	bic	r3, r3, #3
   1b268:	eaffff36 	b	1af48 <_malloc_r+0x334>
   1b26c:	e3510f55 	cmp	r1, #340	; 0x154
   1b270:	8a00000b 	bhi	1b2a4 <_malloc_r+0x690>
   1b274:	e1a017a5 	lsr	r1, r5, #15
   1b278:	e2810077 	add	r0, r1, #119	; 0x77
   1b27c:	e1a01080 	lsl	r1, r0, #1
   1b280:	eafffe91 	b	1accc <_malloc_r+0xb8>
   1b284:	e3a0e001 	mov	lr, #1
   1b288:	e5993004 	ldr	r3, [r9, #4]
   1b28c:	e1a00140 	asr	r0, r0, #2
   1b290:	e183001e 	orr	r0, r3, lr, lsl r0
   1b294:	e5890004 	str	r0, [r9, #4]
   1b298:	e1a0e000 	mov	lr, r0
   1b29c:	e1a03002 	mov	r3, r2
   1b2a0:	eaffff62 	b	1b030 <_malloc_r+0x41c>
   1b2a4:	e59f3084 	ldr	r3, [pc, #132]	; 1b330 <_malloc_r+0x71c>
   1b2a8:	e1510003 	cmp	r1, r3
   1b2ac:	91a01925 	lsrls	r1, r5, #18
   1b2b0:	9281007c 	addls	r0, r1, #124	; 0x7c
   1b2b4:	91a01080 	lslls	r1, r0, #1
   1b2b8:	83a010fc 	movhi	r1, #252	; 0xfc
   1b2bc:	83a0007e 	movhi	r0, #126	; 0x7e
   1b2c0:	eafffe81 	b	1accc <_malloc_r+0xb8>
   1b2c4:	e1b02a03 	lsls	r2, r3, #20
   1b2c8:	1affffa9 	bne	1b174 <_malloc_r+0x560>
   1b2cc:	e0883009 	add	r3, r8, r9
   1b2d0:	e5902008 	ldr	r2, [r0, #8]
   1b2d4:	e3833001 	orr	r3, r3, #1
   1b2d8:	e5823004 	str	r3, [r2, #4]
   1b2dc:	eaffffd6 	b	1b23c <_malloc_r+0x628>
   1b2e0:	e2841008 	add	r1, r4, #8
   1b2e4:	e1a00006 	mov	r0, r6
   1b2e8:	eb0004ee 	bl	1c6a8 <_free_r>
   1b2ec:	e5981004 	ldr	r1, [r8, #4]
   1b2f0:	eaffffd1 	b	1b23c <_malloc_r+0x628>
   1b2f4:	e3520f55 	cmp	r2, #340	; 0x154
   1b2f8:	91a027a3 	lsrls	r2, r3, #15
   1b2fc:	92820077 	addls	r0, r2, #119	; 0x77
   1b300:	91a0c080 	lslls	ip, r0, #1
   1b304:	9affff3b 	bls	1aff8 <_malloc_r+0x3e4>
   1b308:	e59f0020 	ldr	r0, [pc, #32]	; 1b330 <_malloc_r+0x71c>
   1b30c:	e1520000 	cmp	r2, r0
   1b310:	91a02923 	lsrls	r2, r3, #18
   1b314:	9282007c 	addls	r0, r2, #124	; 0x7c
   1b318:	91a0c080 	lslls	ip, r0, #1
   1b31c:	83a0c0fc 	movhi	ip, #252	; 0xfc
   1b320:	83a0007e 	movhi	r0, #126	; 0x7e
   1b324:	eaffff33 	b	1aff8 <_malloc_r+0x3e4>
   1b328:	0001f200 	andeq	pc, r1, r0, lsl #4
   1b32c:	00021c68 	andeq	r1, r2, r8, ror #24
   1b330:	00000554 	andeq	r0, r0, r4, asr r5

0001b334 <memcpy>:
   1b334:	e352000f 	cmp	r2, #15
   1b338:	e92d41f0 	push	{r4, r5, r6, r7, r8, lr}
   1b33c:	9a000029 	bls	1b3e8 <memcpy+0xb4>
   1b340:	e1803001 	orr	r3, r0, r1
   1b344:	e3130003 	tst	r3, #3
   1b348:	1a000057 	bne	1b4ac <memcpy+0x178>
   1b34c:	e1a0e002 	mov	lr, r2
   1b350:	e280c010 	add	ip, r0, #16
   1b354:	e2813010 	add	r3, r1, #16
   1b358:	e5134010 	ldr	r4, [r3, #-16]
   1b35c:	e24ee010 	sub	lr, lr, #16
   1b360:	e50c4010 	str	r4, [ip, #-16]
   1b364:	e513400c 	ldr	r4, [r3, #-12]
   1b368:	e35e000f 	cmp	lr, #15
   1b36c:	e50c400c 	str	r4, [ip, #-12]
   1b370:	e5134008 	ldr	r4, [r3, #-8]
   1b374:	e28cc010 	add	ip, ip, #16
   1b378:	e50c4018 	str	r4, [ip, #-24]	; 0xffffffe8
   1b37c:	e5134004 	ldr	r4, [r3, #-4]
   1b380:	e2833010 	add	r3, r3, #16
   1b384:	e50c4014 	str	r4, [ip, #-20]	; 0xffffffec
   1b388:	8afffff2 	bhi	1b358 <memcpy+0x24>
   1b38c:	e2423010 	sub	r3, r2, #16
   1b390:	e3c3300f 	bic	r3, r3, #15
   1b394:	e202600f 	and	r6, r2, #15
   1b398:	e2833010 	add	r3, r3, #16
   1b39c:	e3560003 	cmp	r6, #3
   1b3a0:	e0811003 	add	r1, r1, r3
   1b3a4:	e0803003 	add	r3, r0, r3
   1b3a8:	9a00004a 	bls	1b4d8 <memcpy+0x1a4>
   1b3ac:	e1a04001 	mov	r4, r1
   1b3b0:	e1a0c006 	mov	ip, r6
   1b3b4:	e243e004 	sub	lr, r3, #4
   1b3b8:	e24cc004 	sub	ip, ip, #4
   1b3bc:	e4945004 	ldr	r5, [r4], #4
   1b3c0:	e35c0003 	cmp	ip, #3
   1b3c4:	e5ae5004 	str	r5, [lr, #4]!
   1b3c8:	8afffffa 	bhi	1b3b8 <memcpy+0x84>
   1b3cc:	e246c004 	sub	ip, r6, #4
   1b3d0:	e3ccc003 	bic	ip, ip, #3
   1b3d4:	e28cc004 	add	ip, ip, #4
   1b3d8:	e083300c 	add	r3, r3, ip
   1b3dc:	e081100c 	add	r1, r1, ip
   1b3e0:	e2022003 	and	r2, r2, #3
   1b3e4:	ea000000 	b	1b3ec <memcpy+0xb8>
   1b3e8:	e1a03000 	mov	r3, r0
   1b3ec:	e3520000 	cmp	r2, #0
   1b3f0:	e242e001 	sub	lr, r2, #1
   1b3f4:	08bd81f0 	popeq	{r4, r5, r6, r7, r8, pc}
   1b3f8:	e281c004 	add	ip, r1, #4
   1b3fc:	e2834004 	add	r4, r3, #4
   1b400:	e1510004 	cmp	r1, r4
   1b404:	3153000c 	cmpcc	r3, ip
   1b408:	23a0c001 	movcs	ip, #1
   1b40c:	33a0c000 	movcc	ip, #0
   1b410:	e1834001 	orr	r4, r3, r1
   1b414:	e3520009 	cmp	r2, #9
   1b418:	93a0c000 	movls	ip, #0
   1b41c:	820cc001 	andhi	ip, ip, #1
   1b420:	e3140003 	tst	r4, #3
   1b424:	13a0c000 	movne	ip, #0
   1b428:	020cc001 	andeq	ip, ip, #1
   1b42c:	e35c0000 	cmp	ip, #0
   1b430:	0a000021 	beq	1b4bc <memcpy+0x188>
   1b434:	e242c004 	sub	ip, r2, #4
   1b438:	e1a0c12c 	lsr	ip, ip, #2
   1b43c:	e28cc001 	add	ip, ip, #1
   1b440:	e35e0002 	cmp	lr, #2
   1b444:	e1a0510c 	lsl	r5, ip, #2
   1b448:	9a00000c 	bls	1b480 <memcpy+0x14c>
   1b44c:	e1a07003 	mov	r7, r3
   1b450:	e3a04000 	mov	r4, #0
   1b454:	e2416004 	sub	r6, r1, #4
   1b458:	e2844001 	add	r4, r4, #1
   1b45c:	e5b68004 	ldr	r8, [r6, #4]!
   1b460:	e15c0004 	cmp	ip, r4
   1b464:	e4878004 	str	r8, [r7], #4
   1b468:	8afffffa 	bhi	1b458 <memcpy+0x124>
   1b46c:	e1520005 	cmp	r2, r5
   1b470:	e0833005 	add	r3, r3, r5
   1b474:	e0811005 	add	r1, r1, r5
   1b478:	e065e00e 	rsb	lr, r5, lr
   1b47c:	08bd81f0 	popeq	{r4, r5, r6, r7, r8, pc}
   1b480:	e5d12000 	ldrb	r2, [r1]
   1b484:	e35e0000 	cmp	lr, #0
   1b488:	e5c32000 	strb	r2, [r3]
   1b48c:	08bd81f0 	popeq	{r4, r5, r6, r7, r8, pc}
   1b490:	e5d12001 	ldrb	r2, [r1, #1]
   1b494:	e35e0001 	cmp	lr, #1
   1b498:	e5c32001 	strb	r2, [r3, #1]
   1b49c:	0a000005 	beq	1b4b8 <memcpy+0x184>
   1b4a0:	e5d12002 	ldrb	r2, [r1, #2]
   1b4a4:	e5c32002 	strb	r2, [r3, #2]
   1b4a8:	e8bd81f0 	pop	{r4, r5, r6, r7, r8, pc}
   1b4ac:	e1a03000 	mov	r3, r0
   1b4b0:	e242e001 	sub	lr, r2, #1
   1b4b4:	eaffffcf 	b	1b3f8 <memcpy+0xc4>
   1b4b8:	e8bd81f0 	pop	{r4, r5, r6, r7, r8, pc}
   1b4bc:	e2433001 	sub	r3, r3, #1
   1b4c0:	e0812002 	add	r2, r1, r2
   1b4c4:	e4d1c001 	ldrb	ip, [r1], #1
   1b4c8:	e1510002 	cmp	r1, r2
   1b4cc:	e5e3c001 	strb	ip, [r3, #1]!
   1b4d0:	1afffffb 	bne	1b4c4 <memcpy+0x190>
   1b4d4:	e8bd81f0 	pop	{r4, r5, r6, r7, r8, pc}
   1b4d8:	e1a02006 	mov	r2, r6
   1b4dc:	eaffffc2 	b	1b3ec <memcpy+0xb8>

0001b4e0 <memmove>:
   1b4e0:	e1500001 	cmp	r0, r1
   1b4e4:	e92d41f0 	push	{r4, r5, r6, r7, r8, lr}
   1b4e8:	9a00000b 	bls	1b51c <memmove+0x3c>
   1b4ec:	e0813002 	add	r3, r1, r2
   1b4f0:	e1500003 	cmp	r0, r3
   1b4f4:	2a000008 	bcs	1b51c <memmove+0x3c>
   1b4f8:	e3520000 	cmp	r2, #0
   1b4fc:	e0801002 	add	r1, r0, r2
   1b500:	08bd81f0 	popeq	{r4, r5, r6, r7, r8, pc}
   1b504:	e0622003 	rsb	r2, r2, r3
   1b508:	e573c001 	ldrb	ip, [r3, #-1]!
   1b50c:	e1530002 	cmp	r3, r2
   1b510:	e561c001 	strb	ip, [r1, #-1]!
   1b514:	1afffffb 	bne	1b508 <memmove+0x28>
   1b518:	e8bd81f0 	pop	{r4, r5, r6, r7, r8, pc}
   1b51c:	e352000f 	cmp	r2, #15
   1b520:	8a000030 	bhi	1b5e8 <memmove+0x108>
   1b524:	e1a03000 	mov	r3, r0
   1b528:	e3520000 	cmp	r2, #0
   1b52c:	e242e001 	sub	lr, r2, #1
   1b530:	08bd81f0 	popeq	{r4, r5, r6, r7, r8, pc}
   1b534:	e281c004 	add	ip, r1, #4
   1b538:	e2834004 	add	r4, r3, #4
   1b53c:	e1510004 	cmp	r1, r4
   1b540:	3153000c 	cmpcc	r3, ip
   1b544:	23a0c001 	movcs	ip, #1
   1b548:	33a0c000 	movcc	ip, #0
   1b54c:	e1834001 	orr	r4, r3, r1
   1b550:	e3520009 	cmp	r2, #9
   1b554:	93a0c000 	movls	ip, #0
   1b558:	820cc001 	andhi	ip, ip, #1
   1b55c:	e3140003 	tst	r4, #3
   1b560:	13a0c000 	movne	ip, #0
   1b564:	020cc001 	andeq	ip, ip, #1
   1b568:	e35c0000 	cmp	ip, #0
   1b56c:	0a00004a 	beq	1b69c <memmove+0x1bc>
   1b570:	e242c004 	sub	ip, r2, #4
   1b574:	e1a0c12c 	lsr	ip, ip, #2
   1b578:	e28cc001 	add	ip, ip, #1
   1b57c:	e35e0002 	cmp	lr, #2
   1b580:	e1a0510c 	lsl	r5, ip, #2
   1b584:	9a00000c 	bls	1b5bc <memmove+0xdc>
   1b588:	e1a07003 	mov	r7, r3
   1b58c:	e3a04000 	mov	r4, #0
   1b590:	e2416004 	sub	r6, r1, #4
   1b594:	e2844001 	add	r4, r4, #1
   1b598:	e5b68004 	ldr	r8, [r6, #4]!
   1b59c:	e15c0004 	cmp	ip, r4
   1b5a0:	e4878004 	str	r8, [r7], #4
   1b5a4:	8afffffa 	bhi	1b594 <memmove+0xb4>
   1b5a8:	e1520005 	cmp	r2, r5
   1b5ac:	e0833005 	add	r3, r3, r5
   1b5b0:	e0811005 	add	r1, r1, r5
   1b5b4:	e065e00e 	rsb	lr, r5, lr
   1b5b8:	08bd81f0 	popeq	{r4, r5, r6, r7, r8, pc}
   1b5bc:	e5d12000 	ldrb	r2, [r1]
   1b5c0:	e35e0000 	cmp	lr, #0
   1b5c4:	e5c32000 	strb	r2, [r3]
   1b5c8:	08bd81f0 	popeq	{r4, r5, r6, r7, r8, pc}
   1b5cc:	e5d12001 	ldrb	r2, [r1, #1]
   1b5d0:	e35e0001 	cmp	lr, #1
   1b5d4:	e5c32001 	strb	r2, [r3, #1]
   1b5d8:	0a000036 	beq	1b6b8 <memmove+0x1d8>
   1b5dc:	e5d12002 	ldrb	r2, [r1, #2]
   1b5e0:	e5c32002 	strb	r2, [r3, #2]
   1b5e4:	e8bd81f0 	pop	{r4, r5, r6, r7, r8, pc}
   1b5e8:	e1803001 	orr	r3, r0, r1
   1b5ec:	e3130003 	tst	r3, #3
   1b5f0:	1a000026 	bne	1b690 <memmove+0x1b0>
   1b5f4:	e1a0e002 	mov	lr, r2
   1b5f8:	e280c010 	add	ip, r0, #16
   1b5fc:	e2813010 	add	r3, r1, #16
   1b600:	e5134010 	ldr	r4, [r3, #-16]
   1b604:	e24ee010 	sub	lr, lr, #16
   1b608:	e50c4010 	str	r4, [ip, #-16]
   1b60c:	e513400c 	ldr	r4, [r3, #-12]
   1b610:	e35e000f 	cmp	lr, #15
   1b614:	e50c400c 	str	r4, [ip, #-12]
   1b618:	e5134008 	ldr	r4, [r3, #-8]
   1b61c:	e28cc010 	add	ip, ip, #16
   1b620:	e50c4018 	str	r4, [ip, #-24]	; 0xffffffe8
   1b624:	e5134004 	ldr	r4, [r3, #-4]
   1b628:	e2833010 	add	r3, r3, #16
   1b62c:	e50c4014 	str	r4, [ip, #-20]	; 0xffffffec
   1b630:	8afffff2 	bhi	1b600 <memmove+0x120>
   1b634:	e2423010 	sub	r3, r2, #16
   1b638:	e3c3300f 	bic	r3, r3, #15
   1b63c:	e202600f 	and	r6, r2, #15
   1b640:	e2833010 	add	r3, r3, #16
   1b644:	e3560003 	cmp	r6, #3
   1b648:	e0811003 	add	r1, r1, r3
   1b64c:	e0803003 	add	r3, r0, r3
   1b650:	9a000019 	bls	1b6bc <memmove+0x1dc>
   1b654:	e1a04001 	mov	r4, r1
   1b658:	e1a0c006 	mov	ip, r6
   1b65c:	e243e004 	sub	lr, r3, #4
   1b660:	e24cc004 	sub	ip, ip, #4
   1b664:	e4945004 	ldr	r5, [r4], #4
   1b668:	e35c0003 	cmp	ip, #3
   1b66c:	e5ae5004 	str	r5, [lr, #4]!
   1b670:	8afffffa 	bhi	1b660 <memmove+0x180>
   1b674:	e246c004 	sub	ip, r6, #4
   1b678:	e3ccc003 	bic	ip, ip, #3
   1b67c:	e28cc004 	add	ip, ip, #4
   1b680:	e083300c 	add	r3, r3, ip
   1b684:	e081100c 	add	r1, r1, ip
   1b688:	e2022003 	and	r2, r2, #3
   1b68c:	eaffffa5 	b	1b528 <memmove+0x48>
   1b690:	e1a03000 	mov	r3, r0
   1b694:	e242e001 	sub	lr, r2, #1
   1b698:	eaffffa5 	b	1b534 <memmove+0x54>
   1b69c:	e2433001 	sub	r3, r3, #1
   1b6a0:	e0812002 	add	r2, r1, r2
   1b6a4:	e4d1c001 	ldrb	ip, [r1], #1
   1b6a8:	e1510002 	cmp	r1, r2
   1b6ac:	e5e3c001 	strb	ip, [r3, #1]!
   1b6b0:	1afffffb 	bne	1b6a4 <memmove+0x1c4>
   1b6b4:	e8bd81f0 	pop	{r4, r5, r6, r7, r8, pc}
   1b6b8:	e8bd81f0 	pop	{r4, r5, r6, r7, r8, pc}
   1b6bc:	e1a02006 	mov	r2, r6
   1b6c0:	eaffff98 	b	1b528 <memmove+0x48>

0001b6c4 <memset>:
   1b6c4:	e3100003 	tst	r0, #3
   1b6c8:	e92d4010 	push	{r4, lr}
   1b6cc:	0a000039 	beq	1b7b8 <memset+0xf4>
   1b6d0:	e3520000 	cmp	r2, #0
   1b6d4:	e2422001 	sub	r2, r2, #1
   1b6d8:	08bd8010 	popeq	{r4, pc}
   1b6dc:	e6ef3071 	uxtb	r3, r1
   1b6e0:	e1a04000 	mov	r4, r0
   1b6e4:	ea000002 	b	1b6f4 <memset+0x30>
   1b6e8:	e3520000 	cmp	r2, #0
   1b6ec:	e2422001 	sub	r2, r2, #1
   1b6f0:	08bd8010 	popeq	{r4, pc}
   1b6f4:	e4c43001 	strb	r3, [r4], #1
   1b6f8:	e3140003 	tst	r4, #3
   1b6fc:	1afffff9 	bne	1b6e8 <memset+0x24>
   1b700:	e3520003 	cmp	r2, #3
   1b704:	9a000020 	bls	1b78c <memset+0xc8>
   1b708:	e6efc071 	uxtb	ip, r1
   1b70c:	e18cc40c 	orr	ip, ip, ip, lsl #8
   1b710:	e352000f 	cmp	r2, #15
   1b714:	e18cc80c 	orr	ip, ip, ip, lsl #16
   1b718:	9a000010 	bls	1b760 <memset+0x9c>
   1b71c:	e1a0e002 	mov	lr, r2
   1b720:	e2843010 	add	r3, r4, #16
   1b724:	e24ee010 	sub	lr, lr, #16
   1b728:	e35e000f 	cmp	lr, #15
   1b72c:	e503c010 	str	ip, [r3, #-16]
   1b730:	e503c00c 	str	ip, [r3, #-12]
   1b734:	e503c008 	str	ip, [r3, #-8]
   1b738:	e503c004 	str	ip, [r3, #-4]
   1b73c:	e2833010 	add	r3, r3, #16
   1b740:	8afffff7 	bhi	1b724 <memset+0x60>
   1b744:	e2423010 	sub	r3, r2, #16
   1b748:	e3c3300f 	bic	r3, r3, #15
   1b74c:	e202200f 	and	r2, r2, #15
   1b750:	e2833010 	add	r3, r3, #16
   1b754:	e3520003 	cmp	r2, #3
   1b758:	e0844003 	add	r4, r4, r3
   1b75c:	9a00000a 	bls	1b78c <memset+0xc8>
   1b760:	e1a0e004 	mov	lr, r4
   1b764:	e1a03002 	mov	r3, r2
   1b768:	e2433004 	sub	r3, r3, #4
   1b76c:	e3530003 	cmp	r3, #3
   1b770:	e48ec004 	str	ip, [lr], #4
   1b774:	8afffffb 	bhi	1b768 <memset+0xa4>
   1b778:	e2423004 	sub	r3, r2, #4
   1b77c:	e3c33003 	bic	r3, r3, #3
   1b780:	e2833004 	add	r3, r3, #4
   1b784:	e0844003 	add	r4, r4, r3
   1b788:	e2022003 	and	r2, r2, #3
   1b78c:	e3520000 	cmp	r2, #0
   1b790:	0a000007 	beq	1b7b4 <memset+0xf0>
   1b794:	e6ef1071 	uxtb	r1, r1
   1b798:	e3520001 	cmp	r2, #1
   1b79c:	e5c41000 	strb	r1, [r4]
   1b7a0:	0a000006 	beq	1b7c0 <memset+0xfc>
   1b7a4:	e3520003 	cmp	r2, #3
   1b7a8:	e5c41001 	strb	r1, [r4, #1]
   1b7ac:	05c41002 	strbeq	r1, [r4, #2]
   1b7b0:	e8bd8010 	pop	{r4, pc}
   1b7b4:	e8bd8010 	pop	{r4, pc}
   1b7b8:	e1a04000 	mov	r4, r0
   1b7bc:	eaffffcf 	b	1b700 <memset+0x3c>
   1b7c0:	e8bd8010 	pop	{r4, pc}

0001b7c4 <mktime>:
   1b7c4:	e92d4ff0 	push	{r4, r5, r6, r7, r8, r9, sl, fp, lr}
   1b7c8:	e1a05000 	mov	r5, r0
   1b7cc:	e24dd01c 	sub	sp, sp, #28
   1b7d0:	eb000461 	bl	1c95c <__gettzinfo>
   1b7d4:	e5951000 	ldr	r1, [r5]
   1b7d8:	e1a07000 	mov	r7, r0
   1b7dc:	e351003b 	cmp	r1, #59	; 0x3b
   1b7e0:	8a00011c 	bhi	1bc58 <mktime+0x494>
   1b7e4:	e5951004 	ldr	r1, [r5, #4]
   1b7e8:	e351003b 	cmp	r1, #59	; 0x3b
   1b7ec:	8a000129 	bhi	1bc98 <mktime+0x4d4>
   1b7f0:	e5951008 	ldr	r1, [r5, #8]
   1b7f4:	e3510017 	cmp	r1, #23
   1b7f8:	8a000136 	bhi	1bcd8 <mktime+0x514>
   1b7fc:	e5951010 	ldr	r1, [r5, #16]
   1b800:	e351000b 	cmp	r1, #11
   1b804:	8a000144 	bhi	1bd1c <mktime+0x558>
   1b808:	e5956014 	ldr	r6, [r5, #20]
   1b80c:	e3160003 	tst	r6, #3
   1b810:	1a00007e 	bne	1ba10 <mktime+0x24c>
   1b814:	e3a02064 	mov	r2, #100	; 0x64
   1b818:	e59f0a94 	ldr	r0, [pc, #2708]	; 1c2b4 <mktime+0xaf0>
   1b81c:	e1a03fc6 	asr	r3, r6, #31
   1b820:	e0cce690 	smull	lr, ip, r0, r6
   1b824:	e06332cc 	rsb	r3, r3, ip, asr #5
   1b828:	e0030392 	mul	r3, r2, r3
   1b82c:	e1560003 	cmp	r6, r3
   1b830:	13a0401d 	movne	r4, #29
   1b834:	0a0000db 	beq	1bba8 <mktime+0x3e4>
   1b838:	e595300c 	ldr	r3, [r5, #12]
   1b83c:	e3530000 	cmp	r3, #0
   1b840:	da000076 	ble	1ba20 <mktime+0x25c>
   1b844:	e3a08000 	mov	r8, #0
   1b848:	e3a0a064 	mov	sl, #100	; 0x64
   1b84c:	e59fba64 	ldr	fp, [pc, #2660]	; 1c2b8 <mktime+0xaf4>
   1b850:	e59f9a5c 	ldr	r9, [pc, #2652]	; 1c2b4 <mktime+0xaf0>
   1b854:	e1a00001 	mov	r0, r1
   1b858:	e2812001 	add	r2, r1, #1
   1b85c:	e08bc101 	add	ip, fp, r1, lsl #2
   1b860:	ea00000a 	b	1b890 <mktime+0xcc>
   1b864:	e59ce000 	ldr	lr, [ip]
   1b868:	e15e0003 	cmp	lr, r3
   1b86c:	aa00013b 	bge	1bd60 <mktime+0x59c>
   1b870:	e06e3003 	rsb	r3, lr, r3
   1b874:	e352000c 	cmp	r2, #12
   1b878:	e585300c 	str	r3, [r5, #12]
   1b87c:	e5852010 	str	r2, [r5, #16]
   1b880:	0a000053 	beq	1b9d4 <mktime+0x210>
   1b884:	e2800001 	add	r0, r0, #1
   1b888:	e2822001 	add	r2, r2, #1
   1b88c:	e28cc004 	add	ip, ip, #4
   1b890:	e3500001 	cmp	r0, #1
   1b894:	e1a01000 	mov	r1, r0
   1b898:	1afffff1 	bne	1b864 <mktime+0xa0>
   1b89c:	e1540003 	cmp	r4, r3
   1b8a0:	b0643003 	rsblt	r3, r4, r3
   1b8a4:	b585300c 	strlt	r3, [r5, #12]
   1b8a8:	b5852010 	strlt	r2, [r5, #16]
   1b8ac:	bafffff4 	blt	1b884 <mktime+0xc0>
   1b8b0:	e3a0eee1 	mov	lr, #3600	; 0xe10
   1b8b4:	e8950006 	ldm	r5, {r1, r2}
   1b8b8:	e5950008 	ldr	r0, [r5, #8]
   1b8bc:	e0622202 	rsb	r2, r2, r2, lsl #4
   1b8c0:	e0812102 	add	r2, r1, r2, lsl #2
   1b8c4:	e02e209e 	mla	lr, lr, r0, r2
   1b8c8:	e283401e 	add	r4, r3, #30
   1b8cc:	e2863c27 	add	r3, r6, #9984	; 0x2700
   1b8d0:	e59f29e4 	ldr	r2, [pc, #2532]	; 1c2bc <mktime+0xaf8>
   1b8d4:	e2833010 	add	r3, r3, #16
   1b8d8:	e1530002 	cmp	r3, r2
   1b8dc:	e585401c 	str	r4, [r5, #28]
   1b8e0:	8a000163 	bhi	1be74 <mktime+0x6b0>
   1b8e4:	e3560046 	cmp	r6, #70	; 0x46
   1b8e8:	ca000069 	bgt	1ba94 <mktime+0x2d0>
   1b8ec:	0a000087 	beq	1bb10 <mktime+0x34c>
   1b8f0:	e3560045 	cmp	r6, #69	; 0x45
   1b8f4:	0a000154 	beq	1be4c <mktime+0x688>
   1b8f8:	e3a02045 	mov	r2, #69	; 0x45
   1b8fc:	e3a08064 	mov	r8, #100	; 0x64
   1b900:	e59fa9b8 	ldr	sl, [pc, #2488]	; 1c2c0 <mktime+0xafc>
   1b904:	e59fc9a8 	ldr	ip, [pc, #2472]	; 1c2b4 <mktime+0xaf0>
   1b908:	e59f99b4 	ldr	r9, [pc, #2484]	; 1c2c4 <mktime+0xb00>
   1b90c:	e58de004 	str	lr, [sp, #4]
   1b910:	e3120003 	tst	r2, #3
   1b914:	e1a00fc2 	asr	r0, r2, #31
   1b918:	159f39a0 	ldrne	r3, [pc, #2464]	; 1c2c0 <mktime+0xafc>
   1b91c:	1a00000f 	bne	1b960 <mktime+0x19c>
   1b920:	e0c3e29c 	smull	lr, r3, ip, r2
   1b924:	e06002c3 	rsb	r0, r0, r3, asr #5
   1b928:	e0000098 	mul	r0, r8, r0
   1b92c:	e2821e76 	add	r1, r2, #1888	; 0x760
   1b930:	e281100c 	add	r1, r1, #12
   1b934:	e1520000 	cmp	r2, r0
   1b938:	e1a03fc1 	asr	r3, r1, #31
   1b93c:	159f3980 	ldrne	r3, [pc, #2432]	; 1c2c4 <mktime+0xb00>
   1b940:	1a000006 	bne	1b960 <mktime+0x19c>
   1b944:	e0c0e19c 	smull	lr, r0, ip, r1
   1b948:	e06333c0 	rsb	r3, r3, r0, asr #7
   1b94c:	e3a00e19 	mov	r0, #400	; 0x190
   1b950:	e0030390 	mul	r3, r0, r3
   1b954:	e1510003 	cmp	r1, r3
   1b958:	11a0300a 	movne	r3, sl
   1b95c:	01a03009 	moveq	r3, r9
   1b960:	e2422001 	sub	r2, r2, #1
   1b964:	e1520006 	cmp	r2, r6
   1b968:	e0634004 	rsb	r4, r3, r4
   1b96c:	1affffe7 	bne	1b910 <mktime+0x14c>
   1b970:	e3160003 	tst	r6, #3
   1b974:	e59de004 	ldr	lr, [sp, #4]
   1b978:	1a000133 	bne	1be4c <mktime+0x688>
   1b97c:	e3a02064 	mov	r2, #100	; 0x64
   1b980:	e59f192c 	ldr	r1, [pc, #2348]	; 1c2b4 <mktime+0xaf0>
   1b984:	e1a03fc6 	asr	r3, r6, #31
   1b988:	e0c0c691 	smull	ip, r0, r1, r6
   1b98c:	e06332c0 	rsb	r3, r3, r0, asr #5
   1b990:	e0030392 	mul	r3, r2, r3
   1b994:	e1560003 	cmp	r6, r3
   1b998:	159f3924 	ldrne	r3, [pc, #2340]	; 1c2c4 <mktime+0xb00>
   1b99c:	1a00012b 	bne	1be50 <mktime+0x68c>
   1b9a0:	e3a02e19 	mov	r2, #400	; 0x190
   1b9a4:	e2863e76 	add	r3, r6, #1888	; 0x760
   1b9a8:	e283000c 	add	r0, r3, #12
   1b9ac:	e0c13091 	smull	r3, r1, r1, r0
   1b9b0:	e1a03fc0 	asr	r3, r0, #31
   1b9b4:	e06333c1 	rsb	r3, r3, r1, asr #7
   1b9b8:	e0030392 	mul	r3, r2, r3
   1b9bc:	e59f1900 	ldr	r1, [pc, #2304]	; 1c2c4 <mktime+0xb00>
   1b9c0:	e1500003 	cmp	r0, r3
   1b9c4:	e2422023 	sub	r2, r2, #35	; 0x23
   1b9c8:	11a03002 	movne	r3, r2
   1b9cc:	01a03001 	moveq	r3, r1
   1b9d0:	ea00011e 	b	1be50 <mktime+0x68c>
   1b9d4:	e2866001 	add	r6, r6, #1
   1b9d8:	e3160003 	tst	r6, #3
   1b9dc:	e5856014 	str	r6, [r5, #20]
   1b9e0:	e5858010 	str	r8, [r5, #16]
   1b9e4:	13a0401c 	movne	r4, #28
   1b9e8:	1a000006 	bne	1ba08 <mktime+0x244>
   1b9ec:	e0c21699 	smull	r1, r2, r9, r6
   1b9f0:	e1a01fc6 	asr	r1, r6, #31
   1b9f4:	e06122c2 	rsb	r2, r1, r2, asr #5
   1b9f8:	e002029a 	mul	r2, sl, r2
   1b9fc:	e1560002 	cmp	r6, r2
   1ba00:	13a0401d 	movne	r4, #29
   1ba04:	0a000104 	beq	1be1c <mktime+0x658>
   1ba08:	e3a01000 	mov	r1, #0
   1ba0c:	eaffff90 	b	1b854 <mktime+0x90>
   1ba10:	e595300c 	ldr	r3, [r5, #12]
   1ba14:	e3a0401c 	mov	r4, #28
   1ba18:	e3530000 	cmp	r3, #0
   1ba1c:	caffff88 	bgt	1b844 <mktime+0x80>
   1ba20:	e3a0c064 	mov	ip, #100	; 0x64
   1ba24:	e3a0ee19 	mov	lr, #400	; 0x190
   1ba28:	e59fb888 	ldr	fp, [pc, #2184]	; 1c2b8 <mktime+0xaf4>
   1ba2c:	e59f0880 	ldr	r0, [pc, #2176]	; 1c2b4 <mktime+0xaf0>
   1ba30:	ea000006 	b	1ba50 <mktime+0x28c>
   1ba34:	e3510001 	cmp	r1, #1
   1ba38:	01a02004 	moveq	r2, r4
   1ba3c:	0a000000 	beq	1ba44 <mktime+0x280>
   1ba40:	e79b2101 	ldr	r2, [fp, r1, lsl #2]
   1ba44:	e0833002 	add	r3, r3, r2
   1ba48:	e3530000 	cmp	r3, #0
   1ba4c:	ca0000c1 	bgt	1bd58 <mktime+0x594>
   1ba50:	e2511001 	subs	r1, r1, #1
   1ba54:	2afffff6 	bcs	1ba34 <mktime+0x270>
   1ba58:	e2462001 	sub	r2, r6, #1
   1ba5c:	e3120003 	tst	r2, #3
   1ba60:	e5852014 	str	r2, [r5, #20]
   1ba64:	13a0401c 	movne	r4, #28
   1ba68:	1a000006 	bne	1ba88 <mktime+0x2c4>
   1ba6c:	e0c41290 	smull	r1, r4, r0, r2
   1ba70:	e1a01fc2 	asr	r1, r2, #31
   1ba74:	e06142c4 	rsb	r4, r1, r4, asr #5
   1ba78:	e004049c 	mul	r4, ip, r4
   1ba7c:	e1520004 	cmp	r2, r4
   1ba80:	13a0401d 	movne	r4, #29
   1ba84:	0a0000ce 	beq	1bdc4 <mktime+0x600>
   1ba88:	e1a06002 	mov	r6, r2
   1ba8c:	e3a0100b 	mov	r1, #11
   1ba90:	eaffffea 	b	1ba40 <mktime+0x27c>
   1ba94:	e3a02046 	mov	r2, #70	; 0x46
   1ba98:	e3a08064 	mov	r8, #100	; 0x64
   1ba9c:	e59fa81c 	ldr	sl, [pc, #2076]	; 1c2c0 <mktime+0xafc>
   1baa0:	e59fc80c 	ldr	ip, [pc, #2060]	; 1c2b4 <mktime+0xaf0>
   1baa4:	e59f9818 	ldr	r9, [pc, #2072]	; 1c2c4 <mktime+0xb00>
   1baa8:	e58de004 	str	lr, [sp, #4]
   1baac:	e3120003 	tst	r2, #3
   1bab0:	e1a01fc2 	asr	r1, r2, #31
   1bab4:	159f3804 	ldrne	r3, [pc, #2052]	; 1c2c0 <mktime+0xafc>
   1bab8:	1a00000f 	bne	1bafc <mktime+0x338>
   1babc:	e0c0e29c 	smull	lr, r0, ip, r2
   1bac0:	e06112c0 	rsb	r1, r1, r0, asr #5
   1bac4:	e0010198 	mul	r1, r8, r1
   1bac8:	e2823e76 	add	r3, r2, #1888	; 0x760
   1bacc:	e283300c 	add	r3, r3, #12
   1bad0:	e1520001 	cmp	r2, r1
   1bad4:	e1a00fc3 	asr	r0, r3, #31
   1bad8:	159f37e4 	ldrne	r3, [pc, #2020]	; 1c2c4 <mktime+0xb00>
   1badc:	1a000006 	bne	1bafc <mktime+0x338>
   1bae0:	e0c1e39c 	smull	lr, r1, ip, r3
   1bae4:	e06003c1 	rsb	r0, r0, r1, asr #7
   1bae8:	e3a01e19 	mov	r1, #400	; 0x190
   1baec:	e0000091 	mul	r0, r1, r0
   1baf0:	e1530000 	cmp	r3, r0
   1baf4:	11a0300a 	movne	r3, sl
   1baf8:	01a03009 	moveq	r3, r9
   1bafc:	e2822001 	add	r2, r2, #1
   1bb00:	e1520006 	cmp	r2, r6
   1bb04:	e0844003 	add	r4, r4, r3
   1bb08:	1affffe7 	bne	1baac <mktime+0x2e8>
   1bb0c:	e59de004 	ldr	lr, [sp, #4]
   1bb10:	e59f87b0 	ldr	r8, [pc, #1968]	; 1c2c8 <mktime+0xb04>
   1bb14:	e028e498 	mla	r8, r8, r4, lr
   1bb18:	eb00028a 	bl	1c548 <__tz_lock>
   1bb1c:	e59f37a8 	ldr	r3, [pc, #1960]	; 1c2cc <mktime+0xb08>
   1bb20:	e593a000 	ldr	sl, [r3]
   1bb24:	e35a0000 	cmp	sl, #0
   1bb28:	0a000047 	beq	1bc4c <mktime+0x488>
   1bb2c:	e5950014 	ldr	r0, [r5, #20]
   1bb30:	e595a020 	ldr	sl, [r5, #32]
   1bb34:	e2800e76 	add	r0, r0, #1888	; 0x760
   1bb38:	e5973004 	ldr	r3, [r7, #4]
   1bb3c:	e35a0001 	cmp	sl, #1
   1bb40:	e280000c 	add	r0, r0, #12
   1bb44:	a3a0a001 	movge	sl, #1
   1bb48:	e1530000 	cmp	r3, r0
   1bb4c:	0a000020 	beq	1bbd4 <mktime+0x410>
   1bb50:	eb0001ef 	bl	1c314 <__tzcalc_limits>
   1bb54:	e3500000 	cmp	r0, #0
   1bb58:	1a00001d 	bne	1bbd4 <mktime+0x410>
   1bb5c:	e35a0001 	cmp	sl, #1
   1bb60:	1a000039 	bne	1bc4c <mktime+0x488>
   1bb64:	e597003c 	ldr	r0, [r7, #60]	; 0x3c
   1bb68:	e0888000 	add	r8, r8, r0
   1bb6c:	eb000276 	bl	1c54c <__tz_unlock>
   1bb70:	e1a00008 	mov	r0, r8
   1bb74:	e59f2754 	ldr	r2, [pc, #1876]	; 1c2d0 <mktime+0xb0c>
   1bb78:	e2843004 	add	r3, r4, #4
   1bb7c:	e0c21392 	smull	r1, r2, r2, r3
   1bb80:	e1a01fc3 	asr	r1, r3, #31
   1bb84:	e0822003 	add	r2, r2, r3
   1bb88:	e0612142 	rsb	r2, r1, r2, asr #2
   1bb8c:	e0622182 	rsb	r2, r2, r2, lsl #3
   1bb90:	e0532002 	subs	r2, r3, r2
   1bb94:	42822007 	addmi	r2, r2, #7
   1bb98:	e585a020 	str	sl, [r5, #32]
   1bb9c:	e5852018 	str	r2, [r5, #24]
   1bba0:	e28dd01c 	add	sp, sp, #28
   1bba4:	e8bd8ff0 	pop	{r4, r5, r6, r7, r8, r9, sl, fp, pc}
   1bba8:	e3a02e19 	mov	r2, #400	; 0x190
   1bbac:	e2863e76 	add	r3, r6, #1888	; 0x760
   1bbb0:	e283300c 	add	r3, r3, #12
   1bbb4:	e0c0c390 	smull	ip, r0, r0, r3
   1bbb8:	e1a04fc3 	asr	r4, r3, #31
   1bbbc:	e06403c0 	rsb	r0, r4, r0, asr #7
   1bbc0:	e0040092 	mul	r4, r2, r0
   1bbc4:	e1530004 	cmp	r3, r4
   1bbc8:	03a0401d 	moveq	r4, #29
   1bbcc:	13a0401c 	movne	r4, #28
   1bbd0:	eaffff18 	b	1b838 <mktime+0x74>
   1bbd4:	e5979038 	ldr	r9, [r7, #56]	; 0x38
   1bbd8:	e597103c 	ldr	r1, [r7, #60]	; 0x3c
   1bbdc:	e5972020 	ldr	r2, [r7, #32]
   1bbe0:	e0613009 	rsb	r3, r1, r9
   1bbe4:	e1580003 	cmp	r8, r3
   1bbe8:	e0629009 	rsb	r9, r2, r9
   1bbec:	b3a03001 	movlt	r3, #1
   1bbf0:	a3a03000 	movge	r3, #0
   1bbf4:	e1580009 	cmp	r8, r9
   1bbf8:	b3a03000 	movlt	r3, #0
   1bbfc:	e3530000 	cmp	r3, #0
   1bc00:	e597301c 	ldr	r3, [r7, #28]
   1bc04:	1affffd4 	bne	1bb5c <mktime+0x398>
   1bc08:	e5970000 	ldr	r0, [r7]
   1bc0c:	e0613003 	rsb	r3, r1, r3
   1bc10:	e3500000 	cmp	r0, #0
   1bc14:	0a00008f 	beq	1be58 <mktime+0x694>
   1bc18:	e1580009 	cmp	r8, r9
   1bc1c:	b3a09001 	movlt	r9, #1
   1bc20:	a3a09000 	movge	r9, #0
   1bc24:	e1580003 	cmp	r8, r3
   1bc28:	b3a09000 	movlt	r9, #0
   1bc2c:	e35a0000 	cmp	sl, #0
   1bc30:	ba000002 	blt	1bc40 <mktime+0x47c>
   1bc34:	e02aa009 	eor	sl, sl, r9
   1bc38:	e35a0001 	cmp	sl, #1
   1bc3c:	0a00008e 	beq	1be7c <mktime+0x6b8>
   1bc40:	e1a0a009 	mov	sl, r9
   1bc44:	e35a0001 	cmp	sl, #1
   1bc48:	0affffc5 	beq	1bb64 <mktime+0x3a0>
   1bc4c:	e5970020 	ldr	r0, [r7, #32]
   1bc50:	e0888000 	add	r8, r8, r0
   1bc54:	eaffffc4 	b	1bb6c <mktime+0x3a8>
   1bc58:	e3a0203c 	mov	r2, #60	; 0x3c
   1bc5c:	e28d0008 	add	r0, sp, #8
   1bc60:	eb00023a 	bl	1c550 <div>
   1bc64:	e59d200c 	ldr	r2, [sp, #12]
   1bc68:	e5953004 	ldr	r3, [r5, #4]
   1bc6c:	e59d1008 	ldr	r1, [sp, #8]
   1bc70:	e3520000 	cmp	r2, #0
   1bc74:	e0831001 	add	r1, r3, r1
   1bc78:	e5851004 	str	r1, [r5, #4]
   1bc7c:	b282203c 	addlt	r2, r2, #60	; 0x3c
   1bc80:	b2411001 	sublt	r1, r1, #1
   1bc84:	a5852000 	strge	r2, [r5]
   1bc88:	b5852000 	strlt	r2, [r5]
   1bc8c:	b5851004 	strlt	r1, [r5, #4]
   1bc90:	e351003b 	cmp	r1, #59	; 0x3b
   1bc94:	9afffed5 	bls	1b7f0 <mktime+0x2c>
   1bc98:	e3a0203c 	mov	r2, #60	; 0x3c
   1bc9c:	e28d0008 	add	r0, sp, #8
   1bca0:	eb00022a 	bl	1c550 <div>
   1bca4:	e59d200c 	ldr	r2, [sp, #12]
   1bca8:	e5951008 	ldr	r1, [r5, #8]
   1bcac:	e59d3008 	ldr	r3, [sp, #8]
   1bcb0:	e3520000 	cmp	r2, #0
   1bcb4:	e0831001 	add	r1, r3, r1
   1bcb8:	e5851008 	str	r1, [r5, #8]
   1bcbc:	b282203c 	addlt	r2, r2, #60	; 0x3c
   1bcc0:	b2411001 	sublt	r1, r1, #1
   1bcc4:	a5852004 	strge	r2, [r5, #4]
   1bcc8:	b5852004 	strlt	r2, [r5, #4]
   1bccc:	b5851008 	strlt	r1, [r5, #8]
   1bcd0:	e3510017 	cmp	r1, #23
   1bcd4:	9afffec8 	bls	1b7fc <mktime+0x38>
   1bcd8:	e3a02018 	mov	r2, #24
   1bcdc:	e28d0008 	add	r0, sp, #8
   1bce0:	eb00021a 	bl	1c550 <div>
   1bce4:	e595100c 	ldr	r1, [r5, #12]
   1bce8:	e59d200c 	ldr	r2, [sp, #12]
   1bcec:	e59d3008 	ldr	r3, [sp, #8]
   1bcf0:	e3520000 	cmp	r2, #0
   1bcf4:	e0833001 	add	r3, r3, r1
   1bcf8:	e5951010 	ldr	r1, [r5, #16]
   1bcfc:	e585300c 	str	r3, [r5, #12]
   1bd00:	b2822018 	addlt	r2, r2, #24
   1bd04:	b2433001 	sublt	r3, r3, #1
   1bd08:	a5852008 	strge	r2, [r5, #8]
   1bd0c:	b5852008 	strlt	r2, [r5, #8]
   1bd10:	b585300c 	strlt	r3, [r5, #12]
   1bd14:	e351000b 	cmp	r1, #11
   1bd18:	9afffeba 	bls	1b808 <mktime+0x44>
   1bd1c:	e28d0008 	add	r0, sp, #8
   1bd20:	e3a0200c 	mov	r2, #12
   1bd24:	eb000209 	bl	1c550 <div>
   1bd28:	e59d100c 	ldr	r1, [sp, #12]
   1bd2c:	e5953014 	ldr	r3, [r5, #20]
   1bd30:	e59d6008 	ldr	r6, [sp, #8]
   1bd34:	e3510000 	cmp	r1, #0
   1bd38:	e0866003 	add	r6, r6, r3
   1bd3c:	e5856014 	str	r6, [r5, #20]
   1bd40:	b281100c 	addlt	r1, r1, #12
   1bd44:	b2466001 	sublt	r6, r6, #1
   1bd48:	a5851010 	strge	r1, [r5, #16]
   1bd4c:	b5851010 	strlt	r1, [r5, #16]
   1bd50:	b5856014 	strlt	r6, [r5, #20]
   1bd54:	eafffeac 	b	1b80c <mktime+0x48>
   1bd58:	e5851010 	str	r1, [r5, #16]
   1bd5c:	e585300c 	str	r3, [r5, #12]
   1bd60:	e3a0eee1 	mov	lr, #3600	; 0xe10
   1bd64:	e5952004 	ldr	r2, [r5, #4]
   1bd68:	e08bc101 	add	ip, fp, r1, lsl #2
   1bd6c:	e5950000 	ldr	r0, [r5]
   1bd70:	e59c4030 	ldr	r4, [ip, #48]	; 0x30
   1bd74:	e0622202 	rsb	r2, r2, r2, lsl #4
   1bd78:	e595c008 	ldr	ip, [r5, #8]
   1bd7c:	e2433001 	sub	r3, r3, #1
   1bd80:	e0802102 	add	r2, r0, r2, lsl #2
   1bd84:	e3510001 	cmp	r1, #1
   1bd88:	e0834004 	add	r4, r3, r4
   1bd8c:	e02e2c9e 	mla	lr, lr, ip, r2
   1bd90:	dafffecd 	ble	1b8cc <mktime+0x108>
   1bd94:	e3160003 	tst	r6, #3
   1bd98:	1afffecb 	bne	1b8cc <mktime+0x108>
   1bd9c:	e3a02064 	mov	r2, #100	; 0x64
   1bda0:	e59f150c 	ldr	r1, [pc, #1292]	; 1c2b4 <mktime+0xaf0>
   1bda4:	e1a03fc6 	asr	r3, r6, #31
   1bda8:	e0c0c691 	smull	ip, r0, r1, r6
   1bdac:	e06332c0 	rsb	r3, r3, r0, asr #5
   1bdb0:	e0030392 	mul	r3, r2, r3
   1bdb4:	e1560003 	cmp	r6, r3
   1bdb8:	0a00000d 	beq	1bdf4 <mktime+0x630>
   1bdbc:	e2844001 	add	r4, r4, #1
   1bdc0:	eafffec1 	b	1b8cc <mktime+0x108>
   1bdc4:	e2861e76 	add	r1, r6, #1888	; 0x760
   1bdc8:	e281100b 	add	r1, r1, #11
   1bdcc:	e0c64190 	smull	r4, r6, r0, r1
   1bdd0:	e1a04fc1 	asr	r4, r1, #31
   1bdd4:	e06443c6 	rsb	r4, r4, r6, asr #7
   1bdd8:	e004049e 	mul	r4, lr, r4
   1bddc:	e1510004 	cmp	r1, r4
   1bde0:	13a0401c 	movne	r4, #28
   1bde4:	03a0401d 	moveq	r4, #29
   1bde8:	e1a06002 	mov	r6, r2
   1bdec:	e3a0100b 	mov	r1, #11
   1bdf0:	eaffff12 	b	1ba40 <mktime+0x27c>
   1bdf4:	e3a02e19 	mov	r2, #400	; 0x190
   1bdf8:	e2863e76 	add	r3, r6, #1888	; 0x760
   1bdfc:	e283300c 	add	r3, r3, #12
   1be00:	e0c10391 	smull	r0, r1, r1, r3
   1be04:	e1a00fc3 	asr	r0, r3, #31
   1be08:	e06013c1 	rsb	r1, r0, r1, asr #7
   1be0c:	e0020192 	mul	r2, r2, r1
   1be10:	e1530002 	cmp	r3, r2
   1be14:	1afffeac 	bne	1b8cc <mktime+0x108>
   1be18:	eaffffe7 	b	1bdbc <mktime+0x5f8>
   1be1c:	e2862e76 	add	r2, r6, #1888	; 0x760
   1be20:	e282200c 	add	r2, r2, #12
   1be24:	e0c41299 	smull	r1, r4, r9, r2
   1be28:	e1a01fc2 	asr	r1, r2, #31
   1be2c:	e06143c4 	rsb	r4, r1, r4, asr #7
   1be30:	e3a01e19 	mov	r1, #400	; 0x190
   1be34:	e0040491 	mul	r4, r1, r4
   1be38:	e1520004 	cmp	r2, r4
   1be3c:	13a0401c 	movne	r4, #28
   1be40:	03a0401d 	moveq	r4, #29
   1be44:	e3a01000 	mov	r1, #0
   1be48:	eafffe81 	b	1b854 <mktime+0x90>
   1be4c:	e59f346c 	ldr	r3, [pc, #1132]	; 1c2c0 <mktime+0xafc>
   1be50:	e0634004 	rsb	r4, r3, r4
   1be54:	eaffff2d 	b	1bb10 <mktime+0x34c>
   1be58:	e1580003 	cmp	r8, r3
   1be5c:	b3a03000 	movlt	r3, #0
   1be60:	a3a03001 	movge	r3, #1
   1be64:	e1580009 	cmp	r8, r9
   1be68:	a1a09003 	movge	r9, r3
   1be6c:	b3839001 	orrlt	r9, r3, #1
   1be70:	eaffff6d 	b	1bc2c <mktime+0x468>
   1be74:	e3e00000 	mvn	r0, #0
   1be78:	eaffff48 	b	1bba0 <mktime+0x3dc>
   1be7c:	e2293001 	eor	r3, r9, #1
   1be80:	e1a00003 	mov	r0, r3
   1be84:	e0612002 	rsb	r2, r1, r2
   1be88:	e2633000 	rsb	r3, r3, #0
   1be8c:	e5951000 	ldr	r1, [r5]
   1be90:	e0233002 	eor	r3, r3, r2
   1be94:	e0833000 	add	r3, r3, r0
   1be98:	e0831001 	add	r1, r3, r1
   1be9c:	e0888003 	add	r8, r8, r3
   1bea0:	e595300c 	ldr	r3, [r5, #12]
   1bea4:	e351003b 	cmp	r1, #59	; 0x3b
   1bea8:	e5851000 	str	r1, [r5]
   1beac:	e58d3004 	str	r3, [sp, #4]
   1beb0:	8a0000d4 	bhi	1c208 <mktime+0xa44>
   1beb4:	e5951004 	ldr	r1, [r5, #4]
   1beb8:	e351003b 	cmp	r1, #59	; 0x3b
   1bebc:	8a0000c2 	bhi	1c1cc <mktime+0xa08>
   1bec0:	e5951008 	ldr	r1, [r5, #8]
   1bec4:	e3510017 	cmp	r1, #23
   1bec8:	8a0000b0 	bhi	1c190 <mktime+0x9cc>
   1becc:	e5951010 	ldr	r1, [r5, #16]
   1bed0:	e351000b 	cmp	r1, #11
   1bed4:	8a00009e 	bhi	1c154 <mktime+0x990>
   1bed8:	e5953014 	ldr	r3, [r5, #20]
   1bedc:	e3130003 	tst	r3, #3
   1bee0:	1a000072 	bne	1c0b0 <mktime+0x8ec>
   1bee4:	e3a0c064 	mov	ip, #100	; 0x64
   1bee8:	e59f03c4 	ldr	r0, [pc, #964]	; 1c2b4 <mktime+0xaf0>
   1beec:	e1a02fc3 	asr	r2, r3, #31
   1bef0:	e0cea390 	smull	sl, lr, r0, r3
   1bef4:	e06222ce 	rsb	r2, r2, lr, asr #5
   1bef8:	e002029c 	mul	r2, ip, r2
   1befc:	e1530002 	cmp	r3, r2
   1bf00:	13a0201d 	movne	r2, #29
   1bf04:	1a000009 	bne	1bf30 <mktime+0x76c>
   1bf08:	e3a02e19 	mov	r2, #400	; 0x190
   1bf0c:	e2833e76 	add	r3, r3, #1888	; 0x760
   1bf10:	e283300c 	add	r3, r3, #12
   1bf14:	e0c0c390 	smull	ip, r0, r0, r3
   1bf18:	e1a0cfc3 	asr	ip, r3, #31
   1bf1c:	e06c03c0 	rsb	r0, ip, r0, asr #7
   1bf20:	e0020092 	mul	r2, r2, r0
   1bf24:	e1530002 	cmp	r3, r2
   1bf28:	03a0201d 	moveq	r2, #29
   1bf2c:	13a0201c 	movne	r2, #28
   1bf30:	e595300c 	ldr	r3, [r5, #12]
   1bf34:	e3530000 	cmp	r3, #0
   1bf38:	da000060 	ble	1c0c0 <mktime+0x8fc>
   1bf3c:	e1a00001 	mov	r0, r1
   1bf40:	e59fa36c 	ldr	sl, [pc, #876]	; 1c2b4 <mktime+0xaf0>
   1bf44:	e2801001 	add	r1, r0, #1
   1bf48:	e08bc100 	add	ip, fp, r0, lsl #2
   1bf4c:	ea00000a 	b	1bf7c <mktime+0x7b8>
   1bf50:	e59ce000 	ldr	lr, [ip]
   1bf54:	e15e0003 	cmp	lr, r3
   1bf58:	aa000011 	bge	1bfa4 <mktime+0x7e0>
   1bf5c:	e06e3003 	rsb	r3, lr, r3
   1bf60:	e351000c 	cmp	r1, #12
   1bf64:	e585300c 	str	r3, [r5, #12]
   1bf68:	e5851010 	str	r1, [r5, #16]
   1bf6c:	0a000033 	beq	1c040 <mktime+0x87c>
   1bf70:	e2800001 	add	r0, r0, #1
   1bf74:	e2811001 	add	r1, r1, #1
   1bf78:	e28cc004 	add	ip, ip, #4
   1bf7c:	e3500001 	cmp	r0, #1
   1bf80:	1afffff2 	bne	1bf50 <mktime+0x78c>
   1bf84:	e1520003 	cmp	r2, r3
   1bf88:	aa000005 	bge	1bfa4 <mktime+0x7e0>
   1bf8c:	e0623003 	rsb	r3, r2, r3
   1bf90:	e585300c 	str	r3, [r5, #12]
   1bf94:	e5851010 	str	r1, [r5, #16]
   1bf98:	eafffff4 	b	1bf70 <mktime+0x7ac>
   1bf9c:	e5851010 	str	r1, [r5, #16]
   1bfa0:	e585300c 	str	r3, [r5, #12]
   1bfa4:	e59d2004 	ldr	r2, [sp, #4]
   1bfa8:	e0533002 	subs	r3, r3, r2
   1bfac:	0affff23 	beq	1bc40 <mktime+0x47c>
   1bfb0:	e3530001 	cmp	r3, #1
   1bfb4:	c3e03000 	mvngt	r3, #0
   1bfb8:	da0000ba 	ble	1c2a8 <mktime+0xae4>
   1bfbc:	e595201c 	ldr	r2, [r5, #28]
   1bfc0:	e0844003 	add	r4, r4, r3
   1bfc4:	e0933002 	adds	r3, r3, r2
   1bfc8:	4a00009d 	bmi	1c244 <mktime+0xa80>
   1bfcc:	e3160003 	tst	r6, #3
   1bfd0:	159f22e8 	ldrne	r2, [pc, #744]	; 1c2c0 <mktime+0xafc>
   1bfd4:	1a000014 	bne	1c02c <mktime+0x868>
   1bfd8:	e3a00064 	mov	r0, #100	; 0x64
   1bfdc:	e59f12d0 	ldr	r1, [pc, #720]	; 1c2b4 <mktime+0xaf0>
   1bfe0:	e1a02fc6 	asr	r2, r6, #31
   1bfe4:	e0cce691 	smull	lr, ip, r1, r6
   1bfe8:	e06222cc 	rsb	r2, r2, ip, asr #5
   1bfec:	e0020290 	mul	r2, r0, r2
   1bff0:	e1560002 	cmp	r6, r2
   1bff4:	159f22c8 	ldrne	r2, [pc, #712]	; 1c2c4 <mktime+0xb00>
   1bff8:	1a00000b 	bne	1c02c <mktime+0x868>
   1bffc:	e3a0ce19 	mov	ip, #400	; 0x190
   1c000:	e2862e76 	add	r2, r6, #1888	; 0x760
   1c004:	e282000c 	add	r0, r2, #12
   1c008:	e0c12091 	smull	r2, r1, r1, r0
   1c00c:	e1a02fc0 	asr	r2, r0, #31
   1c010:	e06223c1 	rsb	r2, r2, r1, asr #7
   1c014:	e002029c 	mul	r2, ip, r2
   1c018:	e59f12a0 	ldr	r1, [pc, #672]	; 1c2c0 <mktime+0xafc>
   1c01c:	e1500002 	cmp	r0, r2
   1c020:	e24cc022 	sub	ip, ip, #34	; 0x22
   1c024:	11a02001 	movne	r2, r1
   1c028:	01a0200c 	moveq	r2, ip
   1c02c:	e1520003 	cmp	r2, r3
   1c030:	d0623003 	rsble	r3, r2, r3
   1c034:	e585301c 	str	r3, [r5, #28]
   1c038:	e1a0a009 	mov	sl, r9
   1c03c:	eafffec6 	b	1bb5c <mktime+0x398>
   1c040:	e3a01000 	mov	r1, #0
   1c044:	e5952014 	ldr	r2, [r5, #20]
   1c048:	e5851010 	str	r1, [r5, #16]
   1c04c:	e2820001 	add	r0, r2, #1
   1c050:	e3100003 	tst	r0, #3
   1c054:	e5850014 	str	r0, [r5, #20]
   1c058:	13a0201c 	movne	r2, #28
   1c05c:	1a000011 	bne	1c0a8 <mktime+0x8e4>
   1c060:	e0cc109a 	smull	r1, ip, sl, r0
   1c064:	e1a01fc0 	asr	r1, r0, #31
   1c068:	e06112cc 	rsb	r1, r1, ip, asr #5
   1c06c:	e3a0c064 	mov	ip, #100	; 0x64
   1c070:	e001019c 	mul	r1, ip, r1
   1c074:	e1500001 	cmp	r0, r1
   1c078:	13a0201d 	movne	r2, #29
   1c07c:	1a000009 	bne	1c0a8 <mktime+0x8e4>
   1c080:	e2822e76 	add	r2, r2, #1888	; 0x760
   1c084:	e282200d 	add	r2, r2, #13
   1c088:	e0c0129a 	smull	r1, r0, sl, r2
   1c08c:	e1a01fc2 	asr	r1, r2, #31
   1c090:	e06113c0 	rsb	r1, r1, r0, asr #7
   1c094:	e3a00e19 	mov	r0, #400	; 0x190
   1c098:	e0010190 	mul	r1, r0, r1
   1c09c:	e1520001 	cmp	r2, r1
   1c0a0:	13a0201c 	movne	r2, #28
   1c0a4:	03a0201d 	moveq	r2, #29
   1c0a8:	e3a00000 	mov	r0, #0
   1c0ac:	eaffffa4 	b	1bf44 <mktime+0x780>
   1c0b0:	e595300c 	ldr	r3, [r5, #12]
   1c0b4:	e3a0201c 	mov	r2, #28
   1c0b8:	e3530000 	cmp	r3, #0
   1c0bc:	caffff9e 	bgt	1bf3c <mktime+0x778>
   1c0c0:	e3a0a064 	mov	sl, #100	; 0x64
   1c0c4:	e59fe1e8 	ldr	lr, [pc, #488]	; 1c2b4 <mktime+0xaf0>
   1c0c8:	ea000006 	b	1c0e8 <mktime+0x924>
   1c0cc:	e3510001 	cmp	r1, #1
   1c0d0:	01a00002 	moveq	r0, r2
   1c0d4:	0a000000 	beq	1c0dc <mktime+0x918>
   1c0d8:	e79b0101 	ldr	r0, [fp, r1, lsl #2]
   1c0dc:	e0833000 	add	r3, r3, r0
   1c0e0:	e3530000 	cmp	r3, #0
   1c0e4:	caffffac 	bgt	1bf9c <mktime+0x7d8>
   1c0e8:	e2511001 	subs	r1, r1, #1
   1c0ec:	2afffff6 	bcs	1c0cc <mktime+0x908>
   1c0f0:	e5952014 	ldr	r2, [r5, #20]
   1c0f4:	e2420001 	sub	r0, r2, #1
   1c0f8:	e3100003 	tst	r0, #3
   1c0fc:	e5850014 	str	r0, [r5, #20]
   1c100:	13a0201c 	movne	r2, #28
   1c104:	1a000010 	bne	1c14c <mktime+0x988>
   1c108:	e0cc109e 	smull	r1, ip, lr, r0
   1c10c:	e1a01fc0 	asr	r1, r0, #31
   1c110:	e06112cc 	rsb	r1, r1, ip, asr #5
   1c114:	e001019a 	mul	r1, sl, r1
   1c118:	e1500001 	cmp	r0, r1
   1c11c:	13a0201d 	movne	r2, #29
   1c120:	1a000009 	bne	1c14c <mktime+0x988>
   1c124:	e2822e76 	add	r2, r2, #1888	; 0x760
   1c128:	e282200b 	add	r2, r2, #11
   1c12c:	e0c0129e 	smull	r1, r0, lr, r2
   1c130:	e1a01fc2 	asr	r1, r2, #31
   1c134:	e06113c0 	rsb	r1, r1, r0, asr #7
   1c138:	e3a00e19 	mov	r0, #400	; 0x190
   1c13c:	e0010190 	mul	r1, r0, r1
   1c140:	e1520001 	cmp	r2, r1
   1c144:	13a0201c 	movne	r2, #28
   1c148:	03a0201d 	moveq	r2, #29
   1c14c:	e3a0100b 	mov	r1, #11
   1c150:	eaffffe0 	b	1c0d8 <mktime+0x914>
   1c154:	e3a0200c 	mov	r2, #12
   1c158:	e28d0010 	add	r0, sp, #16
   1c15c:	eb0000fb 	bl	1c550 <div>
   1c160:	e59d1014 	ldr	r1, [sp, #20]
   1c164:	e5952014 	ldr	r2, [r5, #20]
   1c168:	e59d3010 	ldr	r3, [sp, #16]
   1c16c:	e3510000 	cmp	r1, #0
   1c170:	e0823003 	add	r3, r2, r3
   1c174:	e5853014 	str	r3, [r5, #20]
   1c178:	b281100c 	addlt	r1, r1, #12
   1c17c:	b2433001 	sublt	r3, r3, #1
   1c180:	a5851010 	strge	r1, [r5, #16]
   1c184:	b5851010 	strlt	r1, [r5, #16]
   1c188:	b5853014 	strlt	r3, [r5, #20]
   1c18c:	eaffff52 	b	1bedc <mktime+0x718>
   1c190:	e3a02018 	mov	r2, #24
   1c194:	e28d0010 	add	r0, sp, #16
   1c198:	eb0000ec 	bl	1c550 <div>
   1c19c:	e59d2014 	ldr	r2, [sp, #20]
   1c1a0:	e595300c 	ldr	r3, [r5, #12]
   1c1a4:	e59d1010 	ldr	r1, [sp, #16]
   1c1a8:	e3520000 	cmp	r2, #0
   1c1ac:	e0833001 	add	r3, r3, r1
   1c1b0:	e585300c 	str	r3, [r5, #12]
   1c1b4:	b2822018 	addlt	r2, r2, #24
   1c1b8:	b2433001 	sublt	r3, r3, #1
   1c1bc:	a5852008 	strge	r2, [r5, #8]
   1c1c0:	b5852008 	strlt	r2, [r5, #8]
   1c1c4:	b585300c 	strlt	r3, [r5, #12]
   1c1c8:	eaffff3f 	b	1becc <mktime+0x708>
   1c1cc:	e3a0203c 	mov	r2, #60	; 0x3c
   1c1d0:	e28d0010 	add	r0, sp, #16
   1c1d4:	eb0000dd 	bl	1c550 <div>
   1c1d8:	e59d2014 	ldr	r2, [sp, #20]
   1c1dc:	e5953008 	ldr	r3, [r5, #8]
   1c1e0:	e59d1010 	ldr	r1, [sp, #16]
   1c1e4:	e3520000 	cmp	r2, #0
   1c1e8:	e0831001 	add	r1, r3, r1
   1c1ec:	e5851008 	str	r1, [r5, #8]
   1c1f0:	b282203c 	addlt	r2, r2, #60	; 0x3c
   1c1f4:	b2411001 	sublt	r1, r1, #1
   1c1f8:	a5852004 	strge	r2, [r5, #4]
   1c1fc:	b5852004 	strlt	r2, [r5, #4]
   1c200:	b5851008 	strlt	r1, [r5, #8]
   1c204:	eaffff2e 	b	1bec4 <mktime+0x700>
   1c208:	e3a0203c 	mov	r2, #60	; 0x3c
   1c20c:	e28d0010 	add	r0, sp, #16
   1c210:	eb0000ce 	bl	1c550 <div>
   1c214:	e59d2014 	ldr	r2, [sp, #20]
   1c218:	e5953004 	ldr	r3, [r5, #4]
   1c21c:	e59d1010 	ldr	r1, [sp, #16]
   1c220:	e3520000 	cmp	r2, #0
   1c224:	e0831001 	add	r1, r3, r1
   1c228:	e5851004 	str	r1, [r5, #4]
   1c22c:	b282203c 	addlt	r2, r2, #60	; 0x3c
   1c230:	b2411001 	sublt	r1, r1, #1
   1c234:	a5852000 	strge	r2, [r5]
   1c238:	b5852000 	strlt	r2, [r5]
   1c23c:	b5851004 	strlt	r1, [r5, #4]
   1c240:	eaffff1c 	b	1beb8 <mktime+0x6f4>
   1c244:	e2463001 	sub	r3, r6, #1
   1c248:	e3130003 	tst	r3, #3
   1c24c:	13a03f5b 	movne	r3, #364	; 0x16c
   1c250:	1affff77 	bne	1c034 <mktime+0x870>
   1c254:	e3a01064 	mov	r1, #100	; 0x64
   1c258:	e59f2054 	ldr	r2, [pc, #84]	; 1c2b4 <mktime+0xaf0>
   1c25c:	e1a00fc3 	asr	r0, r3, #31
   1c260:	e0cce392 	smull	lr, ip, r2, r3
   1c264:	e06002cc 	rsb	r0, r0, ip, asr #5
   1c268:	e0010091 	mul	r1, r1, r0
   1c26c:	e1530001 	cmp	r3, r1
   1c270:	159f3048 	ldrne	r3, [pc, #72]	; 1c2c0 <mktime+0xafc>
   1c274:	1affff6e 	bne	1c034 <mktime+0x870>
   1c278:	e3a01e19 	mov	r1, #400	; 0x190
   1c27c:	e2863e76 	add	r3, r6, #1888	; 0x760
   1c280:	e283300b 	add	r3, r3, #11
   1c284:	e0c20392 	smull	r0, r2, r2, r3
   1c288:	e1a00fc3 	asr	r0, r3, #31
   1c28c:	e06023c2 	rsb	r2, r0, r2, asr #7
   1c290:	e0010291 	mul	r1, r1, r2
   1c294:	e59f2024 	ldr	r2, [pc, #36]	; 1c2c0 <mktime+0xafc>
   1c298:	e1530001 	cmp	r3, r1
   1c29c:	01a03002 	moveq	r3, r2
   1c2a0:	13a03f5b 	movne	r3, #364	; 0x16c
   1c2a4:	eaffff62 	b	1c034 <mktime+0x870>
   1c2a8:	e3730001 	cmn	r3, #1
   1c2ac:	b3a03001 	movlt	r3, #1
   1c2b0:	eaffff41 	b	1bfbc <mktime+0x7f8>
   1c2b4:	51eb851f 	mvnpl	r8, pc, lsl r5
   1c2b8:	0001e26c 	andeq	lr, r1, ip, ror #4
   1c2bc:	00004e20 	andeq	r4, r0, r0, lsr #28
   1c2c0:	0000016d 	andeq	r0, r0, sp, ror #2
   1c2c4:	0000016e 	andeq	r0, r0, lr, ror #2
   1c2c8:	00015180 	andeq	r5, r1, r0, lsl #3
   1c2cc:	00021ca0 	andeq	r1, r2, r0, lsr #25
   1c2d0:	92492493 	subls	r2, r9, #-1828716544	; 0x93000000

0001c2d4 <__malloc_lock>:
   1c2d4:	e12fff1e 	bx	lr

0001c2d8 <__malloc_unlock>:
   1c2d8:	e12fff1e 	bx	lr

0001c2dc <_sbrk_r>:
   1c2dc:	e92d4038 	push	{r3, r4, r5, lr}
   1c2e0:	e3a03000 	mov	r3, #0
   1c2e4:	e59f4024 	ldr	r4, [pc, #36]	; 1c310 <_sbrk_r+0x34>
   1c2e8:	e1a05000 	mov	r5, r0
   1c2ec:	e1a00001 	mov	r0, r1
   1c2f0:	e5843000 	str	r3, [r4]
   1c2f4:	ebffbebf 	bl	bdf8 <_sbrk>
   1c2f8:	e3700001 	cmn	r0, #1
   1c2fc:	18bd8038 	popne	{r3, r4, r5, pc}
   1c300:	e5943000 	ldr	r3, [r4]
   1c304:	e3530000 	cmp	r3, #0
   1c308:	15853000 	strne	r3, [r5]
   1c30c:	e8bd8038 	pop	{r3, r4, r5, pc}
   1c310:	00021eac 	andeq	r1, r2, ip, lsr #29

0001c314 <__tzcalc_limits>:
   1c314:	e92d4ff8 	push	{r3, r4, r5, r6, r7, r8, r9, sl, fp, lr}
   1c318:	e1a05000 	mov	r5, r0
   1c31c:	eb00018e 	bl	1c95c <__gettzinfo>
   1c320:	e59f320c 	ldr	r3, [pc, #524]	; 1c534 <__tzcalc_limits+0x220>
   1c324:	e1550003 	cmp	r5, r3
   1c328:	da000067 	ble	1c4cc <__tzcalc_limits+0x1b8>
   1c32c:	e3a03e19 	mov	r3, #400	; 0x190
   1c330:	e59f4200 	ldr	r4, [pc, #512]	; 1c538 <__tzcalc_limits+0x224>
   1c334:	e1a06fc5 	asr	r6, r5, #31
   1c338:	e0c92594 	smull	r2, r9, r4, r5
   1c33c:	e066a3c9 	rsb	sl, r6, r9, asr #7
   1c340:	e00a0a93 	mul	sl, r3, sl
   1c344:	e06692c9 	rsb	r9, r6, r9, asr #5
   1c348:	e3a06064 	mov	r6, #100	; 0x64
   1c34c:	e06aa005 	rsb	sl, sl, r5
   1c350:	e1a08000 	mov	r8, r0
   1c354:	e16faf1a 	clz	sl, sl
   1c358:	e2451e76 	sub	r1, r5, #1888	; 0x760
   1c35c:	e245ce7b 	sub	ip, r5, #1968	; 0x7b0
   1c360:	e241100d 	sub	r1, r1, #13
   1c364:	e2452d19 	sub	r2, r5, #1600	; 0x640
   1c368:	e24c3002 	sub	r3, ip, #2
   1c36c:	e2422001 	sub	r2, r2, #1
   1c370:	e1a0e000 	mov	lr, r0
   1c374:	e0c0b194 	smull	fp, r0, r4, r1
   1c378:	e083b183 	add	fp, r3, r3, lsl #3
   1c37c:	e0c47294 	smull	r7, r4, r4, r2
   1c380:	e083318b 	add	r3, r3, fp, lsl #3
   1c384:	e0090996 	mul	r9, r6, r9
   1c388:	e24cc001 	sub	ip, ip, #1
   1c38c:	e0833103 	add	r3, r3, r3, lsl #2
   1c390:	e1a01fc1 	asr	r1, r1, #31
   1c394:	e04112c0 	sub	r1, r1, r0, asr #5
   1c398:	e083314c 	add	r3, r3, ip, asr #2
   1c39c:	e1a02fc2 	asr	r2, r2, #31
   1c3a0:	e0833001 	add	r3, r3, r1
   1c3a4:	e06243c4 	rsb	r4, r2, r4, asr #7
   1c3a8:	e59fb18c 	ldr	fp, [pc, #396]	; 1c53c <__tzcalc_limits+0x228>
   1c3ac:	e5885004 	str	r5, [r8, #4]
   1c3b0:	e0699005 	rsb	r9, r9, r5
   1c3b4:	e1a0a2aa 	lsr	sl, sl, #5
   1c3b8:	e0834004 	add	r4, r3, r4
   1c3bc:	e2055003 	and	r5, r5, #3
   1c3c0:	e2880038 	add	r0, r8, #56	; 0x38
   1c3c4:	e5de3008 	ldrb	r3, [lr, #8]
   1c3c8:	e353004a 	cmp	r3, #74	; 0x4a
   1c3cc:	0a000040 	beq	1c4d4 <__tzcalc_limits+0x1c0>
   1c3d0:	e3530044 	cmp	r3, #68	; 0x44
   1c3d4:	0a000051 	beq	1c520 <__tzcalc_limits+0x20c>
   1c3d8:	e3550000 	cmp	r5, #0
   1c3dc:	11a0c00a 	movne	ip, sl
   1c3e0:	0a000035 	beq	1c4bc <__tzcalc_limits+0x1a8>
   1c3e4:	e1a0308c 	lsl	r3, ip, #1
   1c3e8:	e59e600c 	ldr	r6, [lr, #12]
   1c3ec:	e083c00c 	add	ip, r3, ip
   1c3f0:	e59f3148 	ldr	r3, [pc, #328]	; 1c540 <__tzcalc_limits+0x22c>
   1c3f4:	e3560001 	cmp	r6, #1
   1c3f8:	e1a01004 	mov	r1, r4
   1c3fc:	e083c20c 	add	ip, r3, ip, lsl #4
   1c400:	da000049 	ble	1c52c <__tzcalc_limits+0x218>
   1c404:	e246610b 	sub	r6, r6, #-1073741822	; 0xc0000002
   1c408:	e1a07106 	lsl	r7, r6, #2
   1c40c:	e08c6007 	add	r6, ip, r7
   1c410:	e24c3004 	sub	r3, ip, #4
   1c414:	e5b32004 	ldr	r2, [r3, #4]!
   1c418:	e1530006 	cmp	r3, r6
   1c41c:	e0811002 	add	r1, r1, r2
   1c420:	1afffffb 	bne	1c414 <__tzcalc_limits+0x100>
   1c424:	e2876004 	add	r6, r7, #4
   1c428:	e59f3114 	ldr	r3, [pc, #276]	; 1c544 <__tzcalc_limits+0x230>
   1c42c:	e2812004 	add	r2, r1, #4
   1c430:	e0c37293 	smull	r7, r3, r3, r2
   1c434:	e1a07fc2 	asr	r7, r2, #31
   1c438:	e0833002 	add	r3, r3, r2
   1c43c:	e0673143 	rsb	r3, r7, r3, asr #2
   1c440:	e0633183 	rsb	r3, r3, r3, lsl #3
   1c444:	e59e7014 	ldr	r7, [lr, #20]
   1c448:	e0632002 	rsb	r2, r3, r2
   1c44c:	e0573002 	subs	r3, r7, r2
   1c450:	e59e2010 	ldr	r2, [lr, #16]
   1c454:	42833007 	addmi	r3, r3, #7
   1c458:	e2422001 	sub	r2, r2, #1
   1c45c:	e79cc006 	ldr	ip, [ip, r6]
   1c460:	e0622182 	rsb	r2, r2, r2, lsl #3
   1c464:	e0823003 	add	r3, r2, r3
   1c468:	e153000c 	cmp	r3, ip
   1c46c:	ba000002 	blt	1c47c <__tzcalc_limits+0x168>
   1c470:	e2433007 	sub	r3, r3, #7
   1c474:	e153000c 	cmp	r3, ip
   1c478:	aafffffc 	bge	1c470 <__tzcalc_limits+0x15c>
   1c47c:	e0811003 	add	r1, r1, r3
   1c480:	e59e3018 	ldr	r3, [lr, #24]
   1c484:	e59e2020 	ldr	r2, [lr, #32]
   1c488:	e023319b 	mla	r3, fp, r1, r3
   1c48c:	e0833002 	add	r3, r3, r2
   1c490:	e5ae301c 	str	r3, [lr, #28]!
   1c494:	e15e0000 	cmp	lr, r0
   1c498:	1affffc9 	bne	1c3c4 <__tzcalc_limits+0xb0>
   1c49c:	e598301c 	ldr	r3, [r8, #28]
   1c4a0:	e5982038 	ldr	r2, [r8, #56]	; 0x38
   1c4a4:	e3a00001 	mov	r0, #1
   1c4a8:	e1530002 	cmp	r3, r2
   1c4ac:	a3a03000 	movge	r3, #0
   1c4b0:	b3a03001 	movlt	r3, #1
   1c4b4:	e5883000 	str	r3, [r8]
   1c4b8:	e8bd8ff8 	pop	{r3, r4, r5, r6, r7, r8, r9, sl, fp, pc}
   1c4bc:	e3590000 	cmp	r9, #0
   1c4c0:	01a0c00a 	moveq	ip, sl
   1c4c4:	13a0c001 	movne	ip, #1
   1c4c8:	eaffffc5 	b	1c3e4 <__tzcalc_limits+0xd0>
   1c4cc:	e3a00000 	mov	r0, #0
   1c4d0:	e8bd8ff8 	pop	{r3, r4, r5, r6, r7, r8, r9, sl, fp, pc}
   1c4d4:	e59e3014 	ldr	r3, [lr, #20]
   1c4d8:	e3550000 	cmp	r5, #0
   1c4dc:	e0832004 	add	r2, r3, r4
   1c4e0:	1a000007 	bne	1c504 <__tzcalc_limits+0x1f0>
   1c4e4:	e3590000 	cmp	r9, #0
   1c4e8:	0a000005 	beq	1c504 <__tzcalc_limits+0x1f0>
   1c4ec:	e353003b 	cmp	r3, #59	; 0x3b
   1c4f0:	d3a03000 	movle	r3, #0
   1c4f4:	c3a03001 	movgt	r3, #1
   1c4f8:	e0823003 	add	r3, r2, r3
   1c4fc:	e2431001 	sub	r1, r3, #1
   1c500:	eaffffde 	b	1c480 <__tzcalc_limits+0x16c>
   1c504:	e35a0000 	cmp	sl, #0
   1c508:	01a0300a 	moveq	r3, sl
   1c50c:	0afffff9 	beq	1c4f8 <__tzcalc_limits+0x1e4>
   1c510:	e353003b 	cmp	r3, #59	; 0x3b
   1c514:	d3a03000 	movle	r3, #0
   1c518:	c3a03001 	movgt	r3, #1
   1c51c:	eafffff5 	b	1c4f8 <__tzcalc_limits+0x1e4>
   1c520:	e59e3014 	ldr	r3, [lr, #20]
   1c524:	e0841003 	add	r1, r4, r3
   1c528:	eaffffd4 	b	1c480 <__tzcalc_limits+0x16c>
   1c52c:	e3a06000 	mov	r6, #0
   1c530:	eaffffbc 	b	1c428 <__tzcalc_limits+0x114>
   1c534:	000007b1 			; <UNDEFINED> instruction: 0x000007b1
   1c538:	51eb851f 	mvnpl	r8, pc, lsl r5
   1c53c:	00015180 	andeq	r5, r1, r0, lsl #3
   1c540:	0001e2cc 	andeq	lr, r1, ip, asr #5
   1c544:	92492493 	subls	r2, r9, #-1828716544	; 0x93000000

0001c548 <__tz_lock>:
   1c548:	e12fff1e 	bx	lr

0001c54c <__tz_unlock>:
   1c54c:	e12fff1e 	bx	lr

0001c550 <div>:
   1c550:	e92d40f8 	push	{r3, r4, r5, r6, r7, lr}
   1c554:	e1a05001 	mov	r5, r1
   1c558:	e1a04000 	mov	r4, r0
   1c55c:	e1a01002 	mov	r1, r2
   1c560:	e1a00005 	mov	r0, r5
   1c564:	e1a06002 	mov	r6, r2
   1c568:	eb000287 	bl	1cf8c <__aeabi_idiv>
   1c56c:	e1a01006 	mov	r1, r6
   1c570:	e1a07000 	mov	r7, r0
   1c574:	e1a00005 	mov	r0, r5
   1c578:	eb00030b 	bl	1d1ac <__aeabi_idivmod>
   1c57c:	e3550000 	cmp	r5, #0
   1c580:	ba000006 	blt	1c5a0 <div+0x50>
   1c584:	e3510000 	cmp	r1, #0
   1c588:	b2877001 	addlt	r7, r7, #1
   1c58c:	b0661001 	rsblt	r1, r6, r1
   1c590:	e5847000 	str	r7, [r4]
   1c594:	e5841004 	str	r1, [r4, #4]
   1c598:	e1a00004 	mov	r0, r4
   1c59c:	e8bd80f8 	pop	{r3, r4, r5, r6, r7, pc}
   1c5a0:	e3510000 	cmp	r1, #0
   1c5a4:	c2477001 	subgt	r7, r7, #1
   1c5a8:	c0811006 	addgt	r1, r1, r6
   1c5ac:	eafffff7 	b	1c590 <div+0x40>

0001c5b0 <_malloc_trim_r>:
   1c5b0:	e92d40f8 	push	{r3, r4, r5, r6, r7, lr}
   1c5b4:	e1a04001 	mov	r4, r1
   1c5b8:	e59f70dc 	ldr	r7, [pc, #220]	; 1c69c <_malloc_trim_r+0xec>
   1c5bc:	e1a05000 	mov	r5, r0
   1c5c0:	ebffff43 	bl	1c2d4 <__malloc_lock>
   1c5c4:	e5973008 	ldr	r3, [r7, #8]
   1c5c8:	e5936004 	ldr	r6, [r3, #4]
   1c5cc:	e3c66003 	bic	r6, r6, #3
   1c5d0:	e0644006 	rsb	r4, r4, r6
   1c5d4:	e2844efe 	add	r4, r4, #4064	; 0xfe0
   1c5d8:	e284400f 	add	r4, r4, #15
   1c5dc:	e1a04624 	lsr	r4, r4, #12
   1c5e0:	e2444001 	sub	r4, r4, #1
   1c5e4:	e1a04604 	lsl	r4, r4, #12
   1c5e8:	e3540a01 	cmp	r4, #4096	; 0x1000
   1c5ec:	ba000006 	blt	1c60c <_malloc_trim_r+0x5c>
   1c5f0:	e1a00005 	mov	r0, r5
   1c5f4:	e3a01000 	mov	r1, #0
   1c5f8:	ebffff37 	bl	1c2dc <_sbrk_r>
   1c5fc:	e5973008 	ldr	r3, [r7, #8]
   1c600:	e0833006 	add	r3, r3, r6
   1c604:	e1500003 	cmp	r0, r3
   1c608:	0a000003 	beq	1c61c <_malloc_trim_r+0x6c>
   1c60c:	e1a00005 	mov	r0, r5
   1c610:	ebffff30 	bl	1c2d8 <__malloc_unlock>
   1c614:	e3a00000 	mov	r0, #0
   1c618:	e8bd80f8 	pop	{r3, r4, r5, r6, r7, pc}
   1c61c:	e1a00005 	mov	r0, r5
   1c620:	e2641000 	rsb	r1, r4, #0
   1c624:	ebffff2c 	bl	1c2dc <_sbrk_r>
   1c628:	e3700001 	cmn	r0, #1
   1c62c:	0a00000b 	beq	1c660 <_malloc_trim_r+0xb0>
   1c630:	e59f2068 	ldr	r2, [pc, #104]	; 1c6a0 <_malloc_trim_r+0xf0>
   1c634:	e5971008 	ldr	r1, [r7, #8]
   1c638:	e5923000 	ldr	r3, [r2]
   1c63c:	e0646006 	rsb	r6, r4, r6
   1c640:	e3866001 	orr	r6, r6, #1
   1c644:	e1a00005 	mov	r0, r5
   1c648:	e0644003 	rsb	r4, r4, r3
   1c64c:	e5816004 	str	r6, [r1, #4]
   1c650:	e5824000 	str	r4, [r2]
   1c654:	ebffff1f 	bl	1c2d8 <__malloc_unlock>
   1c658:	e3a00001 	mov	r0, #1
   1c65c:	e8bd80f8 	pop	{r3, r4, r5, r6, r7, pc}
   1c660:	e1a00005 	mov	r0, r5
   1c664:	e3a01000 	mov	r1, #0
   1c668:	ebffff1b 	bl	1c2dc <_sbrk_r>
   1c66c:	e5972008 	ldr	r2, [r7, #8]
   1c670:	e0623000 	rsb	r3, r2, r0
   1c674:	e353000f 	cmp	r3, #15
   1c678:	daffffe3 	ble	1c60c <_malloc_trim_r+0x5c>
   1c67c:	e59fc020 	ldr	ip, [pc, #32]	; 1c6a4 <_malloc_trim_r+0xf4>
   1c680:	e59f1018 	ldr	r1, [pc, #24]	; 1c6a0 <_malloc_trim_r+0xf0>
   1c684:	e59cc000 	ldr	ip, [ip]
   1c688:	e3833001 	orr	r3, r3, #1
   1c68c:	e06c0000 	rsb	r0, ip, r0
   1c690:	e5823004 	str	r3, [r2, #4]
   1c694:	e5810000 	str	r0, [r1]
   1c698:	eaffffdb 	b	1c60c <_malloc_trim_r+0x5c>
   1c69c:	0001f200 	andeq	pc, r1, r0, lsl #4
   1c6a0:	00021c6c 	andeq	r1, r2, ip, ror #24
   1c6a4:	0001f608 	andeq	pc, r1, r8, lsl #12

0001c6a8 <_free_r>:
   1c6a8:	e3510000 	cmp	r1, #0
   1c6ac:	012fff1e 	bxeq	lr
   1c6b0:	e92d4070 	push	{r4, r5, r6, lr}
   1c6b4:	e1a04001 	mov	r4, r1
   1c6b8:	e1a05000 	mov	r5, r0
   1c6bc:	ebffff04 	bl	1c2d4 <__malloc_lock>
   1c6c0:	e5141004 	ldr	r1, [r4, #-4]
   1c6c4:	e59f027c 	ldr	r0, [pc, #636]	; 1c948 <_free_r+0x2a0>
   1c6c8:	e3c12001 	bic	r2, r1, #1
   1c6cc:	e244c008 	sub	ip, r4, #8
   1c6d0:	e08ce002 	add	lr, ip, r2
   1c6d4:	e5906008 	ldr	r6, [r0, #8]
   1c6d8:	e59e3004 	ldr	r3, [lr, #4]
   1c6dc:	e156000e 	cmp	r6, lr
   1c6e0:	e3c33003 	bic	r3, r3, #3
   1c6e4:	0a00004a 	beq	1c814 <_free_r+0x16c>
   1c6e8:	e3110001 	tst	r1, #1
   1c6ec:	e58e3004 	str	r3, [lr, #4]
   1c6f0:	1a000009 	bne	1c71c <_free_r+0x74>
   1c6f4:	e5144008 	ldr	r4, [r4, #-8]
   1c6f8:	e2806008 	add	r6, r0, #8
   1c6fc:	e064c00c 	rsb	ip, r4, ip
   1c700:	e59c1008 	ldr	r1, [ip, #8]
   1c704:	e0822004 	add	r2, r2, r4
   1c708:	e1510006 	cmp	r1, r6
   1c70c:	0a000056 	beq	1c86c <_free_r+0x1c4>
   1c710:	e59c400c 	ldr	r4, [ip, #12]
   1c714:	e581400c 	str	r4, [r1, #12]
   1c718:	e5841008 	str	r1, [r4, #8]
   1c71c:	e08e1003 	add	r1, lr, r3
   1c720:	e5911004 	ldr	r1, [r1, #4]
   1c724:	e3110001 	tst	r1, #1
   1c728:	1a00000b 	bne	1c75c <_free_r+0xb4>
   1c72c:	e59f4218 	ldr	r4, [pc, #536]	; 1c94c <_free_r+0x2a4>
   1c730:	e59e1008 	ldr	r1, [lr, #8]
   1c734:	e0822003 	add	r2, r2, r3
   1c738:	e1510004 	cmp	r1, r4
   1c73c:	0a00006c 	beq	1c8f4 <_free_r+0x24c>
   1c740:	e59ee00c 	ldr	lr, [lr, #12]
   1c744:	e3823001 	orr	r3, r2, #1
   1c748:	e581e00c 	str	lr, [r1, #12]
   1c74c:	e58e1008 	str	r1, [lr, #8]
   1c750:	e58c3004 	str	r3, [ip, #4]
   1c754:	e78c2002 	str	r2, [ip, r2]
   1c758:	ea000002 	b	1c768 <_free_r+0xc0>
   1c75c:	e3823001 	orr	r3, r2, #1
   1c760:	e58c3004 	str	r3, [ip, #4]
   1c764:	e78c2002 	str	r2, [ip, r2]
   1c768:	e3520c02 	cmp	r2, #512	; 0x200
   1c76c:	2a00000e 	bcs	1c7ac <_free_r+0x104>
   1c770:	e3a04001 	mov	r4, #1
   1c774:	e1a021a2 	lsr	r2, r2, #3
   1c778:	e0803182 	add	r3, r0, r2, lsl #3
   1c77c:	e5901004 	ldr	r1, [r0, #4]
   1c780:	e593e008 	ldr	lr, [r3, #8]
   1c784:	e1a02142 	asr	r2, r2, #2
   1c788:	e1812214 	orr	r2, r1, r4, lsl r2
   1c78c:	e58ce008 	str	lr, [ip, #8]
   1c790:	e58c300c 	str	r3, [ip, #12]
   1c794:	e5802004 	str	r2, [r0, #4]
   1c798:	e583c008 	str	ip, [r3, #8]
   1c79c:	e58ec00c 	str	ip, [lr, #12]
   1c7a0:	e1a00005 	mov	r0, r5
   1c7a4:	e8bd4070 	pop	{r4, r5, r6, lr}
   1c7a8:	eafffeca 	b	1c2d8 <__malloc_unlock>
   1c7ac:	e1a034a2 	lsr	r3, r2, #9
   1c7b0:	e3530004 	cmp	r3, #4
   1c7b4:	8a00003d 	bhi	1c8b0 <_free_r+0x208>
   1c7b8:	e1a03322 	lsr	r3, r2, #6
   1c7bc:	e2831038 	add	r1, r3, #56	; 0x38
   1c7c0:	e1a03081 	lsl	r3, r1, #1
   1c7c4:	e0800103 	add	r0, r0, r3, lsl #2
   1c7c8:	e5903008 	ldr	r3, [r0, #8]
   1c7cc:	e59fe174 	ldr	lr, [pc, #372]	; 1c948 <_free_r+0x2a0>
   1c7d0:	e1530000 	cmp	r3, r0
   1c7d4:	0a00003f 	beq	1c8d8 <_free_r+0x230>
   1c7d8:	e5931004 	ldr	r1, [r3, #4]
   1c7dc:	e3c11003 	bic	r1, r1, #3
   1c7e0:	e1510002 	cmp	r1, r2
   1c7e4:	9a000002 	bls	1c7f4 <_free_r+0x14c>
   1c7e8:	e5933008 	ldr	r3, [r3, #8]
   1c7ec:	e1500003 	cmp	r0, r3
   1c7f0:	1afffff8 	bne	1c7d8 <_free_r+0x130>
   1c7f4:	e593200c 	ldr	r2, [r3, #12]
   1c7f8:	e58c200c 	str	r2, [ip, #12]
   1c7fc:	e58c3008 	str	r3, [ip, #8]
   1c800:	e1a00005 	mov	r0, r5
   1c804:	e8bd4070 	pop	{r4, r5, r6, lr}
   1c808:	e582c008 	str	ip, [r2, #8]
   1c80c:	e583c00c 	str	ip, [r3, #12]
   1c810:	eafffeb0 	b	1c2d8 <__malloc_unlock>
   1c814:	e3110001 	tst	r1, #1
   1c818:	e0832002 	add	r2, r3, r2
   1c81c:	1a000006 	bne	1c83c <_free_r+0x194>
   1c820:	e514e008 	ldr	lr, [r4, #-8]
   1c824:	e06ec00c 	rsb	ip, lr, ip
   1c828:	e59c300c 	ldr	r3, [ip, #12]
   1c82c:	e59c1008 	ldr	r1, [ip, #8]
   1c830:	e082200e 	add	r2, r2, lr
   1c834:	e581300c 	str	r3, [r1, #12]
   1c838:	e5831008 	str	r1, [r3, #8]
   1c83c:	e59f310c 	ldr	r3, [pc, #268]	; 1c950 <_free_r+0x2a8>
   1c840:	e3821001 	orr	r1, r2, #1
   1c844:	e5933000 	ldr	r3, [r3]
   1c848:	e58c1004 	str	r1, [ip, #4]
   1c84c:	e1520003 	cmp	r2, r3
   1c850:	e580c008 	str	ip, [r0, #8]
   1c854:	3affffd1 	bcc	1c7a0 <_free_r+0xf8>
   1c858:	e59f30f4 	ldr	r3, [pc, #244]	; 1c954 <_free_r+0x2ac>
   1c85c:	e1a00005 	mov	r0, r5
   1c860:	e5931000 	ldr	r1, [r3]
   1c864:	ebffff51 	bl	1c5b0 <_malloc_trim_r>
   1c868:	eaffffcc 	b	1c7a0 <_free_r+0xf8>
   1c86c:	e08e1003 	add	r1, lr, r3
   1c870:	e5911004 	ldr	r1, [r1, #4]
   1c874:	e3110001 	tst	r1, #1
   1c878:	1a000008 	bne	1c8a0 <_free_r+0x1f8>
   1c87c:	e59e1008 	ldr	r1, [lr, #8]
   1c880:	e0823003 	add	r3, r2, r3
   1c884:	e59e200c 	ldr	r2, [lr, #12]
   1c888:	e3830001 	orr	r0, r3, #1
   1c88c:	e581200c 	str	r2, [r1, #12]
   1c890:	e5821008 	str	r1, [r2, #8]
   1c894:	e58c0004 	str	r0, [ip, #4]
   1c898:	e78c3003 	str	r3, [ip, r3]
   1c89c:	eaffffbf 	b	1c7a0 <_free_r+0xf8>
   1c8a0:	e3823001 	orr	r3, r2, #1
   1c8a4:	e58c3004 	str	r3, [ip, #4]
   1c8a8:	e78c2002 	str	r2, [ip, r2]
   1c8ac:	eaffffbb 	b	1c7a0 <_free_r+0xf8>
   1c8b0:	e3530014 	cmp	r3, #20
   1c8b4:	9283105b 	addls	r1, r3, #91	; 0x5b
   1c8b8:	91a03081 	lslls	r3, r1, #1
   1c8bc:	9affffc0 	bls	1c7c4 <_free_r+0x11c>
   1c8c0:	e3530054 	cmp	r3, #84	; 0x54
   1c8c4:	8a000012 	bhi	1c914 <_free_r+0x26c>
   1c8c8:	e1a03622 	lsr	r3, r2, #12
   1c8cc:	e283106e 	add	r1, r3, #110	; 0x6e
   1c8d0:	e1a03081 	lsl	r3, r1, #1
   1c8d4:	eaffffba 	b	1c7c4 <_free_r+0x11c>
   1c8d8:	e3a00001 	mov	r0, #1
   1c8dc:	e59e2004 	ldr	r2, [lr, #4]
   1c8e0:	e1a01141 	asr	r1, r1, #2
   1c8e4:	e1821110 	orr	r1, r2, r0, lsl r1
   1c8e8:	e58e1004 	str	r1, [lr, #4]
   1c8ec:	e1a02003 	mov	r2, r3
   1c8f0:	eaffffc0 	b	1c7f8 <_free_r+0x150>
   1c8f4:	e3823001 	orr	r3, r2, #1
   1c8f8:	e580c014 	str	ip, [r0, #20]
   1c8fc:	e580c010 	str	ip, [r0, #16]
   1c900:	e58c100c 	str	r1, [ip, #12]
   1c904:	e58c1008 	str	r1, [ip, #8]
   1c908:	e58c3004 	str	r3, [ip, #4]
   1c90c:	e78c2002 	str	r2, [ip, r2]
   1c910:	eaffffa2 	b	1c7a0 <_free_r+0xf8>
   1c914:	e3530f55 	cmp	r3, #340	; 0x154
   1c918:	91a037a2 	lsrls	r3, r2, #15
   1c91c:	92831077 	addls	r1, r3, #119	; 0x77
   1c920:	91a03081 	lslls	r3, r1, #1
   1c924:	9affffa6 	bls	1c7c4 <_free_r+0x11c>
   1c928:	e59f1028 	ldr	r1, [pc, #40]	; 1c958 <_free_r+0x2b0>
   1c92c:	e1530001 	cmp	r3, r1
   1c930:	91a03922 	lsrls	r3, r2, #18
   1c934:	9283107c 	addls	r1, r3, #124	; 0x7c
   1c938:	91a03081 	lslls	r3, r1, #1
   1c93c:	83a030fc 	movhi	r3, #252	; 0xfc
   1c940:	83a0107e 	movhi	r1, #126	; 0x7e
   1c944:	eaffff9e 	b	1c7c4 <_free_r+0x11c>
   1c948:	0001f200 	andeq	pc, r1, r0, lsl #4
   1c94c:	0001f208 	andeq	pc, r1, r8, lsl #4
   1c950:	0001f60c 	andeq	pc, r1, ip, lsl #12
   1c954:	00021c68 	andeq	r1, r2, r8, ror #24
   1c958:	00000554 	andeq	r0, r0, r4, asr r5

0001c95c <__gettzinfo>:
   1c95c:	e59f0000 	ldr	r0, [pc]	; 1c964 <__gettzinfo+0x8>
   1c960:	e12fff1e 	bx	lr
   1c964:	0001f618 	andeq	pc, r1, r8, lsl r6	; <UNPREDICTABLE>

0001c968 <gmtime_r>:
   1c968:	e92d4070 	push	{r4, r5, r6, lr}
   1c96c:	e3a0eee1 	mov	lr, #3600	; 0xe10
   1c970:	e590c000 	ldr	ip, [r0]
   1c974:	e59f21d8 	ldr	r2, [pc, #472]	; 1cb54 <gmtime_r+0x1ec>
   1c978:	e1a03fcc 	asr	r3, ip, #31
   1c97c:	e0c20c92 	smull	r0, r2, r2, ip
   1c980:	e59f01d0 	ldr	r0, [pc, #464]	; 1cb58 <gmtime_r+0x1f0>
   1c984:	e082200c 	add	r2, r2, ip
   1c988:	e0632842 	rsb	r2, r3, r2, asr #16
   1c98c:	e0000290 	mul	r0, r0, r2
   1c990:	e05c0000 	subs	r0, ip, r0
   1c994:	42800a15 	addmi	r0, r0, #86016	; 0x15000
   1c998:	e59f31bc 	ldr	r3, [pc, #444]	; 1cb5c <gmtime_r+0x1f4>
   1c99c:	42800d06 	addmi	r0, r0, #384	; 0x180
   1c9a0:	e0c3c093 	smull	ip, r3, r3, r0
   1c9a4:	e1a05fc0 	asr	r5, r0, #31
   1c9a8:	e0833000 	add	r3, r3, r0
   1c9ac:	e06555c3 	rsb	r5, r5, r3, asr #11
   1c9b0:	e00e059e 	mul	lr, lr, r5
   1c9b4:	52422c2b 	subpl	r2, r2, #11008	; 0x2b00
   1c9b8:	42422c2b 	submi	r2, r2, #11008	; 0x2b00
   1c9bc:	52422009 	subpl	r2, r2, #9
   1c9c0:	4242200a 	submi	r2, r2, #10
   1c9c4:	e59f3194 	ldr	r3, [pc, #404]	; 1cb60 <gmtime_r+0x1f8>
   1c9c8:	e06e0000 	rsb	r0, lr, r0
   1c9cc:	e59fc190 	ldr	ip, [pc, #400]	; 1cb64 <gmtime_r+0x1fc>
   1c9d0:	e282e003 	add	lr, r2, #3
   1c9d4:	e0c34e93 	smull	r4, r3, r3, lr
   1c9d8:	e0cc409c 	smull	r4, ip, ip, r0
   1c9dc:	e083400e 	add	r4, r3, lr
   1c9e0:	e1a03fce 	asr	r3, lr, #31
   1c9e4:	e08c6000 	add	r6, ip, r0
   1c9e8:	e0633144 	rsb	r3, r3, r4, asr #2
   1c9ec:	e1a0cfc0 	asr	ip, r0, #31
   1c9f0:	e06cc2c6 	rsb	ip, ip, r6, asr #5
   1c9f4:	e0633183 	rsb	r3, r3, r3, lsl #3
   1c9f8:	e05e3003 	subs	r3, lr, r3
   1c9fc:	e06c420c 	rsb	r4, ip, ip, lsl #4
   1ca00:	e0400104 	sub	r0, r0, r4, lsl #2
   1ca04:	42833007 	addmi	r3, r3, #7
   1ca08:	e3520000 	cmp	r2, #0
   1ca0c:	e8811001 	stm	r1, {r0, ip}
   1ca10:	a3a00000 	movge	r0, #0
   1ca14:	b2822b8e 	addlt	r2, r2, #145408	; 0x23800
   1ca18:	b2822e2b 	addlt	r2, r2, #688	; 0x2b0
   1ca1c:	b59f0144 	ldrlt	r0, [pc, #324]	; 1cb68 <gmtime_r+0x200>
   1ca20:	b2822001 	addlt	r2, r2, #1
   1ca24:	e59fe140 	ldr	lr, [pc, #320]	; 1cb6c <gmtime_r+0x204>
   1ca28:	e0822000 	add	r2, r2, r0
   1ca2c:	a1a04000 	movge	r4, r0
   1ca30:	e0c0c29e 	smull	ip, r0, lr, r2
   1ca34:	e1a0efc2 	asr	lr, r2, #31
   1ca38:	e59fc130 	ldr	ip, [pc, #304]	; 1cb70 <gmtime_r+0x208>
   1ca3c:	e06ee3c0 	rsb	lr, lr, r0, asr #7
   1ca40:	e0222e9c 	mla	r2, ip, lr, r2
   1ca44:	e59fc128 	ldr	ip, [pc, #296]	; 1cb74 <gmtime_r+0x20c>
   1ca48:	e5815008 	str	r5, [r1, #8]
   1ca4c:	e0cc529c 	smull	r5, ip, ip, r2
   1ca50:	e1a00fc2 	asr	r0, r2, #31
   1ca54:	e08cc002 	add	ip, ip, r2
   1ca58:	e060c44c 	rsb	ip, r0, ip, asr #8
   1ca5c:	e5813018 	str	r3, [r1, #24]
   1ca60:	b3a04003 	movlt	r4, #3
   1ca64:	b59f310c 	ldrlt	r3, [pc, #268]	; 1cb78 <gmtime_r+0x210>
   1ca68:	a3a03e7d 	movge	r3, #2000	; 0x7d0
   1ca6c:	e35c0004 	cmp	ip, #4
   1ca70:	0a00002f 	beq	1cb34 <gmtime_r+0x1cc>
   1ca74:	e3e00f5b 	mvn	r0, #364	; 0x16c
   1ca78:	e083310e 	add	r3, r3, lr, lsl #2
   1ca7c:	e35c0000 	cmp	ip, #0
   1ca80:	e08c3003 	add	r3, ip, r3
   1ca84:	e0222c90 	mla	r2, r0, ip, r2
   1ca88:	1a000025 	bne	1cb24 <gmtime_r+0x1bc>
   1ca8c:	e16f4f14 	clz	r4, r4
   1ca90:	e1a042a4 	lsr	r4, r4, #5
   1ca94:	e35e0000 	cmp	lr, #0
   1ca98:	13844001 	orrne	r4, r4, #1
   1ca9c:	e2400001 	sub	r0, r0, #1
   1caa0:	e3540000 	cmp	r4, #0
   1caa4:	e59fe0d0 	ldr	lr, [pc, #208]	; 1cb7c <gmtime_r+0x214>
   1caa8:	11a0c000 	movne	ip, r0
   1caac:	03e0cf5b 	mvneq	ip, #364	; 0x16c
   1cab0:	03a0ef5b 	moveq	lr, #364	; 0x16c
   1cab4:	13a00001 	movne	r0, #1
   1cab8:	03a00000 	moveq	r0, #0
   1cabc:	e282403b 	add	r4, r2, #59	; 0x3b
   1cac0:	e0800004 	add	r0, r0, r4
   1cac4:	e150000e 	cmp	r0, lr
   1cac8:	c2833001 	addgt	r3, r3, #1
   1cacc:	e2433e76 	sub	r3, r3, #1888	; 0x760
   1cad0:	e243300c 	sub	r3, r3, #12
   1cad4:	c080000c 	addgt	r0, r0, ip
   1cad8:	e5813014 	str	r3, [r1, #20]
   1cadc:	e581001c 	str	r0, [r1, #28]
   1cae0:	e3a03002 	mov	r3, #2
   1cae4:	e59fe094 	ldr	lr, [pc, #148]	; 1cb80 <gmtime_r+0x218>
   1cae8:	ea000003 	b	1cafc <gmtime_r+0x194>
   1caec:	e2833001 	add	r3, r3, #1
   1caf0:	e353000b 	cmp	r3, #11
   1caf4:	c3a03000 	movgt	r3, #0
   1caf8:	e06c2002 	rsb	r2, ip, r2
   1cafc:	e79ec103 	ldr	ip, [lr, r3, lsl #2]
   1cb00:	e152000c 	cmp	r2, ip
   1cb04:	aafffff8 	bge	1caec <gmtime_r+0x184>
   1cb08:	e3a00000 	mov	r0, #0
   1cb0c:	e2822001 	add	r2, r2, #1
   1cb10:	e5810020 	str	r0, [r1, #32]
   1cb14:	e581200c 	str	r2, [r1, #12]
   1cb18:	e5813010 	str	r3, [r1, #16]
   1cb1c:	e1a00001 	mov	r0, r1
   1cb20:	e8bd8070 	pop	{r4, r5, r6, pc}
   1cb24:	e1a0c000 	mov	ip, r0
   1cb28:	e3a0ef5b 	mov	lr, #364	; 0x16c
   1cb2c:	e3a00000 	mov	r0, #0
   1cb30:	eaffffe1 	b	1cabc <gmtime_r+0x154>
   1cb34:	e083310e 	add	r3, r3, lr, lsl #2
   1cb38:	e2422d11 	sub	r2, r2, #1088	; 0x440
   1cb3c:	e2422007 	sub	r2, r2, #7
   1cb40:	e2833003 	add	r3, r3, #3
   1cb44:	e3e0cf5b 	mvn	ip, #364	; 0x16c
   1cb48:	e3a0ef5b 	mov	lr, #364	; 0x16c
   1cb4c:	e3a00000 	mov	r0, #0
   1cb50:	eaffffd9 	b	1cabc <gmtime_r+0x154>
   1cb54:	c22e4507 	eorgt	r4, lr, #29360128	; 0x1c00000
   1cb58:	00015180 	andeq	r5, r1, r0, lsl #3
   1cb5c:	91a2b3c5 			; <UNDEFINED> instruction: 0x91a2b3c5
   1cb60:	92492493 	subls	r2, r9, #-1828716544	; 0x93000000
   1cb64:	88888889 	stmhi	r8, {r0, r3, r7, fp, pc}
   1cb68:	fffe53fc 			; <UNDEFINED> instruction: 0xfffe53fc
   1cb6c:	166db073 			; <UNDEFINED> instruction: 0x166db073
   1cb70:	fffffa4b 			; <UNDEFINED> instruction: 0xfffffa4b
   1cb74:	b38cf9b1 	orrlt	pc, ip, #2899968	; 0x2c4000
   1cb78:	0000076c 	andeq	r0, r0, ip, ror #14
   1cb7c:	0000016d 	andeq	r0, r0, sp, ror #2
   1cb80:	0001e2fc 	strdeq	lr, [r1], -ip

0001cb84 <cleanup_glue>:
   1cb84:	e92d4ff0 	push	{r4, r5, r6, r7, r8, r9, sl, fp, lr}
   1cb88:	e5915000 	ldr	r5, [r1]
   1cb8c:	e24dd00c 	sub	sp, sp, #12
   1cb90:	e3550000 	cmp	r5, #0
   1cb94:	e1a06001 	mov	r6, r1
   1cb98:	e1a04000 	mov	r4, r0
   1cb9c:	0a000036 	beq	1cc7c <cleanup_glue+0xf8>
   1cba0:	e5957000 	ldr	r7, [r5]
   1cba4:	e3570000 	cmp	r7, #0
   1cba8:	0a000030 	beq	1cc70 <cleanup_glue+0xec>
   1cbac:	e5978000 	ldr	r8, [r7]
   1cbb0:	e3580000 	cmp	r8, #0
   1cbb4:	0a00002a 	beq	1cc64 <cleanup_glue+0xe0>
   1cbb8:	e5989000 	ldr	r9, [r8]
   1cbbc:	e3590000 	cmp	r9, #0
   1cbc0:	0a000024 	beq	1cc58 <cleanup_glue+0xd4>
   1cbc4:	e599a000 	ldr	sl, [r9]
   1cbc8:	e35a0000 	cmp	sl, #0
   1cbcc:	0a00001e 	beq	1cc4c <cleanup_glue+0xc8>
   1cbd0:	e59ab000 	ldr	fp, [sl]
   1cbd4:	e35b0000 	cmp	fp, #0
   1cbd8:	0a000018 	beq	1cc40 <cleanup_glue+0xbc>
   1cbdc:	e59b3000 	ldr	r3, [fp]
   1cbe0:	e3530000 	cmp	r3, #0
   1cbe4:	0a000012 	beq	1cc34 <cleanup_glue+0xb0>
   1cbe8:	e5932000 	ldr	r2, [r3]
   1cbec:	e3520000 	cmp	r2, #0
   1cbf0:	0a00000c 	beq	1cc28 <cleanup_glue+0xa4>
   1cbf4:	e5921000 	ldr	r1, [r2]
   1cbf8:	e3510000 	cmp	r1, #0
   1cbfc:	0a000004 	beq	1cc14 <cleanup_glue+0x90>
   1cc00:	e58d2004 	str	r2, [sp, #4]
   1cc04:	e58d3000 	str	r3, [sp]
   1cc08:	ebffffdd 	bl	1cb84 <cleanup_glue>
   1cc0c:	e59d2004 	ldr	r2, [sp, #4]
   1cc10:	e59d3000 	ldr	r3, [sp]
   1cc14:	e1a01002 	mov	r1, r2
   1cc18:	e1a00004 	mov	r0, r4
   1cc1c:	e58d3000 	str	r3, [sp]
   1cc20:	ebfffea0 	bl	1c6a8 <_free_r>
   1cc24:	e59d3000 	ldr	r3, [sp]
   1cc28:	e1a01003 	mov	r1, r3
   1cc2c:	e1a00004 	mov	r0, r4
   1cc30:	ebfffe9c 	bl	1c6a8 <_free_r>
   1cc34:	e1a0100b 	mov	r1, fp
   1cc38:	e1a00004 	mov	r0, r4
   1cc3c:	ebfffe99 	bl	1c6a8 <_free_r>
   1cc40:	e1a0100a 	mov	r1, sl
   1cc44:	e1a00004 	mov	r0, r4
   1cc48:	ebfffe96 	bl	1c6a8 <_free_r>
   1cc4c:	e1a01009 	mov	r1, r9
   1cc50:	e1a00004 	mov	r0, r4
   1cc54:	ebfffe93 	bl	1c6a8 <_free_r>
   1cc58:	e1a01008 	mov	r1, r8
   1cc5c:	e1a00004 	mov	r0, r4
   1cc60:	ebfffe90 	bl	1c6a8 <_free_r>
   1cc64:	e1a01007 	mov	r1, r7
   1cc68:	e1a00004 	mov	r0, r4
   1cc6c:	ebfffe8d 	bl	1c6a8 <_free_r>
   1cc70:	e1a01005 	mov	r1, r5
   1cc74:	e1a00004 	mov	r0, r4
   1cc78:	ebfffe8a 	bl	1c6a8 <_free_r>
   1cc7c:	e1a00004 	mov	r0, r4
   1cc80:	e1a01006 	mov	r1, r6
   1cc84:	e28dd00c 	add	sp, sp, #12
   1cc88:	e8bd4ff0 	pop	{r4, r5, r6, r7, r8, r9, sl, fp, lr}
   1cc8c:	eafffe85 	b	1c6a8 <_free_r>

0001cc90 <_reclaim_reent>:
   1cc90:	e59f30e4 	ldr	r3, [pc, #228]	; 1cd7c <_reclaim_reent+0xec>
   1cc94:	e5933000 	ldr	r3, [r3]
   1cc98:	e1500003 	cmp	r0, r3
   1cc9c:	012fff1e 	bxeq	lr
   1cca0:	e590304c 	ldr	r3, [r0, #76]	; 0x4c
   1cca4:	e92d4070 	push	{r4, r5, r6, lr}
   1cca8:	e3530000 	cmp	r3, #0
   1ccac:	e1a05000 	mov	r5, r0
   1ccb0:	0a00000f 	beq	1ccf4 <_reclaim_reent+0x64>
   1ccb4:	e3a06000 	mov	r6, #0
   1ccb8:	e7931006 	ldr	r1, [r3, r6]
   1ccbc:	e3510000 	cmp	r1, #0
   1ccc0:	0a000005 	beq	1ccdc <_reclaim_reent+0x4c>
   1ccc4:	e5914000 	ldr	r4, [r1]
   1ccc8:	e1a00005 	mov	r0, r5
   1cccc:	ebfffe75 	bl	1c6a8 <_free_r>
   1ccd0:	e2541000 	subs	r1, r4, #0
   1ccd4:	1afffffa 	bne	1ccc4 <_reclaim_reent+0x34>
   1ccd8:	e595304c 	ldr	r3, [r5, #76]	; 0x4c
   1ccdc:	e2866004 	add	r6, r6, #4
   1cce0:	e3560080 	cmp	r6, #128	; 0x80
   1cce4:	1afffff3 	bne	1ccb8 <_reclaim_reent+0x28>
   1cce8:	e1a01003 	mov	r1, r3
   1ccec:	e1a00005 	mov	r0, r5
   1ccf0:	ebfffe6c 	bl	1c6a8 <_free_r>
   1ccf4:	e5951040 	ldr	r1, [r5, #64]	; 0x40
   1ccf8:	e3510000 	cmp	r1, #0
   1ccfc:	0a000001 	beq	1cd08 <_reclaim_reent+0x78>
   1cd00:	e1a00005 	mov	r0, r5
   1cd04:	ebfffe67 	bl	1c6a8 <_free_r>
   1cd08:	e5951148 	ldr	r1, [r5, #328]	; 0x148
   1cd0c:	e3510000 	cmp	r1, #0
   1cd10:	0a000008 	beq	1cd38 <_reclaim_reent+0xa8>
   1cd14:	e2856f53 	add	r6, r5, #332	; 0x14c
   1cd18:	e1510006 	cmp	r1, r6
   1cd1c:	0a000005 	beq	1cd38 <_reclaim_reent+0xa8>
   1cd20:	e5914000 	ldr	r4, [r1]
   1cd24:	e1a00005 	mov	r0, r5
   1cd28:	ebfffe5e 	bl	1c6a8 <_free_r>
   1cd2c:	e1560004 	cmp	r6, r4
   1cd30:	e1a01004 	mov	r1, r4
   1cd34:	1afffff9 	bne	1cd20 <_reclaim_reent+0x90>
   1cd38:	e5951054 	ldr	r1, [r5, #84]	; 0x54
   1cd3c:	e3510000 	cmp	r1, #0
   1cd40:	0a000001 	beq	1cd4c <_reclaim_reent+0xbc>
   1cd44:	e1a00005 	mov	r0, r5
   1cd48:	ebfffe56 	bl	1c6a8 <_free_r>
   1cd4c:	e5953038 	ldr	r3, [r5, #56]	; 0x38
   1cd50:	e3530000 	cmp	r3, #0
   1cd54:	08bd8070 	popeq	{r4, r5, r6, pc}
   1cd58:	e595303c 	ldr	r3, [r5, #60]	; 0x3c
   1cd5c:	e1a00005 	mov	r0, r5
   1cd60:	e12fff33 	blx	r3
   1cd64:	e59512e0 	ldr	r1, [r5, #736]	; 0x2e0
   1cd68:	e3510000 	cmp	r1, #0
   1cd6c:	08bd8070 	popeq	{r4, r5, r6, pc}
   1cd70:	e1a00005 	mov	r0, r5
   1cd74:	e8bd4070 	pop	{r4, r5, r6, lr}
   1cd78:	eaffff81 	b	1cb84 <cleanup_glue>
   1cd7c:	0001edd0 	ldrdeq	lr, [r1], -r0

0001cd80 <__aeabi_uidiv>:
   1cd80:	e2512001 	subs	r2, r1, #1
   1cd84:	012fff1e 	bxeq	lr
   1cd88:	3a000074 	bcc	1cf60 <__aeabi_uidiv+0x1e0>
   1cd8c:	e1500001 	cmp	r0, r1
   1cd90:	9a00006b 	bls	1cf44 <__aeabi_uidiv+0x1c4>
   1cd94:	e1110002 	tst	r1, r2
   1cd98:	0a00006c 	beq	1cf50 <__aeabi_uidiv+0x1d0>
   1cd9c:	e16f3f10 	clz	r3, r0
   1cda0:	e16f2f11 	clz	r2, r1
   1cda4:	e0423003 	sub	r3, r2, r3
   1cda8:	e273301f 	rsbs	r3, r3, #31
   1cdac:	10833083 	addne	r3, r3, r3, lsl #1
   1cdb0:	e3a02000 	mov	r2, #0
   1cdb4:	108ff103 	addne	pc, pc, r3, lsl #2
   1cdb8:	e320f000 	nop	{0}
   1cdbc:	e1500f81 	cmp	r0, r1, lsl #31
   1cdc0:	e0a22002 	adc	r2, r2, r2
   1cdc4:	20400f81 	subcs	r0, r0, r1, lsl #31
   1cdc8:	e1500f01 	cmp	r0, r1, lsl #30
   1cdcc:	e0a22002 	adc	r2, r2, r2
   1cdd0:	20400f01 	subcs	r0, r0, r1, lsl #30
   1cdd4:	e1500e81 	cmp	r0, r1, lsl #29
   1cdd8:	e0a22002 	adc	r2, r2, r2
   1cddc:	20400e81 	subcs	r0, r0, r1, lsl #29
   1cde0:	e1500e01 	cmp	r0, r1, lsl #28
   1cde4:	e0a22002 	adc	r2, r2, r2
   1cde8:	20400e01 	subcs	r0, r0, r1, lsl #28
   1cdec:	e1500d81 	cmp	r0, r1, lsl #27
   1cdf0:	e0a22002 	adc	r2, r2, r2
   1cdf4:	20400d81 	subcs	r0, r0, r1, lsl #27
   1cdf8:	e1500d01 	cmp	r0, r1, lsl #26
   1cdfc:	e0a22002 	adc	r2, r2, r2
   1ce00:	20400d01 	subcs	r0, r0, r1, lsl #26
   1ce04:	e1500c81 	cmp	r0, r1, lsl #25
   1ce08:	e0a22002 	adc	r2, r2, r2
   1ce0c:	20400c81 	subcs	r0, r0, r1, lsl #25
   1ce10:	e1500c01 	cmp	r0, r1, lsl #24
   1ce14:	e0a22002 	adc	r2, r2, r2
   1ce18:	20400c01 	subcs	r0, r0, r1, lsl #24
   1ce1c:	e1500b81 	cmp	r0, r1, lsl #23
   1ce20:	e0a22002 	adc	r2, r2, r2
   1ce24:	20400b81 	subcs	r0, r0, r1, lsl #23
   1ce28:	e1500b01 	cmp	r0, r1, lsl #22
   1ce2c:	e0a22002 	adc	r2, r2, r2
   1ce30:	20400b01 	subcs	r0, r0, r1, lsl #22
   1ce34:	e1500a81 	cmp	r0, r1, lsl #21
   1ce38:	e0a22002 	adc	r2, r2, r2
   1ce3c:	20400a81 	subcs	r0, r0, r1, lsl #21
   1ce40:	e1500a01 	cmp	r0, r1, lsl #20
   1ce44:	e0a22002 	adc	r2, r2, r2
   1ce48:	20400a01 	subcs	r0, r0, r1, lsl #20
   1ce4c:	e1500981 	cmp	r0, r1, lsl #19
   1ce50:	e0a22002 	adc	r2, r2, r2
   1ce54:	20400981 	subcs	r0, r0, r1, lsl #19
   1ce58:	e1500901 	cmp	r0, r1, lsl #18
   1ce5c:	e0a22002 	adc	r2, r2, r2
   1ce60:	20400901 	subcs	r0, r0, r1, lsl #18
   1ce64:	e1500881 	cmp	r0, r1, lsl #17
   1ce68:	e0a22002 	adc	r2, r2, r2
   1ce6c:	20400881 	subcs	r0, r0, r1, lsl #17
   1ce70:	e1500801 	cmp	r0, r1, lsl #16
   1ce74:	e0a22002 	adc	r2, r2, r2
   1ce78:	20400801 	subcs	r0, r0, r1, lsl #16
   1ce7c:	e1500781 	cmp	r0, r1, lsl #15
   1ce80:	e0a22002 	adc	r2, r2, r2
   1ce84:	20400781 	subcs	r0, r0, r1, lsl #15
   1ce88:	e1500701 	cmp	r0, r1, lsl #14
   1ce8c:	e0a22002 	adc	r2, r2, r2
   1ce90:	20400701 	subcs	r0, r0, r1, lsl #14
   1ce94:	e1500681 	cmp	r0, r1, lsl #13
   1ce98:	e0a22002 	adc	r2, r2, r2
   1ce9c:	20400681 	subcs	r0, r0, r1, lsl #13
   1cea0:	e1500601 	cmp	r0, r1, lsl #12
   1cea4:	e0a22002 	adc	r2, r2, r2
   1cea8:	20400601 	subcs	r0, r0, r1, lsl #12
   1ceac:	e1500581 	cmp	r0, r1, lsl #11
   1ceb0:	e0a22002 	adc	r2, r2, r2
   1ceb4:	20400581 	subcs	r0, r0, r1, lsl #11
   1ceb8:	e1500501 	cmp	r0, r1, lsl #10
   1cebc:	e0a22002 	adc	r2, r2, r2
   1cec0:	20400501 	subcs	r0, r0, r1, lsl #10
   1cec4:	e1500481 	cmp	r0, r1, lsl #9
   1cec8:	e0a22002 	adc	r2, r2, r2
   1cecc:	20400481 	subcs	r0, r0, r1, lsl #9
   1ced0:	e1500401 	cmp	r0, r1, lsl #8
   1ced4:	e0a22002 	adc	r2, r2, r2
   1ced8:	20400401 	subcs	r0, r0, r1, lsl #8
   1cedc:	e1500381 	cmp	r0, r1, lsl #7
   1cee0:	e0a22002 	adc	r2, r2, r2
   1cee4:	20400381 	subcs	r0, r0, r1, lsl #7
   1cee8:	e1500301 	cmp	r0, r1, lsl #6
   1ceec:	e0a22002 	adc	r2, r2, r2
   1cef0:	20400301 	subcs	r0, r0, r1, lsl #6
   1cef4:	e1500281 	cmp	r0, r1, lsl #5
   1cef8:	e0a22002 	adc	r2, r2, r2
   1cefc:	20400281 	subcs	r0, r0, r1, lsl #5
   1cf00:	e1500201 	cmp	r0, r1, lsl #4
   1cf04:	e0a22002 	adc	r2, r2, r2
   1cf08:	20400201 	subcs	r0, r0, r1, lsl #4
   1cf0c:	e1500181 	cmp	r0, r1, lsl #3
   1cf10:	e0a22002 	adc	r2, r2, r2
   1cf14:	20400181 	subcs	r0, r0, r1, lsl #3
   1cf18:	e1500101 	cmp	r0, r1, lsl #2
   1cf1c:	e0a22002 	adc	r2, r2, r2
   1cf20:	20400101 	subcs	r0, r0, r1, lsl #2
   1cf24:	e1500081 	cmp	r0, r1, lsl #1
   1cf28:	e0a22002 	adc	r2, r2, r2
   1cf2c:	20400081 	subcs	r0, r0, r1, lsl #1
   1cf30:	e1500001 	cmp	r0, r1
   1cf34:	e0a22002 	adc	r2, r2, r2
   1cf38:	20400001 	subcs	r0, r0, r1
   1cf3c:	e1a00002 	mov	r0, r2
   1cf40:	e12fff1e 	bx	lr
   1cf44:	03a00001 	moveq	r0, #1
   1cf48:	13a00000 	movne	r0, #0
   1cf4c:	e12fff1e 	bx	lr
   1cf50:	e16f2f11 	clz	r2, r1
   1cf54:	e262201f 	rsb	r2, r2, #31
   1cf58:	e1a00230 	lsr	r0, r0, r2
   1cf5c:	e12fff1e 	bx	lr
   1cf60:	e3500000 	cmp	r0, #0
   1cf64:	13e00000 	mvnne	r0, #0
   1cf68:	ea000097 	b	1d1cc <__aeabi_idiv0>

0001cf6c <__aeabi_uidivmod>:
   1cf6c:	e3510000 	cmp	r1, #0
   1cf70:	0afffffa 	beq	1cf60 <__aeabi_uidiv+0x1e0>
   1cf74:	e92d4003 	push	{r0, r1, lr}
   1cf78:	ebffff80 	bl	1cd80 <__aeabi_uidiv>
   1cf7c:	e8bd4006 	pop	{r1, r2, lr}
   1cf80:	e0030092 	mul	r3, r2, r0
   1cf84:	e0411003 	sub	r1, r1, r3
   1cf88:	e12fff1e 	bx	lr

0001cf8c <__aeabi_idiv>:
   1cf8c:	e3510000 	cmp	r1, #0
   1cf90:	0a000081 	beq	1d19c <.divsi3_skip_div0_test+0x208>

0001cf94 <.divsi3_skip_div0_test>:
   1cf94:	e020c001 	eor	ip, r0, r1
   1cf98:	42611000 	rsbmi	r1, r1, #0
   1cf9c:	e2512001 	subs	r2, r1, #1
   1cfa0:	0a000070 	beq	1d168 <.divsi3_skip_div0_test+0x1d4>
   1cfa4:	e1b03000 	movs	r3, r0
   1cfa8:	42603000 	rsbmi	r3, r0, #0
   1cfac:	e1530001 	cmp	r3, r1
   1cfb0:	9a00006f 	bls	1d174 <.divsi3_skip_div0_test+0x1e0>
   1cfb4:	e1110002 	tst	r1, r2
   1cfb8:	0a000071 	beq	1d184 <.divsi3_skip_div0_test+0x1f0>
   1cfbc:	e16f2f13 	clz	r2, r3
   1cfc0:	e16f0f11 	clz	r0, r1
   1cfc4:	e0402002 	sub	r2, r0, r2
   1cfc8:	e272201f 	rsbs	r2, r2, #31
   1cfcc:	10822082 	addne	r2, r2, r2, lsl #1
   1cfd0:	e3a00000 	mov	r0, #0
   1cfd4:	108ff102 	addne	pc, pc, r2, lsl #2
   1cfd8:	e320f000 	nop	{0}
   1cfdc:	e1530f81 	cmp	r3, r1, lsl #31
   1cfe0:	e0a00000 	adc	r0, r0, r0
   1cfe4:	20433f81 	subcs	r3, r3, r1, lsl #31
   1cfe8:	e1530f01 	cmp	r3, r1, lsl #30
   1cfec:	e0a00000 	adc	r0, r0, r0
   1cff0:	20433f01 	subcs	r3, r3, r1, lsl #30
   1cff4:	e1530e81 	cmp	r3, r1, lsl #29
   1cff8:	e0a00000 	adc	r0, r0, r0
   1cffc:	20433e81 	subcs	r3, r3, r1, lsl #29
   1d000:	e1530e01 	cmp	r3, r1, lsl #28
   1d004:	e0a00000 	adc	r0, r0, r0
   1d008:	20433e01 	subcs	r3, r3, r1, lsl #28
   1d00c:	e1530d81 	cmp	r3, r1, lsl #27
   1d010:	e0a00000 	adc	r0, r0, r0
   1d014:	20433d81 	subcs	r3, r3, r1, lsl #27
   1d018:	e1530d01 	cmp	r3, r1, lsl #26
   1d01c:	e0a00000 	adc	r0, r0, r0
   1d020:	20433d01 	subcs	r3, r3, r1, lsl #26
   1d024:	e1530c81 	cmp	r3, r1, lsl #25
   1d028:	e0a00000 	adc	r0, r0, r0
   1d02c:	20433c81 	subcs	r3, r3, r1, lsl #25
   1d030:	e1530c01 	cmp	r3, r1, lsl #24
   1d034:	e0a00000 	adc	r0, r0, r0
   1d038:	20433c01 	subcs	r3, r3, r1, lsl #24
   1d03c:	e1530b81 	cmp	r3, r1, lsl #23
   1d040:	e0a00000 	adc	r0, r0, r0
   1d044:	20433b81 	subcs	r3, r3, r1, lsl #23
   1d048:	e1530b01 	cmp	r3, r1, lsl #22
   1d04c:	e0a00000 	adc	r0, r0, r0
   1d050:	20433b01 	subcs	r3, r3, r1, lsl #22
   1d054:	e1530a81 	cmp	r3, r1, lsl #21
   1d058:	e0a00000 	adc	r0, r0, r0
   1d05c:	20433a81 	subcs	r3, r3, r1, lsl #21
   1d060:	e1530a01 	cmp	r3, r1, lsl #20
   1d064:	e0a00000 	adc	r0, r0, r0
   1d068:	20433a01 	subcs	r3, r3, r1, lsl #20
   1d06c:	e1530981 	cmp	r3, r1, lsl #19
   1d070:	e0a00000 	adc	r0, r0, r0
   1d074:	20433981 	subcs	r3, r3, r1, lsl #19
   1d078:	e1530901 	cmp	r3, r1, lsl #18
   1d07c:	e0a00000 	adc	r0, r0, r0
   1d080:	20433901 	subcs	r3, r3, r1, lsl #18
   1d084:	e1530881 	cmp	r3, r1, lsl #17
   1d088:	e0a00000 	adc	r0, r0, r0
   1d08c:	20433881 	subcs	r3, r3, r1, lsl #17
   1d090:	e1530801 	cmp	r3, r1, lsl #16
   1d094:	e0a00000 	adc	r0, r0, r0
   1d098:	20433801 	subcs	r3, r3, r1, lsl #16
   1d09c:	e1530781 	cmp	r3, r1, lsl #15
   1d0a0:	e0a00000 	adc	r0, r0, r0
   1d0a4:	20433781 	subcs	r3, r3, r1, lsl #15
   1d0a8:	e1530701 	cmp	r3, r1, lsl #14
   1d0ac:	e0a00000 	adc	r0, r0, r0
   1d0b0:	20433701 	subcs	r3, r3, r1, lsl #14
   1d0b4:	e1530681 	cmp	r3, r1, lsl #13
   1d0b8:	e0a00000 	adc	r0, r0, r0
   1d0bc:	20433681 	subcs	r3, r3, r1, lsl #13
   1d0c0:	e1530601 	cmp	r3, r1, lsl #12
   1d0c4:	e0a00000 	adc	r0, r0, r0
   1d0c8:	20433601 	subcs	r3, r3, r1, lsl #12
   1d0cc:	e1530581 	cmp	r3, r1, lsl #11
   1d0d0:	e0a00000 	adc	r0, r0, r0
   1d0d4:	20433581 	subcs	r3, r3, r1, lsl #11
   1d0d8:	e1530501 	cmp	r3, r1, lsl #10
   1d0dc:	e0a00000 	adc	r0, r0, r0
   1d0e0:	20433501 	subcs	r3, r3, r1, lsl #10
   1d0e4:	e1530481 	cmp	r3, r1, lsl #9
   1d0e8:	e0a00000 	adc	r0, r0, r0
   1d0ec:	20433481 	subcs	r3, r3, r1, lsl #9
   1d0f0:	e1530401 	cmp	r3, r1, lsl #8
   1d0f4:	e0a00000 	adc	r0, r0, r0
   1d0f8:	20433401 	subcs	r3, r3, r1, lsl #8
   1d0fc:	e1530381 	cmp	r3, r1, lsl #7
   1d100:	e0a00000 	adc	r0, r0, r0
   1d104:	20433381 	subcs	r3, r3, r1, lsl #7
   1d108:	e1530301 	cmp	r3, r1, lsl #6
   1d10c:	e0a00000 	adc	r0, r0, r0
   1d110:	20433301 	subcs	r3, r3, r1, lsl #6
   1d114:	e1530281 	cmp	r3, r1, lsl #5
   1d118:	e0a00000 	adc	r0, r0, r0
   1d11c:	20433281 	subcs	r3, r3, r1, lsl #5
   1d120:	e1530201 	cmp	r3, r1, lsl #4
   1d124:	e0a00000 	adc	r0, r0, r0
   1d128:	20433201 	subcs	r3, r3, r1, lsl #4
   1d12c:	e1530181 	cmp	r3, r1, lsl #3
   1d130:	e0a00000 	adc	r0, r0, r0
   1d134:	20433181 	subcs	r3, r3, r1, lsl #3
   1d138:	e1530101 	cmp	r3, r1, lsl #2
   1d13c:	e0a00000 	adc	r0, r0, r0
   1d140:	20433101 	subcs	r3, r3, r1, lsl #2
   1d144:	e1530081 	cmp	r3, r1, lsl #1
   1d148:	e0a00000 	adc	r0, r0, r0
   1d14c:	20433081 	subcs	r3, r3, r1, lsl #1
   1d150:	e1530001 	cmp	r3, r1
   1d154:	e0a00000 	adc	r0, r0, r0
   1d158:	20433001 	subcs	r3, r3, r1
   1d15c:	e35c0000 	cmp	ip, #0
   1d160:	42600000 	rsbmi	r0, r0, #0
   1d164:	e12fff1e 	bx	lr
   1d168:	e13c0000 	teq	ip, r0
   1d16c:	42600000 	rsbmi	r0, r0, #0
   1d170:	e12fff1e 	bx	lr
   1d174:	33a00000 	movcc	r0, #0
   1d178:	01a00fcc 	asreq	r0, ip, #31
   1d17c:	03800001 	orreq	r0, r0, #1
   1d180:	e12fff1e 	bx	lr
   1d184:	e16f2f11 	clz	r2, r1
   1d188:	e262201f 	rsb	r2, r2, #31
   1d18c:	e35c0000 	cmp	ip, #0
   1d190:	e1a00233 	lsr	r0, r3, r2
   1d194:	42600000 	rsbmi	r0, r0, #0
   1d198:	e12fff1e 	bx	lr
   1d19c:	e3500000 	cmp	r0, #0
   1d1a0:	c3e00102 	mvngt	r0, #-2147483648	; 0x80000000
   1d1a4:	b3a00102 	movlt	r0, #-2147483648	; 0x80000000
   1d1a8:	ea000007 	b	1d1cc <__aeabi_idiv0>

0001d1ac <__aeabi_idivmod>:
   1d1ac:	e3510000 	cmp	r1, #0
   1d1b0:	0afffff9 	beq	1d19c <.divsi3_skip_div0_test+0x208>
   1d1b4:	e92d4003 	push	{r0, r1, lr}
   1d1b8:	ebffff75 	bl	1cf94 <.divsi3_skip_div0_test>
   1d1bc:	e8bd4006 	pop	{r1, r2, lr}
   1d1c0:	e0030092 	mul	r3, r2, r0
   1d1c4:	e0411003 	sub	r1, r1, r3
   1d1c8:	e12fff1e 	bx	lr

0001d1cc <__aeabi_idiv0>:
   1d1cc:	e12fff1e 	bx	lr

0001d1d0 <__aeabi_drsub>:
   1d1d0:	e2211102 	eor	r1, r1, #-2147483648	; 0x80000000
   1d1d4:	ea000000 	b	1d1dc <__adddf3>

0001d1d8 <__aeabi_dsub>:
   1d1d8:	e2233102 	eor	r3, r3, #-2147483648	; 0x80000000

0001d1dc <__adddf3>:
   1d1dc:	e92d4030 	push	{r4, r5, lr}
   1d1e0:	e1a04081 	lsl	r4, r1, #1
   1d1e4:	e1a05083 	lsl	r5, r3, #1
   1d1e8:	e1340005 	teq	r4, r5
   1d1ec:	01300002 	teqeq	r0, r2
   1d1f0:	1194c000 	orrsne	ip, r4, r0
   1d1f4:	1195c002 	orrsne	ip, r5, r2
   1d1f8:	11f0cac4 	mvnsne	ip, r4, asr #21
   1d1fc:	11f0cac5 	mvnsne	ip, r5, asr #21
   1d200:	0a000079 	beq	1d3ec <__adddf3+0x210>
   1d204:	e1a04aa4 	lsr	r4, r4, #21
   1d208:	e0745aa5 	rsbs	r5, r4, r5, lsr #21
   1d20c:	b2655000 	rsblt	r5, r5, #0
   1d210:	da000006 	ble	1d230 <__adddf3+0x54>
   1d214:	e0844005 	add	r4, r4, r5
   1d218:	e0202002 	eor	r2, r0, r2
   1d21c:	e0213003 	eor	r3, r1, r3
   1d220:	e0220000 	eor	r0, r2, r0
   1d224:	e0231001 	eor	r1, r3, r1
   1d228:	e0202002 	eor	r2, r0, r2
   1d22c:	e0213003 	eor	r3, r1, r3
   1d230:	e3550036 	cmp	r5, #54	; 0x36
   1d234:	88bd8030 	pophi	{r4, r5, pc}
   1d238:	e3110102 	tst	r1, #-2147483648	; 0x80000000
   1d23c:	e1a01601 	lsl	r1, r1, #12
   1d240:	e3a0c601 	mov	ip, #1048576	; 0x100000
   1d244:	e18c1621 	orr	r1, ip, r1, lsr #12
   1d248:	0a000001 	beq	1d254 <__adddf3+0x78>
   1d24c:	e2700000 	rsbs	r0, r0, #0
   1d250:	e2e11000 	rsc	r1, r1, #0
   1d254:	e3130102 	tst	r3, #-2147483648	; 0x80000000
   1d258:	e1a03603 	lsl	r3, r3, #12
   1d25c:	e18c3623 	orr	r3, ip, r3, lsr #12
   1d260:	0a000001 	beq	1d26c <__adddf3+0x90>
   1d264:	e2722000 	rsbs	r2, r2, #0
   1d268:	e2e33000 	rsc	r3, r3, #0
   1d26c:	e1340005 	teq	r4, r5
   1d270:	0a000057 	beq	1d3d4 <__adddf3+0x1f8>
   1d274:	e2444001 	sub	r4, r4, #1
   1d278:	e275e020 	rsbs	lr, r5, #32
   1d27c:	ba000005 	blt	1d298 <__adddf3+0xbc>
   1d280:	e1a0ce12 	lsl	ip, r2, lr
   1d284:	e0900532 	adds	r0, r0, r2, lsr r5
   1d288:	e2a11000 	adc	r1, r1, #0
   1d28c:	e0900e13 	adds	r0, r0, r3, lsl lr
   1d290:	e0b11553 	adcs	r1, r1, r3, asr r5
   1d294:	ea000006 	b	1d2b4 <__adddf3+0xd8>
   1d298:	e2455020 	sub	r5, r5, #32
   1d29c:	e28ee020 	add	lr, lr, #32
   1d2a0:	e3520001 	cmp	r2, #1
   1d2a4:	e1a0ce13 	lsl	ip, r3, lr
   1d2a8:	238cc002 	orrcs	ip, ip, #2
   1d2ac:	e0900553 	adds	r0, r0, r3, asr r5
   1d2b0:	e0b11fc3 	adcs	r1, r1, r3, asr #31
   1d2b4:	e2015102 	and	r5, r1, #-2147483648	; 0x80000000
   1d2b8:	5a000002 	bpl	1d2c8 <__adddf3+0xec>
   1d2bc:	e27cc000 	rsbs	ip, ip, #0
   1d2c0:	e2f00000 	rscs	r0, r0, #0
   1d2c4:	e2e11000 	rsc	r1, r1, #0
   1d2c8:	e3510601 	cmp	r1, #1048576	; 0x100000
   1d2cc:	3a00000e 	bcc	1d30c <__adddf3+0x130>
   1d2d0:	e3510602 	cmp	r1, #2097152	; 0x200000
   1d2d4:	3a000006 	bcc	1d2f4 <__adddf3+0x118>
   1d2d8:	e1b010a1 	lsrs	r1, r1, #1
   1d2dc:	e1b00060 	rrxs	r0, r0
   1d2e0:	e1a0c06c 	rrx	ip, ip
   1d2e4:	e2844001 	add	r4, r4, #1
   1d2e8:	e1a02a84 	lsl	r2, r4, #21
   1d2ec:	e3720501 	cmn	r2, #4194304	; 0x400000
   1d2f0:	2a000055 	bcs	1d44c <__adddf3+0x270>
   1d2f4:	e35c0102 	cmp	ip, #-2147483648	; 0x80000000
   1d2f8:	01b0c0a0 	lsrseq	ip, r0, #1
   1d2fc:	e2b00000 	adcs	r0, r0, #0
   1d300:	e0a11a04 	adc	r1, r1, r4, lsl #20
   1d304:	e1811005 	orr	r1, r1, r5
   1d308:	e8bd8030 	pop	{r4, r5, pc}
   1d30c:	e1b0c08c 	lsls	ip, ip, #1
   1d310:	e0b00000 	adcs	r0, r0, r0
   1d314:	e0a11001 	adc	r1, r1, r1
   1d318:	e3110601 	tst	r1, #1048576	; 0x100000
   1d31c:	e2444001 	sub	r4, r4, #1
   1d320:	1afffff3 	bne	1d2f4 <__adddf3+0x118>
   1d324:	e3310000 	teq	r1, #0
   1d328:	01a01000 	moveq	r1, r0
   1d32c:	03a00000 	moveq	r0, #0
   1d330:	e16f3f11 	clz	r3, r1
   1d334:	02833020 	addeq	r3, r3, #32
   1d338:	e243300b 	sub	r3, r3, #11
   1d33c:	e2532020 	subs	r2, r3, #32
   1d340:	aa000007 	bge	1d364 <__adddf3+0x188>
   1d344:	e292200c 	adds	r2, r2, #12
   1d348:	da000004 	ble	1d360 <__adddf3+0x184>
   1d34c:	e282c014 	add	ip, r2, #20
   1d350:	e262200c 	rsb	r2, r2, #12
   1d354:	e1a00c11 	lsl	r0, r1, ip
   1d358:	e1a01231 	lsr	r1, r1, r2
   1d35c:	ea000004 	b	1d374 <__adddf3+0x198>
   1d360:	e2822014 	add	r2, r2, #20
   1d364:	d262c020 	rsble	ip, r2, #32
   1d368:	e1a01211 	lsl	r1, r1, r2
   1d36c:	d1811c30 	orrle	r1, r1, r0, lsr ip
   1d370:	d1a00210 	lslle	r0, r0, r2
   1d374:	e0544003 	subs	r4, r4, r3
   1d378:	a0811a04 	addge	r1, r1, r4, lsl #20
   1d37c:	a1811005 	orrge	r1, r1, r5
   1d380:	a8bd8030 	popge	{r4, r5, pc}
   1d384:	e1e04004 	mvn	r4, r4
   1d388:	e254401f 	subs	r4, r4, #31
   1d38c:	aa00000d 	bge	1d3c8 <__adddf3+0x1ec>
   1d390:	e294400c 	adds	r4, r4, #12
   1d394:	ca000005 	bgt	1d3b0 <__adddf3+0x1d4>
   1d398:	e2844014 	add	r4, r4, #20
   1d39c:	e2642020 	rsb	r2, r4, #32
   1d3a0:	e1a00430 	lsr	r0, r0, r4
   1d3a4:	e1800211 	orr	r0, r0, r1, lsl r2
   1d3a8:	e1851431 	orr	r1, r5, r1, lsr r4
   1d3ac:	e8bd8030 	pop	{r4, r5, pc}
   1d3b0:	e264400c 	rsb	r4, r4, #12
   1d3b4:	e2642020 	rsb	r2, r4, #32
   1d3b8:	e1a00230 	lsr	r0, r0, r2
   1d3bc:	e1800411 	orr	r0, r0, r1, lsl r4
   1d3c0:	e1a01005 	mov	r1, r5
   1d3c4:	e8bd8030 	pop	{r4, r5, pc}
   1d3c8:	e1a00431 	lsr	r0, r1, r4
   1d3cc:	e1a01005 	mov	r1, r5
   1d3d0:	e8bd8030 	pop	{r4, r5, pc}
   1d3d4:	e3340000 	teq	r4, #0
   1d3d8:	e2233601 	eor	r3, r3, #1048576	; 0x100000
   1d3dc:	02211601 	eoreq	r1, r1, #1048576	; 0x100000
   1d3e0:	02844001 	addeq	r4, r4, #1
   1d3e4:	12455001 	subne	r5, r5, #1
   1d3e8:	eaffffa1 	b	1d274 <__adddf3+0x98>
   1d3ec:	e1f0cac4 	mvns	ip, r4, asr #21
   1d3f0:	11f0cac5 	mvnsne	ip, r5, asr #21
   1d3f4:	0a000018 	beq	1d45c <__adddf3+0x280>
   1d3f8:	e1340005 	teq	r4, r5
   1d3fc:	01300002 	teqeq	r0, r2
   1d400:	0a000003 	beq	1d414 <__adddf3+0x238>
   1d404:	e194c000 	orrs	ip, r4, r0
   1d408:	01a01003 	moveq	r1, r3
   1d40c:	01a00002 	moveq	r0, r2
   1d410:	e8bd8030 	pop	{r4, r5, pc}
   1d414:	e1310003 	teq	r1, r3
   1d418:	13a01000 	movne	r1, #0
   1d41c:	13a00000 	movne	r0, #0
   1d420:	18bd8030 	popne	{r4, r5, pc}
   1d424:	e1b0caa4 	lsrs	ip, r4, #21
   1d428:	1a000003 	bne	1d43c <__adddf3+0x260>
   1d42c:	e1b00080 	lsls	r0, r0, #1
   1d430:	e0b11001 	adcs	r1, r1, r1
   1d434:	23811102 	orrcs	r1, r1, #-2147483648	; 0x80000000
   1d438:	e8bd8030 	pop	{r4, r5, pc}
   1d43c:	e2944501 	adds	r4, r4, #4194304	; 0x400000
   1d440:	32811601 	addcc	r1, r1, #1048576	; 0x100000
   1d444:	38bd8030 	popcc	{r4, r5, pc}
   1d448:	e2015102 	and	r5, r1, #-2147483648	; 0x80000000
   1d44c:	e385147f 	orr	r1, r5, #2130706432	; 0x7f000000
   1d450:	e381160f 	orr	r1, r1, #15728640	; 0xf00000
   1d454:	e3a00000 	mov	r0, #0
   1d458:	e8bd8030 	pop	{r4, r5, pc}
   1d45c:	e1f0cac4 	mvns	ip, r4, asr #21
   1d460:	11a01003 	movne	r1, r3
   1d464:	11a00002 	movne	r0, r2
   1d468:	01f0cac5 	mvnseq	ip, r5, asr #21
   1d46c:	11a03001 	movne	r3, r1
   1d470:	11a02000 	movne	r2, r0
   1d474:	e1904601 	orrs	r4, r0, r1, lsl #12
   1d478:	01925603 	orrseq	r5, r2, r3, lsl #12
   1d47c:	01310003 	teqeq	r1, r3
   1d480:	13811702 	orrne	r1, r1, #524288	; 0x80000
   1d484:	e8bd8030 	pop	{r4, r5, pc}

0001d488 <__aeabi_ui2d>:
   1d488:	e3300000 	teq	r0, #0
   1d48c:	03a01000 	moveq	r1, #0
   1d490:	012fff1e 	bxeq	lr
   1d494:	e92d4030 	push	{r4, r5, lr}
   1d498:	e3a04b01 	mov	r4, #1024	; 0x400
   1d49c:	e2844032 	add	r4, r4, #50	; 0x32
   1d4a0:	e3a05000 	mov	r5, #0
   1d4a4:	e3a01000 	mov	r1, #0
   1d4a8:	eaffff9d 	b	1d324 <__adddf3+0x148>

0001d4ac <__aeabi_i2d>:
   1d4ac:	e3300000 	teq	r0, #0
   1d4b0:	03a01000 	moveq	r1, #0
   1d4b4:	012fff1e 	bxeq	lr
   1d4b8:	e92d4030 	push	{r4, r5, lr}
   1d4bc:	e3a04b01 	mov	r4, #1024	; 0x400
   1d4c0:	e2844032 	add	r4, r4, #50	; 0x32
   1d4c4:	e2105102 	ands	r5, r0, #-2147483648	; 0x80000000
   1d4c8:	42600000 	rsbmi	r0, r0, #0
   1d4cc:	e3a01000 	mov	r1, #0
   1d4d0:	eaffff93 	b	1d324 <__adddf3+0x148>

0001d4d4 <__aeabi_f2d>:
   1d4d4:	e1b02080 	lsls	r2, r0, #1
   1d4d8:	e1a011c2 	asr	r1, r2, #3
   1d4dc:	e1a01061 	rrx	r1, r1
   1d4e0:	e1a00e02 	lsl	r0, r2, #28
   1d4e4:	121234ff 	andsne	r3, r2, #-16777216	; 0xff000000
   1d4e8:	133304ff 	teqne	r3, #-16777216	; 0xff000000
   1d4ec:	1221130e 	eorne	r1, r1, #939524096	; 0x38000000
   1d4f0:	112fff1e 	bxne	lr
   1d4f4:	e3320000 	teq	r2, #0
   1d4f8:	133304ff 	teqne	r3, #-16777216	; 0xff000000
   1d4fc:	012fff1e 	bxeq	lr
   1d500:	e92d4030 	push	{r4, r5, lr}
   1d504:	e3a04d0e 	mov	r4, #896	; 0x380
   1d508:	e2015102 	and	r5, r1, #-2147483648	; 0x80000000
   1d50c:	e3c11102 	bic	r1, r1, #-2147483648	; 0x80000000
   1d510:	eaffff83 	b	1d324 <__adddf3+0x148>

0001d514 <__aeabi_ul2d>:
   1d514:	e1902001 	orrs	r2, r0, r1
   1d518:	012fff1e 	bxeq	lr
   1d51c:	e92d4030 	push	{r4, r5, lr}
   1d520:	e3a05000 	mov	r5, #0
   1d524:	ea000006 	b	1d544 <__aeabi_l2d+0x1c>

0001d528 <__aeabi_l2d>:
   1d528:	e1902001 	orrs	r2, r0, r1
   1d52c:	012fff1e 	bxeq	lr
   1d530:	e92d4030 	push	{r4, r5, lr}
   1d534:	e2115102 	ands	r5, r1, #-2147483648	; 0x80000000
   1d538:	5a000001 	bpl	1d544 <__aeabi_l2d+0x1c>
   1d53c:	e2700000 	rsbs	r0, r0, #0
   1d540:	e2e11000 	rsc	r1, r1, #0
   1d544:	e3a04b01 	mov	r4, #1024	; 0x400
   1d548:	e2844032 	add	r4, r4, #50	; 0x32
   1d54c:	e1b0cb21 	lsrs	ip, r1, #22
   1d550:	0affff5c 	beq	1d2c8 <__adddf3+0xec>
   1d554:	e3a02003 	mov	r2, #3
   1d558:	e1b0c1ac 	lsrs	ip, ip, #3
   1d55c:	12822003 	addne	r2, r2, #3
   1d560:	e1b0c1ac 	lsrs	ip, ip, #3
   1d564:	12822003 	addne	r2, r2, #3
   1d568:	e08221ac 	add	r2, r2, ip, lsr #3
   1d56c:	e2623020 	rsb	r3, r2, #32
   1d570:	e1a0c310 	lsl	ip, r0, r3
   1d574:	e1a00230 	lsr	r0, r0, r2
   1d578:	e1800311 	orr	r0, r0, r1, lsl r3
   1d57c:	e1a01231 	lsr	r1, r1, r2
   1d580:	e0844002 	add	r4, r4, r2
   1d584:	eaffff4f 	b	1d2c8 <__adddf3+0xec>

0001d588 <__aeabi_uldivmod>:
   1d588:	e3530000 	cmp	r3, #0
   1d58c:	03520000 	cmpeq	r2, #0
   1d590:	1a000004 	bne	1d5a8 <__aeabi_uldivmod+0x20>
   1d594:	e3510000 	cmp	r1, #0
   1d598:	03500000 	cmpeq	r0, #0
   1d59c:	13e01000 	mvnne	r1, #0
   1d5a0:	13e00000 	mvnne	r0, #0
   1d5a4:	eaffff08 	b	1d1cc <__aeabi_idiv0>
   1d5a8:	e24dd008 	sub	sp, sp, #8
   1d5ac:	e92d6000 	push	{sp, lr}
   1d5b0:	eb000025 	bl	1d64c <__gnu_uldivmod_helper>
   1d5b4:	e59de004 	ldr	lr, [sp, #4]
   1d5b8:	e28dd008 	add	sp, sp, #8
   1d5bc:	e8bd000c 	pop	{r2, r3}
   1d5c0:	e12fff1e 	bx	lr
   1d5c4:	00000000 	andeq	r0, r0, r0

0001d5c8 <__aeabi_d2ulz>:
   1d5c8:	ec410b17 	vmov	d7, r0, r1
   1d5cc:	ed9f6b0b 	vldr	d6, [pc, #44]	; 1d600 <__aeabi_d2ulz+0x38>
   1d5d0:	ee276b06 	vmul.f64	d6, d7, d6
   1d5d4:	eebc6bc6 	vcvt.u32.f64	s12, d6
   1d5d8:	ed9f5b0a 	vldr	d5, [pc, #40]	; 1d608 <__aeabi_d2ulz+0x40>
   1d5dc:	eeb84b46 	vcvt.f64.u32	d4, s12
   1d5e0:	ee047b45 	vmls.f64	d7, d4, d5
   1d5e4:	eebc7bc7 	vcvt.u32.f64	s14, d7
   1d5e8:	e3a00000 	mov	r0, #0
   1d5ec:	ee173a10 	vmov	r3, s14
   1d5f0:	ee161a10 	vmov	r1, s12
   1d5f4:	e1800003 	orr	r0, r0, r3
   1d5f8:	e12fff1e 	bx	lr
   1d5fc:	e320f000 	nop	{0}
   1d600:	00000000 	andeq	r0, r0, r0
   1d604:	3df00000 	ldclcc	0, cr0, [r0]
   1d608:	00000000 	andeq	r0, r0, r0
   1d60c:	41f00000 	mvnsmi	r0, r0

0001d610 <__gnu_ldivmod_helper>:
   1d610:	e92d41f0 	push	{r4, r5, r6, r7, r8, lr}
   1d614:	e59d7018 	ldr	r7, [sp, #24]
   1d618:	e1a08002 	mov	r8, r2
   1d61c:	e1a04000 	mov	r4, r0
   1d620:	e1a05001 	mov	r5, r1
   1d624:	e1a06003 	mov	r6, r3
   1d628:	eb000016 	bl	1d688 <__divdi3>
   1d62c:	e00e0198 	mul	lr, r8, r1
   1d630:	e0832098 	umull	r2, r3, r8, r0
   1d634:	e026e690 	mla	r6, r0, r6, lr
   1d638:	e0542002 	subs	r2, r4, r2
   1d63c:	e0863003 	add	r3, r6, r3
   1d640:	e0c53003 	sbc	r3, r5, r3
   1d644:	e1c720f0 	strd	r2, [r7]
   1d648:	e8bd81f0 	pop	{r4, r5, r6, r7, r8, pc}

0001d64c <__gnu_uldivmod_helper>:
   1d64c:	e92d43f8 	push	{r3, r4, r5, r6, r7, r8, r9, lr}
   1d650:	e59d7020 	ldr	r7, [sp, #32]
   1d654:	e1a06002 	mov	r6, r2
   1d658:	e1a08000 	mov	r8, r0
   1d65c:	e1a09001 	mov	r9, r1
   1d660:	e1a05003 	mov	r5, r3
   1d664:	eb000067 	bl	1d808 <__udivdi3>
   1d668:	e0030590 	mul	r3, r0, r5
   1d66c:	e0854690 	umull	r4, r5, r0, r6
   1d670:	e0263196 	mla	r6, r6, r1, r3
   1d674:	e0584004 	subs	r4, r8, r4
   1d678:	e0865005 	add	r5, r6, r5
   1d67c:	e0c95005 	sbc	r5, r9, r5
   1d680:	e1c740f0 	strd	r4, [r7]
   1d684:	e8bd83f8 	pop	{r3, r4, r5, r6, r7, r8, r9, pc}

0001d688 <__divdi3>:
   1d688:	e3510000 	cmp	r1, #0
   1d68c:	e92d4ff0 	push	{r4, r5, r6, r7, r8, r9, sl, fp, lr}
   1d690:	a3a0c000 	movge	ip, #0
   1d694:	ba000057 	blt	1d7f8 <__divdi3+0x170>
   1d698:	e3530000 	cmp	r3, #0
   1d69c:	a1a08002 	movge	r8, r2
   1d6a0:	a1a09003 	movge	r9, r3
   1d6a4:	ba00004f 	blt	1d7e8 <__divdi3+0x160>
   1d6a8:	e1510009 	cmp	r1, r9
   1d6ac:	01500008 	cmpeq	r0, r8
   1d6b0:	e1a04000 	mov	r4, r0
   1d6b4:	e1a05001 	mov	r5, r1
   1d6b8:	33a08000 	movcc	r8, #0
   1d6bc:	33a09000 	movcc	r9, #0
   1d6c0:	3a00003e 	bcc	1d7c0 <__divdi3+0x138>
   1d6c4:	e3590000 	cmp	r9, #0
   1d6c8:	016f3f18 	clzeq	r3, r8
   1d6cc:	116f2f19 	clzne	r2, r9
   1d6d0:	02832020 	addeq	r2, r3, #32
   1d6d4:	e3510000 	cmp	r1, #0
   1d6d8:	016f3f10 	clzeq	r3, r0
   1d6dc:	116f3f11 	clzne	r3, r1
   1d6e0:	02833020 	addeq	r3, r3, #32
   1d6e4:	e0633002 	rsb	r3, r3, r2
   1d6e8:	e1a07319 	lsl	r7, r9, r3
   1d6ec:	e243e020 	sub	lr, r3, #32
   1d6f0:	e1877e18 	orr	r7, r7, r8, lsl lr
   1d6f4:	e263a020 	rsb	sl, r3, #32
   1d6f8:	e1877a38 	orr	r7, r7, r8, lsr sl
   1d6fc:	e1510007 	cmp	r1, r7
   1d700:	e1a06318 	lsl	r6, r8, r3
   1d704:	01500006 	cmpeq	r0, r6
   1d708:	e1a02003 	mov	r2, r3
   1d70c:	33a08000 	movcc	r8, #0
   1d710:	33a09000 	movcc	r9, #0
   1d714:	3a000007 	bcc	1d738 <__divdi3+0xb0>
   1d718:	e3a0b001 	mov	fp, #1
   1d71c:	e0500006 	subs	r0, r0, r6
   1d720:	e0c11007 	sbc	r1, r1, r7
   1d724:	e1a04000 	mov	r4, r0
   1d728:	e1a05001 	mov	r5, r1
   1d72c:	e1a09e1b 	lsl	r9, fp, lr
   1d730:	e1899a3b 	orr	r9, r9, fp, lsr sl
   1d734:	e1a0831b 	lsl	r8, fp, r3
   1d738:	e3530000 	cmp	r3, #0
   1d73c:	0a00001f 	beq	1d7c0 <__divdi3+0x138>
   1d740:	e1b070a7 	lsrs	r7, r7, #1
   1d744:	e1a06066 	rrx	r6, r6
   1d748:	ea000007 	b	1d76c <__divdi3+0xe4>
   1d74c:	e0544006 	subs	r4, r4, r6
   1d750:	e0c55007 	sbc	r5, r5, r7
   1d754:	e0944004 	adds	r4, r4, r4
   1d758:	e0a55005 	adc	r5, r5, r5
   1d75c:	e2944001 	adds	r4, r4, #1
   1d760:	e2a55000 	adc	r5, r5, #0
   1d764:	e2533001 	subs	r3, r3, #1
   1d768:	0a000006 	beq	1d788 <__divdi3+0x100>
   1d76c:	e1570005 	cmp	r7, r5
   1d770:	01560004 	cmpeq	r6, r4
   1d774:	9afffff4 	bls	1d74c <__divdi3+0xc4>
   1d778:	e0944004 	adds	r4, r4, r4
   1d77c:	e0a55005 	adc	r5, r5, r5
   1d780:	e2533001 	subs	r3, r3, #1
   1d784:	1afffff8 	bne	1d76c <__divdi3+0xe4>
   1d788:	e2621020 	rsb	r1, r2, #32
   1d78c:	e1a03234 	lsr	r3, r4, r2
   1d790:	e2420020 	sub	r0, r2, #32
   1d794:	e1833115 	orr	r3, r3, r5, lsl r1
   1d798:	e1a0e235 	lsr	lr, r5, r2
   1d79c:	e1833035 	orr	r3, r3, r5, lsr r0
   1d7a0:	e1a0721e 	lsl	r7, lr, r2
   1d7a4:	e0988004 	adds	r8, r8, r4
   1d7a8:	e1877013 	orr	r7, r7, r3, lsl r0
   1d7ac:	e1a06213 	lsl	r6, r3, r2
   1d7b0:	e0a99005 	adc	r9, r9, r5
   1d7b4:	e1877133 	orr	r7, r7, r3, lsr r1
   1d7b8:	e0588006 	subs	r8, r8, r6
   1d7bc:	e0c99007 	sbc	r9, r9, r7
   1d7c0:	e29c0000 	adds	r0, ip, #0
   1d7c4:	13a00001 	movne	r0, #1
   1d7c8:	e3a01000 	mov	r1, #0
   1d7cc:	e2702000 	rsbs	r2, r0, #0
   1d7d0:	e2e13000 	rsc	r3, r1, #0
   1d7d4:	e0288002 	eor	r8, r8, r2
   1d7d8:	e0299003 	eor	r9, r9, r3
   1d7dc:	e0900008 	adds	r0, r0, r8
   1d7e0:	e0a11009 	adc	r1, r1, r9
   1d7e4:	e8bd8ff0 	pop	{r4, r5, r6, r7, r8, r9, sl, fp, pc}
   1d7e8:	e2728000 	rsbs	r8, r2, #0
   1d7ec:	e1e0c00c 	mvn	ip, ip
   1d7f0:	e2e39000 	rsc	r9, r3, #0
   1d7f4:	eaffffab 	b	1d6a8 <__divdi3+0x20>
   1d7f8:	e2700000 	rsbs	r0, r0, #0
   1d7fc:	e2e11000 	rsc	r1, r1, #0
   1d800:	e3e0c000 	mvn	ip, #0
   1d804:	eaffffa3 	b	1d698 <__divdi3+0x10>

0001d808 <__udivdi3>:
   1d808:	e92d43f0 	push	{r4, r5, r6, r7, r8, r9, lr}
   1d80c:	e1a05001 	mov	r5, r1
   1d810:	e1a04000 	mov	r4, r0
   1d814:	e1550003 	cmp	r5, r3
   1d818:	01540002 	cmpeq	r4, r2
   1d81c:	e1a00002 	mov	r0, r2
   1d820:	e1a01003 	mov	r1, r3
   1d824:	3a00003d 	bcc	1d920 <__udivdi3+0x118>
   1d828:	e3530000 	cmp	r3, #0
   1d82c:	016f3f10 	clzeq	r3, r0
   1d830:	116f2f13 	clzne	r2, r3
   1d834:	02832020 	addeq	r2, r3, #32
   1d838:	e3550000 	cmp	r5, #0
   1d83c:	016f3f14 	clzeq	r3, r4
   1d840:	116f3f15 	clzne	r3, r5
   1d844:	02833020 	addeq	r3, r3, #32
   1d848:	e0633002 	rsb	r3, r3, r2
   1d84c:	e1a07311 	lsl	r7, r1, r3
   1d850:	e243e020 	sub	lr, r3, #32
   1d854:	e1877e10 	orr	r7, r7, r0, lsl lr
   1d858:	e263c020 	rsb	ip, r3, #32
   1d85c:	e1877c30 	orr	r7, r7, r0, lsr ip
   1d860:	e1550007 	cmp	r5, r7
   1d864:	e1a06310 	lsl	r6, r0, r3
   1d868:	01540006 	cmpeq	r4, r6
   1d86c:	e1a02003 	mov	r2, r3
   1d870:	33a00000 	movcc	r0, #0
   1d874:	33a01000 	movcc	r1, #0
   1d878:	3a000005 	bcc	1d894 <__udivdi3+0x8c>
   1d87c:	e3a08001 	mov	r8, #1
   1d880:	e0544006 	subs	r4, r4, r6
   1d884:	e1a01e18 	lsl	r1, r8, lr
   1d888:	e1811c38 	orr	r1, r1, r8, lsr ip
   1d88c:	e0c55007 	sbc	r5, r5, r7
   1d890:	e1a00318 	lsl	r0, r8, r3
   1d894:	e3530000 	cmp	r3, #0
   1d898:	08bd83f0 	popeq	{r4, r5, r6, r7, r8, r9, pc}
   1d89c:	e1b070a7 	lsrs	r7, r7, #1
   1d8a0:	e1a06066 	rrx	r6, r6
   1d8a4:	ea000007 	b	1d8c8 <__udivdi3+0xc0>
   1d8a8:	e0544006 	subs	r4, r4, r6
   1d8ac:	e0c55007 	sbc	r5, r5, r7
   1d8b0:	e0944004 	adds	r4, r4, r4
   1d8b4:	e0a55005 	adc	r5, r5, r5
   1d8b8:	e2944001 	adds	r4, r4, #1
   1d8bc:	e2a55000 	adc	r5, r5, #0
   1d8c0:	e2533001 	subs	r3, r3, #1
   1d8c4:	0a000006 	beq	1d8e4 <__udivdi3+0xdc>
   1d8c8:	e1570005 	cmp	r7, r5
   1d8cc:	01560004 	cmpeq	r6, r4
   1d8d0:	9afffff4 	bls	1d8a8 <__udivdi3+0xa0>
   1d8d4:	e0944004 	adds	r4, r4, r4
   1d8d8:	e0a55005 	adc	r5, r5, r5
   1d8dc:	e2533001 	subs	r3, r3, #1
   1d8e0:	1afffff8 	bne	1d8c8 <__udivdi3+0xc0>
   1d8e4:	e0948000 	adds	r8, r4, r0
   1d8e8:	e0a59001 	adc	r9, r5, r1
   1d8ec:	e1a03234 	lsr	r3, r4, r2
   1d8f0:	e2621020 	rsb	r1, r2, #32
   1d8f4:	e2420020 	sub	r0, r2, #32
   1d8f8:	e1833115 	orr	r3, r3, r5, lsl r1
   1d8fc:	e1a0c235 	lsr	ip, r5, r2
   1d900:	e1833035 	orr	r3, r3, r5, lsr r0
   1d904:	e1a0721c 	lsl	r7, ip, r2
   1d908:	e1877013 	orr	r7, r7, r3, lsl r0
   1d90c:	e1a06213 	lsl	r6, r3, r2
   1d910:	e1877133 	orr	r7, r7, r3, lsr r1
   1d914:	e0580006 	subs	r0, r8, r6
   1d918:	e0c91007 	sbc	r1, r9, r7
   1d91c:	e8bd83f0 	pop	{r4, r5, r6, r7, r8, r9, pc}
   1d920:	e3a00000 	mov	r0, #0
   1d924:	e3a01000 	mov	r1, #0
   1d928:	e8bd83f0 	pop	{r4, r5, r6, r7, r8, r9, pc}

Disassembly of section .rodata:

0001d92c <RDM_DEVICE_FILE_NAME>:
   1d92c:	5f6d6472 	svcpl	0x006d6472
   1d930:	69766564 	ldmdbvs	r6!, {r2, r5, r6, r8, sl, sp, lr}^
   1d934:	742e6563 	strtvc	r6, [lr], #-1379	; 0xfffffa9d
   1d938:	00007478 	andeq	r7, r0, r8, ror r4

0001d93c <RDM_DEVICE_MANUFACTURER_NAME>:
   1d93c:	756e616d 	strbvc	r6, [lr, #-365]!	; 0xfffffe93
   1d940:	74636166 	strbtvc	r6, [r3], #-358	; 0xfffffe9a
   1d944:	72657275 	rsbvc	r7, r5, #1342177287	; 0x50000007
   1d948:	6d616e5f 	stclvs	14, cr6, [r1, #-380]!	; 0xfffffe84
   1d94c:	00000065 	andeq	r0, r0, r5, rrx

0001d950 <RDM_DEVICE_MANUFACTURER_ID>:
   1d950:	756e616d 	strbvc	r6, [lr, #-365]!	; 0xfffffe93
   1d954:	74636166 	strbtvc	r6, [r3], #-358	; 0xfffffe9a
   1d958:	72657275 	rsbvc	r7, r5, #1342177287	; 0x50000007
   1d95c:	0064695f 	rsbeq	r6, r4, pc, asr r9

0001d960 <DEVICE_LABEL>:
   1d960:	70736152 	rsbsvc	r6, r3, r2, asr r1
   1d964:	72726562 	rsbsvc	r6, r2, #411041792	; 0x18800000
   1d968:	69502079 	ldmdbvs	r0, {r0, r3, r4, r5, r6, sp}^
   1d96c:	584d4420 	stmdapl	sp, {r5, sl, lr}^
   1d970:	42535520 	subsmi	r5, r3, #32, 10	; 0x8000000
   1d974:	6f725020 	svcvs	0x00725020
   1d978:	00000000 	andeq	r0, r0, r0

0001d97c <PARAMS_FILE_NAME>:
   1d97c:	61726170 	cmnvs	r2, r0, ror r1
   1d980:	742e736d 	strtvc	r7, [lr], #-877	; 0xfffffc93
   1d984:	00007478 	andeq	r7, r0, r8, ror r4

0001d988 <DMXUSBPRO_PARAMS_BREAK_TIME>:
   1d988:	75786d64 	ldrbvc	r6, [r8, #-3428]!	; 0xfffff29c
   1d98c:	72706273 	rsbsvc	r6, r0, #805306375	; 0x30000007
   1d990:	72625f6f 	rsbvc	r5, r2, #444	; 0x1bc
   1d994:	5f6b6165 	svcpl	0x006b6165
   1d998:	656d6974 	strbvs	r6, [sp, #-2420]!	; 0xfffff68c
   1d99c:	00000000 	andeq	r0, r0, r0

0001d9a0 <DMXUSBPRO_PARAMS_MAB_TIME>:
   1d9a0:	75786d64 	ldrbvc	r6, [r8, #-3428]!	; 0xfffff29c
   1d9a4:	72706273 	rsbsvc	r6, r0, #805306375	; 0x30000007
   1d9a8:	616d5f6f 	cmnvs	sp, pc, ror #30
   1d9ac:	69745f62 	ldmdbvs	r4!, {r1, r5, r6, r8, r9, sl, fp, ip, lr}^
   1d9b0:	0000656d 	andeq	r6, r0, sp, ror #10

0001d9b4 <DMXUSBPRO_PARAMS_REFRESH_RATE>:
   1d9b4:	75786d64 	ldrbvc	r6, [r8, #-3428]!	; 0xfffff29c
   1d9b8:	72706273 	rsbsvc	r6, r0, #805306375	; 0x30000007
   1d9bc:	65725f6f 	ldrbvs	r5, [r2, #-3951]!	; 0xfffff091
   1d9c0:	73657266 	cmnvc	r5, #1610612742	; 0x60000006
   1d9c4:	61725f68 	cmnvs	r2, r8, ror #30
   1d9c8:	00006574 	andeq	r6, r0, r4, ror r5

0001d9cc <PARAMS_WIDGET_MODE>:
   1d9cc:	67646977 			; <UNDEFINED> instruction: 0x67646977
   1d9d0:	6d5f7465 	cfldrdvs	mvd7, [pc, #-404]	; 1d844 <__udivdi3+0x3c>
   1d9d4:	0065646f 	rsbeq	r6, r5, pc, ror #8

0001d9d8 <PARAMS_DMX_SEND_TO_HOST_THROTTLE>:
   1d9d8:	5f786d64 	svcpl	0x00786d64
   1d9dc:	646e6573 	strbtvs	r6, [lr], #-1395	; 0xfffffa8d
   1d9e0:	5f6f745f 	svcpl	0x006f745f
   1d9e4:	74736f68 	ldrbtvc	r6, [r3], #-3944	; 0xfffff098
   1d9e8:	7268745f 	rsbvc	r7, r8, #1593835520	; 0x5f000000
   1d9ec:	6c74746f 	cfldrdvs	mvd7, [r4], #-444	; 0xfffffe44
   1d9f0:	00000065 	andeq	r0, r0, r5, rrx

0001d9f4 <DEVICE_TYPE_ID>:
   1d9f4:	00000001 	andeq	r0, r0, r1

0001d9f8 <poll_table>:
   1d9f8:	0000ac6c 	andeq	sl, r0, ip, ror #24
   1d9fc:	0000a770 	andeq	sl, r0, r0, ror r7
   1da00:	0000abe4 	andeq	sl, r0, r4, ror #23
   1da04:	0000a85c 	andeq	sl, r0, ip, asr r8
   1da08:	0000ab60 	andeq	sl, r0, r0, ror #22
   1da0c:	0000ba0c 	andeq	fp, r0, ip, lsl #20
   1da10:	0000b88c 	andeq	fp, r0, ip, lsl #17
   1da14:	00008f00 	andeq	r8, r0, r0, lsl #30

0001da18 <events>:
   1da18:	000f4240 	andeq	r4, pc, r0, asr #4
   1da1c:	0000b3c8 	andeq	fp, r0, r8, asr #7

0001da20 <LfnOfs>:
   1da20:	07050301 	streq	r0, [r5, -r1, lsl #6]
   1da24:	12100e09 	andsne	r0, r0, #9, 28	; 0x90
   1da28:	1c181614 	ldcne	6, cr1, [r8], {20}
   1da2c:	0000001e 	andeq	r0, r0, lr, lsl r0

0001da30 <ExCvt>:
   1da30:	b6909a80 	ldrlt	r9, [r0], r0, lsl #21
   1da34:	808fb78e 	addhi	fp, pc, lr, lsl #15
   1da38:	d8d4d3d2 	ldmle	r4, {r1, r4, r6, r7, r8, r9, ip, lr, pc}^
   1da3c:	8f8eded7 	svchi	0x008eded7
   1da40:	e2929290 	adds	r9, r2, #144, 4
   1da44:	ebeae399 	bl	ffad68b0 <__ram_end+0xf7ad68b0>
   1da48:	9d9a9959 	ldcls	9, cr9, [sl, #356]	; 0x164
   1da4c:	9f9e9d9c 	svcls	0x009e9d9c
   1da50:	e9e0d6b5 	stmib	r0!, {r0, r2, r4, r5, r7, r9, sl, ip, lr, pc}^
   1da54:	a7a6a5a5 	strge	sl, [r6, r5, lsr #11]!
   1da58:	abaaa9a8 	blge	feac8100 <__ram_end+0xf6ac8100>
   1da5c:	afae21ac 	svcge	0x00ae21ac
   1da60:	b3b2b1b0 			; <UNDEFINED> instruction: 0xb3b2b1b0
   1da64:	b7b6b5b4 			; <UNDEFINED> instruction: 0xb7b6b5b4
   1da68:	bbbab9b8 	bllt	feecc150 <__ram_end+0xf6ecc150>
   1da6c:	bfbebdbc 	svclt	0x00bebdbc
   1da70:	c3c2c1c0 	bicgt	ip, r2, #192, 2	; 0x30
   1da74:	c7c7c5c4 	strbgt	ip, [r7, r4, asr #11]
   1da78:	cbcac9c8 	blgt	ff2d01a0 <__ram_end+0xf72d01a0>
   1da7c:	cfcecdcc 	svcgt	0x00cecdcc
   1da80:	d3d2d1d0 	bicsle	sp, r2, #208, 2	; 0x34
   1da84:	d7d6d5d4 			; <UNDEFINED> instruction: 0xd7d6d5d4
   1da88:	dbdad9d8 	blle	ff6d41f0 <__ram_end+0xf76d41f0>
   1da8c:	dfdedddc 	svcle	0x00dedddc
   1da90:	e3e2e1e0 	mvn	lr, #224, 2	; 0x38
   1da94:	e7e6e5e5 	strb	lr, [r6, r5, ror #11]!
   1da98:	ebeae9e7 	bl	ffad823c <__ram_end+0xf7ad823c>
   1da9c:	efeeeded 	svc	0x00eeeded
   1daa0:	f3f2f1f0 	vsra.u64	<illegal reg q15.5>, q8, #14
   1daa4:	f7f6f5f4 			; <UNDEFINED> instruction: 0xf7f6f5f4
   1daa8:	fbfaf9f8 	blx	ffedc292 <__ram_end+0xf7edc292>
   1daac:	fffefdfc 			; <UNDEFINED> instruction: 0xfffefdfc

0001dab0 <Tbl>:
   1dab0:	00fc00c7 	rscseq	r0, ip, r7, asr #1
   1dab4:	00e200e9 	rsceq	r0, r2, r9, ror #1
   1dab8:	00e000e4 	rsceq	r0, r0, r4, ror #1
   1dabc:	00e700e5 	rsceq	r0, r7, r5, ror #1
   1dac0:	00eb00ea 	rsceq	r0, fp, sl, ror #1
   1dac4:	00ef00e8 	rsceq	r0, pc, r8, ror #1
   1dac8:	00ec00ee 	rsceq	r0, ip, lr, ror #1
   1dacc:	00c500c4 	sbceq	r0, r5, r4, asr #1
   1dad0:	00e600c9 	rsceq	r0, r6, r9, asr #1
   1dad4:	00f400c6 	rscseq	r0, r4, r6, asr #1
   1dad8:	00f200f6 	ldrshteq	r0, [r2], #6
   1dadc:	00f900fb 	ldrshteq	r0, [r9], #11
   1dae0:	00d600ff 	ldrsheq	r0, [r6], #15
   1dae4:	00f800dc 	ldrsbteq	r0, [r8], #12
   1dae8:	00d800a3 	sbcseq	r0, r8, r3, lsr #1
   1daec:	019200d7 	ldrsbeq	r0, [r2, r7]
   1daf0:	00ed00e1 	rsceq	r0, sp, r1, ror #1
   1daf4:	00fa00f3 	ldrshteq	r0, [sl], #3
   1daf8:	00d100f1 	ldrsheq	r0, [r1], #1
   1dafc:	00ba00aa 	adcseq	r0, sl, sl, lsr #1
   1db00:	00ae00bf 	strhteq	r0, [lr], pc
   1db04:	00bd00ac 	adcseq	r0, sp, ip, lsr #1
   1db08:	00a100bc 	strhteq	r0, [r1], ip
   1db0c:	00bb00ab 	adcseq	r0, fp, fp, lsr #1
   1db10:	25922591 	ldrcs	r2, [r2, #1425]	; 0x591
   1db14:	25022593 	strcs	r2, [r2, #-1427]	; 0xfffffa6d
   1db18:	00c12524 	sbceq	r2, r1, r4, lsr #10
   1db1c:	00c000c2 	sbceq	r0, r0, r2, asr #1
   1db20:	256300a9 	strbcs	r0, [r3, #-169]!	; 0xffffff57
   1db24:	25572551 	ldrbcs	r2, [r7, #-1361]	; 0xfffffaaf
   1db28:	00a2255d 	adceq	r2, r2, sp, asr r5
   1db2c:	251000a5 	ldrcs	r0, [r0, #-165]	; 0xffffff5b
   1db30:	25342514 	ldrcs	r2, [r4, #-1300]!	; 0xfffffaec
   1db34:	251c252c 	ldrcs	r2, [ip, #-1324]	; 0xfffffad4
   1db38:	253c2500 	ldrcs	r2, [ip, #-1280]!	; 0xfffffb00
   1db3c:	00c300e3 	sbceq	r0, r3, r3, ror #1
   1db40:	2554255a 	ldrbcs	r2, [r4, #-1370]	; 0xfffffaa6
   1db44:	25662569 	strbcs	r2, [r6, #-1385]!	; 0xfffffa97
   1db48:	25502560 	ldrbcs	r2, [r0, #-1376]	; 0xfffffaa0
   1db4c:	00a4256c 	adceq	r2, r4, ip, ror #10
   1db50:	00d000f0 	ldrsheq	r0, [r0], #0
   1db54:	00cb00ca 	sbceq	r0, fp, sl, asr #1
   1db58:	013100c8 	teqeq	r1, r8, asr #1
   1db5c:	00ce00cd 	sbceq	r0, lr, sp, asr #1
   1db60:	251800cf 	ldrcs	r0, [r8, #-207]	; 0xffffff31
   1db64:	2588250c 	strcs	r2, [r8, #1292]	; 0x50c
   1db68:	00a62584 	adceq	r2, r6, r4, lsl #11
   1db6c:	258000cc 	strcs	r0, [r0, #204]	; 0xcc
   1db70:	00df00d3 	ldrsbeq	r0, [pc], #3	; <UNPREDICTABLE>
   1db74:	00d200d4 	ldrsbeq	r0, [r2], #4
   1db78:	00d500f5 	ldrsheq	r0, [r5], #5
   1db7c:	00fe00b5 	ldrhteq	r0, [lr], #5
   1db80:	00da00de 	ldrsbeq	r0, [sl], #14
   1db84:	00d900db 	ldrsbeq	r0, [r9], #11
   1db88:	00dd00fd 	ldrsheq	r0, [sp], #13
   1db8c:	00b400af 	adcseq	r0, r4, pc, lsr #1
   1db90:	00b100ad 	adcseq	r0, r1, sp, lsr #1
   1db94:	00be2017 	adcseq	r2, lr, r7, lsl r0
   1db98:	00a700b6 	strhteq	r0, [r7], r6
   1db9c:	00b800f7 	ldrshteq	r0, [r8], r7
   1dba0:	00a800b0 	strhteq	r0, [r8], r0
   1dba4:	00b900b7 	ldrhteq	r0, [r9], r7
   1dba8:	00b200b3 	ldrhteq	r0, [r2], r3
   1dbac:	00a025a0 	adceq	r2, r0, r0, lsr #11

0001dbb0 <tbl_lower.3831>:
   1dbb0:	00620061 	rsbeq	r0, r2, r1, rrx
   1dbb4:	00640063 	rsbeq	r0, r4, r3, rrx
   1dbb8:	00660065 	rsbeq	r0, r6, r5, rrx
   1dbbc:	00680067 	rsbeq	r0, r8, r7, rrx
   1dbc0:	006a0069 	rsbeq	r0, sl, r9, rrx
   1dbc4:	006c006b 	rsbeq	r0, ip, fp, rrx
   1dbc8:	006e006d 	rsbeq	r0, lr, sp, rrx
   1dbcc:	0070006f 	rsbseq	r0, r0, pc, rrx
   1dbd0:	00720071 	rsbseq	r0, r2, r1, ror r0
   1dbd4:	00740073 	rsbseq	r0, r4, r3, ror r0
   1dbd8:	00760075 	rsbseq	r0, r6, r5, ror r0
   1dbdc:	00780077 	rsbseq	r0, r8, r7, ror r0
   1dbe0:	007a0079 	rsbseq	r0, sl, r9, ror r0
   1dbe4:	00a200a1 	adceq	r0, r2, r1, lsr #1
   1dbe8:	00a500a3 	adceq	r0, r5, r3, lsr #1
   1dbec:	00af00ac 	adceq	r0, pc, ip, lsr #1
   1dbf0:	00e100e0 	rsceq	r0, r1, r0, ror #1
   1dbf4:	00e300e2 	rsceq	r0, r3, r2, ror #1
   1dbf8:	00e500e4 	rsceq	r0, r5, r4, ror #1
   1dbfc:	00e700e6 	rsceq	r0, r7, r6, ror #1
   1dc00:	00e900e8 	rsceq	r0, r9, r8, ror #1
   1dc04:	00eb00ea 	rsceq	r0, fp, sl, ror #1
   1dc08:	00ed00ec 	rsceq	r0, sp, ip, ror #1
   1dc0c:	00ef00ee 	rsceq	r0, pc, lr, ror #1
   1dc10:	00f100f0 	ldrshteq	r0, [r1], #0
   1dc14:	00f300f2 	ldrshteq	r0, [r3], #2
   1dc18:	00f500f4 	ldrshteq	r0, [r5], #4
   1dc1c:	00f800f6 	ldrshteq	r0, [r8], #6
   1dc20:	00fa00f9 	ldrshteq	r0, [sl], #9
   1dc24:	00fc00fb 	ldrshteq	r0, [ip], #11
   1dc28:	00fe00fd 	ldrshteq	r0, [lr], #13
   1dc2c:	010100ff 	strdeq	r0, [r1, -pc]
   1dc30:	01050103 	tsteq	r5, r3, lsl #2
   1dc34:	01090107 	tsteq	r9, r7, lsl #2
   1dc38:	010d010b 	tsteq	sp, fp, lsl #2
   1dc3c:	0111010f 	tsteq	r1, pc, lsl #2
   1dc40:	01150113 	tsteq	r5, r3, lsl r1
   1dc44:	01190117 	tsteq	r9, r7, lsl r1
   1dc48:	011d011b 	tsteq	sp, fp, lsl r1
   1dc4c:	0121011f 	teqeq	r1, pc, lsl r1
   1dc50:	01250123 	teqeq	r5, r3, lsr #2
   1dc54:	01290127 	teqeq	r9, r7, lsr #2
   1dc58:	012d012b 	teqeq	sp, fp, lsr #2
   1dc5c:	0131012f 	teqeq	r1, pc, lsr #2
   1dc60:	01350133 	teqeq	r5, r3, lsr r1
   1dc64:	013a0137 	teqeq	sl, r7, lsr r1
   1dc68:	013e013c 	teqeq	lr, ip, lsr r1
   1dc6c:	01420140 	cmpeq	r2, r0, asr #2
   1dc70:	01460144 	cmpeq	r6, r4, asr #2
   1dc74:	014b0148 	cmpeq	fp, r8, asr #2
   1dc78:	014f014d 	cmpeq	pc, sp, asr #2
   1dc7c:	01530151 	cmpeq	r3, r1, asr r1
   1dc80:	01570155 	cmpeq	r7, r5, asr r1
   1dc84:	015b0159 	cmpeq	fp, r9, asr r1
   1dc88:	015f015d 	cmpeq	pc, sp, asr r1	; <UNPREDICTABLE>
   1dc8c:	01630161 	cmneq	r3, r1, ror #2
   1dc90:	01670165 	cmneq	r7, r5, ror #2
   1dc94:	016b0169 	cmneq	fp, r9, ror #2
   1dc98:	016f016d 	cmneq	pc, sp, ror #2
   1dc9c:	01730171 	cmneq	r3, r1, ror r1
   1dca0:	01770175 	cmneq	r7, r5, ror r1
   1dca4:	017c017a 	cmneq	ip, sl, ror r1
   1dca8:	0192017e 	orrseq	r0, r2, lr, ror r1
   1dcac:	03b203b1 			; <UNDEFINED> instruction: 0x03b203b1
   1dcb0:	03b403b3 			; <UNDEFINED> instruction: 0x03b403b3
   1dcb4:	03b603b5 			; <UNDEFINED> instruction: 0x03b603b5
   1dcb8:	03b803b7 			; <UNDEFINED> instruction: 0x03b803b7
   1dcbc:	03ba03b9 			; <UNDEFINED> instruction: 0x03ba03b9
   1dcc0:	03bc03bb 			; <UNDEFINED> instruction: 0x03bc03bb
   1dcc4:	03be03bd 			; <UNDEFINED> instruction: 0x03be03bd
   1dcc8:	03c003bf 	biceq	r0, r0, #-67108862	; 0xfc000002
   1dccc:	03c303c1 	biceq	r0, r3, #67108867	; 0x4000003
   1dcd0:	03c503c4 	biceq	r0, r5, #196, 6	; 0x10000003
   1dcd4:	03c703c6 	biceq	r0, r7, #402653187	; 0x18000003
   1dcd8:	03c903c8 	biceq	r0, r9, #200, 6	; 0x20000003
   1dcdc:	043003ca 	ldrteq	r0, [r0], #-970	; 0xfffffc36
   1dce0:	04320431 	ldrteq	r0, [r2], #-1073	; 0xfffffbcf
   1dce4:	04340433 	ldrteq	r0, [r4], #-1075	; 0xfffffbcd
   1dce8:	04360435 	ldrteq	r0, [r6], #-1077	; 0xfffffbcb
   1dcec:	04380437 	ldrteq	r0, [r8], #-1079	; 0xfffffbc9
   1dcf0:	043a0439 	ldrteq	r0, [sl], #-1081	; 0xfffffbc7
   1dcf4:	043c043b 	ldrteq	r0, [ip], #-1083	; 0xfffffbc5
   1dcf8:	043e043d 	ldrteq	r0, [lr], #-1085	; 0xfffffbc3
   1dcfc:	0440043f 	strbeq	r0, [r0], #-1087	; 0xfffffbc1
   1dd00:	04420441 	strbeq	r0, [r2], #-1089	; 0xfffffbbf
   1dd04:	04440443 	strbeq	r0, [r4], #-1091	; 0xfffffbbd
   1dd08:	04460445 	strbeq	r0, [r6], #-1093	; 0xfffffbbb
   1dd0c:	04480447 	strbeq	r0, [r8], #-1095	; 0xfffffbb9
   1dd10:	044a0449 	strbeq	r0, [sl], #-1097	; 0xfffffbb7
   1dd14:	044c044b 	strbeq	r0, [ip], #-1099	; 0xfffffbb5
   1dd18:	044e044d 	strbeq	r0, [lr], #-1101	; 0xfffffbb3
   1dd1c:	0451044f 	ldrbeq	r0, [r1], #-1103	; 0xfffffbb1
   1dd20:	04530452 	ldrbeq	r0, [r3], #-1106	; 0xfffffbae
   1dd24:	04550454 	ldrbeq	r0, [r5], #-1108	; 0xfffffbac
   1dd28:	04570456 	ldrbeq	r0, [r7], #-1110	; 0xfffffbaa
   1dd2c:	04590458 	ldrbeq	r0, [r9], #-1112	; 0xfffffba8
   1dd30:	045b045a 	ldrbeq	r0, [fp], #-1114	; 0xfffffba6
   1dd34:	045e045c 	ldrbeq	r0, [lr], #-1116	; 0xfffffba4
   1dd38:	2170045f 	cmncs	r0, pc, asr r4
   1dd3c:	21722171 	cmncs	r2, r1, ror r1
   1dd40:	21742173 	cmncs	r4, r3, ror r1
   1dd44:	21762175 	cmncs	r6, r5, ror r1
   1dd48:	21782177 	cmncs	r8, r7, ror r1
   1dd4c:	217a2179 	cmncs	sl, r9, ror r1
   1dd50:	217c217b 	cmncs	ip, fp, ror r1
   1dd54:	217e217d 	cmncs	lr, sp, ror r1
   1dd58:	ff41217f 			; <UNDEFINED> instruction: 0xff41217f
   1dd5c:	ff43ff42 			; <UNDEFINED> instruction: 0xff43ff42
   1dd60:	ff45ff44 			; <UNDEFINED> instruction: 0xff45ff44
   1dd64:	ff47ff46 			; <UNDEFINED> instruction: 0xff47ff46
   1dd68:	ff49ff48 			; <UNDEFINED> instruction: 0xff49ff48
   1dd6c:	ff4bff4a 			; <UNDEFINED> instruction: 0xff4bff4a
   1dd70:	ff4dff4c 			; <UNDEFINED> instruction: 0xff4dff4c
   1dd74:	ff4fff4e 			; <UNDEFINED> instruction: 0xff4fff4e
   1dd78:	ff51ff50 			; <UNDEFINED> instruction: 0xff51ff50
   1dd7c:	ff53ff52 			; <UNDEFINED> instruction: 0xff53ff52
   1dd80:	ff55ff54 			; <UNDEFINED> instruction: 0xff55ff54
   1dd84:	ff57ff56 			; <UNDEFINED> instruction: 0xff57ff56
   1dd88:	ff59ff58 			; <UNDEFINED> instruction: 0xff59ff58
   1dd8c:	0000ff5a 	andeq	pc, r0, sl, asr pc	; <UNPREDICTABLE>

0001dd90 <tbl_upper.3832>:
   1dd90:	00420041 	subeq	r0, r2, r1, asr #32
   1dd94:	00440043 	subeq	r0, r4, r3, asr #32
   1dd98:	00460045 	subeq	r0, r6, r5, asr #32
   1dd9c:	00480047 	subeq	r0, r8, r7, asr #32
   1dda0:	004a0049 	subeq	r0, sl, r9, asr #32
   1dda4:	004c004b 	subeq	r0, ip, fp, asr #32
   1dda8:	004e004d 	subeq	r0, lr, sp, asr #32
   1ddac:	0050004f 	subseq	r0, r0, pc, asr #32
   1ddb0:	00520051 	subseq	r0, r2, r1, asr r0
   1ddb4:	00540053 	subseq	r0, r4, r3, asr r0
   1ddb8:	00560055 	subseq	r0, r6, r5, asr r0
   1ddbc:	00580057 	subseq	r0, r8, r7, asr r0
   1ddc0:	005a0059 	subseq	r0, sl, r9, asr r0
   1ddc4:	ffe00021 			; <UNDEFINED> instruction: 0xffe00021
   1ddc8:	ffe5ffe1 			; <UNDEFINED> instruction: 0xffe5ffe1
   1ddcc:	ffe3ffe2 			; <UNDEFINED> instruction: 0xffe3ffe2
   1ddd0:	00c100c0 	sbceq	r0, r1, r0, asr #1
   1ddd4:	00c300c2 	sbceq	r0, r3, r2, asr #1
   1ddd8:	00c500c4 	sbceq	r0, r5, r4, asr #1
   1dddc:	00c700c6 	sbceq	r0, r7, r6, asr #1
   1dde0:	00c900c8 	sbceq	r0, r9, r8, asr #1
   1dde4:	00cb00ca 	sbceq	r0, fp, sl, asr #1
   1dde8:	00cd00cc 	sbceq	r0, sp, ip, asr #1
   1ddec:	00cf00ce 	sbceq	r0, pc, lr, asr #1
   1ddf0:	00d100d0 	ldrsbeq	r0, [r1], #0
   1ddf4:	00d300d2 	ldrsbeq	r0, [r3], #2
   1ddf8:	00d500d4 	ldrsbeq	r0, [r5], #4
   1ddfc:	00d800d6 	ldrsbeq	r0, [r8], #6
   1de00:	00da00d9 	ldrsbeq	r0, [sl], #9
   1de04:	00dc00db 	ldrsbeq	r0, [ip], #11
   1de08:	00de00dd 	ldrsbeq	r0, [lr], #13
   1de0c:	01000178 	tsteq	r0, r8, ror r1
   1de10:	01040102 	tsteq	r4, r2, lsl #2
   1de14:	01080106 	tsteq	r8, r6, lsl #2
   1de18:	010c010a 	tsteq	ip, sl, lsl #2
   1de1c:	0110010e 	tsteq	r0, lr, lsl #2
   1de20:	01140112 	tsteq	r4, r2, lsl r1
   1de24:	01180116 	tsteq	r8, r6, lsl r1
   1de28:	011c011a 	tsteq	ip, sl, lsl r1
   1de2c:	0120011e 	teqeq	r0, lr, lsl r1
   1de30:	01240122 	teqeq	r4, r2, lsr #2
   1de34:	01280126 	teqeq	r8, r6, lsr #2
   1de38:	012c012a 	teqeq	ip, sl, lsr #2
   1de3c:	0130012e 	teqeq	r0, lr, lsr #2
   1de40:	01340132 	teqeq	r4, r2, lsr r1
   1de44:	01390136 	teqeq	r9, r6, lsr r1
   1de48:	013d013b 	teqeq	sp, fp, lsr r1
   1de4c:	0141013f 	cmpeq	r1, pc, lsr r1
   1de50:	01450143 	cmpeq	r5, r3, asr #2
   1de54:	014a0147 	cmpeq	sl, r7, asr #2
   1de58:	014e014c 	cmpeq	lr, ip, asr #2
   1de5c:	01520150 	cmpeq	r2, r0, asr r1
   1de60:	01560154 	cmpeq	r6, r4, asr r1
   1de64:	015a0158 	cmpeq	sl, r8, asr r1
   1de68:	015e015c 	cmpeq	lr, ip, asr r1
   1de6c:	01620160 	cmneq	r2, r0, ror #2
   1de70:	01660164 	cmneq	r6, r4, ror #2
   1de74:	016a0168 	cmneq	sl, r8, ror #2
   1de78:	016e016c 	cmneq	lr, ip, ror #2
   1de7c:	01720170 	cmneq	r2, r0, ror r1
   1de80:	01760174 	cmneq	r6, r4, ror r1
   1de84:	017b0179 	cmneq	fp, r9, ror r1
   1de88:	0191017d 	orrseq	r0, r1, sp, ror r1
   1de8c:	03920391 	orrseq	r0, r2, #1140850690	; 0x44000002
   1de90:	03940393 	orrseq	r0, r4, #1275068418	; 0x4c000002
   1de94:	03960395 	orrseq	r0, r6, #1409286146	; 0x54000002
   1de98:	03980397 	orrseq	r0, r8, #1543503874	; 0x5c000002
   1de9c:	039a0399 	orrseq	r0, sl, #1677721602	; 0x64000002
   1dea0:	039c039b 	orrseq	r0, ip, #1811939330	; 0x6c000002
   1dea4:	039e039d 	orrseq	r0, lr, #1946157058	; 0x74000002
   1dea8:	03a0039f 	moveq	r0, #2080374786	; 0x7c000002
   1deac:	03a303a1 			; <UNDEFINED> instruction: 0x03a303a1
   1deb0:	03a503a4 			; <UNDEFINED> instruction: 0x03a503a4
   1deb4:	03a703a6 			; <UNDEFINED> instruction: 0x03a703a6
   1deb8:	03a903a8 			; <UNDEFINED> instruction: 0x03a903a8
   1debc:	041003aa 	ldreq	r0, [r0], #-938	; 0xfffffc56
   1dec0:	04120411 	ldreq	r0, [r2], #-1041	; 0xfffffbef
   1dec4:	04140413 	ldreq	r0, [r4], #-1043	; 0xfffffbed
   1dec8:	04160415 	ldreq	r0, [r6], #-1045	; 0xfffffbeb
   1decc:	04180417 	ldreq	r0, [r8], #-1047	; 0xfffffbe9
   1ded0:	041a0419 	ldreq	r0, [sl], #-1049	; 0xfffffbe7
   1ded4:	041c041b 	ldreq	r0, [ip], #-1051	; 0xfffffbe5
   1ded8:	041e041d 	ldreq	r0, [lr], #-1053	; 0xfffffbe3
   1dedc:	0420041f 	strteq	r0, [r0], #-1055	; 0xfffffbe1
   1dee0:	04220421 	strteq	r0, [r2], #-1057	; 0xfffffbdf
   1dee4:	04240423 	strteq	r0, [r4], #-1059	; 0xfffffbdd
   1dee8:	04260425 	strteq	r0, [r6], #-1061	; 0xfffffbdb
   1deec:	04280427 	strteq	r0, [r8], #-1063	; 0xfffffbd9
   1def0:	042a0429 	strteq	r0, [sl], #-1065	; 0xfffffbd7
   1def4:	042c042b 	strteq	r0, [ip], #-1067	; 0xfffffbd5
   1def8:	042e042d 	strteq	r0, [lr], #-1069	; 0xfffffbd3
   1defc:	0401042f 	streq	r0, [r1], #-1071	; 0xfffffbd1
   1df00:	04030402 	streq	r0, [r3], #-1026	; 0xfffffbfe
   1df04:	04050404 	streq	r0, [r5], #-1028	; 0xfffffbfc
   1df08:	04070406 	streq	r0, [r7], #-1030	; 0xfffffbfa
   1df0c:	04090408 	streq	r0, [r9], #-1032	; 0xfffffbf8
   1df10:	040b040a 	streq	r0, [fp], #-1034	; 0xfffffbf6
   1df14:	040e040c 	streq	r0, [lr], #-1036	; 0xfffffbf4
   1df18:	2160040f 	cmncs	r0, pc, lsl #8
   1df1c:	21622161 	cmncs	r2, r1, ror #2
   1df20:	21642163 	cmncs	r4, r3, ror #2
   1df24:	21662165 	cmncs	r6, r5, ror #2
   1df28:	21682167 	cmncs	r8, r7, ror #2
   1df2c:	216a2169 	cmncs	sl, r9, ror #2
   1df30:	216c216b 	cmncs	ip, fp, ror #2
   1df34:	216e216d 	cmncs	lr, sp, ror #2
   1df38:	ff21216f 			; <UNDEFINED> instruction: 0xff21216f
   1df3c:	ff23ff22 			; <UNDEFINED> instruction: 0xff23ff22
   1df40:	ff25ff24 			; <UNDEFINED> instruction: 0xff25ff24
   1df44:	ff27ff26 			; <UNDEFINED> instruction: 0xff27ff26
   1df48:	ff29ff28 			; <UNDEFINED> instruction: 0xff29ff28
   1df4c:	ff2bff2a 			; <UNDEFINED> instruction: 0xff2bff2a
   1df50:	ff2dff2c 			; <UNDEFINED> instruction: 0xff2dff2c
   1df54:	ff2fff2e 			; <UNDEFINED> instruction: 0xff2fff2e
   1df58:	ff31ff30 			; <UNDEFINED> instruction: 0xff31ff30
   1df5c:	ff33ff32 			; <UNDEFINED> instruction: 0xff33ff32
   1df60:	ff35ff34 			; <UNDEFINED> instruction: 0xff35ff34
   1df64:	ff37ff36 			; <UNDEFINED> instruction: 0xff37ff36
   1df68:	ff39ff38 			; <UNDEFINED> instruction: 0xff39ff38
   1df6c:	0000ff3a 	andeq	pc, r0, sl, lsr pc	; <UNPREDICTABLE>

0001df70 <sd_commands>:
   1df70:	00000000 	andeq	r0, r0, r0
   1df74:	ffffffff 			; <UNDEFINED> instruction: 0xffffffff
   1df78:	02090000 	andeq	r0, r9, #0
   1df7c:	030a0000 	movweq	r0, #40960	; 0xa000
   1df80:	04000000 	streq	r0, [r0], #-0
   1df84:	05010000 	streq	r0, [r1, #-0]
   1df88:	060a0000 	streq	r0, [sl], -r0
   1df8c:	070b0000 	streq	r0, [fp, -r0]
   1df90:	080a0000 	stmdaeq	sl, {}	; <UNPREDICTABLE>
   1df94:	09090000 	stmdbeq	r9, {}	; <UNPREDICTABLE>
   1df98:	0a090000 	beq	25dfa0 <__sys_stack_top+0x23a8f0>
   1df9c:	0b0a0000 	bleq	29dfa4 <__sys_stack_top+0x27a8f4>
   1dfa0:	0ccb0000 	stcleq	0, cr0, [fp], {0}
   1dfa4:	0d0a0000 	stceq	0, cr0, [sl, #-0]
   1dfa8:	ffffffff 			; <UNDEFINED> instruction: 0xffffffff
   1dfac:	0f000000 	svceq	0x00000000
   1dfb0:	100a0000 	andne	r0, sl, r0
   1dfb4:	112a0010 	teqne	sl, r0, lsl r0
   1dfb8:	122a0032 	eorne	r0, sl, #50	; 0x32
   1dfbc:	132a0010 	teqne	sl, #16
   1dfc0:	140b0000 	strne	r0, [fp], #-0
   1dfc4:	ffffffff 			; <UNDEFINED> instruction: 0xffffffff
   1dfc8:	ffffffff 			; <UNDEFINED> instruction: 0xffffffff
   1dfcc:	170a0000 	strne	r0, [sl, -r0]
   1dfd0:	182a0000 	stmdane	sl!, {}	; <UNPREDICTABLE>
   1dfd4:	192a0022 	stmdbne	sl!, {r1, r5}
   1dfd8:	ffffffff 			; <UNDEFINED> instruction: 0xffffffff
   1dfdc:	1b2a0000 	blne	a9dfe4 <__sys_stack_top+0xa7a934>
   1dfe0:	1c0b0000 	stcne	0, cr0, [fp], {-0}
   1dfe4:	1d0b0000 	stcne	0, cr0, [fp, #-0]
   1dfe8:	1e2a0010 	mcrne	0, 1, r0, cr10, cr0, {0}
   1dfec:	ffffffff 			; <UNDEFINED> instruction: 0xffffffff
   1dff0:	200a0000 	andcs	r0, sl, r0
   1dff4:	210a0000 	mrscs	r0, (UNDEF: 10)
   1dff8:	ffffffff 			; <UNDEFINED> instruction: 0xffffffff
   1dffc:	ffffffff 			; <UNDEFINED> instruction: 0xffffffff
   1e000:	ffffffff 			; <UNDEFINED> instruction: 0xffffffff
   1e004:	ffffffff 			; <UNDEFINED> instruction: 0xffffffff
   1e008:	260b0000 	strcs	r0, [fp], -r0
   1e00c:	ffffffff 			; <UNDEFINED> instruction: 0xffffffff
   1e010:	ffffffff 			; <UNDEFINED> instruction: 0xffffffff
   1e014:	ffffffff 			; <UNDEFINED> instruction: 0xffffffff
   1e018:	ffffffff 			; <UNDEFINED> instruction: 0xffffffff
   1e01c:	ffffffff 			; <UNDEFINED> instruction: 0xffffffff
   1e020:	ffffffff 			; <UNDEFINED> instruction: 0xffffffff
   1e024:	ffffffff 			; <UNDEFINED> instruction: 0xffffffff
   1e028:	ffffffff 			; <UNDEFINED> instruction: 0xffffffff
   1e02c:	ffffffff 			; <UNDEFINED> instruction: 0xffffffff
   1e030:	ffffffff 			; <UNDEFINED> instruction: 0xffffffff
   1e034:	ffffffff 			; <UNDEFINED> instruction: 0xffffffff
   1e038:	ffffffff 			; <UNDEFINED> instruction: 0xffffffff
   1e03c:	ffffffff 			; <UNDEFINED> instruction: 0xffffffff
   1e040:	ffffffff 			; <UNDEFINED> instruction: 0xffffffff
   1e044:	ffffffff 			; <UNDEFINED> instruction: 0xffffffff
   1e048:	ffffffff 			; <UNDEFINED> instruction: 0xffffffff
   1e04c:	370a0000 	strcc	r0, [sl, -r0]
   1e050:	382a0000 	stmdacc	sl!, {}	; <UNPREDICTABLE>
   1e054:	ffffffff 			; <UNDEFINED> instruction: 0xffffffff
   1e058:	ffffffff 			; <UNDEFINED> instruction: 0xffffffff
   1e05c:	ffffffff 			; <UNDEFINED> instruction: 0xffffffff
   1e060:	ffffffff 			; <UNDEFINED> instruction: 0xffffffff
   1e064:	ffffffff 			; <UNDEFINED> instruction: 0xffffffff
   1e068:	ffffffff 			; <UNDEFINED> instruction: 0xffffffff
   1e06c:	ffffffff 			; <UNDEFINED> instruction: 0xffffffff

0001e070 <FIRMWARE_COPYRIGHT>:
   1e070:	79706f43 	ldmdbvc	r0!, {r0, r1, r6, r8, r9, sl, fp, sp, lr}^
   1e074:	68676972 	stmdavs	r7!, {r1, r4, r5, r6, r8, fp, sp, lr}^
   1e078:	63282074 	teqvs	r8, #116	; 0x74
   1e07c:	30322029 	eorscc	r2, r2, r9, lsr #32
   1e080:	42203231 	eormi	r3, r0, #268435459	; 0x10000003
   1e084:	64616f72 	strbtvs	r6, [r1], #-3954	; 0xfffff08e
   1e088:	006d6f63 	rsbeq	r6, sp, r3, ror #30

0001e08c <board_version>:
   1e08c:	00000000 	andeq	r0, r0, r0
   1e090:	65646f4d 	strbvs	r6, [r4, #-3917]!	; 0xfffff0b3
   1e094:	6e55206c 	cdpvs	0, 5, cr2, cr5, cr12, {3}
   1e098:	776f6e6b 	strbvc	r6, [pc, -fp, ror #28]!
   1e09c:	2020206e 	eorcs	r2, r0, lr, rrx
   1e0a0:	20202020 	eorcs	r2, r0, r0, lsr #32
   1e0a4:	00000000 	andeq	r0, r0, r0
   1e0a8:	00000002 	andeq	r0, r0, r2
   1e0ac:	65646f4d 	strbvs	r6, [r4, #-3917]!	; 0xfffff0b3
   1e0b0:	2042206c 	subcs	r2, r2, ip, rrx
   1e0b4:	32203152 	eorcc	r3, r0, #-2147483628	; 0x80000014
   1e0b8:	424d3635 	submi	r3, sp, #55574528	; 0x3500000
   1e0bc:	20202020 	eorcs	r2, r0, r0, lsr #32
   1e0c0:	00000000 	andeq	r0, r0, r0
   1e0c4:	00000003 	andeq	r0, r0, r3
   1e0c8:	65646f4d 	strbvs	r6, [r4, #-3917]!	; 0xfffff0b3
   1e0cc:	2042206c 	subcs	r2, r2, ip, rrx
   1e0d0:	32203152 	eorcc	r3, r0, #-2147483628	; 0x80000014
   1e0d4:	424d3635 	submi	r3, sp, #55574528	; 0x3500000
   1e0d8:	20202020 	eorcs	r2, r0, r0, lsr #32
   1e0dc:	00000000 	andeq	r0, r0, r0
   1e0e0:	00000004 	andeq	r0, r0, r4
   1e0e4:	65646f4d 	strbvs	r6, [r4, #-3917]!	; 0xfffff0b3
   1e0e8:	2042206c 	subcs	r2, r2, ip, rrx
   1e0ec:	32203252 	eorcc	r3, r0, #536870917	; 0x20000005
   1e0f0:	424d3635 	submi	r3, sp, #55574528	; 0x3500000
   1e0f4:	20202020 	eorcs	r2, r0, r0, lsr #32
   1e0f8:	00000000 	andeq	r0, r0, r0
   1e0fc:	00000005 	andeq	r0, r0, r5
   1e100:	65646f4d 	strbvs	r6, [r4, #-3917]!	; 0xfffff0b3
   1e104:	2042206c 	subcs	r2, r2, ip, rrx
   1e108:	32203252 	eorcc	r3, r0, #536870917	; 0x20000005
   1e10c:	424d3635 	submi	r3, sp, #55574528	; 0x3500000
   1e110:	20202020 	eorcs	r2, r0, r0, lsr #32
   1e114:	00000000 	andeq	r0, r0, r0
   1e118:	00000006 	andeq	r0, r0, r6
   1e11c:	65646f4d 	strbvs	r6, [r4, #-3917]!	; 0xfffff0b3
   1e120:	2042206c 	subcs	r2, r2, ip, rrx
   1e124:	32203252 	eorcc	r3, r0, #536870917	; 0x20000005
   1e128:	424d3635 	submi	r3, sp, #55574528	; 0x3500000
   1e12c:	20202020 	eorcs	r2, r0, r0, lsr #32
   1e130:	00000000 	andeq	r0, r0, r0
   1e134:	00000007 	andeq	r0, r0, r7
   1e138:	65646f4d 	strbvs	r6, [r4, #-3917]!	; 0xfffff0b3
   1e13c:	2041206c 	subcs	r2, r1, ip, rrx
   1e140:	4d363532 	cfldr32mi	mvfx3, [r6, #-200]!	; 0xffffff38
   1e144:	20202042 	eorcs	r2, r0, r2, asr #32
   1e148:	20202020 	eorcs	r2, r0, r0, lsr #32
   1e14c:	00000000 	andeq	r0, r0, r0
   1e150:	00000008 	andeq	r0, r0, r8
   1e154:	65646f4d 	strbvs	r6, [r4, #-3917]!	; 0xfffff0b3
   1e158:	2041206c 	subcs	r2, r1, ip, rrx
   1e15c:	4d363532 	cfldr32mi	mvfx3, [r6, #-200]!	; 0xffffff38
   1e160:	20202042 	eorcs	r2, r0, r2, asr #32
   1e164:	20202020 	eorcs	r2, r0, r0, lsr #32
   1e168:	00000000 	andeq	r0, r0, r0
   1e16c:	00000009 	andeq	r0, r0, r9
   1e170:	65646f4d 	strbvs	r6, [r4, #-3917]!	; 0xfffff0b3
   1e174:	2041206c 	subcs	r2, r1, ip, rrx
   1e178:	4d363532 	cfldr32mi	mvfx3, [r6, #-200]!	; 0xffffff38
   1e17c:	20202042 	eorcs	r2, r0, r2, asr #32
   1e180:	20202020 	eorcs	r2, r0, r0, lsr #32
   1e184:	00000000 	andeq	r0, r0, r0
   1e188:	0000000d 	andeq	r0, r0, sp
   1e18c:	65646f4d 	strbvs	r6, [r4, #-3917]!	; 0xfffff0b3
   1e190:	2042206c 	subcs	r2, r2, ip, rrx
   1e194:	35203252 	strcc	r3, [r0, #-594]!	; 0xfffffdae
   1e198:	424d3231 	submi	r3, sp, #268435459	; 0x10000003
   1e19c:	20202020 	eorcs	r2, r0, r0, lsr #32
   1e1a0:	00000000 	andeq	r0, r0, r0
   1e1a4:	0000000e 	andeq	r0, r0, lr
   1e1a8:	65646f4d 	strbvs	r6, [r4, #-3917]!	; 0xfffff0b3
   1e1ac:	2042206c 	subcs	r2, r2, ip, rrx
   1e1b0:	35203252 	strcc	r3, [r0, #-594]!	; 0xfffffdae
   1e1b4:	424d3231 	submi	r3, sp, #268435459	; 0x10000003
   1e1b8:	20202020 	eorcs	r2, r0, r0, lsr #32
   1e1bc:	00000000 	andeq	r0, r0, r0
   1e1c0:	0000000f 	andeq	r0, r0, pc
   1e1c4:	65646f4d 	strbvs	r6, [r4, #-3917]!	; 0xfffff0b3
   1e1c8:	2042206c 	subcs	r2, r2, ip, rrx
   1e1cc:	35203252 	strcc	r3, [r0, #-594]!	; 0xfffffdae
   1e1d0:	424d3231 	submi	r3, sp, #268435459	; 0x10000003
   1e1d4:	20202020 	eorcs	r2, r0, r0, lsr #32
   1e1d8:	00000000 	andeq	r0, r0, r0
   1e1dc:	00000010 	andeq	r0, r0, r0, lsl r0
   1e1e0:	65646f4d 	strbvs	r6, [r4, #-3917]!	; 0xfffff0b3
   1e1e4:	2b42206c 	blcs	10a639c <__sys_stack_top+0x1082cec>
   1e1e8:	32313520 	eorscc	r3, r1, #32, 10	; 0x8000000
   1e1ec:	2020424d 	eorcs	r4, r0, sp, asr #4
   1e1f0:	20202020 	eorcs	r2, r0, r0, lsr #32
   1e1f4:	00000000 	andeq	r0, r0, r0
   1e1f8:	00000011 	andeq	r0, r0, r1, lsl r0
   1e1fc:	706d6f43 	rsbvc	r6, sp, r3, asr #30
   1e200:	20657475 	rsbcs	r7, r5, r5, ror r4
   1e204:	75646f4d 	strbvc	r6, [r4, #-3917]!	; 0xfffff0b3
   1e208:	3520656c 	strcc	r6, [r0, #-1388]!	; 0xfffffa94
   1e20c:	424d3231 	submi	r3, sp, #268435459	; 0x10000003
   1e210:	00000000 	andeq	r0, r0, r0
   1e214:	00000012 	andeq	r0, r0, r2, lsl r0
   1e218:	65646f4d 	strbvs	r6, [r4, #-3917]!	; 0xfffff0b3
   1e21c:	2b41206c 	blcs	10663d4 <__sys_stack_top+0x1042d24>
   1e220:	36353220 	ldrtcc	r3, [r5], -r0, lsr #4
   1e224:	2020424d 	eorcs	r4, r0, sp, asr #4
   1e228:	20202020 	eorcs	r2, r0, r0, lsr #32
   1e22c:	00000000 	andeq	r0, r0, r0
   1e230:	00a01041 	adceq	r1, r0, r1, asr #32
   1e234:	32206950 	eorcc	r6, r0, #80, 18	; 0x140000
   1e238:	646f4d20 	strbtvs	r4, [pc], #-3360	; 1e240 <board_version+0x1b4>
   1e23c:	42206c65 	eormi	r6, r0, #25856	; 0x6500
   1e240:	42473120 	submi	r3, r7, #32, 2
   1e244:	20202020 	eorcs	r2, r0, r0, lsr #32
   1e248:	00000000 	andeq	r0, r0, r0
   1e24c:	00a21041 	adceq	r1, r2, r1, asr #32
   1e250:	32206950 	eorcc	r6, r0, #80, 18	; 0x140000
   1e254:	646f4d20 	strbtvs	r4, [pc], #-3360	; 1e25c <board_version+0x1d0>
   1e258:	42206c65 	eormi	r6, r0, #25856	; 0x6500
   1e25c:	42473120 	submi	r3, r7, #32, 2
   1e260:	20202020 	eorcs	r2, r0, r0, lsr #32
   1e264:	00000000 	andeq	r0, r0, r0

0001e268 <_global_impure_ptr>:
   1e268:	0001edd8 	ldrdeq	lr, [r1], -r8

0001e26c <DAYS_IN_MONTH>:
   1e26c:	0000001f 	andeq	r0, r0, pc, lsl r0
   1e270:	0000001c 	andeq	r0, r0, ip, lsl r0
   1e274:	0000001f 	andeq	r0, r0, pc, lsl r0
   1e278:	0000001e 	andeq	r0, r0, lr, lsl r0
   1e27c:	0000001f 	andeq	r0, r0, pc, lsl r0
   1e280:	0000001e 	andeq	r0, r0, lr, lsl r0
   1e284:	0000001f 	andeq	r0, r0, pc, lsl r0
   1e288:	0000001f 	andeq	r0, r0, pc, lsl r0
   1e28c:	0000001e 	andeq	r0, r0, lr, lsl r0
   1e290:	0000001f 	andeq	r0, r0, pc, lsl r0
   1e294:	0000001e 	andeq	r0, r0, lr, lsl r0
   1e298:	0000001f 	andeq	r0, r0, pc, lsl r0

0001e29c <_DAYS_BEFORE_MONTH>:
   1e29c:	00000000 	andeq	r0, r0, r0
   1e2a0:	0000001f 	andeq	r0, r0, pc, lsl r0
   1e2a4:	0000003b 	andeq	r0, r0, fp, lsr r0
   1e2a8:	0000005a 	andeq	r0, r0, sl, asr r0
   1e2ac:	00000078 	andeq	r0, r0, r8, ror r0
   1e2b0:	00000097 	muleq	r0, r7, r0
   1e2b4:	000000b5 	strheq	r0, [r0], -r5
   1e2b8:	000000d4 	ldrdeq	r0, [r0], -r4
   1e2bc:	000000f3 	strdeq	r0, [r0], -r3
   1e2c0:	00000111 	andeq	r0, r0, r1, lsl r1
   1e2c4:	00000130 	andeq	r0, r0, r0, lsr r1
   1e2c8:	0000014e 	andeq	r0, r0, lr, asr #2

0001e2cc <__month_lengths>:
   1e2cc:	0000001f 	andeq	r0, r0, pc, lsl r0
   1e2d0:	0000001c 	andeq	r0, r0, ip, lsl r0
   1e2d4:	0000001f 	andeq	r0, r0, pc, lsl r0
   1e2d8:	0000001e 	andeq	r0, r0, lr, lsl r0
   1e2dc:	0000001f 	andeq	r0, r0, pc, lsl r0
   1e2e0:	0000001e 	andeq	r0, r0, lr, lsl r0
   1e2e4:	0000001f 	andeq	r0, r0, pc, lsl r0
   1e2e8:	0000001f 	andeq	r0, r0, pc, lsl r0
   1e2ec:	0000001e 	andeq	r0, r0, lr, lsl r0
   1e2f0:	0000001f 	andeq	r0, r0, pc, lsl r0
   1e2f4:	0000001e 	andeq	r0, r0, lr, lsl r0
   1e2f8:	0000001f 	andeq	r0, r0, pc, lsl r0
   1e2fc:	0000001f 	andeq	r0, r0, pc, lsl r0
   1e300:	0000001d 	andeq	r0, r0, sp, lsl r0
   1e304:	0000001f 	andeq	r0, r0, pc, lsl r0
   1e308:	0000001e 	andeq	r0, r0, lr, lsl r0
   1e30c:	0000001f 	andeq	r0, r0, pc, lsl r0
   1e310:	0000001e 	andeq	r0, r0, lr, lsl r0
   1e314:	0000001f 	andeq	r0, r0, pc, lsl r0
   1e318:	0000001f 	andeq	r0, r0, pc, lsl r0
   1e31c:	0000001e 	andeq	r0, r0, lr, lsl r0
   1e320:	0000001f 	andeq	r0, r0, pc, lsl r0
   1e324:	0000001e 	andeq	r0, r0, lr, lsl r0
   1e328:	0000001f 	andeq	r0, r0, pc, lsl r0
   1e32c:	61636f4c 	cmnvs	r3, ip, asr #30
   1e330:	6974206c 	ldmdbvs	r4!, {r2, r3, r5, r6, sp}^
   1e334:	2520656d 	strcs	r6, [r0, #-1389]!	; 0xfffffa93
   1e338:	3a64322e 	bcc	192abf8 <__sys_stack_top+0x1907548>
   1e33c:	64322e25 	ldrtvs	r2, [r2], #-3621	; 0xfffff1db
   1e340:	322e253a 	eorcc	r2, lr, #243269632	; 0xe800000
   1e344:	75202c64 	strvc	r2, [r0, #-3172]!	; 0xfffff39c
   1e348:	6d697470 	cfstrdvs	mvd7, [r9, #-448]!	; 0xfffffe40
   1e34c:	6c252065 	stcvs	0, cr2, [r5], #-404	; 0xfffffe6c
   1e350:	61642064 	cmnvs	r4, r4, rrx
   1e354:	202c7379 	eorcs	r7, ip, r9, ror r3
   1e358:	6c323025 	ldcvs	0, cr3, [r2], #-148	; 0xffffff6c
   1e35c:	30253a64 	eorcc	r3, r5, r4, ror #20
   1e360:	3a646c32 	bcc	1939430 <__sys_stack_top+0x1915d80>
   1e364:	6c323025 	ldcvs	0, cr3, [r2], #-148	; 0xffffff6c
   1e368:	00000a64 	andeq	r0, r0, r4, ror #20
   1e36c:	204d4452 	subcs	r4, sp, r2, asr r4
   1e370:	6b636150 	blvs	18f68b8 <__sys_stack_top+0x18d3208>
   1e374:	6c207465 	cfstrsvs	mvf7, [r0], #-404	; 0xfffffe6c
   1e378:	74676e65 	strbtvc	r6, [r7], #-3685	; 0xfffff19b
   1e37c:	203a2068 	eorscs	r2, sl, r8, rrx
   1e380:	000a6425 	andeq	r6, sl, r5, lsr #8
   1e384:	64322e25 	ldrtvs	r2, [r2], #-3621	; 0xfffff1db
   1e388:	342e252d 	strtcc	r2, [lr], #-1325	; 0xfffffad3
   1e38c:	2e253a64 	vnmulcs.f32	s6, s10, s9
   1e390:	20205832 	eorcs	r5, r0, r2, lsr r8
   1e394:	64322e25 	ldrtvs	r2, [r2], #-3621	; 0xfffff1db
   1e398:	342e252d 	strtcc	r2, [lr], #-1325	; 0xfffffad3
   1e39c:	2e253a64 	vnmulcs.f32	s6, s10, s9
   1e3a0:	25205832 	strcs	r5, [r0, #-2098]!	; 0xfffff7ce
   1e3a4:	2d64322e 	sfmcs	f3, 2, [r4, #-184]!	; 0xffffff48
   1e3a8:	64342e25 	ldrtvs	r2, [r4], #-3621	; 0xfffff1db
   1e3ac:	322e253a 	eorcc	r2, lr, #243269632	; 0xe800000
   1e3b0:	25202058 	strcs	r2, [r0, #-88]!	; 0xffffffa8
   1e3b4:	2d64322e 	sfmcs	f3, 2, [r4, #-184]!	; 0xffffff48
   1e3b8:	64342e25 	ldrtvs	r2, [r4], #-3621	; 0xfffff1db
   1e3bc:	322e253a 	eorcc	r2, lr, #243269632	; 0xe800000
   1e3c0:	00000a58 	andeq	r0, r0, r8, asr sl
   1e3c4:	312d3130 	teqcc	sp, r0, lsr r1
   1e3c8:	203a2036 	eorscs	r2, sl, r6, lsr r0
   1e3cc:	58322e25 	ldmdapl	r2!, {r0, r2, r5, r9, sl, fp, sp}
   1e3d0:	322e2520 	eorcc	r2, lr, #32, 10	; 0x8000000
   1e3d4:	2e252058 	mcrcs	0, 1, r2, cr5, cr8, {2}
   1e3d8:	25205832 	strcs	r5, [r0, #-2098]!	; 0xfffff7ce
   1e3dc:	2058322e 	subscs	r3, r8, lr, lsr #4
   1e3e0:	58322e25 	ldmdapl	r2!, {r0, r2, r5, r9, sl, fp, sp}
   1e3e4:	322e2520 	eorcc	r2, lr, #32, 10	; 0x8000000
   1e3e8:	2e252058 	mcrcs	0, 1, r2, cr5, cr8, {2}
   1e3ec:	25205832 	strcs	r5, [r0, #-2098]!	; 0xfffff7ce
   1e3f0:	2058322e 	subscs	r3, r8, lr, lsr #4
   1e3f4:	58322e25 	ldmdapl	r2!, {r0, r2, r5, r9, sl, fp, sp}
   1e3f8:	322e2520 	eorcc	r2, lr, #32, 10	; 0x8000000
   1e3fc:	2e252058 	mcrcs	0, 1, r2, cr5, cr8, {2}
   1e400:	25205832 	strcs	r5, [r0, #-2098]!	; 0xfffff7ce
   1e404:	2058322e 	subscs	r3, r8, lr, lsr #4
   1e408:	58322e25 	ldmdapl	r2!, {r0, r2, r5, r9, sl, fp, sp}
   1e40c:	322e2520 	eorcc	r2, lr, #32, 10	; 0x8000000
   1e410:	2e252058 	mcrcs	0, 1, r2, cr5, cr8, {2}
   1e414:	25205832 	strcs	r5, [r0, #-2098]!	; 0xfffff7ce
   1e418:	0a58322e 	beq	162acd8 <__sys_stack_top+0x1607628>
   1e41c:	00000000 	andeq	r0, r0, r0
   1e420:	332d3731 	teqcc	sp, #12845056	; 0xc40000
   1e424:	203a2032 	eorscs	r2, sl, r2, lsr r0
   1e428:	58322e25 	ldmdapl	r2!, {r0, r2, r5, r9, sl, fp, sp}
   1e42c:	322e2520 	eorcc	r2, lr, #32, 10	; 0x8000000
   1e430:	2e252058 	mcrcs	0, 1, r2, cr5, cr8, {2}
   1e434:	25205832 	strcs	r5, [r0, #-2098]!	; 0xfffff7ce
   1e438:	2058322e 	subscs	r3, r8, lr, lsr #4
   1e43c:	58322e25 	ldmdapl	r2!, {r0, r2, r5, r9, sl, fp, sp}
   1e440:	322e2520 	eorcc	r2, lr, #32, 10	; 0x8000000
   1e444:	2e252058 	mcrcs	0, 1, r2, cr5, cr8, {2}
   1e448:	25205832 	strcs	r5, [r0, #-2098]!	; 0xfffff7ce
   1e44c:	2058322e 	subscs	r3, r8, lr, lsr #4
   1e450:	58322e25 	ldmdapl	r2!, {r0, r2, r5, r9, sl, fp, sp}
   1e454:	322e2520 	eorcc	r2, lr, #32, 10	; 0x8000000
   1e458:	2e252058 	mcrcs	0, 1, r2, cr5, cr8, {2}
   1e45c:	25205832 	strcs	r5, [r0, #-2098]!	; 0xfffff7ce
   1e460:	2058322e 	subscs	r3, r8, lr, lsr #4
   1e464:	58322e25 	ldmdapl	r2!, {r0, r2, r5, r9, sl, fp, sp}
   1e468:	322e2520 	eorcc	r2, lr, #32, 10	; 0x8000000
   1e46c:	2e252058 	mcrcs	0, 1, r2, cr5, cr8, {2}
   1e470:	25205832 	strcs	r5, [r0, #-2098]!	; 0xfffff7ce
   1e474:	0a58322e 	beq	162ad34 <__sys_stack_top+0x1607684>
   1e478:	00000000 	andeq	r0, r0, r0
   1e47c:	6b636150 	blvs	18f69c4 <__sys_stack_top+0x18d3314>
   1e480:	20737465 	rsbscs	r7, r3, r5, ror #8
   1e484:	6c25203a 	stcvs	0, cr2, [r5], #-232	; 0xffffff18
   1e488:	44202c64 	strtmi	r2, [r0], #-3172	; 0xfffff39c
   1e48c:	2520584d 	strcs	r5, [r0, #-2125]!	; 0xfffff7b3
   1e490:	202c646c 	eorcs	r6, ip, ip, ror #8
   1e494:	204d4452 	subcs	r4, sp, r2, asr r4
   1e498:	0a646c25 	beq	1939534 <__sys_stack_top+0x1915e84>
   1e49c:	0000000a 	andeq	r0, r0, sl
   1e4a0:	63736944 	cmnvs	r3, #68, 18	; 0x110000
   1e4a4:	7265766f 	rsbvc	r7, r5, #116391936	; 0x6f00000
   1e4a8:	20202079 	eorcs	r2, r0, r9, ror r0
   1e4ac:	20202020 	eorcs	r2, r0, r0, lsr #32
   1e4b0:	3a202020 	bcc	826538 <__sys_stack_top+0x802e88>
   1e4b4:	646c2520 	strbtvs	r2, [ip], #-1312	; 0xfffffae0
   1e4b8:	0000000a 	andeq	r0, r0, sl
   1e4bc:	63736944 	cmnvs	r3, #68, 18	; 0x110000
   1e4c0:	7265766f 	rsbvc	r7, r5, #116391936	; 0x6f00000
   1e4c4:	65722079 	ldrbvs	r2, [r2, #-121]!	; 0xffffff87
   1e4c8:	6e6f7073 	mcrvs	0, 3, r7, cr15, cr3, {3}
   1e4cc:	3a206573 	bcc	837aa0 <__sys_stack_top+0x8143f0>
   1e4d0:	646c2520 	strbtvs	r2, [ip], #-1312	; 0xfffffae0
   1e4d4:	0000000a 	andeq	r0, r0, sl
   1e4d8:	20544547 	subscs	r4, r4, r7, asr #10
   1e4dc:	75716552 	ldrbvc	r6, [r1, #-1362]!	; 0xfffffaae
   1e4e0:	73747365 	cmnvc	r4, #-1811939327	; 0x94000001
   1e4e4:	20202020 	eorcs	r2, r0, r0, lsr #32
   1e4e8:	3a202020 	bcc	826570 <__sys_stack_top+0x802ec0>
   1e4ec:	646c2520 	strbtvs	r2, [ip], #-1312	; 0xfffffae0
   1e4f0:	0000000a 	andeq	r0, r0, sl
   1e4f4:	20544553 	subscs	r4, r4, r3, asr r5
   1e4f8:	75716552 	ldrbvc	r6, [r1, #-1362]!	; 0xfffffaae
   1e4fc:	73747365 	cmnvc	r4, #-1811939327	; 0x94000001
   1e500:	20202020 	eorcs	r2, r0, r0, lsr #32
   1e504:	3a202020 	bcc	82658c <__sys_stack_top+0x802edc>
   1e508:	646c2520 	strbtvs	r2, [ip], #-1312	; 0xfffffae0
   1e50c:	0000000a 	andeq	r0, r0, sl
   1e510:	584d440a 	stmdapl	sp, {r1, r3, sl, lr}^
   1e514:	64707520 	ldrbtvs	r7, [r0], #-1312	; 0xfffffae0
   1e518:	73657461 	cmnvc	r5, #1627389952	; 0x61000000
   1e51c:	6365732f 	cmnvs	r5, #-1140850688	; 0xbc000000
   1e520:	20642520 	rsbcs	r2, r4, r0, lsr #10
   1e524:	000a0a20 	andeq	r0, sl, r0, lsr #20
   1e528:	746f6c53 	strbtvc	r6, [pc], #-3155	; 1e530 <__month_lengths+0x264>
   1e52c:	6e692073 	mcrvs	0, 3, r2, cr9, cr3, {3}
   1e530:	63617020 	cmnvs	r1, #32
   1e534:	2074656b 	rsbscs	r6, r4, fp, ror #10
   1e538:	20206425 	eorcs	r6, r0, r5, lsr #8
   1e53c:	20202020 	eorcs	r2, r0, r0, lsr #32
   1e540:	0000000a 	andeq	r0, r0, sl
   1e544:	746f6c53 	strbtvc	r6, [pc], #-3155	; 1e54c <__month_lengths+0x280>
   1e548:	206f7420 	rsbcs	r7, pc, r0, lsr #8
   1e54c:	746f6c73 	strbtvc	r6, [pc], #-3187	; 1e554 <__month_lengths+0x288>
   1e550:	20202020 	eorcs	r2, r0, r0, lsr #32
   1e554:	20206425 	eorcs	r6, r0, r5, lsr #8
   1e558:	20202020 	eorcs	r2, r0, r0, lsr #32
   1e55c:	0000000a 	andeq	r0, r0, sl
   1e560:	61657242 	cmnvs	r5, r2, asr #4
   1e564:	6f74206b 	svcvs	0x0074206b
   1e568:	65726220 	ldrbvs	r6, [r2, #-544]!	; 0xfffffde0
   1e56c:	20206b61 	eorcs	r6, r0, r1, ror #22
   1e570:	20646c25 	rsbcs	r6, r4, r5, lsr #24
   1e574:	20202020 	eorcs	r2, r0, r0, lsr #32
   1e578:	0000000a 	andeq	r0, r0, sl
   1e57c:	746f6c53 	strbtvc	r6, [pc], #-3155	; 1e584 <__month_lengths+0x2b8>
   1e580:	6e692073 	mcrvs	0, 3, r2, cr9, cr3, {3}
   1e584:	63617020 	cmnvs	r1, #32
   1e588:	2074656b 	rsbscs	r6, r4, fp, ror #10
   1e58c:	20202d2d 	eorcs	r2, r0, sp, lsr #26
   1e590:	0a202020 	beq	826618 <__sys_stack_top+0x802f68>
   1e594:	00000000 	andeq	r0, r0, r0
   1e598:	746f6c53 	strbtvc	r6, [pc], #-3155	; 1e5a0 <__month_lengths+0x2d4>
   1e59c:	206f7420 	rsbcs	r7, pc, r0, lsr #8
   1e5a0:	746f6c73 	strbtvc	r6, [pc], #-3187	; 1e5a8 <__month_lengths+0x2dc>
   1e5a4:	20202020 	eorcs	r2, r0, r0, lsr #32
   1e5a8:	20202d2d 	eorcs	r2, r0, sp, lsr #26
   1e5ac:	0a202020 	beq	826634 <__sys_stack_top+0x802f84>
   1e5b0:	00000000 	andeq	r0, r0, r0
   1e5b4:	61657242 	cmnvs	r5, r2, asr #4
   1e5b8:	6f74206b 	svcvs	0x0074206b
   1e5bc:	65726220 	ldrbvs	r6, [r2, #-544]!	; 0xfffffde0
   1e5c0:	20206b61 	eorcs	r6, r0, r1, ror #22
   1e5c4:	20202d2d 	eorcs	r2, r0, sp, lsr #26
   1e5c8:	0a202020 	beq	826650 <__sys_stack_top+0x802fa0>
   1e5cc:	00000000 	andeq	r0, r0, r0
   1e5d0:	6c6c6f70 	stclvs	15, cr6, [ip], #-448	; 0xfffffe40
   1e5d4:	4345523a 	movtmi	r5, #21050	; 0x523a
   1e5d8:	45564945 	ldrbmi	r4, [r6, #-2373]	; 0xfffff6bb
   1e5dc:	4d445f44 	stclmi	15, cr5, [r4, #-272]	; 0xfffffef0
   1e5e0:	41505f58 	cmpmi	r0, r8, asr pc
   1e5e4:	54454b43 	strbpl	r4, [r5], #-2883	; 0xfffff4bd
   1e5e8:	00000000 	andeq	r0, r0, r0
   1e5ec:	646e6553 	strbtvs	r6, [lr], #-1363	; 0xfffffaad
   1e5f0:	584d4420 	stmdapl	sp, {r5, sl, lr}^
   1e5f4:	74616420 	strbtvc	r6, [r1], #-1056	; 0xfffffbe0
   1e5f8:	6f742061 	svcvs	0x00742061
   1e5fc:	534f4820 	movtpl	r4, #63520	; 0xf820
   1e600:	25202c54 	strcs	r2, [r0, #-3156]!	; 0xfffff3ac
   1e604:	00000064 	andeq	r0, r0, r4, rrx
   1e608:	646e6553 	strbtvs	r6, [lr], #-1363	; 0xfffffaad
   1e60c:	4d445220 	sfmmi	f5, 2, [r4, #-128]	; 0xffffff80
   1e610:	74616420 	strbtvc	r6, [r1], #-1056	; 0xfffffbe0
   1e614:	6f742061 	svcvs	0x00742061
   1e618:	534f4820 	movtpl	r4, #63520	; 0xf820
   1e61c:	70202c54 	eorvc	r2, r0, r4, asr ip
   1e620:	616b6361 	cmnvs	fp, r1, ror #6
   1e624:	6c206567 	cfstr32vs	mvfx6, [r0], #-412	; 0xfffffe64
   1e628:	74676e65 	strbtvc	r6, [r7], #-3685	; 0xfffff19b
   1e62c:	203a2068 	eorscs	r2, sl, r8, rrx
   1e630:	00006425 	andeq	r6, r0, r5, lsr #8
   1e634:	45434552 	strbmi	r4, [r3, #-1362]	; 0xfffffaae
   1e638:	44455649 	strbmi	r5, [r5], #-1609	; 0xfffff9b7
   1e63c:	4d44525f 	sfmmi	f5, 2, [r4, #-380]	; 0xfffffe84
   1e640:	4341505f 	movtmi	r5, #4191	; 0x105f
   1e644:	2054454b 	subscs	r4, r4, fp, asr #10
   1e648:	303a4353 	eorscc	r4, sl, r3, asr r3
   1e64c:	20434378 	subcs	r4, r3, r8, ror r3
   1e650:	253a6e74 	ldrcs	r6, [sl, #-3700]!	; 0xfffff18c
   1e654:	202c2064 	eorcs	r2, ip, r4, rrx
   1e658:	253a6363 	ldrcs	r6, [sl, #-867]!	; 0xfffffc9d
   1e65c:	2c78322e 	lfmcs	f3, 2, [r8], #-184	; 0xffffff48
   1e660:	64697020 	strbtvs	r7, [r9], #-32	; 0xffffffe0
   1e664:	0064253a 	rsbeq	r2, r4, sl, lsr r5
   1e668:	646e6553 	strbtvs	r6, [lr], #-1363	; 0xfffffaad
   1e66c:	4d445220 	sfmmi	f5, 2, [r4, #-128]	; 0xffffff80
   1e670:	74616420 	strbtvc	r6, [r1], #-1056	; 0xfffffbe0
   1e674:	6f742061 	svcvs	0x00742061
   1e678:	534f4820 	movtpl	r4, #63520	; 0xf820
   1e67c:	6d202c54 	stcvs	12, cr2, [r0, #-336]!	; 0xfffffeb0
   1e680:	61737365 	cmnvs	r3, r5, ror #6
   1e684:	6c5f6567 	cfldr64vs	mvdx6, [pc], {103}	; 0x67
   1e688:	74676e65 	strbtvc	r6, [r7], #-3685	; 0xfffff19b
   1e68c:	203a2068 	eorscs	r2, sl, r8, rrx
   1e690:	00006425 	andeq	r6, r0, r5, lsr #8
   1e694:	5f6d6472 	svcpl	0x006d6472
   1e698:	656d6974 	strbvs	r6, [sp, #-2420]!	; 0xfffff68c
   1e69c:	74756f5f 	ldrbtvc	r6, [r5], #-3935	; 0xfffff0a1
   1e6a0:	73656d5f 	cmnvc	r5, #6080	; 0x17c0
   1e6a4:	65676173 	strbvs	r6, [r7, #-371]!	; 0xfffffe8d
   1e6a8:	00000000 	andeq	r0, r0, r0
   1e6ac:	45434552 	strbmi	r4, [r3, #-1362]	; 0xfffffaae
   1e6b0:	44455649 	strbmi	r5, [r5], #-1609	; 0xfffff9b7
   1e6b4:	4d44525f 	sfmmi	f5, 2, [r4, #-380]	; 0xfffffe84
   1e6b8:	4341505f 	movtmi	r5, #4191	; 0x105f
   1e6bc:	2054454b 	subscs	r4, r4, fp, asr #10
   1e6c0:	303a4353 	eorscc	r4, sl, r3, asr r3
   1e6c4:	00454678 	subeq	r4, r5, r8, ror r6
   1e6c8:	5054554f 	subspl	r5, r4, pc, asr #10
   1e6cc:	4f5f5455 	svcmi	0x005f5455
   1e6d0:	5f594c4e 	svcpl	0x00594c4e
   1e6d4:	444e4553 	strbmi	r4, [lr], #-1363	; 0xfffffaad
   1e6d8:	584d445f 	stmdapl	sp, {r0, r1, r2, r3, r4, r6, sl, lr}^
   1e6dc:	4341505f 	movtmi	r5, #4191	; 0x105f
   1e6e0:	5f54454b 	svcpl	0x0054454b
   1e6e4:	55514552 	ldrbpl	r4, [r1, #-1362]	; 0xfffffaae
   1e6e8:	00545345 	subseq	r5, r4, r5, asr #6
   1e6ec:	45434552 	strbmi	r4, [r3, #-1362]	; 0xfffffaae
   1e6f0:	44455649 	strbmi	r5, [r5], #-1609	; 0xfffff9b7
   1e6f4:	584d445f 	stmdapl	sp, {r0, r1, r2, r3, r4, r6, sl, lr}^
   1e6f8:	534f435f 	movtpl	r4, #62303	; 0xf35f
   1e6fc:	5059545f 	subspl	r5, r9, pc, asr r4
   1e700:	00000045 	andeq	r0, r0, r5, asr #32
   1e704:	646e6553 	strbtvs	r6, [lr], #-1363	; 0xfffffaad
   1e708:	61686320 	cmnvs	r8, r0, lsr #6
   1e70c:	6465676e 	strbtvs	r6, [r5], #-1902	; 0xfffff892
   1e710:	584d4420 	stmdapl	sp, {r5, sl, lr}^
   1e714:	74616420 	strbtvc	r6, [r1], #-1056	; 0xfffffbe0
   1e718:	6f742061 	svcvs	0x00742061
   1e71c:	534f4820 	movtpl	r4, #63520	; 0xf820
   1e720:	00000054 	andeq	r0, r0, r4, asr r0
   1e724:	64253a4c 	strtvs	r3, [r5], #-2636	; 0xfffff5b4
   1e728:	2864253a 	stmdacs	r4!, {r1, r3, r4, r5, r8, sl, sp}^
   1e72c:	00296425 	eoreq	r6, r9, r5, lsr #8
   1e730:	5f544547 	svcpl	0x00544547
   1e734:	47444957 	smlsldmi	r4, r4, r7, r9	; <UNPREDICTABLE>
   1e738:	505f5445 	subspl	r5, pc, r5, asr #8
   1e73c:	4d415241 	sfmmi	f5, 2, [r1, #-260]	; 0xfffffefc
   1e740:	45525f53 	ldrbmi	r5, [r2, #-3923]	; 0xfffff0ad
   1e744:	00594c50 	subseq	r4, r9, r0, asr ip
   1e748:	5f544553 	svcpl	0x00544553
   1e74c:	47444957 	smlsldmi	r4, r4, r7, r9	; <UNPREDICTABLE>
   1e750:	505f5445 	subspl	r5, pc, r5, asr #8
   1e754:	4d415241 	sfmmi	f5, 2, [r1, #-260]	; 0xfffffefc
   1e758:	00000053 	andeq	r0, r0, r3, asr r0
   1e75c:	5f544547 	svcpl	0x00544547
   1e760:	47444957 	smlsldmi	r4, r4, r7, r9	; <UNPREDICTABLE>
   1e764:	4e5f5445 	cdpmi	4, 5, cr5, cr15, cr5, {2}
   1e768:	5f454d41 	svcpl	0x00454d41
   1e76c:	4542414c 	strbmi	r4, [r2, #-332]	; 0xfffffeb4
   1e770:	0000004c 	andeq	r0, r0, ip, asr #32
   1e774:	554e414d 	strbpl	r4, [lr, #-333]	; 0xfffffeb3
   1e778:	54434146 	strbpl	r4, [r3], #-326	; 0xfffffeba
   1e77c:	52455255 	subpl	r5, r5, #1342177285	; 0x50000005
   1e780:	42414c5f 	submi	r4, r1, #24320	; 0x5f00
   1e784:	00004c45 	andeq	r4, r0, r5, asr #24
   1e788:	45434552 	strbmi	r4, [r3, #-1362]	; 0xfffffaae
   1e78c:	5f455649 	svcpl	0x00455649
   1e790:	5f584d44 	svcpl	0x00584d44
   1e794:	435f4e4f 	cmpmi	pc, #1264	; 0x4f0
   1e798:	474e4148 	strbmi	r4, [lr, -r8, asr #2]
   1e79c:	00000045 	andeq	r0, r0, r5, asr #32
   1e7a0:	444e4553 	strbmi	r4, [lr], #-1363	; 0xfffffaad
   1e7a4:	4d44525f 	sfmmi	f5, 2, [r4, #-380]	; 0xfffffe84
   1e7a8:	4341505f 	movtmi	r5, #4191	; 0x105f
   1e7ac:	5f54454b 	svcpl	0x0054454b
   1e7b0:	55514552 	ldrbpl	r4, [r1, #-1362]	; 0xfffffaae
   1e7b4:	00545345 	subseq	r5, r4, r5, asr #6
   1e7b8:	444e4553 	strbmi	r4, [lr], #-1363	; 0xfffffaad
   1e7bc:	4d44525f 	sfmmi	f5, 2, [r4, #-380]	; 0xfffffe84
   1e7c0:	5349445f 	movtpl	r4, #37983	; 0x945f
   1e7c4:	45564f43 	ldrbmi	r4, [r6, #-3907]	; 0xfffff0bd
   1e7c8:	525f5952 	subspl	r5, pc, #1343488	; 0x148000
   1e7cc:	45555145 	ldrbmi	r5, [r5, #-325]	; 0xfffffebb
   1e7d0:	00005453 	andeq	r5, r0, r3, asr r4
   1e7d4:	6d726946 	ldclvs	9, cr6, [r2, #-280]!	; 0xfffffee8
   1e7d8:	65726177 	ldrbvs	r6, [r2, #-375]!	; 0xfffffe89
   1e7dc:	2e642520 	cdpcs	5, 6, cr2, cr4, cr0, {1}
   1e7e0:	42206425 	eormi	r6, r0, #620756992	; 0x25000000
   1e7e4:	6b616572 	blvs	1877db4 <__sys_stack_top+0x1854704>
   1e7e8:	656d6954 	strbvs	r6, [sp, #-2388]!	; 0xfffff6ac
   1e7ec:	28642520 	stmdacs	r4!, {r5, r8, sl, sp}^
   1e7f0:	20296425 	eorcs	r6, r9, r5, lsr #8
   1e7f4:	5442614d 	strbpl	r6, [r2], #-333	; 0xfffffeb3
   1e7f8:	20656d69 	rsbcs	r6, r5, r9, ror #26
   1e7fc:	25286425 	strcs	r6, [r8, #-1061]!	; 0xfffffbdb
   1e800:	52202964 	eorpl	r2, r0, #100, 18	; 0x190000
   1e804:	65726665 	ldrbvs	r6, [r2, #-1637]!	; 0xfffff99b
   1e808:	61526873 	cmpvs	r2, r3, ror r8
   1e80c:	25206574 	strcs	r6, [r0, #-1396]!	; 0xfffffa8c
   1e810:	64252864 	strtvs	r2, [r5], #-2148	; 0xfffff79c
   1e814:	00000029 	andeq	r0, r0, r9, lsr #32
   1e818:	75706e49 	ldrbvc	r6, [r0, #-3657]!	; 0xfffff1b7
   1e81c:	535b2074 	cmppl	fp, #116	; 0x74
   1e820:	5f444e45 	svcpl	0x00444e45
   1e824:	41574c41 	cmpmi	r7, r1, asr #24
   1e828:	005d5359 	subseq	r5, sp, r9, asr r3
   1e82c:	64206425 	strtvs	r6, [r0], #-1061	; 0xfffffbdb
   1e830:	7020786d 	eorvc	r7, r0, sp, ror #16
   1e834:	656b6361 	strbvs	r6, [fp, #-865]!	; 0xfffffc9f
   1e838:	70207374 	eorvc	r7, r0, r4, ror r3
   1e83c:	73207265 	teqvc	r0, #1342177286	; 0x50000006
   1e840:	6e6f6365 	cdpvs	3, 6, cr6, cr15, cr5, {3}
   1e844:	00000064 	andeq	r0, r0, r4, rrx
   1e848:	75706e49 	ldrbvc	r6, [r0, #-3657]!	; 0xfffff1b7
   1e84c:	535b2074 	cmppl	fp, #116	; 0x74
   1e850:	5f444e45 	svcpl	0x00444e45
   1e854:	445f4e4f 	ldrbmi	r4, [pc], #-3663	; 1e85c <__month_lengths+0x590>
   1e858:	5f415441 	svcpl	0x00415441
   1e85c:	4e414843 	cdpmi	8, 4, cr4, cr1, cr3, {2}
   1e860:	4f5f4547 	svcmi	0x005f4547
   1e864:	5d594c4e 	ldclpl	12, cr4, [r9, #-312]	; 0xfffffec8
   1e868:	00000000 	andeq	r0, r0, r0
   1e86c:	7074754f 	rsbsvc	r7, r4, pc, asr #10
   1e870:	00007475 	andeq	r7, r0, r5, ror r4
   1e874:	69614621 	stmdbvs	r1!, {r0, r5, r9, sl, lr}^
   1e878:	2164656c 	cmncs	r4, ip, ror #10
   1e87c:	6e614320 	cdpvs	3, 6, cr4, cr1, cr0, {1}
   1e880:	20746f6e 	rsbscs	r6, r4, lr, ror #30
   1e884:	646e6573 	strbtvs	r6, [lr], #-1395	; 0xfffffa8d
   1e888:	206f7420 	rsbcs	r7, pc, r0, lsr #8
   1e88c:	74736f68 	ldrbtvc	r6, [r3], #-3944	; 0xfffff098
   1e890:	00000000 	andeq	r0, r0, r0
   1e894:	646e6553 	strbtvs	r6, [lr], #-1363	; 0xfffffaad
   1e898:	584d4420 	stmdapl	sp, {r5, sl, lr}^
   1e89c:	74616420 	strbtvc	r6, [r1], #-1056	; 0xfffffbe0
   1e8a0:	6f742061 	svcvs	0x00742061
   1e8a4:	534f4820 	movtpl	r4, #63520	; 0xf820
   1e8a8:	00000054 	andeq	r0, r0, r4, asr r0
   1e8ac:	646e6553 	strbtvs	r6, [lr], #-1363	; 0xfffffaad
   1e8b0:	4d445220 	sfmmi	f5, 2, [r4, #-128]	; 0xffffff80
   1e8b4:	74616420 	strbtvc	r6, [r1], #-1056	; 0xfffffbe0
   1e8b8:	6f742061 	svcvs	0x00742061
   1e8bc:	534f4820 	movtpl	r4, #63520	; 0xf820
   1e8c0:	00000054 	andeq	r0, r0, r4, asr r0
   1e8c4:	706d6f43 	rsbvc	r6, sp, r3, asr #30
   1e8c8:	64656c69 	strbtvs	r6, [r5], #-3177	; 0xfffff397
   1e8cc:	206e6f20 	rsbcs	r6, lr, r0, lsr #30
   1e8d0:	61207325 	teqvs	r0, r5, lsr #6
   1e8d4:	73252074 	teqvc	r5, #116	; 0x74
   1e8d8:	0000000a 	andeq	r0, r0, sl
   1e8dc:	206c754a 	rsbcs	r7, ip, sl, asr #10
   1e8e0:	32203532 	eorcc	r3, r0, #209715200	; 0xc800000
   1e8e4:	00353130 	eorseq	r3, r5, r0, lsr r1
   1e8e8:	333a3431 	teqcc	sl, #822083584	; 0x31000000
   1e8ec:	39323a36 	ldmdbcc	r2!, {r1, r2, r4, r5, r9, fp, ip, sp}
   1e8f0:	00000000 	andeq	r0, r0, r0
   1e8f4:	204d4452 	subcs	r4, sp, r2, asr r4
   1e8f8:	746e6f43 	strbtvc	r6, [lr], #-3907	; 0xfffff0bd
   1e8fc:	6c6c6f72 	stclvs	15, cr6, [ip], #-456	; 0xfffffe38
   1e900:	77207265 	strvc	r7, [r0, -r5, ror #4]!
   1e904:	20687469 	rsbcs	r7, r8, r9, ror #8
   1e908:	20425355 	subcs	r5, r2, r5, asr r3
   1e90c:	6d6f435b 	stclvs	3, cr4, [pc, #-364]!	; 1e7a8 <__month_lengths+0x4dc>
   1e910:	69746170 	ldmdbvs	r4!, {r4, r5, r6, r8, sp, lr}^
   1e914:	20656c62 	rsbcs	r6, r5, r2, ror #24
   1e918:	68746977 	ldmdavs	r4!, {r0, r1, r2, r4, r5, r6, r8, fp, sp, lr}^
   1e91c:	746e4520 	strbtvc	r4, [lr], #-1312	; 0xfffffae0
   1e920:	20636574 	rsbcs	r6, r3, r4, ror r5
   1e924:	20425355 	subcs	r5, r2, r5, asr r3
   1e928:	206f7250 	rsbcs	r7, pc, r0, asr r2	; <UNPREDICTABLE>
   1e92c:	746f7270 	strbtvc	r7, [pc], #-624	; 1e934 <__month_lengths+0x668>
   1e930:	6c6f636f 	stclvs	3, cr6, [pc], #-444	; 1e77c <__month_lengths+0x4b0>
   1e934:	57202c5d 			; <UNDEFINED> instruction: 0x57202c5d
   1e938:	65676469 	strbvs	r6, [r7, #-1129]!	; 0xfffffb97
   1e93c:	6f6d2074 	svcvs	0x006d2074
   1e940:	3a206564 	bcc	837ed8 <__sys_stack_top+0x814828>
   1e944:	0a642520 	beq	1927dcc <__sys_stack_top+0x190471c>
   1e948:	00000000 	andeq	r0, r0, r0
   1e94c:	69766544 	ldmdbvs	r6!, {r2, r6, r8, sl, sp, lr}^
   1e950:	55206563 	strpl	r6, [r0, #-1379]!	; 0xfffffa9d
   1e954:	20444955 	subcs	r4, r4, r5, asr r9
   1e958:	2e25203a 	mcrcs	0, 1, r2, cr5, cr10, {1}
   1e95c:	2e257832 	mcrcs	8, 1, r7, cr5, cr2, {1}
   1e960:	253a7832 	ldrcs	r7, [sl, #-2098]!	; 0xfffff7ce
   1e964:	2578322e 	ldrbcs	r3, [r8, #-558]!	; 0xfffffdd2
   1e968:	2578322e 	ldrbcs	r3, [r8, #-558]!	; 0xfffffdd2
   1e96c:	2578322e 	ldrbcs	r3, [r8, #-558]!	; 0xfffffdd2
   1e970:	0a78322e 	beq	1e2b230 <__sys_stack_top+0x1e07b80>
   1e974:	00000000 	andeq	r0, r0, r0
   1e978:	3c3a2a22 	ldccc	10, cr2, [sl], #-136	; 0xffffff78
   1e97c:	7f7c3f3e 	svcvc	0x007c3f3e
   1e980:	00000000 	andeq	r0, r0, r0
   1e984:	3d3b2c2b 	ldccc	12, cr2, [fp, #-172]!	; 0xffffff54
   1e988:	00005d5b 	andeq	r5, r0, fp, asr sp
   1e98c:	203a4453 	eorscs	r4, sl, r3, asr r4
   1e990:	43206f6e 	teqmi	r0, #440	; 0x1b8
   1e994:	2030444d 	eorscs	r4, r0, sp, asr #8
   1e998:	70736572 	rsbsvc	r6, r3, r2, ror r5
   1e99c:	65736e6f 	ldrbvs	r6, [r3, #-3695]!	; 0xfffff191
   1e9a0:	0000000a 	andeq	r0, r0, sl
   1e9a4:	203a4453 	eorscs	r4, sl, r3, asr r4
   1e9a8:	6c696166 	stfvse	f6, [r9], #-408	; 0xfffffe68
   1e9ac:	20657275 	rsbcs	r7, r5, r5, ror r2
   1e9b0:	646e6573 	strbtvs	r6, [lr], #-1395	; 0xfffffa8d
   1e9b4:	20676e69 	rsbcs	r6, r7, r9, ror #28
   1e9b8:	38444d43 	stmdacc	r4, {r0, r1, r6, r8, sl, fp, lr}^
   1e9bc:	30252820 	eorcc	r2, r5, r0, lsr #16
   1e9c0:	0a297838 	beq	a7caa8 <__sys_stack_top+0xa593f8>
   1e9c4:	00000000 	andeq	r0, r0, r0
   1e9c8:	203a4453 	eorscs	r4, sl, r3, asr r4
   1e9cc:	73756e75 	cmnvc	r5, #1872	; 0x750
   1e9d0:	656c6261 	strbvs	r6, [ip, #-609]!	; 0xfffffd9f
   1e9d4:	72616320 	rsbvc	r6, r1, #32, 6	; 0x80000000
   1e9d8:	00000a64 	andeq	r0, r0, r4, ror #20
   1e9dc:	203a4453 	eorscs	r4, sl, r3, asr r4
   1e9e0:	4f494453 	svcmi	0x00494453
   1e9e4:	72616320 	rsbvc	r6, r1, #32, 6	; 0x80000000
   1e9e8:	65642064 	strbvs	r2, [r4, #-100]!	; 0xffffff9c
   1e9ec:	74636574 	strbtvc	r6, [r3], #-1396	; 0xfffffa8c
   1e9f0:	2d206465 	cfstrscs	mvf6, [r0, #-404]!	; 0xfffffe6c
   1e9f4:	746f6e20 	strbtvc	r6, [pc], #-3616	; 1e9fc <__month_lengths+0x730>
   1e9f8:	72756320 	rsbsvc	r6, r5, #32, 6	; 0x80000000
   1e9fc:	746e6572 	strbtvc	r6, [lr], #-1394	; 0xfffffa8e
   1ea00:	7320796c 	teqvc	r0, #108, 18	; 0x1b0000
   1ea04:	6f707075 	svcvs	0x00707075
   1ea08:	64657472 	strbtvs	r7, [r5], #-1138	; 0xfffffb8e
   1ea0c:	0000000a 	andeq	r0, r0, sl
   1ea10:	203a4453 	eorscs	r4, sl, r3, asr r4
   1ea14:	75716e69 	ldrbvc	r6, [r1, #-3689]!	; 0xfffff197
   1ea18:	20797269 	rsbscs	r7, r9, r9, ror #4
   1ea1c:	444d4341 	strbmi	r4, [sp], #-833	; 0xfffffcbf
   1ea20:	66203134 			; <UNDEFINED> instruction: 0x66203134
   1ea24:	656c6961 	strbvs	r6, [ip, #-2401]!	; 0xfffff69f
   1ea28:	00000a64 	andeq	r0, r0, r4, ror #20
   1ea2c:	203a4453 	eorscs	r4, sl, r3, asr r4
   1ea30:	6f727265 	svcvs	0x00727265
   1ea34:	73692072 	cmnvc	r9, #114	; 0x72
   1ea38:	6e697573 	mcrvs	5, 3, r7, cr9, cr3, {3}
   1ea3c:	43412067 	movtmi	r2, #4199	; 0x1067
   1ea40:	3134444d 	teqcc	r4, sp, asr #8
   1ea44:	0000000a 	andeq	r0, r0, sl
   1ea48:	203a4453 	eorscs	r4, sl, r3, asr r4
   1ea4c:	6f727265 	svcvs	0x00727265
   1ea50:	65732072 	ldrbvs	r2, [r3, #-114]!	; 0xffffff8e
   1ea54:	6e69646e 	cdpvs	4, 6, cr6, cr9, cr14, {3}
   1ea58:	4c412067 	mcrrmi	0, 6, r2, r1, cr7
   1ea5c:	45535f4c 	ldrbmi	r5, [r3, #-3916]	; 0xfffff0b4
   1ea60:	435f444e 	cmpmi	pc, #1308622848	; 0x4e000000
   1ea64:	000a4449 	andeq	r4, sl, r9, asr #8
   1ea68:	203a4453 	eorscs	r4, sl, r3, asr r4
   1ea6c:	6f727265 	svcvs	0x00727265
   1ea70:	65732072 	ldrbvs	r2, [r3, #-114]!	; 0xffffff8e
   1ea74:	6e69646e 	cdpvs	4, 6, cr6, cr9, cr14, {3}
   1ea78:	45532067 	ldrbmi	r2, [r3, #-103]	; 0xffffff99
   1ea7c:	525f444e 	subspl	r4, pc, #1308622848	; 0x4e000000
   1ea80:	54414c45 	strbpl	r4, [r1], #-3141	; 0xfffff3bb
   1ea84:	5f455649 	svcpl	0x00455649
   1ea88:	52444441 	subpl	r4, r4, #1090519040	; 0x41000000
   1ea8c:	0000000a 	andeq	r0, r0, sl
   1ea90:	203a4453 	eorscs	r4, sl, r3, asr r4
   1ea94:	20435243 	subcs	r5, r3, r3, asr #4
   1ea98:	6f727265 	svcvs	0x00727265
   1ea9c:	00000a72 	andeq	r0, r0, r2, ror sl
   1eaa0:	203a4453 	eorscs	r4, sl, r3, asr r4
   1eaa4:	656c6c69 	strbvs	r6, [ip, #-3177]!	; 0xfffff397
   1eaa8:	206c6167 	rsbcs	r6, ip, r7, ror #2
   1eaac:	6d6d6f63 	stclvs	15, cr6, [sp, #-396]!	; 0xfffffe74
   1eab0:	0a646e61 	beq	193a43c <__sys_stack_top+0x1916d8c>
   1eab4:	00000000 	andeq	r0, r0, r0
   1eab8:	203a4453 	eorscs	r4, sl, r3, asr r4
   1eabc:	656e6567 	strbvs	r6, [lr, #-1383]!	; 0xfffffa99
   1eac0:	20636972 	rsbcs	r6, r3, r2, ror r9
   1eac4:	6f727265 	svcvs	0x00727265
   1eac8:	00000a72 	andeq	r0, r0, r2, ror sl
   1eacc:	203a4453 	eorscs	r4, sl, r3, asr r4
   1ead0:	20746f6e 	rsbscs	r6, r4, lr, ror #30
   1ead4:	64616572 	strbtvs	r6, [r1], #-1394	; 0xfffffa8e
   1ead8:	6f662079 	svcvs	0x00662079
   1eadc:	61642072 	smcvs	16898	; 0x4202
   1eae0:	000a6174 	andeq	r6, sl, r4, ror r1
   1eae4:	203a4453 	eorscs	r4, sl, r3, asr r4
   1eae8:	6f727265 	svcvs	0x00727265
   1eaec:	65732072 	ldrbvs	r2, [r3, #-114]!	; 0xffffff8e
   1eaf0:	6e69646e 	cdpvs	4, 6, cr6, cr9, cr14, {3}
   1eaf4:	4d432067 	stclmi	0, cr2, [r3, #-412]	; 0xfffffe64
   1eaf8:	000a3744 	andeq	r3, sl, r4, asr #14
   1eafc:	203a4453 	eorscs	r4, sl, r3, asr r4
   1eb00:	61766e69 	cmnvs	r6, r9, ror #28
   1eb04:	2064696c 	rsbcs	r6, r4, ip, ror #18
   1eb08:	74617473 	strbtvc	r7, [r1], #-1139	; 0xfffffb8d
   1eb0c:	28207375 	stmdacs	r0!, {r0, r2, r4, r5, r6, r8, r9, ip, sp, lr}
   1eb10:	0a296925 	beq	a78fac <__sys_stack_top+0xa558fc>
   1eb14:	00000000 	andeq	r0, r0, r0
   1eb18:	203a4453 	eorscs	r4, sl, r3, asr r4
   1eb1c:	6f727265 	svcvs	0x00727265
   1eb20:	65732072 	ldrbvs	r2, [r3, #-114]!	; 0xffffff8e
   1eb24:	6e69646e 	cdpvs	4, 6, cr6, cr9, cr14, {3}
   1eb28:	45532067 	ldrbmi	r2, [r3, #-103]	; 0xffffff99
   1eb2c:	4c425f54 	mcrrmi	15, 5, r5, r2, cr4
   1eb30:	4c4b434f 	mcrrmi	3, 4, r4, fp, cr15
   1eb34:	000a4e45 	andeq	r4, sl, r5, asr #28
   1eb38:	203a4453 	eorscs	r4, sl, r3, asr r4
   1eb3c:	6f727265 	svcvs	0x00727265
   1eb40:	65732072 	ldrbvs	r2, [r3, #-114]!	; 0xffffff8e
   1eb44:	6e69646e 	cdpvs	4, 6, cr6, cr9, cr14, {3}
   1eb48:	45532067 	ldrbmi	r2, [r3, #-103]	; 0xffffff99
   1eb4c:	535f444e 	cmppl	pc, #1308622848	; 0x4e000000
   1eb50:	000a5243 	andeq	r5, sl, r3, asr #4
   1eb54:	203a4453 	eorscs	r4, sl, r3, asr r4
   1eb58:	74697773 	strbtvc	r7, [r9], #-1907	; 0xfffff88d
   1eb5c:	74206863 	strtvc	r6, [r0], #-2147	; 0xfffff79d
   1eb60:	2d34206f 	ldccs	0, cr2, [r4, #-444]!	; 0xfffffe44
   1eb64:	20746962 	rsbscs	r6, r4, r2, ror #18
   1eb68:	61746164 	cmnvs	r4, r4, ror #2
   1eb6c:	646f6d20 	strbtvs	r6, [pc], #-3360	; 1eb74 <__month_lengths+0x8a8>
   1eb70:	61662065 	cmnvs	r6, r5, rrx
   1eb74:	64656c69 	strbtvs	r6, [r5], #-3177	; 0xfffff397
   1eb78:	0000000a 	andeq	r0, r0, sl
   1eb7c:	203a4453 	eorscs	r4, sl, r3, asr r4
   1eb80:	75736e65 	ldrbvc	r6, [r3, #-3685]!	; 0xfffff19b
   1eb84:	645f6572 	ldrbvs	r6, [pc], #-1394	; 1eb8c <__month_lengths+0x8c0>
   1eb88:	5f617461 	svcpl	0x00617461
   1eb8c:	65646f6d 	strbvs	r6, [r4, #-3949]!	; 0xfffff093
   1eb90:	65202928 	strvs	r2, [r0, #-2344]!	; 0xfffff6d8
   1eb94:	726f7272 	rsbvc	r7, pc, #536870919	; 0x20000007
   1eb98:	6e657320 	cdpvs	3, 6, cr7, cr5, cr0, {1}
   1eb9c:	676e6964 	strbvs	r6, [lr, -r4, ror #18]!
   1eba0:	444d4320 	strbmi	r4, [sp], #-800	; 0xfffffce0
   1eba4:	000a3331 	andeq	r3, sl, r1, lsr r3
   1eba8:	203a4453 	eorscs	r4, sl, r3, asr r4
   1ebac:	75736e65 	ldrbvc	r6, [r3, #-3685]!	; 0xfffff19b
   1ebb0:	645f6572 	ldrbvs	r6, [pc], #-1394	; 1ebb8 <__month_lengths+0x8ec>
   1ebb4:	5f617461 	svcpl	0x00617461
   1ebb8:	65646f6d 	strbvs	r6, [r4, #-3949]!	; 0xfffff093
   1ebbc:	6e202928 	cdpvs	9, 2, cr2, cr0, cr8, {1}
   1ebc0:	6572206f 	ldrbvs	r2, [r2, #-111]!	; 0xffffff91
   1ebc4:	6e6f7073 	mcrvs	0, 3, r7, cr15, cr3, {3}
   1ebc8:	66206573 			; <UNDEFINED> instruction: 0x66206573
   1ebcc:	206d6f72 	rsbcs	r6, sp, r2, ror pc
   1ebd0:	31444d43 	cmpcc	r4, r3, asr #26
   1ebd4:	00000a37 	andeq	r0, r0, r7, lsr sl
   1ebd8:	203a4453 	eorscs	r4, sl, r3, asr r4
   1ebdc:	75736e65 	ldrbvc	r6, [r3, #-3685]!	; 0xfffff19b
   1ebe0:	645f6572 	ldrbvs	r6, [pc], #-1394	; 1ebe8 <__month_lengths+0x91c>
   1ebe4:	5f617461 	svcpl	0x00617461
   1ebe8:	65646f6d 	strbvs	r6, [r4, #-3949]!	; 0xfffff093
   1ebec:	6e202928 	cdpvs	9, 2, cr2, cr0, cr8, {1}
   1ebf0:	6572206f 	ldrbvs	r2, [r2, #-111]!	; 0xffffff91
   1ebf4:	6e6f7073 	mcrvs	0, 3, r7, cr15, cr3, {3}
   1ebf8:	66206573 			; <UNDEFINED> instruction: 0x66206573
   1ebfc:	206d6f72 	rsbcs	r6, sp, r2, ror pc
   1ec00:	31444d43 	cmpcc	r4, r3, asr #26
   1ec04:	00000a32 	andeq	r0, r0, r2, lsr sl
   1ec08:	203a4453 	eorscs	r4, sl, r3, asr r4
   1ec0c:	75736e65 	ldrbvc	r6, [r3, #-3685]!	; 0xfffff19b
   1ec10:	645f6572 	ldrbvs	r6, [pc], #-1394	; 1ec18 <__month_lengths+0x94c>
   1ec14:	5f617461 	svcpl	0x00617461
   1ec18:	65646f6d 	strbvs	r6, [r4, #-3949]!	; 0xfffff093
   1ec1c:	6e202928 	cdpvs	9, 2, cr2, cr0, cr8, {1}
   1ec20:	6572206f 	ldrbvs	r2, [r2, #-111]!	; 0xffffff91
   1ec24:	6e6f7073 	mcrvs	0, 3, r7, cr15, cr3, {3}
   1ec28:	66206573 			; <UNDEFINED> instruction: 0x66206573
   1ec2c:	206d6f72 	rsbcs	r6, sp, r2, ror pc
   1ec30:	31444d43 	cmpcc	r4, r3, asr #26
   1ec34:	00000a33 	andeq	r0, r0, r3, lsr sl
   1ec38:	203a4453 	eorscs	r4, sl, r3, asr r4
   1ec3c:	62616e75 	rsbvs	r6, r1, #1872	; 0x750
   1ec40:	7420656c 	strtvc	r6, [r0], #-1388	; 0xfffffa94
   1ec44:	6e69206f 	cdpvs	0, 6, cr2, cr9, cr15, {3}
   1ec48:	61697469 	cmnvs	r9, r9, ror #8
   1ec4c:	657a696c 	ldrbvs	r6, [sl, #-2412]!	; 0xfffff694
   1ec50:	20445320 	subcs	r5, r4, r0, lsr #6
   1ec54:	64726163 	ldrbtvs	r6, [r2], #-355	; 0xfffffe9d
   1ec58:	206f7420 	rsbcs	r7, pc, r0, lsr #8
   1ec5c:	61746164 	cmnvs	r4, r4, ror #2
   1ec60:	646f6d20 	strbtvs	r6, [pc], #-3360	; 1ec68 <__month_lengths+0x99c>
   1ec64:	73282065 	teqvc	r8, #101	; 0x65
   1ec68:	65746174 	ldrbvs	r6, [r4, #-372]!	; 0xfffffe8c
   1ec6c:	29692520 	stmdbcs	r9!, {r5, r8, sl, sp}^
   1ec70:	0000000a 	andeq	r0, r0, sl
   1ec74:	203a4453 	eorscs	r4, sl, r3, asr r4
   1ec78:	645f6f64 	ldrbvs	r6, [pc], #-3940	; 1ec80 <__month_lengths+0x9b4>
   1ec7c:	5f617461 	svcpl	0x00617461
   1ec80:	6d6d6f63 	stclvs	15, cr6, [sp, #-396]!	; 0xfffffe74
   1ec84:	28646e61 	stmdacs	r4!, {r0, r5, r6, r9, sl, fp, sp, lr}^
   1ec88:	61632029 	cmnvs	r3, r9, lsr #32
   1ec8c:	64656c6c 	strbtvs	r6, [r5], #-3180	; 0xfffff394
   1ec90:	74697720 	strbtvc	r7, [r9], #-1824	; 0xfffff8e0
   1ec94:	75622068 	strbvc	r2, [r2, #-104]!	; 0xffffff98
   1ec98:	72656666 	rsbvc	r6, r5, #106954752	; 0x6600000
   1ec9c:	7a697320 	bvc	1a7b924 <__sys_stack_top+0x1a58274>
   1eca0:	25282065 	strcs	r2, [r8, #-101]!	; 0xffffff9b
   1eca4:	6c202969 	stcvs	9, cr2, [r0], #-420	; 0xfffffe5c
   1eca8:	20737365 	rsbscs	r7, r3, r5, ror #6
   1ecac:	6e616874 	mcrvs	8, 3, r6, cr1, cr4, {3}
   1ecb0:	6f6c6220 	svcvs	0x006c6220
   1ecb4:	73206b63 	teqvc	r0, #101376	; 0x18c00
   1ecb8:	20657a69 	rsbcs	r7, r5, r9, ror #20
   1ecbc:	29692528 	stmdbcs	r9!, {r3, r5, r8, sl, sp}^
   1ecc0:	0000000a 	andeq	r0, r0, sl
   1ecc4:	203a4453 	eorscs	r4, sl, r3, asr r4
   1ecc8:	645f6f64 	ldrbvs	r6, [pc], #-3940	; 1ecd0 <__month_lengths+0xa04>
   1eccc:	5f617461 	svcpl	0x00617461
   1ecd0:	6d6d6f63 	stclvs	15, cr6, [sp, #-396]!	; 0xfffffe74
   1ecd4:	28646e61 	stmdacs	r4!, {r0, r5, r6, r9, sl, fp, sp, lr}^
   1ecd8:	61632029 	cmnvs	r3, r9, lsr #32
   1ecdc:	64656c6c 	strbtvs	r6, [r5], #-3180	; 0xfffff394
   1ece0:	74697720 	strbtvc	r7, [r9], #-1824	; 0xfffff8e0
   1ece4:	75622068 	strbvc	r2, [r2, #-104]!	; 0xffffff98
   1ece8:	72656666 	rsbvc	r6, r5, #106954752	; 0x6600000
   1ecec:	7a697320 	bvc	1a7b974 <__sys_stack_top+0x1a582c4>
   1ecf0:	25282065 	strcs	r2, [r8, #-101]!	; 0xffffff9b
   1ecf4:	6e202969 	cdpvs	9, 2, cr2, cr0, cr9, {3}
   1ecf8:	6120746f 	teqvs	r0, pc, ror #8
   1ecfc:	7865206e 	stmdavc	r5!, {r1, r2, r3, r5, r6, sp}^
   1ed00:	20746361 	rsbscs	r6, r4, r1, ror #6
   1ed04:	746c756d 	strbtvc	r7, [ip], #-1389	; 0xfffffa93
   1ed08:	656c7069 	strbvs	r7, [ip, #-105]!	; 0xffffff97
   1ed0c:	20666f20 	rsbcs	r6, r6, r0, lsr #30
   1ed10:	636f6c62 	cmnvs	pc, #25088	; 0x6200
   1ed14:	6973206b 	ldmdbvs	r3!, {r0, r1, r3, r5, r6, sp}^
   1ed18:	2820657a 	stmdacs	r0!, {r1, r3, r4, r5, r6, r8, sl, sp, lr}
   1ed1c:	0a296925 	beq	a791b8 <__sys_stack_top+0xa55b08>
   1ed20:	00000000 	andeq	r0, r0, r0
   1ed24:	203a4453 	eorscs	r4, sl, r3, asr r4
   1ed28:	61766e69 	cmnvs	r6, r9, ror #28
   1ed2c:	2064696c 	rsbcs	r6, r4, ip, ror #18
   1ed30:	6d6d6f63 	stclvs	15, cr6, [sp, #-396]!	; 0xfffffe74
   1ed34:	20646e61 	rsbcs	r6, r4, r1, ror #28
   1ed38:	25444d43 	strbcs	r4, [r4, #-3395]	; 0xfffff2bd
   1ed3c:	00000a69 	andeq	r0, r0, r9, ror #20
   1ed40:	203a4453 	eorscs	r4, sl, r3, asr r4
   1ed44:	6f727265 	svcvs	0x00727265
   1ed48:	65732072 	ldrbvs	r2, [r3, #-114]!	; 0xffffff8e
   1ed4c:	6e69646e 	cdpvs	4, 6, cr6, cr9, cr14, {3}
   1ed50:	4d432067 	stclmi	0, cr2, [r3, #-412]	; 0xfffffe64
   1ed54:	2c692544 	cfstr64cs	mvdx2, [r9], #-272	; 0xfffffef0
   1ed58:	00000020 	andeq	r0, r0, r0, lsr #32
   1ed5c:	6f727265 	svcvs	0x00727265
   1ed60:	203d2072 	eorscs	r2, sp, r2, ror r0
   1ed64:	78383025 	ldmdavc	r8!, {r0, r2, r5, ip, sp}
   1ed68:	0020202e 	eoreq	r2, r0, lr, lsr #32
   1ed6c:	72746552 	rsbsvc	r6, r4, #343932928	; 0x14800000
   1ed70:	676e6979 			; <UNDEFINED> instruction: 0x676e6979
   1ed74:	0a2e2e2e 	beq	baa634 <__sys_stack_top+0xb86f84>
   1ed78:	00000000 	andeq	r0, r0, r0
   1ed7c:	69766947 	ldmdbvs	r6!, {r0, r1, r2, r6, r8, fp, sp, lr}^
   1ed80:	7520676e 	strvc	r6, [r0, #-1902]!	; 0xfffff892
   1ed84:	000a2e70 	andeq	r2, sl, r0, ror lr
   1ed88:	00000043 	andeq	r0, r0, r3, asr #32
   1ed8c:	00544d47 	subseq	r4, r4, r7, asr #26

Disassembly of section .ARM.exidx:

0001ed90 <.ARM.exidx>:
   1ed90:	7fffe8f8 	svcvc	0x00ffe8f8
   1ed94:	00000001 	andeq	r0, r0, r1

Disassembly of section .data:

0001ed98 <dmx_output_period>:
   1ed98:	000061a8 	andeq	r6, r0, r8, lsr #3

0001ed9c <dmx_output_mab_time>:
   1ed9c:	0000000c 	andeq	r0, r0, ip

0001eda0 <dmx_output_break_time>:
   1eda0:	0000005c 	andeq	r0, r0, ip, asr r0

0001eda4 <dmx_send_data_length>:
   1eda4:	00020201 	andeq	r0, r2, r1, lsl #4

0001eda6 <dmx_port_direction>:
   1eda6:	a1200002 	teqge	r0, r2

0001eda8 <ticks_per_second>:
   1eda8:	0007a120 	andeq	sl, r7, r0, lsr #2

0001edac <uid_device>:
   1edac:	0000f07f 	andeq	pc, r0, pc, ror r0	; <UNPREDICTABLE>
   1edb0:	00000000 	andeq	r0, r0, r0

0001edb4 <dmx_usb_pro_params>:
   1edb4:	01090204 	tsteq	r9, r4, lsl #4
   1edb8:	00000028 	andeq	r0, r0, r8, lsr #32

0001edbc <cur_fore>:
   1edbc:	0001ffff 	strdeq	pc, [r1], -pc	; <UNPREDICTABLE>

0001edbe <Stat>:
   1edbe:	a13c0001 	teqge	ip, r1

0001edc0 <_hardware_led_f>:
   1edc0:	0001a13c 	andeq	sl, r1, ip, lsr r1
   1edc4:	0001a120 	andeq	sl, r1, r0, lsr #2

0001edc8 <i2c_mcp7941x_slave_address>:
   1edc8:	0000006f 	andeq	r0, r0, pc, rrx
   1edcc:	00000000 	andeq	r0, r0, r0

0001edd0 <_impure_ptr>:
   1edd0:	0001edd8 	ldrdeq	lr, [r1], -r8
   1edd4:	00000000 	andeq	r0, r0, r0

0001edd8 <impure_data>:
   1edd8:	00000000 	andeq	r0, r0, r0
   1eddc:	0001f0c4 	andeq	pc, r1, r4, asr #1
   1ede0:	0001f12c 	andeq	pc, r1, ip, lsr #2
   1ede4:	0001f194 	muleq	r1, r4, r1
	...
   1ee0c:	0001ed88 	andeq	lr, r1, r8, lsl #27
	...
   1ee80:	00000001 	andeq	r0, r0, r1
   1ee84:	00000000 	andeq	r0, r0, r0
   1ee88:	abcd330e 	blge	ff36bac8 <__ram_end+0xf736bac8>
   1ee8c:	e66d1234 			; <UNDEFINED> instruction: 0xe66d1234
   1ee90:	0005deec 	andeq	sp, r5, ip, ror #29
   1ee94:	0000000b 	andeq	r0, r0, fp
	...

0001f200 <__malloc_av_>:
	...
   1f208:	0001f200 	andeq	pc, r1, r0, lsl #4
   1f20c:	0001f200 	andeq	pc, r1, r0, lsl #4
   1f210:	0001f208 	andeq	pc, r1, r8, lsl #4
   1f214:	0001f208 	andeq	pc, r1, r8, lsl #4
   1f218:	0001f210 	andeq	pc, r1, r0, lsl r2	; <UNPREDICTABLE>
   1f21c:	0001f210 	andeq	pc, r1, r0, lsl r2	; <UNPREDICTABLE>
   1f220:	0001f218 	andeq	pc, r1, r8, lsl r2	; <UNPREDICTABLE>
   1f224:	0001f218 	andeq	pc, r1, r8, lsl r2	; <UNPREDICTABLE>
   1f228:	0001f220 	andeq	pc, r1, r0, lsr #4
   1f22c:	0001f220 	andeq	pc, r1, r0, lsr #4
   1f230:	0001f228 	andeq	pc, r1, r8, lsr #4
   1f234:	0001f228 	andeq	pc, r1, r8, lsr #4
   1f238:	0001f230 	andeq	pc, r1, r0, lsr r2	; <UNPREDICTABLE>
   1f23c:	0001f230 	andeq	pc, r1, r0, lsr r2	; <UNPREDICTABLE>
   1f240:	0001f238 	andeq	pc, r1, r8, lsr r2	; <UNPREDICTABLE>
   1f244:	0001f238 	andeq	pc, r1, r8, lsr r2	; <UNPREDICTABLE>
   1f248:	0001f240 	andeq	pc, r1, r0, asr #4
   1f24c:	0001f240 	andeq	pc, r1, r0, asr #4
   1f250:	0001f248 	andeq	pc, r1, r8, asr #4
   1f254:	0001f248 	andeq	pc, r1, r8, asr #4
   1f258:	0001f250 	andeq	pc, r1, r0, asr r2	; <UNPREDICTABLE>
   1f25c:	0001f250 	andeq	pc, r1, r0, asr r2	; <UNPREDICTABLE>
   1f260:	0001f258 	andeq	pc, r1, r8, asr r2	; <UNPREDICTABLE>
   1f264:	0001f258 	andeq	pc, r1, r8, asr r2	; <UNPREDICTABLE>
   1f268:	0001f260 	andeq	pc, r1, r0, ror #4
   1f26c:	0001f260 	andeq	pc, r1, r0, ror #4
   1f270:	0001f268 	andeq	pc, r1, r8, ror #4
   1f274:	0001f268 	andeq	pc, r1, r8, ror #4
   1f278:	0001f270 	andeq	pc, r1, r0, ror r2	; <UNPREDICTABLE>
   1f27c:	0001f270 	andeq	pc, r1, r0, ror r2	; <UNPREDICTABLE>
   1f280:	0001f278 	andeq	pc, r1, r8, ror r2	; <UNPREDICTABLE>
   1f284:	0001f278 	andeq	pc, r1, r8, ror r2	; <UNPREDICTABLE>
   1f288:	0001f280 	andeq	pc, r1, r0, lsl #5
   1f28c:	0001f280 	andeq	pc, r1, r0, lsl #5
   1f290:	0001f288 	andeq	pc, r1, r8, lsl #5
   1f294:	0001f288 	andeq	pc, r1, r8, lsl #5
   1f298:	0001f290 	muleq	r1, r0, r2
   1f29c:	0001f290 	muleq	r1, r0, r2
   1f2a0:	0001f298 	muleq	r1, r8, r2
   1f2a4:	0001f298 	muleq	r1, r8, r2
   1f2a8:	0001f2a0 	andeq	pc, r1, r0, lsr #5
   1f2ac:	0001f2a0 	andeq	pc, r1, r0, lsr #5
   1f2b0:	0001f2a8 	andeq	pc, r1, r8, lsr #5
   1f2b4:	0001f2a8 	andeq	pc, r1, r8, lsr #5
   1f2b8:	0001f2b0 			; <UNDEFINED> instruction: 0x0001f2b0
   1f2bc:	0001f2b0 			; <UNDEFINED> instruction: 0x0001f2b0
   1f2c0:	0001f2b8 			; <UNDEFINED> instruction: 0x0001f2b8
   1f2c4:	0001f2b8 			; <UNDEFINED> instruction: 0x0001f2b8
   1f2c8:	0001f2c0 	andeq	pc, r1, r0, asr #5
   1f2cc:	0001f2c0 	andeq	pc, r1, r0, asr #5
   1f2d0:	0001f2c8 	andeq	pc, r1, r8, asr #5
   1f2d4:	0001f2c8 	andeq	pc, r1, r8, asr #5
   1f2d8:	0001f2d0 	ldrdeq	pc, [r1], -r0
   1f2dc:	0001f2d0 	ldrdeq	pc, [r1], -r0
   1f2e0:	0001f2d8 	ldrdeq	pc, [r1], -r8
   1f2e4:	0001f2d8 	ldrdeq	pc, [r1], -r8
   1f2e8:	0001f2e0 	andeq	pc, r1, r0, ror #5
   1f2ec:	0001f2e0 	andeq	pc, r1, r0, ror #5
   1f2f0:	0001f2e8 	andeq	pc, r1, r8, ror #5
   1f2f4:	0001f2e8 	andeq	pc, r1, r8, ror #5
   1f2f8:	0001f2f0 	strdeq	pc, [r1], -r0
   1f2fc:	0001f2f0 	strdeq	pc, [r1], -r0
   1f300:	0001f2f8 	strdeq	pc, [r1], -r8
   1f304:	0001f2f8 	strdeq	pc, [r1], -r8
   1f308:	0001f300 	andeq	pc, r1, r0, lsl #6
   1f30c:	0001f300 	andeq	pc, r1, r0, lsl #6
   1f310:	0001f308 	andeq	pc, r1, r8, lsl #6
   1f314:	0001f308 	andeq	pc, r1, r8, lsl #6
   1f318:	0001f310 	andeq	pc, r1, r0, lsl r3	; <UNPREDICTABLE>
   1f31c:	0001f310 	andeq	pc, r1, r0, lsl r3	; <UNPREDICTABLE>
   1f320:	0001f318 	andeq	pc, r1, r8, lsl r3	; <UNPREDICTABLE>
   1f324:	0001f318 	andeq	pc, r1, r8, lsl r3	; <UNPREDICTABLE>
   1f328:	0001f320 	andeq	pc, r1, r0, lsr #6
   1f32c:	0001f320 	andeq	pc, r1, r0, lsr #6
   1f330:	0001f328 	andeq	pc, r1, r8, lsr #6
   1f334:	0001f328 	andeq	pc, r1, r8, lsr #6
   1f338:	0001f330 	andeq	pc, r1, r0, lsr r3	; <UNPREDICTABLE>
   1f33c:	0001f330 	andeq	pc, r1, r0, lsr r3	; <UNPREDICTABLE>
   1f340:	0001f338 	andeq	pc, r1, r8, lsr r3	; <UNPREDICTABLE>
   1f344:	0001f338 	andeq	pc, r1, r8, lsr r3	; <UNPREDICTABLE>
   1f348:	0001f340 	andeq	pc, r1, r0, asr #6
   1f34c:	0001f340 	andeq	pc, r1, r0, asr #6
   1f350:	0001f348 	andeq	pc, r1, r8, asr #6
   1f354:	0001f348 	andeq	pc, r1, r8, asr #6
   1f358:	0001f350 	andeq	pc, r1, r0, asr r3	; <UNPREDICTABLE>
   1f35c:	0001f350 	andeq	pc, r1, r0, asr r3	; <UNPREDICTABLE>
   1f360:	0001f358 	andeq	pc, r1, r8, asr r3	; <UNPREDICTABLE>
   1f364:	0001f358 	andeq	pc, r1, r8, asr r3	; <UNPREDICTABLE>
   1f368:	0001f360 	andeq	pc, r1, r0, ror #6
   1f36c:	0001f360 	andeq	pc, r1, r0, ror #6
   1f370:	0001f368 	andeq	pc, r1, r8, ror #6
   1f374:	0001f368 	andeq	pc, r1, r8, ror #6
   1f378:	0001f370 	andeq	pc, r1, r0, ror r3	; <UNPREDICTABLE>
   1f37c:	0001f370 	andeq	pc, r1, r0, ror r3	; <UNPREDICTABLE>
   1f380:	0001f378 	andeq	pc, r1, r8, ror r3	; <UNPREDICTABLE>
   1f384:	0001f378 	andeq	pc, r1, r8, ror r3	; <UNPREDICTABLE>
   1f388:	0001f380 	andeq	pc, r1, r0, lsl #7
   1f38c:	0001f380 	andeq	pc, r1, r0, lsl #7
   1f390:	0001f388 	andeq	pc, r1, r8, lsl #7
   1f394:	0001f388 	andeq	pc, r1, r8, lsl #7
   1f398:	0001f390 	muleq	r1, r0, r3
   1f39c:	0001f390 	muleq	r1, r0, r3
   1f3a0:	0001f398 	muleq	r1, r8, r3
   1f3a4:	0001f398 	muleq	r1, r8, r3
   1f3a8:	0001f3a0 	andeq	pc, r1, r0, lsr #7
   1f3ac:	0001f3a0 	andeq	pc, r1, r0, lsr #7
   1f3b0:	0001f3a8 	andeq	pc, r1, r8, lsr #7
   1f3b4:	0001f3a8 	andeq	pc, r1, r8, lsr #7
   1f3b8:	0001f3b0 			; <UNDEFINED> instruction: 0x0001f3b0
   1f3bc:	0001f3b0 			; <UNDEFINED> instruction: 0x0001f3b0
   1f3c0:	0001f3b8 			; <UNDEFINED> instruction: 0x0001f3b8
   1f3c4:	0001f3b8 			; <UNDEFINED> instruction: 0x0001f3b8
   1f3c8:	0001f3c0 	andeq	pc, r1, r0, asr #7
   1f3cc:	0001f3c0 	andeq	pc, r1, r0, asr #7
   1f3d0:	0001f3c8 	andeq	pc, r1, r8, asr #7
   1f3d4:	0001f3c8 	andeq	pc, r1, r8, asr #7
   1f3d8:	0001f3d0 	ldrdeq	pc, [r1], -r0
   1f3dc:	0001f3d0 	ldrdeq	pc, [r1], -r0
   1f3e0:	0001f3d8 	ldrdeq	pc, [r1], -r8
   1f3e4:	0001f3d8 	ldrdeq	pc, [r1], -r8
   1f3e8:	0001f3e0 	andeq	pc, r1, r0, ror #7
   1f3ec:	0001f3e0 	andeq	pc, r1, r0, ror #7
   1f3f0:	0001f3e8 	andeq	pc, r1, r8, ror #7
   1f3f4:	0001f3e8 	andeq	pc, r1, r8, ror #7
   1f3f8:	0001f3f0 	strdeq	pc, [r1], -r0
   1f3fc:	0001f3f0 	strdeq	pc, [r1], -r0
   1f400:	0001f3f8 	strdeq	pc, [r1], -r8
   1f404:	0001f3f8 	strdeq	pc, [r1], -r8
   1f408:	0001f400 	andeq	pc, r1, r0, lsl #8
   1f40c:	0001f400 	andeq	pc, r1, r0, lsl #8
   1f410:	0001f408 	andeq	pc, r1, r8, lsl #8
   1f414:	0001f408 	andeq	pc, r1, r8, lsl #8
   1f418:	0001f410 	andeq	pc, r1, r0, lsl r4	; <UNPREDICTABLE>
   1f41c:	0001f410 	andeq	pc, r1, r0, lsl r4	; <UNPREDICTABLE>
   1f420:	0001f418 	andeq	pc, r1, r8, lsl r4	; <UNPREDICTABLE>
   1f424:	0001f418 	andeq	pc, r1, r8, lsl r4	; <UNPREDICTABLE>
   1f428:	0001f420 	andeq	pc, r1, r0, lsr #8
   1f42c:	0001f420 	andeq	pc, r1, r0, lsr #8
   1f430:	0001f428 	andeq	pc, r1, r8, lsr #8
   1f434:	0001f428 	andeq	pc, r1, r8, lsr #8
   1f438:	0001f430 	andeq	pc, r1, r0, lsr r4	; <UNPREDICTABLE>
   1f43c:	0001f430 	andeq	pc, r1, r0, lsr r4	; <UNPREDICTABLE>
   1f440:	0001f438 	andeq	pc, r1, r8, lsr r4	; <UNPREDICTABLE>
   1f444:	0001f438 	andeq	pc, r1, r8, lsr r4	; <UNPREDICTABLE>
   1f448:	0001f440 	andeq	pc, r1, r0, asr #8
   1f44c:	0001f440 	andeq	pc, r1, r0, asr #8
   1f450:	0001f448 	andeq	pc, r1, r8, asr #8
   1f454:	0001f448 	andeq	pc, r1, r8, asr #8
   1f458:	0001f450 	andeq	pc, r1, r0, asr r4	; <UNPREDICTABLE>
   1f45c:	0001f450 	andeq	pc, r1, r0, asr r4	; <UNPREDICTABLE>
   1f460:	0001f458 	andeq	pc, r1, r8, asr r4	; <UNPREDICTABLE>
   1f464:	0001f458 	andeq	pc, r1, r8, asr r4	; <UNPREDICTABLE>
   1f468:	0001f460 	andeq	pc, r1, r0, ror #8
   1f46c:	0001f460 	andeq	pc, r1, r0, ror #8
   1f470:	0001f468 	andeq	pc, r1, r8, ror #8
   1f474:	0001f468 	andeq	pc, r1, r8, ror #8
   1f478:	0001f470 	andeq	pc, r1, r0, ror r4	; <UNPREDICTABLE>
   1f47c:	0001f470 	andeq	pc, r1, r0, ror r4	; <UNPREDICTABLE>
   1f480:	0001f478 	andeq	pc, r1, r8, ror r4	; <UNPREDICTABLE>
   1f484:	0001f478 	andeq	pc, r1, r8, ror r4	; <UNPREDICTABLE>
   1f488:	0001f480 	andeq	pc, r1, r0, lsl #9
   1f48c:	0001f480 	andeq	pc, r1, r0, lsl #9
   1f490:	0001f488 	andeq	pc, r1, r8, lsl #9
   1f494:	0001f488 	andeq	pc, r1, r8, lsl #9
   1f498:	0001f490 	muleq	r1, r0, r4
   1f49c:	0001f490 	muleq	r1, r0, r4
   1f4a0:	0001f498 	muleq	r1, r8, r4
   1f4a4:	0001f498 	muleq	r1, r8, r4
   1f4a8:	0001f4a0 	andeq	pc, r1, r0, lsr #9
   1f4ac:	0001f4a0 	andeq	pc, r1, r0, lsr #9
   1f4b0:	0001f4a8 	andeq	pc, r1, r8, lsr #9
   1f4b4:	0001f4a8 	andeq	pc, r1, r8, lsr #9
   1f4b8:	0001f4b0 			; <UNDEFINED> instruction: 0x0001f4b0
   1f4bc:	0001f4b0 			; <UNDEFINED> instruction: 0x0001f4b0
   1f4c0:	0001f4b8 			; <UNDEFINED> instruction: 0x0001f4b8
   1f4c4:	0001f4b8 			; <UNDEFINED> instruction: 0x0001f4b8
   1f4c8:	0001f4c0 	andeq	pc, r1, r0, asr #9
   1f4cc:	0001f4c0 	andeq	pc, r1, r0, asr #9
   1f4d0:	0001f4c8 	andeq	pc, r1, r8, asr #9
   1f4d4:	0001f4c8 	andeq	pc, r1, r8, asr #9
   1f4d8:	0001f4d0 	ldrdeq	pc, [r1], -r0
   1f4dc:	0001f4d0 	ldrdeq	pc, [r1], -r0
   1f4e0:	0001f4d8 	ldrdeq	pc, [r1], -r8
   1f4e4:	0001f4d8 	ldrdeq	pc, [r1], -r8
   1f4e8:	0001f4e0 	andeq	pc, r1, r0, ror #9
   1f4ec:	0001f4e0 	andeq	pc, r1, r0, ror #9
   1f4f0:	0001f4e8 	andeq	pc, r1, r8, ror #9
   1f4f4:	0001f4e8 	andeq	pc, r1, r8, ror #9
   1f4f8:	0001f4f0 	strdeq	pc, [r1], -r0
   1f4fc:	0001f4f0 	strdeq	pc, [r1], -r0
   1f500:	0001f4f8 	strdeq	pc, [r1], -r8
   1f504:	0001f4f8 	strdeq	pc, [r1], -r8
   1f508:	0001f500 	andeq	pc, r1, r0, lsl #10
   1f50c:	0001f500 	andeq	pc, r1, r0, lsl #10
   1f510:	0001f508 	andeq	pc, r1, r8, lsl #10
   1f514:	0001f508 	andeq	pc, r1, r8, lsl #10
   1f518:	0001f510 	andeq	pc, r1, r0, lsl r5	; <UNPREDICTABLE>
   1f51c:	0001f510 	andeq	pc, r1, r0, lsl r5	; <UNPREDICTABLE>
   1f520:	0001f518 	andeq	pc, r1, r8, lsl r5	; <UNPREDICTABLE>
   1f524:	0001f518 	andeq	pc, r1, r8, lsl r5	; <UNPREDICTABLE>
   1f528:	0001f520 	andeq	pc, r1, r0, lsr #10
   1f52c:	0001f520 	andeq	pc, r1, r0, lsr #10
   1f530:	0001f528 	andeq	pc, r1, r8, lsr #10
   1f534:	0001f528 	andeq	pc, r1, r8, lsr #10
   1f538:	0001f530 	andeq	pc, r1, r0, lsr r5	; <UNPREDICTABLE>
   1f53c:	0001f530 	andeq	pc, r1, r0, lsr r5	; <UNPREDICTABLE>
   1f540:	0001f538 	andeq	pc, r1, r8, lsr r5	; <UNPREDICTABLE>
   1f544:	0001f538 	andeq	pc, r1, r8, lsr r5	; <UNPREDICTABLE>
   1f548:	0001f540 	andeq	pc, r1, r0, asr #10
   1f54c:	0001f540 	andeq	pc, r1, r0, asr #10
   1f550:	0001f548 	andeq	pc, r1, r8, asr #10
   1f554:	0001f548 	andeq	pc, r1, r8, asr #10
   1f558:	0001f550 	andeq	pc, r1, r0, asr r5	; <UNPREDICTABLE>
   1f55c:	0001f550 	andeq	pc, r1, r0, asr r5	; <UNPREDICTABLE>
   1f560:	0001f558 	andeq	pc, r1, r8, asr r5	; <UNPREDICTABLE>
   1f564:	0001f558 	andeq	pc, r1, r8, asr r5	; <UNPREDICTABLE>
   1f568:	0001f560 	andeq	pc, r1, r0, ror #10
   1f56c:	0001f560 	andeq	pc, r1, r0, ror #10
   1f570:	0001f568 	andeq	pc, r1, r8, ror #10
   1f574:	0001f568 	andeq	pc, r1, r8, ror #10
   1f578:	0001f570 	andeq	pc, r1, r0, ror r5	; <UNPREDICTABLE>
   1f57c:	0001f570 	andeq	pc, r1, r0, ror r5	; <UNPREDICTABLE>
   1f580:	0001f578 	andeq	pc, r1, r8, ror r5	; <UNPREDICTABLE>
   1f584:	0001f578 	andeq	pc, r1, r8, ror r5	; <UNPREDICTABLE>
   1f588:	0001f580 	andeq	pc, r1, r0, lsl #11
   1f58c:	0001f580 	andeq	pc, r1, r0, lsl #11
   1f590:	0001f588 	andeq	pc, r1, r8, lsl #11
   1f594:	0001f588 	andeq	pc, r1, r8, lsl #11
   1f598:	0001f590 	muleq	r1, r0, r5
   1f59c:	0001f590 	muleq	r1, r0, r5
   1f5a0:	0001f598 	muleq	r1, r8, r5
   1f5a4:	0001f598 	muleq	r1, r8, r5
   1f5a8:	0001f5a0 	andeq	pc, r1, r0, lsr #11
   1f5ac:	0001f5a0 	andeq	pc, r1, r0, lsr #11
   1f5b0:	0001f5a8 	andeq	pc, r1, r8, lsr #11
   1f5b4:	0001f5a8 	andeq	pc, r1, r8, lsr #11
   1f5b8:	0001f5b0 			; <UNDEFINED> instruction: 0x0001f5b0
   1f5bc:	0001f5b0 			; <UNDEFINED> instruction: 0x0001f5b0
   1f5c0:	0001f5b8 			; <UNDEFINED> instruction: 0x0001f5b8
   1f5c4:	0001f5b8 			; <UNDEFINED> instruction: 0x0001f5b8
   1f5c8:	0001f5c0 	andeq	pc, r1, r0, asr #11
   1f5cc:	0001f5c0 	andeq	pc, r1, r0, asr #11
   1f5d0:	0001f5c8 	andeq	pc, r1, r8, asr #11
   1f5d4:	0001f5c8 	andeq	pc, r1, r8, asr #11
   1f5d8:	0001f5d0 	ldrdeq	pc, [r1], -r0
   1f5dc:	0001f5d0 	ldrdeq	pc, [r1], -r0
   1f5e0:	0001f5d8 	ldrdeq	pc, [r1], -r8
   1f5e4:	0001f5d8 	ldrdeq	pc, [r1], -r8
   1f5e8:	0001f5e0 	andeq	pc, r1, r0, ror #11
   1f5ec:	0001f5e0 	andeq	pc, r1, r0, ror #11
   1f5f0:	0001f5e8 	andeq	pc, r1, r8, ror #11
   1f5f4:	0001f5e8 	andeq	pc, r1, r8, ror #11
   1f5f8:	0001f5f0 	strdeq	pc, [r1], -r0
   1f5fc:	0001f5f0 	strdeq	pc, [r1], -r0
   1f600:	0001f5f8 	strdeq	pc, [r1], -r8
   1f604:	0001f5f8 	strdeq	pc, [r1], -r8

0001f608 <__malloc_sbrk_base>:
   1f608:	ffffffff 			; <UNDEFINED> instruction: 0xffffffff

0001f60c <__malloc_trim_threshold>:
   1f60c:	00020000 	andeq	r0, r2, r0

0001f610 <_tzname>:
   1f610:	0001ed8c 	andeq	lr, r1, ip, lsl #27
   1f614:	0001ed8c 	andeq	lr, r1, ip, lsl #27

0001f618 <tzinfo>:
   1f618:	00000001 	andeq	r0, r0, r1
   1f61c:	00000000 	andeq	r0, r0, r0
   1f620:	0000004a 	andeq	r0, r0, sl, asr #32
	...
   1f63c:	0000004a 	andeq	r0, r0, sl, asr #32
	...

Disassembly of section .bss:

0001f658 <dmx_output_fast_as_possible>:
   1f658:	00000000 	andeq	r0, r0, r0

0001f65c <dmx_statistics>:
	...

0001f670 <rdm_data_buffer_index_tail>:
	...

0001f672 <rdm_data_buffer_index_head>:
	...

0001f674 <rdm_data_buffer>:
	...

00021674 <dmx_available>:
   21674:	00000000 	andeq	r0, r0, r0

00021678 <dmx_data_previous>:
	...

0002187c <dmx_slots_in_packet_previous>:
   2187c:	00000000 	andeq	r0, r0, r0

00021880 <rdm_data_receive_end>:
   21880:	00000000 	andeq	r0, r0, r0

00021884 <total_statistics>:
	...

0002188c <dmx_fiq_micros_current>:
   2188c:	00000000 	andeq	r0, r0, r0

00021890 <dmx_receive_state>:
   21890:	00000000 	andeq	r0, r0, r0

00021894 <dmx_break_to_break_previous>:
   21894:	00000000 	andeq	r0, r0, r0

00021898 <dmx_data_index>:
	...

0002189a <rdm_checksum>:
	...

0002189c <dmx_fiq_micros_previous>:
   2189c:	00000000 	andeq	r0, r0, r0

000218a0 <rdm_disc_index>:
	...

000218a1 <dmx_send_always>:
	...

000218a2 <dmx_send_state>:
	...

000218a4 <dmx_send_break_micros>:
   218a4:	00000000 	andeq	r0, r0, r0

000218a8 <dmx_packets_previous>:
   218a8:	00000000 	andeq	r0, r0, r0

000218ac <micros_previous>:
   218ac:	00000000 	andeq	r0, r0, r0

000218b0 <led_counter>:
   218b0:	00000000 	andeq	r0, r0, r0

000218b4 <device_manufacturer_name_length>:
   218b4:	00000000 	andeq	r0, r0, r0

000218b8 <device_manufacturer_name>:
	...

000218d8 <root_device_label>:
	...

000218f8 <root_device_label_length>:
   218f8:	00000000 	andeq	r0, r0, r0

000218fc <manufacturer_id>:
   218fc:	00000000 	andeq	r0, r0, r0

00021900 <device_sn>:
   21900:	00000000 	andeq	r0, r0, r0

00021904 <rdm_message_count>:
   21904:	00000000 	andeq	r0, r0, r0

00021908 <receive_dmx_on_change>:
	...

00021909 <widget_mode>:
   21909:	00000000 	andeq	r0, r0, r0

0002190c <received_dmx_packet_period>:
   2190c:	00000000 	andeq	r0, r0, r0

00021910 <widget_received_dmx_packet_count>:
   21910:	00000000 	andeq	r0, r0, r0

00021914 <widget_rdm_discovery_running>:
   21914:	00000000 	andeq	r0, r0, r0

00021918 <widget_received_dmx_packet_start>:
   21918:	00000000 	andeq	r0, r0, r0

0002191c <widget_send_rdm_packet_start>:
   2191c:	00000000 	andeq	r0, r0, r0

00021920 <widget_data>:
	...

00021b78 <widget_received_dmx_packet_count_previous>:
   21b78:	00000000 	andeq	r0, r0, r0

00021b7c <dmx_send_to_host_throttle>:
   21b7c:	00000000 	andeq	r0, r0, r0

00021b80 <rdm_statistics>:
	...

00021b90 <heap_end>:
   21b90:	00000000 	andeq	r0, r0, r0

00021b94 <fb_addr>:
   21b94:	00000000 	andeq	r0, r0, r0

00021b98 <fb_pitch>:
   21b98:	00000000 	andeq	r0, r0, r0

00021b9c <fb_width>:
   21b9c:	00000000 	andeq	r0, r0, r0

00021ba0 <fb_height>:
   21ba0:	00000000 	andeq	r0, r0, r0

00021ba4 <fb_size>:
   21ba4:	00000000 	andeq	r0, r0, r0

00021ba8 <fb_depth>:
   21ba8:	00000000 	andeq	r0, r0, r0

00021bac <cur_y>:
   21bac:	00000000 	andeq	r0, r0, r0

00021bb0 <cur_x>:
   21bb0:	00000000 	andeq	r0, r0, r0

00021bb4 <cur_back>:
   21bb4:	00000000 	andeq	r0, r0, r0

00021bb8 <outptr>:
   21bb8:	00000000 	andeq	r0, r0, r0

00021bbc <FatFs>:
   21bbc:	00000000 	andeq	r0, r0, r0

00021bc0 <Fsid>:
   21bc0:	00000000 	andeq	r0, r0, r0

00021bc4 <LfnBuf>:
	...

00021c48 <emmc_dev>:
	...

00021c50 <hardware_init_startup_micros>:
	...

00021c58 <sys_time_init_startup_micros>:
	...

00021c60 <rtc_startup_seconds>:
	...

00021c68 <__malloc_top_pad>:
   21c68:	00000000 	andeq	r0, r0, r0

00021c6c <__malloc_current_mallinfo>:
	...

00021c94 <__malloc_max_sbrked_mem>:
   21c94:	00000000 	andeq	r0, r0, r0

00021c98 <__malloc_max_total_mem>:
   21c98:	00000000 	andeq	r0, r0, r0

00021c9c <_timezone>:
   21c9c:	00000000 	andeq	r0, r0, r0

00021ca0 <_daylight>:
   21ca0:	00000000 	andeq	r0, r0, r0

00021ca4 <dmx_data>:
	...

00021ea8 <events_elapsed_time>:
   21ea8:	00000000 	andeq	r0, r0, r0

00021eac <errno>:
   21eac:	00000000 	andeq	r0, r0, r0
