In archive lib/libbob.a:

bw_i2c_ui.o:     file format elf32-littlearm


Disassembly of section .text:

00000000 <bw_i2c_ui_start>:
   0:	e92d4010 	push	{r4, lr}
   4:	e1a04000 	mov	r4, r0
   8:	ebfffffe 	bl	0 <bcm2835_i2c_begin>
   c:	e3540000 	cmp	r4, #0
  10:	03a04094 	moveq	r4, #148	; 0x94
  14:	e59f3008 	ldr	r3, [pc, #8]	; 24 <bw_i2c_ui_start+0x24>
  18:	e3a00000 	mov	r0, #0
  1c:	e5c34000 	strb	r4, [r3]
  20:	e8bd8010 	pop	{r4, pc}
  24:	00000000 	andeq	r0, r0, r0

00000028 <bw_i2c_ui_end>:
  28:	eafffffe 	b	0 <bcm2835_i2c_end>

0000002c <bw_i2c_ui_set_cursor>:
  2c:	e52de004 	push	{lr}		; (str lr, [sp, #-4]!)
  30:	e3a0e011 	mov	lr, #17
  34:	e59f304c 	ldr	r3, [pc, #76]	; 88 <bw_i2c_ui_set_cursor+0x5c>
  38:	e59f204c 	ldr	r2, [pc, #76]	; 8c <bw_i2c_ui_set_cursor+0x60>
  3c:	e5d33000 	ldrb	r3, [r3]
  40:	e59fc048 	ldr	ip, [pc, #72]	; 90 <bw_i2c_ui_set_cursor+0x64>
  44:	e2000003 	and	r0, r0, #3
  48:	e201101f 	and	r1, r1, #31
  4c:	e24dd00c 	sub	sp, sp, #12
  50:	e1a030a3 	lsr	r3, r3, #1
  54:	e1811280 	orr	r1, r1, r0, lsl #5
  58:	e5cd1005 	strb	r1, [sp, #5]
  5c:	e5cde004 	strb	lr, [sp, #4]
  60:	e28d0004 	add	r0, sp, #4
  64:	e582300c 	str	r3, [r2, #12]
  68:	e3a01002 	mov	r1, #2
  6c:	e582c014 	str	ip, [r2, #20]
  70:	ebfffffe 	bl	0 <bcm2835_i2c_write>
  74:	e3a0000e 	mov	r0, #14
  78:	e3a01000 	mov	r1, #0
  7c:	ebfffffe 	bl	0 <udelay>
  80:	e28dd00c 	add	sp, sp, #12
  84:	e49df004 	pop	{pc}		; (ldr pc, [sp], #4)
  88:	00000000 	andeq	r0, r0, r0
  8c:	20804000 	addcs	r4, r0, r0
  90:	000009c4 	andeq	r0, r0, r4, asr #19

00000094 <bw_i2c_ui_text>:
  94:	e3510010 	cmp	r1, #16
  98:	e3a03000 	mov	r3, #0
  9c:	23a01010 	movcs	r1, #16
  a0:	e52de004 	push	{lr}		; (str lr, [sp, #-4]!)
  a4:	e1510003 	cmp	r1, r3
  a8:	e24dd01c 	sub	sp, sp, #28
  ac:	e5cd3004 	strb	r3, [sp, #4]
  b0:	0a00003c 	beq	1a8 <bw_i2c_ui_text+0x114>
  b4:	e5d03000 	ldrb	r3, [r0]
  b8:	e3510001 	cmp	r1, #1
  bc:	e5cd3005 	strb	r3, [sp, #5]
  c0:	0a000038 	beq	1a8 <bw_i2c_ui_text+0x114>
  c4:	e5d03001 	ldrb	r3, [r0, #1]
  c8:	e3510002 	cmp	r1, #2
  cc:	e5cd3006 	strb	r3, [sp, #6]
  d0:	0a000034 	beq	1a8 <bw_i2c_ui_text+0x114>
  d4:	e5d03002 	ldrb	r3, [r0, #2]
  d8:	e3510003 	cmp	r1, #3
  dc:	e5cd3007 	strb	r3, [sp, #7]
  e0:	0a000030 	beq	1a8 <bw_i2c_ui_text+0x114>
  e4:	e5d03003 	ldrb	r3, [r0, #3]
  e8:	e3510004 	cmp	r1, #4
  ec:	e5cd3008 	strb	r3, [sp, #8]
  f0:	0a00002c 	beq	1a8 <bw_i2c_ui_text+0x114>
  f4:	e5d03004 	ldrb	r3, [r0, #4]
  f8:	e3510005 	cmp	r1, #5
  fc:	e5cd3009 	strb	r3, [sp, #9]
 100:	0a000028 	beq	1a8 <bw_i2c_ui_text+0x114>
 104:	e5d03005 	ldrb	r3, [r0, #5]
 108:	e3510006 	cmp	r1, #6
 10c:	e5cd300a 	strb	r3, [sp, #10]
 110:	0a000024 	beq	1a8 <bw_i2c_ui_text+0x114>
 114:	e5d03006 	ldrb	r3, [r0, #6]
 118:	e3510007 	cmp	r1, #7
 11c:	e5cd300b 	strb	r3, [sp, #11]
 120:	0a000020 	beq	1a8 <bw_i2c_ui_text+0x114>
 124:	e5d03007 	ldrb	r3, [r0, #7]
 128:	e3510008 	cmp	r1, #8
 12c:	e5cd300c 	strb	r3, [sp, #12]
 130:	0a00001c 	beq	1a8 <bw_i2c_ui_text+0x114>
 134:	e5d03008 	ldrb	r3, [r0, #8]
 138:	e3510009 	cmp	r1, #9
 13c:	e5cd300d 	strb	r3, [sp, #13]
 140:	0a000018 	beq	1a8 <bw_i2c_ui_text+0x114>
 144:	e5d03009 	ldrb	r3, [r0, #9]
 148:	e351000a 	cmp	r1, #10
 14c:	e5cd300e 	strb	r3, [sp, #14]
 150:	0a000014 	beq	1a8 <bw_i2c_ui_text+0x114>
 154:	e5d0300a 	ldrb	r3, [r0, #10]
 158:	e351000b 	cmp	r1, #11
 15c:	e5cd300f 	strb	r3, [sp, #15]
 160:	0a000010 	beq	1a8 <bw_i2c_ui_text+0x114>
 164:	e5d0300b 	ldrb	r3, [r0, #11]
 168:	e351000c 	cmp	r1, #12
 16c:	e5cd3010 	strb	r3, [sp, #16]
 170:	0a00000c 	beq	1a8 <bw_i2c_ui_text+0x114>
 174:	e5d0300c 	ldrb	r3, [r0, #12]
 178:	e351000d 	cmp	r1, #13
 17c:	e5cd3011 	strb	r3, [sp, #17]
 180:	0a000008 	beq	1a8 <bw_i2c_ui_text+0x114>
 184:	e5d0300d 	ldrb	r3, [r0, #13]
 188:	e351000e 	cmp	r1, #14
 18c:	e5cd3012 	strb	r3, [sp, #18]
 190:	0a000004 	beq	1a8 <bw_i2c_ui_text+0x114>
 194:	e5d0300e 	ldrb	r3, [r0, #14]
 198:	e3510010 	cmp	r1, #16
 19c:	e5cd3013 	strb	r3, [sp, #19]
 1a0:	05d0300f 	ldrbeq	r3, [r0, #15]
 1a4:	05cd3014 	strbeq	r3, [sp, #20]
 1a8:	e59f3034 	ldr	r3, [pc, #52]	; 1e4 <bw_i2c_ui_text+0x150>
 1ac:	e59f2034 	ldr	r2, [pc, #52]	; 1e8 <bw_i2c_ui_text+0x154>
 1b0:	e5d33000 	ldrb	r3, [r3]
 1b4:	e59fc030 	ldr	ip, [pc, #48]	; 1ec <bw_i2c_ui_text+0x158>
 1b8:	e1a030a3 	lsr	r3, r3, #1
 1bc:	e582300c 	str	r3, [r2, #12]
 1c0:	e2811001 	add	r1, r1, #1
 1c4:	e582c014 	str	ip, [r2, #20]
 1c8:	e28d0004 	add	r0, sp, #4
 1cc:	ebfffffe 	bl	0 <bcm2835_i2c_write>
 1d0:	e3a0000e 	mov	r0, #14
 1d4:	e3a01000 	mov	r1, #0
 1d8:	ebfffffe 	bl	0 <udelay>
 1dc:	e28dd01c 	add	sp, sp, #28
 1e0:	e49df004 	pop	{pc}		; (ldr pc, [sp], #4)
 1e4:	00000000 	andeq	r0, r0, r0
 1e8:	20804000 	addcs	r4, r0, r0
 1ec:	000009c4 	andeq	r0, r0, r4, asr #19

000001f0 <bw_i2c_ui_text_line_1>:
 1f0:	e92d40f0 	push	{r4, r5, r6, r7, lr}
 1f4:	e3a0e011 	mov	lr, #17
 1f8:	e3a04000 	mov	r4, #0
 1fc:	e1a05001 	mov	r5, r1
 200:	e59f7180 	ldr	r7, [pc, #384]	; 388 <bw_i2c_ui_text_line_1+0x198>
 204:	e59f2180 	ldr	r2, [pc, #384]	; 38c <bw_i2c_ui_text_line_1+0x19c>
 208:	e5d73000 	ldrb	r3, [r7]
 20c:	e59fc17c 	ldr	ip, [pc, #380]	; 390 <bw_i2c_ui_text_line_1+0x1a0>
 210:	e24dd01c 	sub	sp, sp, #28
 214:	e1a030a3 	lsr	r3, r3, #1
 218:	e5cde004 	strb	lr, [sp, #4]
 21c:	e5cd4005 	strb	r4, [sp, #5]
 220:	e3a01002 	mov	r1, #2
 224:	e582300c 	str	r3, [r2, #12]
 228:	e1a06000 	mov	r6, r0
 22c:	e582c014 	str	ip, [r2, #20]
 230:	e28d0004 	add	r0, sp, #4
 234:	ebfffffe 	bl	0 <bcm2835_i2c_write>
 238:	e3a01000 	mov	r1, #0
 23c:	e3a0000e 	mov	r0, #14
 240:	ebfffffe 	bl	0 <udelay>
 244:	e3550010 	cmp	r5, #16
 248:	31a01005 	movcc	r1, r5
 24c:	23a01010 	movcs	r1, #16
 250:	e1510004 	cmp	r1, r4
 254:	e5cd4004 	strb	r4, [sp, #4]
 258:	0a00003c 	beq	350 <bw_i2c_ui_text_line_1+0x160>
 25c:	e5d63000 	ldrb	r3, [r6]
 260:	e3510001 	cmp	r1, #1
 264:	e5cd3005 	strb	r3, [sp, #5]
 268:	0a000038 	beq	350 <bw_i2c_ui_text_line_1+0x160>
 26c:	e5d63001 	ldrb	r3, [r6, #1]
 270:	e3510002 	cmp	r1, #2
 274:	e5cd3006 	strb	r3, [sp, #6]
 278:	0a000034 	beq	350 <bw_i2c_ui_text_line_1+0x160>
 27c:	e5d63002 	ldrb	r3, [r6, #2]
 280:	e3510003 	cmp	r1, #3
 284:	e5cd3007 	strb	r3, [sp, #7]
 288:	0a000030 	beq	350 <bw_i2c_ui_text_line_1+0x160>
 28c:	e5d63003 	ldrb	r3, [r6, #3]
 290:	e3510004 	cmp	r1, #4
 294:	e5cd3008 	strb	r3, [sp, #8]
 298:	0a00002c 	beq	350 <bw_i2c_ui_text_line_1+0x160>
 29c:	e5d63004 	ldrb	r3, [r6, #4]
 2a0:	e3510005 	cmp	r1, #5
 2a4:	e5cd3009 	strb	r3, [sp, #9]
 2a8:	0a000028 	beq	350 <bw_i2c_ui_text_line_1+0x160>
 2ac:	e5d63005 	ldrb	r3, [r6, #5]
 2b0:	e3510006 	cmp	r1, #6
 2b4:	e5cd300a 	strb	r3, [sp, #10]
 2b8:	0a000024 	beq	350 <bw_i2c_ui_text_line_1+0x160>
 2bc:	e5d63006 	ldrb	r3, [r6, #6]
 2c0:	e3510007 	cmp	r1, #7
 2c4:	e5cd300b 	strb	r3, [sp, #11]
 2c8:	0a000020 	beq	350 <bw_i2c_ui_text_line_1+0x160>
 2cc:	e5d63007 	ldrb	r3, [r6, #7]
 2d0:	e3510008 	cmp	r1, #8
 2d4:	e5cd300c 	strb	r3, [sp, #12]
 2d8:	0a00001c 	beq	350 <bw_i2c_ui_text_line_1+0x160>
 2dc:	e5d63008 	ldrb	r3, [r6, #8]
 2e0:	e3510009 	cmp	r1, #9
 2e4:	e5cd300d 	strb	r3, [sp, #13]
 2e8:	0a000018 	beq	350 <bw_i2c_ui_text_line_1+0x160>
 2ec:	e5d63009 	ldrb	r3, [r6, #9]
 2f0:	e351000a 	cmp	r1, #10
 2f4:	e5cd300e 	strb	r3, [sp, #14]
 2f8:	0a000014 	beq	350 <bw_i2c_ui_text_line_1+0x160>
 2fc:	e5d6300a 	ldrb	r3, [r6, #10]
 300:	e351000b 	cmp	r1, #11
 304:	e5cd300f 	strb	r3, [sp, #15]
 308:	0a000010 	beq	350 <bw_i2c_ui_text_line_1+0x160>
 30c:	e5d6300b 	ldrb	r3, [r6, #11]
 310:	e351000c 	cmp	r1, #12
 314:	e5cd3010 	strb	r3, [sp, #16]
 318:	0a00000c 	beq	350 <bw_i2c_ui_text_line_1+0x160>
 31c:	e5d6300c 	ldrb	r3, [r6, #12]
 320:	e351000d 	cmp	r1, #13
 324:	e5cd3011 	strb	r3, [sp, #17]
 328:	0a000008 	beq	350 <bw_i2c_ui_text_line_1+0x160>
 32c:	e5d6300d 	ldrb	r3, [r6, #13]
 330:	e351000e 	cmp	r1, #14
 334:	e5cd3012 	strb	r3, [sp, #18]
 338:	0a000004 	beq	350 <bw_i2c_ui_text_line_1+0x160>
 33c:	e5d6300e 	ldrb	r3, [r6, #14]
 340:	e3510010 	cmp	r1, #16
 344:	e5cd3013 	strb	r3, [sp, #19]
 348:	05d6300f 	ldrbeq	r3, [r6, #15]
 34c:	05cd3014 	strbeq	r3, [sp, #20]
 350:	e5d73000 	ldrb	r3, [r7]
 354:	e59f2030 	ldr	r2, [pc, #48]	; 38c <bw_i2c_ui_text_line_1+0x19c>
 358:	e59fc030 	ldr	ip, [pc, #48]	; 390 <bw_i2c_ui_text_line_1+0x1a0>
 35c:	e1a030a3 	lsr	r3, r3, #1
 360:	e582300c 	str	r3, [r2, #12]
 364:	e28d0004 	add	r0, sp, #4
 368:	e582c014 	str	ip, [r2, #20]
 36c:	e2811001 	add	r1, r1, #1
 370:	ebfffffe 	bl	0 <bcm2835_i2c_write>
 374:	e3a0000e 	mov	r0, #14
 378:	e3a01000 	mov	r1, #0
 37c:	ebfffffe 	bl	0 <udelay>
 380:	e28dd01c 	add	sp, sp, #28
 384:	e8bd80f0 	pop	{r4, r5, r6, r7, pc}
 388:	00000000 	andeq	r0, r0, r0
 38c:	20804000 	addcs	r4, r0, r0
 390:	000009c4 	andeq	r0, r0, r4, asr #19

00000394 <bw_i2c_ui_text_line_2>:
 394:	e92d40f0 	push	{r4, r5, r6, r7, lr}
 398:	e3a0e020 	mov	lr, #32
 39c:	e3a07011 	mov	r7, #17
 3a0:	e1a04001 	mov	r4, r1
 3a4:	e59f6184 	ldr	r6, [pc, #388]	; 530 <bw_i2c_ui_text_line_2+0x19c>
 3a8:	e59f2184 	ldr	r2, [pc, #388]	; 534 <bw_i2c_ui_text_line_2+0x1a0>
 3ac:	e5d63000 	ldrb	r3, [r6]
 3b0:	e59fc180 	ldr	ip, [pc, #384]	; 538 <bw_i2c_ui_text_line_2+0x1a4>
 3b4:	e24dd01c 	sub	sp, sp, #28
 3b8:	e1a030a3 	lsr	r3, r3, #1
 3bc:	e5cde005 	strb	lr, [sp, #5]
 3c0:	e5cd7004 	strb	r7, [sp, #4]
 3c4:	e3a01002 	mov	r1, #2
 3c8:	e582300c 	str	r3, [r2, #12]
 3cc:	e1a05000 	mov	r5, r0
 3d0:	e582c014 	str	ip, [r2, #20]
 3d4:	e28d0004 	add	r0, sp, #4
 3d8:	ebfffffe 	bl	0 <bcm2835_i2c_write>
 3dc:	e3a01000 	mov	r1, #0
 3e0:	e3a0000e 	mov	r0, #14
 3e4:	ebfffffe 	bl	0 <udelay>
 3e8:	e3540010 	cmp	r4, #16
 3ec:	e3a03000 	mov	r3, #0
 3f0:	31a01004 	movcc	r1, r4
 3f4:	23a01010 	movcs	r1, #16
 3f8:	e1510003 	cmp	r1, r3
 3fc:	e5cd3004 	strb	r3, [sp, #4]
 400:	0a00003c 	beq	4f8 <bw_i2c_ui_text_line_2+0x164>
 404:	e5d53000 	ldrb	r3, [r5]
 408:	e3510001 	cmp	r1, #1
 40c:	e5cd3005 	strb	r3, [sp, #5]
 410:	0a000038 	beq	4f8 <bw_i2c_ui_text_line_2+0x164>
 414:	e5d53001 	ldrb	r3, [r5, #1]
 418:	e3510002 	cmp	r1, #2
 41c:	e5cd3006 	strb	r3, [sp, #6]
 420:	0a000034 	beq	4f8 <bw_i2c_ui_text_line_2+0x164>
 424:	e5d53002 	ldrb	r3, [r5, #2]
 428:	e3510003 	cmp	r1, #3
 42c:	e5cd3007 	strb	r3, [sp, #7]
 430:	0a000030 	beq	4f8 <bw_i2c_ui_text_line_2+0x164>
 434:	e5d53003 	ldrb	r3, [r5, #3]
 438:	e3510004 	cmp	r1, #4
 43c:	e5cd3008 	strb	r3, [sp, #8]
 440:	0a00002c 	beq	4f8 <bw_i2c_ui_text_line_2+0x164>
 444:	e5d53004 	ldrb	r3, [r5, #4]
 448:	e3510005 	cmp	r1, #5
 44c:	e5cd3009 	strb	r3, [sp, #9]
 450:	0a000028 	beq	4f8 <bw_i2c_ui_text_line_2+0x164>
 454:	e5d53005 	ldrb	r3, [r5, #5]
 458:	e3510006 	cmp	r1, #6
 45c:	e5cd300a 	strb	r3, [sp, #10]
 460:	0a000024 	beq	4f8 <bw_i2c_ui_text_line_2+0x164>
 464:	e5d53006 	ldrb	r3, [r5, #6]
 468:	e3510007 	cmp	r1, #7
 46c:	e5cd300b 	strb	r3, [sp, #11]
 470:	0a000020 	beq	4f8 <bw_i2c_ui_text_line_2+0x164>
 474:	e5d53007 	ldrb	r3, [r5, #7]
 478:	e3510008 	cmp	r1, #8
 47c:	e5cd300c 	strb	r3, [sp, #12]
 480:	0a00001c 	beq	4f8 <bw_i2c_ui_text_line_2+0x164>
 484:	e5d53008 	ldrb	r3, [r5, #8]
 488:	e3510009 	cmp	r1, #9
 48c:	e5cd300d 	strb	r3, [sp, #13]
 490:	0a000018 	beq	4f8 <bw_i2c_ui_text_line_2+0x164>
 494:	e5d53009 	ldrb	r3, [r5, #9]
 498:	e351000a 	cmp	r1, #10
 49c:	e5cd300e 	strb	r3, [sp, #14]
 4a0:	0a000014 	beq	4f8 <bw_i2c_ui_text_line_2+0x164>
 4a4:	e5d5300a 	ldrb	r3, [r5, #10]
 4a8:	e351000b 	cmp	r1, #11
 4ac:	e5cd300f 	strb	r3, [sp, #15]
 4b0:	0a000010 	beq	4f8 <bw_i2c_ui_text_line_2+0x164>
 4b4:	e5d5300b 	ldrb	r3, [r5, #11]
 4b8:	e351000c 	cmp	r1, #12
 4bc:	e5cd3010 	strb	r3, [sp, #16]
 4c0:	0a00000c 	beq	4f8 <bw_i2c_ui_text_line_2+0x164>
 4c4:	e5d5300c 	ldrb	r3, [r5, #12]
 4c8:	e351000d 	cmp	r1, #13
 4cc:	e5cd3011 	strb	r3, [sp, #17]
 4d0:	0a000008 	beq	4f8 <bw_i2c_ui_text_line_2+0x164>
 4d4:	e5d5300d 	ldrb	r3, [r5, #13]
 4d8:	e351000e 	cmp	r1, #14
 4dc:	e5cd3012 	strb	r3, [sp, #18]
 4e0:	0a000004 	beq	4f8 <bw_i2c_ui_text_line_2+0x164>
 4e4:	e5d5300e 	ldrb	r3, [r5, #14]
 4e8:	e3510010 	cmp	r1, #16
 4ec:	e5cd3013 	strb	r3, [sp, #19]
 4f0:	05d5300f 	ldrbeq	r3, [r5, #15]
 4f4:	05cd3014 	strbeq	r3, [sp, #20]
 4f8:	e5d63000 	ldrb	r3, [r6]
 4fc:	e59f2030 	ldr	r2, [pc, #48]	; 534 <bw_i2c_ui_text_line_2+0x1a0>
 500:	e59fc030 	ldr	ip, [pc, #48]	; 538 <bw_i2c_ui_text_line_2+0x1a4>
 504:	e1a030a3 	lsr	r3, r3, #1
 508:	e582300c 	str	r3, [r2, #12]
 50c:	e28d0004 	add	r0, sp, #4
 510:	e582c014 	str	ip, [r2, #20]
 514:	e2811001 	add	r1, r1, #1
 518:	ebfffffe 	bl	0 <bcm2835_i2c_write>
 51c:	e3a0000e 	mov	r0, #14
 520:	e3a01000 	mov	r1, #0
 524:	ebfffffe 	bl	0 <udelay>
 528:	e28dd01c 	add	sp, sp, #28
 52c:	e8bd80f0 	pop	{r4, r5, r6, r7, pc}
 530:	00000000 	andeq	r0, r0, r0
 534:	20804000 	addcs	r4, r0, r0
 538:	000009c4 	andeq	r0, r0, r4, asr #19

0000053c <bw_i2c_ui_text_line_3>:
 53c:	e92d40f0 	push	{r4, r5, r6, r7, lr}
 540:	e3a0e040 	mov	lr, #64	; 0x40
 544:	e3a07011 	mov	r7, #17
 548:	e1a04001 	mov	r4, r1
 54c:	e59f6184 	ldr	r6, [pc, #388]	; 6d8 <bw_i2c_ui_text_line_3+0x19c>
 550:	e59f2184 	ldr	r2, [pc, #388]	; 6dc <bw_i2c_ui_text_line_3+0x1a0>
 554:	e5d63000 	ldrb	r3, [r6]
 558:	e59fc180 	ldr	ip, [pc, #384]	; 6e0 <bw_i2c_ui_text_line_3+0x1a4>
 55c:	e24dd01c 	sub	sp, sp, #28
 560:	e1a030a3 	lsr	r3, r3, #1
 564:	e5cde005 	strb	lr, [sp, #5]
 568:	e5cd7004 	strb	r7, [sp, #4]
 56c:	e3a01002 	mov	r1, #2
 570:	e582300c 	str	r3, [r2, #12]
 574:	e1a05000 	mov	r5, r0
 578:	e582c014 	str	ip, [r2, #20]
 57c:	e28d0004 	add	r0, sp, #4
 580:	ebfffffe 	bl	0 <bcm2835_i2c_write>
 584:	e3a01000 	mov	r1, #0
 588:	e3a0000e 	mov	r0, #14
 58c:	ebfffffe 	bl	0 <udelay>
 590:	e3540010 	cmp	r4, #16
 594:	e3a03000 	mov	r3, #0
 598:	31a01004 	movcc	r1, r4
 59c:	23a01010 	movcs	r1, #16
 5a0:	e1510003 	cmp	r1, r3
 5a4:	e5cd3004 	strb	r3, [sp, #4]
 5a8:	0a00003c 	beq	6a0 <bw_i2c_ui_text_line_3+0x164>
 5ac:	e5d53000 	ldrb	r3, [r5]
 5b0:	e3510001 	cmp	r1, #1
 5b4:	e5cd3005 	strb	r3, [sp, #5]
 5b8:	0a000038 	beq	6a0 <bw_i2c_ui_text_line_3+0x164>
 5bc:	e5d53001 	ldrb	r3, [r5, #1]
 5c0:	e3510002 	cmp	r1, #2
 5c4:	e5cd3006 	strb	r3, [sp, #6]
 5c8:	0a000034 	beq	6a0 <bw_i2c_ui_text_line_3+0x164>
 5cc:	e5d53002 	ldrb	r3, [r5, #2]
 5d0:	e3510003 	cmp	r1, #3
 5d4:	e5cd3007 	strb	r3, [sp, #7]
 5d8:	0a000030 	beq	6a0 <bw_i2c_ui_text_line_3+0x164>
 5dc:	e5d53003 	ldrb	r3, [r5, #3]
 5e0:	e3510004 	cmp	r1, #4
 5e4:	e5cd3008 	strb	r3, [sp, #8]
 5e8:	0a00002c 	beq	6a0 <bw_i2c_ui_text_line_3+0x164>
 5ec:	e5d53004 	ldrb	r3, [r5, #4]
 5f0:	e3510005 	cmp	r1, #5
 5f4:	e5cd3009 	strb	r3, [sp, #9]
 5f8:	0a000028 	beq	6a0 <bw_i2c_ui_text_line_3+0x164>
 5fc:	e5d53005 	ldrb	r3, [r5, #5]
 600:	e3510006 	cmp	r1, #6
 604:	e5cd300a 	strb	r3, [sp, #10]
 608:	0a000024 	beq	6a0 <bw_i2c_ui_text_line_3+0x164>
 60c:	e5d53006 	ldrb	r3, [r5, #6]
 610:	e3510007 	cmp	r1, #7
 614:	e5cd300b 	strb	r3, [sp, #11]
 618:	0a000020 	beq	6a0 <bw_i2c_ui_text_line_3+0x164>
 61c:	e5d53007 	ldrb	r3, [r5, #7]
 620:	e3510008 	cmp	r1, #8
 624:	e5cd300c 	strb	r3, [sp, #12]
 628:	0a00001c 	beq	6a0 <bw_i2c_ui_text_line_3+0x164>
 62c:	e5d53008 	ldrb	r3, [r5, #8]
 630:	e3510009 	cmp	r1, #9
 634:	e5cd300d 	strb	r3, [sp, #13]
 638:	0a000018 	beq	6a0 <bw_i2c_ui_text_line_3+0x164>
 63c:	e5d53009 	ldrb	r3, [r5, #9]
 640:	e351000a 	cmp	r1, #10
 644:	e5cd300e 	strb	r3, [sp, #14]
 648:	0a000014 	beq	6a0 <bw_i2c_ui_text_line_3+0x164>
 64c:	e5d5300a 	ldrb	r3, [r5, #10]
 650:	e351000b 	cmp	r1, #11
 654:	e5cd300f 	strb	r3, [sp, #15]
 658:	0a000010 	beq	6a0 <bw_i2c_ui_text_line_3+0x164>
 65c:	e5d5300b 	ldrb	r3, [r5, #11]
 660:	e351000c 	cmp	r1, #12
 664:	e5cd3010 	strb	r3, [sp, #16]
 668:	0a00000c 	beq	6a0 <bw_i2c_ui_text_line_3+0x164>
 66c:	e5d5300c 	ldrb	r3, [r5, #12]
 670:	e351000d 	cmp	r1, #13
 674:	e5cd3011 	strb	r3, [sp, #17]
 678:	0a000008 	beq	6a0 <bw_i2c_ui_text_line_3+0x164>
 67c:	e5d5300d 	ldrb	r3, [r5, #13]
 680:	e351000e 	cmp	r1, #14
 684:	e5cd3012 	strb	r3, [sp, #18]
 688:	0a000004 	beq	6a0 <bw_i2c_ui_text_line_3+0x164>
 68c:	e5d5300e 	ldrb	r3, [r5, #14]
 690:	e3510010 	cmp	r1, #16
 694:	e5cd3013 	strb	r3, [sp, #19]
 698:	05d5300f 	ldrbeq	r3, [r5, #15]
 69c:	05cd3014 	strbeq	r3, [sp, #20]
 6a0:	e5d63000 	ldrb	r3, [r6]
 6a4:	e59f2030 	ldr	r2, [pc, #48]	; 6dc <bw_i2c_ui_text_line_3+0x1a0>
 6a8:	e59fc030 	ldr	ip, [pc, #48]	; 6e0 <bw_i2c_ui_text_line_3+0x1a4>
 6ac:	e1a030a3 	lsr	r3, r3, #1
 6b0:	e582300c 	str	r3, [r2, #12]
 6b4:	e28d0004 	add	r0, sp, #4
 6b8:	e582c014 	str	ip, [r2, #20]
 6bc:	e2811001 	add	r1, r1, #1
 6c0:	ebfffffe 	bl	0 <bcm2835_i2c_write>
 6c4:	e3a0000e 	mov	r0, #14
 6c8:	e3a01000 	mov	r1, #0
 6cc:	ebfffffe 	bl	0 <udelay>
 6d0:	e28dd01c 	add	sp, sp, #28
 6d4:	e8bd80f0 	pop	{r4, r5, r6, r7, pc}
 6d8:	00000000 	andeq	r0, r0, r0
 6dc:	20804000 	addcs	r4, r0, r0
 6e0:	000009c4 	andeq	r0, r0, r4, asr #19

000006e4 <bw_i2c_ui_text_line_4>:
 6e4:	e92d40f0 	push	{r4, r5, r6, r7, lr}
 6e8:	e3a0e060 	mov	lr, #96	; 0x60
 6ec:	e3a07011 	mov	r7, #17
 6f0:	e1a04001 	mov	r4, r1
 6f4:	e59f6184 	ldr	r6, [pc, #388]	; 880 <bw_i2c_ui_text_line_4+0x19c>
 6f8:	e59f2184 	ldr	r2, [pc, #388]	; 884 <bw_i2c_ui_text_line_4+0x1a0>
 6fc:	e5d63000 	ldrb	r3, [r6]
 700:	e59fc180 	ldr	ip, [pc, #384]	; 888 <bw_i2c_ui_text_line_4+0x1a4>
 704:	e24dd01c 	sub	sp, sp, #28
 708:	e1a030a3 	lsr	r3, r3, #1
 70c:	e5cde005 	strb	lr, [sp, #5]
 710:	e5cd7004 	strb	r7, [sp, #4]
 714:	e3a01002 	mov	r1, #2
 718:	e582300c 	str	r3, [r2, #12]
 71c:	e1a05000 	mov	r5, r0
 720:	e582c014 	str	ip, [r2, #20]
 724:	e28d0004 	add	r0, sp, #4
 728:	ebfffffe 	bl	0 <bcm2835_i2c_write>
 72c:	e3a01000 	mov	r1, #0
 730:	e3a0000e 	mov	r0, #14
 734:	ebfffffe 	bl	0 <udelay>
 738:	e3540010 	cmp	r4, #16
 73c:	e3a03000 	mov	r3, #0
 740:	31a01004 	movcc	r1, r4
 744:	23a01010 	movcs	r1, #16
 748:	e1510003 	cmp	r1, r3
 74c:	e5cd3004 	strb	r3, [sp, #4]
 750:	0a00003c 	beq	848 <bw_i2c_ui_text_line_4+0x164>
 754:	e5d53000 	ldrb	r3, [r5]
 758:	e3510001 	cmp	r1, #1
 75c:	e5cd3005 	strb	r3, [sp, #5]
 760:	0a000038 	beq	848 <bw_i2c_ui_text_line_4+0x164>
 764:	e5d53001 	ldrb	r3, [r5, #1]
 768:	e3510002 	cmp	r1, #2
 76c:	e5cd3006 	strb	r3, [sp, #6]
 770:	0a000034 	beq	848 <bw_i2c_ui_text_line_4+0x164>
 774:	e5d53002 	ldrb	r3, [r5, #2]
 778:	e3510003 	cmp	r1, #3
 77c:	e5cd3007 	strb	r3, [sp, #7]
 780:	0a000030 	beq	848 <bw_i2c_ui_text_line_4+0x164>
 784:	e5d53003 	ldrb	r3, [r5, #3]
 788:	e3510004 	cmp	r1, #4
 78c:	e5cd3008 	strb	r3, [sp, #8]
 790:	0a00002c 	beq	848 <bw_i2c_ui_text_line_4+0x164>
 794:	e5d53004 	ldrb	r3, [r5, #4]
 798:	e3510005 	cmp	r1, #5
 79c:	e5cd3009 	strb	r3, [sp, #9]
 7a0:	0a000028 	beq	848 <bw_i2c_ui_text_line_4+0x164>
 7a4:	e5d53005 	ldrb	r3, [r5, #5]
 7a8:	e3510006 	cmp	r1, #6
 7ac:	e5cd300a 	strb	r3, [sp, #10]
 7b0:	0a000024 	beq	848 <bw_i2c_ui_text_line_4+0x164>
 7b4:	e5d53006 	ldrb	r3, [r5, #6]
 7b8:	e3510007 	cmp	r1, #7
 7bc:	e5cd300b 	strb	r3, [sp, #11]
 7c0:	0a000020 	beq	848 <bw_i2c_ui_text_line_4+0x164>
 7c4:	e5d53007 	ldrb	r3, [r5, #7]
 7c8:	e3510008 	cmp	r1, #8
 7cc:	e5cd300c 	strb	r3, [sp, #12]
 7d0:	0a00001c 	beq	848 <bw_i2c_ui_text_line_4+0x164>
 7d4:	e5d53008 	ldrb	r3, [r5, #8]
 7d8:	e3510009 	cmp	r1, #9
 7dc:	e5cd300d 	strb	r3, [sp, #13]
 7e0:	0a000018 	beq	848 <bw_i2c_ui_text_line_4+0x164>
 7e4:	e5d53009 	ldrb	r3, [r5, #9]
 7e8:	e351000a 	cmp	r1, #10
 7ec:	e5cd300e 	strb	r3, [sp, #14]
 7f0:	0a000014 	beq	848 <bw_i2c_ui_text_line_4+0x164>
 7f4:	e5d5300a 	ldrb	r3, [r5, #10]
 7f8:	e351000b 	cmp	r1, #11
 7fc:	e5cd300f 	strb	r3, [sp, #15]
 800:	0a000010 	beq	848 <bw_i2c_ui_text_line_4+0x164>
 804:	e5d5300b 	ldrb	r3, [r5, #11]
 808:	e351000c 	cmp	r1, #12
 80c:	e5cd3010 	strb	r3, [sp, #16]
 810:	0a00000c 	beq	848 <bw_i2c_ui_text_line_4+0x164>
 814:	e5d5300c 	ldrb	r3, [r5, #12]
 818:	e351000d 	cmp	r1, #13
 81c:	e5cd3011 	strb	r3, [sp, #17]
 820:	0a000008 	beq	848 <bw_i2c_ui_text_line_4+0x164>
 824:	e5d5300d 	ldrb	r3, [r5, #13]
 828:	e351000e 	cmp	r1, #14
 82c:	e5cd3012 	strb	r3, [sp, #18]
 830:	0a000004 	beq	848 <bw_i2c_ui_text_line_4+0x164>
 834:	e5d5300e 	ldrb	r3, [r5, #14]
 838:	e3510010 	cmp	r1, #16
 83c:	e5cd3013 	strb	r3, [sp, #19]
 840:	05d5300f 	ldrbeq	r3, [r5, #15]
 844:	05cd3014 	strbeq	r3, [sp, #20]
 848:	e5d63000 	ldrb	r3, [r6]
 84c:	e59f2030 	ldr	r2, [pc, #48]	; 884 <bw_i2c_ui_text_line_4+0x1a0>
 850:	e59fc030 	ldr	ip, [pc, #48]	; 888 <bw_i2c_ui_text_line_4+0x1a4>
 854:	e1a030a3 	lsr	r3, r3, #1
 858:	e582300c 	str	r3, [r2, #12]
 85c:	e28d0004 	add	r0, sp, #4
 860:	e582c014 	str	ip, [r2, #20]
 864:	e2811001 	add	r1, r1, #1
 868:	ebfffffe 	bl	0 <bcm2835_i2c_write>
 86c:	e3a0000e 	mov	r0, #14
 870:	e3a01000 	mov	r1, #0
 874:	ebfffffe 	bl	0 <udelay>
 878:	e28dd01c 	add	sp, sp, #28
 87c:	e8bd80f0 	pop	{r4, r5, r6, r7, pc}
 880:	00000000 	andeq	r0, r0, r0
 884:	20804000 	addcs	r4, r0, r0
 888:	000009c4 	andeq	r0, r0, r4, asr #19

0000088c <bw_i2c_ui_cls>:
 88c:	e52de004 	push	{lr}		; (str lr, [sp, #-4]!)
 890:	e59f3044 	ldr	r3, [pc, #68]	; 8dc <bw_i2c_ui_cls+0x50>
 894:	e59f2044 	ldr	r2, [pc, #68]	; 8e0 <bw_i2c_ui_cls+0x54>
 898:	e5d33000 	ldrb	r3, [r3]
 89c:	e1d210b0 	ldrh	r1, [r2]
 8a0:	e59fc03c 	ldr	ip, [pc, #60]	; 8e4 <bw_i2c_ui_cls+0x58>
 8a4:	e59f203c 	ldr	r2, [pc, #60]	; 8e8 <bw_i2c_ui_cls+0x5c>
 8a8:	e24dd00c 	sub	sp, sp, #12
 8ac:	e1a030a3 	lsr	r3, r3, #1
 8b0:	e1cd10b4 	strh	r1, [sp, #4]
 8b4:	e28d0004 	add	r0, sp, #4
 8b8:	e582300c 	str	r3, [r2, #12]
 8bc:	e3a01002 	mov	r1, #2
 8c0:	e582c014 	str	ip, [r2, #20]
 8c4:	ebfffffe 	bl	0 <bcm2835_i2c_write>
 8c8:	e3a0000e 	mov	r0, #14
 8cc:	e3a01000 	mov	r1, #0
 8d0:	ebfffffe 	bl	0 <udelay>
 8d4:	e28dd00c 	add	sp, sp, #12
 8d8:	e49df004 	pop	{pc}		; (ldr pc, [sp], #4)
	...
 8e4:	000009c4 	andeq	r0, r0, r4, asr #19
 8e8:	20804000 	addcs	r4, r0, r0

000008ec <bw_i2c_ui_set_contrast>:
 8ec:	e3a01012 	mov	r1, #18
 8f0:	e52de004 	push	{lr}		; (str lr, [sp, #-4]!)
 8f4:	e59f3040 	ldr	r3, [pc, #64]	; 93c <bw_i2c_ui_set_contrast+0x50>
 8f8:	e59f2040 	ldr	r2, [pc, #64]	; 940 <bw_i2c_ui_set_contrast+0x54>
 8fc:	e5d33000 	ldrb	r3, [r3]
 900:	e59fc03c 	ldr	ip, [pc, #60]	; 944 <bw_i2c_ui_set_contrast+0x58>
 904:	e24dd00c 	sub	sp, sp, #12
 908:	e1a030a3 	lsr	r3, r3, #1
 90c:	e5cd0005 	strb	r0, [sp, #5]
 910:	e5cd1004 	strb	r1, [sp, #4]
 914:	e28d0004 	add	r0, sp, #4
 918:	e582300c 	str	r3, [r2, #12]
 91c:	e3a01002 	mov	r1, #2
 920:	e582c014 	str	ip, [r2, #20]
 924:	ebfffffe 	bl	0 <bcm2835_i2c_write>
 928:	e3a0000e 	mov	r0, #14
 92c:	e3a01000 	mov	r1, #0
 930:	ebfffffe 	bl	0 <udelay>
 934:	e28dd00c 	add	sp, sp, #12
 938:	e49df004 	pop	{pc}		; (ldr pc, [sp], #4)
 93c:	00000000 	andeq	r0, r0, r0
 940:	20804000 	addcs	r4, r0, r0
 944:	000009c4 	andeq	r0, r0, r4, asr #19

00000948 <bw_i2c_ui_set_backlight>:
 948:	e3a01017 	mov	r1, #23
 94c:	e52de004 	push	{lr}		; (str lr, [sp, #-4]!)
 950:	e59f3040 	ldr	r3, [pc, #64]	; 998 <bw_i2c_ui_set_backlight+0x50>
 954:	e59f2040 	ldr	r2, [pc, #64]	; 99c <bw_i2c_ui_set_backlight+0x54>
 958:	e5d33000 	ldrb	r3, [r3]
 95c:	e59fc03c 	ldr	ip, [pc, #60]	; 9a0 <bw_i2c_ui_set_backlight+0x58>
 960:	e24dd00c 	sub	sp, sp, #12
 964:	e1a030a3 	lsr	r3, r3, #1
 968:	e5cd0005 	strb	r0, [sp, #5]
 96c:	e5cd1004 	strb	r1, [sp, #4]
 970:	e28d0004 	add	r0, sp, #4
 974:	e582300c 	str	r3, [r2, #12]
 978:	e3a01002 	mov	r1, #2
 97c:	e582c014 	str	ip, [r2, #20]
 980:	ebfffffe 	bl	0 <bcm2835_i2c_write>
 984:	e3a0000e 	mov	r0, #14
 988:	e3a01000 	mov	r1, #0
 98c:	ebfffffe 	bl	0 <udelay>
 990:	e28dd00c 	add	sp, sp, #12
 994:	e49df004 	pop	{pc}		; (ldr pc, [sp], #4)
 998:	00000000 	andeq	r0, r0, r0
 99c:	20804000 	addcs	r4, r0, r0
 9a0:	000009c4 	andeq	r0, r0, r4, asr #19

000009a4 <bw_i2c_ui_set_backlight_temp>:
 9a4:	e3a01013 	mov	r1, #19
 9a8:	e52de004 	push	{lr}		; (str lr, [sp, #-4]!)
 9ac:	e59f3040 	ldr	r3, [pc, #64]	; 9f4 <bw_i2c_ui_set_backlight_temp+0x50>
 9b0:	e59f2040 	ldr	r2, [pc, #64]	; 9f8 <bw_i2c_ui_set_backlight_temp+0x54>
 9b4:	e5d33000 	ldrb	r3, [r3]
 9b8:	e59fc03c 	ldr	ip, [pc, #60]	; 9fc <bw_i2c_ui_set_backlight_temp+0x58>
 9bc:	e24dd00c 	sub	sp, sp, #12
 9c0:	e1a030a3 	lsr	r3, r3, #1
 9c4:	e5cd0005 	strb	r0, [sp, #5]
 9c8:	e5cd1004 	strb	r1, [sp, #4]
 9cc:	e28d0004 	add	r0, sp, #4
 9d0:	e582300c 	str	r3, [r2, #12]
 9d4:	e3a01002 	mov	r1, #2
 9d8:	e582c014 	str	ip, [r2, #20]
 9dc:	ebfffffe 	bl	0 <bcm2835_i2c_write>
 9e0:	e3a0000e 	mov	r0, #14
 9e4:	e3a01000 	mov	r1, #0
 9e8:	ebfffffe 	bl	0 <udelay>
 9ec:	e28dd00c 	add	sp, sp, #12
 9f0:	e49df004 	pop	{pc}		; (ldr pc, [sp], #4)
 9f4:	00000000 	andeq	r0, r0, r0
 9f8:	20804000 	addcs	r4, r0, r0
 9fc:	000009c4 	andeq	r0, r0, r4, asr #19

00000a00 <bw_i2c_ui_set_startup_message_line_1>:
 a00:	e52de004 	push	{lr}		; (str lr, [sp, #-4]!)
 a04:	e59f304c 	ldr	r3, [pc, #76]	; a58 <bw_i2c_ui_set_startup_message_line_1+0x58>
 a08:	e24dd00c 	sub	sp, sp, #12
 a0c:	e1d330b0 	ldrh	r3, [r3]
 a10:	e3510000 	cmp	r1, #0
 a14:	e1cd30b4 	strh	r3, [sp, #4]
 a18:	1a00000c 	bne	a50 <bw_i2c_ui_set_startup_message_line_1+0x50>
 a1c:	e59f3038 	ldr	r3, [pc, #56]	; a5c <bw_i2c_ui_set_startup_message_line_1+0x5c>
 a20:	e59f2038 	ldr	r2, [pc, #56]	; a60 <bw_i2c_ui_set_startup_message_line_1+0x60>
 a24:	e5d33000 	ldrb	r3, [r3]
 a28:	e59fc034 	ldr	ip, [pc, #52]	; a64 <bw_i2c_ui_set_startup_message_line_1+0x64>
 a2c:	e1a030a3 	lsr	r3, r3, #1
 a30:	e582300c 	str	r3, [r2, #12]
 a34:	e3a0000e 	mov	r0, #14
 a38:	e3a01000 	mov	r1, #0
 a3c:	e582c014 	str	ip, [r2, #20]
 a40:	ebfffffe 	bl	0 <udelay>
 a44:	e28d0004 	add	r0, sp, #4
 a48:	e3a01002 	mov	r1, #2
 a4c:	ebfffffe 	bl	0 <bcm2835_i2c_write>
 a50:	e28dd00c 	add	sp, sp, #12
 a54:	e49df004 	pop	{pc}		; (ldr pc, [sp], #4)
 a58:	00000004 	andeq	r0, r0, r4
 a5c:	00000000 	andeq	r0, r0, r0
 a60:	20804000 	addcs	r4, r0, r0
 a64:	000009c4 	andeq	r0, r0, r4, asr #19

00000a68 <bw_i2c_ui_set_startup_message_line_2>:
 a68:	e12fff1e 	bx	lr

00000a6c <bw_i2c_ui_set_startup_message_line_3>:
 a6c:	e12fff1e 	bx	lr

00000a70 <bw_i2c_ui_set_startup_message_line_4>:
 a70:	e12fff1e 	bx	lr

00000a74 <bw_i2c_ui_get_backlight>:
 a74:	e92d4010 	push	{r4, lr}
 a78:	e3a0e013 	mov	lr, #19
 a7c:	e1a04000 	mov	r4, r0
 a80:	e59f204c 	ldr	r2, [pc, #76]	; ad4 <bw_i2c_ui_get_backlight+0x60>
 a84:	e24dd008 	sub	sp, sp, #8
 a88:	e5d22000 	ldrb	r2, [r2]
 a8c:	e28d3008 	add	r3, sp, #8
 a90:	e59fc040 	ldr	ip, [pc, #64]	; ad8 <bw_i2c_ui_get_backlight+0x64>
 a94:	e59f1040 	ldr	r1, [pc, #64]	; adc <bw_i2c_ui_get_backlight+0x68>
 a98:	e563e004 	strb	lr, [r3, #-4]!
 a9c:	e1a020a2 	lsr	r2, r2, #1
 aa0:	e581200c 	str	r2, [r1, #12]
 aa4:	e1a00003 	mov	r0, r3
 aa8:	e581c014 	str	ip, [r1, #20]
 aac:	e3a01001 	mov	r1, #1
 ab0:	ebfffffe 	bl	0 <bcm2835_i2c_write>
 ab4:	e3a0000e 	mov	r0, #14
 ab8:	e3a01000 	mov	r1, #0
 abc:	ebfffffe 	bl	0 <udelay>
 ac0:	e1a00004 	mov	r0, r4
 ac4:	e3a01001 	mov	r1, #1
 ac8:	ebfffffe 	bl	0 <bcm2835_i2c_read>
 acc:	e28dd008 	add	sp, sp, #8
 ad0:	e8bd8010 	pop	{r4, pc}
 ad4:	00000000 	andeq	r0, r0, r0
 ad8:	000009c4 	andeq	r0, r0, r4, asr #19
 adc:	20804000 	addcs	r4, r0, r0

00000ae0 <bw_i2c_ui_get_contrast>:
 ae0:	e92d4010 	push	{r4, lr}
 ae4:	e3a0e012 	mov	lr, #18
 ae8:	e1a04000 	mov	r4, r0
 aec:	e59f204c 	ldr	r2, [pc, #76]	; b40 <bw_i2c_ui_get_contrast+0x60>
 af0:	e24dd008 	sub	sp, sp, #8
 af4:	e5d22000 	ldrb	r2, [r2]
 af8:	e28d3008 	add	r3, sp, #8
 afc:	e59fc040 	ldr	ip, [pc, #64]	; b44 <bw_i2c_ui_get_contrast+0x64>
 b00:	e59f1040 	ldr	r1, [pc, #64]	; b48 <bw_i2c_ui_get_contrast+0x68>
 b04:	e563e004 	strb	lr, [r3, #-4]!
 b08:	e1a020a2 	lsr	r2, r2, #1
 b0c:	e581200c 	str	r2, [r1, #12]
 b10:	e1a00003 	mov	r0, r3
 b14:	e581c014 	str	ip, [r1, #20]
 b18:	e3a01001 	mov	r1, #1
 b1c:	ebfffffe 	bl	0 <bcm2835_i2c_write>
 b20:	e3a0000e 	mov	r0, #14
 b24:	e3a01000 	mov	r1, #0
 b28:	ebfffffe 	bl	0 <udelay>
 b2c:	e1a00004 	mov	r0, r4
 b30:	e3a01001 	mov	r1, #1
 b34:	ebfffffe 	bl	0 <bcm2835_i2c_read>
 b38:	e28dd008 	add	sp, sp, #8
 b3c:	e8bd8010 	pop	{r4, pc}
 b40:	00000000 	andeq	r0, r0, r0
 b44:	000009c4 	andeq	r0, r0, r4, asr #19
 b48:	20804000 	addcs	r4, r0, r0

00000b4c <bw_i2c_ui_reinit>:
 b4c:	e52de004 	push	{lr}		; (str lr, [sp, #-4]!)
 b50:	e59f3044 	ldr	r3, [pc, #68]	; b9c <bw_i2c_ui_reinit+0x50>
 b54:	e59f2044 	ldr	r2, [pc, #68]	; ba0 <bw_i2c_ui_reinit+0x54>
 b58:	e5d33000 	ldrb	r3, [r3]
 b5c:	e1d210b0 	ldrh	r1, [r2]
 b60:	e59fc03c 	ldr	ip, [pc, #60]	; ba4 <bw_i2c_ui_reinit+0x58>
 b64:	e59f203c 	ldr	r2, [pc, #60]	; ba8 <bw_i2c_ui_reinit+0x5c>
 b68:	e24dd00c 	sub	sp, sp, #12
 b6c:	e1a030a3 	lsr	r3, r3, #1
 b70:	e1cd10b4 	strh	r1, [sp, #4]
 b74:	e28d0004 	add	r0, sp, #4
 b78:	e582300c 	str	r3, [r2, #12]
 b7c:	e3a01002 	mov	r1, #2
 b80:	e582c014 	str	ip, [r2, #20]
 b84:	ebfffffe 	bl	0 <bcm2835_i2c_write>
 b88:	e59f001c 	ldr	r0, [pc, #28]	; bac <bw_i2c_ui_reinit+0x60>
 b8c:	e3a01000 	mov	r1, #0
 b90:	ebfffffe 	bl	0 <udelay>
 b94:	e28dd00c 	add	sp, sp, #12
 b98:	e49df004 	pop	{pc}		; (ldr pc, [sp], #4)
 b9c:	00000000 	andeq	r0, r0, r0
 ba0:	00000008 	andeq	r0, r0, r8
 ba4:	000009c4 	andeq	r0, r0, r4, asr #19
 ba8:	20804000 	addcs	r4, r0, r0
 bac:	0007a120 	andeq	sl, r7, r0, lsr #2

00000bb0 <bw_i2c_ui_read_id>:
 bb0:	e3a01001 	mov	r1, #1
 bb4:	e52de004 	push	{lr}		; (str lr, [sp, #-4]!)
 bb8:	e59f3050 	ldr	r3, [pc, #80]	; c10 <bw_i2c_ui_read_id+0x60>
 bbc:	e24dd01c 	sub	sp, sp, #28
 bc0:	e5d33000 	ldrb	r3, [r3]
 bc4:	e59f2048 	ldr	r2, [pc, #72]	; c14 <bw_i2c_ui_read_id+0x64>
 bc8:	e59fc048 	ldr	ip, [pc, #72]	; c18 <bw_i2c_ui_read_id+0x68>
 bcc:	e1a03133 	lsr	r3, r3, r1
 bd0:	e28d0018 	add	r0, sp, #24
 bd4:	e5601018 	strb	r1, [r0, #-24]!	; 0xffffffe8
 bd8:	e582300c 	str	r3, [r2, #12]
 bdc:	e582c014 	str	ip, [r2, #20]
 be0:	ebfffffe 	bl	0 <bcm2835_i2c_write>
 be4:	e3a0000e 	mov	r0, #14
 be8:	e3a01000 	mov	r1, #0
 bec:	ebfffffe 	bl	0 <udelay>
 bf0:	e28d0004 	add	r0, sp, #4
 bf4:	e3a01014 	mov	r1, #20
 bf8:	ebfffffe 	bl	0 <bcm2835_i2c_read>
 bfc:	e28d1004 	add	r1, sp, #4
 c00:	e59f0014 	ldr	r0, [pc, #20]	; c1c <bw_i2c_ui_read_id+0x6c>
 c04:	ebfffffe 	bl	0 <printf>
 c08:	e28dd01c 	add	sp, sp, #28
 c0c:	e49df004 	pop	{pc}		; (ldr pc, [sp], #4)
 c10:	00000000 	andeq	r0, r0, r0
 c14:	20804000 	addcs	r4, r0, r0
 c18:	000009c4 	andeq	r0, r0, r4, asr #19
 c1c:	00000000 	andeq	r0, r0, r0

00000c20 <bw_i2c_ui_read_button>:
 c20:	e3500005 	cmp	r0, #5
 c24:	9a000001 	bls	c30 <bw_i2c_ui_read_button+0x10>
 c28:	e3a00000 	mov	r0, #0
 c2c:	e12fff1e 	bx	lr
 c30:	e3e01000 	mvn	r1, #0
 c34:	e52de004 	push	{lr}		; (str lr, [sp, #-4]!)
 c38:	e59f3054 	ldr	r3, [pc, #84]	; c94 <bw_i2c_ui_read_button+0x74>
 c3c:	e59f2054 	ldr	r2, [pc, #84]	; c98 <bw_i2c_ui_read_button+0x78>
 c40:	e5d33000 	ldrb	r3, [r3]
 c44:	e59fc050 	ldr	ip, [pc, #80]	; c9c <bw_i2c_ui_read_button+0x7c>
 c48:	e24dd00c 	sub	sp, sp, #12
 c4c:	e1a030a3 	lsr	r3, r3, #1
 c50:	e2800040 	add	r0, r0, #64	; 0x40
 c54:	e5cd0004 	strb	r0, [sp, #4]
 c58:	e5cd1005 	strb	r1, [sp, #5]
 c5c:	e28d0004 	add	r0, sp, #4
 c60:	e582300c 	str	r3, [r2, #12]
 c64:	e3a01002 	mov	r1, #2
 c68:	e582c014 	str	ip, [r2, #20]
 c6c:	ebfffffe 	bl	0 <bcm2835_i2c_write>
 c70:	e3a0000e 	mov	r0, #14
 c74:	e3a01000 	mov	r1, #0
 c78:	ebfffffe 	bl	0 <udelay>
 c7c:	e1a0000d 	mov	r0, sp
 c80:	e3a01001 	mov	r1, #1
 c84:	ebfffffe 	bl	0 <bcm2835_i2c_read>
 c88:	e5dd0000 	ldrb	r0, [sp]
 c8c:	e28dd00c 	add	sp, sp, #12
 c90:	e49df004 	pop	{pc}		; (ldr pc, [sp], #4)
 c94:	00000000 	andeq	r0, r0, r0
 c98:	20804000 	addcs	r4, r0, r0
 c9c:	000009c4 	andeq	r0, r0, r4, asr #19

00000ca0 <bw_i2c_ui_read_button_last>:
 ca0:	e52de004 	push	{lr}		; (str lr, [sp, #-4]!)
 ca4:	e59f3054 	ldr	r3, [pc, #84]	; d00 <bw_i2c_ui_read_button_last+0x60>
 ca8:	e59f2054 	ldr	r2, [pc, #84]	; d04 <bw_i2c_ui_read_button_last+0x64>
 cac:	e5d33000 	ldrb	r3, [r3]
 cb0:	e59fc050 	ldr	ip, [pc, #80]	; d08 <bw_i2c_ui_read_button_last+0x68>
 cb4:	e1d210b0 	ldrh	r1, [r2]
 cb8:	e59f204c 	ldr	r2, [pc, #76]	; d0c <bw_i2c_ui_read_button_last+0x6c>
 cbc:	e24dd00c 	sub	sp, sp, #12
 cc0:	e1a030a3 	lsr	r3, r3, #1
 cc4:	e1cd10b4 	strh	r1, [sp, #4]
 cc8:	e28d0004 	add	r0, sp, #4
 ccc:	e582300c 	str	r3, [r2, #12]
 cd0:	e3a01002 	mov	r1, #2
 cd4:	e582c014 	str	ip, [r2, #20]
 cd8:	ebfffffe 	bl	0 <bcm2835_i2c_write>
 cdc:	e3a0000e 	mov	r0, #14
 ce0:	e3a01000 	mov	r1, #0
 ce4:	ebfffffe 	bl	0 <udelay>
 ce8:	e1a0000d 	mov	r0, sp
 cec:	e3a01001 	mov	r1, #1
 cf0:	ebfffffe 	bl	0 <bcm2835_i2c_read>
 cf4:	e5dd0000 	ldrb	r0, [sp]
 cf8:	e28dd00c 	add	sp, sp, #12
 cfc:	e49df004 	pop	{pc}		; (ldr pc, [sp], #4)
 d00:	00000000 	andeq	r0, r0, r0
 d04:	0000000c 	andeq	r0, r0, ip
 d08:	000009c4 	andeq	r0, r0, r4, asr #19
 d0c:	20804000 	addcs	r4, r0, r0

Disassembly of section .data:

00000000 <i2c_ui_slave_address>:
   0:	Address 0x0000000000000000 is out of bounds.


Disassembly of section .rodata:

00000000 <.rodata>:
   0:	00002010 	andeq	r2, r0, r0, lsl r0
   4:	0000ff08 	andeq	pc, r0, r8, lsl #30
   8:	00002014 	andeq	r2, r0, r4, lsl r0
   c:	0000ff31 	andeq	pc, r0, r1, lsr pc	; <UNPREDICTABLE>

Disassembly of section .rodata.str1.4:

00000000 <.rodata.str1.4>:
   0:	5d73255b 	cfldr64pl	mvdx2, [r3, #-364]!	; 0xfffffe94
   4:	0000000a 	andeq	r0, r0, sl

Disassembly of section .comment:

00000000 <.comment>:
   0:	43434700 	movtmi	r4, #14080	; 0x3700
   4:	4728203a 			; <UNDEFINED> instruction: 0x4728203a
   8:	2029554e 	eorcs	r5, r9, lr, asr #10
   c:	2e392e34 	mrccs	14, 1, r2, cr9, cr4, {1}
  10:	Address 0x0000000000000010 is out of bounds.


Disassembly of section .ARM.attributes:

00000000 <.ARM.attributes>:
   0:	00003d41 	andeq	r3, r0, r1, asr #26
   4:	61656100 	cmnvs	r5, r0, lsl #2
   8:	01006962 	tsteq	r0, r2, ror #18
   c:	00000033 	andeq	r0, r0, r3, lsr r0
  10:	4d524105 	ldfmie	f4, [r2, #-20]	; 0xffffffec
  14:	36373131 			; <UNDEFINED> instruction: 0x36373131
  18:	2d465a4a 	vstrcs	s11, [r6, #-296]	; 0xfffffed8
  1c:	07060053 	smlsdeq	r6, r3, r0, r0
  20:	01090108 	tsteq	r9, r8, lsl #2
  24:	0412020a 	ldreq	r0, [r2], #-522	; 0xfffffdf6
  28:	01150114 	tsteq	r5, r4, lsl r1
  2c:	01180317 	tsteq	r8, r7, lsl r3
  30:	011a0119 	tsteq	sl, r9, lsl r1
  34:	011c031b 	tsteq	ip, fp, lsl r3
  38:	0122021e 	teqeq	r2, lr, lsl r2
  3c:	Address 0x000000000000003c is out of bounds.


bw_spi_7fets.o:     file format elf32-littlearm


Disassembly of section .text:

00000000 <bw_spi_7fets_start>:
   0:	e92d4010 	push	{r4, lr}
   4:	e1a04000 	mov	r4, r0
   8:	e24dd008 	sub	sp, sp, #8
   c:	ebfffffe 	bl	0 <bcm2835_spi_begin>
  10:	e5d43001 	ldrb	r3, [r4, #1]
  14:	e3a0c030 	mov	ip, #48	; 0x30
  18:	e3530000 	cmp	r3, #0
  1c:	03e02077 	mvneq	r2, #119	; 0x77
  20:	03a03088 	moveq	r3, #136	; 0x88
  24:	e3a0007f 	mov	r0, #127	; 0x7f
  28:	05c42001 	strbeq	r2, [r4, #1]
  2c:	e59f104c 	ldr	r1, [pc, #76]	; 80 <bw_spi_7fets_start+0x80>
  30:	e59f204c 	ldr	r2, [pc, #76]	; 84 <bw_spi_7fets_start+0x84>
  34:	e5cdc005 	strb	ip, [sp, #5]
  38:	e5cd0006 	strb	r0, [sp, #6]
  3c:	e5cd3004 	strb	r3, [sp, #4]
  40:	e5821008 	str	r1, [r2, #8]
  44:	e5923000 	ldr	r3, [r2]
  48:	e5d41000 	ldrb	r1, [r4]
  4c:	e3c33003 	bic	r3, r3, #3
  50:	e2011003 	and	r1, r1, #3
  54:	e1813003 	orr	r3, r1, r3
  58:	e5823000 	str	r3, [r2]
  5c:	e28d0004 	add	r0, sp, #4
  60:	e3a01003 	mov	r1, #3
  64:	ebfffffe 	bl	0 <bcm2835_spi_writenb>
  68:	e3a00000 	mov	r0, #0
  6c:	e3a01000 	mov	r1, #0
  70:	ebfffffe 	bl	0 <udelay>
  74:	e3a00000 	mov	r0, #0
  78:	e28dd008 	add	sp, sp, #8
  7c:	e8bd8010 	pop	{r4, pc}
  80:	000009c4 	andeq	r0, r0, r4, asr #19
  84:	20204000 	eorcs	r4, r0, r0

00000088 <bw_spi_7fets_end>:
  88:	eafffffe 	b	0 <bcm2835_spi_end>

0000008c <bw_spi_7fets_output>:
  8c:	e3a0c010 	mov	ip, #16
  90:	e52de004 	push	{lr}		; (str lr, [sp, #-4]!)
  94:	e59f2050 	ldr	r2, [pc, #80]	; ec <bw_spi_7fets_output+0x60>
  98:	e5d0e001 	ldrb	lr, [r0, #1]
  9c:	e59f304c 	ldr	r3, [pc, #76]	; f0 <bw_spi_7fets_output+0x64>
  a0:	e24dd00c 	sub	sp, sp, #12
  a4:	e5cd1006 	strb	r1, [sp, #6]
  a8:	e5cde004 	strb	lr, [sp, #4]
  ac:	e5cdc005 	strb	ip, [sp, #5]
  b0:	e5823008 	str	r3, [r2, #8]
  b4:	e5923000 	ldr	r3, [r2]
  b8:	e5d01000 	ldrb	r1, [r0]
  bc:	e3c33003 	bic	r3, r3, #3
  c0:	e2011003 	and	r1, r1, #3
  c4:	e1813003 	orr	r3, r1, r3
  c8:	e5823000 	str	r3, [r2]
  cc:	e28d0004 	add	r0, sp, #4
  d0:	e3a01003 	mov	r1, #3
  d4:	ebfffffe 	bl	0 <bcm2835_spi_writenb>
  d8:	e3a00000 	mov	r0, #0
  dc:	e3a01000 	mov	r1, #0
  e0:	ebfffffe 	bl	0 <udelay>
  e4:	e28dd00c 	add	sp, sp, #12
  e8:	e49df004 	pop	{pc}		; (ldr pc, [sp], #4)
  ec:	20204000 	eorcs	r4, r0, r0
  f0:	000009c4 	andeq	r0, r0, r4, asr #19

Disassembly of section .comment:

00000000 <.comment>:
   0:	43434700 	movtmi	r4, #14080	; 0x3700
   4:	4728203a 			; <UNDEFINED> instruction: 0x4728203a
   8:	2029554e 	eorcs	r5, r9, lr, asr #10
   c:	2e392e34 	mrccs	14, 1, r2, cr9, cr4, {1}
  10:	Address 0x0000000000000010 is out of bounds.


Disassembly of section .ARM.attributes:

00000000 <.ARM.attributes>:
   0:	00003d41 	andeq	r3, r0, r1, asr #26
   4:	61656100 	cmnvs	r5, r0, lsl #2
   8:	01006962 	tsteq	r0, r2, ror #18
   c:	00000033 	andeq	r0, r0, r3, lsr r0
  10:	4d524105 	ldfmie	f4, [r2, #-20]	; 0xffffffec
  14:	36373131 			; <UNDEFINED> instruction: 0x36373131
  18:	2d465a4a 	vstrcs	s11, [r6, #-296]	; 0xfffffed8
  1c:	07060053 	smlsdeq	r6, r3, r0, r0
  20:	01090108 	tsteq	r9, r8, lsl #2
  24:	0412020a 	ldreq	r0, [r2], #-522	; 0xfffffdf6
  28:	01150114 	tsteq	r5, r4, lsl r1
  2c:	01180317 	tsteq	r8, r7, lsl r3
  30:	011a0119 	tsteq	sl, r9, lsl r1
  34:	011c031b 	tsteq	ip, fp, lsl r3
  38:	0122021e 	teqeq	r2, lr, lsl r2
  3c:	Address 0x000000000000003c is out of bounds.


bw_spi_dimmer.o:     file format elf32-littlearm


Disassembly of section .text:

00000000 <bw_spi_dimmer_start>:
   0:	e92d4010 	push	{r4, lr}
   4:	e1a04000 	mov	r4, r0
   8:	ebfffffe 	bl	0 <bcm2835_spi_begin>
   c:	e5d43001 	ldrb	r3, [r4, #1]
  10:	e3a00000 	mov	r0, #0
  14:	e3530000 	cmp	r3, #0
  18:	03e03061 	mvneq	r3, #97	; 0x61
  1c:	05c43001 	strbeq	r3, [r4, #1]
  20:	e8bd8010 	pop	{r4, pc}

00000024 <bw_spi_dimmer_output>:
  24:	e3a0c010 	mov	ip, #16
  28:	e52de004 	push	{lr}		; (str lr, [sp, #-4]!)
  2c:	e59f2050 	ldr	r2, [pc, #80]	; 84 <bw_spi_dimmer_output+0x60>
  30:	e5d0e001 	ldrb	lr, [r0, #1]
  34:	e59f304c 	ldr	r3, [pc, #76]	; 88 <bw_spi_dimmer_output+0x64>
  38:	e24dd00c 	sub	sp, sp, #12
  3c:	e5cd1006 	strb	r1, [sp, #6]
  40:	e5cde004 	strb	lr, [sp, #4]
  44:	e5cdc005 	strb	ip, [sp, #5]
  48:	e5823008 	str	r3, [r2, #8]
  4c:	e5923000 	ldr	r3, [r2]
  50:	e5d01000 	ldrb	r1, [r0]
  54:	e3c33003 	bic	r3, r3, #3
  58:	e2011003 	and	r1, r1, #3
  5c:	e1813003 	orr	r3, r1, r3
  60:	e5823000 	str	r3, [r2]
  64:	e28d0004 	add	r0, sp, #4
  68:	e3a01003 	mov	r1, #3
  6c:	ebfffffe 	bl	0 <bcm2835_spi_writenb>
  70:	e3a00000 	mov	r0, #0
  74:	e3a01000 	mov	r1, #0
  78:	ebfffffe 	bl	0 <udelay>
  7c:	e28dd00c 	add	sp, sp, #12
  80:	e49df004 	pop	{pc}		; (ldr pc, [sp], #4)
  84:	20204000 	eorcs	r4, r0, r0
  88:	000009c4 	andeq	r0, r0, r4, asr #19

0000008c <bw_spi_dimmer_end>:
  8c:	eafffffe 	b	0 <bcm2835_spi_end>

Disassembly of section .comment:

00000000 <.comment>:
   0:	43434700 	movtmi	r4, #14080	; 0x3700
   4:	4728203a 			; <UNDEFINED> instruction: 0x4728203a
   8:	2029554e 	eorcs	r5, r9, lr, asr #10
   c:	2e392e34 	mrccs	14, 1, r2, cr9, cr4, {1}
  10:	Address 0x0000000000000010 is out of bounds.


Disassembly of section .ARM.attributes:

00000000 <.ARM.attributes>:
   0:	00003d41 	andeq	r3, r0, r1, asr #26
   4:	61656100 	cmnvs	r5, r0, lsl #2
   8:	01006962 	tsteq	r0, r2, ror #18
   c:	00000033 	andeq	r0, r0, r3, lsr r0
  10:	4d524105 	ldfmie	f4, [r2, #-20]	; 0xffffffec
  14:	36373131 			; <UNDEFINED> instruction: 0x36373131
  18:	2d465a4a 	vstrcs	s11, [r6, #-296]	; 0xfffffed8
  1c:	07060053 	smlsdeq	r6, r3, r0, r0
  20:	01090108 	tsteq	r9, r8, lsl #2
  24:	0412020a 	ldreq	r0, [r2], #-522	; 0xfffffdf6
  28:	01150114 	tsteq	r5, r4, lsl r1
  2c:	01180317 	tsteq	r8, r7, lsl r3
  30:	011a0119 	tsteq	sl, r9, lsl r1
  34:	011c031b 	tsteq	ip, fp, lsl r3
  38:	0122021e 	teqeq	r2, lr, lsl r2
  3c:	Address 0x000000000000003c is out of bounds.


bw_spi_dio.o:     file format elf32-littlearm


Disassembly of section .text:

00000000 <bw_spi_dio_start>:
   0:	e92d4010 	push	{r4, lr}
   4:	e1a04000 	mov	r4, r0
   8:	ebfffffe 	bl	0 <bcm2835_spi_begin>
   c:	e5d43001 	ldrb	r3, [r4, #1]
  10:	e3a00000 	mov	r0, #0
  14:	e3530000 	cmp	r3, #0
  18:	03e0307b 	mvneq	r3, #123	; 0x7b
  1c:	05c43001 	strbeq	r3, [r4, #1]
  20:	e8bd8010 	pop	{r4, pc}

00000024 <bw_spi_dio_end>:
  24:	eafffffe 	b	0 <bcm2835_spi_end>

00000028 <bw_spi_dio_fsel_mask>:
  28:	e3a0c030 	mov	ip, #48	; 0x30
  2c:	e3a03ffa 	mov	r3, #1000	; 0x3e8
  30:	e52de004 	push	{lr}		; (str lr, [sp, #-4]!)
  34:	e59f204c 	ldr	r2, [pc, #76]	; 88 <bw_spi_dio_fsel_mask+0x60>
  38:	e5d0e001 	ldrb	lr, [r0, #1]
  3c:	e24dd00c 	sub	sp, sp, #12
  40:	e5cd1006 	strb	r1, [sp, #6]
  44:	e5cde004 	strb	lr, [sp, #4]
  48:	e5cdc005 	strb	ip, [sp, #5]
  4c:	e5823008 	str	r3, [r2, #8]
  50:	e5923000 	ldr	r3, [r2]
  54:	e5d01000 	ldrb	r1, [r0]
  58:	e3c33003 	bic	r3, r3, #3
  5c:	e2011003 	and	r1, r1, #3
  60:	e1813003 	orr	r3, r1, r3
  64:	e5823000 	str	r3, [r2]
  68:	e28d0004 	add	r0, sp, #4
  6c:	e3a01003 	mov	r1, #3
  70:	ebfffffe 	bl	0 <bcm2835_spi_writenb>
  74:	e3a00000 	mov	r0, #0
  78:	e3a01000 	mov	r1, #0
  7c:	ebfffffe 	bl	0 <udelay>
  80:	e28dd00c 	add	sp, sp, #12
  84:	e49df004 	pop	{pc}		; (ldr pc, [sp], #4)
  88:	20204000 	eorcs	r4, r0, r0

0000008c <bw_spi_dio_output>:
  8c:	e3a0c010 	mov	ip, #16
  90:	e3a03ffa 	mov	r3, #1000	; 0x3e8
  94:	e52de004 	push	{lr}		; (str lr, [sp, #-4]!)
  98:	e59f204c 	ldr	r2, [pc, #76]	; ec <bw_spi_dio_output+0x60>
  9c:	e5d0e001 	ldrb	lr, [r0, #1]
  a0:	e24dd00c 	sub	sp, sp, #12
  a4:	e5cd1006 	strb	r1, [sp, #6]
  a8:	e5cde004 	strb	lr, [sp, #4]
  ac:	e5cdc005 	strb	ip, [sp, #5]
  b0:	e5823008 	str	r3, [r2, #8]
  b4:	e5923000 	ldr	r3, [r2]
  b8:	e5d01000 	ldrb	r1, [r0]
  bc:	e3c33003 	bic	r3, r3, #3
  c0:	e2011003 	and	r1, r1, #3
  c4:	e1813003 	orr	r3, r1, r3
  c8:	e5823000 	str	r3, [r2]
  cc:	e28d0004 	add	r0, sp, #4
  d0:	e3a01003 	mov	r1, #3
  d4:	ebfffffe 	bl	0 <bcm2835_spi_writenb>
  d8:	e3a00000 	mov	r0, #0
  dc:	e3a01000 	mov	r1, #0
  e0:	ebfffffe 	bl	0 <udelay>
  e4:	e28dd00c 	add	sp, sp, #12
  e8:	e49df004 	pop	{pc}		; (ldr pc, [sp], #4)
  ec:	20204000 	eorcs	r4, r0, r0

Disassembly of section .comment:

00000000 <.comment>:
   0:	43434700 	movtmi	r4, #14080	; 0x3700
   4:	4728203a 			; <UNDEFINED> instruction: 0x4728203a
   8:	2029554e 	eorcs	r5, r9, lr, asr #10
   c:	2e392e34 	mrccs	14, 1, r2, cr9, cr4, {1}
  10:	Address 0x0000000000000010 is out of bounds.


Disassembly of section .ARM.attributes:

00000000 <.ARM.attributes>:
   0:	00003d41 	andeq	r3, r0, r1, asr #26
   4:	61656100 	cmnvs	r5, r0, lsl #2
   8:	01006962 	tsteq	r0, r2, ror #18
   c:	00000033 	andeq	r0, r0, r3, lsr r0
  10:	4d524105 	ldfmie	f4, [r2, #-20]	; 0xffffffec
  14:	36373131 			; <UNDEFINED> instruction: 0x36373131
  18:	2d465a4a 	vstrcs	s11, [r6, #-296]	; 0xfffffed8
  1c:	07060053 	smlsdeq	r6, r3, r0, r0
  20:	01090108 	tsteq	r9, r8, lsl #2
  24:	0412020a 	ldreq	r0, [r2], #-522	; 0xfffffdf6
  28:	01150114 	tsteq	r5, r4, lsl r1
  2c:	01180317 	tsteq	r8, r7, lsl r3
  30:	011a0119 	tsteq	sl, r9, lsl r1
  34:	011c031b 	tsteq	ip, fp, lsl r3
  38:	0122021e 	teqeq	r2, lr, lsl r2
  3c:	Address 0x000000000000003c is out of bounds.


bw_spi_lcd.o:     file format elf32-littlearm


Disassembly of section .text:

00000000 <bw_spi_lcd_start>:
   0:	e92d4010 	push	{r4, lr}
   4:	e1a04000 	mov	r4, r0
   8:	ebfffffe 	bl	0 <bcm2835_spi_begin>
   c:	e5d43001 	ldrb	r3, [r4, #1]
  10:	e3a00000 	mov	r0, #0
  14:	e3530000 	cmp	r3, #0
  18:	03e0307d 	mvneq	r3, #125	; 0x7d
  1c:	05c43001 	strbeq	r3, [r4, #1]
  20:	e8bd8010 	pop	{r4, pc}

00000024 <bw_spi_lcd_end>:
  24:	eafffffe 	b	0 <bcm2835_spi_end>

00000028 <bw_spi_lcd_set_cursor>:
  28:	e92d4010 	push	{r4, lr}
  2c:	e3a0e011 	mov	lr, #17
  30:	e5d04001 	ldrb	r4, [r0, #1]
  34:	e59fc058 	ldr	ip, [pc, #88]	; 94 <bw_spi_lcd_set_cursor+0x6c>
  38:	e2011003 	and	r1, r1, #3
  3c:	e59f3054 	ldr	r3, [pc, #84]	; 98 <bw_spi_lcd_set_cursor+0x70>
  40:	e202201f 	and	r2, r2, #31
  44:	e24dd008 	sub	sp, sp, #8
  48:	e1822281 	orr	r2, r2, r1, lsl #5
  4c:	e5cd2006 	strb	r2, [sp, #6]
  50:	e5cde005 	strb	lr, [sp, #5]
  54:	e5cd4004 	strb	r4, [sp, #4]
  58:	e58c3008 	str	r3, [ip, #8]
  5c:	e59c3000 	ldr	r3, [ip]
  60:	e5d02000 	ldrb	r2, [r0]
  64:	e3c33003 	bic	r3, r3, #3
  68:	e2022003 	and	r2, r2, #3
  6c:	e1823003 	orr	r3, r2, r3
  70:	e58c3000 	str	r3, [ip]
  74:	e28d0004 	add	r0, sp, #4
  78:	e3a01003 	mov	r1, #3
  7c:	ebfffffe 	bl	0 <bcm2835_spi_writenb>
  80:	e3a0000a 	mov	r0, #10
  84:	e3a01000 	mov	r1, #0
  88:	ebfffffe 	bl	0 <udelay>
  8c:	e28dd008 	add	sp, sp, #8
  90:	e8bd8010 	pop	{r4, pc}
  94:	20204000 	eorcs	r4, r0, r0
  98:	000009c4 	andeq	r0, r0, r4, asr #19

0000009c <bw_spi_lcd_text>:
  9c:	e3520010 	cmp	r2, #16
  a0:	e3a03000 	mov	r3, #0
  a4:	23a02010 	movcs	r2, #16
  a8:	e52de004 	push	{lr}		; (str lr, [sp, #-4]!)
  ac:	e5d0c001 	ldrb	ip, [r0, #1]
  b0:	e24dd01c 	sub	sp, sp, #28
  b4:	e1520003 	cmp	r2, r3
  b8:	e5cdc004 	strb	ip, [sp, #4]
  bc:	e5cd3005 	strb	r3, [sp, #5]
  c0:	0a00003c 	beq	1b8 <bw_spi_lcd_text+0x11c>
  c4:	e5d13000 	ldrb	r3, [r1]
  c8:	e3520001 	cmp	r2, #1
  cc:	e5cd3006 	strb	r3, [sp, #6]
  d0:	0a000038 	beq	1b8 <bw_spi_lcd_text+0x11c>
  d4:	e5d13001 	ldrb	r3, [r1, #1]
  d8:	e3520002 	cmp	r2, #2
  dc:	e5cd3007 	strb	r3, [sp, #7]
  e0:	0a000034 	beq	1b8 <bw_spi_lcd_text+0x11c>
  e4:	e5d13002 	ldrb	r3, [r1, #2]
  e8:	e3520003 	cmp	r2, #3
  ec:	e5cd3008 	strb	r3, [sp, #8]
  f0:	0a000030 	beq	1b8 <bw_spi_lcd_text+0x11c>
  f4:	e5d13003 	ldrb	r3, [r1, #3]
  f8:	e3520004 	cmp	r2, #4
  fc:	e5cd3009 	strb	r3, [sp, #9]
 100:	0a00002c 	beq	1b8 <bw_spi_lcd_text+0x11c>
 104:	e5d13004 	ldrb	r3, [r1, #4]
 108:	e3520005 	cmp	r2, #5
 10c:	e5cd300a 	strb	r3, [sp, #10]
 110:	0a000028 	beq	1b8 <bw_spi_lcd_text+0x11c>
 114:	e5d13005 	ldrb	r3, [r1, #5]
 118:	e3520006 	cmp	r2, #6
 11c:	e5cd300b 	strb	r3, [sp, #11]
 120:	0a000024 	beq	1b8 <bw_spi_lcd_text+0x11c>
 124:	e5d13006 	ldrb	r3, [r1, #6]
 128:	e3520007 	cmp	r2, #7
 12c:	e5cd300c 	strb	r3, [sp, #12]
 130:	0a000020 	beq	1b8 <bw_spi_lcd_text+0x11c>
 134:	e5d13007 	ldrb	r3, [r1, #7]
 138:	e3520008 	cmp	r2, #8
 13c:	e5cd300d 	strb	r3, [sp, #13]
 140:	0a00001c 	beq	1b8 <bw_spi_lcd_text+0x11c>
 144:	e5d13008 	ldrb	r3, [r1, #8]
 148:	e3520009 	cmp	r2, #9
 14c:	e5cd300e 	strb	r3, [sp, #14]
 150:	0a000018 	beq	1b8 <bw_spi_lcd_text+0x11c>
 154:	e5d13009 	ldrb	r3, [r1, #9]
 158:	e352000a 	cmp	r2, #10
 15c:	e5cd300f 	strb	r3, [sp, #15]
 160:	0a000014 	beq	1b8 <bw_spi_lcd_text+0x11c>
 164:	e5d1300a 	ldrb	r3, [r1, #10]
 168:	e352000b 	cmp	r2, #11
 16c:	e5cd3010 	strb	r3, [sp, #16]
 170:	0a000010 	beq	1b8 <bw_spi_lcd_text+0x11c>
 174:	e5d1300b 	ldrb	r3, [r1, #11]
 178:	e352000c 	cmp	r2, #12
 17c:	e5cd3011 	strb	r3, [sp, #17]
 180:	0a00000c 	beq	1b8 <bw_spi_lcd_text+0x11c>
 184:	e5d1300c 	ldrb	r3, [r1, #12]
 188:	e352000d 	cmp	r2, #13
 18c:	e5cd3012 	strb	r3, [sp, #18]
 190:	0a000008 	beq	1b8 <bw_spi_lcd_text+0x11c>
 194:	e5d1300d 	ldrb	r3, [r1, #13]
 198:	e352000e 	cmp	r2, #14
 19c:	e5cd3013 	strb	r3, [sp, #19]
 1a0:	0a000004 	beq	1b8 <bw_spi_lcd_text+0x11c>
 1a4:	e5d1300e 	ldrb	r3, [r1, #14]
 1a8:	e3520010 	cmp	r2, #16
 1ac:	e5cd3014 	strb	r3, [sp, #20]
 1b0:	05d1300f 	ldrbeq	r3, [r1, #15]
 1b4:	05cd3015 	strbeq	r3, [sp, #21]
 1b8:	e59fc03c 	ldr	ip, [pc, #60]	; 1fc <bw_spi_lcd_text+0x160>
 1bc:	e59f303c 	ldr	r3, [pc, #60]	; 200 <bw_spi_lcd_text+0x164>
 1c0:	e2821002 	add	r1, r2, #2
 1c4:	e58c3008 	str	r3, [ip, #8]
 1c8:	e59c3000 	ldr	r3, [ip]
 1cc:	e5d02000 	ldrb	r2, [r0]
 1d0:	e3c33003 	bic	r3, r3, #3
 1d4:	e2022003 	and	r2, r2, #3
 1d8:	e1823003 	orr	r3, r2, r3
 1dc:	e58c3000 	str	r3, [ip]
 1e0:	e28d0004 	add	r0, sp, #4
 1e4:	ebfffffe 	bl	0 <bcm2835_spi_writenb>
 1e8:	e3a0000a 	mov	r0, #10
 1ec:	e3a01000 	mov	r1, #0
 1f0:	ebfffffe 	bl	0 <udelay>
 1f4:	e28dd01c 	add	sp, sp, #28
 1f8:	e49df004 	pop	{pc}		; (ldr pc, [sp], #4)
 1fc:	20204000 	eorcs	r4, r0, r0
 200:	000009c4 	andeq	r0, r0, r4, asr #19

00000204 <bw_spi_lcd_text_line_1>:
 204:	e92d41f0 	push	{r4, r5, r6, r7, r8, lr}
 208:	e3a0c011 	mov	ip, #17
 20c:	e3a08000 	mov	r8, #0
 210:	e1a06000 	mov	r6, r0
 214:	e1a04002 	mov	r4, r2
 218:	e24dd018 	sub	sp, sp, #24
 21c:	e5d02001 	ldrb	r2, [r0, #1]
 220:	e59f31a0 	ldr	r3, [pc, #416]	; 3c8 <bw_spi_lcd_text_line_1+0x1c4>
 224:	e59f01a0 	ldr	r0, [pc, #416]	; 3cc <bw_spi_lcd_text_line_1+0x1c8>
 228:	e28d7018 	add	r7, sp, #24
 22c:	e5672014 	strb	r2, [r7, #-20]!	; 0xffffffec
 230:	e5cdc005 	strb	ip, [sp, #5]
 234:	e5cd8006 	strb	r8, [sp, #6]
 238:	e5803008 	str	r3, [r0, #8]
 23c:	e5903000 	ldr	r3, [r0]
 240:	e5d6c000 	ldrb	ip, [r6]
 244:	e3c32003 	bic	r2, r3, #3
 248:	e20c3003 	and	r3, ip, #3
 24c:	e1833002 	orr	r3, r3, r2
 250:	e5803000 	str	r3, [r0]
 254:	e1a05001 	mov	r5, r1
 258:	e1a00007 	mov	r0, r7
 25c:	e3a01003 	mov	r1, #3
 260:	ebfffffe 	bl	0 <bcm2835_spi_writenb>
 264:	e3a0000a 	mov	r0, #10
 268:	e3a01000 	mov	r1, #0
 26c:	ebfffffe 	bl	0 <udelay>
 270:	e3540010 	cmp	r4, #16
 274:	31a02004 	movcc	r2, r4
 278:	23a02010 	movcs	r2, #16
 27c:	e5d63001 	ldrb	r3, [r6, #1]
 280:	e1520008 	cmp	r2, r8
 284:	e5cd8005 	strb	r8, [sp, #5]
 288:	e5cd3004 	strb	r3, [sp, #4]
 28c:	0a00003c 	beq	384 <bw_spi_lcd_text_line_1+0x180>
 290:	e5d53000 	ldrb	r3, [r5]
 294:	e3520001 	cmp	r2, #1
 298:	e5cd3006 	strb	r3, [sp, #6]
 29c:	0a000038 	beq	384 <bw_spi_lcd_text_line_1+0x180>
 2a0:	e5d53001 	ldrb	r3, [r5, #1]
 2a4:	e3520002 	cmp	r2, #2
 2a8:	e5cd3007 	strb	r3, [sp, #7]
 2ac:	0a000034 	beq	384 <bw_spi_lcd_text_line_1+0x180>
 2b0:	e5d53002 	ldrb	r3, [r5, #2]
 2b4:	e3520003 	cmp	r2, #3
 2b8:	e5cd3008 	strb	r3, [sp, #8]
 2bc:	0a000030 	beq	384 <bw_spi_lcd_text_line_1+0x180>
 2c0:	e5d53003 	ldrb	r3, [r5, #3]
 2c4:	e3520004 	cmp	r2, #4
 2c8:	e5cd3009 	strb	r3, [sp, #9]
 2cc:	0a00002c 	beq	384 <bw_spi_lcd_text_line_1+0x180>
 2d0:	e5d53004 	ldrb	r3, [r5, #4]
 2d4:	e3520005 	cmp	r2, #5
 2d8:	e5cd300a 	strb	r3, [sp, #10]
 2dc:	0a000028 	beq	384 <bw_spi_lcd_text_line_1+0x180>
 2e0:	e5d53005 	ldrb	r3, [r5, #5]
 2e4:	e3520006 	cmp	r2, #6
 2e8:	e5cd300b 	strb	r3, [sp, #11]
 2ec:	0a000024 	beq	384 <bw_spi_lcd_text_line_1+0x180>
 2f0:	e5d53006 	ldrb	r3, [r5, #6]
 2f4:	e3520007 	cmp	r2, #7
 2f8:	e5cd300c 	strb	r3, [sp, #12]
 2fc:	0a000020 	beq	384 <bw_spi_lcd_text_line_1+0x180>
 300:	e5d53007 	ldrb	r3, [r5, #7]
 304:	e3520008 	cmp	r2, #8
 308:	e5cd300d 	strb	r3, [sp, #13]
 30c:	0a00001c 	beq	384 <bw_spi_lcd_text_line_1+0x180>
 310:	e5d53008 	ldrb	r3, [r5, #8]
 314:	e3520009 	cmp	r2, #9
 318:	e5cd300e 	strb	r3, [sp, #14]
 31c:	0a000018 	beq	384 <bw_spi_lcd_text_line_1+0x180>
 320:	e5d53009 	ldrb	r3, [r5, #9]
 324:	e352000a 	cmp	r2, #10
 328:	e5cd300f 	strb	r3, [sp, #15]
 32c:	0a000014 	beq	384 <bw_spi_lcd_text_line_1+0x180>
 330:	e5d5300a 	ldrb	r3, [r5, #10]
 334:	e352000b 	cmp	r2, #11
 338:	e5cd3010 	strb	r3, [sp, #16]
 33c:	0a000010 	beq	384 <bw_spi_lcd_text_line_1+0x180>
 340:	e5d5300b 	ldrb	r3, [r5, #11]
 344:	e352000c 	cmp	r2, #12
 348:	e5cd3011 	strb	r3, [sp, #17]
 34c:	0a00000c 	beq	384 <bw_spi_lcd_text_line_1+0x180>
 350:	e5d5300c 	ldrb	r3, [r5, #12]
 354:	e352000d 	cmp	r2, #13
 358:	e5cd3012 	strb	r3, [sp, #18]
 35c:	0a000008 	beq	384 <bw_spi_lcd_text_line_1+0x180>
 360:	e5d5300d 	ldrb	r3, [r5, #13]
 364:	e352000e 	cmp	r2, #14
 368:	e5cd3013 	strb	r3, [sp, #19]
 36c:	0a000004 	beq	384 <bw_spi_lcd_text_line_1+0x180>
 370:	e5d5300e 	ldrb	r3, [r5, #14]
 374:	e3520010 	cmp	r2, #16
 378:	e5cd3014 	strb	r3, [sp, #20]
 37c:	05d5300f 	ldrbeq	r3, [r5, #15]
 380:	05cd3015 	strbeq	r3, [sp, #21]
 384:	e59fc040 	ldr	ip, [pc, #64]	; 3cc <bw_spi_lcd_text_line_1+0x1c8>
 388:	e59f3038 	ldr	r3, [pc, #56]	; 3c8 <bw_spi_lcd_text_line_1+0x1c4>
 38c:	e1a00007 	mov	r0, r7
 390:	e58c3008 	str	r3, [ip, #8]
 394:	e59c3000 	ldr	r3, [ip]
 398:	e5d61000 	ldrb	r1, [r6]
 39c:	e3c33003 	bic	r3, r3, #3
 3a0:	e2011003 	and	r1, r1, #3
 3a4:	e1813003 	orr	r3, r1, r3
 3a8:	e58c3000 	str	r3, [ip]
 3ac:	e2821002 	add	r1, r2, #2
 3b0:	ebfffffe 	bl	0 <bcm2835_spi_writenb>
 3b4:	e3a0000a 	mov	r0, #10
 3b8:	e3a01000 	mov	r1, #0
 3bc:	ebfffffe 	bl	0 <udelay>
 3c0:	e28dd018 	add	sp, sp, #24
 3c4:	e8bd81f0 	pop	{r4, r5, r6, r7, r8, pc}
 3c8:	000009c4 	andeq	r0, r0, r4, asr #19
 3cc:	20204000 	eorcs	r4, r0, r0

000003d0 <bw_spi_lcd_text_line_2>:
 3d0:	e92d4070 	push	{r4, r5, r6, lr}
 3d4:	e3a0c020 	mov	ip, #32
 3d8:	e3a0e011 	mov	lr, #17
 3dc:	e1a06000 	mov	r6, r0
 3e0:	e1a04002 	mov	r4, r2
 3e4:	e59f31a8 	ldr	r3, [pc, #424]	; 594 <bw_spi_lcd_text_line_2+0x1c4>
 3e8:	e5d02001 	ldrb	r2, [r0, #1]
 3ec:	e59f01a4 	ldr	r0, [pc, #420]	; 598 <bw_spi_lcd_text_line_2+0x1c8>
 3f0:	e24dd018 	sub	sp, sp, #24
 3f4:	e5cd2004 	strb	r2, [sp, #4]
 3f8:	e5cde005 	strb	lr, [sp, #5]
 3fc:	e5cdc006 	strb	ip, [sp, #6]
 400:	e5803008 	str	r3, [r0, #8]
 404:	e5903000 	ldr	r3, [r0]
 408:	e5d6c000 	ldrb	ip, [r6]
 40c:	e3c32003 	bic	r2, r3, #3
 410:	e20c3003 	and	r3, ip, #3
 414:	e1833002 	orr	r3, r3, r2
 418:	e5803000 	str	r3, [r0]
 41c:	e1a05001 	mov	r5, r1
 420:	e28d0004 	add	r0, sp, #4
 424:	e3a01003 	mov	r1, #3
 428:	ebfffffe 	bl	0 <bcm2835_spi_writenb>
 42c:	e3a01000 	mov	r1, #0
 430:	e3a0000a 	mov	r0, #10
 434:	ebfffffe 	bl	0 <udelay>
 438:	e3540010 	cmp	r4, #16
 43c:	e3a03000 	mov	r3, #0
 440:	31a02004 	movcc	r2, r4
 444:	23a02010 	movcs	r2, #16
 448:	e5d61001 	ldrb	r1, [r6, #1]
 44c:	e1520003 	cmp	r2, r3
 450:	e5cd1004 	strb	r1, [sp, #4]
 454:	e5cd3005 	strb	r3, [sp, #5]
 458:	0a00003c 	beq	550 <bw_spi_lcd_text_line_2+0x180>
 45c:	e5d53000 	ldrb	r3, [r5]
 460:	e3520001 	cmp	r2, #1
 464:	e5cd3006 	strb	r3, [sp, #6]
 468:	0a000038 	beq	550 <bw_spi_lcd_text_line_2+0x180>
 46c:	e5d53001 	ldrb	r3, [r5, #1]
 470:	e3520002 	cmp	r2, #2
 474:	e5cd3007 	strb	r3, [sp, #7]
 478:	0a000034 	beq	550 <bw_spi_lcd_text_line_2+0x180>
 47c:	e5d53002 	ldrb	r3, [r5, #2]
 480:	e3520003 	cmp	r2, #3
 484:	e5cd3008 	strb	r3, [sp, #8]
 488:	0a000030 	beq	550 <bw_spi_lcd_text_line_2+0x180>
 48c:	e5d53003 	ldrb	r3, [r5, #3]
 490:	e3520004 	cmp	r2, #4
 494:	e5cd3009 	strb	r3, [sp, #9]
 498:	0a00002c 	beq	550 <bw_spi_lcd_text_line_2+0x180>
 49c:	e5d53004 	ldrb	r3, [r5, #4]
 4a0:	e3520005 	cmp	r2, #5
 4a4:	e5cd300a 	strb	r3, [sp, #10]
 4a8:	0a000028 	beq	550 <bw_spi_lcd_text_line_2+0x180>
 4ac:	e5d53005 	ldrb	r3, [r5, #5]
 4b0:	e3520006 	cmp	r2, #6
 4b4:	e5cd300b 	strb	r3, [sp, #11]
 4b8:	0a000024 	beq	550 <bw_spi_lcd_text_line_2+0x180>
 4bc:	e5d53006 	ldrb	r3, [r5, #6]
 4c0:	e3520007 	cmp	r2, #7
 4c4:	e5cd300c 	strb	r3, [sp, #12]
 4c8:	0a000020 	beq	550 <bw_spi_lcd_text_line_2+0x180>
 4cc:	e5d53007 	ldrb	r3, [r5, #7]
 4d0:	e3520008 	cmp	r2, #8
 4d4:	e5cd300d 	strb	r3, [sp, #13]
 4d8:	0a00001c 	beq	550 <bw_spi_lcd_text_line_2+0x180>
 4dc:	e5d53008 	ldrb	r3, [r5, #8]
 4e0:	e3520009 	cmp	r2, #9
 4e4:	e5cd300e 	strb	r3, [sp, #14]
 4e8:	0a000018 	beq	550 <bw_spi_lcd_text_line_2+0x180>
 4ec:	e5d53009 	ldrb	r3, [r5, #9]
 4f0:	e352000a 	cmp	r2, #10
 4f4:	e5cd300f 	strb	r3, [sp, #15]
 4f8:	0a000014 	beq	550 <bw_spi_lcd_text_line_2+0x180>
 4fc:	e5d5300a 	ldrb	r3, [r5, #10]
 500:	e352000b 	cmp	r2, #11
 504:	e5cd3010 	strb	r3, [sp, #16]
 508:	0a000010 	beq	550 <bw_spi_lcd_text_line_2+0x180>
 50c:	e5d5300b 	ldrb	r3, [r5, #11]
 510:	e352000c 	cmp	r2, #12
 514:	e5cd3011 	strb	r3, [sp, #17]
 518:	0a00000c 	beq	550 <bw_spi_lcd_text_line_2+0x180>
 51c:	e5d5300c 	ldrb	r3, [r5, #12]
 520:	e352000d 	cmp	r2, #13
 524:	e5cd3012 	strb	r3, [sp, #18]
 528:	0a000008 	beq	550 <bw_spi_lcd_text_line_2+0x180>
 52c:	e5d5300d 	ldrb	r3, [r5, #13]
 530:	e352000e 	cmp	r2, #14
 534:	e5cd3013 	strb	r3, [sp, #19]
 538:	0a000004 	beq	550 <bw_spi_lcd_text_line_2+0x180>
 53c:	e5d5300e 	ldrb	r3, [r5, #14]
 540:	e3520010 	cmp	r2, #16
 544:	e5cd3014 	strb	r3, [sp, #20]
 548:	05d5300f 	ldrbeq	r3, [r5, #15]
 54c:	05cd3015 	strbeq	r3, [sp, #21]
 550:	e59fc040 	ldr	ip, [pc, #64]	; 598 <bw_spi_lcd_text_line_2+0x1c8>
 554:	e59f3038 	ldr	r3, [pc, #56]	; 594 <bw_spi_lcd_text_line_2+0x1c4>
 558:	e28d0004 	add	r0, sp, #4
 55c:	e58c3008 	str	r3, [ip, #8]
 560:	e59c3000 	ldr	r3, [ip]
 564:	e5d61000 	ldrb	r1, [r6]
 568:	e3c33003 	bic	r3, r3, #3
 56c:	e2011003 	and	r1, r1, #3
 570:	e1813003 	orr	r3, r1, r3
 574:	e58c3000 	str	r3, [ip]
 578:	e2821002 	add	r1, r2, #2
 57c:	ebfffffe 	bl	0 <bcm2835_spi_writenb>
 580:	e3a0000a 	mov	r0, #10
 584:	e3a01000 	mov	r1, #0
 588:	ebfffffe 	bl	0 <udelay>
 58c:	e28dd018 	add	sp, sp, #24
 590:	e8bd8070 	pop	{r4, r5, r6, pc}
 594:	000009c4 	andeq	r0, r0, r4, asr #19
 598:	20204000 	eorcs	r4, r0, r0

0000059c <bw_spi_lcd_text_line_3>:
 59c:	e92d4070 	push	{r4, r5, r6, lr}
 5a0:	e3a0c040 	mov	ip, #64	; 0x40
 5a4:	e3a0e011 	mov	lr, #17
 5a8:	e1a06000 	mov	r6, r0
 5ac:	e1a04002 	mov	r4, r2
 5b0:	e59f31a8 	ldr	r3, [pc, #424]	; 760 <bw_spi_lcd_text_line_3+0x1c4>
 5b4:	e5d02001 	ldrb	r2, [r0, #1]
 5b8:	e59f01a4 	ldr	r0, [pc, #420]	; 764 <bw_spi_lcd_text_line_3+0x1c8>
 5bc:	e24dd018 	sub	sp, sp, #24
 5c0:	e5cd2004 	strb	r2, [sp, #4]
 5c4:	e5cde005 	strb	lr, [sp, #5]
 5c8:	e5cdc006 	strb	ip, [sp, #6]
 5cc:	e5803008 	str	r3, [r0, #8]
 5d0:	e5903000 	ldr	r3, [r0]
 5d4:	e5d6c000 	ldrb	ip, [r6]
 5d8:	e3c32003 	bic	r2, r3, #3
 5dc:	e20c3003 	and	r3, ip, #3
 5e0:	e1833002 	orr	r3, r3, r2
 5e4:	e5803000 	str	r3, [r0]
 5e8:	e1a05001 	mov	r5, r1
 5ec:	e28d0004 	add	r0, sp, #4
 5f0:	e3a01003 	mov	r1, #3
 5f4:	ebfffffe 	bl	0 <bcm2835_spi_writenb>
 5f8:	e3a01000 	mov	r1, #0
 5fc:	e3a0000a 	mov	r0, #10
 600:	ebfffffe 	bl	0 <udelay>
 604:	e3540010 	cmp	r4, #16
 608:	e3a03000 	mov	r3, #0
 60c:	31a02004 	movcc	r2, r4
 610:	23a02010 	movcs	r2, #16
 614:	e5d61001 	ldrb	r1, [r6, #1]
 618:	e1520003 	cmp	r2, r3
 61c:	e5cd1004 	strb	r1, [sp, #4]
 620:	e5cd3005 	strb	r3, [sp, #5]
 624:	0a00003c 	beq	71c <bw_spi_lcd_text_line_3+0x180>
 628:	e5d53000 	ldrb	r3, [r5]
 62c:	e3520001 	cmp	r2, #1
 630:	e5cd3006 	strb	r3, [sp, #6]
 634:	0a000038 	beq	71c <bw_spi_lcd_text_line_3+0x180>
 638:	e5d53001 	ldrb	r3, [r5, #1]
 63c:	e3520002 	cmp	r2, #2
 640:	e5cd3007 	strb	r3, [sp, #7]
 644:	0a000034 	beq	71c <bw_spi_lcd_text_line_3+0x180>
 648:	e5d53002 	ldrb	r3, [r5, #2]
 64c:	e3520003 	cmp	r2, #3
 650:	e5cd3008 	strb	r3, [sp, #8]
 654:	0a000030 	beq	71c <bw_spi_lcd_text_line_3+0x180>
 658:	e5d53003 	ldrb	r3, [r5, #3]
 65c:	e3520004 	cmp	r2, #4
 660:	e5cd3009 	strb	r3, [sp, #9]
 664:	0a00002c 	beq	71c <bw_spi_lcd_text_line_3+0x180>
 668:	e5d53004 	ldrb	r3, [r5, #4]
 66c:	e3520005 	cmp	r2, #5
 670:	e5cd300a 	strb	r3, [sp, #10]
 674:	0a000028 	beq	71c <bw_spi_lcd_text_line_3+0x180>
 678:	e5d53005 	ldrb	r3, [r5, #5]
 67c:	e3520006 	cmp	r2, #6
 680:	e5cd300b 	strb	r3, [sp, #11]
 684:	0a000024 	beq	71c <bw_spi_lcd_text_line_3+0x180>
 688:	e5d53006 	ldrb	r3, [r5, #6]
 68c:	e3520007 	cmp	r2, #7
 690:	e5cd300c 	strb	r3, [sp, #12]
 694:	0a000020 	beq	71c <bw_spi_lcd_text_line_3+0x180>
 698:	e5d53007 	ldrb	r3, [r5, #7]
 69c:	e3520008 	cmp	r2, #8
 6a0:	e5cd300d 	strb	r3, [sp, #13]
 6a4:	0a00001c 	beq	71c <bw_spi_lcd_text_line_3+0x180>
 6a8:	e5d53008 	ldrb	r3, [r5, #8]
 6ac:	e3520009 	cmp	r2, #9
 6b0:	e5cd300e 	strb	r3, [sp, #14]
 6b4:	0a000018 	beq	71c <bw_spi_lcd_text_line_3+0x180>
 6b8:	e5d53009 	ldrb	r3, [r5, #9]
 6bc:	e352000a 	cmp	r2, #10
 6c0:	e5cd300f 	strb	r3, [sp, #15]
 6c4:	0a000014 	beq	71c <bw_spi_lcd_text_line_3+0x180>
 6c8:	e5d5300a 	ldrb	r3, [r5, #10]
 6cc:	e352000b 	cmp	r2, #11
 6d0:	e5cd3010 	strb	r3, [sp, #16]
 6d4:	0a000010 	beq	71c <bw_spi_lcd_text_line_3+0x180>
 6d8:	e5d5300b 	ldrb	r3, [r5, #11]
 6dc:	e352000c 	cmp	r2, #12
 6e0:	e5cd3011 	strb	r3, [sp, #17]
 6e4:	0a00000c 	beq	71c <bw_spi_lcd_text_line_3+0x180>
 6e8:	e5d5300c 	ldrb	r3, [r5, #12]
 6ec:	e352000d 	cmp	r2, #13
 6f0:	e5cd3012 	strb	r3, [sp, #18]
 6f4:	0a000008 	beq	71c <bw_spi_lcd_text_line_3+0x180>
 6f8:	e5d5300d 	ldrb	r3, [r5, #13]
 6fc:	e352000e 	cmp	r2, #14
 700:	e5cd3013 	strb	r3, [sp, #19]
 704:	0a000004 	beq	71c <bw_spi_lcd_text_line_3+0x180>
 708:	e5d5300e 	ldrb	r3, [r5, #14]
 70c:	e3520010 	cmp	r2, #16
 710:	e5cd3014 	strb	r3, [sp, #20]
 714:	05d5300f 	ldrbeq	r3, [r5, #15]
 718:	05cd3015 	strbeq	r3, [sp, #21]
 71c:	e59fc040 	ldr	ip, [pc, #64]	; 764 <bw_spi_lcd_text_line_3+0x1c8>
 720:	e59f3038 	ldr	r3, [pc, #56]	; 760 <bw_spi_lcd_text_line_3+0x1c4>
 724:	e28d0004 	add	r0, sp, #4
 728:	e58c3008 	str	r3, [ip, #8]
 72c:	e59c3000 	ldr	r3, [ip]
 730:	e5d61000 	ldrb	r1, [r6]
 734:	e3c33003 	bic	r3, r3, #3
 738:	e2011003 	and	r1, r1, #3
 73c:	e1813003 	orr	r3, r1, r3
 740:	e58c3000 	str	r3, [ip]
 744:	e2821002 	add	r1, r2, #2
 748:	ebfffffe 	bl	0 <bcm2835_spi_writenb>
 74c:	e3a0000a 	mov	r0, #10
 750:	e3a01000 	mov	r1, #0
 754:	ebfffffe 	bl	0 <udelay>
 758:	e28dd018 	add	sp, sp, #24
 75c:	e8bd8070 	pop	{r4, r5, r6, pc}
 760:	000009c4 	andeq	r0, r0, r4, asr #19
 764:	20204000 	eorcs	r4, r0, r0

00000768 <bw_spi_lcd_text_line_4>:
 768:	e92d4070 	push	{r4, r5, r6, lr}
 76c:	e3a0c060 	mov	ip, #96	; 0x60
 770:	e3a0e011 	mov	lr, #17
 774:	e1a06000 	mov	r6, r0
 778:	e1a04002 	mov	r4, r2
 77c:	e59f31a8 	ldr	r3, [pc, #424]	; 92c <bw_spi_lcd_text_line_4+0x1c4>
 780:	e5d02001 	ldrb	r2, [r0, #1]
 784:	e59f01a4 	ldr	r0, [pc, #420]	; 930 <bw_spi_lcd_text_line_4+0x1c8>
 788:	e24dd018 	sub	sp, sp, #24
 78c:	e5cd2004 	strb	r2, [sp, #4]
 790:	e5cde005 	strb	lr, [sp, #5]
 794:	e5cdc006 	strb	ip, [sp, #6]
 798:	e5803008 	str	r3, [r0, #8]
 79c:	e5903000 	ldr	r3, [r0]
 7a0:	e5d6c000 	ldrb	ip, [r6]
 7a4:	e3c32003 	bic	r2, r3, #3
 7a8:	e20c3003 	and	r3, ip, #3
 7ac:	e1833002 	orr	r3, r3, r2
 7b0:	e5803000 	str	r3, [r0]
 7b4:	e1a05001 	mov	r5, r1
 7b8:	e28d0004 	add	r0, sp, #4
 7bc:	e3a01003 	mov	r1, #3
 7c0:	ebfffffe 	bl	0 <bcm2835_spi_writenb>
 7c4:	e3a01000 	mov	r1, #0
 7c8:	e3a0000a 	mov	r0, #10
 7cc:	ebfffffe 	bl	0 <udelay>
 7d0:	e3540010 	cmp	r4, #16
 7d4:	e3a03000 	mov	r3, #0
 7d8:	31a02004 	movcc	r2, r4
 7dc:	23a02010 	movcs	r2, #16
 7e0:	e5d61001 	ldrb	r1, [r6, #1]
 7e4:	e1520003 	cmp	r2, r3
 7e8:	e5cd1004 	strb	r1, [sp, #4]
 7ec:	e5cd3005 	strb	r3, [sp, #5]
 7f0:	0a00003c 	beq	8e8 <bw_spi_lcd_text_line_4+0x180>
 7f4:	e5d53000 	ldrb	r3, [r5]
 7f8:	e3520001 	cmp	r2, #1
 7fc:	e5cd3006 	strb	r3, [sp, #6]
 800:	0a000038 	beq	8e8 <bw_spi_lcd_text_line_4+0x180>
 804:	e5d53001 	ldrb	r3, [r5, #1]
 808:	e3520002 	cmp	r2, #2
 80c:	e5cd3007 	strb	r3, [sp, #7]
 810:	0a000034 	beq	8e8 <bw_spi_lcd_text_line_4+0x180>
 814:	e5d53002 	ldrb	r3, [r5, #2]
 818:	e3520003 	cmp	r2, #3
 81c:	e5cd3008 	strb	r3, [sp, #8]
 820:	0a000030 	beq	8e8 <bw_spi_lcd_text_line_4+0x180>
 824:	e5d53003 	ldrb	r3, [r5, #3]
 828:	e3520004 	cmp	r2, #4
 82c:	e5cd3009 	strb	r3, [sp, #9]
 830:	0a00002c 	beq	8e8 <bw_spi_lcd_text_line_4+0x180>
 834:	e5d53004 	ldrb	r3, [r5, #4]
 838:	e3520005 	cmp	r2, #5
 83c:	e5cd300a 	strb	r3, [sp, #10]
 840:	0a000028 	beq	8e8 <bw_spi_lcd_text_line_4+0x180>
 844:	e5d53005 	ldrb	r3, [r5, #5]
 848:	e3520006 	cmp	r2, #6
 84c:	e5cd300b 	strb	r3, [sp, #11]
 850:	0a000024 	beq	8e8 <bw_spi_lcd_text_line_4+0x180>
 854:	e5d53006 	ldrb	r3, [r5, #6]
 858:	e3520007 	cmp	r2, #7
 85c:	e5cd300c 	strb	r3, [sp, #12]
 860:	0a000020 	beq	8e8 <bw_spi_lcd_text_line_4+0x180>
 864:	e5d53007 	ldrb	r3, [r5, #7]
 868:	e3520008 	cmp	r2, #8
 86c:	e5cd300d 	strb	r3, [sp, #13]
 870:	0a00001c 	beq	8e8 <bw_spi_lcd_text_line_4+0x180>
 874:	e5d53008 	ldrb	r3, [r5, #8]
 878:	e3520009 	cmp	r2, #9
 87c:	e5cd300e 	strb	r3, [sp, #14]
 880:	0a000018 	beq	8e8 <bw_spi_lcd_text_line_4+0x180>
 884:	e5d53009 	ldrb	r3, [r5, #9]
 888:	e352000a 	cmp	r2, #10
 88c:	e5cd300f 	strb	r3, [sp, #15]
 890:	0a000014 	beq	8e8 <bw_spi_lcd_text_line_4+0x180>
 894:	e5d5300a 	ldrb	r3, [r5, #10]
 898:	e352000b 	cmp	r2, #11
 89c:	e5cd3010 	strb	r3, [sp, #16]
 8a0:	0a000010 	beq	8e8 <bw_spi_lcd_text_line_4+0x180>
 8a4:	e5d5300b 	ldrb	r3, [r5, #11]
 8a8:	e352000c 	cmp	r2, #12
 8ac:	e5cd3011 	strb	r3, [sp, #17]
 8b0:	0a00000c 	beq	8e8 <bw_spi_lcd_text_line_4+0x180>
 8b4:	e5d5300c 	ldrb	r3, [r5, #12]
 8b8:	e352000d 	cmp	r2, #13
 8bc:	e5cd3012 	strb	r3, [sp, #18]
 8c0:	0a000008 	beq	8e8 <bw_spi_lcd_text_line_4+0x180>
 8c4:	e5d5300d 	ldrb	r3, [r5, #13]
 8c8:	e352000e 	cmp	r2, #14
 8cc:	e5cd3013 	strb	r3, [sp, #19]
 8d0:	0a000004 	beq	8e8 <bw_spi_lcd_text_line_4+0x180>
 8d4:	e5d5300e 	ldrb	r3, [r5, #14]
 8d8:	e3520010 	cmp	r2, #16
 8dc:	e5cd3014 	strb	r3, [sp, #20]
 8e0:	05d5300f 	ldrbeq	r3, [r5, #15]
 8e4:	05cd3015 	strbeq	r3, [sp, #21]
 8e8:	e59fc040 	ldr	ip, [pc, #64]	; 930 <bw_spi_lcd_text_line_4+0x1c8>
 8ec:	e59f3038 	ldr	r3, [pc, #56]	; 92c <bw_spi_lcd_text_line_4+0x1c4>
 8f0:	e28d0004 	add	r0, sp, #4
 8f4:	e58c3008 	str	r3, [ip, #8]
 8f8:	e59c3000 	ldr	r3, [ip]
 8fc:	e5d61000 	ldrb	r1, [r6]
 900:	e3c33003 	bic	r3, r3, #3
 904:	e2011003 	and	r1, r1, #3
 908:	e1813003 	orr	r3, r1, r3
 90c:	e58c3000 	str	r3, [ip]
 910:	e2821002 	add	r1, r2, #2
 914:	ebfffffe 	bl	0 <bcm2835_spi_writenb>
 918:	e3a0000a 	mov	r0, #10
 91c:	e3a01000 	mov	r1, #0
 920:	ebfffffe 	bl	0 <udelay>
 924:	e28dd018 	add	sp, sp, #24
 928:	e8bd8070 	pop	{r4, r5, r6, pc}
 92c:	000009c4 	andeq	r0, r0, r4, asr #19
 930:	20204000 	eorcs	r4, r0, r0

00000934 <bw_spi_lcd_cls>:
 934:	e52de004 	push	{lr}		; (str lr, [sp, #-4]!)
 938:	e59f305c 	ldr	r3, [pc, #92]	; 99c <bw_spi_lcd_cls+0x68>
 93c:	e5d01001 	ldrb	r1, [r0, #1]
 940:	e59f2058 	ldr	r2, [pc, #88]	; 9a0 <bw_spi_lcd_cls+0x6c>
 944:	e1d3e0b0 	ldrh	lr, [r3]
 948:	e5d3c002 	ldrb	ip, [r3, #2]
 94c:	e59f3050 	ldr	r3, [pc, #80]	; 9a4 <bw_spi_lcd_cls+0x70>
 950:	e24dd00c 	sub	sp, sp, #12
 954:	e1cde0b4 	strh	lr, [sp, #4]
 958:	e5cdc006 	strb	ip, [sp, #6]
 95c:	e5cd1004 	strb	r1, [sp, #4]
 960:	e5823008 	str	r3, [r2, #8]
 964:	e5923000 	ldr	r3, [r2]
 968:	e5d01000 	ldrb	r1, [r0]
 96c:	e3c33003 	bic	r3, r3, #3
 970:	e2011003 	and	r1, r1, #3
 974:	e1813003 	orr	r3, r1, r3
 978:	e28d0004 	add	r0, sp, #4
 97c:	e5823000 	str	r3, [r2]
 980:	e3a01003 	mov	r1, #3
 984:	ebfffffe 	bl	0 <bcm2835_spi_writenb>
 988:	e3a0000a 	mov	r0, #10
 98c:	e3a01000 	mov	r1, #0
 990:	ebfffffe 	bl	0 <udelay>
 994:	e28dd00c 	add	sp, sp, #12
 998:	e49df004 	pop	{pc}		; (ldr pc, [sp], #4)
 99c:	00000000 	andeq	r0, r0, r0
 9a0:	20204000 	eorcs	r4, r0, r0
 9a4:	000009c4 	andeq	r0, r0, r4, asr #19

000009a8 <bw_spi_lcd_set_contrast>:
 9a8:	e3a0c012 	mov	ip, #18
 9ac:	e52de004 	push	{lr}		; (str lr, [sp, #-4]!)
 9b0:	e59f2050 	ldr	r2, [pc, #80]	; a08 <bw_spi_lcd_set_contrast+0x60>
 9b4:	e5d0e001 	ldrb	lr, [r0, #1]
 9b8:	e59f304c 	ldr	r3, [pc, #76]	; a0c <bw_spi_lcd_set_contrast+0x64>
 9bc:	e24dd00c 	sub	sp, sp, #12
 9c0:	e5cd1006 	strb	r1, [sp, #6]
 9c4:	e5cde004 	strb	lr, [sp, #4]
 9c8:	e5cdc005 	strb	ip, [sp, #5]
 9cc:	e5823008 	str	r3, [r2, #8]
 9d0:	e5923000 	ldr	r3, [r2]
 9d4:	e5d01000 	ldrb	r1, [r0]
 9d8:	e3c33003 	bic	r3, r3, #3
 9dc:	e2011003 	and	r1, r1, #3
 9e0:	e1813003 	orr	r3, r1, r3
 9e4:	e5823000 	str	r3, [r2]
 9e8:	e3a0000a 	mov	r0, #10
 9ec:	e3a01000 	mov	r1, #0
 9f0:	ebfffffe 	bl	0 <udelay>
 9f4:	e28d0004 	add	r0, sp, #4
 9f8:	e3a01003 	mov	r1, #3
 9fc:	ebfffffe 	bl	0 <bcm2835_spi_writenb>
 a00:	e28dd00c 	add	sp, sp, #12
 a04:	e49df004 	pop	{pc}		; (ldr pc, [sp], #4)
 a08:	20204000 	eorcs	r4, r0, r0
 a0c:	000009c4 	andeq	r0, r0, r4, asr #19

00000a10 <bw_spi_lcd_set_backlight>:
 a10:	e3a0c017 	mov	ip, #23
 a14:	e52de004 	push	{lr}		; (str lr, [sp, #-4]!)
 a18:	e59f2050 	ldr	r2, [pc, #80]	; a70 <bw_spi_lcd_set_backlight+0x60>
 a1c:	e5d0e001 	ldrb	lr, [r0, #1]
 a20:	e59f304c 	ldr	r3, [pc, #76]	; a74 <bw_spi_lcd_set_backlight+0x64>
 a24:	e24dd00c 	sub	sp, sp, #12
 a28:	e5cd1006 	strb	r1, [sp, #6]
 a2c:	e5cde004 	strb	lr, [sp, #4]
 a30:	e5cdc005 	strb	ip, [sp, #5]
 a34:	e5823008 	str	r3, [r2, #8]
 a38:	e5923000 	ldr	r3, [r2]
 a3c:	e5d01000 	ldrb	r1, [r0]
 a40:	e3c33003 	bic	r3, r3, #3
 a44:	e2011003 	and	r1, r1, #3
 a48:	e1813003 	orr	r3, r1, r3
 a4c:	e5823000 	str	r3, [r2]
 a50:	e28d0004 	add	r0, sp, #4
 a54:	e3a01003 	mov	r1, #3
 a58:	ebfffffe 	bl	0 <bcm2835_spi_writenb>
 a5c:	e3a0000a 	mov	r0, #10
 a60:	e3a01000 	mov	r1, #0
 a64:	ebfffffe 	bl	0 <udelay>
 a68:	e28dd00c 	add	sp, sp, #12
 a6c:	e49df004 	pop	{pc}		; (ldr pc, [sp], #4)
 a70:	20204000 	eorcs	r4, r0, r0
 a74:	000009c4 	andeq	r0, r0, r4, asr #19

00000a78 <bw_spi_lcd_reinit>:
 a78:	e52de004 	push	{lr}		; (str lr, [sp, #-4]!)
 a7c:	e59f3068 	ldr	r3, [pc, #104]	; aec <bw_spi_lcd_reinit+0x74>
 a80:	e59f2068 	ldr	r2, [pc, #104]	; af0 <bw_spi_lcd_reinit+0x78>
 a84:	e1f3e0b4 	ldrh	lr, [r3, #4]!
 a88:	e5d01001 	ldrb	r1, [r0, #1]
 a8c:	e5d3c002 	ldrb	ip, [r3, #2]
 a90:	e59f305c 	ldr	r3, [pc, #92]	; af4 <bw_spi_lcd_reinit+0x7c>
 a94:	e24dd00c 	sub	sp, sp, #12
 a98:	e1cde0b4 	strh	lr, [sp, #4]
 a9c:	e5cdc006 	strb	ip, [sp, #6]
 aa0:	e5cd1004 	strb	r1, [sp, #4]
 aa4:	e5823008 	str	r3, [r2, #8]
 aa8:	e5923000 	ldr	r3, [r2]
 aac:	e5d01000 	ldrb	r1, [r0]
 ab0:	e3c33003 	bic	r3, r3, #3
 ab4:	e2011003 	and	r1, r1, #3
 ab8:	e1813003 	orr	r3, r1, r3
 abc:	e5823000 	str	r3, [r2]
 ac0:	e3a0000a 	mov	r0, #10
 ac4:	e3a01000 	mov	r1, #0
 ac8:	ebfffffe 	bl	0 <udelay>
 acc:	e28d0004 	add	r0, sp, #4
 ad0:	e3a01003 	mov	r1, #3
 ad4:	ebfffffe 	bl	0 <bcm2835_spi_writenb>
 ad8:	e59f0018 	ldr	r0, [pc, #24]	; af8 <bw_spi_lcd_reinit+0x80>
 adc:	e3a01000 	mov	r1, #0
 ae0:	ebfffffe 	bl	0 <udelay>
 ae4:	e28dd00c 	add	sp, sp, #12
 ae8:	e49df004 	pop	{pc}		; (ldr pc, [sp], #4)
 aec:	00000000 	andeq	r0, r0, r0
 af0:	20204000 	eorcs	r4, r0, r0
 af4:	000009c4 	andeq	r0, r0, r4, asr #19
 af8:	000f4240 	andeq	r4, pc, r0, asr #4

00000afc <bw_spi_lcd_get_backlight>:
 afc:	e1a0c000 	mov	ip, r0
 b00:	e92d4030 	push	{r4, r5, lr}
 b04:	e3a0e000 	mov	lr, #0
 b08:	e3a05013 	mov	r5, #19
 b0c:	e5dc3001 	ldrb	r3, [ip, #1]
 b10:	e24dd00c 	sub	sp, sp, #12
 b14:	e59f2058 	ldr	r2, [pc, #88]	; b74 <bw_spi_lcd_get_backlight+0x78>
 b18:	e1a04001 	mov	r4, r1
 b1c:	e59f1054 	ldr	r1, [pc, #84]	; b78 <bw_spi_lcd_get_backlight+0x7c>
 b20:	e28d0008 	add	r0, sp, #8
 b24:	e3833001 	orr	r3, r3, #1
 b28:	e5cde006 	strb	lr, [sp, #6]
 b2c:	e5603004 	strb	r3, [r0, #-4]!
 b30:	e5cd5005 	strb	r5, [sp, #5]
 b34:	e5821008 	str	r1, [r2, #8]
 b38:	e5923000 	ldr	r3, [r2]
 b3c:	e5dcc000 	ldrb	ip, [ip]
 b40:	e3c33003 	bic	r3, r3, #3
 b44:	e20cc003 	and	ip, ip, #3
 b48:	e18c3003 	orr	r3, ip, r3
 b4c:	e5823000 	str	r3, [r2]
 b50:	e3a01003 	mov	r1, #3
 b54:	ebfffffe 	bl	0 <bcm2835_spi_transfern>
 b58:	e3a0000a 	mov	r0, #10
 b5c:	e3a01000 	mov	r1, #0
 b60:	ebfffffe 	bl	0 <udelay>
 b64:	e5dd3006 	ldrb	r3, [sp, #6]
 b68:	e5c43000 	strb	r3, [r4]
 b6c:	e28dd00c 	add	sp, sp, #12
 b70:	e8bd8030 	pop	{r4, r5, pc}
 b74:	20204000 	eorcs	r4, r0, r0
 b78:	000009c4 	andeq	r0, r0, r4, asr #19

00000b7c <bw_spi_lcd_get_contrast>:
 b7c:	e1a0c000 	mov	ip, r0
 b80:	e92d4030 	push	{r4, r5, lr}
 b84:	e3a0e000 	mov	lr, #0
 b88:	e3a05012 	mov	r5, #18
 b8c:	e5dc3001 	ldrb	r3, [ip, #1]
 b90:	e24dd00c 	sub	sp, sp, #12
 b94:	e59f2058 	ldr	r2, [pc, #88]	; bf4 <bw_spi_lcd_get_contrast+0x78>
 b98:	e1a04001 	mov	r4, r1
 b9c:	e59f1054 	ldr	r1, [pc, #84]	; bf8 <bw_spi_lcd_get_contrast+0x7c>
 ba0:	e28d0008 	add	r0, sp, #8
 ba4:	e3833001 	orr	r3, r3, #1
 ba8:	e5cde006 	strb	lr, [sp, #6]
 bac:	e5603004 	strb	r3, [r0, #-4]!
 bb0:	e5cd5005 	strb	r5, [sp, #5]
 bb4:	e5821008 	str	r1, [r2, #8]
 bb8:	e5923000 	ldr	r3, [r2]
 bbc:	e5dcc000 	ldrb	ip, [ip]
 bc0:	e3c33003 	bic	r3, r3, #3
 bc4:	e20cc003 	and	ip, ip, #3
 bc8:	e18c3003 	orr	r3, ip, r3
 bcc:	e5823000 	str	r3, [r2]
 bd0:	e3a01003 	mov	r1, #3
 bd4:	ebfffffe 	bl	0 <bcm2835_spi_transfern>
 bd8:	e3a0000a 	mov	r0, #10
 bdc:	e3a01000 	mov	r1, #0
 be0:	ebfffffe 	bl	0 <udelay>
 be4:	e5dd3006 	ldrb	r3, [sp, #6]
 be8:	e5c43000 	strb	r3, [r4]
 bec:	e28dd00c 	add	sp, sp, #12
 bf0:	e8bd8030 	pop	{r4, r5, pc}
 bf4:	20204000 	eorcs	r4, r0, r0
 bf8:	000009c4 	andeq	r0, r0, r4, asr #19

Disassembly of section .rodata:

00000000 <.rodata>:
   0:	00201000 	eoreq	r1, r0, r0
   4:	00201400 	eoreq	r1, r0, r0, lsl #8

Disassembly of section .comment:

00000000 <.comment>:
   0:	43434700 	movtmi	r4, #14080	; 0x3700
   4:	4728203a 			; <UNDEFINED> instruction: 0x4728203a
   8:	2029554e 	eorcs	r5, r9, lr, asr #10
   c:	2e392e34 	mrccs	14, 1, r2, cr9, cr4, {1}
  10:	Address 0x0000000000000010 is out of bounds.


Disassembly of section .ARM.attributes:

00000000 <.ARM.attributes>:
   0:	00003d41 	andeq	r3, r0, r1, asr #26
   4:	61656100 	cmnvs	r5, r0, lsl #2
   8:	01006962 	tsteq	r0, r2, ror #18
   c:	00000033 	andeq	r0, r0, r3, lsr r0
  10:	4d524105 	ldfmie	f4, [r2, #-20]	; 0xffffffec
  14:	36373131 			; <UNDEFINED> instruction: 0x36373131
  18:	2d465a4a 	vstrcs	s11, [r6, #-296]	; 0xfffffed8
  1c:	07060053 	smlsdeq	r6, r3, r0, r0
  20:	01090108 	tsteq	r9, r8, lsl #2
  24:	0412020a 	ldreq	r0, [r2], #-522	; 0xfffffdf6
  28:	01150114 	tsteq	r5, r4, lsl r1
  2c:	01180317 	tsteq	r8, r7, lsl r3
  30:	011a0119 	tsteq	sl, r9, lsl r1
  34:	011c031b 	tsteq	ip, fp, lsl r3
  38:	0122021e 	teqeq	r2, lr, lsl r2
  3c:	Address 0x000000000000003c is out of bounds.


bw_spi_relay.o:     file format elf32-littlearm


Disassembly of section .text:

00000000 <bw_spi_relay_start>:
   0:	e92d4010 	push	{r4, lr}
   4:	e1a04000 	mov	r4, r0
   8:	e24dd008 	sub	sp, sp, #8
   c:	ebfffffe 	bl	0 <bcm2835_spi_begin>
  10:	e5d43001 	ldrb	r3, [r4, #1]
  14:	e3a0c030 	mov	ip, #48	; 0x30
  18:	e3530000 	cmp	r3, #0
  1c:	03e02071 	mvneq	r2, #113	; 0x71
  20:	03a0308e 	moveq	r3, #142	; 0x8e
  24:	e3a0007f 	mov	r0, #127	; 0x7f
  28:	05c42001 	strbeq	r2, [r4, #1]
  2c:	e59f104c 	ldr	r1, [pc, #76]	; 80 <bw_spi_relay_start+0x80>
  30:	e59f204c 	ldr	r2, [pc, #76]	; 84 <bw_spi_relay_start+0x84>
  34:	e5cdc005 	strb	ip, [sp, #5]
  38:	e5cd0006 	strb	r0, [sp, #6]
  3c:	e5cd3004 	strb	r3, [sp, #4]
  40:	e5821008 	str	r1, [r2, #8]
  44:	e5923000 	ldr	r3, [r2]
  48:	e5d41000 	ldrb	r1, [r4]
  4c:	e3c33003 	bic	r3, r3, #3
  50:	e2011003 	and	r1, r1, #3
  54:	e1813003 	orr	r3, r1, r3
  58:	e5823000 	str	r3, [r2]
  5c:	e28d0004 	add	r0, sp, #4
  60:	e3a01003 	mov	r1, #3
  64:	ebfffffe 	bl	0 <bcm2835_spi_writenb>
  68:	e3a00000 	mov	r0, #0
  6c:	e3a01000 	mov	r1, #0
  70:	ebfffffe 	bl	0 <udelay>
  74:	e3a00000 	mov	r0, #0
  78:	e28dd008 	add	sp, sp, #8
  7c:	e8bd8010 	pop	{r4, pc}
  80:	000009c4 	andeq	r0, r0, r4, asr #19
  84:	20204000 	eorcs	r4, r0, r0

00000088 <bw_spi_relay_end>:
  88:	eafffffe 	b	0 <bcm2835_spi_end>

0000008c <bw_spi_relay_output>:
  8c:	e3a0c010 	mov	ip, #16
  90:	e52de004 	push	{lr}		; (str lr, [sp, #-4]!)
  94:	e59f2050 	ldr	r2, [pc, #80]	; ec <bw_spi_relay_output+0x60>
  98:	e5d0e001 	ldrb	lr, [r0, #1]
  9c:	e59f304c 	ldr	r3, [pc, #76]	; f0 <bw_spi_relay_output+0x64>
  a0:	e24dd00c 	sub	sp, sp, #12
  a4:	e5cd1006 	strb	r1, [sp, #6]
  a8:	e5cde004 	strb	lr, [sp, #4]
  ac:	e5cdc005 	strb	ip, [sp, #5]
  b0:	e5823008 	str	r3, [r2, #8]
  b4:	e5923000 	ldr	r3, [r2]
  b8:	e5d01000 	ldrb	r1, [r0]
  bc:	e3c33003 	bic	r3, r3, #3
  c0:	e2011003 	and	r1, r1, #3
  c4:	e1813003 	orr	r3, r1, r3
  c8:	e5823000 	str	r3, [r2]
  cc:	e28d0004 	add	r0, sp, #4
  d0:	e3a01003 	mov	r1, #3
  d4:	ebfffffe 	bl	0 <bcm2835_spi_writenb>
  d8:	e3a00000 	mov	r0, #0
  dc:	e3a01000 	mov	r1, #0
  e0:	ebfffffe 	bl	0 <udelay>
  e4:	e28dd00c 	add	sp, sp, #12
  e8:	e49df004 	pop	{pc}		; (ldr pc, [sp], #4)
  ec:	20204000 	eorcs	r4, r0, r0
  f0:	000009c4 	andeq	r0, r0, r4, asr #19

Disassembly of section .comment:

00000000 <.comment>:
   0:	43434700 	movtmi	r4, #14080	; 0x3700
   4:	4728203a 			; <UNDEFINED> instruction: 0x4728203a
   8:	2029554e 	eorcs	r5, r9, lr, asr #10
   c:	2e392e34 	mrccs	14, 1, r2, cr9, cr4, {1}
  10:	Address 0x0000000000000010 is out of bounds.


Disassembly of section .ARM.attributes:

00000000 <.ARM.attributes>:
   0:	00003d41 	andeq	r3, r0, r1, asr #26
   4:	61656100 	cmnvs	r5, r0, lsl #2
   8:	01006962 	tsteq	r0, r2, ror #18
   c:	00000033 	andeq	r0, r0, r3, lsr r0
  10:	4d524105 	ldfmie	f4, [r2, #-20]	; 0xffffffec
  14:	36373131 			; <UNDEFINED> instruction: 0x36373131
  18:	2d465a4a 	vstrcs	s11, [r6, #-296]	; 0xfffffed8
  1c:	07060053 	smlsdeq	r6, r3, r0, r0
  20:	01090108 	tsteq	r9, r8, lsl #2
  24:	0412020a 	ldreq	r0, [r2], #-522	; 0xfffffdf6
  28:	01150114 	tsteq	r5, r4, lsl r1
  2c:	01180317 	tsteq	r8, r7, lsl r3
  30:	011a0119 	tsteq	sl, r9, lsl r1
  34:	011c031b 	tsteq	ip, fp, lsl r3
  38:	0122021e 	teqeq	r2, lr, lsl r2
  3c:	Address 0x000000000000003c is out of bounds.


mcp23s08.o:     file format elf32-littlearm


Disassembly of section .text:

00000000 <mcp23s08_start>:
   0:	e92d4010 	push	{r4, lr}
   4:	e1a04000 	mov	r4, r0
   8:	e24dd008 	sub	sp, sp, #8
   c:	ebfffffe 	bl	0 <bcm2835_spi_begin>
  10:	e5d43001 	ldrb	r3, [r4, #1]
  14:	e3a0e005 	mov	lr, #5
  18:	e3530000 	cmp	r3, #0
  1c:	03a01040 	moveq	r1, #64	; 0x40
  20:	e3a0c008 	mov	ip, #8
  24:	e3a00080 	mov	r0, #128	; 0x80
  28:	12033003 	andne	r3, r3, #3
  2c:	11a01083 	lslne	r1, r3, #1
  30:	e59f2044 	ldr	r2, [pc, #68]	; 7c <mcp23s08_start+0x7c>
  34:	13811040 	orrne	r1, r1, #64	; 0x40
  38:	e5cd1004 	strb	r1, [sp, #4]
  3c:	e5c43001 	strb	r3, [r4, #1]
  40:	e5cde005 	strb	lr, [sp, #5]
  44:	e5cdc006 	strb	ip, [sp, #6]
  48:	e5820008 	str	r0, [r2, #8]
  4c:	e5d41000 	ldrb	r1, [r4]
  50:	e5923000 	ldr	r3, [r2]
  54:	e2011003 	and	r1, r1, #3
  58:	e3c33003 	bic	r3, r3, #3
  5c:	e1813003 	orr	r3, r1, r3
  60:	e28d0004 	add	r0, sp, #4
  64:	e5823000 	str	r3, [r2]
  68:	e3a01003 	mov	r1, #3
  6c:	ebfffffe 	bl	0 <bcm2835_spi_transfern>
  70:	e3a00000 	mov	r0, #0
  74:	e28dd008 	add	sp, sp, #8
  78:	e8bd8010 	pop	{r4, pc}
  7c:	20204000 	eorcs	r4, r0, r0

00000080 <mcp23s08_end>:
  80:	eafffffe 	b	0 <bcm2835_spi_end>

00000084 <mcp23s08_reg_read>:
  84:	e3a0c080 	mov	ip, #128	; 0x80
  88:	e52de004 	push	{lr}		; (str lr, [sp, #-4]!)
  8c:	e5d03001 	ldrb	r3, [r0, #1]
  90:	e59f2044 	ldr	r2, [pc, #68]	; dc <mcp23s08_reg_read+0x58>
  94:	e1a03083 	lsl	r3, r3, #1
  98:	e24dd00c 	sub	sp, sp, #12
  9c:	e3833041 	orr	r3, r3, #65	; 0x41
  a0:	e5cd1005 	strb	r1, [sp, #5]
  a4:	e5cd3004 	strb	r3, [sp, #4]
  a8:	e582c008 	str	ip, [r2, #8]
  ac:	e5d01000 	ldrb	r1, [r0]
  b0:	e5923000 	ldr	r3, [r2]
  b4:	e2011003 	and	r1, r1, #3
  b8:	e3c33003 	bic	r3, r3, #3
  bc:	e1813003 	orr	r3, r1, r3
  c0:	e28d0004 	add	r0, sp, #4
  c4:	e5823000 	str	r3, [r2]
  c8:	e3a01003 	mov	r1, #3
  cc:	ebfffffe 	bl	0 <bcm2835_spi_transfern>
  d0:	e5dd0006 	ldrb	r0, [sp, #6]
  d4:	e28dd00c 	add	sp, sp, #12
  d8:	e49df004 	pop	{pc}		; (ldr pc, [sp], #4)
  dc:	20204000 	eorcs	r4, r0, r0

000000e0 <mcp23s08_reg_write>:
  e0:	e52de004 	push	{lr}		; (str lr, [sp, #-4]!)
  e4:	e3a0e080 	mov	lr, #128	; 0x80
  e8:	e5d03001 	ldrb	r3, [r0, #1]
  ec:	e59fc044 	ldr	ip, [pc, #68]	; 138 <mcp23s08_reg_write+0x58>
  f0:	e1a03083 	lsl	r3, r3, #1
  f4:	e24dd00c 	sub	sp, sp, #12
  f8:	e3833040 	orr	r3, r3, #64	; 0x40
  fc:	e5cd1005 	strb	r1, [sp, #5]
 100:	e5cd2006 	strb	r2, [sp, #6]
 104:	e5cd3004 	strb	r3, [sp, #4]
 108:	e58ce008 	str	lr, [ip, #8]
 10c:	e5d02000 	ldrb	r2, [r0]
 110:	e59c3000 	ldr	r3, [ip]
 114:	e2022003 	and	r2, r2, #3
 118:	e3c33003 	bic	r3, r3, #3
 11c:	e1823003 	orr	r3, r2, r3
 120:	e58c3000 	str	r3, [ip]
 124:	e28d0004 	add	r0, sp, #4
 128:	e3a01003 	mov	r1, #3
 12c:	ebfffffe 	bl	0 <bcm2835_spi_transfern>
 130:	e28dd00c 	add	sp, sp, #12
 134:	e49df004 	pop	{pc}		; (ldr pc, [sp], #4)
 138:	20204000 	eorcs	r4, r0, r0

0000013c <mcp23s08_gpio_fsel>:
 13c:	e92d4070 	push	{r4, r5, r6, lr}
 140:	e3a0c080 	mov	ip, #128	; 0x80
 144:	e3a0e000 	mov	lr, #0
 148:	e1a04000 	mov	r4, r0
 14c:	e5d03001 	ldrb	r3, [r0, #1]
 150:	e59f00a4 	ldr	r0, [pc, #164]	; 1fc <mcp23s08_gpio_fsel+0xc0>
 154:	e1a03083 	lsl	r3, r3, #1
 158:	e24dd008 	sub	sp, sp, #8
 15c:	e3833041 	orr	r3, r3, #65	; 0x41
 160:	e5cd3004 	strb	r3, [sp, #4]
 164:	e5cde005 	strb	lr, [sp, #5]
 168:	e580c008 	str	ip, [r0, #8]
 16c:	e1a05002 	mov	r5, r2
 170:	e590c000 	ldr	ip, [r0]
 174:	e5d43000 	ldrb	r3, [r4]
 178:	e1a06001 	mov	r6, r1
 17c:	e3ccc003 	bic	ip, ip, #3
 180:	e2033003 	and	r3, r3, #3
 184:	e183300c 	orr	r3, r3, ip
 188:	e3a01003 	mov	r1, #3
 18c:	e5803000 	str	r3, [r0]
 190:	e28d0004 	add	r0, sp, #4
 194:	ebfffffe 	bl	0 <bcm2835_spi_transfern>
 198:	e3a0c000 	mov	ip, #0
 19c:	e3a00080 	mov	r0, #128	; 0x80
 1a0:	e5dd3006 	ldrb	r3, [sp, #6]
 1a4:	e3550000 	cmp	r5, #0
 1a8:	01c31006 	biceq	r1, r3, r6
 1ac:	11861003 	orrne	r1, r6, r3
 1b0:	e5d43001 	ldrb	r3, [r4, #1]
 1b4:	e59f2040 	ldr	r2, [pc, #64]	; 1fc <mcp23s08_gpio_fsel+0xc0>
 1b8:	e1a03083 	lsl	r3, r3, #1
 1bc:	e3833040 	orr	r3, r3, #64	; 0x40
 1c0:	e5cd1006 	strb	r1, [sp, #6]
 1c4:	e5cd3004 	strb	r3, [sp, #4]
 1c8:	e5cdc005 	strb	ip, [sp, #5]
 1cc:	e5820008 	str	r0, [r2, #8]
 1d0:	e5d41000 	ldrb	r1, [r4]
 1d4:	e5923000 	ldr	r3, [r2]
 1d8:	e2011003 	and	r1, r1, #3
 1dc:	e3c33003 	bic	r3, r3, #3
 1e0:	e1813003 	orr	r3, r1, r3
 1e4:	e28d0004 	add	r0, sp, #4
 1e8:	e5823000 	str	r3, [r2]
 1ec:	e3a01003 	mov	r1, #3
 1f0:	ebfffffe 	bl	0 <bcm2835_spi_transfern>
 1f4:	e28dd008 	add	sp, sp, #8
 1f8:	e8bd8070 	pop	{r4, r5, r6, pc}
 1fc:	20204000 	eorcs	r4, r0, r0

00000200 <mcp23s08_gpio_set>:
 200:	e92d40f0 	push	{r4, r5, r6, r7, lr}
 204:	e3a0200a 	mov	r2, #10
 208:	e3a06080 	mov	r6, #128	; 0x80
 20c:	e5d03001 	ldrb	r3, [r0, #1]
 210:	e59f4094 	ldr	r4, [pc, #148]	; 2ac <mcp23s08_gpio_set+0xac>
 214:	e1a03083 	lsl	r3, r3, #1
 218:	e24dd00c 	sub	sp, sp, #12
 21c:	e3833041 	orr	r3, r3, #65	; 0x41
 220:	e5cd3004 	strb	r3, [sp, #4]
 224:	e5cd2005 	strb	r2, [sp, #5]
 228:	e5846008 	str	r6, [r4, #8]
 22c:	e5942000 	ldr	r2, [r4]
 230:	e5d03000 	ldrb	r3, [r0]
 234:	e1a05000 	mov	r5, r0
 238:	e3c22003 	bic	r2, r2, #3
 23c:	e2033003 	and	r3, r3, #3
 240:	e1833002 	orr	r3, r3, r2
 244:	e1a07001 	mov	r7, r1
 248:	e5843000 	str	r3, [r4]
 24c:	e28d0004 	add	r0, sp, #4
 250:	e3a01003 	mov	r1, #3
 254:	ebfffffe 	bl	0 <bcm2835_spi_transfern>
 258:	e3a00009 	mov	r0, #9
 25c:	e5d53001 	ldrb	r3, [r5, #1]
 260:	e5dd2006 	ldrb	r2, [sp, #6]
 264:	e1a03083 	lsl	r3, r3, #1
 268:	e1871002 	orr	r1, r7, r2
 26c:	e3833040 	orr	r3, r3, #64	; 0x40
 270:	e5cd1006 	strb	r1, [sp, #6]
 274:	e5cd0005 	strb	r0, [sp, #5]
 278:	e5cd3004 	strb	r3, [sp, #4]
 27c:	e5846008 	str	r6, [r4, #8]
 280:	e5d52000 	ldrb	r2, [r5]
 284:	e5943000 	ldr	r3, [r4]
 288:	e2022003 	and	r2, r2, #3
 28c:	e3c33003 	bic	r3, r3, #3
 290:	e1823003 	orr	r3, r2, r3
 294:	e28d0004 	add	r0, sp, #4
 298:	e5843000 	str	r3, [r4]
 29c:	e3a01003 	mov	r1, #3
 2a0:	ebfffffe 	bl	0 <bcm2835_spi_transfern>
 2a4:	e28dd00c 	add	sp, sp, #12
 2a8:	e8bd80f0 	pop	{r4, r5, r6, r7, pc}
 2ac:	20204000 	eorcs	r4, r0, r0

000002b0 <mcp23s08_gpio_clr>:
 2b0:	e92d40f0 	push	{r4, r5, r6, r7, lr}
 2b4:	e3a0200a 	mov	r2, #10
 2b8:	e3a06080 	mov	r6, #128	; 0x80
 2bc:	e5d03001 	ldrb	r3, [r0, #1]
 2c0:	e59f4094 	ldr	r4, [pc, #148]	; 35c <mcp23s08_gpio_clr+0xac>
 2c4:	e1a03083 	lsl	r3, r3, #1
 2c8:	e24dd00c 	sub	sp, sp, #12
 2cc:	e3833041 	orr	r3, r3, #65	; 0x41
 2d0:	e5cd3004 	strb	r3, [sp, #4]
 2d4:	e5cd2005 	strb	r2, [sp, #5]
 2d8:	e5846008 	str	r6, [r4, #8]
 2dc:	e5942000 	ldr	r2, [r4]
 2e0:	e5d03000 	ldrb	r3, [r0]
 2e4:	e1a05000 	mov	r5, r0
 2e8:	e3c22003 	bic	r2, r2, #3
 2ec:	e2033003 	and	r3, r3, #3
 2f0:	e1833002 	orr	r3, r3, r2
 2f4:	e1a07001 	mov	r7, r1
 2f8:	e5843000 	str	r3, [r4]
 2fc:	e28d0004 	add	r0, sp, #4
 300:	e3a01003 	mov	r1, #3
 304:	ebfffffe 	bl	0 <bcm2835_spi_transfern>
 308:	e3a00009 	mov	r0, #9
 30c:	e5d53001 	ldrb	r3, [r5, #1]
 310:	e5dd2006 	ldrb	r2, [sp, #6]
 314:	e1a03083 	lsl	r3, r3, #1
 318:	e1c21007 	bic	r1, r2, r7
 31c:	e3833040 	orr	r3, r3, #64	; 0x40
 320:	e5cd1006 	strb	r1, [sp, #6]
 324:	e5cd0005 	strb	r0, [sp, #5]
 328:	e5cd3004 	strb	r3, [sp, #4]
 32c:	e5846008 	str	r6, [r4, #8]
 330:	e5d52000 	ldrb	r2, [r5]
 334:	e5943000 	ldr	r3, [r4]
 338:	e2022003 	and	r2, r2, #3
 33c:	e3c33003 	bic	r3, r3, #3
 340:	e1823003 	orr	r3, r2, r3
 344:	e28d0004 	add	r0, sp, #4
 348:	e5843000 	str	r3, [r4]
 34c:	e3a01003 	mov	r1, #3
 350:	ebfffffe 	bl	0 <bcm2835_spi_transfern>
 354:	e28dd00c 	add	sp, sp, #12
 358:	e8bd80f0 	pop	{r4, r5, r6, r7, pc}
 35c:	20204000 	eorcs	r4, r0, r0

Disassembly of section .comment:

00000000 <.comment>:
   0:	43434700 	movtmi	r4, #14080	; 0x3700
   4:	4728203a 			; <UNDEFINED> instruction: 0x4728203a
   8:	2029554e 	eorcs	r5, r9, lr, asr #10
   c:	2e392e34 	mrccs	14, 1, r2, cr9, cr4, {1}
  10:	Address 0x0000000000000010 is out of bounds.


Disassembly of section .ARM.attributes:

00000000 <.ARM.attributes>:
   0:	00003d41 	andeq	r3, r0, r1, asr #26
   4:	61656100 	cmnvs	r5, r0, lsl #2
   8:	01006962 	tsteq	r0, r2, ror #18
   c:	00000033 	andeq	r0, r0, r3, lsr r0
  10:	4d524105 	ldfmie	f4, [r2, #-20]	; 0xffffffec
  14:	36373131 			; <UNDEFINED> instruction: 0x36373131
  18:	2d465a4a 	vstrcs	s11, [r6, #-296]	; 0xfffffed8
  1c:	07060053 	smlsdeq	r6, r3, r0, r0
  20:	01090108 	tsteq	r9, r8, lsl #2
  24:	0412020a 	ldreq	r0, [r2], #-522	; 0xfffffdf6
  28:	01150114 	tsteq	r5, r4, lsl r1
  2c:	01180317 	tsteq	r8, r7, lsl r3
  30:	011a0119 	tsteq	sl, r9, lsl r1
  34:	011c031b 	tsteq	ip, fp, lsl r3
  38:	0122021e 	teqeq	r2, lr, lsl r2
  3c:	Address 0x000000000000003c is out of bounds.


mcp23s17.o:     file format elf32-littlearm


Disassembly of section .text:

00000000 <mcp23s17_start>:
   0:	e92d4010 	push	{r4, lr}
   4:	e1a04000 	mov	r4, r0
   8:	e24dd008 	sub	sp, sp, #8
   c:	ebfffffe 	bl	0 <bcm2835_spi_begin>
  10:	e5d43001 	ldrb	r3, [r4, #1]
  14:	e3a0e00a 	mov	lr, #10
  18:	e3530000 	cmp	r3, #0
  1c:	03a01040 	moveq	r1, #64	; 0x40
  20:	e3a0c008 	mov	ip, #8
  24:	e3a00080 	mov	r0, #128	; 0x80
  28:	12033003 	andne	r3, r3, #3
  2c:	11a01083 	lslne	r1, r3, #1
  30:	e59f2044 	ldr	r2, [pc, #68]	; 7c <mcp23s17_start+0x7c>
  34:	13811040 	orrne	r1, r1, #64	; 0x40
  38:	e5cd1004 	strb	r1, [sp, #4]
  3c:	e5c43001 	strb	r3, [r4, #1]
  40:	e5cde005 	strb	lr, [sp, #5]
  44:	e5cdc006 	strb	ip, [sp, #6]
  48:	e5820008 	str	r0, [r2, #8]
  4c:	e5d41000 	ldrb	r1, [r4]
  50:	e5923000 	ldr	r3, [r2]
  54:	e2011003 	and	r1, r1, #3
  58:	e3c33003 	bic	r3, r3, #3
  5c:	e1813003 	orr	r3, r1, r3
  60:	e28d0004 	add	r0, sp, #4
  64:	e5823000 	str	r3, [r2]
  68:	e3a01003 	mov	r1, #3
  6c:	ebfffffe 	bl	0 <bcm2835_spi_transfern>
  70:	e3a00000 	mov	r0, #0
  74:	e28dd008 	add	sp, sp, #8
  78:	e8bd8010 	pop	{r4, pc}
  7c:	20204000 	eorcs	r4, r0, r0

00000080 <mcp23s17_end>:
  80:	eafffffe 	b	0 <bcm2835_spi_end>

00000084 <mcp23s17_reg_read>:
  84:	e3a0c080 	mov	ip, #128	; 0x80
  88:	e52de004 	push	{lr}		; (str lr, [sp, #-4]!)
  8c:	e5d03001 	ldrb	r3, [r0, #1]
  90:	e59f204c 	ldr	r2, [pc, #76]	; e4 <mcp23s17_reg_read+0x60>
  94:	e1a03083 	lsl	r3, r3, #1
  98:	e24dd00c 	sub	sp, sp, #12
  9c:	e3833041 	orr	r3, r3, #65	; 0x41
  a0:	e5cd1005 	strb	r1, [sp, #5]
  a4:	e5cd3004 	strb	r3, [sp, #4]
  a8:	e582c008 	str	ip, [r2, #8]
  ac:	e5d01000 	ldrb	r1, [r0]
  b0:	e5923000 	ldr	r3, [r2]
  b4:	e2011003 	and	r1, r1, #3
  b8:	e3c33003 	bic	r3, r3, #3
  bc:	e1813003 	orr	r3, r1, r3
  c0:	e5823000 	str	r3, [r2]
  c4:	e28d0004 	add	r0, sp, #4
  c8:	e3a01004 	mov	r1, #4
  cc:	ebfffffe 	bl	0 <bcm2835_spi_transfern>
  d0:	e5dd0007 	ldrb	r0, [sp, #7]
  d4:	e5dd3006 	ldrb	r3, [sp, #6]
  d8:	e1830400 	orr	r0, r3, r0, lsl #8
  dc:	e28dd00c 	add	sp, sp, #12
  e0:	e49df004 	pop	{pc}		; (ldr pc, [sp], #4)
  e4:	20204000 	eorcs	r4, r0, r0

000000e8 <mcp23s17_reg_write>:
  e8:	e92d4010 	push	{r4, lr}
  ec:	e3a0e080 	mov	lr, #128	; 0x80
  f0:	e5d03001 	ldrb	r3, [r0, #1]
  f4:	e59fc04c 	ldr	ip, [pc, #76]	; 148 <mcp23s17_reg_write+0x60>
  f8:	e1a03083 	lsl	r3, r3, #1
  fc:	e24dd008 	sub	sp, sp, #8
 100:	e1a04422 	lsr	r4, r2, #8
 104:	e3833040 	orr	r3, r3, #64	; 0x40
 108:	e5cd2006 	strb	r2, [sp, #6]
 10c:	e5cd1005 	strb	r1, [sp, #5]
 110:	e5cd4007 	strb	r4, [sp, #7]
 114:	e5cd3004 	strb	r3, [sp, #4]
 118:	e58ce008 	str	lr, [ip, #8]
 11c:	e5d02000 	ldrb	r2, [r0]
 120:	e59c3000 	ldr	r3, [ip]
 124:	e2022003 	and	r2, r2, #3
 128:	e3c33003 	bic	r3, r3, #3
 12c:	e1823003 	orr	r3, r2, r3
 130:	e58c3000 	str	r3, [ip]
 134:	e28d0004 	add	r0, sp, #4
 138:	e3a01004 	mov	r1, #4
 13c:	ebfffffe 	bl	0 <bcm2835_spi_transfern>
 140:	e28dd008 	add	sp, sp, #8
 144:	e8bd8010 	pop	{r4, pc}
 148:	20204000 	eorcs	r4, r0, r0

0000014c <mcp23s17_reg_write_byte>:
 14c:	e52de004 	push	{lr}		; (str lr, [sp, #-4]!)
 150:	e3a0e080 	mov	lr, #128	; 0x80
 154:	e5d03001 	ldrb	r3, [r0, #1]
 158:	e59fc044 	ldr	ip, [pc, #68]	; 1a4 <mcp23s17_reg_write_byte+0x58>
 15c:	e1a03083 	lsl	r3, r3, #1
 160:	e24dd00c 	sub	sp, sp, #12
 164:	e3833040 	orr	r3, r3, #64	; 0x40
 168:	e5cd1005 	strb	r1, [sp, #5]
 16c:	e5cd2006 	strb	r2, [sp, #6]
 170:	e5cd3004 	strb	r3, [sp, #4]
 174:	e58ce008 	str	lr, [ip, #8]
 178:	e5d02000 	ldrb	r2, [r0]
 17c:	e59c3000 	ldr	r3, [ip]
 180:	e2022003 	and	r2, r2, #3
 184:	e3c33003 	bic	r3, r3, #3
 188:	e1823003 	orr	r3, r2, r3
 18c:	e58c3000 	str	r3, [ip]
 190:	e28d0004 	add	r0, sp, #4
 194:	e3a01003 	mov	r1, #3
 198:	ebfffffe 	bl	0 <bcm2835_spi_transfern>
 19c:	e28dd00c 	add	sp, sp, #12
 1a0:	e49df004 	pop	{pc}		; (ldr pc, [sp], #4)
 1a4:	20204000 	eorcs	r4, r0, r0

000001a8 <mcp23s17_gpio_fsel>:
 1a8:	e92d4070 	push	{r4, r5, r6, lr}
 1ac:	e3a0c080 	mov	ip, #128	; 0x80
 1b0:	e3a0e000 	mov	lr, #0
 1b4:	e1a04000 	mov	r4, r0
 1b8:	e5d03001 	ldrb	r3, [r0, #1]
 1bc:	e59f00b8 	ldr	r0, [pc, #184]	; 27c <mcp23s17_gpio_fsel+0xd4>
 1c0:	e1a03083 	lsl	r3, r3, #1
 1c4:	e24dd008 	sub	sp, sp, #8
 1c8:	e3833041 	orr	r3, r3, #65	; 0x41
 1cc:	e5cde005 	strb	lr, [sp, #5]
 1d0:	e5cd3004 	strb	r3, [sp, #4]
 1d4:	e580c008 	str	ip, [r0, #8]
 1d8:	e5903000 	ldr	r3, [r0]
 1dc:	e5d4c000 	ldrb	ip, [r4]
 1e0:	e1a05002 	mov	r5, r2
 1e4:	e3c33003 	bic	r3, r3, #3
 1e8:	e20cc003 	and	ip, ip, #3
 1ec:	e18cc003 	orr	ip, ip, r3
 1f0:	e1a06001 	mov	r6, r1
 1f4:	e580c000 	str	ip, [r0]
 1f8:	e3a01004 	mov	r1, #4
 1fc:	e28d0004 	add	r0, sp, #4
 200:	ebfffffe 	bl	0 <bcm2835_spi_transfern>
 204:	e5ddc006 	ldrb	ip, [sp, #6]
 208:	e5dd3007 	ldrb	r3, [sp, #7]
 20c:	e3a00000 	mov	r0, #0
 210:	e18c3403 	orr	r3, ip, r3, lsl #8
 214:	e3a0c080 	mov	ip, #128	; 0x80
 218:	e3550000 	cmp	r5, #0
 21c:	01c31006 	biceq	r1, r3, r6
 220:	11861003 	orrne	r1, r6, r3
 224:	e5d43001 	ldrb	r3, [r4, #1]
 228:	e59f204c 	ldr	r2, [pc, #76]	; 27c <mcp23s17_gpio_fsel+0xd4>
 22c:	e1a03083 	lsl	r3, r3, #1
 230:	06ef1071 	uxtbeq	r1, r1
 234:	120110ff 	andne	r1, r1, #255	; 0xff
 238:	e3833040 	orr	r3, r3, #64	; 0x40
 23c:	e5cd1006 	strb	r1, [sp, #6]
 240:	e5cd0005 	strb	r0, [sp, #5]
 244:	e5cd0007 	strb	r0, [sp, #7]
 248:	e5cd3004 	strb	r3, [sp, #4]
 24c:	e582c008 	str	ip, [r2, #8]
 250:	e5d41000 	ldrb	r1, [r4]
 254:	e5923000 	ldr	r3, [r2]
 258:	e2011003 	and	r1, r1, #3
 25c:	e3c33003 	bic	r3, r3, #3
 260:	e1813003 	orr	r3, r1, r3
 264:	e28d0004 	add	r0, sp, #4
 268:	e5823000 	str	r3, [r2]
 26c:	e3a01004 	mov	r1, #4
 270:	ebfffffe 	bl	0 <bcm2835_spi_transfern>
 274:	e28dd008 	add	sp, sp, #8
 278:	e8bd8070 	pop	{r4, r5, r6, pc}
 27c:	20204000 	eorcs	r4, r0, r0

00000280 <mcp23s17_gpio_set>:
 280:	e92d40f0 	push	{r4, r5, r6, r7, lr}
 284:	e3a02014 	mov	r2, #20
 288:	e3a06080 	mov	r6, #128	; 0x80
 28c:	e5d03001 	ldrb	r3, [r0, #1]
 290:	e59f409c 	ldr	r4, [pc, #156]	; 334 <mcp23s17_gpio_set+0xb4>
 294:	e1a03083 	lsl	r3, r3, #1
 298:	e24dd00c 	sub	sp, sp, #12
 29c:	e3833041 	orr	r3, r3, #65	; 0x41
 2a0:	e5cd3004 	strb	r3, [sp, #4]
 2a4:	e5cd2005 	strb	r2, [sp, #5]
 2a8:	e5846008 	str	r6, [r4, #8]
 2ac:	e5942000 	ldr	r2, [r4]
 2b0:	e5d03000 	ldrb	r3, [r0]
 2b4:	e1a05000 	mov	r5, r0
 2b8:	e3c22003 	bic	r2, r2, #3
 2bc:	e2033003 	and	r3, r3, #3
 2c0:	e1833002 	orr	r3, r3, r2
 2c4:	e5843000 	str	r3, [r4]
 2c8:	e28d0004 	add	r0, sp, #4
 2cc:	e1a07001 	mov	r7, r1
 2d0:	e3a01004 	mov	r1, #4
 2d4:	ebfffffe 	bl	0 <bcm2835_spi_transfern>
 2d8:	e3a01012 	mov	r1, #18
 2dc:	e3a02000 	mov	r2, #0
 2e0:	e5d53001 	ldrb	r3, [r5, #1]
 2e4:	e5dd0006 	ldrb	r0, [sp, #6]
 2e8:	e1a03083 	lsl	r3, r3, #1
 2ec:	e1807007 	orr	r7, r0, r7
 2f0:	e3833040 	orr	r3, r3, #64	; 0x40
 2f4:	e5cd1005 	strb	r1, [sp, #5]
 2f8:	e5cd2007 	strb	r2, [sp, #7]
 2fc:	e5cd7006 	strb	r7, [sp, #6]
 300:	e5cd3004 	strb	r3, [sp, #4]
 304:	e5846008 	str	r6, [r4, #8]
 308:	e5d52000 	ldrb	r2, [r5]
 30c:	e5943000 	ldr	r3, [r4]
 310:	e2022003 	and	r2, r2, #3
 314:	e3c33003 	bic	r3, r3, #3
 318:	e1823003 	orr	r3, r2, r3
 31c:	e28d0004 	add	r0, sp, #4
 320:	e5843000 	str	r3, [r4]
 324:	e3a01004 	mov	r1, #4
 328:	ebfffffe 	bl	0 <bcm2835_spi_transfern>
 32c:	e28dd00c 	add	sp, sp, #12
 330:	e8bd80f0 	pop	{r4, r5, r6, r7, pc}
 334:	20204000 	eorcs	r4, r0, r0

00000338 <mcp23s17_gpio_clr>:
 338:	e92d40f0 	push	{r4, r5, r6, r7, lr}
 33c:	e3a02014 	mov	r2, #20
 340:	e3a06080 	mov	r6, #128	; 0x80
 344:	e5d03001 	ldrb	r3, [r0, #1]
 348:	e59f40a4 	ldr	r4, [pc, #164]	; 3f4 <mcp23s17_gpio_clr+0xbc>
 34c:	e1a03083 	lsl	r3, r3, #1
 350:	e24dd00c 	sub	sp, sp, #12
 354:	e3833041 	orr	r3, r3, #65	; 0x41
 358:	e5cd3004 	strb	r3, [sp, #4]
 35c:	e5cd2005 	strb	r2, [sp, #5]
 360:	e5846008 	str	r6, [r4, #8]
 364:	e5942000 	ldr	r2, [r4]
 368:	e5d03000 	ldrb	r3, [r0]
 36c:	e1a05000 	mov	r5, r0
 370:	e3c22003 	bic	r2, r2, #3
 374:	e2033003 	and	r3, r3, #3
 378:	e1833002 	orr	r3, r3, r2
 37c:	e1a07001 	mov	r7, r1
 380:	e5843000 	str	r3, [r4]
 384:	e28d0004 	add	r0, sp, #4
 388:	e3a01004 	mov	r1, #4
 38c:	ebfffffe 	bl	0 <bcm2835_spi_transfern>
 390:	e3a0c012 	mov	ip, #18
 394:	e3a00000 	mov	r0, #0
 398:	e5dd1007 	ldrb	r1, [sp, #7]
 39c:	e5dd2006 	ldrb	r2, [sp, #6]
 3a0:	e5d53001 	ldrb	r3, [r5, #1]
 3a4:	e1822401 	orr	r2, r2, r1, lsl #8
 3a8:	e1a03083 	lsl	r3, r3, #1
 3ac:	e1c21007 	bic	r1, r2, r7
 3b0:	e3833040 	orr	r3, r3, #64	; 0x40
 3b4:	e5cd1006 	strb	r1, [sp, #6]
 3b8:	e5cd0007 	strb	r0, [sp, #7]
 3bc:	e5cd3004 	strb	r3, [sp, #4]
 3c0:	e5cdc005 	strb	ip, [sp, #5]
 3c4:	e5846008 	str	r6, [r4, #8]
 3c8:	e5d52000 	ldrb	r2, [r5]
 3cc:	e5943000 	ldr	r3, [r4]
 3d0:	e2022003 	and	r2, r2, #3
 3d4:	e3c33003 	bic	r3, r3, #3
 3d8:	e1823003 	orr	r3, r2, r3
 3dc:	e28d0004 	add	r0, sp, #4
 3e0:	e5843000 	str	r3, [r4]
 3e4:	e3a01004 	mov	r1, #4
 3e8:	ebfffffe 	bl	0 <bcm2835_spi_transfern>
 3ec:	e28dd00c 	add	sp, sp, #12
 3f0:	e8bd80f0 	pop	{r4, r5, r6, r7, pc}
 3f4:	20204000 	eorcs	r4, r0, r0

Disassembly of section .comment:

00000000 <.comment>:
   0:	43434700 	movtmi	r4, #14080	; 0x3700
   4:	4728203a 			; <UNDEFINED> instruction: 0x4728203a
   8:	2029554e 	eorcs	r5, r9, lr, asr #10
   c:	2e392e34 	mrccs	14, 1, r2, cr9, cr4, {1}
  10:	Address 0x0000000000000010 is out of bounds.


Disassembly of section .ARM.attributes:

00000000 <.ARM.attributes>:
   0:	00003d41 	andeq	r3, r0, r1, asr #26
   4:	61656100 	cmnvs	r5, r0, lsl #2
   8:	01006962 	tsteq	r0, r2, ror #18
   c:	00000033 	andeq	r0, r0, r3, lsr r0
  10:	4d524105 	ldfmie	f4, [r2, #-20]	; 0xffffffec
  14:	36373131 			; <UNDEFINED> instruction: 0x36373131
  18:	2d465a4a 	vstrcs	s11, [r6, #-296]	; 0xfffffed8
  1c:	07060053 	smlsdeq	r6, r3, r0, r0
  20:	01090108 	tsteq	r9, r8, lsl #2
  24:	0412020a 	ldreq	r0, [r2], #-522	; 0xfffffdf6
  28:	01150114 	tsteq	r5, r4, lsl r1
  2c:	01180317 	tsteq	r8, r7, lsl r3
  30:	011a0119 	tsteq	sl, r9, lsl r1
  34:	011c031b 	tsteq	ip, fp, lsl r3
  38:	0122021e 	teqeq	r2, lr, lsl r2
  3c:	Address 0x000000000000003c is out of bounds.


mcp7941x.o:     file format elf32-littlearm


Disassembly of section .text:

00000000 <mcp7941x_start>:
   0:	e92d4010 	push	{r4, lr}
   4:	e1a04000 	mov	r4, r0
   8:	ebfffffe 	bl	0 <bcm2835_i2c_begin>
   c:	e3540000 	cmp	r4, #0
  10:	11a03004 	movne	r3, r4
  14:	03a0306f 	moveq	r3, #111	; 0x6f
  18:	e3a00000 	mov	r0, #0
  1c:	e59f2024 	ldr	r2, [pc, #36]	; 48 <mcp7941x_start+0x48>
  20:	e59fc024 	ldr	ip, [pc, #36]	; 4c <mcp7941x_start+0x4c>
  24:	e59f1024 	ldr	r1, [pc, #36]	; 50 <mcp7941x_start+0x50>
  28:	e5c13000 	strb	r3, [r1]
  2c:	e582300c 	str	r3, [r2, #12]
  30:	e1a01000 	mov	r1, r0
  34:	e582c014 	str	ip, [r2, #20]
  38:	ebfffffe 	bl	0 <bcm2835_i2c_write>
  3c:	e2900000 	adds	r0, r0, #0
  40:	13a00001 	movne	r0, #1
  44:	e8bd8010 	pop	{r4, pc}
  48:	20804000 	addcs	r4, r0, r0
  4c:	000009c4 	andeq	r0, r0, r4, asr #19
  50:	00000000 	andeq	r0, r0, r0

00000054 <mcp7941x_end>:
  54:	eafffffe 	b	0 <bcm2835_i2c_end>

00000058 <mcp7941x_get_date_time>:
  58:	e3a03000 	mov	r3, #0
  5c:	e92d4ff0 	push	{r4, r5, r6, r7, r8, r9, sl, fp, lr}
  60:	e59f110c 	ldr	r1, [pc, #268]	; 174 <mcp7941x_get_date_time+0x11c>
  64:	e59f210c 	ldr	r2, [pc, #268]	; 178 <mcp7941x_get_date_time+0x120>
  68:	e5d11000 	ldrb	r1, [r1]
  6c:	e59fc108 	ldr	ip, [pc, #264]	; 17c <mcp7941x_get_date_time+0x124>
  70:	e3a0a00a 	mov	sl, #10
  74:	e24dd014 	sub	sp, sp, #20
  78:	e1a04000 	mov	r4, r0
  7c:	e5cd3004 	strb	r3, [sp, #4]
  80:	e5cd3008 	strb	r3, [sp, #8]
  84:	e5cd3009 	strb	r3, [sp, #9]
  88:	e5cd300a 	strb	r3, [sp, #10]
  8c:	e5cd300b 	strb	r3, [sp, #11]
  90:	e5cd300c 	strb	r3, [sp, #12]
  94:	e5cd300d 	strb	r3, [sp, #13]
  98:	e5cd300e 	strb	r3, [sp, #14]
  9c:	e28d0004 	add	r0, sp, #4
  a0:	e582100c 	str	r1, [r2, #12]
  a4:	e582c014 	str	ip, [r2, #20]
  a8:	e3a01001 	mov	r1, #1
  ac:	ebfffffe 	bl	0 <bcm2835_i2c_write>
  b0:	e28d0008 	add	r0, sp, #8
  b4:	e3a01007 	mov	r1, #7
  b8:	ebfffffe 	bl	0 <bcm2835_i2c_read>
  bc:	e5dd300d 	ldrb	r3, [sp, #13]
  c0:	e5dde00e 	ldrb	lr, [sp, #14]
  c4:	e5ddc008 	ldrb	ip, [sp, #8]
  c8:	e5dd0009 	ldrb	r0, [sp, #9]
  cc:	e5dd100a 	ldrb	r1, [sp, #10]
  d0:	e5dd200c 	ldrb	r2, [sp, #12]
  d4:	e203801f 	and	r8, r3, #31
  d8:	e20e900f 	and	r9, lr, #15
  dc:	e1a0e22e 	lsr	lr, lr, #4
  e0:	e1099e8a 	smlabb	r9, sl, lr, r9
  e4:	e20c707f 	and	r7, ip, #127	; 0x7f
  e8:	e200607f 	and	r6, r0, #127	; 0x7f
  ec:	e201503f 	and	r5, r1, #63	; 0x3f
  f0:	e1a08248 	asr	r8, r8, #4
  f4:	e202e03f 	and	lr, r2, #63	; 0x3f
  f8:	e5dda00b 	ldrb	sl, [sp, #11]
  fc:	e1a0b108 	lsl	fp, r8, #2
 100:	e1a07247 	asr	r7, r7, #4
 104:	e1a06246 	asr	r6, r6, #4
 108:	e1a05245 	asr	r5, r5, #4
 10c:	e1a0e24e 	asr	lr, lr, #4
 110:	e20cc00f 	and	ip, ip, #15
 114:	e200000f 	and	r0, r0, #15
 118:	e201100f 	and	r1, r1, #15
 11c:	e202200f 	and	r2, r2, #15
 120:	e203300f 	and	r3, r3, #15
 124:	e08b8008 	add	r8, fp, r8
 128:	e0877107 	add	r7, r7, r7, lsl #2
 12c:	e0866106 	add	r6, r6, r6, lsl #2
 130:	e0855105 	add	r5, r5, r5, lsl #2
 134:	e08ee10e 	add	lr, lr, lr, lsl #2
 138:	e08c7087 	add	r7, ip, r7, lsl #1
 13c:	e0806086 	add	r6, r0, r6, lsl #1
 140:	e0815085 	add	r5, r1, r5, lsl #1
 144:	e20aa007 	and	sl, sl, #7
 148:	e082e08e 	add	lr, r2, lr, lsl #1
 14c:	e0838088 	add	r8, r3, r8, lsl #1
 150:	e5847000 	str	r7, [r4]
 154:	e5846004 	str	r6, [r4, #4]
 158:	e5845008 	str	r5, [r4, #8]
 15c:	e584a018 	str	sl, [r4, #24]
 160:	e584e00c 	str	lr, [r4, #12]
 164:	e5848010 	str	r8, [r4, #16]
 168:	e5849014 	str	r9, [r4, #20]
 16c:	e28dd014 	add	sp, sp, #20
 170:	e8bd8ff0 	pop	{r4, r5, r6, r7, r8, r9, sl, fp, pc}
 174:	00000000 	andeq	r0, r0, r0
 178:	20804000 	addcs	r4, r0, r0
 17c:	000009c4 	andeq	r0, r0, r4, asr #19

00000180 <mcp7941x_set_date_time>:
 180:	e5902000 	ldr	r2, [r0]
 184:	e92d4ff0 	push	{r4, r5, r6, r7, r8, r9, sl, fp, lr}
 188:	e59f510c 	ldr	r5, [pc, #268]	; 29c <mcp7941x_set_date_time+0x11c>
 18c:	e202207f 	and	r2, r2, #127	; 0x7f
 190:	e0c31295 	smull	r1, r3, r5, r2
 194:	e1a03123 	lsr	r3, r3, #2
 198:	e0831103 	add	r1, r3, r3, lsl #2
 19c:	e0422081 	sub	r2, r2, r1, lsl #1
 1a0:	e0823203 	add	r3, r2, r3, lsl #4
 1a4:	e1e03c83 	mvn	r3, r3, lsl #25
 1a8:	e1a0e000 	mov	lr, r0
 1ac:	e1e03ca3 	mvn	r3, r3, lsr #25
 1b0:	e3a0a000 	mov	sl, #0
 1b4:	e590c004 	ldr	ip, [r0, #4]
 1b8:	e2801008 	add	r1, r0, #8
 1bc:	e8910816 	ldm	r1, {r1, r2, r4, fp}
 1c0:	e20cc07f 	and	ip, ip, #127	; 0x7f
 1c4:	e201101f 	and	r1, r1, #31
 1c8:	e202203f 	and	r2, r2, #63	; 0x3f
 1cc:	e204401f 	and	r4, r4, #31
 1d0:	e0c90c95 	smull	r0, r9, r5, ip
 1d4:	e0c80195 	smull	r0, r8, r5, r1
 1d8:	e0c70295 	smull	r0, r7, r5, r2
 1dc:	e0c60495 	smull	r0, r6, r5, r4
 1e0:	e0c50b95 	smull	r0, r5, r5, fp
 1e4:	e1a00fcb 	asr	r0, fp, #31
 1e8:	e0605145 	rsb	r5, r0, r5, asr #2
 1ec:	e59f00ac 	ldr	r0, [pc, #172]	; 2a0 <mcp7941x_set_date_time+0x120>
 1f0:	e24dd014 	sub	sp, sp, #20
 1f4:	e5d00000 	ldrb	r0, [r0]
 1f8:	e1a09129 	lsr	r9, r9, #2
 1fc:	e58d0004 	str	r0, [sp, #4]
 200:	e1a08128 	lsr	r8, r8, #2
 204:	e0890109 	add	r0, r9, r9, lsl #2
 208:	e1a07127 	lsr	r7, r7, #2
 20c:	e04cc080 	sub	ip, ip, r0, lsl #1
 210:	e0880108 	add	r0, r8, r8, lsl #2
 214:	e1a06126 	lsr	r6, r6, #2
 218:	e0411080 	sub	r1, r1, r0, lsl #1
 21c:	e0870107 	add	r0, r7, r7, lsl #2
 220:	e59ee018 	ldr	lr, [lr, #24]
 224:	e0422080 	sub	r2, r2, r0, lsl #1
 228:	e0860106 	add	r0, r6, r6, lsl #2
 22c:	e0444080 	sub	r4, r4, r0, lsl #1
 230:	e0850105 	add	r0, r5, r5, lsl #2
 234:	e5cd3009 	strb	r3, [sp, #9]
 238:	e08cc209 	add	ip, ip, r9, lsl #4
 23c:	e59d3004 	ldr	r3, [sp, #4]
 240:	e59f905c 	ldr	r9, [pc, #92]	; 2a4 <mcp7941x_set_date_time+0x124>
 244:	e04b0080 	sub	r0, fp, r0, lsl #1
 248:	e20ee007 	and	lr, lr, #7
 24c:	e59fb054 	ldr	fp, [pc, #84]	; 2a8 <mcp7941x_set_date_time+0x128>
 250:	e0811208 	add	r1, r1, r8, lsl #4
 254:	e0822207 	add	r2, r2, r7, lsl #4
 258:	e38ee008 	orr	lr, lr, #8
 25c:	e0800205 	add	r0, r0, r5, lsl #4
 260:	e0844206 	add	r4, r4, r6, lsl #4
 264:	e5cd100b 	strb	r1, [sp, #11]
 268:	e5cd000f 	strb	r0, [sp, #15]
 26c:	e5cdc00a 	strb	ip, [sp, #10]
 270:	e5cd200d 	strb	r2, [sp, #13]
 274:	e5cd400e 	strb	r4, [sp, #14]
 278:	e5cde00c 	strb	lr, [sp, #12]
 27c:	e5cda008 	strb	sl, [sp, #8]
 280:	e28d0008 	add	r0, sp, #8
 284:	e589300c 	str	r3, [r9, #12]
 288:	e3a01008 	mov	r1, #8
 28c:	e589b014 	str	fp, [r9, #20]
 290:	ebfffffe 	bl	0 <bcm2835_i2c_write>
 294:	e28dd014 	add	sp, sp, #20
 298:	e8bd8ff0 	pop	{r4, r5, r6, r7, r8, r9, sl, fp, pc}
 29c:	66666667 	strbtvs	r6, [r6], -r7, ror #12
 2a0:	00000000 	andeq	r0, r0, r0
 2a4:	20804000 	addcs	r4, r0, r0
 2a8:	000009c4 	andeq	r0, r0, r4, asr #19

Disassembly of section .data:

00000000 <i2c_mcp7941x_slave_address>:
   0:	Address 0x0000000000000000 is out of bounds.


Disassembly of section .comment:

00000000 <.comment>:
   0:	43434700 	movtmi	r4, #14080	; 0x3700
   4:	4728203a 			; <UNDEFINED> instruction: 0x4728203a
   8:	2029554e 	eorcs	r5, r9, lr, asr #10
   c:	2e392e34 	mrccs	14, 1, r2, cr9, cr4, {1}
  10:	Address 0x0000000000000010 is out of bounds.


Disassembly of section .ARM.attributes:

00000000 <.ARM.attributes>:
   0:	00003d41 	andeq	r3, r0, r1, asr #26
   4:	61656100 	cmnvs	r5, r0, lsl #2
   8:	01006962 	tsteq	r0, r2, ror #18
   c:	00000033 	andeq	r0, r0, r3, lsr r0
  10:	4d524105 	ldfmie	f4, [r2, #-20]	; 0xffffffec
  14:	36373131 			; <UNDEFINED> instruction: 0x36373131
  18:	2d465a4a 	vstrcs	s11, [r6, #-296]	; 0xfffffed8
  1c:	07060053 	smlsdeq	r6, r3, r0, r0
  20:	01090108 	tsteq	r9, r8, lsl #2
  24:	0412020a 	ldreq	r0, [r2], #-522	; 0xfffffdf6
  28:	01150114 	tsteq	r5, r4, lsl r1
  2c:	01180317 	tsteq	r8, r7, lsl r3
  30:	011a0119 	tsteq	sl, r9, lsl r1
  34:	011c031b 	tsteq	ip, fp, lsl r3
  38:	0122021e 	teqeq	r2, lr, lsl r2
  3c:	Address 0x000000000000003c is out of bounds.

