In archive lib7/libbob.a:

bw_i2c_ui.o:     file format elf32-littlearm


Disassembly of section .text:

00000000 <bw_i2c_ui_start>:
   0:	e92d4010 	push	{r4, lr}
   4:	e1a04000 	mov	r4, r0
   8:	ebfffffe 	bl	0 <bcm2835_i2c_begin>
   c:	e3003000 	movw	r3, #0
  10:	e3540000 	cmp	r4, #0
  14:	e3403000 	movt	r3, #0
  18:	03a04094 	moveq	r4, #148	; 0x94
  1c:	e3a00000 	mov	r0, #0
  20:	e5c34000 	strb	r4, [r3]
  24:	e8bd8010 	pop	{r4, pc}

00000028 <bw_i2c_ui_end>:
  28:	eafffffe 	b	0 <bcm2835_i2c_end>

0000002c <bw_i2c_ui_set_cursor>:
  2c:	e3002000 	movw	r2, #0
  30:	e2000003 	and	r0, r0, #3
  34:	e3402000 	movt	r2, #0
  38:	e3a03901 	mov	r3, #16384	; 0x4000
  3c:	e52de004 	push	{lr}		; (str lr, [sp, #-4]!)
  40:	e3433f80 	movt	r3, #16256	; 0x3f80
  44:	e5d22000 	ldrb	r2, [r2]
  48:	e24dd00c 	sub	sp, sp, #12
  4c:	e201101f 	and	r1, r1, #31
  50:	e3a0e011 	mov	lr, #17
  54:	e5cde004 	strb	lr, [sp, #4]
  58:	e300c9c4 	movw	ip, #2500	; 0x9c4
  5c:	e1a020a2 	lsr	r2, r2, #1
  60:	e1811280 	orr	r1, r1, r0, lsl #5
  64:	e28d0004 	add	r0, sp, #4
  68:	e5cd1005 	strb	r1, [sp, #5]
  6c:	e3a01002 	mov	r1, #2
  70:	e583200c 	str	r2, [r3, #12]
  74:	e583c014 	str	ip, [r3, #20]
  78:	ebfffffe 	bl	0 <bcm2835_i2c_write>
  7c:	e3a0000e 	mov	r0, #14
  80:	e3a01000 	mov	r1, #0
  84:	ebfffffe 	bl	0 <udelay>
  88:	e28dd00c 	add	sp, sp, #12
  8c:	e49df004 	pop	{pc}		; (ldr pc, [sp], #4)

00000090 <bw_i2c_ui_text>:
  90:	e3510010 	cmp	r1, #16
  94:	e3a03000 	mov	r3, #0
  98:	23a01010 	movcs	r1, #16
  9c:	e52de004 	push	{lr}		; (str lr, [sp, #-4]!)
  a0:	e24dd01c 	sub	sp, sp, #28
  a4:	e1510003 	cmp	r1, r3
  a8:	e5cd3004 	strb	r3, [sp, #4]
  ac:	0a00003c 	beq	1a4 <bw_i2c_ui_text+0x114>
  b0:	e5d03000 	ldrb	r3, [r0]
  b4:	e3510001 	cmp	r1, #1
  b8:	e5cd3005 	strb	r3, [sp, #5]
  bc:	0a000038 	beq	1a4 <bw_i2c_ui_text+0x114>
  c0:	e5d03001 	ldrb	r3, [r0, #1]
  c4:	e3510002 	cmp	r1, #2
  c8:	e5cd3006 	strb	r3, [sp, #6]
  cc:	0a000034 	beq	1a4 <bw_i2c_ui_text+0x114>
  d0:	e5d03002 	ldrb	r3, [r0, #2]
  d4:	e3510003 	cmp	r1, #3
  d8:	e5cd3007 	strb	r3, [sp, #7]
  dc:	0a000030 	beq	1a4 <bw_i2c_ui_text+0x114>
  e0:	e5d03003 	ldrb	r3, [r0, #3]
  e4:	e3510004 	cmp	r1, #4
  e8:	e5cd3008 	strb	r3, [sp, #8]
  ec:	0a00002c 	beq	1a4 <bw_i2c_ui_text+0x114>
  f0:	e5d03004 	ldrb	r3, [r0, #4]
  f4:	e3510005 	cmp	r1, #5
  f8:	e5cd3009 	strb	r3, [sp, #9]
  fc:	0a000028 	beq	1a4 <bw_i2c_ui_text+0x114>
 100:	e5d03005 	ldrb	r3, [r0, #5]
 104:	e3510006 	cmp	r1, #6
 108:	e5cd300a 	strb	r3, [sp, #10]
 10c:	0a000024 	beq	1a4 <bw_i2c_ui_text+0x114>
 110:	e5d03006 	ldrb	r3, [r0, #6]
 114:	e3510007 	cmp	r1, #7
 118:	e5cd300b 	strb	r3, [sp, #11]
 11c:	0a000020 	beq	1a4 <bw_i2c_ui_text+0x114>
 120:	e5d03007 	ldrb	r3, [r0, #7]
 124:	e3510008 	cmp	r1, #8
 128:	e5cd300c 	strb	r3, [sp, #12]
 12c:	0a00001c 	beq	1a4 <bw_i2c_ui_text+0x114>
 130:	e5d03008 	ldrb	r3, [r0, #8]
 134:	e3510009 	cmp	r1, #9
 138:	e5cd300d 	strb	r3, [sp, #13]
 13c:	0a000018 	beq	1a4 <bw_i2c_ui_text+0x114>
 140:	e5d03009 	ldrb	r3, [r0, #9]
 144:	e351000a 	cmp	r1, #10
 148:	e5cd300e 	strb	r3, [sp, #14]
 14c:	0a000014 	beq	1a4 <bw_i2c_ui_text+0x114>
 150:	e5d0300a 	ldrb	r3, [r0, #10]
 154:	e351000b 	cmp	r1, #11
 158:	e5cd300f 	strb	r3, [sp, #15]
 15c:	0a000010 	beq	1a4 <bw_i2c_ui_text+0x114>
 160:	e5d0300b 	ldrb	r3, [r0, #11]
 164:	e351000c 	cmp	r1, #12
 168:	e5cd3010 	strb	r3, [sp, #16]
 16c:	0a00000c 	beq	1a4 <bw_i2c_ui_text+0x114>
 170:	e5d0300c 	ldrb	r3, [r0, #12]
 174:	e351000d 	cmp	r1, #13
 178:	e5cd3011 	strb	r3, [sp, #17]
 17c:	0a000008 	beq	1a4 <bw_i2c_ui_text+0x114>
 180:	e5d0300d 	ldrb	r3, [r0, #13]
 184:	e351000e 	cmp	r1, #14
 188:	e5cd3012 	strb	r3, [sp, #18]
 18c:	0a000004 	beq	1a4 <bw_i2c_ui_text+0x114>
 190:	e5d0300e 	ldrb	r3, [r0, #14]
 194:	e3510010 	cmp	r1, #16
 198:	e5cd3013 	strb	r3, [sp, #19]
 19c:	05d0300f 	ldrbeq	r3, [r0, #15]
 1a0:	05cd3014 	strbeq	r3, [sp, #20]
 1a4:	e3002000 	movw	r2, #0
 1a8:	e3a03901 	mov	r3, #16384	; 0x4000
 1ac:	e3402000 	movt	r2, #0
 1b0:	e3433f80 	movt	r3, #16256	; 0x3f80
 1b4:	e300c9c4 	movw	ip, #2500	; 0x9c4
 1b8:	e2811001 	add	r1, r1, #1
 1bc:	e5d22000 	ldrb	r2, [r2]
 1c0:	e28d0004 	add	r0, sp, #4
 1c4:	e1a020a2 	lsr	r2, r2, #1
 1c8:	e583200c 	str	r2, [r3, #12]
 1cc:	e583c014 	str	ip, [r3, #20]
 1d0:	ebfffffe 	bl	0 <bcm2835_i2c_write>
 1d4:	e3a0000e 	mov	r0, #14
 1d8:	e3a01000 	mov	r1, #0
 1dc:	ebfffffe 	bl	0 <udelay>
 1e0:	e28dd01c 	add	sp, sp, #28
 1e4:	e49df004 	pop	{pc}		; (ldr pc, [sp], #4)

000001e8 <bw_i2c_ui_text_line_1>:
 1e8:	e92d40f0 	push	{r4, r5, r6, r7, lr}
 1ec:	e3006000 	movw	r6, #0
 1f0:	e3406000 	movt	r6, #0
 1f4:	e24dd01c 	sub	sp, sp, #28
 1f8:	e3a03901 	mov	r3, #16384	; 0x4000
 1fc:	e3a0c011 	mov	ip, #17
 200:	e5d62000 	ldrb	r2, [r6]
 204:	e3433f80 	movt	r3, #16256	; 0x3f80
 208:	e5cdc004 	strb	ip, [sp, #4]
 20c:	e3a07000 	mov	r7, #0
 210:	e1a020a2 	lsr	r2, r2, #1
 214:	e300c9c4 	movw	ip, #2500	; 0x9c4
 218:	e5cd7005 	strb	r7, [sp, #5]
 21c:	e1a04001 	mov	r4, r1
 220:	e583200c 	str	r2, [r3, #12]
 224:	e3a01002 	mov	r1, #2
 228:	e583c014 	str	ip, [r3, #20]
 22c:	e1a05000 	mov	r5, r0
 230:	e28d0004 	add	r0, sp, #4
 234:	ebfffffe 	bl	0 <bcm2835_i2c_write>
 238:	e3a01000 	mov	r1, #0
 23c:	e3a0000e 	mov	r0, #14
 240:	ebfffffe 	bl	0 <udelay>
 244:	e5cd7004 	strb	r7, [sp, #4]
 248:	e3540010 	cmp	r4, #16
 24c:	31a01004 	movcc	r1, r4
 250:	23a01010 	movcs	r1, #16
 254:	e1510007 	cmp	r1, r7
 258:	0a00003c 	beq	350 <bw_i2c_ui_text_line_1+0x168>
 25c:	e5d53000 	ldrb	r3, [r5]
 260:	e3510001 	cmp	r1, #1
 264:	e5cd3005 	strb	r3, [sp, #5]
 268:	0a000038 	beq	350 <bw_i2c_ui_text_line_1+0x168>
 26c:	e5d53001 	ldrb	r3, [r5, #1]
 270:	e3510002 	cmp	r1, #2
 274:	e5cd3006 	strb	r3, [sp, #6]
 278:	0a000034 	beq	350 <bw_i2c_ui_text_line_1+0x168>
 27c:	e5d53002 	ldrb	r3, [r5, #2]
 280:	e3510003 	cmp	r1, #3
 284:	e5cd3007 	strb	r3, [sp, #7]
 288:	0a000030 	beq	350 <bw_i2c_ui_text_line_1+0x168>
 28c:	e5d53003 	ldrb	r3, [r5, #3]
 290:	e3510004 	cmp	r1, #4
 294:	e5cd3008 	strb	r3, [sp, #8]
 298:	0a00002c 	beq	350 <bw_i2c_ui_text_line_1+0x168>
 29c:	e5d53004 	ldrb	r3, [r5, #4]
 2a0:	e3510005 	cmp	r1, #5
 2a4:	e5cd3009 	strb	r3, [sp, #9]
 2a8:	0a000028 	beq	350 <bw_i2c_ui_text_line_1+0x168>
 2ac:	e5d53005 	ldrb	r3, [r5, #5]
 2b0:	e3510006 	cmp	r1, #6
 2b4:	e5cd300a 	strb	r3, [sp, #10]
 2b8:	0a000024 	beq	350 <bw_i2c_ui_text_line_1+0x168>
 2bc:	e5d53006 	ldrb	r3, [r5, #6]
 2c0:	e3510007 	cmp	r1, #7
 2c4:	e5cd300b 	strb	r3, [sp, #11]
 2c8:	0a000020 	beq	350 <bw_i2c_ui_text_line_1+0x168>
 2cc:	e5d53007 	ldrb	r3, [r5, #7]
 2d0:	e3510008 	cmp	r1, #8
 2d4:	e5cd300c 	strb	r3, [sp, #12]
 2d8:	0a00001c 	beq	350 <bw_i2c_ui_text_line_1+0x168>
 2dc:	e5d53008 	ldrb	r3, [r5, #8]
 2e0:	e3510009 	cmp	r1, #9
 2e4:	e5cd300d 	strb	r3, [sp, #13]
 2e8:	0a000018 	beq	350 <bw_i2c_ui_text_line_1+0x168>
 2ec:	e5d53009 	ldrb	r3, [r5, #9]
 2f0:	e351000a 	cmp	r1, #10
 2f4:	e5cd300e 	strb	r3, [sp, #14]
 2f8:	0a000014 	beq	350 <bw_i2c_ui_text_line_1+0x168>
 2fc:	e5d5300a 	ldrb	r3, [r5, #10]
 300:	e351000b 	cmp	r1, #11
 304:	e5cd300f 	strb	r3, [sp, #15]
 308:	0a000010 	beq	350 <bw_i2c_ui_text_line_1+0x168>
 30c:	e5d5300b 	ldrb	r3, [r5, #11]
 310:	e351000c 	cmp	r1, #12
 314:	e5cd3010 	strb	r3, [sp, #16]
 318:	0a00000c 	beq	350 <bw_i2c_ui_text_line_1+0x168>
 31c:	e5d5300c 	ldrb	r3, [r5, #12]
 320:	e351000d 	cmp	r1, #13
 324:	e5cd3011 	strb	r3, [sp, #17]
 328:	0a000008 	beq	350 <bw_i2c_ui_text_line_1+0x168>
 32c:	e5d5300d 	ldrb	r3, [r5, #13]
 330:	e351000e 	cmp	r1, #14
 334:	e5cd3012 	strb	r3, [sp, #18]
 338:	0a000004 	beq	350 <bw_i2c_ui_text_line_1+0x168>
 33c:	e5d5300e 	ldrb	r3, [r5, #14]
 340:	e3510010 	cmp	r1, #16
 344:	e5cd3013 	strb	r3, [sp, #19]
 348:	05d5300f 	ldrbeq	r3, [r5, #15]
 34c:	05cd3014 	strbeq	r3, [sp, #20]
 350:	e5d62000 	ldrb	r2, [r6]
 354:	e3a03901 	mov	r3, #16384	; 0x4000
 358:	e3433f80 	movt	r3, #16256	; 0x3f80
 35c:	e300c9c4 	movw	ip, #2500	; 0x9c4
 360:	e1a020a2 	lsr	r2, r2, #1
 364:	e28d0004 	add	r0, sp, #4
 368:	e583200c 	str	r2, [r3, #12]
 36c:	e2811001 	add	r1, r1, #1
 370:	e583c014 	str	ip, [r3, #20]
 374:	ebfffffe 	bl	0 <bcm2835_i2c_write>
 378:	e3a0000e 	mov	r0, #14
 37c:	e3a01000 	mov	r1, #0
 380:	ebfffffe 	bl	0 <udelay>
 384:	e28dd01c 	add	sp, sp, #28
 388:	e8bd80f0 	pop	{r4, r5, r6, r7, pc}

0000038c <bw_i2c_ui_text_line_2>:
 38c:	e92d4070 	push	{r4, r5, r6, lr}
 390:	e3006000 	movw	r6, #0
 394:	e3406000 	movt	r6, #0
 398:	e24dd018 	sub	sp, sp, #24
 39c:	e3a03901 	mov	r3, #16384	; 0x4000
 3a0:	e3a0c011 	mov	ip, #17
 3a4:	e5d62000 	ldrb	r2, [r6]
 3a8:	e3433f80 	movt	r3, #16256	; 0x3f80
 3ac:	e5cdc004 	strb	ip, [sp, #4]
 3b0:	e3a0e020 	mov	lr, #32
 3b4:	e1a020a2 	lsr	r2, r2, #1
 3b8:	e300c9c4 	movw	ip, #2500	; 0x9c4
 3bc:	e5cde005 	strb	lr, [sp, #5]
 3c0:	e1a04001 	mov	r4, r1
 3c4:	e583200c 	str	r2, [r3, #12]
 3c8:	e3a01002 	mov	r1, #2
 3cc:	e583c014 	str	ip, [r3, #20]
 3d0:	e1a05000 	mov	r5, r0
 3d4:	e28d0004 	add	r0, sp, #4
 3d8:	ebfffffe 	bl	0 <bcm2835_i2c_write>
 3dc:	e3a01000 	mov	r1, #0
 3e0:	e3a0000e 	mov	r0, #14
 3e4:	ebfffffe 	bl	0 <udelay>
 3e8:	e3540010 	cmp	r4, #16
 3ec:	e3a03000 	mov	r3, #0
 3f0:	e5cd3004 	strb	r3, [sp, #4]
 3f4:	31a01004 	movcc	r1, r4
 3f8:	23a01010 	movcs	r1, #16
 3fc:	e1510003 	cmp	r1, r3
 400:	0a00003c 	beq	4f8 <bw_i2c_ui_text_line_2+0x16c>
 404:	e5d53000 	ldrb	r3, [r5]
 408:	e3510001 	cmp	r1, #1
 40c:	e5cd3005 	strb	r3, [sp, #5]
 410:	0a000038 	beq	4f8 <bw_i2c_ui_text_line_2+0x16c>
 414:	e5d53001 	ldrb	r3, [r5, #1]
 418:	e3510002 	cmp	r1, #2
 41c:	e5cd3006 	strb	r3, [sp, #6]
 420:	0a000034 	beq	4f8 <bw_i2c_ui_text_line_2+0x16c>
 424:	e5d53002 	ldrb	r3, [r5, #2]
 428:	e3510003 	cmp	r1, #3
 42c:	e5cd3007 	strb	r3, [sp, #7]
 430:	0a000030 	beq	4f8 <bw_i2c_ui_text_line_2+0x16c>
 434:	e5d53003 	ldrb	r3, [r5, #3]
 438:	e3510004 	cmp	r1, #4
 43c:	e5cd3008 	strb	r3, [sp, #8]
 440:	0a00002c 	beq	4f8 <bw_i2c_ui_text_line_2+0x16c>
 444:	e5d53004 	ldrb	r3, [r5, #4]
 448:	e3510005 	cmp	r1, #5
 44c:	e5cd3009 	strb	r3, [sp, #9]
 450:	0a000028 	beq	4f8 <bw_i2c_ui_text_line_2+0x16c>
 454:	e5d53005 	ldrb	r3, [r5, #5]
 458:	e3510006 	cmp	r1, #6
 45c:	e5cd300a 	strb	r3, [sp, #10]
 460:	0a000024 	beq	4f8 <bw_i2c_ui_text_line_2+0x16c>
 464:	e5d53006 	ldrb	r3, [r5, #6]
 468:	e3510007 	cmp	r1, #7
 46c:	e5cd300b 	strb	r3, [sp, #11]
 470:	0a000020 	beq	4f8 <bw_i2c_ui_text_line_2+0x16c>
 474:	e5d53007 	ldrb	r3, [r5, #7]
 478:	e3510008 	cmp	r1, #8
 47c:	e5cd300c 	strb	r3, [sp, #12]
 480:	0a00001c 	beq	4f8 <bw_i2c_ui_text_line_2+0x16c>
 484:	e5d53008 	ldrb	r3, [r5, #8]
 488:	e3510009 	cmp	r1, #9
 48c:	e5cd300d 	strb	r3, [sp, #13]
 490:	0a000018 	beq	4f8 <bw_i2c_ui_text_line_2+0x16c>
 494:	e5d53009 	ldrb	r3, [r5, #9]
 498:	e351000a 	cmp	r1, #10
 49c:	e5cd300e 	strb	r3, [sp, #14]
 4a0:	0a000014 	beq	4f8 <bw_i2c_ui_text_line_2+0x16c>
 4a4:	e5d5300a 	ldrb	r3, [r5, #10]
 4a8:	e351000b 	cmp	r1, #11
 4ac:	e5cd300f 	strb	r3, [sp, #15]
 4b0:	0a000010 	beq	4f8 <bw_i2c_ui_text_line_2+0x16c>
 4b4:	e5d5300b 	ldrb	r3, [r5, #11]
 4b8:	e351000c 	cmp	r1, #12
 4bc:	e5cd3010 	strb	r3, [sp, #16]
 4c0:	0a00000c 	beq	4f8 <bw_i2c_ui_text_line_2+0x16c>
 4c4:	e5d5300c 	ldrb	r3, [r5, #12]
 4c8:	e351000d 	cmp	r1, #13
 4cc:	e5cd3011 	strb	r3, [sp, #17]
 4d0:	0a000008 	beq	4f8 <bw_i2c_ui_text_line_2+0x16c>
 4d4:	e5d5300d 	ldrb	r3, [r5, #13]
 4d8:	e351000e 	cmp	r1, #14
 4dc:	e5cd3012 	strb	r3, [sp, #18]
 4e0:	0a000004 	beq	4f8 <bw_i2c_ui_text_line_2+0x16c>
 4e4:	e5d5300e 	ldrb	r3, [r5, #14]
 4e8:	e3510010 	cmp	r1, #16
 4ec:	e5cd3013 	strb	r3, [sp, #19]
 4f0:	05d5300f 	ldrbeq	r3, [r5, #15]
 4f4:	05cd3014 	strbeq	r3, [sp, #20]
 4f8:	e5d62000 	ldrb	r2, [r6]
 4fc:	e3a03901 	mov	r3, #16384	; 0x4000
 500:	e3433f80 	movt	r3, #16256	; 0x3f80
 504:	e300c9c4 	movw	ip, #2500	; 0x9c4
 508:	e1a020a2 	lsr	r2, r2, #1
 50c:	e28d0004 	add	r0, sp, #4
 510:	e583200c 	str	r2, [r3, #12]
 514:	e2811001 	add	r1, r1, #1
 518:	e583c014 	str	ip, [r3, #20]
 51c:	ebfffffe 	bl	0 <bcm2835_i2c_write>
 520:	e3a0000e 	mov	r0, #14
 524:	e3a01000 	mov	r1, #0
 528:	ebfffffe 	bl	0 <udelay>
 52c:	e28dd018 	add	sp, sp, #24
 530:	e8bd8070 	pop	{r4, r5, r6, pc}

00000534 <bw_i2c_ui_text_line_3>:
 534:	e92d4070 	push	{r4, r5, r6, lr}
 538:	e3006000 	movw	r6, #0
 53c:	e3406000 	movt	r6, #0
 540:	e24dd018 	sub	sp, sp, #24
 544:	e3a03901 	mov	r3, #16384	; 0x4000
 548:	e3a0c011 	mov	ip, #17
 54c:	e5d62000 	ldrb	r2, [r6]
 550:	e3433f80 	movt	r3, #16256	; 0x3f80
 554:	e5cdc004 	strb	ip, [sp, #4]
 558:	e3a0e040 	mov	lr, #64	; 0x40
 55c:	e1a020a2 	lsr	r2, r2, #1
 560:	e300c9c4 	movw	ip, #2500	; 0x9c4
 564:	e5cde005 	strb	lr, [sp, #5]
 568:	e1a04001 	mov	r4, r1
 56c:	e583200c 	str	r2, [r3, #12]
 570:	e3a01002 	mov	r1, #2
 574:	e583c014 	str	ip, [r3, #20]
 578:	e1a05000 	mov	r5, r0
 57c:	e28d0004 	add	r0, sp, #4
 580:	ebfffffe 	bl	0 <bcm2835_i2c_write>
 584:	e3a01000 	mov	r1, #0
 588:	e3a0000e 	mov	r0, #14
 58c:	ebfffffe 	bl	0 <udelay>
 590:	e3540010 	cmp	r4, #16
 594:	e3a03000 	mov	r3, #0
 598:	e5cd3004 	strb	r3, [sp, #4]
 59c:	31a01004 	movcc	r1, r4
 5a0:	23a01010 	movcs	r1, #16
 5a4:	e1510003 	cmp	r1, r3
 5a8:	0a00003c 	beq	6a0 <bw_i2c_ui_text_line_3+0x16c>
 5ac:	e5d53000 	ldrb	r3, [r5]
 5b0:	e3510001 	cmp	r1, #1
 5b4:	e5cd3005 	strb	r3, [sp, #5]
 5b8:	0a000038 	beq	6a0 <bw_i2c_ui_text_line_3+0x16c>
 5bc:	e5d53001 	ldrb	r3, [r5, #1]
 5c0:	e3510002 	cmp	r1, #2
 5c4:	e5cd3006 	strb	r3, [sp, #6]
 5c8:	0a000034 	beq	6a0 <bw_i2c_ui_text_line_3+0x16c>
 5cc:	e5d53002 	ldrb	r3, [r5, #2]
 5d0:	e3510003 	cmp	r1, #3
 5d4:	e5cd3007 	strb	r3, [sp, #7]
 5d8:	0a000030 	beq	6a0 <bw_i2c_ui_text_line_3+0x16c>
 5dc:	e5d53003 	ldrb	r3, [r5, #3]
 5e0:	e3510004 	cmp	r1, #4
 5e4:	e5cd3008 	strb	r3, [sp, #8]
 5e8:	0a00002c 	beq	6a0 <bw_i2c_ui_text_line_3+0x16c>
 5ec:	e5d53004 	ldrb	r3, [r5, #4]
 5f0:	e3510005 	cmp	r1, #5
 5f4:	e5cd3009 	strb	r3, [sp, #9]
 5f8:	0a000028 	beq	6a0 <bw_i2c_ui_text_line_3+0x16c>
 5fc:	e5d53005 	ldrb	r3, [r5, #5]
 600:	e3510006 	cmp	r1, #6
 604:	e5cd300a 	strb	r3, [sp, #10]
 608:	0a000024 	beq	6a0 <bw_i2c_ui_text_line_3+0x16c>
 60c:	e5d53006 	ldrb	r3, [r5, #6]
 610:	e3510007 	cmp	r1, #7
 614:	e5cd300b 	strb	r3, [sp, #11]
 618:	0a000020 	beq	6a0 <bw_i2c_ui_text_line_3+0x16c>
 61c:	e5d53007 	ldrb	r3, [r5, #7]
 620:	e3510008 	cmp	r1, #8
 624:	e5cd300c 	strb	r3, [sp, #12]
 628:	0a00001c 	beq	6a0 <bw_i2c_ui_text_line_3+0x16c>
 62c:	e5d53008 	ldrb	r3, [r5, #8]
 630:	e3510009 	cmp	r1, #9
 634:	e5cd300d 	strb	r3, [sp, #13]
 638:	0a000018 	beq	6a0 <bw_i2c_ui_text_line_3+0x16c>
 63c:	e5d53009 	ldrb	r3, [r5, #9]
 640:	e351000a 	cmp	r1, #10
 644:	e5cd300e 	strb	r3, [sp, #14]
 648:	0a000014 	beq	6a0 <bw_i2c_ui_text_line_3+0x16c>
 64c:	e5d5300a 	ldrb	r3, [r5, #10]
 650:	e351000b 	cmp	r1, #11
 654:	e5cd300f 	strb	r3, [sp, #15]
 658:	0a000010 	beq	6a0 <bw_i2c_ui_text_line_3+0x16c>
 65c:	e5d5300b 	ldrb	r3, [r5, #11]
 660:	e351000c 	cmp	r1, #12
 664:	e5cd3010 	strb	r3, [sp, #16]
 668:	0a00000c 	beq	6a0 <bw_i2c_ui_text_line_3+0x16c>
 66c:	e5d5300c 	ldrb	r3, [r5, #12]
 670:	e351000d 	cmp	r1, #13
 674:	e5cd3011 	strb	r3, [sp, #17]
 678:	0a000008 	beq	6a0 <bw_i2c_ui_text_line_3+0x16c>
 67c:	e5d5300d 	ldrb	r3, [r5, #13]
 680:	e351000e 	cmp	r1, #14
 684:	e5cd3012 	strb	r3, [sp, #18]
 688:	0a000004 	beq	6a0 <bw_i2c_ui_text_line_3+0x16c>
 68c:	e5d5300e 	ldrb	r3, [r5, #14]
 690:	e3510010 	cmp	r1, #16
 694:	e5cd3013 	strb	r3, [sp, #19]
 698:	05d5300f 	ldrbeq	r3, [r5, #15]
 69c:	05cd3014 	strbeq	r3, [sp, #20]
 6a0:	e5d62000 	ldrb	r2, [r6]
 6a4:	e3a03901 	mov	r3, #16384	; 0x4000
 6a8:	e3433f80 	movt	r3, #16256	; 0x3f80
 6ac:	e300c9c4 	movw	ip, #2500	; 0x9c4
 6b0:	e1a020a2 	lsr	r2, r2, #1
 6b4:	e28d0004 	add	r0, sp, #4
 6b8:	e583200c 	str	r2, [r3, #12]
 6bc:	e2811001 	add	r1, r1, #1
 6c0:	e583c014 	str	ip, [r3, #20]
 6c4:	ebfffffe 	bl	0 <bcm2835_i2c_write>
 6c8:	e3a0000e 	mov	r0, #14
 6cc:	e3a01000 	mov	r1, #0
 6d0:	ebfffffe 	bl	0 <udelay>
 6d4:	e28dd018 	add	sp, sp, #24
 6d8:	e8bd8070 	pop	{r4, r5, r6, pc}

000006dc <bw_i2c_ui_text_line_4>:
 6dc:	e92d4070 	push	{r4, r5, r6, lr}
 6e0:	e3006000 	movw	r6, #0
 6e4:	e3406000 	movt	r6, #0
 6e8:	e24dd018 	sub	sp, sp, #24
 6ec:	e3a03901 	mov	r3, #16384	; 0x4000
 6f0:	e3a0c011 	mov	ip, #17
 6f4:	e5d62000 	ldrb	r2, [r6]
 6f8:	e3433f80 	movt	r3, #16256	; 0x3f80
 6fc:	e5cdc004 	strb	ip, [sp, #4]
 700:	e3a0e060 	mov	lr, #96	; 0x60
 704:	e1a020a2 	lsr	r2, r2, #1
 708:	e300c9c4 	movw	ip, #2500	; 0x9c4
 70c:	e5cde005 	strb	lr, [sp, #5]
 710:	e1a04001 	mov	r4, r1
 714:	e583200c 	str	r2, [r3, #12]
 718:	e3a01002 	mov	r1, #2
 71c:	e583c014 	str	ip, [r3, #20]
 720:	e1a05000 	mov	r5, r0
 724:	e28d0004 	add	r0, sp, #4
 728:	ebfffffe 	bl	0 <bcm2835_i2c_write>
 72c:	e3a01000 	mov	r1, #0
 730:	e3a0000e 	mov	r0, #14
 734:	ebfffffe 	bl	0 <udelay>
 738:	e3540010 	cmp	r4, #16
 73c:	e3a03000 	mov	r3, #0
 740:	e5cd3004 	strb	r3, [sp, #4]
 744:	31a01004 	movcc	r1, r4
 748:	23a01010 	movcs	r1, #16
 74c:	e1510003 	cmp	r1, r3
 750:	0a00003c 	beq	848 <bw_i2c_ui_text_line_4+0x16c>
 754:	e5d53000 	ldrb	r3, [r5]
 758:	e3510001 	cmp	r1, #1
 75c:	e5cd3005 	strb	r3, [sp, #5]
 760:	0a000038 	beq	848 <bw_i2c_ui_text_line_4+0x16c>
 764:	e5d53001 	ldrb	r3, [r5, #1]
 768:	e3510002 	cmp	r1, #2
 76c:	e5cd3006 	strb	r3, [sp, #6]
 770:	0a000034 	beq	848 <bw_i2c_ui_text_line_4+0x16c>
 774:	e5d53002 	ldrb	r3, [r5, #2]
 778:	e3510003 	cmp	r1, #3
 77c:	e5cd3007 	strb	r3, [sp, #7]
 780:	0a000030 	beq	848 <bw_i2c_ui_text_line_4+0x16c>
 784:	e5d53003 	ldrb	r3, [r5, #3]
 788:	e3510004 	cmp	r1, #4
 78c:	e5cd3008 	strb	r3, [sp, #8]
 790:	0a00002c 	beq	848 <bw_i2c_ui_text_line_4+0x16c>
 794:	e5d53004 	ldrb	r3, [r5, #4]
 798:	e3510005 	cmp	r1, #5
 79c:	e5cd3009 	strb	r3, [sp, #9]
 7a0:	0a000028 	beq	848 <bw_i2c_ui_text_line_4+0x16c>
 7a4:	e5d53005 	ldrb	r3, [r5, #5]
 7a8:	e3510006 	cmp	r1, #6
 7ac:	e5cd300a 	strb	r3, [sp, #10]
 7b0:	0a000024 	beq	848 <bw_i2c_ui_text_line_4+0x16c>
 7b4:	e5d53006 	ldrb	r3, [r5, #6]
 7b8:	e3510007 	cmp	r1, #7
 7bc:	e5cd300b 	strb	r3, [sp, #11]
 7c0:	0a000020 	beq	848 <bw_i2c_ui_text_line_4+0x16c>
 7c4:	e5d53007 	ldrb	r3, [r5, #7]
 7c8:	e3510008 	cmp	r1, #8
 7cc:	e5cd300c 	strb	r3, [sp, #12]
 7d0:	0a00001c 	beq	848 <bw_i2c_ui_text_line_4+0x16c>
 7d4:	e5d53008 	ldrb	r3, [r5, #8]
 7d8:	e3510009 	cmp	r1, #9
 7dc:	e5cd300d 	strb	r3, [sp, #13]
 7e0:	0a000018 	beq	848 <bw_i2c_ui_text_line_4+0x16c>
 7e4:	e5d53009 	ldrb	r3, [r5, #9]
 7e8:	e351000a 	cmp	r1, #10
 7ec:	e5cd300e 	strb	r3, [sp, #14]
 7f0:	0a000014 	beq	848 <bw_i2c_ui_text_line_4+0x16c>
 7f4:	e5d5300a 	ldrb	r3, [r5, #10]
 7f8:	e351000b 	cmp	r1, #11
 7fc:	e5cd300f 	strb	r3, [sp, #15]
 800:	0a000010 	beq	848 <bw_i2c_ui_text_line_4+0x16c>
 804:	e5d5300b 	ldrb	r3, [r5, #11]
 808:	e351000c 	cmp	r1, #12
 80c:	e5cd3010 	strb	r3, [sp, #16]
 810:	0a00000c 	beq	848 <bw_i2c_ui_text_line_4+0x16c>
 814:	e5d5300c 	ldrb	r3, [r5, #12]
 818:	e351000d 	cmp	r1, #13
 81c:	e5cd3011 	strb	r3, [sp, #17]
 820:	0a000008 	beq	848 <bw_i2c_ui_text_line_4+0x16c>
 824:	e5d5300d 	ldrb	r3, [r5, #13]
 828:	e351000e 	cmp	r1, #14
 82c:	e5cd3012 	strb	r3, [sp, #18]
 830:	0a000004 	beq	848 <bw_i2c_ui_text_line_4+0x16c>
 834:	e5d5300e 	ldrb	r3, [r5, #14]
 838:	e3510010 	cmp	r1, #16
 83c:	e5cd3013 	strb	r3, [sp, #19]
 840:	05d5300f 	ldrbeq	r3, [r5, #15]
 844:	05cd3014 	strbeq	r3, [sp, #20]
 848:	e5d62000 	ldrb	r2, [r6]
 84c:	e3a03901 	mov	r3, #16384	; 0x4000
 850:	e3433f80 	movt	r3, #16256	; 0x3f80
 854:	e300c9c4 	movw	ip, #2500	; 0x9c4
 858:	e1a020a2 	lsr	r2, r2, #1
 85c:	e28d0004 	add	r0, sp, #4
 860:	e583200c 	str	r2, [r3, #12]
 864:	e2811001 	add	r1, r1, #1
 868:	e583c014 	str	ip, [r3, #20]
 86c:	ebfffffe 	bl	0 <bcm2835_i2c_write>
 870:	e3a0000e 	mov	r0, #14
 874:	e3a01000 	mov	r1, #0
 878:	ebfffffe 	bl	0 <udelay>
 87c:	e28dd018 	add	sp, sp, #24
 880:	e8bd8070 	pop	{r4, r5, r6, pc}

00000884 <bw_i2c_ui_cls>:
 884:	e3003000 	movw	r3, #0
 888:	e3001000 	movw	r1, #0
 88c:	e3403000 	movt	r3, #0
 890:	e3401000 	movt	r1, #0
 894:	e52de004 	push	{lr}		; (str lr, [sp, #-4]!)
 898:	e24dd00c 	sub	sp, sp, #12
 89c:	e5d32000 	ldrb	r2, [r3]
 8a0:	e3a03901 	mov	r3, #16384	; 0x4000
 8a4:	e1d110b0 	ldrh	r1, [r1]
 8a8:	e3433f80 	movt	r3, #16256	; 0x3f80
 8ac:	e1a020a2 	lsr	r2, r2, #1
 8b0:	e300c9c4 	movw	ip, #2500	; 0x9c4
 8b4:	e1cd10b4 	strh	r1, [sp, #4]
 8b8:	e28d0004 	add	r0, sp, #4
 8bc:	e583200c 	str	r2, [r3, #12]
 8c0:	e3a01002 	mov	r1, #2
 8c4:	e583c014 	str	ip, [r3, #20]
 8c8:	ebfffffe 	bl	0 <bcm2835_i2c_write>
 8cc:	e3a0000e 	mov	r0, #14
 8d0:	e3a01000 	mov	r1, #0
 8d4:	ebfffffe 	bl	0 <udelay>
 8d8:	e28dd00c 	add	sp, sp, #12
 8dc:	e49df004 	pop	{pc}		; (ldr pc, [sp], #4)

000008e0 <bw_i2c_ui_set_contrast>:
 8e0:	e3002000 	movw	r2, #0
 8e4:	e3a03901 	mov	r3, #16384	; 0x4000
 8e8:	e3402000 	movt	r2, #0
 8ec:	e3433f80 	movt	r3, #16256	; 0x3f80
 8f0:	e52de004 	push	{lr}		; (str lr, [sp, #-4]!)
 8f4:	e24dd00c 	sub	sp, sp, #12
 8f8:	e5d22000 	ldrb	r2, [r2]
 8fc:	e300c9c4 	movw	ip, #2500	; 0x9c4
 900:	e5cd0005 	strb	r0, [sp, #5]
 904:	e3a01012 	mov	r1, #18
 908:	e1a020a2 	lsr	r2, r2, #1
 90c:	e28d0004 	add	r0, sp, #4
 910:	e5cd1004 	strb	r1, [sp, #4]
 914:	e3a01002 	mov	r1, #2
 918:	e583200c 	str	r2, [r3, #12]
 91c:	e583c014 	str	ip, [r3, #20]
 920:	ebfffffe 	bl	0 <bcm2835_i2c_write>
 924:	e3a0000e 	mov	r0, #14
 928:	e3a01000 	mov	r1, #0
 92c:	ebfffffe 	bl	0 <udelay>
 930:	e28dd00c 	add	sp, sp, #12
 934:	e49df004 	pop	{pc}		; (ldr pc, [sp], #4)

00000938 <bw_i2c_ui_set_backlight>:
 938:	e3002000 	movw	r2, #0
 93c:	e3a03901 	mov	r3, #16384	; 0x4000
 940:	e3402000 	movt	r2, #0
 944:	e3433f80 	movt	r3, #16256	; 0x3f80
 948:	e52de004 	push	{lr}		; (str lr, [sp, #-4]!)
 94c:	e24dd00c 	sub	sp, sp, #12
 950:	e5d22000 	ldrb	r2, [r2]
 954:	e300c9c4 	movw	ip, #2500	; 0x9c4
 958:	e5cd0005 	strb	r0, [sp, #5]
 95c:	e3a01017 	mov	r1, #23
 960:	e1a020a2 	lsr	r2, r2, #1
 964:	e28d0004 	add	r0, sp, #4
 968:	e5cd1004 	strb	r1, [sp, #4]
 96c:	e3a01002 	mov	r1, #2
 970:	e583200c 	str	r2, [r3, #12]
 974:	e583c014 	str	ip, [r3, #20]
 978:	ebfffffe 	bl	0 <bcm2835_i2c_write>
 97c:	e3a0000e 	mov	r0, #14
 980:	e3a01000 	mov	r1, #0
 984:	ebfffffe 	bl	0 <udelay>
 988:	e28dd00c 	add	sp, sp, #12
 98c:	e49df004 	pop	{pc}		; (ldr pc, [sp], #4)

00000990 <bw_i2c_ui_set_backlight_temp>:
 990:	e3002000 	movw	r2, #0
 994:	e3a03901 	mov	r3, #16384	; 0x4000
 998:	e3402000 	movt	r2, #0
 99c:	e3433f80 	movt	r3, #16256	; 0x3f80
 9a0:	e52de004 	push	{lr}		; (str lr, [sp, #-4]!)
 9a4:	e24dd00c 	sub	sp, sp, #12
 9a8:	e5d22000 	ldrb	r2, [r2]
 9ac:	e300c9c4 	movw	ip, #2500	; 0x9c4
 9b0:	e5cd0005 	strb	r0, [sp, #5]
 9b4:	e3a01013 	mov	r1, #19
 9b8:	e1a020a2 	lsr	r2, r2, #1
 9bc:	e28d0004 	add	r0, sp, #4
 9c0:	e5cd1004 	strb	r1, [sp, #4]
 9c4:	e3a01002 	mov	r1, #2
 9c8:	e583200c 	str	r2, [r3, #12]
 9cc:	e583c014 	str	ip, [r3, #20]
 9d0:	ebfffffe 	bl	0 <bcm2835_i2c_write>
 9d4:	e3a0000e 	mov	r0, #14
 9d8:	e3a01000 	mov	r1, #0
 9dc:	ebfffffe 	bl	0 <udelay>
 9e0:	e28dd00c 	add	sp, sp, #12
 9e4:	e49df004 	pop	{pc}		; (ldr pc, [sp], #4)

000009e8 <bw_i2c_ui_set_startup_message_line_1>:
 9e8:	e59f3058 	ldr	r3, [pc, #88]	; a48 <bw_i2c_ui_set_startup_message_line_1+0x60>
 9ec:	e3510000 	cmp	r1, #0
 9f0:	e52de004 	push	{lr}		; (str lr, [sp, #-4]!)
 9f4:	e24dd00c 	sub	sp, sp, #12
 9f8:	e1d330b0 	ldrh	r3, [r3]
 9fc:	e1cd30b4 	strh	r3, [sp, #4]
 a00:	1a00000e 	bne	a40 <bw_i2c_ui_set_startup_message_line_1+0x58>
 a04:	e3002000 	movw	r2, #0
 a08:	e3a03901 	mov	r3, #16384	; 0x4000
 a0c:	e3402000 	movt	r2, #0
 a10:	e3433f80 	movt	r3, #16256	; 0x3f80
 a14:	e300c9c4 	movw	ip, #2500	; 0x9c4
 a18:	e3a0000e 	mov	r0, #14
 a1c:	e5d22000 	ldrb	r2, [r2]
 a20:	e3a01000 	mov	r1, #0
 a24:	e1a020a2 	lsr	r2, r2, #1
 a28:	e583200c 	str	r2, [r3, #12]
 a2c:	e583c014 	str	ip, [r3, #20]
 a30:	ebfffffe 	bl	0 <udelay>
 a34:	e28d0004 	add	r0, sp, #4
 a38:	e3a01002 	mov	r1, #2
 a3c:	ebfffffe 	bl	0 <bcm2835_i2c_write>
 a40:	e28dd00c 	add	sp, sp, #12
 a44:	e49df004 	pop	{pc}		; (ldr pc, [sp], #4)
 a48:	00000004 	andeq	r0, r0, r4

00000a4c <bw_i2c_ui_set_startup_message_line_2>:
 a4c:	e12fff1e 	bx	lr

00000a50 <bw_i2c_ui_set_startup_message_line_3>:
 a50:	e12fff1e 	bx	lr

00000a54 <bw_i2c_ui_set_startup_message_line_4>:
 a54:	e12fff1e 	bx	lr

00000a58 <bw_i2c_ui_get_backlight>:
 a58:	e3002000 	movw	r2, #0
 a5c:	e3a03901 	mov	r3, #16384	; 0x4000
 a60:	e3402000 	movt	r2, #0
 a64:	e3433f80 	movt	r3, #16256	; 0x3f80
 a68:	e92d4010 	push	{r4, lr}
 a6c:	e24dd008 	sub	sp, sp, #8
 a70:	e5d2c000 	ldrb	ip, [r2]
 a74:	e28d2008 	add	r2, sp, #8
 a78:	e300e9c4 	movw	lr, #2500	; 0x9c4
 a7c:	e3a01013 	mov	r1, #19
 a80:	e1a0c0ac 	lsr	ip, ip, #1
 a84:	e1a04000 	mov	r4, r0
 a88:	e5621004 	strb	r1, [r2, #-4]!
 a8c:	e3a01001 	mov	r1, #1
 a90:	e583c00c 	str	ip, [r3, #12]
 a94:	e1a00002 	mov	r0, r2
 a98:	e583e014 	str	lr, [r3, #20]
 a9c:	ebfffffe 	bl	0 <bcm2835_i2c_write>
 aa0:	e3a0000e 	mov	r0, #14
 aa4:	e3a01000 	mov	r1, #0
 aa8:	ebfffffe 	bl	0 <udelay>
 aac:	e1a00004 	mov	r0, r4
 ab0:	e3a01001 	mov	r1, #1
 ab4:	ebfffffe 	bl	0 <bcm2835_i2c_read>
 ab8:	e28dd008 	add	sp, sp, #8
 abc:	e8bd8010 	pop	{r4, pc}

00000ac0 <bw_i2c_ui_get_contrast>:
 ac0:	e3002000 	movw	r2, #0
 ac4:	e3a03901 	mov	r3, #16384	; 0x4000
 ac8:	e3402000 	movt	r2, #0
 acc:	e3433f80 	movt	r3, #16256	; 0x3f80
 ad0:	e92d4010 	push	{r4, lr}
 ad4:	e24dd008 	sub	sp, sp, #8
 ad8:	e5d2c000 	ldrb	ip, [r2]
 adc:	e28d2008 	add	r2, sp, #8
 ae0:	e300e9c4 	movw	lr, #2500	; 0x9c4
 ae4:	e3a01012 	mov	r1, #18
 ae8:	e1a0c0ac 	lsr	ip, ip, #1
 aec:	e1a04000 	mov	r4, r0
 af0:	e5621004 	strb	r1, [r2, #-4]!
 af4:	e3a01001 	mov	r1, #1
 af8:	e583c00c 	str	ip, [r3, #12]
 afc:	e1a00002 	mov	r0, r2
 b00:	e583e014 	str	lr, [r3, #20]
 b04:	ebfffffe 	bl	0 <bcm2835_i2c_write>
 b08:	e3a0000e 	mov	r0, #14
 b0c:	e3a01000 	mov	r1, #0
 b10:	ebfffffe 	bl	0 <udelay>
 b14:	e1a00004 	mov	r0, r4
 b18:	e3a01001 	mov	r1, #1
 b1c:	ebfffffe 	bl	0 <bcm2835_i2c_read>
 b20:	e28dd008 	add	sp, sp, #8
 b24:	e8bd8010 	pop	{r4, pc}

00000b28 <bw_i2c_ui_reinit>:
 b28:	e59f2054 	ldr	r2, [pc, #84]	; b84 <bw_i2c_ui_reinit+0x5c>
 b2c:	e3003000 	movw	r3, #0
 b30:	e3403000 	movt	r3, #0
 b34:	e52de004 	push	{lr}		; (str lr, [sp, #-4]!)
 b38:	e24dd00c 	sub	sp, sp, #12
 b3c:	e1d210b0 	ldrh	r1, [r2]
 b40:	e28d0004 	add	r0, sp, #4
 b44:	e5d32000 	ldrb	r2, [r3]
 b48:	e3a03901 	mov	r3, #16384	; 0x4000
 b4c:	e1cd10b4 	strh	r1, [sp, #4]
 b50:	e3433f80 	movt	r3, #16256	; 0x3f80
 b54:	e1a020a2 	lsr	r2, r2, #1
 b58:	e30019c4 	movw	r1, #2500	; 0x9c4
 b5c:	e583200c 	str	r2, [r3, #12]
 b60:	e5831014 	str	r1, [r3, #20]
 b64:	e3a01002 	mov	r1, #2
 b68:	ebfffffe 	bl	0 <bcm2835_i2c_write>
 b6c:	e30a0120 	movw	r0, #41248	; 0xa120
 b70:	e3a01000 	mov	r1, #0
 b74:	e3400007 	movt	r0, #7
 b78:	ebfffffe 	bl	0 <udelay>
 b7c:	e28dd00c 	add	sp, sp, #12
 b80:	e49df004 	pop	{pc}		; (ldr pc, [sp], #4)
 b84:	00000008 	andeq	r0, r0, r8

00000b88 <bw_i2c_ui_read_id>:
 b88:	e3002000 	movw	r2, #0
 b8c:	e3a0c001 	mov	ip, #1
 b90:	e3402000 	movt	r2, #0
 b94:	e3a03901 	mov	r3, #16384	; 0x4000
 b98:	e52de004 	push	{lr}		; (str lr, [sp, #-4]!)
 b9c:	e24dd01c 	sub	sp, sp, #28
 ba0:	e5d22000 	ldrb	r2, [r2]
 ba4:	e3433f80 	movt	r3, #16256	; 0x3f80
 ba8:	e28d0018 	add	r0, sp, #24
 bac:	e300e9c4 	movw	lr, #2500	; 0x9c4
 bb0:	e1a02c32 	lsr	r2, r2, ip
 bb4:	e1a0100c 	mov	r1, ip
 bb8:	e560c018 	strb	ip, [r0, #-24]!	; 0xffffffe8
 bbc:	e583200c 	str	r2, [r3, #12]
 bc0:	e583e014 	str	lr, [r3, #20]
 bc4:	ebfffffe 	bl	0 <bcm2835_i2c_write>
 bc8:	e3a0000e 	mov	r0, #14
 bcc:	e3a01000 	mov	r1, #0
 bd0:	ebfffffe 	bl	0 <udelay>
 bd4:	e28d0004 	add	r0, sp, #4
 bd8:	e3a01014 	mov	r1, #20
 bdc:	ebfffffe 	bl	0 <bcm2835_i2c_read>
 be0:	e3000000 	movw	r0, #0
 be4:	e28d1004 	add	r1, sp, #4
 be8:	e3400000 	movt	r0, #0
 bec:	ebfffffe 	bl	0 <printf>
 bf0:	e28dd01c 	add	sp, sp, #28
 bf4:	e49df004 	pop	{pc}		; (ldr pc, [sp], #4)

00000bf8 <bw_i2c_ui_read_button>:
 bf8:	e3500005 	cmp	r0, #5
 bfc:	9a000001 	bls	c08 <bw_i2c_ui_read_button+0x10>
 c00:	e3a00000 	mov	r0, #0
 c04:	e12fff1e 	bx	lr
 c08:	e3002000 	movw	r2, #0
 c0c:	e3a03901 	mov	r3, #16384	; 0x4000
 c10:	e3402000 	movt	r2, #0
 c14:	e3433f80 	movt	r3, #16256	; 0x3f80
 c18:	e52de004 	push	{lr}		; (str lr, [sp, #-4]!)
 c1c:	e24dd00c 	sub	sp, sp, #12
 c20:	e5d22000 	ldrb	r2, [r2]
 c24:	e300c9c4 	movw	ip, #2500	; 0x9c4
 c28:	e2800040 	add	r0, r0, #64	; 0x40
 c2c:	e3e01000 	mvn	r1, #0
 c30:	e1a020a2 	lsr	r2, r2, #1
 c34:	e5cd0004 	strb	r0, [sp, #4]
 c38:	e28d0004 	add	r0, sp, #4
 c3c:	e5cd1005 	strb	r1, [sp, #5]
 c40:	e3a01002 	mov	r1, #2
 c44:	e583200c 	str	r2, [r3, #12]
 c48:	e583c014 	str	ip, [r3, #20]
 c4c:	ebfffffe 	bl	0 <bcm2835_i2c_write>
 c50:	e3a0000e 	mov	r0, #14
 c54:	e3a01000 	mov	r1, #0
 c58:	ebfffffe 	bl	0 <udelay>
 c5c:	e1a0000d 	mov	r0, sp
 c60:	e3a01001 	mov	r1, #1
 c64:	ebfffffe 	bl	0 <bcm2835_i2c_read>
 c68:	e5dd0000 	ldrb	r0, [sp]
 c6c:	e28dd00c 	add	sp, sp, #12
 c70:	e49df004 	pop	{pc}		; (ldr pc, [sp], #4)

00000c74 <bw_i2c_ui_read_button_last>:
 c74:	e59f2060 	ldr	r2, [pc, #96]	; cdc <bw_i2c_ui_read_button_last+0x68>
 c78:	e3003000 	movw	r3, #0
 c7c:	e3403000 	movt	r3, #0
 c80:	e52de004 	push	{lr}		; (str lr, [sp, #-4]!)
 c84:	e24dd00c 	sub	sp, sp, #12
 c88:	e1d210b0 	ldrh	r1, [r2]
 c8c:	e28d0004 	add	r0, sp, #4
 c90:	e5d32000 	ldrb	r2, [r3]
 c94:	e3a03901 	mov	r3, #16384	; 0x4000
 c98:	e1cd10b4 	strh	r1, [sp, #4]
 c9c:	e3433f80 	movt	r3, #16256	; 0x3f80
 ca0:	e1a020a2 	lsr	r2, r2, #1
 ca4:	e30019c4 	movw	r1, #2500	; 0x9c4
 ca8:	e583200c 	str	r2, [r3, #12]
 cac:	e5831014 	str	r1, [r3, #20]
 cb0:	e3a01002 	mov	r1, #2
 cb4:	ebfffffe 	bl	0 <bcm2835_i2c_write>
 cb8:	e3a0000e 	mov	r0, #14
 cbc:	e3a01000 	mov	r1, #0
 cc0:	ebfffffe 	bl	0 <udelay>
 cc4:	e1a0000d 	mov	r0, sp
 cc8:	e3a01001 	mov	r1, #1
 ccc:	ebfffffe 	bl	0 <bcm2835_i2c_read>
 cd0:	e5dd0000 	ldrb	r0, [sp]
 cd4:	e28dd00c 	add	sp, sp, #12
 cd8:	e49df004 	pop	{pc}		; (ldr pc, [sp], #4)
 cdc:	0000000c 	andeq	r0, r0, ip

Disassembly of section .data:

00000000 <i2c_ui_slave_address>:
   0:	Address 0x0000000000000000 is out of bounds.


Disassembly of section .rodata:

00000000 <.LANCHOR1>:
   0:	00002010 	andeq	r2, r0, r0, lsl r0
   4:	0000ff08 	andeq	pc, r0, r8, lsl #30
   8:	00002014 	andeq	r2, r0, r4, lsl r0
   c:	0000ff31 	andeq	pc, r0, r1, lsr pc	; <UNPREDICTABLE>

Disassembly of section .rodata.str1.4:

00000000 <.LC4>:
   0:	5d73255b 	cfldr64pl	mvdx2, [r3, #-364]!	; 0xfffffe94
   4:	0000000a 	andeq	r0, r0, sl

Disassembly of section .comment:

00000000 <.comment>:
   0:	43434700 	movtmi	r4, #14080	; 0x3700
   4:	4728203a 			; <UNDEFINED> instruction: 0x4728203a
   8:	2029554e 	eorcs	r5, r9, lr, asr #10
   c:	2e392e34 	mrccs	14, 1, r2, cr9, cr4, {1}
  10:	Address 0x0000000000000010 is out of bounds.


Disassembly of section .ARM.attributes:

00000000 <.ARM.attributes>:
   0:	00003641 	andeq	r3, r0, r1, asr #12
   4:	61656100 	cmnvs	r5, r0, lsl #2
   8:	01006962 	tsteq	r0, r2, ror #18
   c:	0000002c 	andeq	r0, r0, ip, lsr #32
  10:	412d3705 	teqmi	sp, r5, lsl #14
  14:	070a0600 	streq	r0, [sl, -r0, lsl #12]
  18:	09010841 	stmdbeq	r1, {r0, r6, fp}
  1c:	0c050a02 	stceq	10, cr0, [r5], {2}
  20:	14041202 	strne	r1, [r4], #-514	; 0xfffffdfe
  24:	17011501 	strne	r1, [r1, -r1, lsl #10]
  28:	19011803 	stmdbne	r1, {r0, r1, fp, ip}
  2c:	1b011a01 	blne	46838 <bw_i2c_ui_read_button_last+0x45bc4>
  30:	1e011c03 	cdpne	12, 0, cr1, cr1, cr3, {0}
  34:	Address 0x0000000000000034 is out of bounds.


bw_spi_7fets.o:     file format elf32-littlearm


Disassembly of section .text:

00000000 <bw_spi_7fets_start>:
   0:	e92d4010 	push	{r4, lr}
   4:	e1a04000 	mov	r4, r0
   8:	e24dd008 	sub	sp, sp, #8
   c:	ebfffffe 	bl	0 <bcm2835_spi_begin>
  10:	e5d43001 	ldrb	r3, [r4, #1]
  14:	e3a0c901 	mov	ip, #16384	; 0x4000
  18:	e343cf20 	movt	ip, #16160	; 0x3f20
  1c:	e3a01003 	mov	r1, #3
  20:	e3530000 	cmp	r3, #0
  24:	e28d0004 	add	r0, sp, #4
  28:	03a03088 	moveq	r3, #136	; 0x88
  2c:	03e02077 	mvneq	r2, #119	; 0x77
  30:	e5cd3004 	strb	r3, [sp, #4]
  34:	e3a03030 	mov	r3, #48	; 0x30
  38:	e5cd3005 	strb	r3, [sp, #5]
  3c:	e3a0307f 	mov	r3, #127	; 0x7f
  40:	e5cd3006 	strb	r3, [sp, #6]
  44:	e30039c4 	movw	r3, #2500	; 0x9c4
  48:	05c42001 	strbeq	r2, [r4, #1]
  4c:	e58c3008 	str	r3, [ip, #8]
  50:	e59c2000 	ldr	r2, [ip]
  54:	e5d43000 	ldrb	r3, [r4]
  58:	e3c22003 	bic	r2, r2, #3
  5c:	e0033001 	and	r3, r3, r1
  60:	e1833002 	orr	r3, r3, r2
  64:	e58c3000 	str	r3, [ip]
  68:	ebfffffe 	bl	0 <bcm2835_spi_writenb>
  6c:	e3a00000 	mov	r0, #0
  70:	e3a01000 	mov	r1, #0
  74:	ebfffffe 	bl	0 <udelay>
  78:	e3a00000 	mov	r0, #0
  7c:	e28dd008 	add	sp, sp, #8
  80:	e8bd8010 	pop	{r4, pc}

00000084 <bw_spi_7fets_end>:
  84:	eafffffe 	b	0 <bcm2835_spi_end>

00000088 <bw_spi_7fets_output>:
  88:	e52de004 	push	{lr}		; (str lr, [sp, #-4]!)
  8c:	e3a0c901 	mov	ip, #16384	; 0x4000
  90:	e5d02001 	ldrb	r2, [r0, #1]
  94:	e24dd00c 	sub	sp, sp, #12
  98:	e343cf20 	movt	ip, #16160	; 0x3f20
  9c:	e1a03000 	mov	r3, r0
  a0:	e5cd1006 	strb	r1, [sp, #6]
  a4:	e3a01010 	mov	r1, #16
  a8:	e5cd2004 	strb	r2, [sp, #4]
  ac:	e30029c4 	movw	r2, #2500	; 0x9c4
  b0:	e5cd1005 	strb	r1, [sp, #5]
  b4:	e3a01003 	mov	r1, #3
  b8:	e58c2008 	str	r2, [ip, #8]
  bc:	e28d0004 	add	r0, sp, #4
  c0:	e59c2000 	ldr	r2, [ip]
  c4:	e5d33000 	ldrb	r3, [r3]
  c8:	e3c22003 	bic	r2, r2, #3
  cc:	e0033001 	and	r3, r3, r1
  d0:	e1833002 	orr	r3, r3, r2
  d4:	e58c3000 	str	r3, [ip]
  d8:	ebfffffe 	bl	0 <bcm2835_spi_writenb>
  dc:	e3a00000 	mov	r0, #0
  e0:	e3a01000 	mov	r1, #0
  e4:	ebfffffe 	bl	0 <udelay>
  e8:	e28dd00c 	add	sp, sp, #12
  ec:	e49df004 	pop	{pc}		; (ldr pc, [sp], #4)

Disassembly of section .comment:

00000000 <.comment>:
   0:	43434700 	movtmi	r4, #14080	; 0x3700
   4:	4728203a 			; <UNDEFINED> instruction: 0x4728203a
   8:	2029554e 	eorcs	r5, r9, lr, asr #10
   c:	2e392e34 	mrccs	14, 1, r2, cr9, cr4, {1}
  10:	Address 0x0000000000000010 is out of bounds.


Disassembly of section .ARM.attributes:

00000000 <.ARM.attributes>:
   0:	00003641 	andeq	r3, r0, r1, asr #12
   4:	61656100 	cmnvs	r5, r0, lsl #2
   8:	01006962 	tsteq	r0, r2, ror #18
   c:	0000002c 	andeq	r0, r0, ip, lsr #32
  10:	412d3705 	teqmi	sp, r5, lsl #14
  14:	070a0600 	streq	r0, [sl, -r0, lsl #12]
  18:	09010841 	stmdbeq	r1, {r0, r6, fp}
  1c:	0c050a02 	stceq	10, cr0, [r5], {2}
  20:	14041202 	strne	r1, [r4], #-514	; 0xfffffdfe
  24:	17011501 	strne	r1, [r1, -r1, lsl #10]
  28:	19011803 	stmdbne	r1, {r0, r1, fp, ip}
  2c:	1b011a01 	blne	46838 <bw_spi_7fets_output+0x467b0>
  30:	1e011c03 	cdpne	12, 0, cr1, cr1, cr3, {0}
  34:	Address 0x0000000000000034 is out of bounds.


bw_spi_dimmer.o:     file format elf32-littlearm


Disassembly of section .text:

00000000 <bw_spi_dimmer_start>:
   0:	e92d4010 	push	{r4, lr}
   4:	e1a04000 	mov	r4, r0
   8:	ebfffffe 	bl	0 <bcm2835_spi_begin>
   c:	e5d43001 	ldrb	r3, [r4, #1]
  10:	e3a00000 	mov	r0, #0
  14:	e3530000 	cmp	r3, #0
  18:	03e03061 	mvneq	r3, #97	; 0x61
  1c:	05c43001 	strbeq	r3, [r4, #1]
  20:	e8bd8010 	pop	{r4, pc}

00000024 <bw_spi_dimmer_output>:
  24:	e52de004 	push	{lr}		; (str lr, [sp, #-4]!)
  28:	e3a0c901 	mov	ip, #16384	; 0x4000
  2c:	e5d02001 	ldrb	r2, [r0, #1]
  30:	e24dd00c 	sub	sp, sp, #12
  34:	e343cf20 	movt	ip, #16160	; 0x3f20
  38:	e1a03000 	mov	r3, r0
  3c:	e5cd1006 	strb	r1, [sp, #6]
  40:	e3a01010 	mov	r1, #16
  44:	e5cd2004 	strb	r2, [sp, #4]
  48:	e30029c4 	movw	r2, #2500	; 0x9c4
  4c:	e5cd1005 	strb	r1, [sp, #5]
  50:	e3a01003 	mov	r1, #3
  54:	e58c2008 	str	r2, [ip, #8]
  58:	e28d0004 	add	r0, sp, #4
  5c:	e59c2000 	ldr	r2, [ip]
  60:	e5d33000 	ldrb	r3, [r3]
  64:	e3c22003 	bic	r2, r2, #3
  68:	e0033001 	and	r3, r3, r1
  6c:	e1833002 	orr	r3, r3, r2
  70:	e58c3000 	str	r3, [ip]
  74:	ebfffffe 	bl	0 <bcm2835_spi_writenb>
  78:	e3a00000 	mov	r0, #0
  7c:	e3a01000 	mov	r1, #0
  80:	ebfffffe 	bl	0 <udelay>
  84:	e28dd00c 	add	sp, sp, #12
  88:	e49df004 	pop	{pc}		; (ldr pc, [sp], #4)

0000008c <bw_spi_dimmer_end>:
  8c:	eafffffe 	b	0 <bcm2835_spi_end>

Disassembly of section .comment:

00000000 <.comment>:
   0:	43434700 	movtmi	r4, #14080	; 0x3700
   4:	4728203a 			; <UNDEFINED> instruction: 0x4728203a
   8:	2029554e 	eorcs	r5, r9, lr, asr #10
   c:	2e392e34 	mrccs	14, 1, r2, cr9, cr4, {1}
  10:	Address 0x0000000000000010 is out of bounds.


Disassembly of section .ARM.attributes:

00000000 <.ARM.attributes>:
   0:	00003641 	andeq	r3, r0, r1, asr #12
   4:	61656100 	cmnvs	r5, r0, lsl #2
   8:	01006962 	tsteq	r0, r2, ror #18
   c:	0000002c 	andeq	r0, r0, ip, lsr #32
  10:	412d3705 	teqmi	sp, r5, lsl #14
  14:	070a0600 	streq	r0, [sl, -r0, lsl #12]
  18:	09010841 	stmdbeq	r1, {r0, r6, fp}
  1c:	0c050a02 	stceq	10, cr0, [r5], {2}
  20:	14041202 	strne	r1, [r4], #-514	; 0xfffffdfe
  24:	17011501 	strne	r1, [r1, -r1, lsl #10]
  28:	19011803 	stmdbne	r1, {r0, r1, fp, ip}
  2c:	1b011a01 	blne	46838 <bw_spi_dimmer_end+0x467ac>
  30:	1e011c03 	cdpne	12, 0, cr1, cr1, cr3, {0}
  34:	Address 0x0000000000000034 is out of bounds.


bw_spi_dio.o:     file format elf32-littlearm


Disassembly of section .text:

00000000 <bw_spi_dio_start>:
   0:	e92d4010 	push	{r4, lr}
   4:	e1a04000 	mov	r4, r0
   8:	ebfffffe 	bl	0 <bcm2835_spi_begin>
   c:	e5d43001 	ldrb	r3, [r4, #1]
  10:	e3a00000 	mov	r0, #0
  14:	e3530000 	cmp	r3, #0
  18:	03e0307b 	mvneq	r3, #123	; 0x7b
  1c:	05c43001 	strbeq	r3, [r4, #1]
  20:	e8bd8010 	pop	{r4, pc}

00000024 <bw_spi_dio_end>:
  24:	eafffffe 	b	0 <bcm2835_spi_end>

00000028 <bw_spi_dio_fsel_mask>:
  28:	e52de004 	push	{lr}		; (str lr, [sp, #-4]!)
  2c:	e3a0c901 	mov	ip, #16384	; 0x4000
  30:	e5d02001 	ldrb	r2, [r0, #1]
  34:	e24dd00c 	sub	sp, sp, #12
  38:	e343cf20 	movt	ip, #16160	; 0x3f20
  3c:	e1a03000 	mov	r3, r0
  40:	e5cd1006 	strb	r1, [sp, #6]
  44:	e3a01030 	mov	r1, #48	; 0x30
  48:	e5cd2004 	strb	r2, [sp, #4]
  4c:	e3a02ffa 	mov	r2, #1000	; 0x3e8
  50:	e5cd1005 	strb	r1, [sp, #5]
  54:	e3a01003 	mov	r1, #3
  58:	e58c2008 	str	r2, [ip, #8]
  5c:	e28d0004 	add	r0, sp, #4
  60:	e59c2000 	ldr	r2, [ip]
  64:	e5d33000 	ldrb	r3, [r3]
  68:	e3c22003 	bic	r2, r2, #3
  6c:	e0033001 	and	r3, r3, r1
  70:	e1833002 	orr	r3, r3, r2
  74:	e58c3000 	str	r3, [ip]
  78:	ebfffffe 	bl	0 <bcm2835_spi_writenb>
  7c:	e3a00000 	mov	r0, #0
  80:	e3a01000 	mov	r1, #0
  84:	ebfffffe 	bl	0 <udelay>
  88:	e28dd00c 	add	sp, sp, #12
  8c:	e49df004 	pop	{pc}		; (ldr pc, [sp], #4)

00000090 <bw_spi_dio_output>:
  90:	e52de004 	push	{lr}		; (str lr, [sp, #-4]!)
  94:	e3a0c901 	mov	ip, #16384	; 0x4000
  98:	e5d02001 	ldrb	r2, [r0, #1]
  9c:	e24dd00c 	sub	sp, sp, #12
  a0:	e343cf20 	movt	ip, #16160	; 0x3f20
  a4:	e1a03000 	mov	r3, r0
  a8:	e5cd1006 	strb	r1, [sp, #6]
  ac:	e3a01010 	mov	r1, #16
  b0:	e5cd2004 	strb	r2, [sp, #4]
  b4:	e3a02ffa 	mov	r2, #1000	; 0x3e8
  b8:	e5cd1005 	strb	r1, [sp, #5]
  bc:	e3a01003 	mov	r1, #3
  c0:	e58c2008 	str	r2, [ip, #8]
  c4:	e28d0004 	add	r0, sp, #4
  c8:	e59c2000 	ldr	r2, [ip]
  cc:	e5d33000 	ldrb	r3, [r3]
  d0:	e3c22003 	bic	r2, r2, #3
  d4:	e0033001 	and	r3, r3, r1
  d8:	e1833002 	orr	r3, r3, r2
  dc:	e58c3000 	str	r3, [ip]
  e0:	ebfffffe 	bl	0 <bcm2835_spi_writenb>
  e4:	e3a00000 	mov	r0, #0
  e8:	e3a01000 	mov	r1, #0
  ec:	ebfffffe 	bl	0 <udelay>
  f0:	e28dd00c 	add	sp, sp, #12
  f4:	e49df004 	pop	{pc}		; (ldr pc, [sp], #4)

Disassembly of section .comment:

00000000 <.comment>:
   0:	43434700 	movtmi	r4, #14080	; 0x3700
   4:	4728203a 			; <UNDEFINED> instruction: 0x4728203a
   8:	2029554e 	eorcs	r5, r9, lr, asr #10
   c:	2e392e34 	mrccs	14, 1, r2, cr9, cr4, {1}
  10:	Address 0x0000000000000010 is out of bounds.


Disassembly of section .ARM.attributes:

00000000 <.ARM.attributes>:
   0:	00003641 	andeq	r3, r0, r1, asr #12
   4:	61656100 	cmnvs	r5, r0, lsl #2
   8:	01006962 	tsteq	r0, r2, ror #18
   c:	0000002c 	andeq	r0, r0, ip, lsr #32
  10:	412d3705 	teqmi	sp, r5, lsl #14
  14:	070a0600 	streq	r0, [sl, -r0, lsl #12]
  18:	09010841 	stmdbeq	r1, {r0, r6, fp}
  1c:	0c050a02 	stceq	10, cr0, [r5], {2}
  20:	14041202 	strne	r1, [r4], #-514	; 0xfffffdfe
  24:	17011501 	strne	r1, [r1, -r1, lsl #10]
  28:	19011803 	stmdbne	r1, {r0, r1, fp, ip}
  2c:	1b011a01 	blne	46838 <bw_spi_dio_output+0x467a8>
  30:	1e011c03 	cdpne	12, 0, cr1, cr1, cr3, {0}
  34:	Address 0x0000000000000034 is out of bounds.


bw_spi_lcd.o:     file format elf32-littlearm


Disassembly of section .text:

00000000 <bw_spi_lcd_start>:
   0:	e92d4010 	push	{r4, lr}
   4:	e1a04000 	mov	r4, r0
   8:	ebfffffe 	bl	0 <bcm2835_spi_begin>
   c:	e5d43001 	ldrb	r3, [r4, #1]
  10:	e3a00000 	mov	r0, #0
  14:	e3530000 	cmp	r3, #0
  18:	03e0307d 	mvneq	r3, #125	; 0x7d
  1c:	05c43001 	strbeq	r3, [r4, #1]
  20:	e8bd8010 	pop	{r4, pc}

00000024 <bw_spi_lcd_end>:
  24:	eafffffe 	b	0 <bcm2835_spi_end>

00000028 <bw_spi_lcd_set_cursor>:
  28:	e2011003 	and	r1, r1, #3
  2c:	e3a0c901 	mov	ip, #16384	; 0x4000
  30:	e92d4010 	push	{r4, lr}
  34:	e343cf20 	movt	ip, #16160	; 0x3f20
  38:	e24dd008 	sub	sp, sp, #8
  3c:	e1a03000 	mov	r3, r0
  40:	e5d00001 	ldrb	r0, [r0, #1]
  44:	e202201f 	and	r2, r2, #31
  48:	e300e9c4 	movw	lr, #2500	; 0x9c4
  4c:	e3a04011 	mov	r4, #17
  50:	e1822281 	orr	r2, r2, r1, lsl #5
  54:	e3a01003 	mov	r1, #3
  58:	e5cd0004 	strb	r0, [sp, #4]
  5c:	e28d0004 	add	r0, sp, #4
  60:	e5cd2006 	strb	r2, [sp, #6]
  64:	e5cd4005 	strb	r4, [sp, #5]
  68:	e58ce008 	str	lr, [ip, #8]
  6c:	e59c2000 	ldr	r2, [ip]
  70:	e5d33000 	ldrb	r3, [r3]
  74:	e3c22003 	bic	r2, r2, #3
  78:	e0033001 	and	r3, r3, r1
  7c:	e1833002 	orr	r3, r3, r2
  80:	e58c3000 	str	r3, [ip]
  84:	ebfffffe 	bl	0 <bcm2835_spi_writenb>
  88:	e3a0000a 	mov	r0, #10
  8c:	e3a01000 	mov	r1, #0
  90:	ebfffffe 	bl	0 <udelay>
  94:	e28dd008 	add	sp, sp, #8
  98:	e8bd8010 	pop	{r4, pc}

0000009c <bw_spi_lcd_text>:
  9c:	e3520010 	cmp	r2, #16
  a0:	e3a0c000 	mov	ip, #0
  a4:	23a02010 	movcs	r2, #16
  a8:	e1a03000 	mov	r3, r0
  ac:	e52de004 	push	{lr}		; (str lr, [sp, #-4]!)
  b0:	e24dd01c 	sub	sp, sp, #28
  b4:	e5d00001 	ldrb	r0, [r0, #1]
  b8:	e152000c 	cmp	r2, ip
  bc:	e5cdc005 	strb	ip, [sp, #5]
  c0:	e5cd0004 	strb	r0, [sp, #4]
  c4:	0a00003c 	beq	1bc <bw_spi_lcd_text+0x120>
  c8:	e5d10000 	ldrb	r0, [r1]
  cc:	e3520001 	cmp	r2, #1
  d0:	e5cd0006 	strb	r0, [sp, #6]
  d4:	0a000038 	beq	1bc <bw_spi_lcd_text+0x120>
  d8:	e5d10001 	ldrb	r0, [r1, #1]
  dc:	e3520002 	cmp	r2, #2
  e0:	e5cd0007 	strb	r0, [sp, #7]
  e4:	0a000034 	beq	1bc <bw_spi_lcd_text+0x120>
  e8:	e5d10002 	ldrb	r0, [r1, #2]
  ec:	e3520003 	cmp	r2, #3
  f0:	e5cd0008 	strb	r0, [sp, #8]
  f4:	0a000030 	beq	1bc <bw_spi_lcd_text+0x120>
  f8:	e5d10003 	ldrb	r0, [r1, #3]
  fc:	e3520004 	cmp	r2, #4
 100:	e5cd0009 	strb	r0, [sp, #9]
 104:	0a00002c 	beq	1bc <bw_spi_lcd_text+0x120>
 108:	e5d10004 	ldrb	r0, [r1, #4]
 10c:	e3520005 	cmp	r2, #5
 110:	e5cd000a 	strb	r0, [sp, #10]
 114:	0a000028 	beq	1bc <bw_spi_lcd_text+0x120>
 118:	e5d10005 	ldrb	r0, [r1, #5]
 11c:	e3520006 	cmp	r2, #6
 120:	e5cd000b 	strb	r0, [sp, #11]
 124:	0a000024 	beq	1bc <bw_spi_lcd_text+0x120>
 128:	e5d10006 	ldrb	r0, [r1, #6]
 12c:	e3520007 	cmp	r2, #7
 130:	e5cd000c 	strb	r0, [sp, #12]
 134:	0a000020 	beq	1bc <bw_spi_lcd_text+0x120>
 138:	e5d10007 	ldrb	r0, [r1, #7]
 13c:	e3520008 	cmp	r2, #8
 140:	e5cd000d 	strb	r0, [sp, #13]
 144:	0a00001c 	beq	1bc <bw_spi_lcd_text+0x120>
 148:	e5d10008 	ldrb	r0, [r1, #8]
 14c:	e3520009 	cmp	r2, #9
 150:	e5cd000e 	strb	r0, [sp, #14]
 154:	0a000018 	beq	1bc <bw_spi_lcd_text+0x120>
 158:	e5d10009 	ldrb	r0, [r1, #9]
 15c:	e352000a 	cmp	r2, #10
 160:	e5cd000f 	strb	r0, [sp, #15]
 164:	0a000014 	beq	1bc <bw_spi_lcd_text+0x120>
 168:	e5d1000a 	ldrb	r0, [r1, #10]
 16c:	e352000b 	cmp	r2, #11
 170:	e5cd0010 	strb	r0, [sp, #16]
 174:	0a000010 	beq	1bc <bw_spi_lcd_text+0x120>
 178:	e5d1000b 	ldrb	r0, [r1, #11]
 17c:	e352000c 	cmp	r2, #12
 180:	e5cd0011 	strb	r0, [sp, #17]
 184:	0a00000c 	beq	1bc <bw_spi_lcd_text+0x120>
 188:	e5d1000c 	ldrb	r0, [r1, #12]
 18c:	e352000d 	cmp	r2, #13
 190:	e5cd0012 	strb	r0, [sp, #18]
 194:	0a000008 	beq	1bc <bw_spi_lcd_text+0x120>
 198:	e5d1000d 	ldrb	r0, [r1, #13]
 19c:	e352000e 	cmp	r2, #14
 1a0:	e5cd0013 	strb	r0, [sp, #19]
 1a4:	0a000004 	beq	1bc <bw_spi_lcd_text+0x120>
 1a8:	e5d1000e 	ldrb	r0, [r1, #14]
 1ac:	e3520010 	cmp	r2, #16
 1b0:	e5cd0014 	strb	r0, [sp, #20]
 1b4:	05d1100f 	ldrbeq	r1, [r1, #15]
 1b8:	05cd1015 	strbeq	r1, [sp, #21]
 1bc:	e3a0c901 	mov	ip, #16384	; 0x4000
 1c0:	e30009c4 	movw	r0, #2500	; 0x9c4
 1c4:	e343cf20 	movt	ip, #16160	; 0x3f20
 1c8:	e2821002 	add	r1, r2, #2
 1cc:	e58c0008 	str	r0, [ip, #8]
 1d0:	e28d0004 	add	r0, sp, #4
 1d4:	e5d3e000 	ldrb	lr, [r3]
 1d8:	e59c3000 	ldr	r3, [ip]
 1dc:	e3c32003 	bic	r2, r3, #3
 1e0:	e20e3003 	and	r3, lr, #3
 1e4:	e1833002 	orr	r3, r3, r2
 1e8:	e58c3000 	str	r3, [ip]
 1ec:	ebfffffe 	bl	0 <bcm2835_spi_writenb>
 1f0:	e3a0000a 	mov	r0, #10
 1f4:	e3a01000 	mov	r1, #0
 1f8:	ebfffffe 	bl	0 <udelay>
 1fc:	e28dd01c 	add	sp, sp, #28
 200:	e49df004 	pop	{pc}		; (ldr pc, [sp], #4)

00000204 <bw_spi_lcd_text_line_1>:
 204:	e92d41f0 	push	{r4, r5, r6, r7, r8, lr}
 208:	e24dd018 	sub	sp, sp, #24
 20c:	e5d03001 	ldrb	r3, [r0, #1]
 210:	e28d7018 	add	r7, sp, #24
 214:	e3a0c901 	mov	ip, #16384	; 0x4000
 218:	e1a06000 	mov	r6, r0
 21c:	e5673014 	strb	r3, [r7, #-20]!	; 0xffffffec
 220:	e343cf20 	movt	ip, #16160	; 0x3f20
 224:	e3a03011 	mov	r3, #17
 228:	e3a08000 	mov	r8, #0
 22c:	e5cd3005 	strb	r3, [sp, #5]
 230:	e30039c4 	movw	r3, #2500	; 0x9c4
 234:	e5cd8006 	strb	r8, [sp, #6]
 238:	e1a05001 	mov	r5, r1
 23c:	e58c3008 	str	r3, [ip, #8]
 240:	e3a01003 	mov	r1, #3
 244:	e59c3000 	ldr	r3, [ip]
 248:	e1a00007 	mov	r0, r7
 24c:	e5d6e000 	ldrb	lr, [r6]
 250:	e1a04002 	mov	r4, r2
 254:	e3c33003 	bic	r3, r3, #3
 258:	e00ee001 	and	lr, lr, r1
 25c:	e18e3003 	orr	r3, lr, r3
 260:	e58c3000 	str	r3, [ip]
 264:	ebfffffe 	bl	0 <bcm2835_spi_writenb>
 268:	e3a01000 	mov	r1, #0
 26c:	e3a0000a 	mov	r0, #10
 270:	ebfffffe 	bl	0 <udelay>
 274:	e5d63001 	ldrb	r3, [r6, #1]
 278:	e3540010 	cmp	r4, #16
 27c:	e5cd8005 	strb	r8, [sp, #5]
 280:	31a01004 	movcc	r1, r4
 284:	e5cd3004 	strb	r3, [sp, #4]
 288:	23a01010 	movcs	r1, #16
 28c:	e1510008 	cmp	r1, r8
 290:	0a00003c 	beq	388 <bw_spi_lcd_text_line_1+0x184>
 294:	e5d53000 	ldrb	r3, [r5]
 298:	e3510001 	cmp	r1, #1
 29c:	e5cd3006 	strb	r3, [sp, #6]
 2a0:	0a000038 	beq	388 <bw_spi_lcd_text_line_1+0x184>
 2a4:	e5d53001 	ldrb	r3, [r5, #1]
 2a8:	e3510002 	cmp	r1, #2
 2ac:	e5cd3007 	strb	r3, [sp, #7]
 2b0:	0a000034 	beq	388 <bw_spi_lcd_text_line_1+0x184>
 2b4:	e5d53002 	ldrb	r3, [r5, #2]
 2b8:	e3510003 	cmp	r1, #3
 2bc:	e5cd3008 	strb	r3, [sp, #8]
 2c0:	0a000030 	beq	388 <bw_spi_lcd_text_line_1+0x184>
 2c4:	e5d53003 	ldrb	r3, [r5, #3]
 2c8:	e3510004 	cmp	r1, #4
 2cc:	e5cd3009 	strb	r3, [sp, #9]
 2d0:	0a00002c 	beq	388 <bw_spi_lcd_text_line_1+0x184>
 2d4:	e5d53004 	ldrb	r3, [r5, #4]
 2d8:	e3510005 	cmp	r1, #5
 2dc:	e5cd300a 	strb	r3, [sp, #10]
 2e0:	0a000028 	beq	388 <bw_spi_lcd_text_line_1+0x184>
 2e4:	e5d53005 	ldrb	r3, [r5, #5]
 2e8:	e3510006 	cmp	r1, #6
 2ec:	e5cd300b 	strb	r3, [sp, #11]
 2f0:	0a000024 	beq	388 <bw_spi_lcd_text_line_1+0x184>
 2f4:	e5d53006 	ldrb	r3, [r5, #6]
 2f8:	e3510007 	cmp	r1, #7
 2fc:	e5cd300c 	strb	r3, [sp, #12]
 300:	0a000020 	beq	388 <bw_spi_lcd_text_line_1+0x184>
 304:	e5d53007 	ldrb	r3, [r5, #7]
 308:	e3510008 	cmp	r1, #8
 30c:	e5cd300d 	strb	r3, [sp, #13]
 310:	0a00001c 	beq	388 <bw_spi_lcd_text_line_1+0x184>
 314:	e5d53008 	ldrb	r3, [r5, #8]
 318:	e3510009 	cmp	r1, #9
 31c:	e5cd300e 	strb	r3, [sp, #14]
 320:	0a000018 	beq	388 <bw_spi_lcd_text_line_1+0x184>
 324:	e5d53009 	ldrb	r3, [r5, #9]
 328:	e351000a 	cmp	r1, #10
 32c:	e5cd300f 	strb	r3, [sp, #15]
 330:	0a000014 	beq	388 <bw_spi_lcd_text_line_1+0x184>
 334:	e5d5300a 	ldrb	r3, [r5, #10]
 338:	e351000b 	cmp	r1, #11
 33c:	e5cd3010 	strb	r3, [sp, #16]
 340:	0a000010 	beq	388 <bw_spi_lcd_text_line_1+0x184>
 344:	e5d5300b 	ldrb	r3, [r5, #11]
 348:	e351000c 	cmp	r1, #12
 34c:	e5cd3011 	strb	r3, [sp, #17]
 350:	0a00000c 	beq	388 <bw_spi_lcd_text_line_1+0x184>
 354:	e5d5300c 	ldrb	r3, [r5, #12]
 358:	e351000d 	cmp	r1, #13
 35c:	e5cd3012 	strb	r3, [sp, #18]
 360:	0a000008 	beq	388 <bw_spi_lcd_text_line_1+0x184>
 364:	e5d5300d 	ldrb	r3, [r5, #13]
 368:	e351000e 	cmp	r1, #14
 36c:	e5cd3013 	strb	r3, [sp, #19]
 370:	0a000004 	beq	388 <bw_spi_lcd_text_line_1+0x184>
 374:	e5d5300e 	ldrb	r3, [r5, #14]
 378:	e3510010 	cmp	r1, #16
 37c:	e5cd3014 	strb	r3, [sp, #20]
 380:	05d5300f 	ldrbeq	r3, [r5, #15]
 384:	05cd3015 	strbeq	r3, [sp, #21]
 388:	e3a0c901 	mov	ip, #16384	; 0x4000
 38c:	e30039c4 	movw	r3, #2500	; 0x9c4
 390:	e343cf20 	movt	ip, #16160	; 0x3f20
 394:	e1a00007 	mov	r0, r7
 398:	e2811002 	add	r1, r1, #2
 39c:	e58c3008 	str	r3, [ip, #8]
 3a0:	e59c3000 	ldr	r3, [ip]
 3a4:	e5d6e000 	ldrb	lr, [r6]
 3a8:	e3c32003 	bic	r2, r3, #3
 3ac:	e20e3003 	and	r3, lr, #3
 3b0:	e1833002 	orr	r3, r3, r2
 3b4:	e58c3000 	str	r3, [ip]
 3b8:	ebfffffe 	bl	0 <bcm2835_spi_writenb>
 3bc:	e3a0000a 	mov	r0, #10
 3c0:	e3a01000 	mov	r1, #0
 3c4:	ebfffffe 	bl	0 <udelay>
 3c8:	e28dd018 	add	sp, sp, #24
 3cc:	e8bd81f0 	pop	{r4, r5, r6, r7, r8, pc}

000003d0 <bw_spi_lcd_text_line_2>:
 3d0:	e92d4070 	push	{r4, r5, r6, lr}
 3d4:	e24dd018 	sub	sp, sp, #24
 3d8:	e5d03001 	ldrb	r3, [r0, #1]
 3dc:	e3a0e901 	mov	lr, #16384	; 0x4000
 3e0:	e343ef20 	movt	lr, #16160	; 0x3f20
 3e4:	e1a05001 	mov	r5, r1
 3e8:	e5cd3004 	strb	r3, [sp, #4]
 3ec:	e3a03011 	mov	r3, #17
 3f0:	e5cd3005 	strb	r3, [sp, #5]
 3f4:	e3a03020 	mov	r3, #32
 3f8:	e5cd3006 	strb	r3, [sp, #6]
 3fc:	e30039c4 	movw	r3, #2500	; 0x9c4
 400:	e58e3008 	str	r3, [lr, #8]
 404:	e3a01003 	mov	r1, #3
 408:	e59e3000 	ldr	r3, [lr]
 40c:	e1a06000 	mov	r6, r0
 410:	e5d0c000 	ldrb	ip, [r0]
 414:	e28d0004 	add	r0, sp, #4
 418:	e3c33003 	bic	r3, r3, #3
 41c:	e1a04002 	mov	r4, r2
 420:	e00cc001 	and	ip, ip, r1
 424:	e18c3003 	orr	r3, ip, r3
 428:	e58e3000 	str	r3, [lr]
 42c:	ebfffffe 	bl	0 <bcm2835_spi_writenb>
 430:	e3a01000 	mov	r1, #0
 434:	e3a0000a 	mov	r0, #10
 438:	ebfffffe 	bl	0 <udelay>
 43c:	e5d63001 	ldrb	r3, [r6, #1]
 440:	e3540010 	cmp	r4, #16
 444:	31a01004 	movcc	r1, r4
 448:	23a01010 	movcs	r1, #16
 44c:	e5cd3004 	strb	r3, [sp, #4]
 450:	e3a03000 	mov	r3, #0
 454:	e1510003 	cmp	r1, r3
 458:	e5cd3005 	strb	r3, [sp, #5]
 45c:	0a00003c 	beq	554 <bw_spi_lcd_text_line_2+0x184>
 460:	e5d53000 	ldrb	r3, [r5]
 464:	e3510001 	cmp	r1, #1
 468:	e5cd3006 	strb	r3, [sp, #6]
 46c:	0a000038 	beq	554 <bw_spi_lcd_text_line_2+0x184>
 470:	e5d53001 	ldrb	r3, [r5, #1]
 474:	e3510002 	cmp	r1, #2
 478:	e5cd3007 	strb	r3, [sp, #7]
 47c:	0a000034 	beq	554 <bw_spi_lcd_text_line_2+0x184>
 480:	e5d53002 	ldrb	r3, [r5, #2]
 484:	e3510003 	cmp	r1, #3
 488:	e5cd3008 	strb	r3, [sp, #8]
 48c:	0a000030 	beq	554 <bw_spi_lcd_text_line_2+0x184>
 490:	e5d53003 	ldrb	r3, [r5, #3]
 494:	e3510004 	cmp	r1, #4
 498:	e5cd3009 	strb	r3, [sp, #9]
 49c:	0a00002c 	beq	554 <bw_spi_lcd_text_line_2+0x184>
 4a0:	e5d53004 	ldrb	r3, [r5, #4]
 4a4:	e3510005 	cmp	r1, #5
 4a8:	e5cd300a 	strb	r3, [sp, #10]
 4ac:	0a000028 	beq	554 <bw_spi_lcd_text_line_2+0x184>
 4b0:	e5d53005 	ldrb	r3, [r5, #5]
 4b4:	e3510006 	cmp	r1, #6
 4b8:	e5cd300b 	strb	r3, [sp, #11]
 4bc:	0a000024 	beq	554 <bw_spi_lcd_text_line_2+0x184>
 4c0:	e5d53006 	ldrb	r3, [r5, #6]
 4c4:	e3510007 	cmp	r1, #7
 4c8:	e5cd300c 	strb	r3, [sp, #12]
 4cc:	0a000020 	beq	554 <bw_spi_lcd_text_line_2+0x184>
 4d0:	e5d53007 	ldrb	r3, [r5, #7]
 4d4:	e3510008 	cmp	r1, #8
 4d8:	e5cd300d 	strb	r3, [sp, #13]
 4dc:	0a00001c 	beq	554 <bw_spi_lcd_text_line_2+0x184>
 4e0:	e5d53008 	ldrb	r3, [r5, #8]
 4e4:	e3510009 	cmp	r1, #9
 4e8:	e5cd300e 	strb	r3, [sp, #14]
 4ec:	0a000018 	beq	554 <bw_spi_lcd_text_line_2+0x184>
 4f0:	e5d53009 	ldrb	r3, [r5, #9]
 4f4:	e351000a 	cmp	r1, #10
 4f8:	e5cd300f 	strb	r3, [sp, #15]
 4fc:	0a000014 	beq	554 <bw_spi_lcd_text_line_2+0x184>
 500:	e5d5300a 	ldrb	r3, [r5, #10]
 504:	e351000b 	cmp	r1, #11
 508:	e5cd3010 	strb	r3, [sp, #16]
 50c:	0a000010 	beq	554 <bw_spi_lcd_text_line_2+0x184>
 510:	e5d5300b 	ldrb	r3, [r5, #11]
 514:	e351000c 	cmp	r1, #12
 518:	e5cd3011 	strb	r3, [sp, #17]
 51c:	0a00000c 	beq	554 <bw_spi_lcd_text_line_2+0x184>
 520:	e5d5300c 	ldrb	r3, [r5, #12]
 524:	e351000d 	cmp	r1, #13
 528:	e5cd3012 	strb	r3, [sp, #18]
 52c:	0a000008 	beq	554 <bw_spi_lcd_text_line_2+0x184>
 530:	e5d5300d 	ldrb	r3, [r5, #13]
 534:	e351000e 	cmp	r1, #14
 538:	e5cd3013 	strb	r3, [sp, #19]
 53c:	0a000004 	beq	554 <bw_spi_lcd_text_line_2+0x184>
 540:	e5d5300e 	ldrb	r3, [r5, #14]
 544:	e3510010 	cmp	r1, #16
 548:	e5cd3014 	strb	r3, [sp, #20]
 54c:	05d5300f 	ldrbeq	r3, [r5, #15]
 550:	05cd3015 	strbeq	r3, [sp, #21]
 554:	e3a0c901 	mov	ip, #16384	; 0x4000
 558:	e30039c4 	movw	r3, #2500	; 0x9c4
 55c:	e343cf20 	movt	ip, #16160	; 0x3f20
 560:	e28d0004 	add	r0, sp, #4
 564:	e2811002 	add	r1, r1, #2
 568:	e58c3008 	str	r3, [ip, #8]
 56c:	e59c3000 	ldr	r3, [ip]
 570:	e5d6e000 	ldrb	lr, [r6]
 574:	e3c32003 	bic	r2, r3, #3
 578:	e20e3003 	and	r3, lr, #3
 57c:	e1833002 	orr	r3, r3, r2
 580:	e58c3000 	str	r3, [ip]
 584:	ebfffffe 	bl	0 <bcm2835_spi_writenb>
 588:	e3a0000a 	mov	r0, #10
 58c:	e3a01000 	mov	r1, #0
 590:	ebfffffe 	bl	0 <udelay>
 594:	e28dd018 	add	sp, sp, #24
 598:	e8bd8070 	pop	{r4, r5, r6, pc}

0000059c <bw_spi_lcd_text_line_3>:
 59c:	e92d4070 	push	{r4, r5, r6, lr}
 5a0:	e24dd018 	sub	sp, sp, #24
 5a4:	e5d03001 	ldrb	r3, [r0, #1]
 5a8:	e3a0e901 	mov	lr, #16384	; 0x4000
 5ac:	e343ef20 	movt	lr, #16160	; 0x3f20
 5b0:	e1a05001 	mov	r5, r1
 5b4:	e5cd3004 	strb	r3, [sp, #4]
 5b8:	e3a03011 	mov	r3, #17
 5bc:	e5cd3005 	strb	r3, [sp, #5]
 5c0:	e3a03040 	mov	r3, #64	; 0x40
 5c4:	e5cd3006 	strb	r3, [sp, #6]
 5c8:	e30039c4 	movw	r3, #2500	; 0x9c4
 5cc:	e58e3008 	str	r3, [lr, #8]
 5d0:	e3a01003 	mov	r1, #3
 5d4:	e59e3000 	ldr	r3, [lr]
 5d8:	e1a06000 	mov	r6, r0
 5dc:	e5d0c000 	ldrb	ip, [r0]
 5e0:	e28d0004 	add	r0, sp, #4
 5e4:	e3c33003 	bic	r3, r3, #3
 5e8:	e1a04002 	mov	r4, r2
 5ec:	e00cc001 	and	ip, ip, r1
 5f0:	e18c3003 	orr	r3, ip, r3
 5f4:	e58e3000 	str	r3, [lr]
 5f8:	ebfffffe 	bl	0 <bcm2835_spi_writenb>
 5fc:	e3a01000 	mov	r1, #0
 600:	e3a0000a 	mov	r0, #10
 604:	ebfffffe 	bl	0 <udelay>
 608:	e5d63001 	ldrb	r3, [r6, #1]
 60c:	e3540010 	cmp	r4, #16
 610:	31a01004 	movcc	r1, r4
 614:	23a01010 	movcs	r1, #16
 618:	e5cd3004 	strb	r3, [sp, #4]
 61c:	e3a03000 	mov	r3, #0
 620:	e1510003 	cmp	r1, r3
 624:	e5cd3005 	strb	r3, [sp, #5]
 628:	0a00003c 	beq	720 <bw_spi_lcd_text_line_3+0x184>
 62c:	e5d53000 	ldrb	r3, [r5]
 630:	e3510001 	cmp	r1, #1
 634:	e5cd3006 	strb	r3, [sp, #6]
 638:	0a000038 	beq	720 <bw_spi_lcd_text_line_3+0x184>
 63c:	e5d53001 	ldrb	r3, [r5, #1]
 640:	e3510002 	cmp	r1, #2
 644:	e5cd3007 	strb	r3, [sp, #7]
 648:	0a000034 	beq	720 <bw_spi_lcd_text_line_3+0x184>
 64c:	e5d53002 	ldrb	r3, [r5, #2]
 650:	e3510003 	cmp	r1, #3
 654:	e5cd3008 	strb	r3, [sp, #8]
 658:	0a000030 	beq	720 <bw_spi_lcd_text_line_3+0x184>
 65c:	e5d53003 	ldrb	r3, [r5, #3]
 660:	e3510004 	cmp	r1, #4
 664:	e5cd3009 	strb	r3, [sp, #9]
 668:	0a00002c 	beq	720 <bw_spi_lcd_text_line_3+0x184>
 66c:	e5d53004 	ldrb	r3, [r5, #4]
 670:	e3510005 	cmp	r1, #5
 674:	e5cd300a 	strb	r3, [sp, #10]
 678:	0a000028 	beq	720 <bw_spi_lcd_text_line_3+0x184>
 67c:	e5d53005 	ldrb	r3, [r5, #5]
 680:	e3510006 	cmp	r1, #6
 684:	e5cd300b 	strb	r3, [sp, #11]
 688:	0a000024 	beq	720 <bw_spi_lcd_text_line_3+0x184>
 68c:	e5d53006 	ldrb	r3, [r5, #6]
 690:	e3510007 	cmp	r1, #7
 694:	e5cd300c 	strb	r3, [sp, #12]
 698:	0a000020 	beq	720 <bw_spi_lcd_text_line_3+0x184>
 69c:	e5d53007 	ldrb	r3, [r5, #7]
 6a0:	e3510008 	cmp	r1, #8
 6a4:	e5cd300d 	strb	r3, [sp, #13]
 6a8:	0a00001c 	beq	720 <bw_spi_lcd_text_line_3+0x184>
 6ac:	e5d53008 	ldrb	r3, [r5, #8]
 6b0:	e3510009 	cmp	r1, #9
 6b4:	e5cd300e 	strb	r3, [sp, #14]
 6b8:	0a000018 	beq	720 <bw_spi_lcd_text_line_3+0x184>
 6bc:	e5d53009 	ldrb	r3, [r5, #9]
 6c0:	e351000a 	cmp	r1, #10
 6c4:	e5cd300f 	strb	r3, [sp, #15]
 6c8:	0a000014 	beq	720 <bw_spi_lcd_text_line_3+0x184>
 6cc:	e5d5300a 	ldrb	r3, [r5, #10]
 6d0:	e351000b 	cmp	r1, #11
 6d4:	e5cd3010 	strb	r3, [sp, #16]
 6d8:	0a000010 	beq	720 <bw_spi_lcd_text_line_3+0x184>
 6dc:	e5d5300b 	ldrb	r3, [r5, #11]
 6e0:	e351000c 	cmp	r1, #12
 6e4:	e5cd3011 	strb	r3, [sp, #17]
 6e8:	0a00000c 	beq	720 <bw_spi_lcd_text_line_3+0x184>
 6ec:	e5d5300c 	ldrb	r3, [r5, #12]
 6f0:	e351000d 	cmp	r1, #13
 6f4:	e5cd3012 	strb	r3, [sp, #18]
 6f8:	0a000008 	beq	720 <bw_spi_lcd_text_line_3+0x184>
 6fc:	e5d5300d 	ldrb	r3, [r5, #13]
 700:	e351000e 	cmp	r1, #14
 704:	e5cd3013 	strb	r3, [sp, #19]
 708:	0a000004 	beq	720 <bw_spi_lcd_text_line_3+0x184>
 70c:	e5d5300e 	ldrb	r3, [r5, #14]
 710:	e3510010 	cmp	r1, #16
 714:	e5cd3014 	strb	r3, [sp, #20]
 718:	05d5300f 	ldrbeq	r3, [r5, #15]
 71c:	05cd3015 	strbeq	r3, [sp, #21]
 720:	e3a0c901 	mov	ip, #16384	; 0x4000
 724:	e30039c4 	movw	r3, #2500	; 0x9c4
 728:	e343cf20 	movt	ip, #16160	; 0x3f20
 72c:	e28d0004 	add	r0, sp, #4
 730:	e2811002 	add	r1, r1, #2
 734:	e58c3008 	str	r3, [ip, #8]
 738:	e59c3000 	ldr	r3, [ip]
 73c:	e5d6e000 	ldrb	lr, [r6]
 740:	e3c32003 	bic	r2, r3, #3
 744:	e20e3003 	and	r3, lr, #3
 748:	e1833002 	orr	r3, r3, r2
 74c:	e58c3000 	str	r3, [ip]
 750:	ebfffffe 	bl	0 <bcm2835_spi_writenb>
 754:	e3a0000a 	mov	r0, #10
 758:	e3a01000 	mov	r1, #0
 75c:	ebfffffe 	bl	0 <udelay>
 760:	e28dd018 	add	sp, sp, #24
 764:	e8bd8070 	pop	{r4, r5, r6, pc}

00000768 <bw_spi_lcd_text_line_4>:
 768:	e92d4070 	push	{r4, r5, r6, lr}
 76c:	e24dd018 	sub	sp, sp, #24
 770:	e5d03001 	ldrb	r3, [r0, #1]
 774:	e3a0e901 	mov	lr, #16384	; 0x4000
 778:	e343ef20 	movt	lr, #16160	; 0x3f20
 77c:	e1a05001 	mov	r5, r1
 780:	e5cd3004 	strb	r3, [sp, #4]
 784:	e3a03011 	mov	r3, #17
 788:	e5cd3005 	strb	r3, [sp, #5]
 78c:	e3a03060 	mov	r3, #96	; 0x60
 790:	e5cd3006 	strb	r3, [sp, #6]
 794:	e30039c4 	movw	r3, #2500	; 0x9c4
 798:	e58e3008 	str	r3, [lr, #8]
 79c:	e3a01003 	mov	r1, #3
 7a0:	e59e3000 	ldr	r3, [lr]
 7a4:	e1a06000 	mov	r6, r0
 7a8:	e5d0c000 	ldrb	ip, [r0]
 7ac:	e28d0004 	add	r0, sp, #4
 7b0:	e3c33003 	bic	r3, r3, #3
 7b4:	e1a04002 	mov	r4, r2
 7b8:	e00cc001 	and	ip, ip, r1
 7bc:	e18c3003 	orr	r3, ip, r3
 7c0:	e58e3000 	str	r3, [lr]
 7c4:	ebfffffe 	bl	0 <bcm2835_spi_writenb>
 7c8:	e3a01000 	mov	r1, #0
 7cc:	e3a0000a 	mov	r0, #10
 7d0:	ebfffffe 	bl	0 <udelay>
 7d4:	e5d63001 	ldrb	r3, [r6, #1]
 7d8:	e3540010 	cmp	r4, #16
 7dc:	31a01004 	movcc	r1, r4
 7e0:	23a01010 	movcs	r1, #16
 7e4:	e5cd3004 	strb	r3, [sp, #4]
 7e8:	e3a03000 	mov	r3, #0
 7ec:	e1510003 	cmp	r1, r3
 7f0:	e5cd3005 	strb	r3, [sp, #5]
 7f4:	0a00003c 	beq	8ec <bw_spi_lcd_text_line_4+0x184>
 7f8:	e5d53000 	ldrb	r3, [r5]
 7fc:	e3510001 	cmp	r1, #1
 800:	e5cd3006 	strb	r3, [sp, #6]
 804:	0a000038 	beq	8ec <bw_spi_lcd_text_line_4+0x184>
 808:	e5d53001 	ldrb	r3, [r5, #1]
 80c:	e3510002 	cmp	r1, #2
 810:	e5cd3007 	strb	r3, [sp, #7]
 814:	0a000034 	beq	8ec <bw_spi_lcd_text_line_4+0x184>
 818:	e5d53002 	ldrb	r3, [r5, #2]
 81c:	e3510003 	cmp	r1, #3
 820:	e5cd3008 	strb	r3, [sp, #8]
 824:	0a000030 	beq	8ec <bw_spi_lcd_text_line_4+0x184>
 828:	e5d53003 	ldrb	r3, [r5, #3]
 82c:	e3510004 	cmp	r1, #4
 830:	e5cd3009 	strb	r3, [sp, #9]
 834:	0a00002c 	beq	8ec <bw_spi_lcd_text_line_4+0x184>
 838:	e5d53004 	ldrb	r3, [r5, #4]
 83c:	e3510005 	cmp	r1, #5
 840:	e5cd300a 	strb	r3, [sp, #10]
 844:	0a000028 	beq	8ec <bw_spi_lcd_text_line_4+0x184>
 848:	e5d53005 	ldrb	r3, [r5, #5]
 84c:	e3510006 	cmp	r1, #6
 850:	e5cd300b 	strb	r3, [sp, #11]
 854:	0a000024 	beq	8ec <bw_spi_lcd_text_line_4+0x184>
 858:	e5d53006 	ldrb	r3, [r5, #6]
 85c:	e3510007 	cmp	r1, #7
 860:	e5cd300c 	strb	r3, [sp, #12]
 864:	0a000020 	beq	8ec <bw_spi_lcd_text_line_4+0x184>
 868:	e5d53007 	ldrb	r3, [r5, #7]
 86c:	e3510008 	cmp	r1, #8
 870:	e5cd300d 	strb	r3, [sp, #13]
 874:	0a00001c 	beq	8ec <bw_spi_lcd_text_line_4+0x184>
 878:	e5d53008 	ldrb	r3, [r5, #8]
 87c:	e3510009 	cmp	r1, #9
 880:	e5cd300e 	strb	r3, [sp, #14]
 884:	0a000018 	beq	8ec <bw_spi_lcd_text_line_4+0x184>
 888:	e5d53009 	ldrb	r3, [r5, #9]
 88c:	e351000a 	cmp	r1, #10
 890:	e5cd300f 	strb	r3, [sp, #15]
 894:	0a000014 	beq	8ec <bw_spi_lcd_text_line_4+0x184>
 898:	e5d5300a 	ldrb	r3, [r5, #10]
 89c:	e351000b 	cmp	r1, #11
 8a0:	e5cd3010 	strb	r3, [sp, #16]
 8a4:	0a000010 	beq	8ec <bw_spi_lcd_text_line_4+0x184>
 8a8:	e5d5300b 	ldrb	r3, [r5, #11]
 8ac:	e351000c 	cmp	r1, #12
 8b0:	e5cd3011 	strb	r3, [sp, #17]
 8b4:	0a00000c 	beq	8ec <bw_spi_lcd_text_line_4+0x184>
 8b8:	e5d5300c 	ldrb	r3, [r5, #12]
 8bc:	e351000d 	cmp	r1, #13
 8c0:	e5cd3012 	strb	r3, [sp, #18]
 8c4:	0a000008 	beq	8ec <bw_spi_lcd_text_line_4+0x184>
 8c8:	e5d5300d 	ldrb	r3, [r5, #13]
 8cc:	e351000e 	cmp	r1, #14
 8d0:	e5cd3013 	strb	r3, [sp, #19]
 8d4:	0a000004 	beq	8ec <bw_spi_lcd_text_line_4+0x184>
 8d8:	e5d5300e 	ldrb	r3, [r5, #14]
 8dc:	e3510010 	cmp	r1, #16
 8e0:	e5cd3014 	strb	r3, [sp, #20]
 8e4:	05d5300f 	ldrbeq	r3, [r5, #15]
 8e8:	05cd3015 	strbeq	r3, [sp, #21]
 8ec:	e3a0c901 	mov	ip, #16384	; 0x4000
 8f0:	e30039c4 	movw	r3, #2500	; 0x9c4
 8f4:	e343cf20 	movt	ip, #16160	; 0x3f20
 8f8:	e28d0004 	add	r0, sp, #4
 8fc:	e2811002 	add	r1, r1, #2
 900:	e58c3008 	str	r3, [ip, #8]
 904:	e59c3000 	ldr	r3, [ip]
 908:	e5d6e000 	ldrb	lr, [r6]
 90c:	e3c32003 	bic	r2, r3, #3
 910:	e20e3003 	and	r3, lr, #3
 914:	e1833002 	orr	r3, r3, r2
 918:	e58c3000 	str	r3, [ip]
 91c:	ebfffffe 	bl	0 <bcm2835_spi_writenb>
 920:	e3a0000a 	mov	r0, #10
 924:	e3a01000 	mov	r1, #0
 928:	ebfffffe 	bl	0 <udelay>
 92c:	e28dd018 	add	sp, sp, #24
 930:	e8bd8070 	pop	{r4, r5, r6, pc}

00000934 <bw_spi_lcd_cls>:
 934:	e3003000 	movw	r3, #0
 938:	e1a02000 	mov	r2, r0
 93c:	e3403000 	movt	r3, #0
 940:	e3a0c901 	mov	ip, #16384	; 0x4000
 944:	e52de004 	push	{lr}		; (str lr, [sp, #-4]!)
 948:	e24dd00c 	sub	sp, sp, #12
 94c:	e5d01001 	ldrb	r1, [r0, #1]
 950:	e343cf20 	movt	ip, #16160	; 0x3f20
 954:	e1d300b0 	ldrh	r0, [r3]
 958:	e5d33002 	ldrb	r3, [r3, #2]
 95c:	e1cd00b4 	strh	r0, [sp, #4]
 960:	e28d0004 	add	r0, sp, #4
 964:	e5cd3006 	strb	r3, [sp, #6]
 968:	e30039c4 	movw	r3, #2500	; 0x9c4
 96c:	e5cd1004 	strb	r1, [sp, #4]
 970:	e3a01003 	mov	r1, #3
 974:	e58c3008 	str	r3, [ip, #8]
 978:	e5d23000 	ldrb	r3, [r2]
 97c:	e59c2000 	ldr	r2, [ip]
 980:	e0033001 	and	r3, r3, r1
 984:	e3c22003 	bic	r2, r2, #3
 988:	e1833002 	orr	r3, r3, r2
 98c:	e58c3000 	str	r3, [ip]
 990:	ebfffffe 	bl	0 <bcm2835_spi_writenb>
 994:	e3a0000a 	mov	r0, #10
 998:	e3a01000 	mov	r1, #0
 99c:	ebfffffe 	bl	0 <udelay>
 9a0:	e28dd00c 	add	sp, sp, #12
 9a4:	e49df004 	pop	{pc}		; (ldr pc, [sp], #4)

000009a8 <bw_spi_lcd_set_contrast>:
 9a8:	e52de004 	push	{lr}		; (str lr, [sp, #-4]!)
 9ac:	e24dd00c 	sub	sp, sp, #12
 9b0:	e5d03001 	ldrb	r3, [r0, #1]
 9b4:	e3a02012 	mov	r2, #18
 9b8:	e5cd1006 	strb	r1, [sp, #6]
 9bc:	e3a01901 	mov	r1, #16384	; 0x4000
 9c0:	e5cd3004 	strb	r3, [sp, #4]
 9c4:	e3431f20 	movt	r1, #16160	; 0x3f20
 9c8:	e5cd2005 	strb	r2, [sp, #5]
 9cc:	e30039c4 	movw	r3, #2500	; 0x9c4
 9d0:	e5813008 	str	r3, [r1, #8]
 9d4:	e5d03000 	ldrb	r3, [r0]
 9d8:	e3a0000a 	mov	r0, #10
 9dc:	e5912000 	ldr	r2, [r1]
 9e0:	e2033003 	and	r3, r3, #3
 9e4:	e3c22003 	bic	r2, r2, #3
 9e8:	e1833002 	orr	r3, r3, r2
 9ec:	e5813000 	str	r3, [r1]
 9f0:	e3a01000 	mov	r1, #0
 9f4:	ebfffffe 	bl	0 <udelay>
 9f8:	e28d0004 	add	r0, sp, #4
 9fc:	e3a01003 	mov	r1, #3
 a00:	ebfffffe 	bl	0 <bcm2835_spi_writenb>
 a04:	e28dd00c 	add	sp, sp, #12
 a08:	e49df004 	pop	{pc}		; (ldr pc, [sp], #4)

00000a0c <bw_spi_lcd_set_backlight>:
 a0c:	e52de004 	push	{lr}		; (str lr, [sp, #-4]!)
 a10:	e3a0c901 	mov	ip, #16384	; 0x4000
 a14:	e5d02001 	ldrb	r2, [r0, #1]
 a18:	e24dd00c 	sub	sp, sp, #12
 a1c:	e343cf20 	movt	ip, #16160	; 0x3f20
 a20:	e1a03000 	mov	r3, r0
 a24:	e5cd1006 	strb	r1, [sp, #6]
 a28:	e3a01017 	mov	r1, #23
 a2c:	e5cd2004 	strb	r2, [sp, #4]
 a30:	e30029c4 	movw	r2, #2500	; 0x9c4
 a34:	e5cd1005 	strb	r1, [sp, #5]
 a38:	e3a01003 	mov	r1, #3
 a3c:	e58c2008 	str	r2, [ip, #8]
 a40:	e28d0004 	add	r0, sp, #4
 a44:	e59c2000 	ldr	r2, [ip]
 a48:	e5d33000 	ldrb	r3, [r3]
 a4c:	e3c22003 	bic	r2, r2, #3
 a50:	e0033001 	and	r3, r3, r1
 a54:	e1833002 	orr	r3, r3, r2
 a58:	e58c3000 	str	r3, [ip]
 a5c:	ebfffffe 	bl	0 <bcm2835_spi_writenb>
 a60:	e3a0000a 	mov	r0, #10
 a64:	e3a01000 	mov	r1, #0
 a68:	ebfffffe 	bl	0 <udelay>
 a6c:	e28dd00c 	add	sp, sp, #12
 a70:	e49df004 	pop	{pc}		; (ldr pc, [sp], #4)

00000a74 <bw_spi_lcd_reinit>:
 a74:	e3003000 	movw	r3, #0
 a78:	e3a01901 	mov	r1, #16384	; 0x4000
 a7c:	e3403000 	movt	r3, #0
 a80:	e3431f20 	movt	r1, #16160	; 0x3f20
 a84:	e52de004 	push	{lr}		; (str lr, [sp, #-4]!)
 a88:	e24dd00c 	sub	sp, sp, #12
 a8c:	e1f3c0b4 	ldrh	ip, [r3, #4]!
 a90:	e5d02001 	ldrb	r2, [r0, #1]
 a94:	e5d33002 	ldrb	r3, [r3, #2]
 a98:	e1cdc0b4 	strh	ip, [sp, #4]
 a9c:	e5cd3006 	strb	r3, [sp, #6]
 aa0:	e30039c4 	movw	r3, #2500	; 0x9c4
 aa4:	e5cd2004 	strb	r2, [sp, #4]
 aa8:	e5813008 	str	r3, [r1, #8]
 aac:	e5d03000 	ldrb	r3, [r0]
 ab0:	e3a0000a 	mov	r0, #10
 ab4:	e5912000 	ldr	r2, [r1]
 ab8:	e2033003 	and	r3, r3, #3
 abc:	e3c22003 	bic	r2, r2, #3
 ac0:	e1833002 	orr	r3, r3, r2
 ac4:	e5813000 	str	r3, [r1]
 ac8:	e3a01000 	mov	r1, #0
 acc:	ebfffffe 	bl	0 <udelay>
 ad0:	e28d0004 	add	r0, sp, #4
 ad4:	e3a01003 	mov	r1, #3
 ad8:	ebfffffe 	bl	0 <bcm2835_spi_writenb>
 adc:	e3040240 	movw	r0, #16960	; 0x4240
 ae0:	e3a01000 	mov	r1, #0
 ae4:	e340000f 	movt	r0, #15
 ae8:	ebfffffe 	bl	0 <udelay>
 aec:	e28dd00c 	add	sp, sp, #12
 af0:	e49df004 	pop	{pc}		; (ldr pc, [sp], #4)

00000af4 <bw_spi_lcd_get_backlight>:
 af4:	e92d4010 	push	{r4, lr}
 af8:	e24dd008 	sub	sp, sp, #8
 afc:	e5d03001 	ldrb	r3, [r0, #1]
 b00:	e28d2008 	add	r2, sp, #8
 b04:	e3a0c901 	mov	ip, #16384	; 0x4000
 b08:	e3a0e013 	mov	lr, #19
 b0c:	e5cde005 	strb	lr, [sp, #5]
 b10:	e3833001 	orr	r3, r3, #1
 b14:	e5623004 	strb	r3, [r2, #-4]!
 b18:	e343cf20 	movt	ip, #16160	; 0x3f20
 b1c:	e3a03000 	mov	r3, #0
 b20:	e1a04001 	mov	r4, r1
 b24:	e5cd3006 	strb	r3, [sp, #6]
 b28:	e30039c4 	movw	r3, #2500	; 0x9c4
 b2c:	e58c3008 	str	r3, [ip, #8]
 b30:	e3a01003 	mov	r1, #3
 b34:	e5d03000 	ldrb	r3, [r0]
 b38:	e1a00002 	mov	r0, r2
 b3c:	e59c2000 	ldr	r2, [ip]
 b40:	e0033001 	and	r3, r3, r1
 b44:	e3c22003 	bic	r2, r2, #3
 b48:	e1833002 	orr	r3, r3, r2
 b4c:	e58c3000 	str	r3, [ip]
 b50:	ebfffffe 	bl	0 <bcm2835_spi_transfern>
 b54:	e3a0000a 	mov	r0, #10
 b58:	e3a01000 	mov	r1, #0
 b5c:	ebfffffe 	bl	0 <udelay>
 b60:	e5dd3006 	ldrb	r3, [sp, #6]
 b64:	e5c43000 	strb	r3, [r4]
 b68:	e28dd008 	add	sp, sp, #8
 b6c:	e8bd8010 	pop	{r4, pc}

00000b70 <bw_spi_lcd_get_contrast>:
 b70:	e92d4010 	push	{r4, lr}
 b74:	e24dd008 	sub	sp, sp, #8
 b78:	e5d03001 	ldrb	r3, [r0, #1]
 b7c:	e28d2008 	add	r2, sp, #8
 b80:	e3a0c901 	mov	ip, #16384	; 0x4000
 b84:	e3a0e012 	mov	lr, #18
 b88:	e5cde005 	strb	lr, [sp, #5]
 b8c:	e3833001 	orr	r3, r3, #1
 b90:	e5623004 	strb	r3, [r2, #-4]!
 b94:	e343cf20 	movt	ip, #16160	; 0x3f20
 b98:	e3a03000 	mov	r3, #0
 b9c:	e1a04001 	mov	r4, r1
 ba0:	e5cd3006 	strb	r3, [sp, #6]
 ba4:	e30039c4 	movw	r3, #2500	; 0x9c4
 ba8:	e58c3008 	str	r3, [ip, #8]
 bac:	e3a01003 	mov	r1, #3
 bb0:	e5d03000 	ldrb	r3, [r0]
 bb4:	e1a00002 	mov	r0, r2
 bb8:	e59c2000 	ldr	r2, [ip]
 bbc:	e0033001 	and	r3, r3, r1
 bc0:	e3c22003 	bic	r2, r2, #3
 bc4:	e1833002 	orr	r3, r3, r2
 bc8:	e58c3000 	str	r3, [ip]
 bcc:	ebfffffe 	bl	0 <bcm2835_spi_transfern>
 bd0:	e3a0000a 	mov	r0, #10
 bd4:	e3a01000 	mov	r1, #0
 bd8:	ebfffffe 	bl	0 <udelay>
 bdc:	e5dd3006 	ldrb	r3, [sp, #6]
 be0:	e5c43000 	strb	r3, [r4]
 be4:	e28dd008 	add	sp, sp, #8
 be8:	e8bd8010 	pop	{r4, pc}

Disassembly of section .rodata:

00000000 <.LANCHOR0>:
   0:	00201000 	eoreq	r1, r0, r0
   4:	00201400 	eoreq	r1, r0, r0, lsl #8

Disassembly of section .comment:

00000000 <.comment>:
   0:	43434700 	movtmi	r4, #14080	; 0x3700
   4:	4728203a 			; <UNDEFINED> instruction: 0x4728203a
   8:	2029554e 	eorcs	r5, r9, lr, asr #10
   c:	2e392e34 	mrccs	14, 1, r2, cr9, cr4, {1}
  10:	Address 0x0000000000000010 is out of bounds.


Disassembly of section .ARM.attributes:

00000000 <.ARM.attributes>:
   0:	00003641 	andeq	r3, r0, r1, asr #12
   4:	61656100 	cmnvs	r5, r0, lsl #2
   8:	01006962 	tsteq	r0, r2, ror #18
   c:	0000002c 	andeq	r0, r0, ip, lsr #32
  10:	412d3705 	teqmi	sp, r5, lsl #14
  14:	070a0600 	streq	r0, [sl, -r0, lsl #12]
  18:	09010841 	stmdbeq	r1, {r0, r6, fp}
  1c:	0c050a02 	stceq	10, cr0, [r5], {2}
  20:	14041202 	strne	r1, [r4], #-514	; 0xfffffdfe
  24:	17011501 	strne	r1, [r1, -r1, lsl #10]
  28:	19011803 	stmdbne	r1, {r0, r1, fp, ip}
  2c:	1b011a01 	blne	46838 <bw_spi_lcd_get_contrast+0x45cc8>
  30:	1e011c03 	cdpne	12, 0, cr1, cr1, cr3, {0}
  34:	Address 0x0000000000000034 is out of bounds.


bw_spi_relay.o:     file format elf32-littlearm


Disassembly of section .text:

00000000 <bw_spi_relay_start>:
   0:	e92d4010 	push	{r4, lr}
   4:	e1a04000 	mov	r4, r0
   8:	e24dd008 	sub	sp, sp, #8
   c:	ebfffffe 	bl	0 <bcm2835_spi_begin>
  10:	e5d43001 	ldrb	r3, [r4, #1]
  14:	e3a0c901 	mov	ip, #16384	; 0x4000
  18:	e343cf20 	movt	ip, #16160	; 0x3f20
  1c:	e3a01003 	mov	r1, #3
  20:	e3530000 	cmp	r3, #0
  24:	e28d0004 	add	r0, sp, #4
  28:	03a0308e 	moveq	r3, #142	; 0x8e
  2c:	03e02071 	mvneq	r2, #113	; 0x71
  30:	e5cd3004 	strb	r3, [sp, #4]
  34:	e3a03030 	mov	r3, #48	; 0x30
  38:	e5cd3005 	strb	r3, [sp, #5]
  3c:	e3a0307f 	mov	r3, #127	; 0x7f
  40:	e5cd3006 	strb	r3, [sp, #6]
  44:	e30039c4 	movw	r3, #2500	; 0x9c4
  48:	05c42001 	strbeq	r2, [r4, #1]
  4c:	e58c3008 	str	r3, [ip, #8]
  50:	e59c2000 	ldr	r2, [ip]
  54:	e5d43000 	ldrb	r3, [r4]
  58:	e3c22003 	bic	r2, r2, #3
  5c:	e0033001 	and	r3, r3, r1
  60:	e1833002 	orr	r3, r3, r2
  64:	e58c3000 	str	r3, [ip]
  68:	ebfffffe 	bl	0 <bcm2835_spi_writenb>
  6c:	e3a00000 	mov	r0, #0
  70:	e3a01000 	mov	r1, #0
  74:	ebfffffe 	bl	0 <udelay>
  78:	e3a00000 	mov	r0, #0
  7c:	e28dd008 	add	sp, sp, #8
  80:	e8bd8010 	pop	{r4, pc}

00000084 <bw_spi_relay_end>:
  84:	eafffffe 	b	0 <bcm2835_spi_end>

00000088 <bw_spi_relay_output>:
  88:	e52de004 	push	{lr}		; (str lr, [sp, #-4]!)
  8c:	e3a0c901 	mov	ip, #16384	; 0x4000
  90:	e5d02001 	ldrb	r2, [r0, #1]
  94:	e24dd00c 	sub	sp, sp, #12
  98:	e343cf20 	movt	ip, #16160	; 0x3f20
  9c:	e1a03000 	mov	r3, r0
  a0:	e5cd1006 	strb	r1, [sp, #6]
  a4:	e3a01010 	mov	r1, #16
  a8:	e5cd2004 	strb	r2, [sp, #4]
  ac:	e30029c4 	movw	r2, #2500	; 0x9c4
  b0:	e5cd1005 	strb	r1, [sp, #5]
  b4:	e3a01003 	mov	r1, #3
  b8:	e58c2008 	str	r2, [ip, #8]
  bc:	e28d0004 	add	r0, sp, #4
  c0:	e59c2000 	ldr	r2, [ip]
  c4:	e5d33000 	ldrb	r3, [r3]
  c8:	e3c22003 	bic	r2, r2, #3
  cc:	e0033001 	and	r3, r3, r1
  d0:	e1833002 	orr	r3, r3, r2
  d4:	e58c3000 	str	r3, [ip]
  d8:	ebfffffe 	bl	0 <bcm2835_spi_writenb>
  dc:	e3a00000 	mov	r0, #0
  e0:	e3a01000 	mov	r1, #0
  e4:	ebfffffe 	bl	0 <udelay>
  e8:	e28dd00c 	add	sp, sp, #12
  ec:	e49df004 	pop	{pc}		; (ldr pc, [sp], #4)

Disassembly of section .comment:

00000000 <.comment>:
   0:	43434700 	movtmi	r4, #14080	; 0x3700
   4:	4728203a 			; <UNDEFINED> instruction: 0x4728203a
   8:	2029554e 	eorcs	r5, r9, lr, asr #10
   c:	2e392e34 	mrccs	14, 1, r2, cr9, cr4, {1}
  10:	Address 0x0000000000000010 is out of bounds.


Disassembly of section .ARM.attributes:

00000000 <.ARM.attributes>:
   0:	00003641 	andeq	r3, r0, r1, asr #12
   4:	61656100 	cmnvs	r5, r0, lsl #2
   8:	01006962 	tsteq	r0, r2, ror #18
   c:	0000002c 	andeq	r0, r0, ip, lsr #32
  10:	412d3705 	teqmi	sp, r5, lsl #14
  14:	070a0600 	streq	r0, [sl, -r0, lsl #12]
  18:	09010841 	stmdbeq	r1, {r0, r6, fp}
  1c:	0c050a02 	stceq	10, cr0, [r5], {2}
  20:	14041202 	strne	r1, [r4], #-514	; 0xfffffdfe
  24:	17011501 	strne	r1, [r1, -r1, lsl #10]
  28:	19011803 	stmdbne	r1, {r0, r1, fp, ip}
  2c:	1b011a01 	blne	46838 <bw_spi_relay_output+0x467b0>
  30:	1e011c03 	cdpne	12, 0, cr1, cr1, cr3, {0}
  34:	Address 0x0000000000000034 is out of bounds.


mcp23s08.o:     file format elf32-littlearm


Disassembly of section .text:

00000000 <mcp23s08_start>:
   0:	e92d4010 	push	{r4, lr}
   4:	e1a04000 	mov	r4, r0
   8:	e24dd008 	sub	sp, sp, #8
   c:	ebfffffe 	bl	0 <bcm2835_spi_begin>
  10:	e5d43001 	ldrb	r3, [r4, #1]
  14:	e3a0c901 	mov	ip, #16384	; 0x4000
  18:	e343cf20 	movt	ip, #16160	; 0x3f20
  1c:	e3a01003 	mov	r1, #3
  20:	e3530000 	cmp	r3, #0
  24:	e28d0004 	add	r0, sp, #4
  28:	12033003 	andne	r3, r3, #3
  2c:	03a02040 	moveq	r2, #64	; 0x40
  30:	e5c43001 	strb	r3, [r4, #1]
  34:	11a02083 	lslne	r2, r3, #1
  38:	e3a03005 	mov	r3, #5
  3c:	e5cd3005 	strb	r3, [sp, #5]
  40:	13822040 	orrne	r2, r2, #64	; 0x40
  44:	e5cd2004 	strb	r2, [sp, #4]
  48:	e3a03080 	mov	r3, #128	; 0x80
  4c:	e3a02008 	mov	r2, #8
  50:	e5cd2006 	strb	r2, [sp, #6]
  54:	e58c3008 	str	r3, [ip, #8]
  58:	e5d43000 	ldrb	r3, [r4]
  5c:	e59c2000 	ldr	r2, [ip]
  60:	e0033001 	and	r3, r3, r1
  64:	e3c22003 	bic	r2, r2, #3
  68:	e1833002 	orr	r3, r3, r2
  6c:	e58c3000 	str	r3, [ip]
  70:	ebfffffe 	bl	0 <bcm2835_spi_transfern>
  74:	e3a00000 	mov	r0, #0
  78:	e28dd008 	add	sp, sp, #8
  7c:	e8bd8010 	pop	{r4, pc}

00000080 <mcp23s08_end>:
  80:	eafffffe 	b	0 <bcm2835_spi_end>

00000084 <mcp23s08_reg_read>:
  84:	e52de004 	push	{lr}		; (str lr, [sp, #-4]!)
  88:	e3a0c901 	mov	ip, #16384	; 0x4000
  8c:	e5d03001 	ldrb	r3, [r0, #1]
  90:	e24dd00c 	sub	sp, sp, #12
  94:	e343cf20 	movt	ip, #16160	; 0x3f20
  98:	e1a02000 	mov	r2, r0
  9c:	e1a03083 	lsl	r3, r3, #1
  a0:	e3a0e080 	mov	lr, #128	; 0x80
  a4:	e5cd1005 	strb	r1, [sp, #5]
  a8:	e3833041 	orr	r3, r3, #65	; 0x41
  ac:	e5cd3004 	strb	r3, [sp, #4]
  b0:	e3a01003 	mov	r1, #3
  b4:	e58ce008 	str	lr, [ip, #8]
  b8:	e28d0004 	add	r0, sp, #4
  bc:	e5d23000 	ldrb	r3, [r2]
  c0:	e59c2000 	ldr	r2, [ip]
  c4:	e0033001 	and	r3, r3, r1
  c8:	e3c22003 	bic	r2, r2, #3
  cc:	e1833002 	orr	r3, r3, r2
  d0:	e58c3000 	str	r3, [ip]
  d4:	ebfffffe 	bl	0 <bcm2835_spi_transfern>
  d8:	e5dd0006 	ldrb	r0, [sp, #6]
  dc:	e28dd00c 	add	sp, sp, #12
  e0:	e49df004 	pop	{pc}		; (ldr pc, [sp], #4)

000000e4 <mcp23s08_reg_write>:
  e4:	e52de004 	push	{lr}		; (str lr, [sp, #-4]!)
  e8:	e3a0c901 	mov	ip, #16384	; 0x4000
  ec:	e5d03001 	ldrb	r3, [r0, #1]
  f0:	e24dd00c 	sub	sp, sp, #12
  f4:	e343cf20 	movt	ip, #16160	; 0x3f20
  f8:	e1a0e000 	mov	lr, r0
  fc:	e1a03083 	lsl	r3, r3, #1
 100:	e28d0004 	add	r0, sp, #4
 104:	e5cd2006 	strb	r2, [sp, #6]
 108:	e3833040 	orr	r3, r3, #64	; 0x40
 10c:	e5cd1005 	strb	r1, [sp, #5]
 110:	e3a02080 	mov	r2, #128	; 0x80
 114:	e5cd3004 	strb	r3, [sp, #4]
 118:	e3a01003 	mov	r1, #3
 11c:	e58c2008 	str	r2, [ip, #8]
 120:	e5de3000 	ldrb	r3, [lr]
 124:	e59c2000 	ldr	r2, [ip]
 128:	e0033001 	and	r3, r3, r1
 12c:	e3c22003 	bic	r2, r2, #3
 130:	e1833002 	orr	r3, r3, r2
 134:	e58c3000 	str	r3, [ip]
 138:	ebfffffe 	bl	0 <bcm2835_spi_transfern>
 13c:	e28dd00c 	add	sp, sp, #12
 140:	e49df004 	pop	{pc}		; (ldr pc, [sp], #4)

00000144 <mcp23s08_gpio_fsel>:
 144:	e92d4070 	push	{r4, r5, r6, lr}
 148:	e3a0e901 	mov	lr, #16384	; 0x4000
 14c:	e5d03001 	ldrb	r3, [r0, #1]
 150:	e24dd008 	sub	sp, sp, #8
 154:	e343ef20 	movt	lr, #16160	; 0x3f20
 158:	e1a04000 	mov	r4, r0
 15c:	e1a03083 	lsl	r3, r3, #1
 160:	e3a0c000 	mov	ip, #0
 164:	e5cdc005 	strb	ip, [sp, #5]
 168:	e3a00080 	mov	r0, #128	; 0x80
 16c:	e3833041 	orr	r3, r3, #65	; 0x41
 170:	e1a05001 	mov	r5, r1
 174:	e5cd3004 	strb	r3, [sp, #4]
 178:	e3a01003 	mov	r1, #3
 17c:	e58e0008 	str	r0, [lr, #8]
 180:	e28d0004 	add	r0, sp, #4
 184:	e59ec000 	ldr	ip, [lr]
 188:	e1a06002 	mov	r6, r2
 18c:	e5d43000 	ldrb	r3, [r4]
 190:	e3ccc003 	bic	ip, ip, #3
 194:	e0033001 	and	r3, r3, r1
 198:	e183300c 	orr	r3, r3, ip
 19c:	e58e3000 	str	r3, [lr]
 1a0:	ebfffffe 	bl	0 <bcm2835_spi_transfern>
 1a4:	e5dd3006 	ldrb	r3, [sp, #6]
 1a8:	e3560000 	cmp	r6, #0
 1ac:	e3a0c901 	mov	ip, #16384	; 0x4000
 1b0:	e3a02000 	mov	r2, #0
 1b4:	01c31005 	biceq	r1, r3, r5
 1b8:	e343cf20 	movt	ip, #16160	; 0x3f20
 1bc:	11851003 	orrne	r1, r5, r3
 1c0:	e28d0004 	add	r0, sp, #4
 1c4:	e5d43001 	ldrb	r3, [r4, #1]
 1c8:	e5cd1006 	strb	r1, [sp, #6]
 1cc:	e3a01003 	mov	r1, #3
 1d0:	e1a03083 	lsl	r3, r3, #1
 1d4:	e5cd2005 	strb	r2, [sp, #5]
 1d8:	e3833040 	orr	r3, r3, #64	; 0x40
 1dc:	e5cd3004 	strb	r3, [sp, #4]
 1e0:	e3a03080 	mov	r3, #128	; 0x80
 1e4:	e58c3008 	str	r3, [ip, #8]
 1e8:	e5d43000 	ldrb	r3, [r4]
 1ec:	e59c2000 	ldr	r2, [ip]
 1f0:	e0033001 	and	r3, r3, r1
 1f4:	e3c22003 	bic	r2, r2, #3
 1f8:	e1833002 	orr	r3, r3, r2
 1fc:	e58c3000 	str	r3, [ip]
 200:	ebfffffe 	bl	0 <bcm2835_spi_transfern>
 204:	e28dd008 	add	sp, sp, #8
 208:	e8bd8070 	pop	{r4, r5, r6, pc}

0000020c <mcp23s08_gpio_set>:
 20c:	e92d40f0 	push	{r4, r5, r6, r7, lr}
 210:	e3a04901 	mov	r4, #16384	; 0x4000
 214:	e5d03001 	ldrb	r3, [r0, #1]
 218:	e24dd00c 	sub	sp, sp, #12
 21c:	e3434f20 	movt	r4, #16160	; 0x3f20
 220:	e1a05000 	mov	r5, r0
 224:	e1a03083 	lsl	r3, r3, #1
 228:	e3a06080 	mov	r6, #128	; 0x80
 22c:	e3a0200a 	mov	r2, #10
 230:	e3833041 	orr	r3, r3, #65	; 0x41
 234:	e5cd3004 	strb	r3, [sp, #4]
 238:	e1a07001 	mov	r7, r1
 23c:	e5cd2005 	strb	r2, [sp, #5]
 240:	e3a01003 	mov	r1, #3
 244:	e5846008 	str	r6, [r4, #8]
 248:	e28d0004 	add	r0, sp, #4
 24c:	e5942000 	ldr	r2, [r4]
 250:	e5d53000 	ldrb	r3, [r5]
 254:	e3c22003 	bic	r2, r2, #3
 258:	e0033001 	and	r3, r3, r1
 25c:	e1833002 	orr	r3, r3, r2
 260:	e5843000 	str	r3, [r4]
 264:	ebfffffe 	bl	0 <bcm2835_spi_transfern>
 268:	e5d53001 	ldrb	r3, [r5, #1]
 26c:	e3a0c009 	mov	ip, #9
 270:	e5dd2006 	ldrb	r2, [sp, #6]
 274:	e3a01003 	mov	r1, #3
 278:	e1a03083 	lsl	r3, r3, #1
 27c:	e28d0004 	add	r0, sp, #4
 280:	e1872002 	orr	r2, r7, r2
 284:	e3833040 	orr	r3, r3, #64	; 0x40
 288:	e5cd3004 	strb	r3, [sp, #4]
 28c:	e5cd2006 	strb	r2, [sp, #6]
 290:	e5cdc005 	strb	ip, [sp, #5]
 294:	e5846008 	str	r6, [r4, #8]
 298:	e5d53000 	ldrb	r3, [r5]
 29c:	e5942000 	ldr	r2, [r4]
 2a0:	e0033001 	and	r3, r3, r1
 2a4:	e3c22003 	bic	r2, r2, #3
 2a8:	e1833002 	orr	r3, r3, r2
 2ac:	e5843000 	str	r3, [r4]
 2b0:	ebfffffe 	bl	0 <bcm2835_spi_transfern>
 2b4:	e28dd00c 	add	sp, sp, #12
 2b8:	e8bd80f0 	pop	{r4, r5, r6, r7, pc}

000002bc <mcp23s08_gpio_clr>:
 2bc:	e92d40f0 	push	{r4, r5, r6, r7, lr}
 2c0:	e3a04901 	mov	r4, #16384	; 0x4000
 2c4:	e5d03001 	ldrb	r3, [r0, #1]
 2c8:	e24dd00c 	sub	sp, sp, #12
 2cc:	e3434f20 	movt	r4, #16160	; 0x3f20
 2d0:	e1a05000 	mov	r5, r0
 2d4:	e1a03083 	lsl	r3, r3, #1
 2d8:	e3a06080 	mov	r6, #128	; 0x80
 2dc:	e3a0200a 	mov	r2, #10
 2e0:	e3833041 	orr	r3, r3, #65	; 0x41
 2e4:	e5cd3004 	strb	r3, [sp, #4]
 2e8:	e1a07001 	mov	r7, r1
 2ec:	e5cd2005 	strb	r2, [sp, #5]
 2f0:	e3a01003 	mov	r1, #3
 2f4:	e5846008 	str	r6, [r4, #8]
 2f8:	e28d0004 	add	r0, sp, #4
 2fc:	e5942000 	ldr	r2, [r4]
 300:	e5d53000 	ldrb	r3, [r5]
 304:	e3c22003 	bic	r2, r2, #3
 308:	e0033001 	and	r3, r3, r1
 30c:	e1833002 	orr	r3, r3, r2
 310:	e5843000 	str	r3, [r4]
 314:	ebfffffe 	bl	0 <bcm2835_spi_transfern>
 318:	e5d53001 	ldrb	r3, [r5, #1]
 31c:	e3a0c009 	mov	ip, #9
 320:	e5dd2006 	ldrb	r2, [sp, #6]
 324:	e3a01003 	mov	r1, #3
 328:	e1a03083 	lsl	r3, r3, #1
 32c:	e28d0004 	add	r0, sp, #4
 330:	e1c22007 	bic	r2, r2, r7
 334:	e3833040 	orr	r3, r3, #64	; 0x40
 338:	e5cd3004 	strb	r3, [sp, #4]
 33c:	e5cd2006 	strb	r2, [sp, #6]
 340:	e5cdc005 	strb	ip, [sp, #5]
 344:	e5846008 	str	r6, [r4, #8]
 348:	e5d53000 	ldrb	r3, [r5]
 34c:	e5942000 	ldr	r2, [r4]
 350:	e0033001 	and	r3, r3, r1
 354:	e3c22003 	bic	r2, r2, #3
 358:	e1833002 	orr	r3, r3, r2
 35c:	e5843000 	str	r3, [r4]
 360:	ebfffffe 	bl	0 <bcm2835_spi_transfern>
 364:	e28dd00c 	add	sp, sp, #12
 368:	e8bd80f0 	pop	{r4, r5, r6, r7, pc}

Disassembly of section .comment:

00000000 <.comment>:
   0:	43434700 	movtmi	r4, #14080	; 0x3700
   4:	4728203a 			; <UNDEFINED> instruction: 0x4728203a
   8:	2029554e 	eorcs	r5, r9, lr, asr #10
   c:	2e392e34 	mrccs	14, 1, r2, cr9, cr4, {1}
  10:	Address 0x0000000000000010 is out of bounds.


Disassembly of section .ARM.attributes:

00000000 <.ARM.attributes>:
   0:	00003641 	andeq	r3, r0, r1, asr #12
   4:	61656100 	cmnvs	r5, r0, lsl #2
   8:	01006962 	tsteq	r0, r2, ror #18
   c:	0000002c 	andeq	r0, r0, ip, lsr #32
  10:	412d3705 	teqmi	sp, r5, lsl #14
  14:	070a0600 	streq	r0, [sl, -r0, lsl #12]
  18:	09010841 	stmdbeq	r1, {r0, r6, fp}
  1c:	0c050a02 	stceq	10, cr0, [r5], {2}
  20:	14041202 	strne	r1, [r4], #-514	; 0xfffffdfe
  24:	17011501 	strne	r1, [r1, -r1, lsl #10]
  28:	19011803 	stmdbne	r1, {r0, r1, fp, ip}
  2c:	1b011a01 	blne	46838 <mcp23s08_gpio_clr+0x4657c>
  30:	1e011c03 	cdpne	12, 0, cr1, cr1, cr3, {0}
  34:	Address 0x0000000000000034 is out of bounds.


mcp23s17.o:     file format elf32-littlearm


Disassembly of section .text:

00000000 <mcp23s17_start>:
   0:	e92d4010 	push	{r4, lr}
   4:	e1a04000 	mov	r4, r0
   8:	e24dd008 	sub	sp, sp, #8
   c:	ebfffffe 	bl	0 <bcm2835_spi_begin>
  10:	e5d43001 	ldrb	r3, [r4, #1]
  14:	e3a0c901 	mov	ip, #16384	; 0x4000
  18:	e343cf20 	movt	ip, #16160	; 0x3f20
  1c:	e3a01003 	mov	r1, #3
  20:	e3530000 	cmp	r3, #0
  24:	e28d0004 	add	r0, sp, #4
  28:	12033003 	andne	r3, r3, #3
  2c:	03a02040 	moveq	r2, #64	; 0x40
  30:	e5c43001 	strb	r3, [r4, #1]
  34:	11a02083 	lslne	r2, r3, #1
  38:	e3a0300a 	mov	r3, #10
  3c:	e5cd3005 	strb	r3, [sp, #5]
  40:	13822040 	orrne	r2, r2, #64	; 0x40
  44:	e5cd2004 	strb	r2, [sp, #4]
  48:	e3a03080 	mov	r3, #128	; 0x80
  4c:	e3a02008 	mov	r2, #8
  50:	e5cd2006 	strb	r2, [sp, #6]
  54:	e58c3008 	str	r3, [ip, #8]
  58:	e5d43000 	ldrb	r3, [r4]
  5c:	e59c2000 	ldr	r2, [ip]
  60:	e0033001 	and	r3, r3, r1
  64:	e3c22003 	bic	r2, r2, #3
  68:	e1833002 	orr	r3, r3, r2
  6c:	e58c3000 	str	r3, [ip]
  70:	ebfffffe 	bl	0 <bcm2835_spi_transfern>
  74:	e3a00000 	mov	r0, #0
  78:	e28dd008 	add	sp, sp, #8
  7c:	e8bd8010 	pop	{r4, pc}

00000080 <mcp23s17_end>:
  80:	eafffffe 	b	0 <bcm2835_spi_end>

00000084 <mcp23s17_reg_read>:
  84:	e52de004 	push	{lr}		; (str lr, [sp, #-4]!)
  88:	e3a0c901 	mov	ip, #16384	; 0x4000
  8c:	e5d03001 	ldrb	r3, [r0, #1]
  90:	e24dd00c 	sub	sp, sp, #12
  94:	e343cf20 	movt	ip, #16160	; 0x3f20
  98:	e1a02000 	mov	r2, r0
  9c:	e1a03083 	lsl	r3, r3, #1
  a0:	e3a0e080 	mov	lr, #128	; 0x80
  a4:	e5cd1005 	strb	r1, [sp, #5]
  a8:	e3833041 	orr	r3, r3, #65	; 0x41
  ac:	e5cd3004 	strb	r3, [sp, #4]
  b0:	e28d0004 	add	r0, sp, #4
  b4:	e58ce008 	str	lr, [ip, #8]
  b8:	e3a01004 	mov	r1, #4
  bc:	e5d23000 	ldrb	r3, [r2]
  c0:	e59c2000 	ldr	r2, [ip]
  c4:	e2033003 	and	r3, r3, #3
  c8:	e3c22003 	bic	r2, r2, #3
  cc:	e1833002 	orr	r3, r3, r2
  d0:	e58c3000 	str	r3, [ip]
  d4:	ebfffffe 	bl	0 <bcm2835_spi_transfern>
  d8:	e5dd0007 	ldrb	r0, [sp, #7]
  dc:	e5dd3006 	ldrb	r3, [sp, #6]
  e0:	e1830400 	orr	r0, r3, r0, lsl #8
  e4:	e28dd00c 	add	sp, sp, #12
  e8:	e49df004 	pop	{pc}		; (ldr pc, [sp], #4)

000000ec <mcp23s17_reg_write>:
  ec:	e52de004 	push	{lr}		; (str lr, [sp, #-4]!)
  f0:	e24dd00c 	sub	sp, sp, #12
  f4:	e5d03001 	ldrb	r3, [r0, #1]
  f8:	e3a0c901 	mov	ip, #16384	; 0x4000
  fc:	e5cd2006 	strb	r2, [sp, #6]
 100:	e343cf20 	movt	ip, #16160	; 0x3f20
 104:	e5cd1005 	strb	r1, [sp, #5]
 108:	e1a0e000 	mov	lr, r0
 10c:	e1a02422 	lsr	r2, r2, #8
 110:	e28d0004 	add	r0, sp, #4
 114:	e1a03083 	lsl	r3, r3, #1
 118:	e3a01004 	mov	r1, #4
 11c:	e5cd2007 	strb	r2, [sp, #7]
 120:	e3833040 	orr	r3, r3, #64	; 0x40
 124:	e5cd3004 	strb	r3, [sp, #4]
 128:	e3a02080 	mov	r2, #128	; 0x80
 12c:	e58c2008 	str	r2, [ip, #8]
 130:	e5de3000 	ldrb	r3, [lr]
 134:	e59c2000 	ldr	r2, [ip]
 138:	e2033003 	and	r3, r3, #3
 13c:	e3c22003 	bic	r2, r2, #3
 140:	e1833002 	orr	r3, r3, r2
 144:	e58c3000 	str	r3, [ip]
 148:	ebfffffe 	bl	0 <bcm2835_spi_transfern>
 14c:	e28dd00c 	add	sp, sp, #12
 150:	e49df004 	pop	{pc}		; (ldr pc, [sp], #4)

00000154 <mcp23s17_reg_write_byte>:
 154:	e52de004 	push	{lr}		; (str lr, [sp, #-4]!)
 158:	e3a0c901 	mov	ip, #16384	; 0x4000
 15c:	e5d03001 	ldrb	r3, [r0, #1]
 160:	e24dd00c 	sub	sp, sp, #12
 164:	e343cf20 	movt	ip, #16160	; 0x3f20
 168:	e1a0e000 	mov	lr, r0
 16c:	e1a03083 	lsl	r3, r3, #1
 170:	e28d0004 	add	r0, sp, #4
 174:	e5cd2006 	strb	r2, [sp, #6]
 178:	e3833040 	orr	r3, r3, #64	; 0x40
 17c:	e5cd1005 	strb	r1, [sp, #5]
 180:	e3a02080 	mov	r2, #128	; 0x80
 184:	e5cd3004 	strb	r3, [sp, #4]
 188:	e3a01003 	mov	r1, #3
 18c:	e58c2008 	str	r2, [ip, #8]
 190:	e5de3000 	ldrb	r3, [lr]
 194:	e59c2000 	ldr	r2, [ip]
 198:	e0033001 	and	r3, r3, r1
 19c:	e3c22003 	bic	r2, r2, #3
 1a0:	e1833002 	orr	r3, r3, r2
 1a4:	e58c3000 	str	r3, [ip]
 1a8:	ebfffffe 	bl	0 <bcm2835_spi_transfern>
 1ac:	e28dd00c 	add	sp, sp, #12
 1b0:	e49df004 	pop	{pc}		; (ldr pc, [sp], #4)

000001b4 <mcp23s17_gpio_fsel>:
 1b4:	e92d40f0 	push	{r4, r5, r6, r7, lr}
 1b8:	e3a05901 	mov	r5, #16384	; 0x4000
 1bc:	e5d03001 	ldrb	r3, [r0, #1]
 1c0:	e24dd00c 	sub	sp, sp, #12
 1c4:	e1a04000 	mov	r4, r0
 1c8:	e3435f20 	movt	r5, #16160	; 0x3f20
 1cc:	e1a03083 	lsl	r3, r3, #1
 1d0:	e3a0c000 	mov	ip, #0
 1d4:	e5cdc005 	strb	ip, [sp, #5]
 1d8:	e3833041 	orr	r3, r3, #65	; 0x41
 1dc:	e5cd3004 	strb	r3, [sp, #4]
 1e0:	e3a00080 	mov	r0, #128	; 0x80
 1e4:	e5850008 	str	r0, [r5, #8]
 1e8:	e1a06001 	mov	r6, r1
 1ec:	e595e000 	ldr	lr, [r5]
 1f0:	e3a01004 	mov	r1, #4
 1f4:	e5d4c000 	ldrb	ip, [r4]
 1f8:	e28d0004 	add	r0, sp, #4
 1fc:	e3cee003 	bic	lr, lr, #3
 200:	e1a07002 	mov	r7, r2
 204:	e20cc003 	and	ip, ip, #3
 208:	e18cc00e 	orr	ip, ip, lr
 20c:	e585c000 	str	ip, [r5]
 210:	ebfffffe 	bl	0 <bcm2835_spi_transfern>
 214:	e5dd2006 	ldrb	r2, [sp, #6]
 218:	e3570000 	cmp	r7, #0
 21c:	e5dd3007 	ldrb	r3, [sp, #7]
 220:	e3a0c901 	mov	ip, #16384	; 0x4000
 224:	e343cf20 	movt	ip, #16160	; 0x3f20
 228:	e28d0004 	add	r0, sp, #4
 22c:	e1823403 	orr	r3, r2, r3, lsl #8
 230:	e3a02000 	mov	r2, #0
 234:	01c31006 	biceq	r1, r3, r6
 238:	11861003 	orrne	r1, r6, r3
 23c:	06ef1071 	uxtbeq	r1, r1
 240:	e5d43001 	ldrb	r3, [r4, #1]
 244:	120110ff 	andne	r1, r1, #255	; 0xff
 248:	e5cd1006 	strb	r1, [sp, #6]
 24c:	e3a01004 	mov	r1, #4
 250:	e1a03083 	lsl	r3, r3, #1
 254:	e5cd2005 	strb	r2, [sp, #5]
 258:	e3833040 	orr	r3, r3, #64	; 0x40
 25c:	e5cd3004 	strb	r3, [sp, #4]
 260:	e3a03080 	mov	r3, #128	; 0x80
 264:	e5cd2007 	strb	r2, [sp, #7]
 268:	e58c3008 	str	r3, [ip, #8]
 26c:	e5d43000 	ldrb	r3, [r4]
 270:	e59c2000 	ldr	r2, [ip]
 274:	e2033003 	and	r3, r3, #3
 278:	e3c22003 	bic	r2, r2, #3
 27c:	e1833002 	orr	r3, r3, r2
 280:	e58c3000 	str	r3, [ip]
 284:	ebfffffe 	bl	0 <bcm2835_spi_transfern>
 288:	e28dd00c 	add	sp, sp, #12
 28c:	e8bd80f0 	pop	{r4, r5, r6, r7, pc}

00000290 <mcp23s17_gpio_set>:
 290:	e92d40f0 	push	{r4, r5, r6, r7, lr}
 294:	e3a04901 	mov	r4, #16384	; 0x4000
 298:	e5d03001 	ldrb	r3, [r0, #1]
 29c:	e24dd00c 	sub	sp, sp, #12
 2a0:	e3434f20 	movt	r4, #16160	; 0x3f20
 2a4:	e1a05000 	mov	r5, r0
 2a8:	e1a03083 	lsl	r3, r3, #1
 2ac:	e3a06080 	mov	r6, #128	; 0x80
 2b0:	e3a02014 	mov	r2, #20
 2b4:	e3833041 	orr	r3, r3, #65	; 0x41
 2b8:	e5cd3004 	strb	r3, [sp, #4]
 2bc:	e28d0004 	add	r0, sp, #4
 2c0:	e5cd2005 	strb	r2, [sp, #5]
 2c4:	e1a07001 	mov	r7, r1
 2c8:	e5846008 	str	r6, [r4, #8]
 2cc:	e3a01004 	mov	r1, #4
 2d0:	e5942000 	ldr	r2, [r4]
 2d4:	e5d53000 	ldrb	r3, [r5]
 2d8:	e3c22003 	bic	r2, r2, #3
 2dc:	e2033003 	and	r3, r3, #3
 2e0:	e1833002 	orr	r3, r3, r2
 2e4:	e5843000 	str	r3, [r4]
 2e8:	ebfffffe 	bl	0 <bcm2835_spi_transfern>
 2ec:	e5d53001 	ldrb	r3, [r5, #1]
 2f0:	e3a0c012 	mov	ip, #18
 2f4:	e5dd1006 	ldrb	r1, [sp, #6]
 2f8:	e3a02000 	mov	r2, #0
 2fc:	e1a03083 	lsl	r3, r3, #1
 300:	e28d0004 	add	r0, sp, #4
 304:	e1817007 	orr	r7, r1, r7
 308:	e3833040 	orr	r3, r3, #64	; 0x40
 30c:	e5cd3004 	strb	r3, [sp, #4]
 310:	e3a01004 	mov	r1, #4
 314:	e5cd7006 	strb	r7, [sp, #6]
 318:	e5cdc005 	strb	ip, [sp, #5]
 31c:	e5cd2007 	strb	r2, [sp, #7]
 320:	e5846008 	str	r6, [r4, #8]
 324:	e5d53000 	ldrb	r3, [r5]
 328:	e5942000 	ldr	r2, [r4]
 32c:	e2033003 	and	r3, r3, #3
 330:	e3c22003 	bic	r2, r2, #3
 334:	e1833002 	orr	r3, r3, r2
 338:	e5843000 	str	r3, [r4]
 33c:	ebfffffe 	bl	0 <bcm2835_spi_transfern>
 340:	e28dd00c 	add	sp, sp, #12
 344:	e8bd80f0 	pop	{r4, r5, r6, r7, pc}

00000348 <mcp23s17_gpio_clr>:
 348:	e92d41f0 	push	{r4, r5, r6, r7, r8, lr}
 34c:	e3a04901 	mov	r4, #16384	; 0x4000
 350:	e5d03001 	ldrb	r3, [r0, #1]
 354:	e24dd008 	sub	sp, sp, #8
 358:	e3434f20 	movt	r4, #16160	; 0x3f20
 35c:	e1a05000 	mov	r5, r0
 360:	e1a03083 	lsl	r3, r3, #1
 364:	e3a02014 	mov	r2, #20
 368:	e5cd2005 	strb	r2, [sp, #5]
 36c:	e3a06080 	mov	r6, #128	; 0x80
 370:	e3833041 	orr	r3, r3, #65	; 0x41
 374:	e1a07001 	mov	r7, r1
 378:	e5cd3004 	strb	r3, [sp, #4]
 37c:	e28d0004 	add	r0, sp, #4
 380:	e5846008 	str	r6, [r4, #8]
 384:	e3a01004 	mov	r1, #4
 388:	e594c000 	ldr	ip, [r4]
 38c:	e3a08012 	mov	r8, #18
 390:	e5d53000 	ldrb	r3, [r5]
 394:	e3ccc003 	bic	ip, ip, #3
 398:	e2033003 	and	r3, r3, #3
 39c:	e183300c 	orr	r3, r3, ip
 3a0:	e5843000 	str	r3, [r4]
 3a4:	ebfffffe 	bl	0 <bcm2835_spi_transfern>
 3a8:	e5dd2007 	ldrb	r2, [sp, #7]
 3ac:	e3a0e000 	mov	lr, #0
 3b0:	e5ddc006 	ldrb	ip, [sp, #6]
 3b4:	e28d0004 	add	r0, sp, #4
 3b8:	e5d53001 	ldrb	r3, [r5, #1]
 3bc:	e3a01004 	mov	r1, #4
 3c0:	e18c2402 	orr	r2, ip, r2, lsl #8
 3c4:	e1a03083 	lsl	r3, r3, #1
 3c8:	e1c22007 	bic	r2, r2, r7
 3cc:	e3833040 	orr	r3, r3, #64	; 0x40
 3d0:	e5cd3004 	strb	r3, [sp, #4]
 3d4:	e5cd2006 	strb	r2, [sp, #6]
 3d8:	e5cd8005 	strb	r8, [sp, #5]
 3dc:	e5cde007 	strb	lr, [sp, #7]
 3e0:	e5846008 	str	r6, [r4, #8]
 3e4:	e5d53000 	ldrb	r3, [r5]
 3e8:	e5942000 	ldr	r2, [r4]
 3ec:	e2033003 	and	r3, r3, #3
 3f0:	e3c22003 	bic	r2, r2, #3
 3f4:	e1833002 	orr	r3, r3, r2
 3f8:	e5843000 	str	r3, [r4]
 3fc:	ebfffffe 	bl	0 <bcm2835_spi_transfern>
 400:	e28dd008 	add	sp, sp, #8
 404:	e8bd81f0 	pop	{r4, r5, r6, r7, r8, pc}

Disassembly of section .comment:

00000000 <.comment>:
   0:	43434700 	movtmi	r4, #14080	; 0x3700
   4:	4728203a 			; <UNDEFINED> instruction: 0x4728203a
   8:	2029554e 	eorcs	r5, r9, lr, asr #10
   c:	2e392e34 	mrccs	14, 1, r2, cr9, cr4, {1}
  10:	Address 0x0000000000000010 is out of bounds.


Disassembly of section .ARM.attributes:

00000000 <.ARM.attributes>:
   0:	00003641 	andeq	r3, r0, r1, asr #12
   4:	61656100 	cmnvs	r5, r0, lsl #2
   8:	01006962 	tsteq	r0, r2, ror #18
   c:	0000002c 	andeq	r0, r0, ip, lsr #32
  10:	412d3705 	teqmi	sp, r5, lsl #14
  14:	070a0600 	streq	r0, [sl, -r0, lsl #12]
  18:	09010841 	stmdbeq	r1, {r0, r6, fp}
  1c:	0c050a02 	stceq	10, cr0, [r5], {2}
  20:	14041202 	strne	r1, [r4], #-514	; 0xfffffdfe
  24:	17011501 	strne	r1, [r1, -r1, lsl #10]
  28:	19011803 	stmdbne	r1, {r0, r1, fp, ip}
  2c:	1b011a01 	blne	46838 <mcp23s17_gpio_clr+0x464f0>
  30:	1e011c03 	cdpne	12, 0, cr1, cr1, cr3, {0}
  34:	Address 0x0000000000000034 is out of bounds.


mcp7941x.o:     file format elf32-littlearm


Disassembly of section .text:

00000000 <mcp7941x_start>:
   0:	e92d4010 	push	{r4, lr}
   4:	e1a04000 	mov	r4, r0
   8:	ebfffffe 	bl	0 <bcm2835_i2c_begin>
   c:	e3002000 	movw	r2, #0
  10:	e3a03901 	mov	r3, #16384	; 0x4000
  14:	e3540000 	cmp	r4, #0
  18:	e3433f80 	movt	r3, #16256	; 0x3f80
  1c:	e3402000 	movt	r2, #0
  20:	11a00004 	movne	r0, r4
  24:	03a0006f 	moveq	r0, #111	; 0x6f
  28:	e5c20000 	strb	r0, [r2]
  2c:	e30029c4 	movw	r2, #2500	; 0x9c4
  30:	e583000c 	str	r0, [r3, #12]
  34:	e3a00000 	mov	r0, #0
  38:	e5832014 	str	r2, [r3, #20]
  3c:	e1a01000 	mov	r1, r0
  40:	ebfffffe 	bl	0 <bcm2835_i2c_write>
  44:	e2900000 	adds	r0, r0, #0
  48:	13a00001 	movne	r0, #1
  4c:	e8bd8010 	pop	{r4, pc}

00000050 <mcp7941x_end>:
  50:	eafffffe 	b	0 <bcm2835_i2c_end>

00000054 <mcp7941x_get_date_time>:
  54:	e3003000 	movw	r3, #0
  58:	e3a02901 	mov	r2, #16384	; 0x4000
  5c:	e3403000 	movt	r3, #0
  60:	e3432f80 	movt	r2, #16256	; 0x3f80
  64:	e92d4ff0 	push	{r4, r5, r6, r7, r8, r9, sl, fp, lr}
  68:	e24dd014 	sub	sp, sp, #20
  6c:	e5d3e000 	ldrb	lr, [r3]
  70:	e300c9c4 	movw	ip, #2500	; 0x9c4
  74:	e3a03000 	mov	r3, #0
  78:	e1a04000 	mov	r4, r0
  7c:	e5cd3004 	strb	r3, [sp, #4]
  80:	e28d0004 	add	r0, sp, #4
  84:	e5cd3008 	strb	r3, [sp, #8]
  88:	e3a01001 	mov	r1, #1
  8c:	e5cd3009 	strb	r3, [sp, #9]
  90:	e5cd300a 	strb	r3, [sp, #10]
  94:	e5cd300b 	strb	r3, [sp, #11]
  98:	e5cd300c 	strb	r3, [sp, #12]
  9c:	e5cd300d 	strb	r3, [sp, #13]
  a0:	e5cd300e 	strb	r3, [sp, #14]
  a4:	e582e00c 	str	lr, [r2, #12]
  a8:	e582c014 	str	ip, [r2, #20]
  ac:	ebfffffe 	bl	0 <bcm2835_i2c_write>
  b0:	e28d0008 	add	r0, sp, #8
  b4:	e3a01007 	mov	r1, #7
  b8:	ebfffffe 	bl	0 <bcm2835_i2c_read>
  bc:	e5dde008 	ldrb	lr, [sp, #8]
  c0:	e3a0300a 	mov	r3, #10
  c4:	e5ddc009 	ldrb	ip, [sp, #9]
  c8:	e5dd000a 	ldrb	r0, [sp, #10]
  cc:	e20e600f 	and	r6, lr, #15
  d0:	e5dd100c 	ldrb	r1, [sp, #12]
  d4:	e20cb00f 	and	fp, ip, #15
  d8:	e5dd200d 	ldrb	r2, [sp, #13]
  dc:	e200a00f 	and	sl, r0, #15
  e0:	e5dd500e 	ldrb	r5, [sp, #14]
  e4:	e201900f 	and	r9, r1, #15
  e8:	e7e2e25e 	ubfx	lr, lr, #4, #3
  ec:	e202800f 	and	r8, r2, #15
  f0:	e02e6e93 	mla	lr, r3, lr, r6
  f4:	e7e2c25c 	ubfx	ip, ip, #4, #3
  f8:	e205700f 	and	r7, r5, #15
  fc:	e5dd600b 	ldrb	r6, [sp, #11]
 100:	e1a05225 	lsr	r5, r5, #4
 104:	e7e10250 	ubfx	r0, r0, #4, #2
 108:	e2066007 	and	r6, r6, #7
 10c:	e7e11251 	ubfx	r1, r1, #4, #2
 110:	e7e02252 	ubfx	r2, r2, #4, #1
 114:	e02cbc93 	mla	ip, r3, ip, fp
 118:	e020a093 	mla	r0, r3, r0, sl
 11c:	e0219193 	mla	r1, r3, r1, r9
 120:	e0228293 	mla	r2, r3, r2, r8
 124:	e1037583 	smlabb	r3, r3, r5, r7
 128:	e584e000 	str	lr, [r4]
 12c:	e584c004 	str	ip, [r4, #4]
 130:	e5840008 	str	r0, [r4, #8]
 134:	e584100c 	str	r1, [r4, #12]
 138:	e5842010 	str	r2, [r4, #16]
 13c:	e5843014 	str	r3, [r4, #20]
 140:	e5846018 	str	r6, [r4, #24]
 144:	e28dd014 	add	sp, sp, #20
 148:	e8bd8ff0 	pop	{r4, r5, r6, r7, r8, r9, sl, fp, pc}

0000014c <mcp7941x_set_date_time>:
 14c:	e92d4ff0 	push	{r4, r5, r6, r7, r8, r9, sl, fp, lr}
 150:	e3062667 	movw	r2, #26215	; 0x6667
 154:	e5904000 	ldr	r4, [r0]
 158:	e3462666 	movt	r2, #26214	; 0x6666
 15c:	e5908004 	ldr	r8, [r0, #4]
 160:	e3a0300a 	mov	r3, #10
 164:	e590a014 	ldr	sl, [r0, #20]
 168:	e204407f 	and	r4, r4, #127	; 0x7f
 16c:	e0c76294 	smull	r6, r7, r4, r2
 170:	e590e008 	ldr	lr, [r0, #8]
 174:	e208807f 	and	r8, r8, #127	; 0x7f
 178:	e1a0b147 	asr	fp, r7, #2
 17c:	e24dd01c 	sub	sp, sp, #28
 180:	e590c00c 	ldr	ip, [r0, #12]
 184:	e20ee01f 	and	lr, lr, #31
 188:	e5901010 	ldr	r1, [r0, #16]
 18c:	e5909018 	ldr	r9, [r0, #24]
 190:	e20cc03f 	and	ip, ip, #63	; 0x3f
 194:	e0604b93 	mls	r0, r3, fp, r4
 198:	e0c54298 	smull	r4, r5, r8, r2
 19c:	e0c7629e 	smull	r6, r7, lr, r2
 1a0:	e1a04145 	asr	r4, r5, #2
 1a4:	e201101f 	and	r1, r1, #31
 1a8:	e58d4004 	str	r4, [sp, #4]
 1ac:	e2099007 	and	r9, r9, #7
 1b0:	e0c5429c 	smull	r4, r5, ip, r2
 1b4:	e080020b 	add	r0, r0, fp, lsl #4
 1b8:	e3006000 	movw	r6, #0
 1bc:	e1a0b145 	asr	fp, r5, #2
 1c0:	e3406000 	movt	r6, #0
 1c4:	e0c54291 	smull	r4, r5, r1, r2
 1c8:	e1a07147 	asr	r7, r7, #2
 1cc:	e1e04c80 	mvn	r4, r0, lsl #25
 1d0:	e59d0004 	ldr	r0, [sp, #4]
 1d4:	e58d7008 	str	r7, [sp, #8]
 1d8:	e3a07901 	mov	r7, #16384	; 0x4000
 1dc:	e1a05145 	asr	r5, r5, #2
 1e0:	e3437f80 	movt	r7, #16256	; 0x3f80
 1e4:	e0611593 	mls	r1, r3, r5, r1
 1e8:	e0688093 	mls	r8, r3, r0, r8
 1ec:	e59d0008 	ldr	r0, [sp, #8]
 1f0:	e58d100c 	str	r1, [sp, #12]
 1f4:	e06ee093 	mls	lr, r3, r0, lr
 1f8:	e0c10299 	smull	r0, r1, r9, r2
 1fc:	e06ccb93 	mls	ip, r3, fp, ip
 200:	e1a01141 	asr	r1, r1, #2
 204:	e0699193 	mls	r9, r3, r1, r9
 208:	e0c1029a 	smull	r0, r1, sl, r2
 20c:	e59d2004 	ldr	r2, [sp, #4]
 210:	e3899008 	orr	r9, r9, #8
 214:	e59d0008 	ldr	r0, [sp, #8]
 218:	e0888202 	add	r8, r8, r2, lsl #4
 21c:	e1a02fca 	asr	r2, sl, #31
 220:	e0622141 	rsb	r2, r2, r1, asr #2
 224:	e061a293 	mls	r1, r3, r2, sl
 228:	e08e3200 	add	r3, lr, r0, lsl #4
 22c:	e3a0e000 	mov	lr, #0
 230:	e59d000c 	ldr	r0, [sp, #12]
 234:	e5d66000 	ldrb	r6, [r6]
 238:	e0812202 	add	r2, r1, r2, lsl #4
 23c:	e3a01008 	mov	r1, #8
 240:	e08ca20b 	add	sl, ip, fp, lsl #4
 244:	e300c9c4 	movw	ip, #2500	; 0x9c4
 248:	e0805205 	add	r5, r0, r5, lsl #4
 24c:	e28d0010 	add	r0, sp, #16
 250:	e1e04ca4 	mvn	r4, r4, lsr #25
 254:	e5cd4011 	strb	r4, [sp, #17]
 258:	e5cd8012 	strb	r8, [sp, #18]
 25c:	e5cd3013 	strb	r3, [sp, #19]
 260:	e5cda015 	strb	sl, [sp, #21]
 264:	e5cd5016 	strb	r5, [sp, #22]
 268:	e5cd9014 	strb	r9, [sp, #20]
 26c:	e5cd2017 	strb	r2, [sp, #23]
 270:	e5cde010 	strb	lr, [sp, #16]
 274:	e587600c 	str	r6, [r7, #12]
 278:	e587c014 	str	ip, [r7, #20]
 27c:	ebfffffe 	bl	0 <bcm2835_i2c_write>
 280:	e28dd01c 	add	sp, sp, #28
 284:	e8bd8ff0 	pop	{r4, r5, r6, r7, r8, r9, sl, fp, pc}

Disassembly of section .data:

00000000 <i2c_mcp7941x_slave_address>:
   0:	Address 0x0000000000000000 is out of bounds.


Disassembly of section .comment:

00000000 <.comment>:
   0:	43434700 	movtmi	r4, #14080	; 0x3700
   4:	4728203a 			; <UNDEFINED> instruction: 0x4728203a
   8:	2029554e 	eorcs	r5, r9, lr, asr #10
   c:	2e392e34 	mrccs	14, 1, r2, cr9, cr4, {1}
  10:	Address 0x0000000000000010 is out of bounds.


Disassembly of section .ARM.attributes:

00000000 <.ARM.attributes>:
   0:	00003641 	andeq	r3, r0, r1, asr #12
   4:	61656100 	cmnvs	r5, r0, lsl #2
   8:	01006962 	tsteq	r0, r2, ror #18
   c:	0000002c 	andeq	r0, r0, ip, lsr #32
  10:	412d3705 	teqmi	sp, r5, lsl #14
  14:	070a0600 	streq	r0, [sl, -r0, lsl #12]
  18:	09010841 	stmdbeq	r1, {r0, r6, fp}
  1c:	0c050a02 	stceq	10, cr0, [r5], {2}
  20:	14041202 	strne	r1, [r4], #-514	; 0xfffffdfe
  24:	17011501 	strne	r1, [r1, -r1, lsl #10]
  28:	19011803 	stmdbne	r1, {r0, r1, fp, ip}
  2c:	1b011a01 	blne	46838 <mcp7941x_set_date_time+0x466ec>
  30:	1e011c03 	cdpne	12, 0, cr1, cr1, cr3, {0}
  34:	Address 0x0000000000000034 is out of bounds.

