In archive lib/libhal.a:

hardware.o:     file format elf32-littlearm


Disassembly of section .text:

00000000 <hardware_uptime_seconds>:
   0:	e59f1040 	ldr	r1, [pc, #64]	; 48 <hardware_uptime_seconds+0x48>
   4:	e59f0040 	ldr	r0, [pc, #64]	; 4c <hardware_uptime_seconds+0x4c>
   8:	e5912004 	ldr	r2, [r1, #4]
   c:	e92d4008 	push	{r3, lr}
  10:	e5913008 	ldr	r3, [r1, #8]
  14:	e1c000d0 	ldrd	r0, [r0]
  18:	e0520000 	subs	r0, r2, r0
  1c:	e0c31001 	sbc	r1, r3, r1
  20:	ebfffffe 	bl	0 <__aeabi_ul2d>
  24:	ed9f7b05 	vldr	d7, [pc, #20]	; 40 <hardware_uptime_seconds+0x40>
  28:	ec410b16 	vmov	d6, r0, r1
  2c:	ee867b07 	vdiv.f64	d7, d6, d7
  30:	ec510b17 	vmov	r0, r1, d7
  34:	ebfffffe 	bl	0 <__aeabi_d2ulz>
  38:	e8bd8008 	pop	{r3, pc}
  3c:	e320f000 	nop	{0}
  40:	00000000 	andeq	r0, r0, r0
  44:	412e8480 	smlawbmi	lr, r0, r4, r8
  48:	20003000 	andcs	r3, r0, r0
  4c:	00000000 	andeq	r0, r0, r0

00000050 <hardware_get_firmware_revision>:
  50:	eafffffe 	b	0 <bcm2835_vc_get_get_firmware_revision>

00000054 <hardware_get_firmware_copyright>:
  54:	e59f0000 	ldr	r0, [pc]	; 5c <hardware_get_firmware_copyright+0x8>
  58:	e12fff1e 	bx	lr
  5c:	00000000 	andeq	r0, r0, r0

00000060 <hardware_get_firmware_copyright_length>:
  60:	e3a0001b 	mov	r0, #27
  64:	e12fff1e 	bx	lr

00000068 <hardware_get_board_model_id>:
  68:	eafffffe 	b	0 <bcm2835_vc_get_get_board_revision>

0000006c <hardware_get_board_model>:
  6c:	e92d4008 	push	{r3, lr}
  70:	ebfffffe 	bl	0 <bcm2835_vc_get_get_board_revision>
  74:	e3500000 	cmp	r0, #0
  78:	da00001f 	ble	fc <hardware_get_board_model+0x90>
  7c:	e3500002 	cmp	r0, #2
  80:	0a000027 	beq	124 <hardware_get_board_model+0xb8>
  84:	e3500003 	cmp	r0, #3
  88:	0a000027 	beq	12c <hardware_get_board_model+0xc0>
  8c:	e3500004 	cmp	r0, #4
  90:	0a000027 	beq	134 <hardware_get_board_model+0xc8>
  94:	e3500005 	cmp	r0, #5
  98:	0a000027 	beq	13c <hardware_get_board_model+0xd0>
  9c:	e3500006 	cmp	r0, #6
  a0:	0a000027 	beq	144 <hardware_get_board_model+0xd8>
  a4:	e3500007 	cmp	r0, #7
  a8:	0a000027 	beq	14c <hardware_get_board_model+0xe0>
  ac:	e3500008 	cmp	r0, #8
  b0:	0a000027 	beq	154 <hardware_get_board_model+0xe8>
  b4:	e3500009 	cmp	r0, #9
  b8:	0a000027 	beq	15c <hardware_get_board_model+0xf0>
  bc:	e350000d 	cmp	r0, #13
  c0:	0a000027 	beq	164 <hardware_get_board_model+0xf8>
  c4:	e350000e 	cmp	r0, #14
  c8:	0a000027 	beq	16c <hardware_get_board_model+0x100>
  cc:	e350000f 	cmp	r0, #15
  d0:	0a000011 	beq	11c <hardware_get_board_model+0xb0>
  d4:	e3500010 	cmp	r0, #16
  d8:	0a000025 	beq	174 <hardware_get_board_model+0x108>
  dc:	e3500011 	cmp	r0, #17
  e0:	0a000025 	beq	17c <hardware_get_board_model+0x110>
  e4:	e3500012 	cmp	r0, #18
  e8:	0a000005 	beq	104 <hardware_get_board_model+0x98>
  ec:	e59f3090 	ldr	r3, [pc, #144]	; 184 <hardware_get_board_model+0x118>
  f0:	e1500003 	cmp	r0, r3
  f4:	03a0000f 	moveq	r0, #15
  f8:	0a000002 	beq	108 <hardware_get_board_model+0x9c>
  fc:	e59f0084 	ldr	r0, [pc, #132]	; 188 <hardware_get_board_model+0x11c>
 100:	e8bd8008 	pop	{r3, pc}
 104:	e3a0000e 	mov	r0, #14
 108:	e59f307c 	ldr	r3, [pc, #124]	; 18c <hardware_get_board_model+0x120>
 10c:	e0600180 	rsb	r0, r0, r0, lsl #3
 110:	e0830100 	add	r0, r3, r0, lsl #2
 114:	e2800004 	add	r0, r0, #4
 118:	e8bd8008 	pop	{r3, pc}
 11c:	e3a0000b 	mov	r0, #11
 120:	eafffff8 	b	108 <hardware_get_board_model+0x9c>
 124:	e3a00001 	mov	r0, #1
 128:	eafffff6 	b	108 <hardware_get_board_model+0x9c>
 12c:	e3a00002 	mov	r0, #2
 130:	eafffff4 	b	108 <hardware_get_board_model+0x9c>
 134:	e3a00003 	mov	r0, #3
 138:	eafffff2 	b	108 <hardware_get_board_model+0x9c>
 13c:	e3a00004 	mov	r0, #4
 140:	eafffff0 	b	108 <hardware_get_board_model+0x9c>
 144:	e3a00005 	mov	r0, #5
 148:	eaffffee 	b	108 <hardware_get_board_model+0x9c>
 14c:	e3a00006 	mov	r0, #6
 150:	eaffffec 	b	108 <hardware_get_board_model+0x9c>
 154:	e3a00007 	mov	r0, #7
 158:	eaffffea 	b	108 <hardware_get_board_model+0x9c>
 15c:	e3a00008 	mov	r0, #8
 160:	eaffffe8 	b	108 <hardware_get_board_model+0x9c>
 164:	e3a00009 	mov	r0, #9
 168:	eaffffe6 	b	108 <hardware_get_board_model+0x9c>
 16c:	e3a0000a 	mov	r0, #10
 170:	eaffffe4 	b	108 <hardware_get_board_model+0x9c>
 174:	e3a0000c 	mov	r0, #12
 178:	eaffffe2 	b	108 <hardware_get_board_model+0x9c>
 17c:	e3a0000d 	mov	r0, #13
 180:	eaffffe0 	b	108 <hardware_get_board_model+0x9c>
 184:	00a01041 	adceq	r1, r0, r1, asr #32
 188:	00000020 	andeq	r0, r0, r0, lsr #32
 18c:	0000001c 	andeq	r0, r0, ip, lsl r0

00000190 <hardware_get_board_model_length>:
 190:	e3a00014 	mov	r0, #20
 194:	e12fff1e 	bx	lr

00000198 <hardware_led_init>:
 198:	e59f3004 	ldr	r3, [pc, #4]	; 1a4 <hardware_led_init+0xc>
 19c:	e5933000 	ldr	r3, [r3]
 1a0:	e12fff13 	bx	r3
 1a4:	00000000 	andeq	r0, r0, r0

000001a8 <hardware_led_set>:
 1a8:	e59f3004 	ldr	r3, [pc, #4]	; 1b4 <hardware_led_set+0xc>
 1ac:	e5933004 	ldr	r3, [r3, #4]
 1b0:	e12fff13 	bx	r3
 1b4:	00000000 	andeq	r0, r0, r0

000001b8 <hardware_rtc_set>:
 1b8:	e92d4070 	push	{r4, r5, r6, lr}
 1bc:	e1d030b6 	ldrh	r3, [r0, #6]
 1c0:	e5d04002 	ldrb	r4, [r0, #2]
 1c4:	e5d0e001 	ldrb	lr, [r0, #1]
 1c8:	e5d0c000 	ldrb	ip, [r0]
 1cc:	e5d01003 	ldrb	r1, [r0, #3]
 1d0:	e5d02004 	ldrb	r2, [r0, #4]
 1d4:	e24dd048 	sub	sp, sp, #72	; 0x48
 1d8:	e2433e7d 	sub	r3, r3, #2000	; 0x7d0
 1dc:	e3a00000 	mov	r0, #0
 1e0:	e58d3014 	str	r3, [sp, #20]
 1e4:	e58d4008 	str	r4, [sp, #8]
 1e8:	e88d5000 	stm	sp, {ip, lr}
 1ec:	e58d100c 	str	r1, [sp, #12]
 1f0:	e58d2010 	str	r2, [sp, #16]
 1f4:	ebfffffe 	bl	0 <mcp7941x_start>
 1f8:	e3500001 	cmp	r0, #1
 1fc:	0a000001 	beq	208 <hardware_rtc_set+0x50>
 200:	e1a0000d 	mov	r0, sp
 204:	ebfffffe 	bl	0 <mcp7941x_set_date_time>
 208:	e99d0030 	ldmib	sp, {r4, r5}
 20c:	e3a06000 	mov	r6, #0
 210:	e59de000 	ldr	lr, [sp]
 214:	e59dc00c 	ldr	ip, [sp, #12]
 218:	e59d1018 	ldr	r1, [sp, #24]
 21c:	e59d2010 	ldr	r2, [sp, #16]
 220:	e59d3014 	ldr	r3, [sp, #20]
 224:	e28d0024 	add	r0, sp, #36	; 0x24
 228:	e58d6044 	str	r6, [sp, #68]	; 0x44
 22c:	e58d502c 	str	r5, [sp, #44]	; 0x2c
 230:	e58d4028 	str	r4, [sp, #40]	; 0x28
 234:	e58de024 	str	lr, [sp, #36]	; 0x24
 238:	e58dc030 	str	ip, [sp, #48]	; 0x30
 23c:	e58d103c 	str	r1, [sp, #60]	; 0x3c
 240:	e58d2034 	str	r2, [sp, #52]	; 0x34
 244:	e58d3038 	str	r3, [sp, #56]	; 0x38
 248:	ebfffffe 	bl	0 <sys_time_set>
 24c:	e28dd048 	add	sp, sp, #72	; 0x48
 250:	e8bd8070 	pop	{r4, r5, r6, pc}

00000254 <hardware_print_board_model>:
 254:	e92d4008 	push	{r3, lr}
 258:	ebfffffe 	bl	0 <bcm2835_vc_get_get_board_revision>
 25c:	e3500000 	cmp	r0, #0
 260:	da00001f 	ble	2e4 <hardware_print_board_model+0x90>
 264:	e3500002 	cmp	r0, #2
 268:	0a000029 	beq	314 <hardware_print_board_model+0xc0>
 26c:	e3500003 	cmp	r0, #3
 270:	0a000029 	beq	31c <hardware_print_board_model+0xc8>
 274:	e3500004 	cmp	r0, #4
 278:	0a000029 	beq	324 <hardware_print_board_model+0xd0>
 27c:	e3500005 	cmp	r0, #5
 280:	0a000029 	beq	32c <hardware_print_board_model+0xd8>
 284:	e3500006 	cmp	r0, #6
 288:	0a000029 	beq	334 <hardware_print_board_model+0xe0>
 28c:	e3500007 	cmp	r0, #7
 290:	0a000029 	beq	33c <hardware_print_board_model+0xe8>
 294:	e3500008 	cmp	r0, #8
 298:	0a000029 	beq	344 <hardware_print_board_model+0xf0>
 29c:	e3500009 	cmp	r0, #9
 2a0:	0a000029 	beq	34c <hardware_print_board_model+0xf8>
 2a4:	e350000d 	cmp	r0, #13
 2a8:	0a000029 	beq	354 <hardware_print_board_model+0x100>
 2ac:	e350000e 	cmp	r0, #14
 2b0:	0a000029 	beq	35c <hardware_print_board_model+0x108>
 2b4:	e350000f 	cmp	r0, #15
 2b8:	0a000013 	beq	30c <hardware_print_board_model+0xb8>
 2bc:	e3500010 	cmp	r0, #16
 2c0:	0a000027 	beq	364 <hardware_print_board_model+0x110>
 2c4:	e3500011 	cmp	r0, #17
 2c8:	0a000027 	beq	36c <hardware_print_board_model+0x118>
 2cc:	e3500012 	cmp	r0, #18
 2d0:	0a000006 	beq	2f0 <hardware_print_board_model+0x9c>
 2d4:	e59f3098 	ldr	r3, [pc, #152]	; 374 <hardware_print_board_model+0x120>
 2d8:	e1500003 	cmp	r0, r3
 2dc:	03a0000f 	moveq	r0, #15
 2e0:	0a000003 	beq	2f4 <hardware_print_board_model+0xa0>
 2e4:	e8bd4008 	pop	{r3, lr}
 2e8:	e59f0088 	ldr	r0, [pc, #136]	; 378 <hardware_print_board_model+0x124>
 2ec:	eafffffe 	b	0 <console_puts>
 2f0:	e3a0000e 	mov	r0, #14
 2f4:	e59f3080 	ldr	r3, [pc, #128]	; 37c <hardware_print_board_model+0x128>
 2f8:	e0600180 	rsb	r0, r0, r0, lsl #3
 2fc:	e0830100 	add	r0, r3, r0, lsl #2
 300:	e2800004 	add	r0, r0, #4
 304:	e8bd4008 	pop	{r3, lr}
 308:	eafffffe 	b	0 <console_puts>
 30c:	e3a0000b 	mov	r0, #11
 310:	eafffff7 	b	2f4 <hardware_print_board_model+0xa0>
 314:	e3a00001 	mov	r0, #1
 318:	eafffff5 	b	2f4 <hardware_print_board_model+0xa0>
 31c:	e3a00002 	mov	r0, #2
 320:	eafffff3 	b	2f4 <hardware_print_board_model+0xa0>
 324:	e3a00003 	mov	r0, #3
 328:	eafffff1 	b	2f4 <hardware_print_board_model+0xa0>
 32c:	e3a00004 	mov	r0, #4
 330:	eaffffef 	b	2f4 <hardware_print_board_model+0xa0>
 334:	e3a00005 	mov	r0, #5
 338:	eaffffed 	b	2f4 <hardware_print_board_model+0xa0>
 33c:	e3a00006 	mov	r0, #6
 340:	eaffffeb 	b	2f4 <hardware_print_board_model+0xa0>
 344:	e3a00007 	mov	r0, #7
 348:	eaffffe9 	b	2f4 <hardware_print_board_model+0xa0>
 34c:	e3a00008 	mov	r0, #8
 350:	eaffffe7 	b	2f4 <hardware_print_board_model+0xa0>
 354:	e3a00009 	mov	r0, #9
 358:	eaffffe5 	b	2f4 <hardware_print_board_model+0xa0>
 35c:	e3a0000a 	mov	r0, #10
 360:	eaffffe3 	b	2f4 <hardware_print_board_model+0xa0>
 364:	e3a0000c 	mov	r0, #12
 368:	eaffffe1 	b	2f4 <hardware_print_board_model+0xa0>
 36c:	e3a0000d 	mov	r0, #13
 370:	eaffffdf 	b	2f4 <hardware_print_board_model+0xa0>
 374:	00a01041 	adceq	r1, r0, r1, asr #32
 378:	00000020 	andeq	r0, r0, r0, lsr #32
 37c:	0000001c 	andeq	r0, r0, ip, lsl r0

00000380 <hardware_init>:
 380:	e59f1054 	ldr	r1, [pc, #84]	; 3dc <hardware_init+0x5c>
 384:	e59f0054 	ldr	r0, [pc, #84]	; 3e0 <hardware_init+0x60>
 388:	e5912004 	ldr	r2, [r1, #4]
 38c:	e5913008 	ldr	r3, [r1, #8]
 390:	e92d4010 	push	{r4, lr}
 394:	e1c020f0 	strd	r2, [r0]
 398:	ebfffffe 	bl	0 <sys_time_init>
 39c:	ebfffffe 	bl	0 <console_init>
 3a0:	ebfffffe 	bl	0 <bcm2835_vc_get_get_board_revision>
 3a4:	e350000f 	cmp	r0, #15
 3a8:	d59f4034 	ldrle	r4, [pc, #52]	; 3e4 <hardware_init+0x64>
 3ac:	c59f2034 	ldrgt	r2, [pc, #52]	; 3e8 <hardware_init+0x68>
 3b0:	c59f402c 	ldrgt	r4, [pc, #44]	; 3e4 <hardware_init+0x64>
 3b4:	c59f1030 	ldrgt	r1, [pc, #48]	; 3ec <hardware_init+0x6c>
 3b8:	d5943000 	ldrle	r3, [r4]
 3bc:	c1a03002 	movgt	r3, r2
 3c0:	c5842000 	strgt	r2, [r4]
 3c4:	c5841004 	strgt	r1, [r4, #4]
 3c8:	e12fff33 	blx	r3
 3cc:	e5943004 	ldr	r3, [r4, #4]
 3d0:	e3a00001 	mov	r0, #1
 3d4:	e8bd4010 	pop	{r4, lr}
 3d8:	e12fff13 	bx	r3
 3dc:	20003000 	andcs	r3, r0, r0
	...

000003f0 <hardware_reboot>:
 3f0:	e92d4008 	push	{r3, lr}
 3f4:	e59f3010 	ldr	r3, [pc, #16]	; 40c <hardware_reboot+0x1c>
 3f8:	e3a00001 	mov	r0, #1
 3fc:	e5933004 	ldr	r3, [r3, #4]
 400:	e12fff33 	blx	r3
 404:	ebfffffe 	bl	0 <watchdog_init>
 408:	eafffffe 	b	408 <hardware_reboot+0x18>
 40c:	00000000 	andeq	r0, r0, r0

Disassembly of section .data:

00000000 <_hardware_led_f>:
	...

Disassembly of section .bss:

00000000 <hardware_init_startup_micros>:
	...

Disassembly of section .rodata:

00000000 <FIRMWARE_COPYRIGHT>:
   0:	79706f43 	ldmdbvc	r0!, {r0, r1, r6, r8, r9, sl, fp, sp, lr}^
   4:	68676972 	stmdavs	r7!, {r1, r4, r5, r6, r8, fp, sp, lr}^
   8:	63282074 	teqvs	r8, #116	; 0x74
   c:	30322029 	eorscc	r2, r2, r9, lsr #32
  10:	42203231 	eormi	r3, r0, #268435459	; 0x10000003
  14:	64616f72 	strbtvs	r6, [r1], #-3954	; 0xfffff08e
  18:	006d6f63 	rsbeq	r6, sp, r3, ror #30

0000001c <board_version>:
  1c:	00000000 	andeq	r0, r0, r0
  20:	65646f4d 	strbvs	r6, [r4, #-3917]!	; 0xfffff0b3
  24:	6e55206c 	cdpvs	0, 5, cr2, cr5, cr12, {3}
  28:	776f6e6b 	strbvc	r6, [pc, -fp, ror #28]!
  2c:	2020206e 	eorcs	r2, r0, lr, rrx
  30:	20202020 	eorcs	r2, r0, r0, lsr #32
  34:	00000000 	andeq	r0, r0, r0
  38:	00000002 	andeq	r0, r0, r2
  3c:	65646f4d 	strbvs	r6, [r4, #-3917]!	; 0xfffff0b3
  40:	2042206c 	subcs	r2, r2, ip, rrx
  44:	32203152 	eorcc	r3, r0, #-2147483628	; 0x80000014
  48:	424d3635 	submi	r3, sp, #55574528	; 0x3500000
  4c:	20202020 	eorcs	r2, r0, r0, lsr #32
  50:	00000000 	andeq	r0, r0, r0
  54:	00000003 	andeq	r0, r0, r3
  58:	65646f4d 	strbvs	r6, [r4, #-3917]!	; 0xfffff0b3
  5c:	2042206c 	subcs	r2, r2, ip, rrx
  60:	32203152 	eorcc	r3, r0, #-2147483628	; 0x80000014
  64:	424d3635 	submi	r3, sp, #55574528	; 0x3500000
  68:	20202020 	eorcs	r2, r0, r0, lsr #32
  6c:	00000000 	andeq	r0, r0, r0
  70:	00000004 	andeq	r0, r0, r4
  74:	65646f4d 	strbvs	r6, [r4, #-3917]!	; 0xfffff0b3
  78:	2042206c 	subcs	r2, r2, ip, rrx
  7c:	32203252 	eorcc	r3, r0, #536870917	; 0x20000005
  80:	424d3635 	submi	r3, sp, #55574528	; 0x3500000
  84:	20202020 	eorcs	r2, r0, r0, lsr #32
  88:	00000000 	andeq	r0, r0, r0
  8c:	00000005 	andeq	r0, r0, r5
  90:	65646f4d 	strbvs	r6, [r4, #-3917]!	; 0xfffff0b3
  94:	2042206c 	subcs	r2, r2, ip, rrx
  98:	32203252 	eorcc	r3, r0, #536870917	; 0x20000005
  9c:	424d3635 	submi	r3, sp, #55574528	; 0x3500000
  a0:	20202020 	eorcs	r2, r0, r0, lsr #32
  a4:	00000000 	andeq	r0, r0, r0
  a8:	00000006 	andeq	r0, r0, r6
  ac:	65646f4d 	strbvs	r6, [r4, #-3917]!	; 0xfffff0b3
  b0:	2042206c 	subcs	r2, r2, ip, rrx
  b4:	32203252 	eorcc	r3, r0, #536870917	; 0x20000005
  b8:	424d3635 	submi	r3, sp, #55574528	; 0x3500000
  bc:	20202020 	eorcs	r2, r0, r0, lsr #32
  c0:	00000000 	andeq	r0, r0, r0
  c4:	00000007 	andeq	r0, r0, r7
  c8:	65646f4d 	strbvs	r6, [r4, #-3917]!	; 0xfffff0b3
  cc:	2041206c 	subcs	r2, r1, ip, rrx
  d0:	4d363532 	cfldr32mi	mvfx3, [r6, #-200]!	; 0xffffff38
  d4:	20202042 	eorcs	r2, r0, r2, asr #32
  d8:	20202020 	eorcs	r2, r0, r0, lsr #32
  dc:	00000000 	andeq	r0, r0, r0
  e0:	00000008 	andeq	r0, r0, r8
  e4:	65646f4d 	strbvs	r6, [r4, #-3917]!	; 0xfffff0b3
  e8:	2041206c 	subcs	r2, r1, ip, rrx
  ec:	4d363532 	cfldr32mi	mvfx3, [r6, #-200]!	; 0xffffff38
  f0:	20202042 	eorcs	r2, r0, r2, asr #32
  f4:	20202020 	eorcs	r2, r0, r0, lsr #32
  f8:	00000000 	andeq	r0, r0, r0
  fc:	00000009 	andeq	r0, r0, r9
 100:	65646f4d 	strbvs	r6, [r4, #-3917]!	; 0xfffff0b3
 104:	2041206c 	subcs	r2, r1, ip, rrx
 108:	4d363532 	cfldr32mi	mvfx3, [r6, #-200]!	; 0xffffff38
 10c:	20202042 	eorcs	r2, r0, r2, asr #32
 110:	20202020 	eorcs	r2, r0, r0, lsr #32
 114:	00000000 	andeq	r0, r0, r0
 118:	0000000d 	andeq	r0, r0, sp
 11c:	65646f4d 	strbvs	r6, [r4, #-3917]!	; 0xfffff0b3
 120:	2042206c 	subcs	r2, r2, ip, rrx
 124:	35203252 	strcc	r3, [r0, #-594]!	; 0xfffffdae
 128:	424d3231 	submi	r3, sp, #268435459	; 0x10000003
 12c:	20202020 	eorcs	r2, r0, r0, lsr #32
 130:	00000000 	andeq	r0, r0, r0
 134:	0000000e 	andeq	r0, r0, lr
 138:	65646f4d 	strbvs	r6, [r4, #-3917]!	; 0xfffff0b3
 13c:	2042206c 	subcs	r2, r2, ip, rrx
 140:	35203252 	strcc	r3, [r0, #-594]!	; 0xfffffdae
 144:	424d3231 	submi	r3, sp, #268435459	; 0x10000003
 148:	20202020 	eorcs	r2, r0, r0, lsr #32
 14c:	00000000 	andeq	r0, r0, r0
 150:	0000000f 	andeq	r0, r0, pc
 154:	65646f4d 	strbvs	r6, [r4, #-3917]!	; 0xfffff0b3
 158:	2042206c 	subcs	r2, r2, ip, rrx
 15c:	35203252 	strcc	r3, [r0, #-594]!	; 0xfffffdae
 160:	424d3231 	submi	r3, sp, #268435459	; 0x10000003
 164:	20202020 	eorcs	r2, r0, r0, lsr #32
 168:	00000000 	andeq	r0, r0, r0
 16c:	00000010 	andeq	r0, r0, r0, lsl r0
 170:	65646f4d 	strbvs	r6, [r4, #-3917]!	; 0xfffff0b3
 174:	2b42206c 	blcs	108832c <hardware_reboot+0x1087f3c>
 178:	32313520 	eorscc	r3, r1, #32, 10	; 0x8000000
 17c:	2020424d 	eorcs	r4, r0, sp, asr #4
 180:	20202020 	eorcs	r2, r0, r0, lsr #32
 184:	00000000 	andeq	r0, r0, r0
 188:	00000011 	andeq	r0, r0, r1, lsl r0
 18c:	706d6f43 	rsbvc	r6, sp, r3, asr #30
 190:	20657475 	rsbcs	r7, r5, r5, ror r4
 194:	75646f4d 	strbvc	r6, [r4, #-3917]!	; 0xfffff0b3
 198:	3520656c 	strcc	r6, [r0, #-1388]!	; 0xfffffa94
 19c:	424d3231 	submi	r3, sp, #268435459	; 0x10000003
 1a0:	00000000 	andeq	r0, r0, r0
 1a4:	00000012 	andeq	r0, r0, r2, lsl r0
 1a8:	65646f4d 	strbvs	r6, [r4, #-3917]!	; 0xfffff0b3
 1ac:	2b41206c 	blcs	1048364 <hardware_reboot+0x1047f74>
 1b0:	36353220 	ldrtcc	r3, [r5], -r0, lsr #4
 1b4:	2020424d 	eorcs	r4, r0, sp, asr #4
 1b8:	20202020 	eorcs	r2, r0, r0, lsr #32
 1bc:	00000000 	andeq	r0, r0, r0
 1c0:	00a01041 	adceq	r1, r0, r1, asr #32
 1c4:	32206950 	eorcc	r6, r0, #80, 18	; 0x140000
 1c8:	646f4d20 	strbtvs	r4, [pc], #-3360	; 1d0 <board_version+0x1b4>
 1cc:	42206c65 	eormi	r6, r0, #25856	; 0x6500
 1d0:	42473120 	submi	r3, r7, #32, 2
 1d4:	20202020 	eorcs	r2, r0, r0, lsr #32
 1d8:	00000000 	andeq	r0, r0, r0

Disassembly of section .comment:

00000000 <.comment>:
   0:	43434700 	movtmi	r4, #14080	; 0x3700
   4:	4728203a 			; <UNDEFINED> instruction: 0x4728203a
   8:	2029554e 	eorcs	r5, r9, lr, asr #10
   c:	2e392e34 	mrccs	14, 1, r2, cr9, cr4, {1}
  10:	Address 0x0000000000000010 is out of bounds.


Disassembly of section .ARM.attributes:

00000000 <.ARM.attributes>:
   0:	00003d41 	andeq	r3, r0, r1, asr #26
   4:	61656100 	cmnvs	r5, r0, lsl #2
   8:	01006962 	tsteq	r0, r2, ror #18
   c:	00000033 	andeq	r0, r0, r3, lsr r0
  10:	4d524105 	ldfmie	f4, [r2, #-20]	; 0xffffffec
  14:	36373131 			; <UNDEFINED> instruction: 0x36373131
  18:	2d465a4a 	vstrcs	s11, [r6, #-296]	; 0xfffffed8
  1c:	07060053 	smlsdeq	r6, r3, r0, r0
  20:	01090108 	tsteq	r9, r8, lsl #2
  24:	0412020a 	ldreq	r0, [r2], #-522	; 0xfffffdf6
  28:	01150114 	tsteq	r5, r4, lsl r1
  2c:	01180317 	tsteq	r8, r7, lsl r3
  30:	011a0119 	tsteq	sl, r9, lsl r1
  34:	011c031b 	tsteq	ip, fp, lsl r3
  38:	0122021e 	teqeq	r2, lr, lsl r2
  3c:	Address 0x000000000000003c is out of bounds.


sys_time.o:     file format elf32-littlearm


Disassembly of section .text:

00000000 <sys_time_init>:
   0:	e92d40f0 	push	{r4, r5, r6, r7, lr}
   4:	e59f10b4 	ldr	r1, [pc, #180]	; c0 <sys_time_init+0xc0>
   8:	e59f40b4 	ldr	r4, [pc, #180]	; c4 <sys_time_init+0xc4>
   c:	e5912004 	ldr	r2, [r1, #4]
  10:	e5913008 	ldr	r3, [r1, #8]
  14:	e24dd04c 	sub	sp, sp, #76	; 0x4c
  18:	e3a00000 	mov	r0, #0
  1c:	e1c420f0 	strd	r2, [r4]
  20:	ebfffffe 	bl	0 <mcp7941x_start>
  24:	e3500001 	cmp	r0, #1
  28:	e1a03000 	mov	r3, r0
  2c:	0a000015 	beq	88 <sys_time_init+0x88>
  30:	e3a07000 	mov	r7, #0
  34:	e1a0000d 	mov	r0, sp
  38:	ebfffffe 	bl	0 <mcp7941x_get_date_time>
  3c:	e99d0060 	ldmib	sp, {r5, r6}
  40:	e59de000 	ldr	lr, [sp]
  44:	e59dc00c 	ldr	ip, [sp, #12]
  48:	e59d1018 	ldr	r1, [sp, #24]
  4c:	e59d2010 	ldr	r2, [sp, #16]
  50:	e59d3014 	ldr	r3, [sp, #20]
  54:	e28d0024 	add	r0, sp, #36	; 0x24
  58:	e58d7044 	str	r7, [sp, #68]	; 0x44
  5c:	e58d602c 	str	r6, [sp, #44]	; 0x2c
  60:	e58d5028 	str	r5, [sp, #40]	; 0x28
  64:	e58de024 	str	lr, [sp, #36]	; 0x24
  68:	e58dc030 	str	ip, [sp, #48]	; 0x30
  6c:	e58d103c 	str	r1, [sp, #60]	; 0x3c
  70:	e58d2034 	str	r2, [sp, #52]	; 0x34
  74:	e58d3038 	str	r3, [sp, #56]	; 0x38
  78:	ebfffffe 	bl	0 <mktime>
  7c:	e5840008 	str	r0, [r4, #8]
  80:	e28dd04c 	add	sp, sp, #76	; 0x4c
  84:	e8bd80f0 	pop	{r4, r5, r6, r7, pc}
  88:	e3a02000 	mov	r2, #0
  8c:	e3a0100f 	mov	r1, #15
  90:	e28d0024 	add	r0, sp, #36	; 0x24
  94:	e58d3030 	str	r3, [sp, #48]	; 0x30
  98:	e58d3034 	str	r3, [sp, #52]	; 0x34
  9c:	e58d202c 	str	r2, [sp, #44]	; 0x2c
  a0:	e58d2028 	str	r2, [sp, #40]	; 0x28
  a4:	e58d2024 	str	r2, [sp, #36]	; 0x24
  a8:	e58d2044 	str	r2, [sp, #68]	; 0x44
  ac:	e58d1038 	str	r1, [sp, #56]	; 0x38
  b0:	ebfffffe 	bl	0 <mktime>
  b4:	e5840008 	str	r0, [r4, #8]
  b8:	e28dd04c 	add	sp, sp, #76	; 0x4c
  bc:	e8bd80f0 	pop	{r4, r5, r6, r7, pc}
  c0:	20003000 	andcs	r3, r0, r0
  c4:	00000000 	andeq	r0, r0, r0

000000c8 <sys_time_set>:
  c8:	e59f101c 	ldr	r1, [pc, #28]	; ec <sys_time_set+0x24>
  cc:	e92d4010 	push	{r4, lr}
  d0:	e5912004 	ldr	r2, [r1, #4]
  d4:	e59f4014 	ldr	r4, [pc, #20]	; f0 <sys_time_set+0x28>
  d8:	e5913008 	ldr	r3, [r1, #8]
  dc:	e1c420f0 	strd	r2, [r4]
  e0:	ebfffffe 	bl	0 <mktime>
  e4:	e5840008 	str	r0, [r4, #8]
  e8:	e8bd8010 	pop	{r4, pc}
  ec:	20003000 	andcs	r3, r0, r0
  f0:	00000000 	andeq	r0, r0, r0

000000f4 <sys_time>:
  f4:	e59f1054 	ldr	r1, [pc, #84]	; 150 <sys_time+0x5c>
  f8:	e59fc054 	ldr	ip, [pc, #84]	; 154 <sys_time+0x60>
  fc:	e5912004 	ldr	r2, [r1, #4]
 100:	e92d4038 	push	{r3, r4, r5, lr}
 104:	e5913008 	ldr	r3, [r1, #8]
 108:	e1a04000 	mov	r4, r0
 10c:	e1cc00d0 	ldrd	r0, [ip]
 110:	e0520000 	subs	r0, r2, r0
 114:	e0c31001 	sbc	r1, r3, r1
 118:	e59c5008 	ldr	r5, [ip, #8]
 11c:	ebfffffe 	bl	0 <__aeabi_ul2d>
 120:	ed9f7b08 	vldr	d7, [pc, #32]	; 148 <sys_time+0x54>
 124:	ec410b16 	vmov	d6, r0, r1
 128:	ee867b07 	vdiv.f64	d7, d6, d7
 12c:	eebd7bc7 	vcvt.s32.f64	s14, d7
 130:	ee173a10 	vmov	r3, s14
 134:	e3540000 	cmp	r4, #0
 138:	e0830005 	add	r0, r3, r5
 13c:	15840000 	strne	r0, [r4]
 140:	e8bd8038 	pop	{r3, r4, r5, pc}
 144:	e320f000 	nop	{0}
 148:	00000000 	andeq	r0, r0, r0
 14c:	412e8480 	smlawbmi	lr, r0, r4, r8
 150:	20003000 	andcs	r3, r0, r0
 154:	00000000 	andeq	r0, r0, r0

Disassembly of section .bss:

00000000 <sys_time_init_startup_micros>:
	...

00000008 <rtc_startup_seconds>:
	...

Disassembly of section .comment:

00000000 <.comment>:
   0:	43434700 	movtmi	r4, #14080	; 0x3700
   4:	4728203a 			; <UNDEFINED> instruction: 0x4728203a
   8:	2029554e 	eorcs	r5, r9, lr, asr #10
   c:	2e392e34 	mrccs	14, 1, r2, cr9, cr4, {1}
  10:	Address 0x0000000000000010 is out of bounds.


Disassembly of section .ARM.attributes:

00000000 <.ARM.attributes>:
   0:	00003d41 	andeq	r3, r0, r1, asr #26
   4:	61656100 	cmnvs	r5, r0, lsl #2
   8:	01006962 	tsteq	r0, r2, ror #18
   c:	00000033 	andeq	r0, r0, r3, lsr r0
  10:	4d524105 	ldfmie	f4, [r2, #-20]	; 0xffffffec
  14:	36373131 			; <UNDEFINED> instruction: 0x36373131
  18:	2d465a4a 	vstrcs	s11, [r6, #-296]	; 0xfffffed8
  1c:	07060053 	smlsdeq	r6, r3, r0, r0
  20:	01090108 	tsteq	r9, r8, lsl #2
  24:	0412020a 	ldreq	r0, [r2], #-522	; 0xfffffdf6
  28:	01150114 	tsteq	r5, r4, lsl r1
  2c:	01180317 	tsteq	r8, r7, lsl r3
  30:	011a0119 	tsteq	sl, r9, lsl r1
  34:	011c031b 	tsteq	ip, fp, lsl r3
  38:	0122021e 	teqeq	r2, lr, lsl r2
  3c:	Address 0x000000000000003c is out of bounds.

