In archive lib/libemmc.a:

bcm2835_emmc.o:     file format elf32-littlearm


Disassembly of section .text:

00000000 <bcm2835_emmc_sdcard_power_off>:
   0:	e12fff1e 	bx	lr

00000004 <bcm2835_emmc_reset_cmd>:
   4:	e59f3060 	ldr	r3, [pc, #96]	; 6c <bcm2835_emmc_reset_cmd+0x68>
   8:	e59fc060 	ldr	ip, [pc, #96]	; 70 <bcm2835_emmc_reset_cmd+0x6c>
   c:	e593202c 	ldr	r2, [r3, #44]	; 0x2c
  10:	e1a01003 	mov	r1, r3
  14:	e3822402 	orr	r2, r2, #33554432	; 0x2000000
  18:	e583202c 	str	r2, [r3, #44]	; 0x2c
  1c:	e59c3004 	ldr	r3, [ip, #4]
  20:	e1a0000c 	mov	r0, ip
  24:	e5932000 	ldr	r2, [r3]
  28:	e282293d 	add	r2, r2, #999424	; 0xf4000
  2c:	e2822d09 	add	r2, r2, #576	; 0x240
  30:	ea000003 	b	44 <bcm2835_emmc_reset_cmd+0x40>
  34:	e5903004 	ldr	r3, [r0, #4]
  38:	e5933000 	ldr	r3, [r3]
  3c:	e1520003 	cmp	r2, r3
  40:	9a000002 	bls	50 <bcm2835_emmc_reset_cmd+0x4c>
  44:	e591302c 	ldr	r3, [r1, #44]	; 0x2c
  48:	e3130402 	tst	r3, #33554432	; 0x2000000
  4c:	1afffff8 	bne	34 <bcm2835_emmc_reset_cmd+0x30>
  50:	e59f3014 	ldr	r3, [pc, #20]	; 6c <bcm2835_emmc_reset_cmd+0x68>
  54:	e593002c 	ldr	r0, [r3, #44]	; 0x2c
  58:	e2100402 	ands	r0, r0, #33554432	; 0x2000000
  5c:	03a02801 	moveq	r2, #65536	; 0x10000
  60:	05832030 	streq	r2, [r3, #48]	; 0x30
  64:	13e00000 	mvnne	r0, #0
  68:	e12fff1e 	bx	lr
  6c:	20300000 	eorscs	r0, r0, r0
  70:	20003000 	andcs	r3, r0, r0

00000074 <bcm2835_emmc_reset_dat>:
  74:	e59f3058 	ldr	r3, [pc, #88]	; d4 <bcm2835_emmc_reset_dat+0x60>
  78:	e59fc058 	ldr	ip, [pc, #88]	; d8 <bcm2835_emmc_reset_dat+0x64>
  7c:	e593202c 	ldr	r2, [r3, #44]	; 0x2c
  80:	e1a01003 	mov	r1, r3
  84:	e3822301 	orr	r2, r2, #67108864	; 0x4000000
  88:	e583202c 	str	r2, [r3, #44]	; 0x2c
  8c:	e59c3004 	ldr	r3, [ip, #4]
  90:	e1a0000c 	mov	r0, ip
  94:	e5932000 	ldr	r2, [r3]
  98:	e282293d 	add	r2, r2, #999424	; 0xf4000
  9c:	e2822d09 	add	r2, r2, #576	; 0x240
  a0:	ea000003 	b	b4 <bcm2835_emmc_reset_dat+0x40>
  a4:	e5903004 	ldr	r3, [r0, #4]
  a8:	e5933000 	ldr	r3, [r3]
  ac:	e1520003 	cmp	r2, r3
  b0:	9a000002 	bls	c0 <bcm2835_emmc_reset_dat+0x4c>
  b4:	e591302c 	ldr	r3, [r1, #44]	; 0x2c
  b8:	e3130301 	tst	r3, #67108864	; 0x4000000
  bc:	1afffff8 	bne	a4 <bcm2835_emmc_reset_dat+0x30>
  c0:	e59f300c 	ldr	r3, [pc, #12]	; d4 <bcm2835_emmc_reset_dat+0x60>
  c4:	e593002c 	ldr	r0, [r3, #44]	; 0x2c
  c8:	e2100301 	ands	r0, r0, #67108864	; 0x4000000
  cc:	13e00000 	mvnne	r0, #0
  d0:	e12fff1e 	bx	lr
  d4:	20300000 	eorscs	r0, r0, r0
  d8:	20003000 	andcs	r3, r0, r0

000000dc <bcm2835_emmc_set_clock>:
  dc:	e92d41f0 	push	{r4, r5, r6, r7, r8, lr}
  e0:	e1a06000 	mov	r6, r0
  e4:	e3a00004 	mov	r0, #4
  e8:	ebfffffe 	bl	0 <bcm2835_vc_get_clock_rate>
  ec:	e1500006 	cmp	r0, r6
  f0:	93a04000 	movls	r4, #0
  f4:	e1a05000 	mov	r5, r0
  f8:	91a08004 	movls	r8, r4
  fc:	9a00000f 	bls	140 <bcm2835_emmc_set_clock+0x64>
 100:	e3a04002 	mov	r4, #2
 104:	e59f70a8 	ldr	r7, [pc, #168]	; 1b4 <bcm2835_emmc_set_clock+0xd8>
 108:	ea000002 	b	118 <bcm2835_emmc_set_clock+0x3c>
 10c:	e2844002 	add	r4, r4, #2
 110:	e1540007 	cmp	r4, r7
 114:	0a000023 	beq	1a8 <bcm2835_emmc_set_clock+0xcc>
 118:	e1a00005 	mov	r0, r5
 11c:	e1a01004 	mov	r1, r4
 120:	ebfffffe 	bl	0 <__aeabi_uidiv>
 124:	e1560000 	cmp	r6, r0
 128:	3afffff7 	bcc	10c <bcm2835_emmc_set_clock+0x30>
 12c:	e1a040c4 	asr	r4, r4, #1
 130:	e1a08404 	lsl	r8, r4, #8
 134:	e2043c03 	and	r3, r4, #768	; 0x300
 138:	e6ff8078 	uxth	r8, r8
 13c:	e1a04123 	lsr	r4, r3, #2
 140:	e59f3070 	ldr	r3, [pc, #112]	; 1b8 <bcm2835_emmc_set_clock+0xdc>
 144:	e5930024 	ldr	r0, [r3, #36]	; 0x24
 148:	e59f6068 	ldr	r6, [pc, #104]	; 1b8 <bcm2835_emmc_set_clock+0xdc>
 14c:	e2105001 	ands	r5, r0, #1
 150:	1afffffb 	bne	144 <bcm2835_emmc_set_clock+0x68>
 154:	e596702c 	ldr	r7, [r6, #44]	; 0x2c
 158:	e1884004 	orr	r4, r8, r4
 15c:	e3c73004 	bic	r3, r7, #4
 160:	e3c77cff 	bic	r7, r7, #65280	; 0xff00
 164:	e3c770e4 	bic	r7, r7, #228	; 0xe4
 168:	e586302c 	str	r3, [r6, #44]	; 0x2c
 16c:	e1844007 	orr	r4, r4, r7
 170:	e3a00e7d 	mov	r0, #2000	; 0x7d0
 174:	e3a01000 	mov	r1, #0
 178:	ebfffffe 	bl	0 <udelay>
 17c:	e586402c 	str	r4, [r6, #44]	; 0x2c
 180:	e3a00e7d 	mov	r0, #2000	; 0x7d0
 184:	e3a01000 	mov	r1, #0
 188:	e3844004 	orr	r4, r4, #4
 18c:	ebfffffe 	bl	0 <udelay>
 190:	e586402c 	str	r4, [r6, #44]	; 0x2c
 194:	e3a00e7d 	mov	r0, #2000	; 0x7d0
 198:	e3a01000 	mov	r1, #0
 19c:	ebfffffe 	bl	0 <udelay>
 1a0:	e1a00005 	mov	r0, r5
 1a4:	e8bd81f0 	pop	{r4, r5, r6, r7, r8, pc}
 1a8:	e3a040c0 	mov	r4, #192	; 0xc0
 1ac:	e3a08cff 	mov	r8, #65280	; 0xff00
 1b0:	eaffffe2 	b	140 <bcm2835_emmc_set_clock+0x64>
 1b4:	000007fe 	strdeq	r0, [r0], -lr
 1b8:	20300000 	eorscs	r0, r0, r0

000001bc <bcm2825_emmc_init>:
 1bc:	e92d43f8 	push	{r3, r4, r5, r6, r7, r8, r9, lr}
 1c0:	e3a00000 	mov	r0, #0
 1c4:	ebfffffe 	bl	0 <bcm2835_vc_get_power_state>
 1c8:	e3500000 	cmp	r0, #0
 1cc:	0a00000a 	beq	1fc <bcm2825_emmc_init+0x40>
 1d0:	e3a00000 	mov	r0, #0
 1d4:	e3a01002 	mov	r1, #2
 1d8:	ebfffffe 	bl	0 <bcm2835_vc_set_power_state>
 1dc:	e2403001 	sub	r3, r0, #1
 1e0:	e16f3f13 	clz	r3, r3
 1e4:	e1a032a3 	lsr	r3, r3, #5
 1e8:	e1933fa0 	orrs	r3, r3, r0, lsr #31
 1ec:	1a000007 	bne	210 <bcm2825_emmc_init+0x54>
 1f0:	e59f0194 	ldr	r0, [pc, #404]	; 38c <bcm2825_emmc_init+0x1d0>
 1f4:	e3a01000 	mov	r1, #0
 1f8:	ebfffffe 	bl	0 <udelay>
 1fc:	e3a00000 	mov	r0, #0
 200:	e3a01003 	mov	r1, #3
 204:	ebfffffe 	bl	0 <bcm2835_vc_set_power_state>
 208:	e3500001 	cmp	r0, #1
 20c:	0a000002 	beq	21c <bcm2825_emmc_init+0x60>
 210:	e3e04000 	mvn	r4, #0
 214:	e1a00004 	mov	r0, r4
 218:	e8bd83f8 	pop	{r3, r4, r5, r6, r7, r8, r9, pc}
 21c:	e59f216c 	ldr	r2, [pc, #364]	; 390 <bcm2825_emmc_init+0x1d4>
 220:	e59230fc 	ldr	r3, [r2, #252]	; 0xfc
 224:	e1a03823 	lsr	r3, r3, #16
 228:	e6ef3073 	uxtb	r3, r3
 22c:	e3530001 	cmp	r3, #1
 230:	9afffff6 	bls	210 <bcm2825_emmc_init+0x54>
 234:	e592302c 	ldr	r3, [r2, #44]	; 0x2c
 238:	e59fc154 	ldr	ip, [pc, #340]	; 394 <bcm2825_emmc_init+0x1d8>
 23c:	e3c33005 	bic	r3, r3, #5
 240:	e3833401 	orr	r3, r3, #16777216	; 0x1000000
 244:	e582302c 	str	r3, [r2, #44]	; 0x2c
 248:	e59c3004 	ldr	r3, [ip, #4]
 24c:	e1a01002 	mov	r1, r2
 250:	e5932000 	ldr	r2, [r3]
 254:	e1a0000c 	mov	r0, ip
 258:	e282293d 	add	r2, r2, #999424	; 0xf4000
 25c:	e2822d09 	add	r2, r2, #576	; 0x240
 260:	ea000003 	b	274 <bcm2825_emmc_init+0xb8>
 264:	e5903004 	ldr	r3, [r0, #4]
 268:	e5933000 	ldr	r3, [r3]
 26c:	e1520003 	cmp	r2, r3
 270:	9a000002 	bls	280 <bcm2825_emmc_init+0xc4>
 274:	e591302c 	ldr	r3, [r1, #44]	; 0x2c
 278:	e3130407 	tst	r3, #117440512	; 0x7000000
 27c:	1afffff8 	bne	264 <bcm2825_emmc_init+0xa8>
 280:	e59f3108 	ldr	r3, [pc, #264]	; 390 <bcm2825_emmc_init+0x1d4>
 284:	e593402c 	ldr	r4, [r3, #44]	; 0x2c
 288:	e2144407 	ands	r4, r4, #117440512	; 0x7000000
 28c:	1affffdf 	bne	210 <bcm2825_emmc_init+0x54>
 290:	e583403c 	str	r4, [r3, #60]	; 0x3c
 294:	e3a00004 	mov	r0, #4
 298:	e593702c 	ldr	r7, [r3, #44]	; 0x2c
 29c:	ebfffffe 	bl	0 <bcm2835_vc_get_clock_rate>
 2a0:	e59f60f0 	ldr	r6, [pc, #240]	; 398 <bcm2825_emmc_init+0x1dc>
 2a4:	e1a08000 	mov	r8, r0
 2a8:	e1500006 	cmp	r0, r6
 2ac:	91a03004 	movls	r3, r4
 2b0:	91a02004 	movls	r2, r4
 2b4:	9a00000f 	bls	2f8 <bcm2825_emmc_init+0x13c>
 2b8:	e3a05002 	mov	r5, #2
 2bc:	e59f90d8 	ldr	r9, [pc, #216]	; 39c <bcm2825_emmc_init+0x1e0>
 2c0:	ea000002 	b	2d0 <bcm2825_emmc_init+0x114>
 2c4:	e2855002 	add	r5, r5, #2
 2c8:	e1550009 	cmp	r5, r9
 2cc:	0a00002b 	beq	380 <bcm2825_emmc_init+0x1c4>
 2d0:	e1a00008 	mov	r0, r8
 2d4:	e1a01005 	mov	r1, r5
 2d8:	ebfffffe 	bl	0 <__aeabi_uidiv>
 2dc:	e1500006 	cmp	r0, r6
 2e0:	8afffff7 	bhi	2c4 <bcm2825_emmc_init+0x108>
 2e4:	e1a050c5 	asr	r5, r5, #1
 2e8:	e1a02405 	lsl	r2, r5, #8
 2ec:	e2055c03 	and	r5, r5, #768	; 0x300
 2f0:	e6ff2072 	uxth	r2, r2
 2f4:	e1a03125 	lsr	r3, r5, #2
 2f8:	e387c807 	orr	ip, r7, #458752	; 0x70000
 2fc:	e38cc001 	orr	ip, ip, #1
 300:	e59f5088 	ldr	r5, [pc, #136]	; 390 <bcm2825_emmc_init+0x1d4>
 304:	e18c2002 	orr	r2, ip, r2
 308:	e1823003 	orr	r3, r2, r3
 30c:	e59fe080 	ldr	lr, [pc, #128]	; 394 <bcm2825_emmc_init+0x1d8>
 310:	e585302c 	str	r3, [r5, #44]	; 0x2c
 314:	e59e3004 	ldr	r3, [lr, #4]
 318:	e1a01005 	mov	r1, r5
 31c:	e5932000 	ldr	r2, [r3]
 320:	e1a0000e 	mov	r0, lr
 324:	e2822401 	add	r2, r2, #16777216	; 0x1000000
 328:	ea000003 	b	33c <bcm2825_emmc_init+0x180>
 32c:	e5903004 	ldr	r3, [r0, #4]
 330:	e5933000 	ldr	r3, [r3]
 334:	e1520003 	cmp	r2, r3
 338:	9a000002 	bls	348 <bcm2825_emmc_init+0x18c>
 33c:	e591302c 	ldr	r3, [r1, #44]	; 0x2c
 340:	e3130002 	tst	r3, #2
 344:	0afffff8 	beq	32c <bcm2825_emmc_init+0x170>
 348:	e59f5040 	ldr	r5, [pc, #64]	; 390 <bcm2825_emmc_init+0x1d4>
 34c:	e595302c 	ldr	r3, [r5, #44]	; 0x2c
 350:	e3130002 	tst	r3, #2
 354:	0affffad 	beq	210 <bcm2825_emmc_init+0x54>
 358:	e3a00e7d 	mov	r0, #2000	; 0x7d0
 35c:	e3a01000 	mov	r1, #0
 360:	ebfffffe 	bl	0 <udelay>
 364:	e595302c 	ldr	r3, [r5, #44]	; 0x2c
 368:	e3a00e7d 	mov	r0, #2000	; 0x7d0
 36c:	e3833004 	orr	r3, r3, #4
 370:	e3a01000 	mov	r1, #0
 374:	e585302c 	str	r3, [r5, #44]	; 0x2c
 378:	ebfffffe 	bl	0 <udelay>
 37c:	eaffffa4 	b	214 <bcm2825_emmc_init+0x58>
 380:	e3a030c0 	mov	r3, #192	; 0xc0
 384:	e3a02cff 	mov	r2, #65280	; 0xff00
 388:	eaffffda 	b	2f8 <bcm2825_emmc_init+0x13c>
 38c:	00001388 	andeq	r1, r0, r8, lsl #7
 390:	20300000 	eorscs	r0, r0, r0
 394:	20003000 	andcs	r3, r0, r0
 398:	003d0900 	eorseq	r0, sp, r0, lsl #18
 39c:	000007fe 	strdeq	r0, [r0], -lr

000003a0 <bcm2835_emmc_issue_command>:
 3a0:	e92d4ff0 	push	{r4, r5, r6, r7, r8, r9, sl, fp, lr}
 3a4:	e1a06000 	mov	r6, r0
 3a8:	e1a04001 	mov	r4, r1
 3ac:	e3a00000 	mov	r0, #0
 3b0:	e1a08003 	mov	r8, r3
 3b4:	e59f144c 	ldr	r1, [pc, #1100]	; 808 <bcm2835_emmc_issue_command+0x468>
 3b8:	e24dd01c 	sub	sp, sp, #28
 3bc:	e5864038 	str	r4, [r6, #56]	; 0x38
 3c0:	e5860040 	str	r0, [r6, #64]	; 0x40
 3c4:	e5913024 	ldr	r3, [r1, #36]	; 0x24
 3c8:	e3130001 	tst	r3, #1
 3cc:	1afffffc 	bne	3c4 <bcm2835_emmc_issue_command+0x24>
 3d0:	e2043803 	and	r3, r4, #196608	; 0x30000
 3d4:	e3530803 	cmp	r3, #196608	; 0x30000
 3d8:	0a000043 	beq	4ec <bcm2835_emmc_issue_command+0x14c>
 3dc:	e3140602 	tst	r4, #2097152	; 0x200000
 3e0:	0a000012 	beq	430 <bcm2835_emmc_issue_command+0x90>
 3e4:	e5963060 	ldr	r3, [r6, #96]	; 0x60
 3e8:	e3530000 	cmp	r3, #0
 3ec:	0a00000f 	beq	430 <bcm2835_emmc_issue_command+0x90>
 3f0:	e5961058 	ldr	r1, [r6, #88]	; 0x58
 3f4:	e59f340c 	ldr	r3, [pc, #1036]	; 808 <bcm2835_emmc_issue_command+0x468>
 3f8:	e59f040c 	ldr	r0, [pc, #1036]	; 80c <bcm2835_emmc_issue_command+0x46c>
 3fc:	e3510801 	cmp	r1, #65536	; 0x10000
 400:	e5830000 	str	r0, [r3]
 404:	aa000036 	bge	4e4 <bcm2835_emmc_issue_command+0x144>
 408:	e596005c 	ldr	r0, [r6, #92]	; 0x5c
 40c:	e3844001 	orr	r4, r4, #1
 410:	e1801801 	orr	r1, r0, r1, lsl #16
 414:	e5831004 	str	r1, [r3, #4]
 418:	e3a01000 	mov	r1, #0
 41c:	e58d100c 	str	r1, [sp, #12]
 420:	e5832008 	str	r2, [r3, #8]
 424:	e3a03001 	mov	r3, #1
 428:	e58d3010 	str	r3, [sp, #16]
 42c:	ea00000b 	b	460 <bcm2835_emmc_issue_command+0xc0>
 430:	e5963058 	ldr	r3, [r6, #88]	; 0x58
 434:	e3530801 	cmp	r3, #65536	; 0x10000
 438:	aa000029 	bge	4e4 <bcm2835_emmc_issue_command+0x144>
 43c:	e596105c 	ldr	r1, [r6, #92]	; 0x5c
 440:	e59f03c0 	ldr	r0, [pc, #960]	; 808 <bcm2835_emmc_issue_command+0x468>
 444:	e1813803 	orr	r3, r1, r3, lsl #16
 448:	e5803004 	str	r3, [r0, #4]
 44c:	e3a03001 	mov	r3, #1
 450:	e58d300c 	str	r3, [sp, #12]
 454:	e3a03000 	mov	r3, #0
 458:	e5802008 	str	r2, [r0, #8]
 45c:	e58d3010 	str	r3, [sp, #16]
 460:	e59f53a0 	ldr	r5, [pc, #928]	; 808 <bcm2835_emmc_issue_command+0x468>
 464:	e3a00e7d 	mov	r0, #2000	; 0x7d0
 468:	e3a01000 	mov	r1, #0
 46c:	e585400c 	str	r4, [r5, #12]
 470:	ebfffffe 	bl	0 <udelay>
 474:	e59f3394 	ldr	r3, [pc, #916]	; 810 <bcm2835_emmc_issue_command+0x470>
 478:	e1a01005 	mov	r1, r5
 47c:	e1a0c003 	mov	ip, r3
 480:	e5933004 	ldr	r3, [r3, #4]
 484:	e5930000 	ldr	r0, [r3]
 488:	e0880000 	add	r0, r8, r0
 48c:	ea000003 	b	4a0 <bcm2835_emmc_issue_command+0x100>
 490:	e59c3004 	ldr	r3, [ip, #4]
 494:	e5933000 	ldr	r3, [r3]
 498:	e1500003 	cmp	r0, r3
 49c:	9a000004 	bls	4b4 <bcm2835_emmc_issue_command+0x114>
 4a0:	e5912030 	ldr	r2, [r1, #48]	; 0x30
 4a4:	e59f3368 	ldr	r3, [pc, #872]	; 814 <bcm2835_emmc_issue_command+0x474>
 4a8:	e0033002 	and	r3, r3, r2
 4ac:	e3530000 	cmp	r3, #0
 4b0:	0afffff6 	beq	490 <bcm2835_emmc_issue_command+0xf0>
 4b4:	e59f234c 	ldr	r2, [pc, #844]	; 808 <bcm2835_emmc_issue_command+0x468>
 4b8:	e59f3358 	ldr	r3, [pc, #856]	; 818 <bcm2835_emmc_issue_command+0x478>
 4bc:	e5921030 	ldr	r1, [r2, #48]	; 0x30
 4c0:	e5823030 	str	r3, [r2, #48]	; 0x30
 4c4:	e3c13cff 	bic	r3, r1, #65280	; 0xff00
 4c8:	e3c330fe 	bic	r3, r3, #254	; 0xfe
 4cc:	e3530001 	cmp	r3, #1
 4d0:	0a00000d 	beq	50c <bcm2835_emmc_issue_command+0x16c>
 4d4:	e1a03821 	lsr	r3, r1, #16
 4d8:	e1a03803 	lsl	r3, r3, #16
 4dc:	e5861028 	str	r1, [r6, #40]	; 0x28
 4e0:	e586302c 	str	r3, [r6, #44]	; 0x2c
 4e4:	e28dd01c 	add	sp, sp, #28
 4e8:	e8bd8ff0 	pop	{r4, r5, r6, r7, r8, r9, sl, fp, pc}
 4ec:	e2043503 	and	r3, r4, #12582912	; 0xc00000
 4f0:	e3530503 	cmp	r3, #12582912	; 0xc00000
 4f4:	0affffb8 	beq	3dc <bcm2835_emmc_issue_command+0x3c>
 4f8:	e59f1308 	ldr	r1, [pc, #776]	; 808 <bcm2835_emmc_issue_command+0x468>
 4fc:	e5913024 	ldr	r3, [r1, #36]	; 0x24
 500:	e3130002 	tst	r3, #2
 504:	1afffffc 	bne	4fc <bcm2835_emmc_issue_command+0x15c>
 508:	eaffffb3 	b	3dc <bcm2835_emmc_issue_command+0x3c>
 50c:	e204a803 	and	sl, r4, #196608	; 0x30000
 510:	e35a0802 	cmp	sl, #131072	; 0x20000
 514:	0a000065 	beq	6b0 <bcm2835_emmc_issue_command+0x310>
 518:	e35a0803 	cmp	sl, #196608	; 0x30000
 51c:	0a000063 	beq	6b0 <bcm2835_emmc_issue_command+0x310>
 520:	e35a0801 	cmp	sl, #65536	; 0x10000
 524:	1a000007 	bne	548 <bcm2835_emmc_issue_command+0x1a8>
 528:	e5923010 	ldr	r3, [r2, #16]
 52c:	e5863044 	str	r3, [r6, #68]	; 0x44
 530:	e5923014 	ldr	r3, [r2, #20]
 534:	e5863048 	str	r3, [r6, #72]	; 0x48
 538:	e5923018 	ldr	r3, [r2, #24]
 53c:	e586304c 	str	r3, [r6, #76]	; 0x4c
 540:	e592301c 	ldr	r3, [r2, #28]
 544:	e5863050 	str	r3, [r6, #80]	; 0x50
 548:	e1a03aa4 	lsr	r3, r4, #21
 54c:	e59d200c 	ldr	r2, [sp, #12]
 550:	e2033001 	and	r3, r3, #1
 554:	e1130002 	tst	r3, r2
 558:	e58d3008 	str	r3, [sp, #8]
 55c:	0a000037 	beq	640 <bcm2835_emmc_issue_command+0x2a0>
 560:	e59f32b4 	ldr	r3, [pc, #692]	; 81c <bcm2835_emmc_issue_command+0x47c>
 564:	e2044010 	and	r4, r4, #16
 568:	e3540000 	cmp	r4, #0
 56c:	13a03000 	movne	r3, #0
 570:	e59fe2a8 	ldr	lr, [pc, #680]	; 820 <bcm2835_emmc_issue_command+0x480>
 574:	01a0e003 	moveq	lr, r3
 578:	03a03001 	moveq	r3, #1
 57c:	e58d3004 	str	r3, [sp, #4]
 580:	13a03020 	movne	r3, #32
 584:	03a03010 	moveq	r3, #16
 588:	e59f2294 	ldr	r2, [pc, #660]	; 824 <bcm2835_emmc_issue_command+0x484>
 58c:	e596b058 	ldr	fp, [r6, #88]	; 0x58
 590:	e59f9290 	ldr	r9, [pc, #656]	; 828 <bcm2835_emmc_issue_command+0x488>
 594:	01a09002 	moveq	r9, r2
 598:	e35b0000 	cmp	fp, #0
 59c:	e1a02003 	mov	r2, r3
 5a0:	e5965054 	ldr	r5, [r6, #84]	; 0x54
 5a4:	da000025 	ble	640 <bcm2835_emmc_issue_command+0x2a0>
 5a8:	e58da014 	str	sl, [sp, #20]
 5ac:	e3a03000 	mov	r3, #0
 5b0:	e1a0a002 	mov	sl, r2
 5b4:	e59fc254 	ldr	ip, [pc, #596]	; 810 <bcm2835_emmc_issue_command+0x470>
 5b8:	e59f1248 	ldr	r1, [pc, #584]	; 808 <bcm2835_emmc_issue_command+0x468>
 5bc:	e59c2004 	ldr	r2, [ip, #4]
 5c0:	e5920000 	ldr	r0, [r2]
 5c4:	e0800008 	add	r0, r0, r8
 5c8:	ea000003 	b	5dc <bcm2835_emmc_issue_command+0x23c>
 5cc:	e59c2004 	ldr	r2, [ip, #4]
 5d0:	e5922000 	ldr	r2, [r2]
 5d4:	e1500002 	cmp	r0, r2
 5d8:	9a000002 	bls	5e8 <bcm2835_emmc_issue_command+0x248>
 5dc:	e5912030 	ldr	r2, [r1, #48]	; 0x30
 5e0:	e11e0002 	tst	lr, r2
 5e4:	0afffff8 	beq	5cc <bcm2835_emmc_issue_command+0x22c>
 5e8:	e5912030 	ldr	r2, [r1, #48]	; 0x30
 5ec:	e5819030 	str	r9, [r1, #48]	; 0x30
 5f0:	e0090002 	and	r0, r9, r2
 5f4:	e150000a 	cmp	r0, sl
 5f8:	1a000078 	bne	7e0 <bcm2835_emmc_issue_command+0x440>
 5fc:	e596005c 	ldr	r0, [r6, #92]	; 0x5c
 600:	e3500000 	cmp	r0, #0
 604:	0a000009 	beq	630 <bcm2835_emmc_issue_command+0x290>
 608:	e59d2004 	ldr	r2, [sp, #4]
 60c:	e3520000 	cmp	r2, #0
 610:	e1a02005 	mov	r2, r5
 614:	1a000015 	bne	670 <bcm2835_emmc_issue_command+0x2d0>
 618:	e5914020 	ldr	r4, [r1, #32]
 61c:	e4824004 	str	r4, [r2], #4
 620:	e0654002 	rsb	r4, r5, r2
 624:	e1540000 	cmp	r4, r0
 628:	3afffffa 	bcc	618 <bcm2835_emmc_issue_command+0x278>
 62c:	e1a05002 	mov	r5, r2
 630:	e2833001 	add	r3, r3, #1
 634:	e153000b 	cmp	r3, fp
 638:	1affffdf 	bne	5bc <bcm2835_emmc_issue_command+0x21c>
 63c:	e59da014 	ldr	sl, [sp, #20]
 640:	e59d3008 	ldr	r3, [sp, #8]
 644:	e35a0803 	cmp	sl, #196608	; 0x30000
 648:	03833001 	orreq	r3, r3, #1
 64c:	e3530000 	cmp	r3, #0
 650:	1a00000c 	bne	688 <bcm2835_emmc_issue_command+0x2e8>
 654:	e59d3010 	ldr	r3, [sp, #16]
 658:	e3530000 	cmp	r3, #0
 65c:	1a000017 	bne	6c0 <bcm2835_emmc_issue_command+0x320>
 660:	e3a03001 	mov	r3, #1
 664:	e5863040 	str	r3, [r6, #64]	; 0x40
 668:	e28dd01c 	add	sp, sp, #28
 66c:	e8bd8ff0 	pop	{r4, r5, r6, r7, r8, r9, sl, fp, pc}
 670:	e4924004 	ldr	r4, [r2], #4
 674:	e0657002 	rsb	r7, r5, r2
 678:	e1570000 	cmp	r7, r0
 67c:	e5814020 	str	r4, [r1, #32]
 680:	3afffffa 	bcc	670 <bcm2835_emmc_issue_command+0x2d0>
 684:	eaffffe8 	b	62c <bcm2835_emmc_issue_command+0x28c>
 688:	e59d300c 	ldr	r3, [sp, #12]
 68c:	e3530000 	cmp	r3, #0
 690:	0a00000a 	beq	6c0 <bcm2835_emmc_issue_command+0x320>
 694:	e59f116c 	ldr	r1, [pc, #364]	; 808 <bcm2835_emmc_issue_command+0x468>
 698:	e5913024 	ldr	r3, [r1, #36]	; 0x24
 69c:	e3130002 	tst	r3, #2
 6a0:	1a000035 	bne	77c <bcm2835_emmc_issue_command+0x3dc>
 6a4:	e59f3180 	ldr	r3, [pc, #384]	; 82c <bcm2835_emmc_issue_command+0x48c>
 6a8:	e5813030 	str	r3, [r1, #48]	; 0x30
 6ac:	eaffffeb 	b	660 <bcm2835_emmc_issue_command+0x2c0>
 6b0:	e59f3150 	ldr	r3, [pc, #336]	; 808 <bcm2835_emmc_issue_command+0x468>
 6b4:	e5933010 	ldr	r3, [r3, #16]
 6b8:	e5863044 	str	r3, [r6, #68]	; 0x44
 6bc:	eaffffa1 	b	548 <bcm2835_emmc_issue_command+0x1a8>
 6c0:	e59f1140 	ldr	r1, [pc, #320]	; 808 <bcm2835_emmc_issue_command+0x468>
 6c4:	e5913024 	ldr	r3, [r1, #36]	; 0x24
 6c8:	e3130002 	tst	r3, #2
 6cc:	059f315c 	ldreq	r3, [pc, #348]	; 830 <bcm2835_emmc_issue_command+0x490>
 6d0:	05813030 	streq	r3, [r1, #48]	; 0x30
 6d4:	0affffe1 	beq	660 <bcm2835_emmc_issue_command+0x2c0>
 6d8:	e59f3130 	ldr	r3, [pc, #304]	; 810 <bcm2835_emmc_issue_command+0x470>
 6dc:	e1a00003 	mov	r0, r3
 6e0:	e5933004 	ldr	r3, [r3, #4]
 6e4:	e5933000 	ldr	r3, [r3]
 6e8:	e0838008 	add	r8, r3, r8
 6ec:	ea000003 	b	700 <bcm2835_emmc_issue_command+0x360>
 6f0:	e5903004 	ldr	r3, [r0, #4]
 6f4:	e5933000 	ldr	r3, [r3]
 6f8:	e1580003 	cmp	r8, r3
 6fc:	9a000004 	bls	714 <bcm2835_emmc_issue_command+0x374>
 700:	e5912030 	ldr	r2, [r1, #48]	; 0x30
 704:	e59f3128 	ldr	r3, [pc, #296]	; 834 <bcm2835_emmc_issue_command+0x494>
 708:	e0033002 	and	r3, r3, r2
 70c:	e3530000 	cmp	r3, #0
 710:	0afffff6 	beq	6f0 <bcm2835_emmc_issue_command+0x350>
 714:	e59f10ec 	ldr	r1, [pc, #236]	; 808 <bcm2835_emmc_issue_command+0x468>
 718:	e59f2118 	ldr	r2, [pc, #280]	; 838 <bcm2835_emmc_issue_command+0x498>
 71c:	e5913030 	ldr	r3, [r1, #48]	; 0x30
 720:	e59f0108 	ldr	r0, [pc, #264]	; 830 <bcm2835_emmc_issue_command+0x490>
 724:	e0022003 	and	r2, r2, r3
 728:	e3520902 	cmp	r2, #32768	; 0x8000
 72c:	e5810030 	str	r0, [r1, #48]	; 0x30
 730:	0a00000c 	beq	768 <bcm2835_emmc_issue_command+0x3c8>
 734:	e203200a 	and	r2, r3, #10
 738:	e3520008 	cmp	r2, #8
 73c:	0a000009 	beq	768 <bcm2835_emmc_issue_command+0x3c8>
 740:	e3130002 	tst	r3, #2
 744:	1a00002a 	bne	7f4 <bcm2835_emmc_issue_command+0x454>
 748:	e3530000 	cmp	r3, #0
 74c:	1a000005 	bne	768 <bcm2835_emmc_issue_command+0x3c8>
 750:	e5912024 	ldr	r2, [r1, #36]	; 0x24
 754:	e2022003 	and	r2, r2, #3
 758:	e3520002 	cmp	r2, #2
 75c:	059f20d8 	ldreq	r2, [pc, #216]	; 83c <bcm2835_emmc_issue_command+0x49c>
 760:	05922030 	ldreq	r2, [r2, #48]	; 0x30
 764:	0581200c 	streq	r2, [r1, #12]
 768:	e1a02823 	lsr	r2, r3, #16
 76c:	e1a02802 	lsl	r2, r2, #16
 770:	e5863028 	str	r3, [r6, #40]	; 0x28
 774:	e586202c 	str	r2, [r6, #44]	; 0x2c
 778:	eaffff59 	b	4e4 <bcm2835_emmc_issue_command+0x144>
 77c:	e59f308c 	ldr	r3, [pc, #140]	; 810 <bcm2835_emmc_issue_command+0x470>
 780:	e1a00003 	mov	r0, r3
 784:	e5933004 	ldr	r3, [r3, #4]
 788:	e5933000 	ldr	r3, [r3]
 78c:	e0838008 	add	r8, r3, r8
 790:	ea000003 	b	7a4 <bcm2835_emmc_issue_command+0x404>
 794:	e5903004 	ldr	r3, [r0, #4]
 798:	e5933000 	ldr	r3, [r3]
 79c:	e1580003 	cmp	r8, r3
 7a0:	9a000004 	bls	7b8 <bcm2835_emmc_issue_command+0x418>
 7a4:	e5912030 	ldr	r2, [r1, #48]	; 0x30
 7a8:	e59f3088 	ldr	r3, [pc, #136]	; 838 <bcm2835_emmc_issue_command+0x498>
 7ac:	e0033002 	and	r3, r3, r2
 7b0:	e3530000 	cmp	r3, #0
 7b4:	0afffff6 	beq	794 <bcm2835_emmc_issue_command+0x3f4>
 7b8:	e59f2048 	ldr	r2, [pc, #72]	; 808 <bcm2835_emmc_issue_command+0x468>
 7bc:	e59f307c 	ldr	r3, [pc, #124]	; 840 <bcm2835_emmc_issue_command+0x4a0>
 7c0:	e5921030 	ldr	r1, [r2, #48]	; 0x30
 7c4:	e59f0060 	ldr	r0, [pc, #96]	; 82c <bcm2835_emmc_issue_command+0x48c>
 7c8:	e0033001 	and	r3, r3, r1
 7cc:	e3530002 	cmp	r3, #2
 7d0:	e5820030 	str	r0, [r2, #48]	; 0x30
 7d4:	05820030 	streq	r0, [r2, #48]	; 0x30
 7d8:	0affffa0 	beq	660 <bcm2835_emmc_issue_command+0x2c0>
 7dc:	eaffff3c 	b	4d4 <bcm2835_emmc_issue_command+0x134>
 7e0:	e1a03822 	lsr	r3, r2, #16
 7e4:	e1a03803 	lsl	r3, r3, #16
 7e8:	e5862028 	str	r2, [r6, #40]	; 0x28
 7ec:	e586302c 	str	r3, [r6, #44]	; 0x2c
 7f0:	eaffff3b 	b	4e4 <bcm2835_emmc_issue_command+0x144>
 7f4:	e5960054 	ldr	r0, [r6, #84]	; 0x54
 7f8:	e3a01a06 	mov	r1, #24576	; 0x6000
 7fc:	e596205c 	ldr	r2, [r6, #92]	; 0x5c
 800:	ebfffffe 	bl	0 <memcpy>
 804:	eaffff95 	b	660 <bcm2835_emmc_issue_command+0x2c0>
 808:	20300000 	eorscs	r0, r0, r0
 80c:	c0006000 	andgt	r6, r0, r0
 810:	20003000 	andcs	r3, r0, r0
 814:	00008001 	andeq	r8, r0, r1
 818:	ffff0001 			; <UNDEFINED> instruction: 0xffff0001
 81c:	00008010 	andeq	r8, r0, r0, lsl r0
 820:	00008020 	andeq	r8, r0, r0, lsr #32
 824:	ffff0010 			; <UNDEFINED> instruction: 0xffff0010
 828:	ffff0020 			; <UNDEFINED> instruction: 0xffff0020
 82c:	ffff0002 			; <UNDEFINED> instruction: 0xffff0002
 830:	ffff000a 			; <UNDEFINED> instruction: 0xffff000a
 834:	0000800a 	andeq	r8, r0, sl
 838:	00008002 	andeq	r8, r0, r2
 83c:	00000000 	andeq	r0, r0, r0
 840:	ffef0002 			; <UNDEFINED> instruction: 0xffef0002

00000844 <bcm2835_emmc_handle_interrupts>:
 844:	e92d4038 	push	{r3, r4, r5, lr}
 848:	e59f314c 	ldr	r3, [pc, #332]	; 99c <bcm2835_emmc_handle_interrupts+0x158>
 84c:	e5935030 	ldr	r5, [r3, #48]	; 0x30
 850:	e2054001 	and	r4, r5, #1
 854:	e3150002 	tst	r5, #2
 858:	13844002 	orrne	r4, r4, #2
 85c:	e3150004 	tst	r5, #4
 860:	13844004 	orrne	r4, r4, #4
 864:	e3150008 	tst	r5, #8
 868:	13844008 	orrne	r4, r4, #8
 86c:	e3150010 	tst	r5, #16
 870:	1a00000f 	bne	8b4 <bcm2835_emmc_handle_interrupts+0x70>
 874:	e3150020 	tst	r5, #32
 878:	1a000025 	bne	914 <bcm2835_emmc_handle_interrupts+0xd0>
 87c:	e3150040 	tst	r5, #64	; 0x40
 880:	13844040 	orrne	r4, r4, #64	; 0x40
 884:	e3150080 	tst	r5, #128	; 0x80
 888:	13a03001 	movne	r3, #1
 88c:	13844080 	orrne	r4, r4, #128	; 0x80
 890:	15803064 	strne	r3, [r0, #100]	; 0x64
 894:	e3150c01 	tst	r5, #256	; 0x100
 898:	1a000034 	bne	970 <bcm2835_emmc_handle_interrupts+0x12c>
 89c:	e3150902 	tst	r5, #32768	; 0x8000
 8a0:	11e04804 	mvnne	r4, r4, lsl #16
 8a4:	11e04824 	mvnne	r4, r4, lsr #16
 8a8:	e59f30ec 	ldr	r3, [pc, #236]	; 99c <bcm2835_emmc_handle_interrupts+0x158>
 8ac:	e5834030 	str	r4, [r3, #48]	; 0x30
 8b0:	e8bd8038 	pop	{r3, r4, r5, pc}
 8b4:	e59f30e0 	ldr	r3, [pc, #224]	; 99c <bcm2835_emmc_handle_interrupts+0x158>
 8b8:	e59fe0e0 	ldr	lr, [pc, #224]	; 9a0 <bcm2835_emmc_handle_interrupts+0x15c>
 8bc:	e593202c 	ldr	r2, [r3, #44]	; 0x2c
 8c0:	e1a01003 	mov	r1, r3
 8c4:	e3822301 	orr	r2, r2, #67108864	; 0x4000000
 8c8:	e583202c 	str	r2, [r3, #44]	; 0x2c
 8cc:	e59e3004 	ldr	r3, [lr, #4]
 8d0:	e1a0c00e 	mov	ip, lr
 8d4:	e5932000 	ldr	r2, [r3]
 8d8:	e3844010 	orr	r4, r4, #16
 8dc:	e282293d 	add	r2, r2, #999424	; 0xf4000
 8e0:	e2822d09 	add	r2, r2, #576	; 0x240
 8e4:	ea000003 	b	8f8 <bcm2835_emmc_handle_interrupts+0xb4>
 8e8:	e59c3004 	ldr	r3, [ip, #4]
 8ec:	e5933000 	ldr	r3, [r3]
 8f0:	e1520003 	cmp	r2, r3
 8f4:	9a000002 	bls	904 <bcm2835_emmc_handle_interrupts+0xc0>
 8f8:	e591302c 	ldr	r3, [r1, #44]	; 0x2c
 8fc:	e3130301 	tst	r3, #67108864	; 0x4000000
 900:	1afffff8 	bne	8e8 <bcm2835_emmc_handle_interrupts+0xa4>
 904:	e59f3090 	ldr	r3, [pc, #144]	; 99c <bcm2835_emmc_handle_interrupts+0x158>
 908:	e3150020 	tst	r5, #32
 90c:	e593302c 	ldr	r3, [r3, #44]	; 0x2c
 910:	0affffd9 	beq	87c <bcm2835_emmc_handle_interrupts+0x38>
 914:	e59f3080 	ldr	r3, [pc, #128]	; 99c <bcm2835_emmc_handle_interrupts+0x158>
 918:	e59fe080 	ldr	lr, [pc, #128]	; 9a0 <bcm2835_emmc_handle_interrupts+0x15c>
 91c:	e593202c 	ldr	r2, [r3, #44]	; 0x2c
 920:	e1a01003 	mov	r1, r3
 924:	e3822301 	orr	r2, r2, #67108864	; 0x4000000
 928:	e583202c 	str	r2, [r3, #44]	; 0x2c
 92c:	e59e3004 	ldr	r3, [lr, #4]
 930:	e1a0c00e 	mov	ip, lr
 934:	e5932000 	ldr	r2, [r3]
 938:	e3844020 	orr	r4, r4, #32
 93c:	e282293d 	add	r2, r2, #999424	; 0xf4000
 940:	e2822d09 	add	r2, r2, #576	; 0x240
 944:	ea000003 	b	958 <bcm2835_emmc_handle_interrupts+0x114>
 948:	e59c3004 	ldr	r3, [ip, #4]
 94c:	e5933000 	ldr	r3, [r3]
 950:	e1520003 	cmp	r2, r3
 954:	9a000002 	bls	964 <bcm2835_emmc_handle_interrupts+0x120>
 958:	e591302c 	ldr	r3, [r1, #44]	; 0x2c
 95c:	e3130301 	tst	r3, #67108864	; 0x4000000
 960:	1afffff8 	bne	948 <bcm2835_emmc_handle_interrupts+0x104>
 964:	e59f3030 	ldr	r3, [pc, #48]	; 99c <bcm2835_emmc_handle_interrupts+0x158>
 968:	e593302c 	ldr	r3, [r3, #44]	; 0x2c
 96c:	eaffffc2 	b	87c <bcm2835_emmc_handle_interrupts+0x38>
 970:	e5902024 	ldr	r2, [r0, #36]	; 0x24
 974:	e3520000 	cmp	r2, #0
 978:	03844c01 	orreq	r4, r4, #256	; 0x100
 97c:	0affffc6 	beq	89c <bcm2835_emmc_handle_interrupts+0x58>
 980:	e59f301c 	ldr	r3, [pc, #28]	; 9a4 <bcm2835_emmc_handle_interrupts+0x160>
 984:	e1a02802 	lsl	r2, r2, #16
 988:	e5931034 	ldr	r1, [r3, #52]	; 0x34
 98c:	e59f3014 	ldr	r3, [pc, #20]	; 9a8 <bcm2835_emmc_handle_interrupts+0x164>
 990:	ebfffffe 	bl	3a0 <bcm2835_emmc_issue_command>
 994:	e3844c01 	orr	r4, r4, #256	; 0x100
 998:	eaffffbf 	b	89c <bcm2835_emmc_handle_interrupts+0x58>
 99c:	20300000 	eorscs	r0, r0, r0
 9a0:	20003000 	andcs	r3, r0, r0
 9a4:	00000000 	andeq	r0, r0, r0
 9a8:	0007a120 	andeq	sl, r7, r0, lsr #2

000009ac <bcm2835_emmc_enable_all_interrupts_not_arm>:
 9ac:	e3a00000 	mov	r0, #0
 9b0:	e3e01000 	mvn	r1, #0
 9b4:	e3e02c01 	mvn	r2, #256	; 0x100
 9b8:	e59f300c 	ldr	r3, [pc, #12]	; 9cc <bcm2835_emmc_enable_all_interrupts_not_arm+0x20>
 9bc:	e5830038 	str	r0, [r3, #56]	; 0x38
 9c0:	e5831030 	str	r1, [r3, #48]	; 0x30
 9c4:	e5832034 	str	r2, [r3, #52]	; 0x34
 9c8:	e12fff1e 	bx	lr
 9cc:	20300000 	eorscs	r0, r0, r0

000009d0 <bcm2835_emmc_disable_card_interrupt>:
 9d0:	e59f300c 	ldr	r3, [pc, #12]	; 9e4 <bcm2835_emmc_disable_card_interrupt+0x14>
 9d4:	e5930034 	ldr	r0, [r3, #52]	; 0x34
 9d8:	e3c02c01 	bic	r2, r0, #256	; 0x100
 9dc:	e5832034 	str	r2, [r3, #52]	; 0x34
 9e0:	e12fff1e 	bx	lr
 9e4:	20300000 	eorscs	r0, r0, r0

000009e8 <bcm2835_emmc_4bit_mode_change_bit>:
 9e8:	e59f3010 	ldr	r3, [pc, #16]	; a00 <bcm2835_emmc_4bit_mode_change_bit+0x18>
 9ec:	e5932028 	ldr	r2, [r3, #40]	; 0x28
 9f0:	e3822002 	orr	r2, r2, #2
 9f4:	e5832028 	str	r2, [r3, #40]	; 0x28
 9f8:	e5830034 	str	r0, [r3, #52]	; 0x34
 9fc:	e12fff1e 	bx	lr
 a00:	20300000 	eorscs	r0, r0, r0

00000a04 <bcm2835_emmc_set_block_size>:
 a04:	e59f2014 	ldr	r2, [pc, #20]	; a20 <bcm2835_emmc_set_block_size+0x1c>
 a08:	e5923004 	ldr	r3, [r2, #4]
 a0c:	e3c33eff 	bic	r3, r3, #4080	; 0xff0
 a10:	e3c3300f 	bic	r3, r3, #15
 a14:	e1800003 	orr	r0, r0, r3
 a18:	e5820004 	str	r0, [r2, #4]
 a1c:	e12fff1e 	bx	lr
 a20:	20300000 	eorscs	r0, r0, r0

00000a24 <bcm2835_emmc_reset_interrupt_register>:
 a24:	e3e02000 	mvn	r2, #0
 a28:	e59f3004 	ldr	r3, [pc, #4]	; a34 <bcm2835_emmc_reset_interrupt_register+0x10>
 a2c:	e5832030 	str	r2, [r3, #48]	; 0x30
 a30:	e12fff1e 	bx	lr
 a34:	20300000 	eorscs	r0, r0, r0

Disassembly of section .comment:

00000000 <.comment>:
   0:	43434700 	movtmi	r4, #14080	; 0x3700
   4:	4728203a 			; <UNDEFINED> instruction: 0x4728203a
   8:	2029554e 	eorcs	r5, r9, lr, asr #10
   c:	2e392e34 	mrccs	14, 1, r2, cr9, cr4, {1}
  10:	Address 0x0000000000000010 is out of bounds.


Disassembly of section .ARM.attributes:

00000000 <.ARM.attributes>:
   0:	00003d41 	andeq	r3, r0, r1, asr #26
   4:	61656100 	cmnvs	r5, r0, lsl #2
   8:	01006962 	tsteq	r0, r2, ror #18
   c:	00000033 	andeq	r0, r0, r3, lsr r0
  10:	4d524105 	ldfmie	f4, [r2, #-20]	; 0xffffffec
  14:	36373131 			; <UNDEFINED> instruction: 0x36373131
  18:	2d465a4a 	vstrcs	s11, [r6, #-296]	; 0xfffffed8
  1c:	07060053 	smlsdeq	r6, r3, r0, r0
  20:	01090108 	tsteq	r9, r8, lsl #2
  24:	0412020a 	ldreq	r0, [r2], #-522	; 0xfffffdf6
  28:	01150114 	tsteq	r5, r4, lsl r1
  2c:	01180317 	tsteq	r8, r7, lsl r3
  30:	011a0119 	tsteq	sl, r9, lsl r1
  34:	011c031b 	tsteq	ip, fp, lsl r3
  38:	0122021e 	teqeq	r2, lr, lsl r2
  3c:	Address 0x000000000000003c is out of bounds.


sd.o:     file format elf32-littlearm


Disassembly of section .text:

00000000 <sd_card_init>:
   0:	e92d40f8 	push	{r3, r4, r5, r6, r7, lr}
   4:	e1a05000 	mov	r5, r0
   8:	ebfffffe 	bl	0 <bcm2825_emmc_init>
   c:	e3500000 	cmp	r0, #0
  10:	1a000101 	bne	41c <sd_card_init+0x41c>
  14:	ebfffffe 	bl	0 <bcm2835_emmc_enable_all_interrupts_not_arm>
  18:	e3a00e7d 	mov	r0, #2000	; 0x7d0
  1c:	ebfffffe 	bl	0 <udelay>
  20:	e5954000 	ldr	r4, [r5]
  24:	e3540000 	cmp	r4, #0
  28:	0a0000fe 	beq	428 <sd_card_init+0x428>
  2c:	e3a01000 	mov	r1, #0
  30:	e3a02068 	mov	r2, #104	; 0x68
  34:	e1a00004 	mov	r0, r4
  38:	ebfffffe 	bl	0 <memset>
  3c:	e3a06001 	mov	r6, #1
  40:	e3a02c02 	mov	r2, #512	; 0x200
  44:	e59f3788 	ldr	r3, [pc, #1928]	; 7d4 <sd_card_init+0x7d4>
  48:	e5842010 	str	r2, [r4, #16]
  4c:	e5843008 	str	r3, [r4, #8]
  50:	e5846000 	str	r6, [r4]
  54:	e5846004 	str	r6, [r4, #4]
  58:	e1a00004 	mov	r0, r4
  5c:	ebfffffe 	bl	0 <bcm2835_emmc_handle_interrupts>
  60:	e5947064 	ldr	r7, [r4, #100]	; 0x64
  64:	e3570000 	cmp	r7, #0
  68:	13a03000 	movne	r3, #0
  6c:	15843040 	strne	r3, [r4, #64]	; 0x40
  70:	1a00014b 	bne	5a4 <sd_card_init+0x5a4>
  74:	e59f375c 	ldr	r3, [pc, #1884]	; 7d8 <sd_card_init+0x7d8>
  78:	e584703c 	str	r7, [r4, #60]	; 0x3c
  7c:	e1a00004 	mov	r0, r4
  80:	e1a01007 	mov	r1, r7
  84:	e1a02007 	mov	r2, r7
  88:	ebfffffe 	bl	0 <bcm2835_emmc_issue_command>
  8c:	e5943040 	ldr	r3, [r4, #64]	; 0x40
  90:	e3530000 	cmp	r3, #0
  94:	0a000142 	beq	5a4 <sd_card_init+0x5a4>
  98:	e1a00004 	mov	r0, r4
  9c:	ebfffffe 	bl	0 <bcm2835_emmc_handle_interrupts>
  a0:	e5943064 	ldr	r3, [r4, #100]	; 0x64
  a4:	e3530000 	cmp	r3, #0
  a8:	15847040 	strne	r7, [r4, #64]	; 0x40
  ac:	1a000023 	bne	140 <sd_card_init+0x140>
  b0:	e3a03008 	mov	r3, #8
  b4:	e59f7720 	ldr	r7, [pc, #1824]	; 7dc <sd_card_init+0x7dc>
  b8:	e584303c 	str	r3, [r4, #60]	; 0x3c
  bc:	e1a02007 	mov	r2, r7
  c0:	e59f3710 	ldr	r3, [pc, #1808]	; 7d8 <sd_card_init+0x7d8>
  c4:	e1a00004 	mov	r0, r4
  c8:	e59f1710 	ldr	r1, [pc, #1808]	; 7e0 <sd_card_init+0x7e0>
  cc:	ebfffffe 	bl	0 <bcm2835_emmc_issue_command>
  d0:	e5943040 	ldr	r3, [r4, #64]	; 0x40
  d4:	e3530000 	cmp	r3, #0
  d8:	0a000018 	beq	140 <sd_card_init+0x140>
  dc:	e5943044 	ldr	r3, [r4, #68]	; 0x44
  e0:	e1a03a03 	lsl	r3, r3, #20
  e4:	e1570a23 	cmp	r7, r3, lsr #20
  e8:	1a000131 	bne	5b4 <sd_card_init+0x5b4>
  ec:	e1a00004 	mov	r0, r4
  f0:	ebfffffe 	bl	0 <bcm2835_emmc_handle_interrupts>
  f4:	e5942064 	ldr	r2, [r4, #100]	; 0x64
  f8:	e3520000 	cmp	r2, #0
  fc:	13a03000 	movne	r3, #0
 100:	15843040 	strne	r3, [r4, #64]	; 0x40
 104:	1a000017 	bne	168 <sd_card_init+0x168>
 108:	e3a03005 	mov	r3, #5
 10c:	e1a00004 	mov	r0, r4
 110:	e584303c 	str	r3, [r4, #60]	; 0x3c
 114:	e59f16c8 	ldr	r1, [pc, #1736]	; 7e4 <sd_card_init+0x7e4>
 118:	e59f36c8 	ldr	r3, [pc, #1736]	; 7e8 <sd_card_init+0x7e8>
 11c:	ebfffffe 	bl	0 <bcm2835_emmc_issue_command>
 120:	e5943040 	ldr	r3, [r4, #64]	; 0x40
 124:	e3530000 	cmp	r3, #0
 128:	0a00000e 	beq	168 <sd_card_init+0x168>
 12c:	e59f06b8 	ldr	r0, [pc, #1720]	; 7ec <sd_card_init+0x7ec>
 130:	ebfffffe 	bl	0 <printf>
 134:	e3e06000 	mvn	r6, #0
 138:	e1a00006 	mov	r0, r6
 13c:	e8bd80f8 	pop	{r3, r4, r5, r6, r7, pc}
 140:	e594302c 	ldr	r3, [r4, #44]	; 0x2c
 144:	e3530000 	cmp	r3, #0
 148:	0a000028 	beq	1f0 <sd_card_init+0x1f0>
 14c:	e3130801 	tst	r3, #65536	; 0x10000
 150:	1a000023 	bne	1e4 <sd_card_init+0x1e4>
 154:	e5941028 	ldr	r1, [r4, #40]	; 0x28
 158:	e59f0690 	ldr	r0, [pc, #1680]	; 7f0 <sd_card_init+0x7f0>
 15c:	ebfffffe 	bl	0 <printf>
 160:	e3e06000 	mvn	r6, #0
 164:	eafffff3 	b	138 <sd_card_init+0x138>
 168:	e594302c 	ldr	r3, [r4, #44]	; 0x2c
 16c:	e3530000 	cmp	r3, #0
 170:	0a000004 	beq	188 <sd_card_init+0x188>
 174:	e3130801 	tst	r3, #65536	; 0x10000
 178:	0affffeb 	beq	12c <sd_card_init+0x12c>
 17c:	ebfffffe 	bl	0 <bcm2835_emmc_reset_cmd>
 180:	e3700001 	cmn	r0, #1
 184:	0a0000a4 	beq	41c <sd_card_init+0x41c>
 188:	e1a00004 	mov	r0, r4
 18c:	ebfffffe 	bl	0 <bcm2835_emmc_handle_interrupts>
 190:	e5943064 	ldr	r3, [r4, #100]	; 0x64
 194:	e3530000 	cmp	r3, #0
 198:	13a03000 	movne	r3, #0
 19c:	15843040 	strne	r3, [r4, #64]	; 0x40
 1a0:	1a00000b 	bne	1d4 <sd_card_init+0x1d4>
 1a4:	e3a03037 	mov	r3, #55	; 0x37
 1a8:	e5942024 	ldr	r2, [r4, #36]	; 0x24
 1ac:	e584303c 	str	r3, [r4, #60]	; 0x3c
 1b0:	e3520000 	cmp	r2, #0
 1b4:	11a02802 	lslne	r2, r2, #16
 1b8:	e59f3618 	ldr	r3, [pc, #1560]	; 7d8 <sd_card_init+0x7d8>
 1bc:	e1a00004 	mov	r0, r4
 1c0:	e59f162c 	ldr	r1, [pc, #1580]	; 7f4 <sd_card_init+0x7f4>
 1c4:	ebfffffe 	bl	0 <bcm2835_emmc_issue_command>
 1c8:	e5943040 	ldr	r3, [r4, #64]	; 0x40
 1cc:	e3530000 	cmp	r3, #0
 1d0:	1a000098 	bne	438 <sd_card_init+0x438>
 1d4:	e59f061c 	ldr	r0, [pc, #1564]	; 7f8 <sd_card_init+0x7f8>
 1d8:	ebfffffe 	bl	0 <printf>
 1dc:	e3e06000 	mvn	r6, #0
 1e0:	eaffffd4 	b	138 <sd_card_init+0x138>
 1e4:	ebfffffe 	bl	0 <bcm2835_emmc_reset_cmd>
 1e8:	e3700001 	cmn	r0, #1
 1ec:	0a00008a 	beq	41c <sd_card_init+0x41c>
 1f0:	e3a06000 	mov	r6, #0
 1f4:	eaffffbc 	b	ec <sd_card_init+0xec>
 1f8:	e1a02423 	lsr	r2, r3, #8
 1fc:	e1a03f23 	lsr	r3, r3, #30
 200:	e6ff2072 	uxth	r2, r2
 204:	e2033001 	and	r3, r3, #1
 208:	e5842020 	str	r2, [r4, #32]
 20c:	e5843018 	str	r3, [r4, #24]
 210:	e59f05e4 	ldr	r0, [pc, #1508]	; 7fc <sd_card_init+0x7fc>
 214:	ebfffffe 	bl	0 <bcm2835_emmc_set_clock>
 218:	e59f05e0 	ldr	r0, [pc, #1504]	; 800 <sd_card_init+0x800>
 21c:	ebfffffe 	bl	0 <udelay>
 220:	e1a00004 	mov	r0, r4
 224:	ebfffffe 	bl	0 <bcm2835_emmc_handle_interrupts>
 228:	e5946064 	ldr	r6, [r4, #100]	; 0x64
 22c:	e3560000 	cmp	r6, #0
 230:	1a0000d5 	bne	58c <sd_card_init+0x58c>
 234:	e3a03002 	mov	r3, #2
 238:	e1a00004 	mov	r0, r4
 23c:	e584303c 	str	r3, [r4, #60]	; 0x3c
 240:	e59f15bc 	ldr	r1, [pc, #1468]	; 804 <sd_card_init+0x804>
 244:	e59f358c 	ldr	r3, [pc, #1420]	; 7d8 <sd_card_init+0x7d8>
 248:	e1a02006 	mov	r2, r6
 24c:	ebfffffe 	bl	0 <bcm2835_emmc_issue_command>
 250:	e5943040 	ldr	r3, [r4, #64]	; 0x40
 254:	e3530000 	cmp	r3, #0
 258:	0a0000cd 	beq	594 <sd_card_init+0x594>
 25c:	e1a00004 	mov	r0, r4
 260:	ebfffffe 	bl	0 <bcm2835_emmc_handle_interrupts>
 264:	e5942064 	ldr	r2, [r4, #100]	; 0x64
 268:	e3520000 	cmp	r2, #0
 26c:	15846040 	strne	r6, [r4, #64]	; 0x40
 270:	1a000138 	bne	758 <sd_card_init+0x758>
 274:	e3a03003 	mov	r3, #3
 278:	e1a00004 	mov	r0, r4
 27c:	e584303c 	str	r3, [r4, #60]	; 0x3c
 280:	e59f1580 	ldr	r1, [pc, #1408]	; 808 <sd_card_init+0x808>
 284:	e59f354c 	ldr	r3, [pc, #1356]	; 7d8 <sd_card_init+0x7d8>
 288:	ebfffffe 	bl	0 <bcm2835_emmc_issue_command>
 28c:	e5943040 	ldr	r3, [r4, #64]	; 0x40
 290:	e3530000 	cmp	r3, #0
 294:	0a00012f 	beq	758 <sd_card_init+0x758>
 298:	e5943044 	ldr	r3, [r4, #68]	; 0x44
 29c:	e1a07823 	lsr	r7, r3, #16
 2a0:	e1a01723 	lsr	r1, r3, #14
 2a4:	e1a066a3 	lsr	r6, r3, #13
 2a8:	e3130902 	tst	r3, #32768	; 0x8000
 2ac:	e1a03423 	lsr	r3, r3, #8
 2b0:	e5847024 	str	r7, [r4, #36]	; 0x24
 2b4:	e2011001 	and	r1, r1, #1
 2b8:	e2066001 	and	r6, r6, #1
 2bc:	e2033001 	and	r3, r3, #1
 2c0:	1a00011e 	bne	740 <sd_card_init+0x740>
 2c4:	e3510000 	cmp	r1, #0
 2c8:	1a000116 	bne	728 <sd_card_init+0x728>
 2cc:	e3560000 	cmp	r6, #0
 2d0:	1a00010e 	bne	710 <sd_card_init+0x710>
 2d4:	e3530000 	cmp	r3, #0
 2d8:	0a000106 	beq	6f8 <sd_card_init+0x6f8>
 2dc:	e1a00004 	mov	r0, r4
 2e0:	ebfffffe 	bl	0 <bcm2835_emmc_handle_interrupts>
 2e4:	e5943064 	ldr	r3, [r4, #100]	; 0x64
 2e8:	e3530000 	cmp	r3, #0
 2ec:	15846040 	strne	r6, [r4, #64]	; 0x40
 2f0:	1a00011e 	bne	770 <sd_card_init+0x770>
 2f4:	e3a03007 	mov	r3, #7
 2f8:	e1a02807 	lsl	r2, r7, #16
 2fc:	e584303c 	str	r3, [r4, #60]	; 0x3c
 300:	e1a00004 	mov	r0, r4
 304:	e59f34cc 	ldr	r3, [pc, #1228]	; 7d8 <sd_card_init+0x7d8>
 308:	e59f14fc 	ldr	r1, [pc, #1276]	; 80c <sd_card_init+0x80c>
 30c:	ebfffffe 	bl	0 <bcm2835_emmc_issue_command>
 310:	e5943040 	ldr	r3, [r4, #64]	; 0x40
 314:	e3530000 	cmp	r3, #0
 318:	0a000114 	beq	770 <sd_card_init+0x770>
 31c:	e5941044 	ldr	r1, [r4, #68]	; 0x44
 320:	e1a014a1 	lsr	r1, r1, #9
 324:	e201100f 	and	r1, r1, #15
 328:	e2413003 	sub	r3, r1, #3
 32c:	e3530001 	cmp	r3, #1
 330:	8a0000a3 	bhi	5c4 <sd_card_init+0x5c4>
 334:	e5946018 	ldr	r6, [r4, #24]
 338:	e3560000 	cmp	r6, #0
 33c:	1a00000f 	bne	380 <sd_card_init+0x380>
 340:	e1a00004 	mov	r0, r4
 344:	ebfffffe 	bl	0 <bcm2835_emmc_handle_interrupts>
 348:	e5943064 	ldr	r3, [r4, #100]	; 0x64
 34c:	e3530000 	cmp	r3, #0
 350:	15846040 	strne	r6, [r4, #64]	; 0x40
 354:	1a000118 	bne	7bc <sd_card_init+0x7bc>
 358:	e3a03010 	mov	r3, #16
 35c:	e1a00004 	mov	r0, r4
 360:	e584303c 	str	r3, [r4, #60]	; 0x3c
 364:	e59f14a4 	ldr	r1, [pc, #1188]	; 810 <sd_card_init+0x810>
 368:	e59f3468 	ldr	r3, [pc, #1128]	; 7d8 <sd_card_init+0x7d8>
 36c:	e3a02c02 	mov	r2, #512	; 0x200
 370:	ebfffffe 	bl	0 <bcm2835_emmc_issue_command>
 374:	e5943040 	ldr	r3, [r4, #64]	; 0x40
 378:	e3530000 	cmp	r3, #0
 37c:	0a00010e 	beq	7bc <sd_card_init+0x7bc>
 380:	e3a00c02 	mov	r0, #512	; 0x200
 384:	e584005c 	str	r0, [r4, #92]	; 0x5c
 388:	ebfffffe 	bl	0 <bcm2835_emmc_set_block_size>
 38c:	e3a00010 	mov	r0, #16
 390:	ebfffffe 	bl	0 <malloc>
 394:	e3a03001 	mov	r3, #1
 398:	e3a02008 	mov	r2, #8
 39c:	e5840030 	str	r0, [r4, #48]	; 0x30
 3a0:	e5840054 	str	r0, [r4, #84]	; 0x54
 3a4:	e5843058 	str	r3, [r4, #88]	; 0x58
 3a8:	e584205c 	str	r2, [r4, #92]	; 0x5c
 3ac:	e1a00004 	mov	r0, r4
 3b0:	ebfffffe 	bl	0 <bcm2835_emmc_handle_interrupts>
 3b4:	e5946064 	ldr	r6, [r4, #100]	; 0x64
 3b8:	e3560000 	cmp	r6, #0
 3bc:	13a03000 	movne	r3, #0
 3c0:	15843040 	strne	r3, [r4, #64]	; 0x40
 3c4:	1a00000c 	bne	3fc <sd_card_init+0x3fc>
 3c8:	e3a02037 	mov	r2, #55	; 0x37
 3cc:	e5943024 	ldr	r3, [r4, #36]	; 0x24
 3d0:	e584203c 	str	r2, [r4, #60]	; 0x3c
 3d4:	e3530000 	cmp	r3, #0
 3d8:	11a02803 	lslne	r2, r3, #16
 3dc:	01a02006 	moveq	r2, r6
 3e0:	e59f33f0 	ldr	r3, [pc, #1008]	; 7d8 <sd_card_init+0x7d8>
 3e4:	e1a00004 	mov	r0, r4
 3e8:	e59f1404 	ldr	r1, [pc, #1028]	; 7f4 <sd_card_init+0x7f4>
 3ec:	ebfffffe 	bl	0 <bcm2835_emmc_issue_command>
 3f0:	e5943040 	ldr	r3, [r4, #64]	; 0x40
 3f4:	e3530000 	cmp	r3, #0
 3f8:	1a000077 	bne	5dc <sd_card_init+0x5dc>
 3fc:	e3a03c02 	mov	r3, #512	; 0x200
 400:	e584305c 	str	r3, [r4, #92]	; 0x5c
 404:	e59f0408 	ldr	r0, [pc, #1032]	; 814 <sd_card_init+0x814>
 408:	ebfffffe 	bl	0 <printf>
 40c:	e5940030 	ldr	r0, [r4, #48]	; 0x30
 410:	ebfffffe 	bl	0 <free>
 414:	e1a00004 	mov	r0, r4
 418:	ebfffffe 	bl	0 <free>
 41c:	e3e06000 	mvn	r6, #0
 420:	e1a00006 	mov	r0, r6
 424:	e8bd80f8 	pop	{r3, r4, r5, r6, r7, pc}
 428:	e3a00068 	mov	r0, #104	; 0x68
 42c:	ebfffffe 	bl	0 <malloc>
 430:	e1a04000 	mov	r4, r0
 434:	eafffefc 	b	2c <sd_card_init+0x2c>
 438:	e3a031a6 	mov	r3, #-2147483607	; 0x80000029
 43c:	e1a00004 	mov	r0, r4
 440:	e584303c 	str	r3, [r4, #60]	; 0x3c
 444:	e59f13cc 	ldr	r1, [pc, #972]	; 818 <sd_card_init+0x818>
 448:	e59f3388 	ldr	r3, [pc, #904]	; 7d8 <sd_card_init+0x7d8>
 44c:	e3a02000 	mov	r2, #0
 450:	ebfffffe 	bl	0 <bcm2835_emmc_issue_command>
 454:	e5943040 	ldr	r3, [r4, #64]	; 0x40
 458:	e3530000 	cmp	r3, #0
 45c:	0affff5c 	beq	1d4 <sd_card_init+0x1d4>
 460:	e3560000 	cmp	r6, #0
 464:	e3a06037 	mov	r6, #55	; 0x37
 468:	1a000014 	bne	4c0 <sd_card_init+0x4c0>
 46c:	e1a00004 	mov	r0, r4
 470:	ebfffffe 	bl	0 <bcm2835_emmc_handle_interrupts>
 474:	e5943064 	ldr	r3, [r4, #100]	; 0x64
 478:	e3530000 	cmp	r3, #0
 47c:	1a00002f 	bne	540 <sd_card_init+0x540>
 480:	e5942024 	ldr	r2, [r4, #36]	; 0x24
 484:	e59f334c 	ldr	r3, [pc, #844]	; 7d8 <sd_card_init+0x7d8>
 488:	e3520000 	cmp	r2, #0
 48c:	11a02802 	lslne	r2, r2, #16
 490:	e584603c 	str	r6, [r4, #60]	; 0x3c
 494:	e1a00004 	mov	r0, r4
 498:	e59f1354 	ldr	r1, [pc, #852]	; 7f4 <sd_card_init+0x7f4>
 49c:	ebfffffe 	bl	0 <bcm2835_emmc_issue_command>
 4a0:	e5943040 	ldr	r3, [r4, #64]	; 0x40
 4a4:	e3530000 	cmp	r3, #0
 4a8:	1a000027 	bne	54c <sd_card_init+0x54c>
 4ac:	e3e06000 	mvn	r6, #0
 4b0:	e59f0364 	ldr	r0, [pc, #868]	; 81c <sd_card_init+0x81c>
 4b4:	ebfffffe 	bl	0 <printf>
 4b8:	e1a00006 	mov	r0, r6
 4bc:	e8bd80f8 	pop	{r3, r4, r5, r6, r7, pc}
 4c0:	e1a00004 	mov	r0, r4
 4c4:	ebfffffe 	bl	0 <bcm2835_emmc_handle_interrupts>
 4c8:	e5943064 	ldr	r3, [r4, #100]	; 0x64
 4cc:	e3530000 	cmp	r3, #0
 4d0:	1a00001a 	bne	540 <sd_card_init+0x540>
 4d4:	e5942024 	ldr	r2, [r4, #36]	; 0x24
 4d8:	e59f32f8 	ldr	r3, [pc, #760]	; 7d8 <sd_card_init+0x7d8>
 4dc:	e3520000 	cmp	r2, #0
 4e0:	11a02802 	lslne	r2, r2, #16
 4e4:	e584603c 	str	r6, [r4, #60]	; 0x3c
 4e8:	e1a00004 	mov	r0, r4
 4ec:	e59f1300 	ldr	r1, [pc, #768]	; 7f4 <sd_card_init+0x7f4>
 4f0:	ebfffffe 	bl	0 <bcm2835_emmc_issue_command>
 4f4:	e5943040 	ldr	r3, [r4, #64]	; 0x40
 4f8:	e3530000 	cmp	r3, #0
 4fc:	0affffea 	beq	4ac <sd_card_init+0x4ac>
 500:	e3a031a6 	mov	r3, #-2147483607	; 0x80000029
 504:	e1a00004 	mov	r0, r4
 508:	e584303c 	str	r3, [r4, #60]	; 0x3c
 50c:	e59f1304 	ldr	r1, [pc, #772]	; 818 <sd_card_init+0x818>
 510:	e59f32c0 	ldr	r3, [pc, #704]	; 7d8 <sd_card_init+0x7d8>
 514:	e59f2304 	ldr	r2, [pc, #772]	; 820 <sd_card_init+0x820>
 518:	ebfffffe 	bl	0 <bcm2835_emmc_issue_command>
 51c:	e5943040 	ldr	r3, [r4, #64]	; 0x40
 520:	e59f02b0 	ldr	r0, [pc, #688]	; 7d8 <sd_card_init+0x7d8>
 524:	e3530000 	cmp	r3, #0
 528:	0affffdf 	beq	4ac <sd_card_init+0x4ac>
 52c:	e5943044 	ldr	r3, [r4, #68]	; 0x44
 530:	e3530000 	cmp	r3, #0
 534:	baffff2f 	blt	1f8 <sd_card_init+0x1f8>
 538:	ebfffffe 	bl	0 <udelay>
 53c:	eaffffdf 	b	4c0 <sd_card_init+0x4c0>
 540:	e3a03000 	mov	r3, #0
 544:	e5843040 	str	r3, [r4, #64]	; 0x40
 548:	eaffffd7 	b	4ac <sd_card_init+0x4ac>
 54c:	e3a031a6 	mov	r3, #-2147483607	; 0x80000029
 550:	e1a00004 	mov	r0, r4
 554:	e584303c 	str	r3, [r4, #60]	; 0x3c
 558:	e59f12b8 	ldr	r1, [pc, #696]	; 818 <sd_card_init+0x818>
 55c:	e59f3274 	ldr	r3, [pc, #628]	; 7d8 <sd_card_init+0x7d8>
 560:	e59f22bc 	ldr	r2, [pc, #700]	; 824 <sd_card_init+0x824>
 564:	ebfffffe 	bl	0 <bcm2835_emmc_issue_command>
 568:	e5943040 	ldr	r3, [r4, #64]	; 0x40
 56c:	e59f0264 	ldr	r0, [pc, #612]	; 7d8 <sd_card_init+0x7d8>
 570:	e3530000 	cmp	r3, #0
 574:	0affffcc 	beq	4ac <sd_card_init+0x4ac>
 578:	e5943044 	ldr	r3, [r4, #68]	; 0x44
 57c:	e3530000 	cmp	r3, #0
 580:	baffff1c 	blt	1f8 <sd_card_init+0x1f8>
 584:	ebfffffe 	bl	0 <udelay>
 588:	eaffffb7 	b	46c <sd_card_init+0x46c>
 58c:	e3a03000 	mov	r3, #0
 590:	e5843040 	str	r3, [r4, #64]	; 0x40
 594:	e59f028c 	ldr	r0, [pc, #652]	; 828 <sd_card_init+0x828>
 598:	ebfffffe 	bl	0 <printf>
 59c:	e3e06000 	mvn	r6, #0
 5a0:	eafffee4 	b	138 <sd_card_init+0x138>
 5a4:	e59f0280 	ldr	r0, [pc, #640]	; 82c <sd_card_init+0x82c>
 5a8:	ebfffffe 	bl	0 <printf>
 5ac:	e3e06000 	mvn	r6, #0
 5b0:	eafffee0 	b	138 <sd_card_init+0x138>
 5b4:	e59f0274 	ldr	r0, [pc, #628]	; 830 <sd_card_init+0x830>
 5b8:	ebfffffe 	bl	0 <printf>
 5bc:	e3e06000 	mvn	r6, #0
 5c0:	eafffedc 	b	138 <sd_card_init+0x138>
 5c4:	e59f0268 	ldr	r0, [pc, #616]	; 834 <sd_card_init+0x834>
 5c8:	ebfffffe 	bl	0 <printf>
 5cc:	e1a00004 	mov	r0, r4
 5d0:	ebfffffe 	bl	0 <free>
 5d4:	e3e06000 	mvn	r6, #0
 5d8:	eafffed6 	b	138 <sd_card_init+0x138>
 5dc:	e3a031ce 	mov	r3, #-2147483597	; 0x80000033
 5e0:	e3a02000 	mov	r2, #0
 5e4:	e584303c 	str	r3, [r4, #60]	; 0x3c
 5e8:	e1a00004 	mov	r0, r4
 5ec:	e59f31e4 	ldr	r3, [pc, #484]	; 7d8 <sd_card_init+0x7d8>
 5f0:	e59f1240 	ldr	r1, [pc, #576]	; 838 <sd_card_init+0x838>
 5f4:	ebfffffe 	bl	0 <bcm2835_emmc_issue_command>
 5f8:	e3a02c02 	mov	r2, #512	; 0x200
 5fc:	e5943040 	ldr	r3, [r4, #64]	; 0x40
 600:	e584205c 	str	r2, [r4, #92]	; 0x5c
 604:	e3530000 	cmp	r3, #0
 608:	0affff7d 	beq	404 <sd_card_init+0x404>
 60c:	e3a02000 	mov	r2, #0
 610:	e5941030 	ldr	r1, [r4, #48]	; 0x30
 614:	e5913000 	ldr	r3, [r1]
 618:	e581200c 	str	r2, [r1, #12]
 61c:	e6bf3f33 	rev	r3, r3
 620:	e1a02c23 	lsr	r2, r3, #24
 624:	e212200f 	ands	r2, r2, #15
 628:	e1a00823 	lsr	r0, r3, #16
 62c:	03a03001 	moveq	r3, #1
 630:	e200c00f 	and	ip, r0, #15
 634:	e581c008 	str	ip, [r1, #8]
 638:	0581300c 	streq	r3, [r1, #12]
 63c:	0a000005 	beq	658 <sd_card_init+0x658>
 640:	e3520001 	cmp	r2, #1
 644:	03a03002 	moveq	r3, #2
 648:	0581300c 	streq	r3, [r1, #12]
 64c:	0a000001 	beq	658 <sd_card_init+0x658>
 650:	e3520002 	cmp	r2, #2
 654:	0a00001e 	beq	6d4 <sd_card_init+0x6d4>
 658:	e3100004 	tst	r0, #4
 65c:	1a000003 	bne	670 <sd_card_init+0x670>
 660:	ebfffffe 	bl	0 <bcm2835_emmc_reset_interrupt_register>
 664:	e5854000 	str	r4, [r5]
 668:	e1a00006 	mov	r0, r6
 66c:	e8bd80f8 	pop	{r3, r4, r5, r6, r7, pc}
 670:	ebfffffe 	bl	0 <bcm2835_emmc_disable_card_interrupt>
 674:	e1a07000 	mov	r7, r0
 678:	e1a00004 	mov	r0, r4
 67c:	ebfffffe 	bl	0 <bcm2835_emmc_handle_interrupts>
 680:	e5943064 	ldr	r3, [r4, #100]	; 0x64
 684:	e3530000 	cmp	r3, #0
 688:	13a03000 	movne	r3, #0
 68c:	15843040 	strne	r3, [r4, #64]	; 0x40
 690:	1a00000c 	bne	6c8 <sd_card_init+0x6c8>
 694:	e3a02037 	mov	r2, #55	; 0x37
 698:	e5943024 	ldr	r3, [r4, #36]	; 0x24
 69c:	e584203c 	str	r2, [r4, #60]	; 0x3c
 6a0:	e3530000 	cmp	r3, #0
 6a4:	11a02803 	lslne	r2, r3, #16
 6a8:	01a02003 	moveq	r2, r3
 6ac:	e1a00004 	mov	r0, r4
 6b0:	e59f3120 	ldr	r3, [pc, #288]	; 7d8 <sd_card_init+0x7d8>
 6b4:	e59f1138 	ldr	r1, [pc, #312]	; 7f4 <sd_card_init+0x7f4>
 6b8:	ebfffffe 	bl	0 <bcm2835_emmc_issue_command>
 6bc:	e5943040 	ldr	r3, [r4, #64]	; 0x40
 6c0:	e3530000 	cmp	r3, #0
 6c4:	1a00002f 	bne	788 <sd_card_init+0x788>
 6c8:	e59f016c 	ldr	r0, [pc, #364]	; 83c <sd_card_init+0x83c>
 6cc:	ebfffffe 	bl	0 <printf>
 6d0:	eaffffe2 	b	660 <sd_card_init+0x660>
 6d4:	e3130902 	tst	r3, #32768	; 0x8000
 6d8:	03a03003 	moveq	r3, #3
 6dc:	0581300c 	streq	r3, [r1, #12]
 6e0:	0affffdc 	beq	658 <sd_card_init+0x658>
 6e4:	e3130b01 	tst	r3, #1024	; 0x400
 6e8:	03a03004 	moveq	r3, #4
 6ec:	13a03005 	movne	r3, #5
 6f0:	e581300c 	str	r3, [r1, #12]
 6f4:	eaffffd7 	b	658 <sd_card_init+0x658>
 6f8:	e59f0140 	ldr	r0, [pc, #320]	; 840 <sd_card_init+0x840>
 6fc:	ebfffffe 	bl	0 <printf>
 700:	e1a00004 	mov	r0, r4
 704:	ebfffffe 	bl	0 <free>
 708:	e3e06000 	mvn	r6, #0
 70c:	eafffe89 	b	138 <sd_card_init+0x138>
 710:	e59f012c 	ldr	r0, [pc, #300]	; 844 <sd_card_init+0x844>
 714:	ebfffffe 	bl	0 <printf>
 718:	e1a00004 	mov	r0, r4
 71c:	ebfffffe 	bl	0 <free>
 720:	e3e06000 	mvn	r6, #0
 724:	eafffe83 	b	138 <sd_card_init+0x138>
 728:	e59f0118 	ldr	r0, [pc, #280]	; 848 <sd_card_init+0x848>
 72c:	ebfffffe 	bl	0 <printf>
 730:	e1a00004 	mov	r0, r4
 734:	ebfffffe 	bl	0 <free>
 738:	e3e06000 	mvn	r6, #0
 73c:	eafffe7d 	b	138 <sd_card_init+0x138>
 740:	e59f0104 	ldr	r0, [pc, #260]	; 84c <sd_card_init+0x84c>
 744:	ebfffffe 	bl	0 <printf>
 748:	e1a00004 	mov	r0, r4
 74c:	ebfffffe 	bl	0 <free>
 750:	e3e06000 	mvn	r6, #0
 754:	eafffe77 	b	138 <sd_card_init+0x138>
 758:	e59f00f0 	ldr	r0, [pc, #240]	; 850 <sd_card_init+0x850>
 75c:	ebfffffe 	bl	0 <printf>
 760:	e1a00004 	mov	r0, r4
 764:	ebfffffe 	bl	0 <free>
 768:	e3e06000 	mvn	r6, #0
 76c:	eafffe71 	b	138 <sd_card_init+0x138>
 770:	e59f00dc 	ldr	r0, [pc, #220]	; 854 <sd_card_init+0x854>
 774:	ebfffffe 	bl	0 <printf>
 778:	e1a00004 	mov	r0, r4
 77c:	ebfffffe 	bl	0 <free>
 780:	e3e06000 	mvn	r6, #0
 784:	eafffe6b 	b	138 <sd_card_init+0x138>
 788:	e3a0311a 	mov	r3, #-2147483642	; 0x80000006
 78c:	e1a00004 	mov	r0, r4
 790:	e584303c 	str	r3, [r4, #60]	; 0x3c
 794:	e59f10bc 	ldr	r1, [pc, #188]	; 858 <sd_card_init+0x858>
 798:	e59f3038 	ldr	r3, [pc, #56]	; 7d8 <sd_card_init+0x7d8>
 79c:	e3a02002 	mov	r2, #2
 7a0:	ebfffffe 	bl	0 <bcm2835_emmc_issue_command>
 7a4:	e5943040 	ldr	r3, [r4, #64]	; 0x40
 7a8:	e3530000 	cmp	r3, #0
 7ac:	0affffc5 	beq	6c8 <sd_card_init+0x6c8>
 7b0:	e1a00007 	mov	r0, r7
 7b4:	ebfffffe 	bl	0 <bcm2835_emmc_4bit_mode_change_bit>
 7b8:	eaffffa8 	b	660 <sd_card_init+0x660>
 7bc:	e59f0098 	ldr	r0, [pc, #152]	; 85c <sd_card_init+0x85c>
 7c0:	ebfffffe 	bl	0 <printf>
 7c4:	e1a00004 	mov	r0, r4
 7c8:	ebfffffe 	bl	0 <free>
 7cc:	e3e06000 	mvn	r6, #0
 7d0:	eafffe58 	b	138 <sd_card_init+0x138>
 7d4:	00000000 	andeq	r0, r0, r0
 7d8:	0007a120 	andeq	sl, r7, r0, lsr #2
 7dc:	000001aa 	andeq	r0, r0, sl, lsr #3
 7e0:	080a0000 	stmdaeq	sl, {}	; <UNPREDICTABLE>
 7e4:	05010000 	streq	r0, [r1, #-0]
 7e8:	00002710 	andeq	r2, r0, r0, lsl r7
 7ec:	00000050 	andeq	r0, r0, r0, asr r0
 7f0:	00000018 	andeq	r0, r0, r8, lsl r0
 7f4:	370a0000 	strcc	r0, [sl, -r0]
 7f8:	00000084 	andeq	r0, r0, r4, lsl #1
 7fc:	02faf080 	rscseq	pc, sl, #128	; 0x80
 800:	00001388 	andeq	r1, r0, r8, lsl #7
 804:	02090000 	andeq	r0, r9, #0
 808:	030a0000 	movweq	r0, #40960	; 0xa000
 80c:	070b0000 	streq	r0, [fp, -r0]
 810:	100a0000 	andne	r0, sl, r0
 814:	000001ac 	andeq	r0, r0, ip, lsr #3
 818:	29020000 	stmdbcs	r2, {}	; <UNPREDICTABLE>
 81c:	000000a0 	andeq	r0, r0, r0, lsr #1
 820:	50ff8000 	rscspl	r8, pc, r0
 824:	00ff8000 	rscseq	r8, pc, r0
 828:	000000bc 	strheq	r0, [r0], -ip
 82c:	00000000 	andeq	r0, r0, r0
 830:	0000003c 	andeq	r0, r0, ip, lsr r0
 834:	00000170 	andeq	r0, r0, r0, ror r1
 838:	332a0010 	teqcc	sl, #16
 83c:	000001c8 	andeq	r0, r0, r8, asr #3
 840:	00000140 	andeq	r0, r0, r0, asr #2
 844:	0000012c 	andeq	r0, r0, ip, lsr #2
 848:	00000114 	andeq	r0, r0, r4, lsl r1
 84c:	00000104 	andeq	r0, r0, r4, lsl #2
 850:	000000dc 	ldrdeq	r0, [r0], -ip
 854:	00000158 	andeq	r0, r0, r8, asr r1
 858:	060a0000 	streq	r0, [sl], -r0
 85c:	0000018c 	andeq	r0, r0, ip, lsl #3

00000860 <sd_read>:
 860:	e92d4ff0 	push	{r4, r5, r6, r7, r8, r9, sl, fp, lr}
 864:	e5909024 	ldr	r9, [r0, #36]	; 0x24
 868:	e24dd014 	sub	sp, sp, #20
 86c:	e3590000 	cmp	r9, #0
 870:	e1a04000 	mov	r4, r0
 874:	e58d000c 	str	r0, [sp, #12]
 878:	e1a07001 	mov	r7, r1
 87c:	e1a06002 	mov	r6, r2
 880:	e1a08003 	mov	r8, r3
 884:	1a000006 	bne	8a4 <sd_read+0x44>
 888:	e28d000c 	add	r0, sp, #12
 88c:	ebfffffe 	bl	0 <sd_card_init>
 890:	e3500000 	cmp	r0, #0
 894:	1a00007e 	bne	a94 <sd_read+0x234>
 898:	e59d500c 	ldr	r5, [sp, #12]
 89c:	e5959024 	ldr	r9, [r5, #36]	; 0x24
 8a0:	ea000000 	b	8a8 <sd_read+0x48>
 8a4:	e1a05000 	mov	r5, r0
 8a8:	e1a00005 	mov	r0, r5
 8ac:	ebfffffe 	bl	0 <bcm2835_emmc_handle_interrupts>
 8b0:	e5953064 	ldr	r3, [r5, #100]	; 0x64
 8b4:	e3530000 	cmp	r3, #0
 8b8:	13a03000 	movne	r3, #0
 8bc:	15853040 	strne	r3, [r5, #64]	; 0x40
 8c0:	1a000006 	bne	8e0 <sd_read+0x80>
 8c4:	e3a0300d 	mov	r3, #13
 8c8:	e1a02809 	lsl	r2, r9, #16
 8cc:	e585303c 	str	r3, [r5, #60]	; 0x3c
 8d0:	e1a00005 	mov	r0, r5
 8d4:	e59f12e8 	ldr	r1, [pc, #744]	; bc4 <sd_read+0x364>
 8d8:	e59f32e8 	ldr	r3, [pc, #744]	; bc8 <sd_read+0x368>
 8dc:	ebfffffe 	bl	0 <bcm2835_emmc_issue_command>
 8e0:	e59d500c 	ldr	r5, [sp, #12]
 8e4:	e5959040 	ldr	r9, [r5, #64]	; 0x40
 8e8:	e3590000 	cmp	r9, #0
 8ec:	0a0000a6 	beq	b8c <sd_read+0x32c>
 8f0:	e595c044 	ldr	ip, [r5, #68]	; 0x44
 8f4:	e1a0c4ac 	lsr	ip, ip, #9
 8f8:	e20cc00f 	and	ip, ip, #15
 8fc:	e35c0003 	cmp	ip, #3
 900:	0a000066 	beq	aa0 <sd_read+0x240>
 904:	e35c0005 	cmp	ip, #5
 908:	0a00007c 	beq	b00 <sd_read+0x2a0>
 90c:	e35c0004 	cmp	ip, #4
 910:	0a00001c 	beq	988 <sd_read+0x128>
 914:	e28d000c 	add	r0, sp, #12
 918:	ebfffffe 	bl	0 <sd_card_init>
 91c:	e3500000 	cmp	r0, #0
 920:	1a00005b 	bne	a94 <sd_read+0x234>
 924:	e59d500c 	ldr	r5, [sp, #12]
 928:	e1a00005 	mov	r0, r5
 92c:	e5959024 	ldr	r9, [r5, #36]	; 0x24
 930:	ebfffffe 	bl	0 <bcm2835_emmc_handle_interrupts>
 934:	e5953064 	ldr	r3, [r5, #100]	; 0x64
 938:	e3530000 	cmp	r3, #0
 93c:	13a03000 	movne	r3, #0
 940:	15853040 	strne	r3, [r5, #64]	; 0x40
 944:	1a000006 	bne	964 <sd_read+0x104>
 948:	e3a0300d 	mov	r3, #13
 94c:	e1a02809 	lsl	r2, r9, #16
 950:	e585303c 	str	r3, [r5, #60]	; 0x3c
 954:	e1a00005 	mov	r0, r5
 958:	e59f1264 	ldr	r1, [pc, #612]	; bc4 <sd_read+0x364>
 95c:	e59f3264 	ldr	r3, [pc, #612]	; bc8 <sd_read+0x368>
 960:	ebfffffe 	bl	0 <bcm2835_emmc_issue_command>
 964:	e59d300c 	ldr	r3, [sp, #12]
 968:	e5935040 	ldr	r5, [r3, #64]	; 0x40
 96c:	e3550000 	cmp	r5, #0
 970:	0a00008a 	beq	ba0 <sd_read+0x340>
 974:	e5931044 	ldr	r1, [r3, #68]	; 0x44
 978:	e1a014a1 	lsr	r1, r1, #9
 97c:	e201100f 	and	r1, r1, #15
 980:	e3510004 	cmp	r1, #4
 984:	1a000070 	bne	b4c <sd_read+0x2ec>
 988:	e5943018 	ldr	r3, [r4, #24]
 98c:	e594505c 	ldr	r5, [r4, #92]	; 0x5c
 990:	e3530000 	cmp	r3, #0
 994:	01a08488 	lsleq	r8, r8, #9
 998:	e1560005 	cmp	r6, r5
 99c:	3a000070 	bcc	b64 <sd_read+0x304>
 9a0:	e1a01005 	mov	r1, r5
 9a4:	e1a00006 	mov	r0, r6
 9a8:	ebfffffe 	bl	0 <__aeabi_uidiv>
 9ac:	e1a01005 	mov	r1, r5
 9b0:	e5840058 	str	r0, [r4, #88]	; 0x58
 9b4:	e1a09000 	mov	r9, r0
 9b8:	e1a00006 	mov	r0, r6
 9bc:	ebfffffe 	bl	0 <__aeabi_uidivmod>
 9c0:	e3510000 	cmp	r1, #0
 9c4:	1a00006b 	bne	b78 <sd_read+0x318>
 9c8:	e3590001 	cmp	r9, #1
 9cc:	d3a09011 	movle	r9, #17
 9d0:	c3a09012 	movgt	r9, #18
 9d4:	e5847054 	str	r7, [r4, #84]	; 0x54
 9d8:	e1a0a009 	mov	sl, r9
 9dc:	e3a05003 	mov	r5, #3
 9e0:	e59fb1e4 	ldr	fp, [pc, #484]	; bcc <sd_read+0x36c>
 9e4:	ea000010 	b	a2c <sd_read+0x1cc>
 9e8:	e584903c 	str	r9, [r4, #60]	; 0x3c
 9ec:	e1a00004 	mov	r0, r4
 9f0:	e1a02008 	mov	r2, r8
 9f4:	ebfffffe 	bl	0 <bcm2835_emmc_issue_command>
 9f8:	e5943040 	ldr	r3, [r4, #64]	; 0x40
 9fc:	e3530000 	cmp	r3, #0
 a00:	1a00001c 	bne	a78 <sd_read+0x218>
 a04:	e1a0100a 	mov	r1, sl
 a08:	e59f01c0 	ldr	r0, [pc, #448]	; bd0 <sd_read+0x370>
 a0c:	ebfffffe 	bl	0 <printf>
 a10:	e59f01bc 	ldr	r0, [pc, #444]	; bd4 <sd_read+0x374>
 a14:	e594102c 	ldr	r1, [r4, #44]	; 0x2c
 a18:	ebfffffe 	bl	0 <printf>
 a1c:	e2555001 	subs	r5, r5, #1
 a20:	e59f01b0 	ldr	r0, [pc, #432]	; bd8 <sd_read+0x378>
 a24:	0a000062 	beq	bb4 <sd_read+0x354>
 a28:	ebfffffe 	bl	0 <printf>
 a2c:	e3a07000 	mov	r7, #0
 a30:	e1a00004 	mov	r0, r4
 a34:	e5847060 	str	r7, [r4, #96]	; 0x60
 a38:	ebfffffe 	bl	0 <bcm2835_emmc_handle_interrupts>
 a3c:	e5942064 	ldr	r2, [r4, #100]	; 0x64
 a40:	e59f3194 	ldr	r3, [pc, #404]	; bdc <sd_read+0x37c>
 a44:	e1520007 	cmp	r2, r7
 a48:	15847040 	strne	r7, [r4, #64]	; 0x40
 a4c:	1affffec 	bne	a04 <sd_read+0x1a4>
 a50:	e79b1109 	ldr	r1, [fp, r9, lsl #2]
 a54:	e3710001 	cmn	r1, #1
 a58:	1affffe2 	bne	9e8 <sd_read+0x188>
 a5c:	e59f017c 	ldr	r0, [pc, #380]	; be0 <sd_read+0x380>
 a60:	e1a01009 	mov	r1, r9
 a64:	e58d2004 	str	r2, [sp, #4]
 a68:	ebfffffe 	bl	0 <printf>
 a6c:	e59d2004 	ldr	r2, [sp, #4]
 a70:	e5842040 	str	r2, [r4, #64]	; 0x40
 a74:	eaffffe2 	b	a04 <sd_read+0x1a4>
 a78:	e1a00006 	mov	r0, r6
 a7c:	e28dd014 	add	sp, sp, #20
 a80:	e8bd8ff0 	pop	{r4, r5, r6, r7, r8, r9, sl, fp, pc}
 a84:	e59f0158 	ldr	r0, [pc, #344]	; be4 <sd_read+0x384>
 a88:	ebfffffe 	bl	0 <printf>
 a8c:	e59d300c 	ldr	r3, [sp, #12]
 a90:	e5835024 	str	r5, [r3, #36]	; 0x24
 a94:	e3e00000 	mvn	r0, #0
 a98:	e28dd014 	add	sp, sp, #20
 a9c:	e8bd8ff0 	pop	{r4, r5, r6, r7, r8, r9, sl, fp, pc}
 aa0:	e1a00005 	mov	r0, r5
 aa4:	e5959024 	ldr	r9, [r5, #36]	; 0x24
 aa8:	ebfffffe 	bl	0 <bcm2835_emmc_handle_interrupts>
 aac:	e5953064 	ldr	r3, [r5, #100]	; 0x64
 ab0:	e3530000 	cmp	r3, #0
 ab4:	13a03000 	movne	r3, #0
 ab8:	15853040 	strne	r3, [r5, #64]	; 0x40
 abc:	1a000006 	bne	adc <sd_read+0x27c>
 ac0:	e3a03007 	mov	r3, #7
 ac4:	e1a02809 	lsl	r2, r9, #16
 ac8:	e585303c 	str	r3, [r5, #60]	; 0x3c
 acc:	e1a00005 	mov	r0, r5
 ad0:	e59f1110 	ldr	r1, [pc, #272]	; be8 <sd_read+0x388>
 ad4:	e59f30ec 	ldr	r3, [pc, #236]	; bc8 <sd_read+0x368>
 ad8:	ebfffffe 	bl	0 <bcm2835_emmc_issue_command>
 adc:	e59d500c 	ldr	r5, [sp, #12]
 ae0:	e5959040 	ldr	r9, [r5, #64]	; 0x40
 ae4:	e3590000 	cmp	r9, #0
 ae8:	1affff8e 	bne	928 <sd_read+0xc8>
 aec:	e59f00f8 	ldr	r0, [pc, #248]	; bec <sd_read+0x38c>
 af0:	ebfffffe 	bl	0 <printf>
 af4:	e59d300c 	ldr	r3, [sp, #12]
 af8:	e5839024 	str	r9, [r3, #36]	; 0x24
 afc:	eaffffe4 	b	a94 <sd_read+0x234>
 b00:	e1a00005 	mov	r0, r5
 b04:	ebfffffe 	bl	0 <bcm2835_emmc_handle_interrupts>
 b08:	e5952064 	ldr	r2, [r5, #100]	; 0x64
 b0c:	e3520000 	cmp	r2, #0
 b10:	13a03000 	movne	r3, #0
 b14:	15853040 	strne	r3, [r5, #64]	; 0x40
 b18:	1a000005 	bne	b34 <sd_read+0x2d4>
 b1c:	e3a0300c 	mov	r3, #12
 b20:	e1a00005 	mov	r0, r5
 b24:	e585303c 	str	r3, [r5, #60]	; 0x3c
 b28:	e59f10c0 	ldr	r1, [pc, #192]	; bf0 <sd_read+0x390>
 b2c:	e59f3094 	ldr	r3, [pc, #148]	; bc8 <sd_read+0x368>
 b30:	ebfffffe 	bl	0 <bcm2835_emmc_issue_command>
 b34:	e59d300c 	ldr	r3, [sp, #12]
 b38:	e5935040 	ldr	r5, [r3, #64]	; 0x40
 b3c:	e3550000 	cmp	r5, #0
 b40:	0affffcf 	beq	a84 <sd_read+0x224>
 b44:	ebfffffe 	bl	0 <bcm2835_emmc_reset_dat>
 b48:	eaffff75 	b	924 <sd_read+0xc4>
 b4c:	e59f00a0 	ldr	r0, [pc, #160]	; bf4 <sd_read+0x394>
 b50:	ebfffffe 	bl	0 <printf>
 b54:	e3a02000 	mov	r2, #0
 b58:	e59d300c 	ldr	r3, [sp, #12]
 b5c:	e5832024 	str	r2, [r3, #36]	; 0x24
 b60:	eaffffcb 	b	a94 <sd_read+0x234>
 b64:	e1a01006 	mov	r1, r6
 b68:	e1a02005 	mov	r2, r5
 b6c:	e59f0084 	ldr	r0, [pc, #132]	; bf8 <sd_read+0x398>
 b70:	ebfffffe 	bl	0 <printf>
 b74:	eaffffc6 	b	a94 <sd_read+0x234>
 b78:	e1a01006 	mov	r1, r6
 b7c:	e1a02005 	mov	r2, r5
 b80:	e59f0074 	ldr	r0, [pc, #116]	; bfc <sd_read+0x39c>
 b84:	ebfffffe 	bl	0 <printf>
 b88:	eaffffc1 	b	a94 <sd_read+0x234>
 b8c:	e59f006c 	ldr	r0, [pc, #108]	; c00 <sd_read+0x3a0>
 b90:	ebfffffe 	bl	0 <printf>
 b94:	e59d300c 	ldr	r3, [sp, #12]
 b98:	e5839024 	str	r9, [r3, #36]	; 0x24
 b9c:	eaffffbc 	b	a94 <sd_read+0x234>
 ba0:	e59f005c 	ldr	r0, [pc, #92]	; c04 <sd_read+0x3a4>
 ba4:	ebfffffe 	bl	0 <printf>
 ba8:	e59d300c 	ldr	r3, [sp, #12]
 bac:	e5835024 	str	r5, [r3, #36]	; 0x24
 bb0:	eaffffb7 	b	a94 <sd_read+0x234>
 bb4:	e59f004c 	ldr	r0, [pc, #76]	; c08 <sd_read+0x3a8>
 bb8:	ebfffffe 	bl	0 <printf>
 bbc:	e5845024 	str	r5, [r4, #36]	; 0x24
 bc0:	eaffffb3 	b	a94 <sd_read+0x234>
 bc4:	0d0a0000 	stceq	0, cr0, [sl, #-0]
 bc8:	0007a120 	andeq	sl, r7, r0, lsr #2
 bcc:	00000000 	andeq	r0, r0, r0
 bd0:	000003b4 			; <UNDEFINED> instruction: 0x000003b4
 bd4:	000003d0 	ldrdeq	r0, [r0], -r0	; <UNPREDICTABLE>
 bd8:	000003e0 	andeq	r0, r0, r0, ror #7
 bdc:	004c4b40 	subeq	r4, ip, r0, asr #22
 be0:	00000398 	muleq	r0, r8, r3
 be4:	0000024c 	andeq	r0, r0, ip, asr #4
 be8:	070b0000 	streq	r0, [fp, -r0]
 bec:	0000021c 	andeq	r0, r0, ip, lsl r2
 bf0:	0ccb0000 	stcleq	0, cr0, [fp], {0}
 bf4:	000002ac 	andeq	r0, r0, ip, lsr #5
 bf8:	000002e8 	andeq	r0, r0, r8, ror #5
 bfc:	00000338 	andeq	r0, r0, r8, lsr r3
 c00:	000001f0 	strdeq	r0, [r0], -r0	; <UNPREDICTABLE>
 c04:	0000027c 	andeq	r0, r0, ip, ror r2
 c08:	000003f0 	strdeq	r0, [r0], -r0	; <UNPREDICTABLE>

Disassembly of section .rodata:

00000000 <sd_commands>:
   0:	00000000 	andeq	r0, r0, r0
   4:	ffffffff 			; <UNDEFINED> instruction: 0xffffffff
   8:	02090000 	andeq	r0, r9, #0
   c:	030a0000 	movweq	r0, #40960	; 0xa000
  10:	04000000 	streq	r0, [r0], #-0
  14:	05010000 	streq	r0, [r1, #-0]
  18:	060a0000 	streq	r0, [sl], -r0
  1c:	070b0000 	streq	r0, [fp, -r0]
  20:	080a0000 	stmdaeq	sl, {}	; <UNPREDICTABLE>
  24:	09090000 	stmdbeq	r9, {}	; <UNPREDICTABLE>
  28:	0a090000 	beq	240030 <sd_read+0x23f7d0>
  2c:	0b0a0000 	bleq	280034 <sd_read+0x27f7d4>
  30:	0ccb0000 	stcleq	0, cr0, [fp], {0}
  34:	0d0a0000 	stceq	0, cr0, [sl, #-0]
  38:	ffffffff 			; <UNDEFINED> instruction: 0xffffffff
  3c:	0f000000 	svceq	0x00000000
  40:	100a0000 	andne	r0, sl, r0
  44:	112a0010 	teqne	sl, r0, lsl r0
  48:	122a0032 	eorne	r0, sl, #50	; 0x32
  4c:	132a0010 	teqne	sl, #16
  50:	140b0000 	strne	r0, [fp], #-0
  54:	ffffffff 			; <UNDEFINED> instruction: 0xffffffff
  58:	ffffffff 			; <UNDEFINED> instruction: 0xffffffff
  5c:	170a0000 	strne	r0, [sl, -r0]
  60:	182a0000 	stmdane	sl!, {}	; <UNPREDICTABLE>
  64:	192a0022 	stmdbne	sl!, {r1, r5}
  68:	ffffffff 			; <UNDEFINED> instruction: 0xffffffff
  6c:	1b2a0000 	blne	a80074 <sd_read+0xa7f814>
  70:	1c0b0000 	stcne	0, cr0, [fp], {-0}
  74:	1d0b0000 	stcne	0, cr0, [fp, #-0]
  78:	1e2a0010 	mcrne	0, 1, r0, cr10, cr0, {0}
  7c:	ffffffff 			; <UNDEFINED> instruction: 0xffffffff
  80:	200a0000 	andcs	r0, sl, r0
  84:	210a0000 	mrscs	r0, (UNDEF: 10)
  88:	ffffffff 			; <UNDEFINED> instruction: 0xffffffff
  8c:	ffffffff 			; <UNDEFINED> instruction: 0xffffffff
  90:	ffffffff 			; <UNDEFINED> instruction: 0xffffffff
  94:	ffffffff 			; <UNDEFINED> instruction: 0xffffffff
  98:	260b0000 	strcs	r0, [fp], -r0
  9c:	ffffffff 			; <UNDEFINED> instruction: 0xffffffff
  a0:	ffffffff 			; <UNDEFINED> instruction: 0xffffffff
  a4:	ffffffff 			; <UNDEFINED> instruction: 0xffffffff
  a8:	ffffffff 			; <UNDEFINED> instruction: 0xffffffff
  ac:	ffffffff 			; <UNDEFINED> instruction: 0xffffffff
  b0:	ffffffff 			; <UNDEFINED> instruction: 0xffffffff
  b4:	ffffffff 			; <UNDEFINED> instruction: 0xffffffff
  b8:	ffffffff 			; <UNDEFINED> instruction: 0xffffffff
  bc:	ffffffff 			; <UNDEFINED> instruction: 0xffffffff
  c0:	ffffffff 			; <UNDEFINED> instruction: 0xffffffff
  c4:	ffffffff 			; <UNDEFINED> instruction: 0xffffffff
  c8:	ffffffff 			; <UNDEFINED> instruction: 0xffffffff
  cc:	ffffffff 			; <UNDEFINED> instruction: 0xffffffff
  d0:	ffffffff 			; <UNDEFINED> instruction: 0xffffffff
  d4:	ffffffff 			; <UNDEFINED> instruction: 0xffffffff
  d8:	ffffffff 			; <UNDEFINED> instruction: 0xffffffff
  dc:	370a0000 	strcc	r0, [sl, -r0]
  e0:	382a0000 	stmdacc	sl!, {}	; <UNPREDICTABLE>
  e4:	ffffffff 			; <UNDEFINED> instruction: 0xffffffff
  e8:	ffffffff 			; <UNDEFINED> instruction: 0xffffffff
  ec:	ffffffff 			; <UNDEFINED> instruction: 0xffffffff
  f0:	ffffffff 			; <UNDEFINED> instruction: 0xffffffff
  f4:	ffffffff 			; <UNDEFINED> instruction: 0xffffffff
  f8:	ffffffff 			; <UNDEFINED> instruction: 0xffffffff
  fc:	ffffffff 			; <UNDEFINED> instruction: 0xffffffff

Disassembly of section .rodata.str1.4:

00000000 <.rodata.str1.4>:
   0:	203a4453 	eorscs	r4, sl, r3, asr r4
   4:	43206f6e 	teqmi	r0, #440	; 0x1b8
   8:	2030444d 	eorscs	r4, r0, sp, asr #8
   c:	70736572 	rsbsvc	r6, r3, r2, ror r5
  10:	65736e6f 	ldrbvs	r6, [r3, #-3695]!	; 0xfffff191
  14:	0000000a 	andeq	r0, r0, sl
  18:	203a4453 	eorscs	r4, sl, r3, asr r4
  1c:	6c696166 	stfvse	f6, [r9], #-408	; 0xfffffe68
  20:	20657275 	rsbcs	r7, r5, r5, ror r2
  24:	646e6573 	strbtvs	r6, [lr], #-1395	; 0xfffffa8d
  28:	20676e69 	rsbcs	r6, r7, r9, ror #28
  2c:	38444d43 	stmdacc	r4, {r0, r1, r6, r8, sl, fp, lr}^
  30:	30252820 	eorcc	r2, r5, r0, lsr #16
  34:	0a297838 	beq	a5e11c <sd_read+0xa5d8bc>
  38:	00000000 	andeq	r0, r0, r0
  3c:	203a4453 	eorscs	r4, sl, r3, asr r4
  40:	73756e75 	cmnvc	r5, #1872	; 0x750
  44:	656c6261 	strbvs	r6, [ip, #-609]!	; 0xfffffd9f
  48:	72616320 	rsbvc	r6, r1, #32, 6	; 0x80000000
  4c:	00000a64 	andeq	r0, r0, r4, ror #20
  50:	203a4453 	eorscs	r4, sl, r3, asr r4
  54:	4f494453 	svcmi	0x00494453
  58:	72616320 	rsbvc	r6, r1, #32, 6	; 0x80000000
  5c:	65642064 	strbvs	r2, [r4, #-100]!	; 0xffffff9c
  60:	74636574 	strbtvc	r6, [r3], #-1396	; 0xfffffa8c
  64:	2d206465 	cfstrscs	mvf6, [r0, #-404]!	; 0xfffffe6c
  68:	746f6e20 	strbtvc	r6, [pc], #-3616	; 70 <.rodata.str1.4+0x70>
  6c:	72756320 	rsbsvc	r6, r5, #32, 6	; 0x80000000
  70:	746e6572 	strbtvc	r6, [lr], #-1394	; 0xfffffa8e
  74:	7320796c 	teqvc	r0, #108, 18	; 0x1b0000
  78:	6f707075 	svcvs	0x00707075
  7c:	64657472 	strbtvs	r7, [r5], #-1138	; 0xfffffb8e
  80:	0000000a 	andeq	r0, r0, sl
  84:	203a4453 	eorscs	r4, sl, r3, asr r4
  88:	75716e69 	ldrbvc	r6, [r1, #-3689]!	; 0xfffff197
  8c:	20797269 	rsbscs	r7, r9, r9, ror #4
  90:	444d4341 	strbmi	r4, [sp], #-833	; 0xfffffcbf
  94:	66203134 			; <UNDEFINED> instruction: 0x66203134
  98:	656c6961 	strbvs	r6, [ip, #-2401]!	; 0xfffff69f
  9c:	00000a64 	andeq	r0, r0, r4, ror #20
  a0:	203a4453 	eorscs	r4, sl, r3, asr r4
  a4:	6f727265 	svcvs	0x00727265
  a8:	73692072 	cmnvc	r9, #114	; 0x72
  ac:	6e697573 	mcrvs	5, 3, r7, cr9, cr3, {3}
  b0:	43412067 	movtmi	r2, #4199	; 0x1067
  b4:	3134444d 	teqcc	r4, sp, asr #8
  b8:	0000000a 	andeq	r0, r0, sl
  bc:	203a4453 	eorscs	r4, sl, r3, asr r4
  c0:	6f727265 	svcvs	0x00727265
  c4:	65732072 	ldrbvs	r2, [r3, #-114]!	; 0xffffff8e
  c8:	6e69646e 	cdpvs	4, 6, cr6, cr9, cr14, {3}
  cc:	4c412067 	mcrrmi	0, 6, r2, r1, cr7
  d0:	45535f4c 	ldrbmi	r5, [r3, #-3916]	; 0xfffff0b4
  d4:	435f444e 	cmpmi	pc, #1308622848	; 0x4e000000
  d8:	000a4449 	andeq	r4, sl, r9, asr #8
  dc:	203a4453 	eorscs	r4, sl, r3, asr r4
  e0:	6f727265 	svcvs	0x00727265
  e4:	65732072 	ldrbvs	r2, [r3, #-114]!	; 0xffffff8e
  e8:	6e69646e 	cdpvs	4, 6, cr6, cr9, cr14, {3}
  ec:	45532067 	ldrbmi	r2, [r3, #-103]	; 0xffffff99
  f0:	525f444e 	subspl	r4, pc, #1308622848	; 0x4e000000
  f4:	54414c45 	strbpl	r4, [r1], #-3141	; 0xfffff3bb
  f8:	5f455649 	svcpl	0x00455649
  fc:	52444441 	subpl	r4, r4, #1090519040	; 0x41000000
 100:	0000000a 	andeq	r0, r0, sl
 104:	203a4453 	eorscs	r4, sl, r3, asr r4
 108:	20435243 	subcs	r5, r3, r3, asr #4
 10c:	6f727265 	svcvs	0x00727265
 110:	00000a72 	andeq	r0, r0, r2, ror sl
 114:	203a4453 	eorscs	r4, sl, r3, asr r4
 118:	656c6c69 	strbvs	r6, [ip, #-3177]!	; 0xfffff397
 11c:	206c6167 	rsbcs	r6, ip, r7, ror #2
 120:	6d6d6f63 	stclvs	15, cr6, [sp, #-396]!	; 0xfffffe74
 124:	0a646e61 	beq	191bab0 <sd_read+0x191b250>
 128:	00000000 	andeq	r0, r0, r0
 12c:	203a4453 	eorscs	r4, sl, r3, asr r4
 130:	656e6567 	strbvs	r6, [lr, #-1383]!	; 0xfffffa99
 134:	20636972 	rsbcs	r6, r3, r2, ror r9
 138:	6f727265 	svcvs	0x00727265
 13c:	00000a72 	andeq	r0, r0, r2, ror sl
 140:	203a4453 	eorscs	r4, sl, r3, asr r4
 144:	20746f6e 	rsbscs	r6, r4, lr, ror #30
 148:	64616572 	strbtvs	r6, [r1], #-1394	; 0xfffffa8e
 14c:	6f662079 	svcvs	0x00662079
 150:	61642072 	smcvs	16898	; 0x4202
 154:	000a6174 	andeq	r6, sl, r4, ror r1
 158:	203a4453 	eorscs	r4, sl, r3, asr r4
 15c:	6f727265 	svcvs	0x00727265
 160:	65732072 	ldrbvs	r2, [r3, #-114]!	; 0xffffff8e
 164:	6e69646e 	cdpvs	4, 6, cr6, cr9, cr14, {3}
 168:	4d432067 	stclmi	0, cr2, [r3, #-412]	; 0xfffffe64
 16c:	000a3744 	andeq	r3, sl, r4, asr #14
 170:	203a4453 	eorscs	r4, sl, r3, asr r4
 174:	61766e69 	cmnvs	r6, r9, ror #28
 178:	2064696c 	rsbcs	r6, r4, ip, ror #18
 17c:	74617473 	strbtvc	r7, [r1], #-1139	; 0xfffffb8d
 180:	28207375 	stmdacs	r0!, {r0, r2, r4, r5, r6, r8, r9, ip, sp, lr}
 184:	0a296925 	beq	a5a620 <sd_read+0xa59dc0>
 188:	00000000 	andeq	r0, r0, r0
 18c:	203a4453 	eorscs	r4, sl, r3, asr r4
 190:	6f727265 	svcvs	0x00727265
 194:	65732072 	ldrbvs	r2, [r3, #-114]!	; 0xffffff8e
 198:	6e69646e 	cdpvs	4, 6, cr6, cr9, cr14, {3}
 19c:	45532067 	ldrbmi	r2, [r3, #-103]	; 0xffffff99
 1a0:	4c425f54 	mcrrmi	15, 5, r5, r2, cr4
 1a4:	4c4b434f 	mcrrmi	3, 4, r4, fp, cr15
 1a8:	000a4e45 	andeq	r4, sl, r5, asr #28
 1ac:	203a4453 	eorscs	r4, sl, r3, asr r4
 1b0:	6f727265 	svcvs	0x00727265
 1b4:	65732072 	ldrbvs	r2, [r3, #-114]!	; 0xffffff8e
 1b8:	6e69646e 	cdpvs	4, 6, cr6, cr9, cr14, {3}
 1bc:	45532067 	ldrbmi	r2, [r3, #-103]	; 0xffffff99
 1c0:	535f444e 	cmppl	pc, #1308622848	; 0x4e000000
 1c4:	000a5243 	andeq	r5, sl, r3, asr #4
 1c8:	203a4453 	eorscs	r4, sl, r3, asr r4
 1cc:	74697773 	strbtvc	r7, [r9], #-1907	; 0xfffff88d
 1d0:	74206863 	strtvc	r6, [r0], #-2147	; 0xfffff79d
 1d4:	2d34206f 	ldccs	0, cr2, [r4, #-444]!	; 0xfffffe44
 1d8:	20746962 	rsbscs	r6, r4, r2, ror #18
 1dc:	61746164 	cmnvs	r4, r4, ror #2
 1e0:	646f6d20 	strbtvs	r6, [pc], #-3360	; 1e8 <.rodata.str1.4+0x1e8>
 1e4:	61662065 	cmnvs	r6, r5, rrx
 1e8:	64656c69 	strbtvs	r6, [r5], #-3177	; 0xfffff397
 1ec:	0000000a 	andeq	r0, r0, sl
 1f0:	203a4453 	eorscs	r4, sl, r3, asr r4
 1f4:	75736e65 	ldrbvc	r6, [r3, #-3685]!	; 0xfffff19b
 1f8:	645f6572 	ldrbvs	r6, [pc], #-1394	; 200 <.rodata.str1.4+0x200>
 1fc:	5f617461 	svcpl	0x00617461
 200:	65646f6d 	strbvs	r6, [r4, #-3949]!	; 0xfffff093
 204:	65202928 	strvs	r2, [r0, #-2344]!	; 0xfffff6d8
 208:	726f7272 	rsbvc	r7, pc, #536870919	; 0x20000007
 20c:	6e657320 	cdpvs	3, 6, cr7, cr5, cr0, {1}
 210:	676e6964 	strbvs	r6, [lr, -r4, ror #18]!
 214:	444d4320 	strbmi	r4, [sp], #-800	; 0xfffffce0
 218:	000a3331 	andeq	r3, sl, r1, lsr r3
 21c:	203a4453 	eorscs	r4, sl, r3, asr r4
 220:	75736e65 	ldrbvc	r6, [r3, #-3685]!	; 0xfffff19b
 224:	645f6572 	ldrbvs	r6, [pc], #-1394	; 22c <.rodata.str1.4+0x22c>
 228:	5f617461 	svcpl	0x00617461
 22c:	65646f6d 	strbvs	r6, [r4, #-3949]!	; 0xfffff093
 230:	6e202928 	cdpvs	9, 2, cr2, cr0, cr8, {1}
 234:	6572206f 	ldrbvs	r2, [r2, #-111]!	; 0xffffff91
 238:	6e6f7073 	mcrvs	0, 3, r7, cr15, cr3, {3}
 23c:	66206573 			; <UNDEFINED> instruction: 0x66206573
 240:	206d6f72 	rsbcs	r6, sp, r2, ror pc
 244:	31444d43 	cmpcc	r4, r3, asr #26
 248:	00000a37 	andeq	r0, r0, r7, lsr sl
 24c:	203a4453 	eorscs	r4, sl, r3, asr r4
 250:	75736e65 	ldrbvc	r6, [r3, #-3685]!	; 0xfffff19b
 254:	645f6572 	ldrbvs	r6, [pc], #-1394	; 25c <.rodata.str1.4+0x25c>
 258:	5f617461 	svcpl	0x00617461
 25c:	65646f6d 	strbvs	r6, [r4, #-3949]!	; 0xfffff093
 260:	6e202928 	cdpvs	9, 2, cr2, cr0, cr8, {1}
 264:	6572206f 	ldrbvs	r2, [r2, #-111]!	; 0xffffff91
 268:	6e6f7073 	mcrvs	0, 3, r7, cr15, cr3, {3}
 26c:	66206573 			; <UNDEFINED> instruction: 0x66206573
 270:	206d6f72 	rsbcs	r6, sp, r2, ror pc
 274:	31444d43 	cmpcc	r4, r3, asr #26
 278:	00000a32 	andeq	r0, r0, r2, lsr sl
 27c:	203a4453 	eorscs	r4, sl, r3, asr r4
 280:	75736e65 	ldrbvc	r6, [r3, #-3685]!	; 0xfffff19b
 284:	645f6572 	ldrbvs	r6, [pc], #-1394	; 28c <.rodata.str1.4+0x28c>
 288:	5f617461 	svcpl	0x00617461
 28c:	65646f6d 	strbvs	r6, [r4, #-3949]!	; 0xfffff093
 290:	6e202928 	cdpvs	9, 2, cr2, cr0, cr8, {1}
 294:	6572206f 	ldrbvs	r2, [r2, #-111]!	; 0xffffff91
 298:	6e6f7073 	mcrvs	0, 3, r7, cr15, cr3, {3}
 29c:	66206573 			; <UNDEFINED> instruction: 0x66206573
 2a0:	206d6f72 	rsbcs	r6, sp, r2, ror pc
 2a4:	31444d43 	cmpcc	r4, r3, asr #26
 2a8:	00000a33 	andeq	r0, r0, r3, lsr sl
 2ac:	203a4453 	eorscs	r4, sl, r3, asr r4
 2b0:	62616e75 	rsbvs	r6, r1, #1872	; 0x750
 2b4:	7420656c 	strtvc	r6, [r0], #-1388	; 0xfffffa94
 2b8:	6e69206f 	cdpvs	0, 6, cr2, cr9, cr15, {3}
 2bc:	61697469 	cmnvs	r9, r9, ror #8
 2c0:	657a696c 	ldrbvs	r6, [sl, #-2412]!	; 0xfffff694
 2c4:	20445320 	subcs	r5, r4, r0, lsr #6
 2c8:	64726163 	ldrbtvs	r6, [r2], #-355	; 0xfffffe9d
 2cc:	206f7420 	rsbcs	r7, pc, r0, lsr #8
 2d0:	61746164 	cmnvs	r4, r4, ror #2
 2d4:	646f6d20 	strbtvs	r6, [pc], #-3360	; 2dc <.rodata.str1.4+0x2dc>
 2d8:	73282065 	teqvc	r8, #101	; 0x65
 2dc:	65746174 	ldrbvs	r6, [r4, #-372]!	; 0xfffffe8c
 2e0:	29692520 	stmdbcs	r9!, {r5, r8, sl, sp}^
 2e4:	0000000a 	andeq	r0, r0, sl
 2e8:	203a4453 	eorscs	r4, sl, r3, asr r4
 2ec:	645f6f64 	ldrbvs	r6, [pc], #-3940	; 2f4 <.rodata.str1.4+0x2f4>
 2f0:	5f617461 	svcpl	0x00617461
 2f4:	6d6d6f63 	stclvs	15, cr6, [sp, #-396]!	; 0xfffffe74
 2f8:	28646e61 	stmdacs	r4!, {r0, r5, r6, r9, sl, fp, sp, lr}^
 2fc:	61632029 	cmnvs	r3, r9, lsr #32
 300:	64656c6c 	strbtvs	r6, [r5], #-3180	; 0xfffff394
 304:	74697720 	strbtvc	r7, [r9], #-1824	; 0xfffff8e0
 308:	75622068 	strbvc	r2, [r2, #-104]!	; 0xffffff98
 30c:	72656666 	rsbvc	r6, r5, #106954752	; 0x6600000
 310:	7a697320 	bvc	1a5cf98 <sd_read+0x1a5c738>
 314:	25282065 	strcs	r2, [r8, #-101]!	; 0xffffff9b
 318:	6c202969 	stcvs	9, cr2, [r0], #-420	; 0xfffffe5c
 31c:	20737365 	rsbscs	r7, r3, r5, ror #6
 320:	6e616874 	mcrvs	8, 3, r6, cr1, cr4, {3}
 324:	6f6c6220 	svcvs	0x006c6220
 328:	73206b63 	teqvc	r0, #101376	; 0x18c00
 32c:	20657a69 	rsbcs	r7, r5, r9, ror #20
 330:	29692528 	stmdbcs	r9!, {r3, r5, r8, sl, sp}^
 334:	0000000a 	andeq	r0, r0, sl
 338:	203a4453 	eorscs	r4, sl, r3, asr r4
 33c:	645f6f64 	ldrbvs	r6, [pc], #-3940	; 344 <.rodata.str1.4+0x344>
 340:	5f617461 	svcpl	0x00617461
 344:	6d6d6f63 	stclvs	15, cr6, [sp, #-396]!	; 0xfffffe74
 348:	28646e61 	stmdacs	r4!, {r0, r5, r6, r9, sl, fp, sp, lr}^
 34c:	61632029 	cmnvs	r3, r9, lsr #32
 350:	64656c6c 	strbtvs	r6, [r5], #-3180	; 0xfffff394
 354:	74697720 	strbtvc	r7, [r9], #-1824	; 0xfffff8e0
 358:	75622068 	strbvc	r2, [r2, #-104]!	; 0xffffff98
 35c:	72656666 	rsbvc	r6, r5, #106954752	; 0x6600000
 360:	7a697320 	bvc	1a5cfe8 <sd_read+0x1a5c788>
 364:	25282065 	strcs	r2, [r8, #-101]!	; 0xffffff9b
 368:	6e202969 	cdpvs	9, 2, cr2, cr0, cr9, {3}
 36c:	6120746f 	teqvs	r0, pc, ror #8
 370:	7865206e 	stmdavc	r5!, {r1, r2, r3, r5, r6, sp}^
 374:	20746361 	rsbscs	r6, r4, r1, ror #6
 378:	746c756d 	strbtvc	r7, [ip], #-1389	; 0xfffffa93
 37c:	656c7069 	strbvs	r7, [ip, #-105]!	; 0xffffff97
 380:	20666f20 	rsbcs	r6, r6, r0, lsr #30
 384:	636f6c62 	cmnvs	pc, #25088	; 0x6200
 388:	6973206b 	ldmdbvs	r3!, {r0, r1, r3, r5, r6, sp}^
 38c:	2820657a 	stmdacs	r0!, {r1, r3, r4, r5, r6, r8, sl, sp, lr}
 390:	0a296925 	beq	a5a82c <sd_read+0xa59fcc>
 394:	00000000 	andeq	r0, r0, r0
 398:	203a4453 	eorscs	r4, sl, r3, asr r4
 39c:	61766e69 	cmnvs	r6, r9, ror #28
 3a0:	2064696c 	rsbcs	r6, r4, ip, ror #18
 3a4:	6d6d6f63 	stclvs	15, cr6, [sp, #-396]!	; 0xfffffe74
 3a8:	20646e61 	rsbcs	r6, r4, r1, ror #28
 3ac:	25444d43 	strbcs	r4, [r4, #-3395]	; 0xfffff2bd
 3b0:	00000a69 	andeq	r0, r0, r9, ror #20
 3b4:	203a4453 	eorscs	r4, sl, r3, asr r4
 3b8:	6f727265 	svcvs	0x00727265
 3bc:	65732072 	ldrbvs	r2, [r3, #-114]!	; 0xffffff8e
 3c0:	6e69646e 	cdpvs	4, 6, cr6, cr9, cr14, {3}
 3c4:	4d432067 	stclmi	0, cr2, [r3, #-412]	; 0xfffffe64
 3c8:	2c692544 	cfstr64cs	mvdx2, [r9], #-272	; 0xfffffef0
 3cc:	00000020 	andeq	r0, r0, r0, lsr #32
 3d0:	6f727265 	svcvs	0x00727265
 3d4:	203d2072 	eorscs	r2, sp, r2, ror r0
 3d8:	78383025 	ldmdavc	r8!, {r0, r2, r5, ip, sp}
 3dc:	0020202e 	eoreq	r2, r0, lr, lsr #32
 3e0:	72746552 	rsbsvc	r6, r4, #343932928	; 0x14800000
 3e4:	676e6979 			; <UNDEFINED> instruction: 0x676e6979
 3e8:	0a2e2e2e 	beq	b8bca8 <sd_read+0xb8b448>
 3ec:	00000000 	andeq	r0, r0, r0
 3f0:	69766947 	ldmdbvs	r6!, {r0, r1, r2, r6, r8, fp, sp, lr}^
 3f4:	7520676e 	strvc	r6, [r0, #-1902]!	; 0xfffff892
 3f8:	000a2e70 	andeq	r2, sl, r0, ror lr

Disassembly of section .comment:

00000000 <.comment>:
   0:	43434700 	movtmi	r4, #14080	; 0x3700
   4:	4728203a 			; <UNDEFINED> instruction: 0x4728203a
   8:	2029554e 	eorcs	r5, r9, lr, asr #10
   c:	2e392e34 	mrccs	14, 1, r2, cr9, cr4, {1}
  10:	Address 0x0000000000000010 is out of bounds.


Disassembly of section .ARM.attributes:

00000000 <.ARM.attributes>:
   0:	00003d41 	andeq	r3, r0, r1, asr #26
   4:	61656100 	cmnvs	r5, r0, lsl #2
   8:	01006962 	tsteq	r0, r2, ror #18
   c:	00000033 	andeq	r0, r0, r3, lsr r0
  10:	4d524105 	ldfmie	f4, [r2, #-20]	; 0xffffffec
  14:	36373131 			; <UNDEFINED> instruction: 0x36373131
  18:	2d465a4a 	vstrcs	s11, [r6, #-296]	; 0xfffffed8
  1c:	07060053 	smlsdeq	r6, r3, r0, r0
  20:	01090108 	tsteq	r9, r8, lsl #2
  24:	0412020a 	ldreq	r0, [r2], #-522	; 0xfffffdf6
  28:	01150114 	tsteq	r5, r4, lsl r1
  2c:	01180317 	tsteq	r8, r7, lsl r3
  30:	011a0119 	tsteq	sl, r9, lsl r1
  34:	011c031b 	tsteq	ip, fp, lsl r3
  38:	0122021e 	teqeq	r2, lr, lsl r2
  3c:	Address 0x000000000000003c is out of bounds.


diskio.o:     file format elf32-littlearm


Disassembly of section .text:

00000000 <disk_initialize>:
   0:	e3500000 	cmp	r0, #0
   4:	e92d4008 	push	{r3, lr}
   8:	0a000003 	beq	1c <disk_initialize+0x1c>
   c:	e59f3028 	ldr	r3, [pc, #40]	; 3c <disk_initialize+0x3c>
  10:	e5d30000 	ldrb	r0, [r3]
  14:	e6ef0070 	uxtb	r0, r0
  18:	e8bd8008 	pop	{r3, pc}
  1c:	e59f001c 	ldr	r0, [pc, #28]	; 40 <disk_initialize+0x40>
  20:	ebfffffe 	bl	0 <sd_card_init>
  24:	e59f3010 	ldr	r3, [pc, #16]	; 3c <disk_initialize+0x3c>
  28:	e3500000 	cmp	r0, #0
  2c:	05d32000 	ldrbeq	r2, [r3]
  30:	020220fe 	andeq	r2, r2, #254	; 0xfe
  34:	05c32000 	strbeq	r2, [r3]
  38:	eafffff4 	b	10 <disk_initialize+0x10>
	...

00000044 <disk_read>:
  44:	e16fcf13 	clz	ip, r3
  48:	e1a0c2ac 	lsr	ip, ip, #5
  4c:	e3500000 	cmp	r0, #0
  50:	01a0000c 	moveq	r0, ip
  54:	138c0001 	orrne	r0, ip, #1
  58:	e3500000 	cmp	r0, #0
  5c:	0a000001 	beq	68 <disk_read+0x24>
  60:	e3a00004 	mov	r0, #4
  64:	e12fff1e 	bx	lr
  68:	e59f0044 	ldr	r0, [pc, #68]	; b4 <disk_read+0x70>
  6c:	e5d00000 	ldrb	r0, [r0]
  70:	e3100001 	tst	r0, #1
  74:	0a000001 	beq	80 <disk_read+0x3c>
  78:	e3a00003 	mov	r0, #3
  7c:	e12fff1e 	bx	lr
  80:	e92d4010 	push	{r4, lr}
  84:	e1a04003 	mov	r4, r3
  88:	e1a03002 	mov	r3, r2
  8c:	e59f2024 	ldr	r2, [pc, #36]	; b8 <disk_read+0x74>
  90:	e5920000 	ldr	r0, [r2]
  94:	e5902010 	ldr	r2, [r0, #16]
  98:	e0040492 	mul	r4, r2, r4
  9c:	e1a02004 	mov	r2, r4
  a0:	ebfffffe 	bl	0 <sd_read>
  a4:	e1540000 	cmp	r4, r0
  a8:	93a00000 	movls	r0, #0
  ac:	83a00001 	movhi	r0, #1
  b0:	e8bd8010 	pop	{r4, pc}
	...

000000bc <disk_write>:
  bc:	e3a00000 	mov	r0, #0
  c0:	e12fff1e 	bx	lr

000000c4 <disk_status>:
  c4:	e3500000 	cmp	r0, #0
  c8:	059f300c 	ldreq	r3, [pc, #12]	; dc <disk_status+0x18>
  cc:	05d30000 	ldrbeq	r0, [r3]
  d0:	06ef0070 	uxtbeq	r0, r0
  d4:	13a00001 	movne	r0, #1
  d8:	e12fff1e 	bx	lr
  dc:	00000000 	andeq	r0, r0, r0

000000e0 <disk_ioctl>:
  e0:	e3510003 	cmp	r1, #3
  e4:	979ff101 	ldrls	pc, [pc, r1, lsl #2]
  e8:	ea000011 	b	134 <disk_ioctl+0x54>
  ec:	00000114 	andeq	r0, r0, r4, lsl r1
  f0:	0000011c 	andeq	r0, r0, ip, lsl r1
  f4:	000000fc 	strdeq	r0, [r0], -ip
  f8:	000000fc 	strdeq	r0, [r0], -ip
  fc:	e59f3038 	ldr	r3, [pc, #56]	; 13c <disk_ioctl+0x5c>
 100:	e3a00000 	mov	r0, #0
 104:	e5933000 	ldr	r3, [r3]
 108:	e5933010 	ldr	r3, [r3, #16]
 10c:	e5823000 	str	r3, [r2]
 110:	e12fff1e 	bx	lr
 114:	e3a00000 	mov	r0, #0
 118:	e12fff1e 	bx	lr
 11c:	e59f3018 	ldr	r3, [pc, #24]	; 13c <disk_ioctl+0x5c>
 120:	e3a00000 	mov	r0, #0
 124:	e5933000 	ldr	r3, [r3]
 128:	e5933014 	ldr	r3, [r3, #20]
 12c:	e5823000 	str	r3, [r2]
 130:	e12fff1e 	bx	lr
 134:	e3a00004 	mov	r0, #4
 138:	e12fff1e 	bx	lr
 13c:	00000000 	andeq	r0, r0, r0

00000140 <get_fattime>:
 140:	e3a03000 	mov	r3, #0
 144:	e52de004 	push	{lr}		; (str lr, [sp, #-4]!)
 148:	e1a00003 	mov	r0, r3
 14c:	e24dd00c 	sub	sp, sp, #12
 150:	e58d3004 	str	r3, [sp, #4]
 154:	ebfffffe 	bl	0 <sys_time>
 158:	e28d3008 	add	r3, sp, #8
 15c:	e5230004 	str	r0, [r3, #-4]!
 160:	e1a00003 	mov	r0, r3
 164:	ebfffffe 	bl	0 <localtime>
 168:	e590100c 	ldr	r1, [r0, #12]
 16c:	e5903008 	ldr	r3, [r0, #8]
 170:	e5902004 	ldr	r2, [r0, #4]
 174:	e1a01801 	lsl	r1, r1, #16
 178:	e1811583 	orr	r1, r1, r3, lsl #11
 17c:	e590c000 	ldr	ip, [r0]
 180:	e5903014 	ldr	r3, [r0, #20]
 184:	e1812282 	orr	r2, r1, r2, lsl #5
 188:	e5900010 	ldr	r0, [r0, #16]
 18c:	e18220ac 	orr	r2, r2, ip, lsr #1
 190:	e2433050 	sub	r3, r3, #80	; 0x50
 194:	e1823c83 	orr	r3, r2, r3, lsl #25
 198:	e2800001 	add	r0, r0, #1
 19c:	e1830a80 	orr	r0, r3, r0, lsl #21
 1a0:	e28dd00c 	add	sp, sp, #12
 1a4:	e49df004 	pop	{pc}		; (ldr pc, [sp], #4)

Disassembly of section .data:

00000000 <Stat>:
   0:	Address 0x0000000000000000 is out of bounds.


Disassembly of section .bss:

00000000 <emmc_dev>:
   0:	00000000 	andeq	r0, r0, r0

Disassembly of section .comment:

00000000 <.comment>:
   0:	43434700 	movtmi	r4, #14080	; 0x3700
   4:	4728203a 			; <UNDEFINED> instruction: 0x4728203a
   8:	2029554e 	eorcs	r5, r9, lr, asr #10
   c:	2e392e34 	mrccs	14, 1, r2, cr9, cr4, {1}
  10:	Address 0x0000000000000010 is out of bounds.


Disassembly of section .ARM.attributes:

00000000 <.ARM.attributes>:
   0:	00003d41 	andeq	r3, r0, r1, asr #26
   4:	61656100 	cmnvs	r5, r0, lsl #2
   8:	01006962 	tsteq	r0, r2, ror #18
   c:	00000033 	andeq	r0, r0, r3, lsr r0
  10:	4d524105 	ldfmie	f4, [r2, #-20]	; 0xffffffec
  14:	36373131 			; <UNDEFINED> instruction: 0x36373131
  18:	2d465a4a 	vstrcs	s11, [r6, #-296]	; 0xfffffed8
  1c:	07060053 	smlsdeq	r6, r3, r0, r0
  20:	01090108 	tsteq	r9, r8, lsl #2
  24:	0412020a 	ldreq	r0, [r2], #-522	; 0xfffffdf6
  28:	01150114 	tsteq	r5, r4, lsl r1
  2c:	01180317 	tsteq	r8, r7, lsl r3
  30:	011a0119 	tsteq	sl, r9, lsl r1
  34:	011c031b 	tsteq	ip, fp, lsl r3
  38:	0122021e 	teqeq	r2, lr, lsl r2
  3c:	Address 0x000000000000003c is out of bounds.

