
build/main.elf:     file format elf32-littlearm


Disassembly of section .init:

00008000 <__ram_start>:
    8000:	e59ff018 	ldr	pc, [pc, #24]	; 8020 <reset_handler>
    8004:	e59ff018 	ldr	pc, [pc, #24]	; 8024 <undefined_handler>
    8008:	e59ff018 	ldr	pc, [pc, #24]	; 8028 <swi_handler>
    800c:	e59ff018 	ldr	pc, [pc, #24]	; 802c <prefetch_handler>
    8010:	e59ff018 	ldr	pc, [pc, #24]	; 8030 <data_handler>
    8014:	e59ff018 	ldr	pc, [pc, #24]	; 8034 <unused_handler>
    8018:	e59ff018 	ldr	pc, [pc, #24]	; 8038 <irq_handler>
    801c:	e59ff018 	ldr	pc, [pc, #24]	; 803c <fiq_handler>

00008020 <reset_handler>:
    8020:	00008040 	andeq	r8, r0, r0, asr #32

00008024 <undefined_handler>:
    8024:	000080e0 	andeq	r8, r0, r0, ror #1

00008028 <swi_handler>:
    8028:	000080e0 	andeq	r8, r0, r0, ror #1

0000802c <prefetch_handler>:
    802c:	000080e0 	andeq	r8, r0, r0, ror #1

00008030 <data_handler>:
    8030:	000080e0 	andeq	r8, r0, r0, ror #1

00008034 <unused_handler>:
    8034:	000080e0 	andeq	r8, r0, r0, ror #1

00008038 <irq_handler>:
    8038:	000080bc 	strheq	r8, [r0], -ip

0000803c <fiq_handler>:
    803c:	000080c0 	andeq	r8, r0, r0, asr #1

00008040 <reset>:
    8040:	e59f107c 	ldr	r1, [pc, #124]	; 80c4 <fiq+0x4>
    8044:	e3a02000 	mov	r2, #0
    8048:	e59f3078 	ldr	r3, [pc, #120]	; 80c8 <fiq+0x8>
    804c:	e1520003 	cmp	r2, r3
    8050:	34910004 	ldrcc	r0, [r1], #4
    8054:	34820004 	strcc	r0, [r2], #4
    8058:	3afffffb 	bcc	804c <reset+0xc>
    805c:	e321f0d2 	msr	CPSR_c, #210	; 0xd2
    8060:	e59f0064 	ldr	r0, [pc, #100]	; 80cc <fiq+0xc>
    8064:	e1a0d000 	mov	sp, r0
    8068:	e321f0d1 	msr	CPSR_c, #209	; 0xd1
    806c:	e59f005c 	ldr	r0, [pc, #92]	; 80d0 <fiq+0x10>
    8070:	e1a0d000 	mov	sp, r0
    8074:	e321f0d3 	msr	CPSR_c, #211	; 0xd3
    8078:	e59f0054 	ldr	r0, [pc, #84]	; 80d4 <fiq+0x14>
    807c:	e1a0d000 	mov	sp, r0
    8080:	ee110f50 	mrc	15, 0, r0, cr1, cr0, {2}
    8084:	e3800603 	orr	r0, r0, #3145728	; 0x300000
    8088:	e3800503 	orr	r0, r0, #12582912	; 0xc00000
    808c:	ee010f50 	mcr	15, 0, r0, cr1, cr0, {2}
    8090:	e3a00101 	mov	r0, #1073741824	; 0x40000000
    8094:	eee80a10 	vmsr	fpexc, r0
    8098:	e3a00000 	mov	r0, #0
    809c:	e59f1034 	ldr	r1, [pc, #52]	; 80d8 <fiq+0x18>
    80a0:	e59f2034 	ldr	r2, [pc, #52]	; 80dc <fiq+0x1c>
    80a4:	e1510002 	cmp	r1, r2
    80a8:	34810004 	strcc	r0, [r1], #4
    80ac:	3afffffc 	bcc	80a4 <reset+0x64>
    80b0:	eb000bae 	bl	af70 <notmain>

000080b4 <halt>:
    80b4:	e320f002 	wfe
    80b8:	eafffffd 	b	80b4 <halt>

000080bc <irq>:
    80bc:	ea0001f6 	b	889c <c_irq_handler>

000080c0 <fiq>:
    80c0:	ea000069 	b	826c <c_fiq_handler>
    80c4:	00008000 	andeq	r8, r0, r0
    80c8:	00008020 	andeq	r8, r0, r0, lsr #32
    80cc:	0001b594 	muleq	r1, r4, r5
    80d0:	0001b194 	muleq	r1, r4, r1
    80d4:	0001b994 	muleq	r1, r4, r9
    80d8:	00018250 	andeq	r8, r1, r0, asr r2
    80dc:	0001a594 	muleq	r1, r4, r5

Disassembly of section .text:

000080e0 <hang>:
    80e0:	eafffffe 	b	80e0 <hang>

000080e4 <__enable_irq>:
    80e4:	e10f0000 	mrs	r0, CPSR
    80e8:	e3c00080 	bic	r0, r0, #128	; 0x80
    80ec:	e121f000 	msr	CPSR_c, r0
    80f0:	e12fff1e 	bx	lr

000080f4 <__disable_irq>:
    80f4:	e10f1000 	mrs	r1, CPSR
    80f8:	e3811080 	orr	r1, r1, #128	; 0x80
    80fc:	e121f001 	msr	CPSR_c, r1
    8100:	e12fff1e 	bx	lr

00008104 <__enable_fiq>:
    8104:	e10f0000 	mrs	r0, CPSR
    8108:	e3c00040 	bic	r0, r0, #64	; 0x40
    810c:	e121f000 	msr	CPSR_c, r0
    8110:	e12fff1e 	bx	lr

00008114 <__disable_fiq>:
    8114:	e10f1000 	mrs	r1, CPSR
    8118:	e3811040 	orr	r1, r1, #64	; 0x40
    811c:	e121f001 	msr	CPSR_c, r1
    8120:	e12fff1e 	bx	lr

00008124 <memory_barrier>:
    8124:	e3a00000 	mov	r0, #0
    8128:	ee070fba 	mcr	15, 0, r0, cr7, cr10, {5}
    812c:	e12fff1e 	bx	lr

00008130 <dmx_slot_to_slot_get>:
    8130:	e59f3004 	ldr	r3, [pc, #4]	; 813c <dmx_slot_to_slot_get+0xc>
    8134:	e5930000 	ldr	r0, [r3]
    8138:	e12fff1e 	bx	lr
    813c:	00018250 	andeq	r8, r1, r0, asr r2

00008140 <dmx_slots_in_packet_get>:
    8140:	e59f3004 	ldr	r3, [pc, #4]	; 814c <dmx_slots_in_packet_get+0xc>
    8144:	e5930004 	ldr	r0, [r3, #4]
    8148:	e12fff1e 	bx	lr
    814c:	00018250 	andeq	r8, r1, r0, asr r2

00008150 <rdm_available_get>:
    8150:	e59f3024 	ldr	r3, [pc, #36]	; 817c <rdm_available_get+0x2c>
    8154:	e1d320b8 	ldrh	r2, [r3, #8]
    8158:	e1d310ba 	ldrh	r1, [r3, #10]
    815c:	e1510002 	cmp	r1, r2
    8160:	12821001 	addne	r1, r2, #1
    8164:	1283000c 	addne	r0, r3, #12
    8168:	1201100f 	andne	r1, r1, #15
    816c:	10800482 	addne	r0, r0, r2, lsl #9
    8170:	11c310b8 	strhne	r1, [r3, #8]
    8174:	03a00000 	moveq	r0, #0
    8178:	e12fff1e 	bx	lr
    817c:	00018250 	andeq	r8, r1, r0, asr r2

00008180 <rdm_get_current_data>:
    8180:	e59f300c 	ldr	r3, [pc, #12]	; 8194 <rdm_get_current_data+0x14>
    8184:	e1d300b8 	ldrh	r0, [r3, #8]
    8188:	e283300c 	add	r3, r3, #12
    818c:	e0830480 	add	r0, r3, r0, lsl #9
    8190:	e12fff1e 	bx	lr
    8194:	00018250 	andeq	r8, r1, r0, asr r2

00008198 <dmx_available_get>:
    8198:	e59f3004 	ldr	r3, [pc, #4]	; 81a4 <dmx_available_get+0xc>
    819c:	e5d30014 	ldrb	r0, [r3, #20]
    81a0:	e12fff1e 	bx	lr
    81a4:	0001a248 	andeq	sl, r1, r8, asr #4

000081a8 <dmx_available_set>:
    81a8:	e59f3004 	ldr	r3, [pc, #4]	; 81b4 <dmx_available_set+0xc>
    81ac:	e5c30014 	strb	r0, [r3, #20]
    81b0:	e12fff1e 	bx	lr
    81b4:	0001a248 	andeq	sl, r1, r8, asr #4

000081b8 <dmx_port_direction_get>:
    81b8:	e59f3004 	ldr	r3, [pc, #4]	; 81c4 <dmx_port_direction_get+0xc>
    81bc:	e5d30015 	ldrb	r0, [r3, #21]
    81c0:	e12fff1e 	bx	lr
    81c4:	0001a248 	andeq	sl, r1, r8, asr #4

000081c8 <rdm_data_receive_end_get>:
    81c8:	e59f3004 	ldr	r3, [pc, #4]	; 81d4 <rdm_data_receive_end_get+0xc>
    81cc:	e1c301d8 	ldrd	r0, [r3, #24]
    81d0:	e12fff1e 	bx	lr
    81d4:	0001a248 	andeq	sl, r1, r8, asr #4

000081d8 <dmx_output_break_time_get>:
    81d8:	e59f3004 	ldr	r3, [pc, #4]	; 81e4 <dmx_output_break_time_get+0xc>
    81dc:	e1c300d0 	ldrd	r0, [r3]
    81e0:	e12fff1e 	bx	lr
    81e4:	00017268 	andeq	r7, r1, r8, ror #4

000081e8 <dmx_output_break_time_set>:
    81e8:	e3510000 	cmp	r1, #0
    81ec:	0350005c 	cmpeq	r0, #92	; 0x5c
    81f0:	33a0005c 	movcc	r0, #92	; 0x5c
    81f4:	33a01000 	movcc	r1, #0
    81f8:	e59f3004 	ldr	r3, [pc, #4]	; 8204 <dmx_output_break_time_set+0x1c>
    81fc:	e1c300f0 	strd	r0, [r3]
    8200:	e12fff1e 	bx	lr
    8204:	00017268 	andeq	r7, r1, r8, ror #4

00008208 <dmx_output_mab_time_get>:
    8208:	e59f3004 	ldr	r3, [pc, #4]	; 8214 <dmx_output_mab_time_get+0xc>
    820c:	e1c300d8 	ldrd	r0, [r3, #8]
    8210:	e12fff1e 	bx	lr
    8214:	00017268 	andeq	r7, r1, r8, ror #4

00008218 <dmx_output_mab_time_set>:
    8218:	e3510000 	cmp	r1, #0
    821c:	0350000c 	cmpeq	r0, #12
    8220:	33a0000c 	movcc	r0, #12
    8224:	33a01000 	movcc	r1, #0
    8228:	e59f3004 	ldr	r3, [pc, #4]	; 8234 <dmx_output_mab_time_set+0x1c>
    822c:	e1c300f8 	strd	r0, [r3, #8]
    8230:	e12fff1e 	bx	lr
    8234:	00017268 	andeq	r7, r1, r8, ror #4

00008238 <dmx_statistics_reset>:
    8238:	e59f0008 	ldr	r0, [pc, #8]	; 8248 <dmx_statistics_reset+0x10>
    823c:	e3a01000 	mov	r1, #0
    8240:	e3a0200a 	mov	r2, #10
    8244:	ea00173f 	b	df48 <memset>
    8248:	0001a268 	andeq	sl, r1, r8, ror #4

0000824c <total_statistics_reset>:
    824c:	e59f0008 	ldr	r0, [pc, #8]	; 825c <total_statistics_reset+0x10>
    8250:	e3a01000 	mov	r1, #0
    8254:	e3a02008 	mov	r2, #8
    8258:	ea00173a 	b	df48 <memset>
    825c:	0001a274 	andeq	sl, r1, r4, ror r2

00008260 <total_statistics_get>:
    8260:	e59f0000 	ldr	r0, [pc]	; 8268 <total_statistics_get+0x8>
    8264:	e12fff1e 	bx	lr
    8268:	0001a274 	andeq	sl, r1, r4, ror r2

0000826c <c_fiq_handler>:
    826c:	e24ee004 	sub	lr, lr, #4
    8270:	e92d407f 	push	{r0, r1, r2, r3, r4, r5, r6, lr}
    8274:	e3a03000 	mov	r3, #0
    8278:	ee073fba 	mcr	15, 0, r3, cr7, cr10, {5}
    827c:	e59f2274 	ldr	r2, [pc, #628]	; 84f8 <c_fiq_handler+0x28c>
    8280:	e59f3274 	ldr	r3, [pc, #628]	; 84fc <c_fiq_handler+0x290>
    8284:	e5922004 	ldr	r2, [r2, #4]
    8288:	e59f1270 	ldr	r1, [pc, #624]	; 8500 <c_fiq_handler+0x294>
    828c:	e5832034 	str	r2, [r3, #52]	; 0x34
    8290:	e5912000 	ldr	r2, [r1]
    8294:	e3120b01 	tst	r2, #1024	; 0x400
    8298:	13a02001 	movne	r2, #1
    829c:	15c32038 	strbne	r2, [r3, #56]	; 0x38
    82a0:	1a000020 	bne	8328 <c_fiq_handler+0xbc>
    82a4:	e5d32038 	ldrb	r2, [r3, #56]	; 0x38
    82a8:	e5911000 	ldr	r1, [r1]
    82ac:	e2422001 	sub	r2, r2, #1
    82b0:	e6ef1071 	uxtb	r1, r1
    82b4:	e3520005 	cmp	r2, #5
    82b8:	979ff102 	ldrls	pc, [pc, r2, lsl #2]
    82bc:	ea000019 	b	8328 <c_fiq_handler+0xbc>
    82c0:	00008398 	muleq	r0, r8, r3
    82c4:	00008328 	andeq	r8, r0, r8, lsr #6
    82c8:	00008418 	andeq	r8, r0, r8, lsl r4
    82cc:	000082d8 	ldrdeq	r8, [r0], -r8	; <UNPREDICTABLE>
    82d0:	000083e0 	andeq	r8, r0, r0, ror #7
    82d4:	0000833c 	andeq	r8, r0, ip, lsr r3
    82d8:	e1d303ba 	ldrh	r0, [r3, #58]	; 0x3a
    82dc:	e59f4218 	ldr	r4, [pc, #536]	; 84fc <c_fiq_handler+0x290>
    82e0:	e3500c02 	cmp	r0, #512	; 0x200
    82e4:	8a000028 	bhi	838c <c_fiq_handler+0x120>
    82e8:	e59f2214 	ldr	r2, [pc, #532]	; 8504 <c_fiq_handler+0x298>
    82ec:	e280c001 	add	ip, r0, #1
    82f0:	e1d2e0ba 	ldrh	lr, [r2, #10]
    82f4:	e1d454b0 	ldrh	r5, [r4, #64]	; 0x40
    82f8:	e1a0e48e 	lsl	lr, lr, #9
    82fc:	e082600e 	add	r6, r2, lr
    8300:	e0860000 	add	r0, r6, r0
    8304:	e5c0100c 	strb	r1, [r0, #12]
    8308:	e5d6000e 	ldrb	r0, [r6, #14]
    830c:	e6ff207c 	uxth	r2, ip
    8310:	e1500002 	cmp	r0, r2
    8314:	e1c423ba 	strh	r2, [r4, #58]	; 0x3a
    8318:	03a02005 	moveq	r2, #5
    831c:	e0811005 	add	r1, r1, r5
    8320:	e1c414b0 	strh	r1, [r4, #64]	; 0x40
    8324:	05c42038 	strbeq	r2, [r4, #56]	; 0x38
    8328:	e5931034 	ldr	r1, [r3, #52]	; 0x34
    832c:	e3a02000 	mov	r2, #0
    8330:	e583103c 	str	r1, [r3, #60]	; 0x3c
    8334:	ee072fba 	mcr	15, 0, r2, cr7, cr10, {5}
    8338:	e8fd807f 	ldm	sp!, {r0, r1, r2, r3, r4, r5, r6, pc}^
    833c:	e59fe1c0 	ldr	lr, [pc, #448]	; 8504 <c_fiq_handler+0x298>
    8340:	e1d324b0 	ldrh	r2, [r3, #64]	; 0x40
    8344:	e1de50ba 	ldrh	r5, [lr, #10]
    8348:	e1d303ba 	ldrh	r0, [r3, #58]	; 0x3a
    834c:	e1a04485 	lsl	r4, r5, #9
    8350:	e0612002 	rsb	r2, r1, r2
    8354:	e6ff2072 	uxth	r2, r2
    8358:	e08ec004 	add	ip, lr, r4
    835c:	e08cc000 	add	ip, ip, r0
    8360:	e3520000 	cmp	r2, #0
    8364:	e2800001 	add	r0, r0, #1
    8368:	e1c303ba 	strh	r0, [r3, #58]	; 0x3a
    836c:	e5cc100c 	strb	r1, [ip, #12]
    8370:	e1c324b0 	strh	r2, [r3, #64]	; 0x40
    8374:	e59f0180 	ldr	r0, [pc, #384]	; 84fc <c_fiq_handler+0x290>
    8378:	1a000003 	bne	838c <c_fiq_handler+0x120>
    837c:	e08e4004 	add	r4, lr, r4
    8380:	e5d4100d 	ldrb	r1, [r4, #13]
    8384:	e3510001 	cmp	r1, #1
    8388:	0a00003d 	beq	8484 <c_fiq_handler+0x218>
    838c:	e3a02000 	mov	r2, #0
    8390:	e5c32038 	strb	r2, [r3, #56]	; 0x38
    8394:	eaffffe3 	b	8328 <c_fiq_handler+0xbc>
    8398:	e3510000 	cmp	r1, #0
    839c:	0a000040 	beq	84a4 <c_fiq_handler+0x238>
    83a0:	e35100cc 	cmp	r1, #204	; 0xcc
    83a4:	1afffff8 	bne	838c <c_fiq_handler+0x120>
    83a8:	e3a0c001 	mov	ip, #1
    83ac:	e3e04033 	mvn	r4, #51	; 0x33
    83b0:	e3a0e004 	mov	lr, #4
    83b4:	e59f2148 	ldr	r2, [pc, #328]	; 8504 <c_fiq_handler+0x298>
    83b8:	e5930030 	ldr	r0, [r3, #48]	; 0x30
    83bc:	e1d250ba 	ldrh	r5, [r2, #10]
    83c0:	e080000c 	add	r0, r0, ip
    83c4:	e0822485 	add	r2, r2, r5, lsl #9
    83c8:	e1c314b0 	strh	r1, [r3, #64]	; 0x40
    83cc:	e5c2400c 	strb	r4, [r2, #12]
    83d0:	e5830030 	str	r0, [r3, #48]	; 0x30
    83d4:	e5c3e038 	strb	lr, [r3, #56]	; 0x38
    83d8:	e1c3c3ba 	strh	ip, [r3, #58]	; 0x3a
    83dc:	eaffffd1 	b	8328 <c_fiq_handler+0xbc>
    83e0:	e3a0e006 	mov	lr, #6
    83e4:	e59f2118 	ldr	r2, [pc, #280]	; 8504 <c_fiq_handler+0x298>
    83e8:	e1d303ba 	ldrh	r0, [r3, #58]	; 0x3a
    83ec:	e1d240ba 	ldrh	r4, [r2, #10]
    83f0:	e1d3c4b0 	ldrh	ip, [r3, #64]	; 0x40
    83f4:	e0822484 	add	r2, r2, r4, lsl #9
    83f8:	e0822000 	add	r2, r2, r0
    83fc:	e04cc401 	sub	ip, ip, r1, lsl #8
    8400:	e2800001 	add	r0, r0, #1
    8404:	e5c2100c 	strb	r1, [r2, #12]
    8408:	e1c303ba 	strh	r0, [r3, #58]	; 0x3a
    840c:	e1c3c4b0 	strh	ip, [r3, #64]	; 0x40
    8410:	e5c3e038 	strb	lr, [r3, #56]	; 0x38
    8414:	eaffffc3 	b	8328 <c_fiq_handler+0xbc>
    8418:	e3a05002 	mov	r5, #2
    841c:	e5932034 	ldr	r2, [r3, #52]	; 0x34
    8420:	e593003c 	ldr	r0, [r3, #60]	; 0x3c
    8424:	e59f40d8 	ldr	r4, [pc, #216]	; 8504 <c_fiq_handler+0x298>
    8428:	e1d3e3ba 	ldrh	lr, [r3, #58]	; 0x3a
    842c:	e0602002 	rsb	r2, r0, r2
    8430:	e5842000 	str	r2, [r4]
    8434:	e5930034 	ldr	r0, [r3, #52]	; 0x34
    8438:	e28e2001 	add	r2, lr, #1
    843c:	e6ff2072 	uxth	r2, r2
    8440:	e59fc0b0 	ldr	ip, [pc, #176]	; 84f8 <c_fiq_handler+0x28c>
    8444:	e59f60bc 	ldr	r6, [pc, #188]	; 8508 <c_fiq_handler+0x29c>
    8448:	e280002d 	add	r0, r0, #45	; 0x2d
    844c:	e3520c02 	cmp	r2, #512	; 0x200
    8450:	e1c323ba 	strh	r2, [r3, #58]	; 0x3a
    8454:	e7c6100e 	strb	r1, [r6, lr]
    8458:	e59f209c 	ldr	r2, [pc, #156]	; 84fc <c_fiq_handler+0x290>
    845c:	e58c0010 	str	r0, [ip, #16]
    8460:	e58c5000 	str	r5, [ip]
    8464:	9affffaf 	bls	8328 <c_fiq_handler+0xbc>
    8468:	e3a0c000 	mov	ip, #0
    846c:	e3a00001 	mov	r0, #1
    8470:	e3a01c02 	mov	r1, #512	; 0x200
    8474:	e5c2c038 	strb	ip, [r2, #56]	; 0x38
    8478:	e5c20014 	strb	r0, [r2, #20]
    847c:	e5841004 	str	r1, [r4, #4]
    8480:	eaffffa8 	b	8328 <c_fiq_handler+0xbc>
    8484:	e59fc06c 	ldr	ip, [pc, #108]	; 84f8 <c_fiq_handler+0x28c>
    8488:	e2851001 	add	r1, r5, #1
    848c:	e59cc004 	ldr	ip, [ip, #4]
    8490:	e201100f 	and	r1, r1, #15
    8494:	e1ce10ba 	strh	r1, [lr, #10]
    8498:	e580201c 	str	r2, [r0, #28]
    849c:	e580c018 	str	ip, [r0, #24]
    84a0:	eaffffb9 	b	838c <c_fiq_handler+0x120>
    84a4:	e3a0e001 	mov	lr, #1
    84a8:	e3a04002 	mov	r4, #2
    84ac:	e3a05003 	mov	r5, #3
    84b0:	e5932034 	ldr	r2, [r3, #52]	; 0x34
    84b4:	e593c03c 	ldr	ip, [r3, #60]	; 0x3c
    84b8:	e59f0044 	ldr	r0, [pc, #68]	; 8504 <c_fiq_handler+0x298>
    84bc:	e06c2002 	rsb	r2, ip, r2
    84c0:	e5802000 	str	r2, [r0]
    84c4:	e5932034 	ldr	r2, [r3, #52]	; 0x34
    84c8:	e593002c 	ldr	r0, [r3, #44]	; 0x2c
    84cc:	e59fc024 	ldr	ip, [pc, #36]	; 84f8 <c_fiq_handler+0x28c>
    84d0:	e59f6030 	ldr	r6, [pc, #48]	; 8508 <c_fiq_handler+0x29c>
    84d4:	e282202d 	add	r2, r2, #45	; 0x2d
    84d8:	e080000e 	add	r0, r0, lr
    84dc:	e5c61000 	strb	r1, [r6]
    84e0:	e583002c 	str	r0, [r3, #44]	; 0x2c
    84e4:	e58c2010 	str	r2, [ip, #16]
    84e8:	e5c35038 	strb	r5, [r3, #56]	; 0x38
    84ec:	e58c4000 	str	r4, [ip]
    84f0:	e1c3e3ba 	strh	lr, [r3, #58]	; 0x3a
    84f4:	eaffff8b 	b	8328 <c_fiq_handler+0xbc>
    84f8:	20003000 	andcs	r3, r0, r0
    84fc:	0001a248 	andeq	sl, r1, r8, asr #4
    8500:	20201000 	eorcs	r1, r0, r0
    8504:	00018250 	andeq	r8, r1, r0, asr r2
    8508:	0001a360 	andeq	sl, r1, r0, ror #6

0000850c <dmx_data_start>:
    850c:	e59f2020 	ldr	r2, [pc, #32]	; 8534 <dmx_data_start+0x28>
    8510:	e5d23015 	ldrb	r3, [r2, #21]
    8514:	e3530001 	cmp	r3, #1
    8518:	0a000004 	beq	8530 <dmx_data_start+0x24>
    851c:	e3530002 	cmp	r3, #2
    8520:	112fff1e 	bxne	lr
    8524:	e3a03000 	mov	r3, #0
    8528:	e5c23038 	strb	r3, [r2, #56]	; 0x38
    852c:	eafffef4 	b	8104 <__enable_fiq>
    8530:	eafffef7 	b	8114 <__disable_fiq>
    8534:	0001a248 	andeq	sl, r1, r8, asr #4

00008538 <dmx_data_stop>:
    8538:	eafffef5 	b	8114 <__disable_fiq>

0000853c <dmx_port_direction_set>:
    853c:	e3500001 	cmp	r0, #1
    8540:	e92d4038 	push	{r3, r4, r5, lr}
    8544:	e1a04000 	mov	r4, r0
    8548:	e1a05001 	mov	r5, r1
    854c:	0a00001a 	beq	85bc <dmx_port_direction_set+0x80>
    8550:	3a000011 	bcc	859c <dmx_port_direction_set+0x60>
    8554:	e3500002 	cmp	r0, #2
    8558:	1a00000b 	bne	858c <dmx_port_direction_set+0x50>
    855c:	ebfffeec 	bl	8114 <__disable_fiq>
    8560:	e3a01701 	mov	r1, #262144	; 0x40000
    8564:	e59f2078 	ldr	r2, [pc, #120]	; 85e4 <dmx_port_direction_set+0xa8>
    8568:	e59f3078 	ldr	r3, [pc, #120]	; 85e8 <dmx_port_direction_set+0xac>
    856c:	e3550000 	cmp	r5, #0
    8570:	e5821028 	str	r1, [r2, #40]	; 0x28
    8574:	e5c34015 	strb	r4, [r3, #21]
    8578:	08bd8038 	popeq	{r3, r4, r5, pc}
    857c:	e3a02000 	mov	r2, #0
    8580:	e5c32038 	strb	r2, [r3, #56]	; 0x38
    8584:	e8bd4038 	pop	{r3, r4, r5, lr}
    8588:	eafffedd 	b	8104 <__enable_fiq>
    858c:	e3a02000 	mov	r2, #0
    8590:	e59f3050 	ldr	r3, [pc, #80]	; 85e8 <dmx_port_direction_set+0xac>
    8594:	e5c32015 	strb	r2, [r3, #21]
    8598:	e8bd8038 	pop	{r3, r4, r5, pc}
    859c:	ebfffedc 	bl	8114 <__disable_fiq>
    85a0:	e3a00701 	mov	r0, #262144	; 0x40000
    85a4:	e3a02000 	mov	r2, #0
    85a8:	e59f1034 	ldr	r1, [pc, #52]	; 85e4 <dmx_port_direction_set+0xa8>
    85ac:	e59f3034 	ldr	r3, [pc, #52]	; 85e8 <dmx_port_direction_set+0xac>
    85b0:	e5810028 	str	r0, [r1, #40]	; 0x28
    85b4:	e5c32015 	strb	r2, [r3, #21]
    85b8:	e8bd8038 	pop	{r3, r4, r5, pc}
    85bc:	ebfffed4 	bl	8114 <__disable_fiq>
    85c0:	e3a01701 	mov	r1, #262144	; 0x40000
    85c4:	e59f2018 	ldr	r2, [pc, #24]	; 85e4 <dmx_port_direction_set+0xa8>
    85c8:	e59f3018 	ldr	r3, [pc, #24]	; 85e8 <dmx_port_direction_set+0xac>
    85cc:	e3550000 	cmp	r5, #0
    85d0:	e582101c 	str	r1, [r2, #28]
    85d4:	e5c34015 	strb	r4, [r3, #21]
    85d8:	08bd8038 	popeq	{r3, r4, r5, pc}
    85dc:	e8bd4038 	pop	{r3, r4, r5, lr}
    85e0:	eafffecb 	b	8114 <__disable_fiq>
    85e4:	20200000 	eorcs	r0, r0, r0
    85e8:	0001a248 	andeq	sl, r1, r8, asr #4

000085ec <dmx_data_send>:
    85ec:	e92d40f8 	push	{r3, r4, r5, r6, r7, lr}
    85f0:	e3a03069 	mov	r3, #105	; 0x69
    85f4:	e59f407c 	ldr	r4, [pc, #124]	; 8678 <dmx_data_send+0x8c>
    85f8:	e59f707c 	ldr	r7, [pc, #124]	; 867c <dmx_data_send+0x90>
    85fc:	e1a05000 	mov	r5, r0
    8600:	e1a06001 	mov	r6, r1
    8604:	e1c700d0 	ldrd	r0, [r7]
    8608:	e584302c 	str	r3, [r4, #44]	; 0x2c
    860c:	eb001046 	bl	c72c <udelay>
    8610:	e1c700d8 	ldrd	r0, [r7, #8]
    8614:	e3a03068 	mov	r3, #104	; 0x68
    8618:	e584302c 	str	r3, [r4, #44]	; 0x2c
    861c:	eb001042 	bl	c72c <udelay>
    8620:	e3560000 	cmp	r6, #0
    8624:	12460001 	subne	r0, r6, #1
    8628:	11a0c004 	movne	ip, r4
    862c:	16f50070 	uxtahne	r0, r5, r0
    8630:	12451001 	subne	r1, r5, #1
    8634:	0a000007 	beq	8658 <dmx_data_send+0x6c>
    8638:	e59c3018 	ldr	r3, [ip, #24]
    863c:	e59f2034 	ldr	r2, [pc, #52]	; 8678 <dmx_data_send+0x8c>
    8640:	e3130020 	tst	r3, #32
    8644:	1afffffb 	bne	8638 <dmx_data_send+0x4c>
    8648:	e5f13001 	ldrb	r3, [r1, #1]!
    864c:	e1510000 	cmp	r1, r0
    8650:	e5823000 	str	r3, [r2]
    8654:	1afffff7 	bne	8638 <dmx_data_send+0x4c>
    8658:	e59f2018 	ldr	r2, [pc, #24]	; 8678 <dmx_data_send+0x8c>
    865c:	e5923018 	ldr	r3, [r2, #24]
    8660:	e3130020 	tst	r3, #32
    8664:	1afffffc 	bne	865c <dmx_data_send+0x70>
    8668:	e3a0002c 	mov	r0, #44	; 0x2c
    866c:	e8bd40f8 	pop	{r3, r4, r5, r6, r7, lr}
    8670:	e3a01000 	mov	r1, #0
    8674:	ea00102c 	b	c72c <udelay>
    8678:	20201000 	eorcs	r1, r0, r0
    867c:	00017268 	andeq	r7, r1, r8, ror #4

00008680 <dmx_init>:
    8680:	e92d40f8 	push	{r3, r4, r5, r6, r7, lr}
    8684:	e59f41dc 	ldr	r4, [pc, #476]	; 8868 <dmx_init+0x1e8>
    8688:	e2642000 	rsb	r2, r4, #0
    868c:	e2122003 	ands	r2, r2, #3
    8690:	0a000068 	beq	8838 <dmx_init+0x1b8>
    8694:	e3a03000 	mov	r3, #0
    8698:	e3520001 	cmp	r2, #1
    869c:	e5c43000 	strb	r3, [r4]
    86a0:	0a00006d 	beq	885c <dmx_init+0x1dc>
    86a4:	e3520003 	cmp	r2, #3
    86a8:	e5c43001 	strb	r3, [r4, #1]
    86ac:	1a000067 	bne	8850 <dmx_init+0x1d0>
    86b0:	e1a0e002 	mov	lr, r2
    86b4:	e59f61b0 	ldr	r6, [pc, #432]	; 886c <dmx_init+0x1ec>
    86b8:	e5c43002 	strb	r3, [r4, #2]
    86bc:	e2621f7f 	rsb	r1, r2, #508	; 0x1fc
    86c0:	e2811001 	add	r1, r1, #1
    86c4:	e1a01121 	lsr	r1, r1, #2
    86c8:	e2811001 	add	r1, r1, #1
    86cc:	e2625c02 	rsb	r5, r2, #512	; 0x200
    86d0:	e1a07101 	lsl	r7, r1, #2
    86d4:	e2855001 	add	r5, r5, #1
    86d8:	e3a03000 	mov	r3, #0
    86dc:	e1a0c003 	mov	ip, r3
    86e0:	e0842002 	add	r2, r4, r2
    86e4:	e2833001 	add	r3, r3, #1
    86e8:	e1510003 	cmp	r1, r3
    86ec:	e482c004 	str	ip, [r2], #4
    86f0:	e3a00000 	mov	r0, #0
    86f4:	8afffffa 	bhi	86e4 <dmx_init+0x64>
    86f8:	e1550007 	cmp	r5, r7
    86fc:	e08e3007 	add	r3, lr, r7
    8700:	e0676006 	rsb	r6, r7, r6
    8704:	0a000008 	beq	872c <dmx_init+0xac>
    8708:	e3560001 	cmp	r6, #1
    870c:	e7c40003 	strb	r0, [r4, r3]
    8710:	e59f2150 	ldr	r2, [pc, #336]	; 8868 <dmx_init+0x1e8>
    8714:	e2831001 	add	r1, r3, #1
    8718:	0a000003 	beq	872c <dmx_init+0xac>
    871c:	e3560002 	cmp	r6, #2
    8720:	e2833002 	add	r3, r3, #2
    8724:	e7c20001 	strb	r0, [r2, r1]
    8728:	17c20003 	strbne	r0, [r2, r3]
    872c:	e3a05000 	mov	r5, #0
    8730:	e59f3138 	ldr	r3, [pc, #312]	; 8870 <dmx_init+0x1f0>
    8734:	e59f4138 	ldr	r4, [pc, #312]	; 8874 <dmx_init+0x1f4>
    8738:	e1c350ba 	strh	r5, [r3, #10]
    873c:	e5946004 	ldr	r6, [r4, #4]
    8740:	e1c350b8 	strh	r5, [r3, #8]
    8744:	eb000086 	bl	8964 <ticks_per_second_get>
    8748:	e3a0300a 	mov	r3, #10
    874c:	e59f2124 	ldr	r2, [pc, #292]	; 8878 <dmx_init+0x1f8>
    8750:	e0800006 	add	r0, r0, r6
    8754:	e5840018 	str	r0, [r4, #24]
    8758:	e5843000 	str	r3, [r4]
    875c:	e5823010 	str	r3, [r2, #16]
    8760:	ebfffe5f 	bl	80e4 <__enable_irq>
    8764:	e59f4110 	ldr	r4, [pc, #272]	; 887c <dmx_init+0x1fc>
    8768:	e59f1110 	ldr	r1, [pc, #272]	; 8880 <dmx_init+0x200>
    876c:	e3a00002 	mov	r0, #2
    8770:	eb000eee 	bl	c330 <bcm2835_vc_set_clock_rate>
    8774:	e59f2108 	ldr	r2, [pc, #264]	; 8884 <dmx_init+0x204>
    8778:	e5845030 	str	r5, [r4, #48]	; 0x30
    877c:	e5923004 	ldr	r3, [r2, #4]
    8780:	e1a01005 	mov	r1, r5
    8784:	e3c33a3f 	bic	r3, r3, #258048	; 0x3f000
    8788:	e3833909 	orr	r3, r3, #147456	; 0x24000
    878c:	e5823004 	str	r3, [r2, #4]
    8790:	e3a0000e 	mov	r0, #14
    8794:	eb000dd4 	bl	beec <bcm2835_gpio_set_pud>
    8798:	e1a01005 	mov	r1, r5
    879c:	e3a0000f 	mov	r0, #15
    87a0:	eb000dd1 	bl	beec <bcm2835_gpio_set_pud>
    87a4:	e1a02004 	mov	r2, r4
    87a8:	e5923018 	ldr	r3, [r2, #24]
    87ac:	e59f50c8 	ldr	r5, [pc, #200]	; 887c <dmx_init+0x1fc>
    87b0:	e2134008 	ands	r4, r3, #8
    87b4:	1afffffb 	bne	87a8 <dmx_init+0x128>
    87b8:	e3a02001 	mov	r2, #1
    87bc:	e3a0e068 	mov	lr, #104	; 0x68
    87c0:	e595302c 	ldr	r3, [r5, #44]	; 0x2c
    87c4:	e59fc0bc 	ldr	ip, [pc, #188]	; 8888 <dmx_init+0x208>
    87c8:	e59f00bc 	ldr	r0, [pc, #188]	; 888c <dmx_init+0x20c>
    87cc:	e59f60bc 	ldr	r6, [pc, #188]	; 8890 <dmx_init+0x210>
    87d0:	e3c33010 	bic	r3, r3, #16
    87d4:	e585302c 	str	r3, [r5, #44]	; 0x2c
    87d8:	e1a01002 	mov	r1, r2
    87dc:	e5850044 	str	r0, [r5, #68]	; 0x44
    87e0:	e5852024 	str	r2, [r5, #36]	; 0x24
    87e4:	e3a00012 	mov	r0, #18
    87e8:	e5854028 	str	r4, [r5, #40]	; 0x28
    87ec:	e585e02c 	str	lr, [r5, #44]	; 0x2c
    87f0:	e585c030 	str	ip, [r5, #48]	; 0x30
    87f4:	e5c64038 	strb	r4, [r6, #56]	; 0x38
    87f8:	e5c64014 	strb	r4, [r6, #20]
    87fc:	eb000fb8 	bl	c6e4 <bcm2835_gpio_fsel>
    8800:	e3a01010 	mov	r1, #16
    8804:	e3a020b9 	mov	r2, #185	; 0xb9
    8808:	e59f3068 	ldr	r3, [pc, #104]	; 8878 <dmx_init+0x1f8>
    880c:	e5851038 	str	r1, [r5, #56]	; 0x38
    8810:	e583200c 	str	r2, [r3, #12]
    8814:	ebfffe3e 	bl	8114 <__disable_fiq>
    8818:	e3a03002 	mov	r3, #2
    881c:	e3a01701 	mov	r1, #262144	; 0x40000
    8820:	e59f205c 	ldr	r2, [pc, #92]	; 8884 <dmx_init+0x204>
    8824:	e5c64038 	strb	r4, [r6, #56]	; 0x38
    8828:	e5821028 	str	r1, [r2, #40]	; 0x28
    882c:	e5c63015 	strb	r3, [r6, #21]
    8830:	e8bd40f8 	pop	{r3, r4, r5, r6, r7, lr}
    8834:	eafffe32 	b	8104 <__enable_fiq>
    8838:	e59f5054 	ldr	r5, [pc, #84]	; 8894 <dmx_init+0x214>
    883c:	e3a07c02 	mov	r7, #512	; 0x200
    8840:	e1a06005 	mov	r6, r5
    8844:	e3a01080 	mov	r1, #128	; 0x80
    8848:	e1a0e002 	mov	lr, r2
    884c:	eaffffa1 	b	86d8 <dmx_init+0x58>
    8850:	e3a0e002 	mov	lr, #2
    8854:	e59f603c 	ldr	r6, [pc, #60]	; 8898 <dmx_init+0x218>
    8858:	eaffff97 	b	86bc <dmx_init+0x3c>
    885c:	e3a06c02 	mov	r6, #512	; 0x200
    8860:	e1a0e002 	mov	lr, r2
    8864:	eaffff94 	b	86bc <dmx_init+0x3c>
    8868:	0001a360 	andeq	sl, r1, r0, ror #6
    886c:	000001fe 	strdeq	r0, [r0], -lr
    8870:	00018250 	andeq	r8, r1, r0, asr r2
    8874:	20003000 	andcs	r3, r0, r0
    8878:	2000b200 	andcs	fp, r0, r0, lsl #4
    887c:	20201000 	eorcs	r1, r0, r0
    8880:	003d0900 	eorseq	r0, sp, r0, lsl #18
    8884:	20200000 	eorcs	r0, r0, r0
    8888:	00000301 	andeq	r0, r0, r1, lsl #6
    888c:	000007ff 	strdeq	r0, [r0], -pc	; <UNPREDICTABLE>
    8890:	0001a248 	andeq	sl, r1, r8, asr #4
    8894:	00000201 	andeq	r0, r0, r1, lsl #4
    8898:	000001ff 	strdeq	r0, [r0], -pc	; <UNPREDICTABLE>

0000889c <c_irq_handler>:
    889c:	e24ee004 	sub	lr, lr, #4
    88a0:	e92d50ff 	push	{r0, r1, r2, r3, r4, r5, r6, r7, ip, lr}
    88a4:	e3a02000 	mov	r2, #0
    88a8:	ee072fba 	mcr	15, 0, r2, cr7, cr10, {5}
    88ac:	e3a01002 	mov	r1, #2
    88b0:	e59f4090 	ldr	r4, [pc, #144]	; 8948 <c_irq_handler+0xac>
    88b4:	e59f3090 	ldr	r3, [pc, #144]	; 894c <c_irq_handler+0xb0>
    88b8:	e5d40038 	ldrb	r0, [r4, #56]	; 0x38
    88bc:	e5936004 	ldr	r6, [r3, #4]
    88c0:	e3500003 	cmp	r0, #3
    88c4:	e5831000 	str	r1, [r3]
    88c8:	0a000010 	beq	8910 <c_irq_handler+0x74>
    88cc:	e59f5078 	ldr	r5, [pc, #120]	; 894c <c_irq_handler+0xb0>
    88d0:	e5953000 	ldr	r3, [r5]
    88d4:	e3130008 	tst	r3, #8
    88d8:	0a000009 	beq	8904 <c_irq_handler+0x68>
    88dc:	e3a03008 	mov	r3, #8
    88e0:	e5853000 	str	r3, [r5]
    88e4:	eb00001e 	bl	8964 <ticks_per_second_get>
    88e8:	e5943044 	ldr	r3, [r4, #68]	; 0x44
    88ec:	e0800006 	add	r0, r0, r6
    88f0:	e5850018 	str	r0, [r5, #24]
    88f4:	e2832001 	add	r2, r3, #1
    88f8:	e2030001 	and	r0, r3, #1
    88fc:	e5842044 	str	r2, [r4, #68]	; 0x44
    8900:	eb000c2e 	bl	b9c0 <hardware_led_set>
    8904:	e3a03000 	mov	r3, #0
    8908:	ee073fba 	mcr	15, 0, r3, cr7, cr10, {5}
    890c:	e8fd90ff 	ldm	sp!, {r0, r1, r2, r3, r4, r5, r6, r7, ip, pc}^
    8910:	e59f0038 	ldr	r0, [pc, #56]	; 8950 <c_irq_handler+0xb4>
    8914:	e594c034 	ldr	ip, [r4, #52]	; 0x34
    8918:	e5901000 	ldr	r1, [r0]
    891c:	e081100c 	add	r1, r1, ip
    8920:	e1560001 	cmp	r6, r1
    8924:	83a01001 	movhi	r1, #1
    8928:	81d433ba 	ldrhhi	r3, [r4, #58]	; 0x3a
    892c:	9286202d 	addls	r2, r6, #45	; 0x2d
    8930:	82433001 	subhi	r3, r3, #1
    8934:	85c42038 	strbhi	r2, [r4, #56]	; 0x38
    8938:	85803004 	strhi	r3, [r0, #4]
    893c:	85c41014 	strbhi	r1, [r4, #20]
    8940:	95832010 	strls	r2, [r3, #16]
    8944:	eaffffe0 	b	88cc <c_irq_handler+0x30>
    8948:	0001a248 	andeq	sl, r1, r8, asr #4
    894c:	20003000 	andcs	r3, r0, r0
    8950:	00018250 	andeq	r8, r1, r0, asr r2

00008954 <ticks_per_second_set>:
    8954:	e59f3004 	ldr	r3, [pc, #4]	; 8960 <ticks_per_second_set+0xc>
    8958:	e5830000 	str	r0, [r3]
    895c:	e12fff1e 	bx	lr
    8960:	00017278 	andeq	r7, r1, r8, ror r2

00008964 <ticks_per_second_get>:
    8964:	e59f3004 	ldr	r3, [pc, #4]	; 8970 <ticks_per_second_get+0xc>
    8968:	e5930000 	ldr	r0, [r3]
    896c:	e12fff1e 	bx	lr
    8970:	00017278 	andeq	r7, r1, r8, ror r2

00008974 <irq_init>:
    8974:	e3a0c000 	mov	ip, #0
    8978:	e3a0100a 	mov	r1, #10
    897c:	e59f2028 	ldr	r2, [pc, #40]	; 89ac <irq_init+0x38>
    8980:	e59f3028 	ldr	r3, [pc, #40]	; 89b0 <irq_init+0x3c>
    8984:	e59f0028 	ldr	r0, [pc, #40]	; 89b4 <irq_init+0x40>
    8988:	e582c000 	str	ip, [r2]
    898c:	e5932004 	ldr	r2, [r3, #4]
    8990:	e590c000 	ldr	ip, [r0]
    8994:	e59f001c 	ldr	r0, [pc, #28]	; 89b8 <irq_init+0x44>
    8998:	e082200c 	add	r2, r2, ip
    899c:	e5832018 	str	r2, [r3, #24]
    89a0:	e5831000 	str	r1, [r3]
    89a4:	e5801010 	str	r1, [r0, #16]
    89a8:	e12fff1e 	bx	lr
    89ac:	0001a290 	muleq	r1, r0, r2
    89b0:	20003000 	andcs	r3, r0, r0
    89b4:	00017278 	andeq	r7, r1, r8, ror r2
    89b8:	2000b200 	andcs	fp, r0, r0, lsl #4

000089bc <monitor_line>:
    89bc:	e92d000e 	push	{r1, r2, r3}
    89c0:	e92d4010 	push	{r4, lr}
    89c4:	e24dd00c 	sub	sp, sp, #12
    89c8:	e59d4014 	ldr	r4, [sp, #20]
    89cc:	eb000b49 	bl	b6f8 <console_clear_line>
    89d0:	e3540000 	cmp	r4, #0
    89d4:	0a000008 	beq	89fc <monitor_line+0x40>
    89d8:	e28d3018 	add	r3, sp, #24
    89dc:	e1a01003 	mov	r1, r3
    89e0:	e1a00004 	mov	r0, r4
    89e4:	e58d3004 	str	r3, [sp, #4]
    89e8:	eb002076 	bl	10bc8 <vprintf>
    89ec:	e59f3018 	ldr	r3, [pc, #24]	; 8a0c <monitor_line+0x50>
    89f0:	e5933000 	ldr	r3, [r3]
    89f4:	e5930008 	ldr	r0, [r3, #8]
    89f8:	eb000ffb 	bl	c9ec <fflush>
    89fc:	e28dd00c 	add	sp, sp, #12
    8a00:	e8bd4010 	pop	{r4, lr}
    8a04:	e28dd00c 	add	sp, sp, #12
    8a08:	e12fff1e 	bx	lr
    8a0c:	00017948 	andeq	r7, r1, r8, asr #18

00008a10 <monitor_rdm_data>:
    8a10:	e92d47f0 	push	{r4, r5, r6, r7, r8, r9, sl, lr}
    8a14:	e1a04001 	mov	r4, r1
    8a18:	e24dd028 	sub	sp, sp, #40	; 0x28
    8a1c:	e1a05002 	mov	r5, r2
    8a20:	eb000b34 	bl	b6f8 <console_clear_line>
    8a24:	e1a01004 	mov	r1, r4
    8a28:	e59f007c 	ldr	r0, [pc, #124]	; 8aac <monitor_rdm_data+0x9c>
    8a2c:	eb001796 	bl	e88c <printf>
    8a30:	e3a03000 	mov	r3, #0
    8a34:	e2458001 	sub	r8, r5, #1
    8a38:	e2857008 	add	r7, r5, #8
    8a3c:	e2856011 	add	r6, r5, #17
    8a40:	e285501a 	add	r5, r5, #26
    8a44:	e5f82001 	ldrb	r2, [r8, #1]!
    8a48:	e5f51001 	ldrb	r1, [r5, #1]!
    8a4c:	e5f7a001 	ldrb	sl, [r7, #1]!
    8a50:	e5f6c001 	ldrb	ip, [r6, #1]!
    8a54:	e2834001 	add	r4, r3, #1
    8a58:	e283e013 	add	lr, r3, #19
    8a5c:	e283001c 	add	r0, r3, #28
    8a60:	e283900a 	add	r9, r3, #10
    8a64:	e58d101c 	str	r1, [sp, #28]
    8a68:	e1a03002 	mov	r3, r2
    8a6c:	e58d1020 	str	r1, [sp, #32]
    8a70:	e58d0018 	str	r0, [sp, #24]
    8a74:	e58da004 	str	sl, [sp, #4]
    8a78:	e58da008 	str	sl, [sp, #8]
    8a7c:	e58dc010 	str	ip, [sp, #16]
    8a80:	e58dc014 	str	ip, [sp, #20]
    8a84:	e1a01004 	mov	r1, r4
    8a88:	e58d9000 	str	r9, [sp]
    8a8c:	e58de00c 	str	lr, [sp, #12]
    8a90:	e59f0018 	ldr	r0, [pc, #24]	; 8ab0 <monitor_rdm_data+0xa0>
    8a94:	eb00177c 	bl	e88c <printf>
    8a98:	e3540009 	cmp	r4, #9
    8a9c:	e1a03004 	mov	r3, r4
    8aa0:	1affffe7 	bne	8a44 <monitor_rdm_data+0x34>
    8aa4:	e28dd028 	add	sp, sp, #40	; 0x28
    8aa8:	e8bd87f0 	pop	{r4, r5, r6, r7, r8, r9, sl, pc}
    8aac:	00016ef0 	strdeq	r6, [r1], -r0
    8ab0:	00016f08 	andeq	r6, r1, r8, lsl #30

00008ab4 <rdm_device_info_get_is_factory_defaults>:
    8ab4:	e52de004 	push	{lr}		; (str lr, [sp, #-4]!)
    8ab8:	e59fe060 	ldr	lr, [pc, #96]	; 8b20 <rdm_device_info_get_is_factory_defaults+0x6c>
    8abc:	e5de0000 	ldrb	r0, [lr]
    8ac0:	e3500001 	cmp	r0, #1
    8ac4:	149df004 	popne	{pc}		; (ldrne pc, [sp], #4)
    8ac8:	e59fc054 	ldr	ip, [pc, #84]	; 8b24 <rdm_device_info_get_is_factory_defaults+0x70>
    8acc:	e5dc1013 	ldrb	r1, [ip, #19]
    8ad0:	e5dc300f 	ldrb	r3, [ip, #15]
    8ad4:	e5dc000c 	ldrb	r0, [ip, #12]
    8ad8:	e3510000 	cmp	r1, #0
    8adc:	e0833000 	add	r3, r3, r0
    8ae0:	0a000008 	beq	8b08 <rdm_device_info_get_is_factory_defaults+0x54>
    8ae4:	e28c2014 	add	r2, ip, #20
    8ae8:	e2411001 	sub	r1, r1, #1
    8aec:	e6e21071 	uxtab	r1, r2, r1
    8af0:	e28c2013 	add	r2, ip, #19
    8af4:	e5f20001 	ldrb	r0, [r2, #1]!
    8af8:	e0833000 	add	r3, r3, r0
    8afc:	e1520001 	cmp	r2, r1
    8b00:	e6ff3073 	uxth	r3, r3
    8b04:	1afffffa 	bne	8af4 <rdm_device_info_get_is_factory_defaults+0x40>
    8b08:	e1dc03b4 	ldrh	r0, [ip, #52]	; 0x34
    8b0c:	e0630000 	rsb	r0, r3, r0
    8b10:	e16f0f10 	clz	r0, r0
    8b14:	e1a002a0 	lsr	r0, r0, #5
    8b18:	e5ce0000 	strb	r0, [lr]
    8b1c:	e49df004 	pop	{pc}		; (ldr pc, [sp], #4)
    8b20:	0001727c 	andeq	r7, r1, ip, ror r2
    8b24:	0001a294 	muleq	r1, r4, r2

00008b28 <rdm_device_info_get_uuid>:
    8b28:	e59f0000 	ldr	r0, [pc]	; 8b30 <rdm_device_info_get_uuid+0x8>
    8b2c:	e12fff1e 	bx	lr
    8b30:	00017280 	andeq	r7, r1, r0, lsl #5

00008b34 <rdm_device_info_get_sn>:
    8b34:	e59f0000 	ldr	r0, [pc]	; 8b3c <rdm_device_info_get_sn+0x8>
    8b38:	e12fff1e 	bx	lr
    8b3c:	0001a2cc 	andeq	sl, r1, ip, asr #5

00008b40 <rdm_device_info_get_sn_length>:
    8b40:	e3a00004 	mov	r0, #4
    8b44:	e12fff1e 	bx	lr

00008b48 <rdm_device_info_get_label>:
    8b48:	e3500000 	cmp	r0, #0
    8b4c:	1a000001 	bne	8b58 <rdm_device_info_get_label+0x10>
    8b50:	e59f0004 	ldr	r0, [pc, #4]	; 8b5c <rdm_device_info_get_label+0x14>
    8b54:	e12fff1e 	bx	lr
    8b58:	ea0008bd 	b	ae54 <rdm_sub_devices_get_label>
    8b5c:	0001a2a8 	andeq	sl, r1, r8, lsr #5

00008b60 <rdm_device_info_set_label>:
    8b60:	e3520020 	cmp	r2, #32
    8b64:	e92d4038 	push	{r3, r4, r5, lr}
    8b68:	31a04002 	movcc	r4, r2
    8b6c:	23a04020 	movcs	r4, #32
    8b70:	e3500000 	cmp	r0, #0
    8b74:	1a000005 	bne	8b90 <rdm_device_info_set_label+0x30>
    8b78:	e59f501c 	ldr	r5, [pc, #28]	; 8b9c <rdm_device_info_set_label+0x3c>
    8b7c:	e1a02004 	mov	r2, r4
    8b80:	e2850014 	add	r0, r5, #20
    8b84:	eb001467 	bl	dd28 <memcpy>
    8b88:	e5c54013 	strb	r4, [r5, #19]
    8b8c:	e8bd8038 	pop	{r3, r4, r5, pc}
    8b90:	e1a02004 	mov	r2, r4
    8b94:	e8bd4038 	pop	{r3, r4, r5, lr}
    8b98:	ea0008b4 	b	ae70 <rdm_sub_devices_set_label>
    8b9c:	0001a294 	muleq	r1, r4, r2

00008ba0 <rdm_device_info_get_label_length>:
    8ba0:	e3500000 	cmp	r0, #0
    8ba4:	1a000002 	bne	8bb4 <rdm_device_info_get_label_length+0x14>
    8ba8:	e59f3008 	ldr	r3, [pc, #8]	; 8bb8 <rdm_device_info_get_label_length+0x18>
    8bac:	e5d30013 	ldrb	r0, [r3, #19]
    8bb0:	e12fff1e 	bx	lr
    8bb4:	ea0008b8 	b	ae9c <rdm_sub_devices_get_label_length>
    8bb8:	0001a294 	muleq	r1, r4, r2

00008bbc <rdm_device_info_get_manufacturer_name>:
    8bbc:	e59f0000 	ldr	r0, [pc]	; 8bc4 <rdm_device_info_get_manufacturer_name+0x8>
    8bc0:	e12fff1e 	bx	lr
    8bc4:	00016930 	andeq	r6, r1, r0, lsr r9

00008bc8 <rdm_device_info_get_manufacturer_name_length>:
    8bc8:	e3a00003 	mov	r0, #3
    8bcc:	e12fff1e 	bx	lr

00008bd0 <rdm_device_info_get_manufacturer_id>:
    8bd0:	e59f0000 	ldr	r0, [pc]	; 8bd8 <rdm_device_info_get_manufacturer_id+0x8>
    8bd4:	e12fff1e 	bx	lr
    8bd8:	00016934 	andeq	r6, r1, r4, lsr r9

00008bdc <rdm_device_info_get_manufacturer_id_length>:
    8bdc:	e3a00002 	mov	r0, #2
    8be0:	e12fff1e 	bx	lr

00008be4 <rdm_device_info_get_supported_language>:
    8be4:	e59f0000 	ldr	r0, [pc]	; 8bec <rdm_device_info_get_supported_language+0x8>
    8be8:	e12fff1e 	bx	lr
    8bec:	00016938 	andeq	r6, r1, r8, lsr r9

00008bf0 <rdm_device_info_get_supported_language_length>:
    8bf0:	e3a00002 	mov	r0, #2
    8bf4:	e12fff1e 	bx	lr

00008bf8 <rdm_device_info_get_software_version_id>:
    8bf8:	e59f0000 	ldr	r0, [pc]	; 8c00 <rdm_device_info_get_software_version_id+0x8>
    8bfc:	e12fff1e 	bx	lr
    8c00:	20150320 	andscs	r0, r5, r0, lsr #6

00008c04 <rdm_device_info_get_software_version>:
    8c04:	e59f0000 	ldr	r0, [pc]	; 8c0c <rdm_device_info_get_software_version+0x8>
    8c08:	e12fff1e 	bx	lr
    8c0c:	0001693c 	andeq	r6, r1, ip, lsr r9

00008c10 <rdm_device_info_get_software_version_length>:
    8c10:	e3a00003 	mov	r0, #3
    8c14:	e12fff1e 	bx	lr

00008c18 <rdm_device_info_get_dmx_footprint>:
    8c18:	e3500000 	cmp	r0, #0
    8c1c:	1a000005 	bne	8c38 <rdm_device_info_get_dmx_footprint+0x20>
    8c20:	e59f3014 	ldr	r3, [pc, #20]	; 8c3c <rdm_device_info_get_dmx_footprint+0x24>
    8c24:	e5d3000a 	ldrb	r0, [r3, #10]
    8c28:	e5d3300b 	ldrb	r3, [r3, #11]
    8c2c:	e0830400 	add	r0, r3, r0, lsl #8
    8c30:	e6ff0070 	uxth	r0, r0
    8c34:	e12fff1e 	bx	lr
    8c38:	ea000870 	b	ae00 <rdm_sub_devices_get_footprint>
    8c3c:	0001a294 	muleq	r1, r4, r2

00008c40 <rdm_device_info_get_dmx_start_address>:
    8c40:	e3500000 	cmp	r0, #0
    8c44:	1a000005 	bne	8c60 <rdm_device_info_get_dmx_start_address+0x20>
    8c48:	e59f3014 	ldr	r3, [pc, #20]	; 8c64 <rdm_device_info_get_dmx_start_address+0x24>
    8c4c:	e5d3000e 	ldrb	r0, [r3, #14]
    8c50:	e5d3300f 	ldrb	r3, [r3, #15]
    8c54:	e0830400 	add	r0, r3, r0, lsl #8
    8c58:	e6ff0070 	uxth	r0, r0
    8c5c:	e12fff1e 	bx	lr
    8c60:	ea00086d 	b	ae1c <rdm_sub_devices_get_dmx_start_address>
    8c64:	0001a294 	muleq	r1, r4, r2

00008c68 <rdm_device_info_set_dmx_start_address>:
    8c68:	e2412001 	sub	r2, r1, #1
    8c6c:	e3520c02 	cmp	r2, #512	; 0x200
    8c70:	e1a03001 	mov	r3, r1
    8c74:	212fff1e 	bxcs	lr
    8c78:	e3500000 	cmp	r0, #0
    8c7c:	1a000004 	bne	8c94 <rdm_device_info_set_dmx_start_address+0x2c>
    8c80:	e59f2010 	ldr	r2, [pc, #16]	; 8c98 <rdm_device_info_set_dmx_start_address+0x30>
    8c84:	e1a01421 	lsr	r1, r1, #8
    8c88:	e5c2300f 	strb	r3, [r2, #15]
    8c8c:	e5c2100e 	strb	r1, [r2, #14]
    8c90:	e12fff1e 	bx	lr
    8c94:	ea000867 	b	ae38 <rdm_sub_devices_set_dmx_start_address>
    8c98:	0001a294 	muleq	r1, r4, r2

00008c9c <rdm_device_info_get_personality_count>:
    8c9c:	e3a00001 	mov	r0, #1
    8ca0:	e12fff1e 	bx	lr

00008ca4 <rdm_device_info_get_personality_current>:
    8ca4:	e3500000 	cmp	r0, #0
    8ca8:	1a000002 	bne	8cb8 <rdm_device_info_get_personality_current+0x14>
    8cac:	e59f3008 	ldr	r3, [pc, #8]	; 8cbc <rdm_device_info_get_personality_current+0x18>
    8cb0:	e5d3000c 	ldrb	r0, [r3, #12]
    8cb4:	e12fff1e 	bx	lr
    8cb8:	ea00087e 	b	aeb8 <rdm_sub_devices_get_personality_current>
    8cbc:	0001a294 	muleq	r1, r4, r2

00008cc0 <rdm_device_info_set_personality_current>:
    8cc0:	e3500000 	cmp	r0, #0
    8cc4:	1a000002 	bne	8cd4 <rdm_device_info_set_personality_current+0x14>
    8cc8:	e59f2008 	ldr	r2, [pc, #8]	; 8cd8 <rdm_device_info_set_personality_current+0x18>
    8ccc:	e5c2100c 	strb	r1, [r2, #12]
    8cd0:	e12fff1e 	bx	lr
    8cd4:	ea00087e 	b	aed4 <rdm_sub_devices_set_personality_current>
    8cd8:	0001a294 	muleq	r1, r4, r2

00008cdc <rdm_device_info_get_personality_description>:
    8cdc:	e3510001 	cmp	r1, #1
    8ce0:	1a000004 	bne	8cf8 <rdm_device_info_get_personality_description+0x1c>
    8ce4:	e3500000 	cmp	r0, #0
    8ce8:	1a000001 	bne	8cf4 <rdm_device_info_get_personality_description+0x18>
    8cec:	e59f000c 	ldr	r0, [pc, #12]	; 8d00 <rdm_device_info_get_personality_description+0x24>
    8cf0:	e12fff1e 	bx	lr
    8cf4:	ea00087d 	b	aef0 <rdm_sub_devices_get_personality_description>
    8cf8:	e3a00000 	mov	r0, #0
    8cfc:	e12fff1e 	bx	lr
    8d00:	00016f48 	andeq	r6, r1, r8, asr #30

00008d04 <rdm_device_info_get_personality_slots>:
    8d04:	e3510001 	cmp	r1, #1
    8d08:	0a000001 	beq	8d14 <rdm_device_info_get_personality_slots+0x10>
    8d0c:	e3a00000 	mov	r0, #0
    8d10:	e12fff1e 	bx	lr
    8d14:	e3500000 	cmp	r0, #0
    8d18:	1a000001 	bne	8d24 <rdm_device_info_get_personality_slots+0x20>
    8d1c:	e3a00020 	mov	r0, #32
    8d20:	e12fff1e 	bx	lr
    8d24:	ea00087a 	b	af14 <rdm_sub_devices_get_personality_slots>

00008d28 <rdm_device_info_get>:
    8d28:	e3500000 	cmp	r0, #0
    8d2c:	1a000001 	bne	8d38 <rdm_device_info_get+0x10>
    8d30:	e59f0050 	ldr	r0, [pc, #80]	; 8d88 <rdm_device_info_get+0x60>
    8d34:	e12fff1e 	bx	lr
    8d38:	e92d4008 	push	{r3, lr}
    8d3c:	eb00087d 	bl	af38 <rdm_sub_devices_info_get>
    8d40:	e1a02000 	mov	r2, r0
    8d44:	e1d010b0 	ldrh	r1, [r0]
    8d48:	e59f3038 	ldr	r3, [pc, #56]	; 8d88 <rdm_device_info_get+0x60>
    8d4c:	e1a00421 	lsr	r0, r1, #8
    8d50:	e5c30046 	strb	r0, [r3, #70]	; 0x46
    8d54:	e5c31047 	strb	r1, [r3, #71]	; 0x47
    8d58:	e5d21002 	ldrb	r1, [r2, #2]
    8d5c:	e283003c 	add	r0, r3, #60	; 0x3c
    8d60:	e5c31048 	strb	r1, [r3, #72]	; 0x48
    8d64:	e5d21003 	ldrb	r1, [r2, #3]
    8d68:	e5c31049 	strb	r1, [r3, #73]	; 0x49
    8d6c:	e1d210b4 	ldrh	r1, [r2, #4]
    8d70:	e1a0c421 	lsr	ip, r1, #8
    8d74:	e5c3104b 	strb	r1, [r3, #75]	; 0x4b
    8d78:	e5c3c04a 	strb	ip, [r3, #74]	; 0x4a
    8d7c:	e5d22006 	ldrb	r2, [r2, #6]
    8d80:	e5c3204e 	strb	r2, [r3, #78]	; 0x4e
    8d84:	e8bd8008 	pop	{r3, pc}
    8d88:	0001a294 	muleq	r1, r4, r2

00008d8c <rdm_device_info_init>:
    8d8c:	e92d4ff0 	push	{r4, r5, r6, r7, r8, r9, sl, fp, lr}
    8d90:	e24dd014 	sub	sp, sp, #20
    8d94:	e28d0008 	add	r0, sp, #8
    8d98:	eb000dc8 	bl	c4c0 <bcm2835_vc_get_board_mac_address>
    8d9c:	e3500000 	cmp	r0, #0
    8da0:	0a00004b 	beq	8ed4 <rdm_device_info_init+0x148>
    8da4:	e59f5150 	ldr	r5, [pc, #336]	; 8efc <rdm_device_info_init+0x170>
    8da8:	e5d53009 	ldrb	r3, [r5, #9]
    8dac:	e5d52008 	ldrb	r2, [r5, #8]
    8db0:	e5d50007 	ldrb	r0, [r5, #7]
    8db4:	e5d51006 	ldrb	r1, [r5, #6]
    8db8:	e3e0c00f 	mvn	ip, #15
    8dbc:	e3a0707f 	mov	r7, #127	; 0x7f
    8dc0:	e59f4138 	ldr	r4, [pc, #312]	; 8f00 <rdm_device_info_init+0x174>
    8dc4:	e1832402 	orr	r2, r3, r2, lsl #8
    8dc8:	e1823800 	orr	r3, r2, r0, lsl #16
    8dcc:	e2848014 	add	r8, r4, #20
    8dd0:	e1833c01 	orr	r3, r3, r1, lsl #24
    8dd4:	e3a0200c 	mov	r2, #12
    8dd8:	e59f1124 	ldr	r1, [pc, #292]	; 8f04 <rdm_device_info_init+0x178>
    8ddc:	e1a00008 	mov	r0, r8
    8de0:	e5c5c005 	strb	ip, [r5, #5]
    8de4:	e5843038 	str	r3, [r4, #56]	; 0x38
    8de8:	e5c57004 	strb	r7, [r5, #4]
    8dec:	eb0013cd 	bl	dd28 <memcpy>
    8df0:	e3a0300c 	mov	r3, #12
    8df4:	e5c43013 	strb	r3, [r4, #19]
    8df8:	eb000aa0 	bl	b880 <hardware_get_board_model_id>
    8dfc:	e58d0004 	str	r0, [sp, #4]
    8e00:	eb000858 	bl	af68 <rdm_sub_devices_get>
    8e04:	e1a06000 	mov	r6, r0
    8e08:	e3a03000 	mov	r3, #0
    8e0c:	e3a0c001 	mov	ip, #1
    8e10:	e3a0e020 	mov	lr, #32
    8e14:	e5c46011 	strb	r6, [r4, #17]
    8e18:	e3e0a000 	mvn	sl, #0
    8e1c:	e3a09015 	mov	r9, #21
    8e20:	e3a06003 	mov	r6, #3
    8e24:	e59d2004 	ldr	r2, [sp, #4]
    8e28:	e1a0b420 	lsr	fp, r0, #8
    8e2c:	e1a01422 	lsr	r1, r2, #8
    8e30:	e5c42003 	strb	r2, [r4, #3]
    8e34:	e5c41002 	strb	r1, [r4, #2]
    8e38:	e3a02013 	mov	r2, #19
    8e3c:	e1a01004 	mov	r1, r4
    8e40:	e284003c 	add	r0, r4, #60	; 0x3c
    8e44:	e5c43001 	strb	r3, [r4, #1]
    8e48:	e5c4300a 	strb	r3, [r4, #10]
    8e4c:	e5c4300e 	strb	r3, [r4, #14]
    8e50:	e5c43012 	strb	r3, [r4, #18]
    8e54:	e5c47004 	strb	r7, [r4, #4]
    8e58:	e5c4b010 	strb	fp, [r4, #16]
    8e5c:	e5c4a005 	strb	sl, [r4, #5]
    8e60:	e5c49007 	strb	r9, [r4, #7]
    8e64:	e5c46008 	strb	r6, [r4, #8]
    8e68:	e5c4c000 	strb	ip, [r4]
    8e6c:	e5c4c00f 	strb	ip, [r4, #15]
    8e70:	e5c4c00c 	strb	ip, [r4, #12]
    8e74:	e5c4c00d 	strb	ip, [r4, #13]
    8e78:	e5c4e006 	strb	lr, [r4, #6]
    8e7c:	e5c4e009 	strb	lr, [r4, #9]
    8e80:	e5c4e00b 	strb	lr, [r4, #11]
    8e84:	eb0013a7 	bl	dd28 <memcpy>
    8e88:	e5d42013 	ldrb	r2, [r4, #19]
    8e8c:	e5d4300f 	ldrb	r3, [r4, #15]
    8e90:	e5d4100c 	ldrb	r1, [r4, #12]
    8e94:	e3520000 	cmp	r2, #0
    8e98:	e0833001 	add	r3, r3, r1
    8e9c:	0a000007 	beq	8ec0 <rdm_device_info_init+0x134>
    8ea0:	e082200a 	add	r2, r2, sl
    8ea4:	e6e88072 	uxtab	r8, r8, r2
    8ea8:	e2842013 	add	r2, r4, #19
    8eac:	e5f21001 	ldrb	r1, [r2, #1]!
    8eb0:	e0833001 	add	r3, r3, r1
    8eb4:	e1520008 	cmp	r2, r8
    8eb8:	e6ff3073 	uxth	r3, r3
    8ebc:	1afffffa 	bne	8eac <rdm_device_info_init+0x120>
    8ec0:	e3a02001 	mov	r2, #1
    8ec4:	e1c433b4 	strh	r3, [r4, #52]	; 0x34
    8ec8:	e5c52000 	strb	r2, [r5]
    8ecc:	e28dd014 	add	sp, sp, #20
    8ed0:	e8bd8ff0 	pop	{r4, r5, r6, r7, r8, r9, sl, fp, pc}
    8ed4:	e59f5020 	ldr	r5, [pc, #32]	; 8efc <rdm_device_info_init+0x170>
    8ed8:	e5dd100a 	ldrb	r1, [sp, #10]
    8edc:	e5dd000b 	ldrb	r0, [sp, #11]
    8ee0:	e5dd200c 	ldrb	r2, [sp, #12]
    8ee4:	e5dd300d 	ldrb	r3, [sp, #13]
    8ee8:	e5c51006 	strb	r1, [r5, #6]
    8eec:	e5c50007 	strb	r0, [r5, #7]
    8ef0:	e5c52008 	strb	r2, [r5, #8]
    8ef4:	e5c53009 	strb	r3, [r5, #9]
    8ef8:	eaffffae 	b	8db8 <rdm_device_info_init+0x2c>
    8efc:	0001727c 	andeq	r7, r1, ip, ror r2
    8f00:	0001a294 	muleq	r1, r4, r2
    8f04:	00016940 	andeq	r6, r1, r0, asr #18

00008f08 <rdm_send_respond_message.part.0>:
    8f08:	e92d4070 	push	{r4, r5, r6, lr}
    8f0c:	e1a06000 	mov	r6, r0
    8f10:	e2804009 	add	r4, r0, #9
    8f14:	ebffff03 	bl	8b28 <rdm_device_info_get_uuid>
    8f18:	e1a05000 	mov	r5, r0
    8f1c:	e1a01004 	mov	r1, r4
    8f20:	e3a02006 	mov	r2, #6
    8f24:	e2860003 	add	r0, r6, #3
    8f28:	eb00137e 	bl	dd28 <memcpy>
    8f2c:	e1a00004 	mov	r0, r4
    8f30:	e1a01005 	mov	r1, r5
    8f34:	e3a02006 	mov	r2, #6
    8f38:	eb00137a 	bl	dd28 <memcpy>
    8f3c:	e5d63014 	ldrb	r3, [r6, #20]
    8f40:	e5d60002 	ldrb	r0, [r6, #2]
    8f44:	e2833001 	add	r3, r3, #1
    8f48:	e3500000 	cmp	r0, #0
    8f4c:	e5c63014 	strb	r3, [r6, #20]
    8f50:	0a000048 	beq	9078 <rdm_send_respond_message.part.0+0x170>
    8f54:	e2465001 	sub	r5, r6, #1
    8f58:	e1a02005 	mov	r2, r5
    8f5c:	e3a03000 	mov	r3, #0
    8f60:	e240c001 	sub	ip, r0, #1
    8f64:	e6e6c07c 	uxtab	ip, r6, ip
    8f68:	e5f21001 	ldrb	r1, [r2, #1]!
    8f6c:	e0833001 	add	r3, r3, r1
    8f70:	e152000c 	cmp	r2, ip
    8f74:	e6ff3073 	uxth	r3, r3
    8f78:	1afffffa 	bne	8f68 <rdm_send_respond_message.part.0+0x60>
    8f7c:	e2802001 	add	r2, r0, #1
    8f80:	e1a0c000 	mov	ip, r0
    8f84:	e6ef2072 	uxtb	r2, r2
    8f88:	e6ef1073 	uxtb	r1, r3
    8f8c:	e1a00423 	lsr	r0, r3, #8
    8f90:	e59f30f4 	ldr	r3, [pc, #244]	; 908c <rdm_send_respond_message.part.0+0x184>
    8f94:	e7c6000c 	strb	r0, [r6, ip]
    8f98:	e7c61002 	strb	r1, [r6, r2]
    8f9c:	e5934004 	ldr	r4, [r3, #4]
    8fa0:	ebfffc88 	bl	81c8 <rdm_data_receive_end_get>
    8fa4:	e0540000 	subs	r0, r4, r0
    8fa8:	e2e11000 	rsc	r1, r1, #0
    8fac:	e3510000 	cmp	r1, #0
    8fb0:	035000c7 	cmpeq	r0, #199	; 0xc7
    8fb4:	9a000029 	bls	9060 <rdm_send_respond_message.part.0+0x158>
    8fb8:	e3a00001 	mov	r0, #1
    8fbc:	e3a01000 	mov	r1, #0
    8fc0:	ebfffd5d 	bl	853c <dmx_port_direction_set>
    8fc4:	e3a03069 	mov	r3, #105	; 0x69
    8fc8:	e59f40c0 	ldr	r4, [pc, #192]	; 9090 <rdm_send_respond_message.part.0+0x188>
    8fcc:	e5d66002 	ldrb	r6, [r6, #2]
    8fd0:	e3a000b0 	mov	r0, #176	; 0xb0
    8fd4:	e3a01000 	mov	r1, #0
    8fd8:	e584302c 	str	r3, [r4, #44]	; 0x2c
    8fdc:	eb000dd2 	bl	c72c <udelay>
    8fe0:	e3a03068 	mov	r3, #104	; 0x68
    8fe4:	e3a0000c 	mov	r0, #12
    8fe8:	e3a01000 	mov	r1, #0
    8fec:	e584302c 	str	r3, [r4, #44]	; 0x2c
    8ff0:	eb000dcd 	bl	c72c <udelay>
    8ff4:	e1a01004 	mov	r1, r4
    8ff8:	e1a0c005 	mov	ip, r5
    8ffc:	e3a00000 	mov	r0, #0
    9000:	e2866002 	add	r6, r6, #2
    9004:	e5913018 	ldr	r3, [r1, #24]
    9008:	e59f2080 	ldr	r2, [pc, #128]	; 9090 <rdm_send_respond_message.part.0+0x188>
    900c:	e3130020 	tst	r3, #32
    9010:	1afffffb 	bne	9004 <rdm_send_respond_message.part.0+0xfc>
    9014:	e2800001 	add	r0, r0, #1
    9018:	e6ff0070 	uxth	r0, r0
    901c:	e5fc3001 	ldrb	r3, [ip, #1]!
    9020:	e1560000 	cmp	r6, r0
    9024:	e5823000 	str	r3, [r2]
    9028:	8afffff5 	bhi	9004 <rdm_send_respond_message.part.0+0xfc>
    902c:	e5923018 	ldr	r3, [r2, #24]
    9030:	e3130020 	tst	r3, #32
    9034:	1afffffc 	bne	902c <rdm_send_respond_message.part.0+0x124>
    9038:	e3a0002c 	mov	r0, #44	; 0x2c
    903c:	e3a01000 	mov	r1, #0
    9040:	eb000db9 	bl	c72c <udelay>
    9044:	e3a00004 	mov	r0, #4
    9048:	e3a01000 	mov	r1, #0
    904c:	eb000db6 	bl	c72c <udelay>
    9050:	e8bd4070 	pop	{r4, r5, r6, lr}
    9054:	e3a00002 	mov	r0, #2
    9058:	e3a01001 	mov	r1, #1
    905c:	eafffd36 	b	853c <dmx_port_direction_set>
    9060:	e3a020c8 	mov	r2, #200	; 0xc8
    9064:	e3a03000 	mov	r3, #0
    9068:	e0520000 	subs	r0, r2, r0
    906c:	e0c31001 	sbc	r1, r3, r1
    9070:	eb000dad 	bl	c72c <udelay>
    9074:	eaffffcf 	b	8fb8 <rdm_send_respond_message.part.0+0xb0>
    9078:	e1a01000 	mov	r1, r0
    907c:	e3a02001 	mov	r2, #1
    9080:	e1a0c000 	mov	ip, r0
    9084:	e2465001 	sub	r5, r6, #1
    9088:	eaffffc0 	b	8f90 <rdm_send_respond_message.part.0+0x88>
    908c:	20003000 	andcs	r3, r0, r0
    9090:	20201000 	eorcs	r1, r0, r0

00009094 <rdm_send_data>:
    9094:	e3a03069 	mov	r3, #105	; 0x69
    9098:	e92d4070 	push	{r4, r5, r6, lr}
    909c:	e59f4080 	ldr	r4, [pc, #128]	; 9124 <rdm_send_data+0x90>
    90a0:	e1a05000 	mov	r5, r0
    90a4:	e1a06001 	mov	r6, r1
    90a8:	e584302c 	str	r3, [r4, #44]	; 0x2c
    90ac:	e3a000b0 	mov	r0, #176	; 0xb0
    90b0:	e3a01000 	mov	r1, #0
    90b4:	eb000d9c 	bl	c72c <udelay>
    90b8:	e3a03068 	mov	r3, #104	; 0x68
    90bc:	e3a0000c 	mov	r0, #12
    90c0:	e3a01000 	mov	r1, #0
    90c4:	e584302c 	str	r3, [r4, #44]	; 0x2c
    90c8:	eb000d97 	bl	c72c <udelay>
    90cc:	e3560000 	cmp	r6, #0
    90d0:	12460001 	subne	r0, r6, #1
    90d4:	11a0c004 	movne	ip, r4
    90d8:	16f50070 	uxtahne	r0, r5, r0
    90dc:	12451001 	subne	r1, r5, #1
    90e0:	0a000007 	beq	9104 <rdm_send_data+0x70>
    90e4:	e59c3018 	ldr	r3, [ip, #24]
    90e8:	e59f2034 	ldr	r2, [pc, #52]	; 9124 <rdm_send_data+0x90>
    90ec:	e3130020 	tst	r3, #32
    90f0:	1afffffb 	bne	90e4 <rdm_send_data+0x50>
    90f4:	e5f13001 	ldrb	r3, [r1, #1]!
    90f8:	e1510000 	cmp	r1, r0
    90fc:	e5823000 	str	r3, [r2]
    9100:	1afffff7 	bne	90e4 <rdm_send_data+0x50>
    9104:	e59f2018 	ldr	r2, [pc, #24]	; 9124 <rdm_send_data+0x90>
    9108:	e5923018 	ldr	r3, [r2, #24]
    910c:	e3130020 	tst	r3, #32
    9110:	1afffffc 	bne	9108 <rdm_send_data+0x74>
    9114:	e3a0002c 	mov	r0, #44	; 0x2c
    9118:	e8bd4070 	pop	{r4, r5, r6, lr}
    911c:	e3a01000 	mov	r1, #0
    9120:	ea000d81 	b	c72c <udelay>
    9124:	20201000 	eorcs	r1, r0, r0

00009128 <rdm_send_discovery_respond_message>:
    9128:	e59f30bc 	ldr	r3, [pc, #188]	; 91ec <rdm_send_discovery_respond_message+0xc4>
    912c:	e92d4070 	push	{r4, r5, r6, lr}
    9130:	e5936004 	ldr	r6, [r3, #4]
    9134:	e1a04000 	mov	r4, r0
    9138:	e1a05001 	mov	r5, r1
    913c:	ebfffc21 	bl	81c8 <rdm_data_receive_end_get>
    9140:	e0560000 	subs	r0, r6, r0
    9144:	e2e11000 	rsc	r1, r1, #0
    9148:	e3510000 	cmp	r1, #0
    914c:	035000c7 	cmpeq	r0, #199	; 0xc7
    9150:	8a000004 	bhi	9168 <rdm_send_discovery_respond_message+0x40>
    9154:	e3a020c8 	mov	r2, #200	; 0xc8
    9158:	e3a03000 	mov	r3, #0
    915c:	e0520000 	subs	r0, r2, r0
    9160:	e0c31001 	sbc	r1, r3, r1
    9164:	eb000d70 	bl	c72c <udelay>
    9168:	e3a00001 	mov	r0, #1
    916c:	e3a01000 	mov	r1, #0
    9170:	ebfffcf1 	bl	853c <dmx_port_direction_set>
    9174:	e3a03068 	mov	r3, #104	; 0x68
    9178:	e3550000 	cmp	r5, #0
    917c:	e59fc06c 	ldr	ip, [pc, #108]	; 91f0 <rdm_send_discovery_respond_message+0xc8>
    9180:	12450001 	subne	r0, r5, #1
    9184:	e58c302c 	str	r3, [ip, #44]	; 0x2c
    9188:	16f40070 	uxtahne	r0, r4, r0
    918c:	12441001 	subne	r1, r4, #1
    9190:	0a000007 	beq	91b4 <rdm_send_discovery_respond_message+0x8c>
    9194:	e59c3018 	ldr	r3, [ip, #24]
    9198:	e59f2050 	ldr	r2, [pc, #80]	; 91f0 <rdm_send_discovery_respond_message+0xc8>
    919c:	e3130020 	tst	r3, #32
    91a0:	1afffffb 	bne	9194 <rdm_send_discovery_respond_message+0x6c>
    91a4:	e5f13001 	ldrb	r3, [r1, #1]!
    91a8:	e1510000 	cmp	r1, r0
    91ac:	e5823000 	str	r3, [r2]
    91b0:	1afffff7 	bne	9194 <rdm_send_discovery_respond_message+0x6c>
    91b4:	e59f2034 	ldr	r2, [pc, #52]	; 91f0 <rdm_send_discovery_respond_message+0xc8>
    91b8:	e5923018 	ldr	r3, [r2, #24]
    91bc:	e3130020 	tst	r3, #32
    91c0:	1afffffc 	bne	91b8 <rdm_send_discovery_respond_message+0x90>
    91c4:	e3a0002c 	mov	r0, #44	; 0x2c
    91c8:	e3a01000 	mov	r1, #0
    91cc:	eb000d56 	bl	c72c <udelay>
    91d0:	e3a00004 	mov	r0, #4
    91d4:	e3a01000 	mov	r1, #0
    91d8:	eb000d53 	bl	c72c <udelay>
    91dc:	e8bd4070 	pop	{r4, r5, r6, lr}
    91e0:	e3a00002 	mov	r0, #2
    91e4:	e3a01001 	mov	r1, #1
    91e8:	eafffcd3 	b	853c <dmx_port_direction_set>
    91ec:	20003000 	andcs	r3, r0, r0
    91f0:	20201000 	eorcs	r1, r0, r0

000091f4 <rdm_send_respond_message_ack>:
    91f4:	e3a02000 	mov	r2, #0
    91f8:	e5c02010 	strb	r2, [r0, #16]
    91fc:	eaffff41 	b	8f08 <rdm_send_respond_message.part.0>

00009200 <rdm_send_respond_message_nack>:
    9200:	e3a02002 	mov	r2, #2
    9204:	e3a0c01a 	mov	ip, #26
    9208:	e52de004 	push	{lr}		; (str lr, [sp, #-4]!)
    920c:	e1a0e421 	lsr	lr, r1, #8
    9210:	e5c0e018 	strb	lr, [r0, #24]
    9214:	e5c01019 	strb	r1, [r0, #25]
    9218:	e5c0c002 	strb	ip, [r0, #2]
    921c:	e5c02010 	strb	r2, [r0, #16]
    9220:	e5c02017 	strb	r2, [r0, #23]
    9224:	e49de004 	pop	{lr}		; (ldr lr, [sp], #4)
    9228:	eaffff36 	b	8f08 <rdm_send_respond_message.part.0>

0000922c <rdm_send_respond_message_ack_timer>:
    922c:	e92d4010 	push	{r4, lr}
    9230:	e3a0c001 	mov	ip, #1
    9234:	e3a0e01a 	mov	lr, #26
    9238:	e3a02002 	mov	r2, #2
    923c:	e1a04421 	lsr	r4, r1, #8
    9240:	e5c04018 	strb	r4, [r0, #24]
    9244:	e5c0e002 	strb	lr, [r0, #2]
    9248:	e5c01019 	strb	r1, [r0, #25]
    924c:	e5c0c010 	strb	ip, [r0, #16]
    9250:	e5c02017 	strb	r2, [r0, #23]
    9254:	e8bd4010 	pop	{r4, lr}
    9258:	eaffff2a 	b	8f08 <rdm_send_respond_message.part.0>

0000925c <rdm_send_increment_message_count>:
    925c:	e59f2010 	ldr	r2, [pc, #16]	; 9274 <rdm_send_increment_message_count+0x18>
    9260:	e5d23000 	ldrb	r3, [r2]
    9264:	e35300ff 	cmp	r3, #255	; 0xff
    9268:	12833001 	addne	r3, r3, #1
    926c:	15c23000 	strbne	r3, [r2]
    9270:	e12fff1e 	bx	lr
    9274:	0001a2e4 	andeq	sl, r1, r4, ror #5

00009278 <rdm_send_decrement_message_count>:
    9278:	e59f2010 	ldr	r2, [pc, #16]	; 9290 <rdm_send_decrement_message_count+0x18>
    927c:	e5d23000 	ldrb	r3, [r2]
    9280:	e3530000 	cmp	r3, #0
    9284:	12433001 	subne	r3, r3, #1
    9288:	15c23000 	strbne	r3, [r2]
    928c:	e12fff1e 	bx	lr
    9290:	0001a2e4 	andeq	sl, r1, r4, ror #5

00009294 <monitor_update>:
    9294:	e92d4ff0 	push	{r4, r5, r6, r7, r8, r9, sl, fp, lr}
    9298:	e3a05000 	mov	r5, #0
    929c:	e24dd034 	sub	sp, sp, #52	; 0x34
    92a0:	e1a00005 	mov	r0, r5
    92a4:	e58d502c 	str	r5, [sp, #44]	; 0x2c
    92a8:	eb000a51 	bl	bbf4 <sys_time>
    92ac:	e28d3030 	add	r3, sp, #48	; 0x30
    92b0:	e5230004 	str	r0, [r3, #-4]!
    92b4:	e1a00003 	mov	r0, r3
    92b8:	eb000fc4 	bl	d1d0 <localtime>
    92bc:	e1a06000 	mov	r6, r0
    92c0:	eb000954 	bl	b818 <hardware_uptime_seconds>
    92c4:	e1a04000 	mov	r4, r0
    92c8:	e1a09001 	mov	r9, r1
    92cc:	e1a00005 	mov	r0, r5
    92d0:	e3a01004 	mov	r1, #4
    92d4:	eb0008f6 	bl	b6b4 <console_set_cursor>
    92d8:	e1a00004 	mov	r0, r4
    92dc:	e1a01009 	mov	r1, r9
    92e0:	e59f2578 	ldr	r2, [pc, #1400]	; 9860 <monitor_update+0x5cc>
    92e4:	e3a03000 	mov	r3, #0
    92e8:	eb0034a6 	bl	16588 <__aeabi_uldivmod>
    92ec:	e89601c0 	ldm	r6, {r6, r7, r8}
    92f0:	e1a01009 	mov	r1, r9
    92f4:	e58d0000 	str	r0, [sp]
    92f8:	e59f2560 	ldr	r2, [pc, #1376]	; 9860 <monitor_update+0x5cc>
    92fc:	e1a00004 	mov	r0, r4
    9300:	e3a03000 	mov	r3, #0
    9304:	eb00349f 	bl	16588 <__aeabi_uldivmod>
    9308:	e59fc554 	ldr	ip, [pc, #1364]	; 9864 <monitor_update+0x5d0>
    930c:	e1a01009 	mov	r1, r9
    9310:	e08c329c 	umull	r3, ip, ip, r2
    9314:	e1a00004 	mov	r0, r4
    9318:	e1a0c5ac 	lsr	ip, ip, #11
    931c:	e3a02ee1 	mov	r2, #3600	; 0xe10
    9320:	e3a03000 	mov	r3, #0
    9324:	e58dc004 	str	ip, [sp, #4]
    9328:	eb003496 	bl	16588 <__aeabi_uldivmod>
    932c:	e59f3534 	ldr	r3, [pc, #1332]	; 9868 <monitor_update+0x5d4>
    9330:	e1a01008 	mov	r1, r8
    9334:	e08c0493 	umull	r0, ip, r3, r4
    9338:	e0823293 	umull	r3, r2, r3, r2
    933c:	e1a0c2ac 	lsr	ip, ip, #5
    9340:	e06cc20c 	rsb	ip, ip, ip, lsl #4
    9344:	e044410c 	sub	r4, r4, ip, lsl #2
    9348:	e1a0c2a2 	lsr	ip, r2, #5
    934c:	e58dc008 	str	ip, [sp, #8]
    9350:	e1a02007 	mov	r2, r7
    9354:	e1a03006 	mov	r3, r6
    9358:	e58d400c 	str	r4, [sp, #12]
    935c:	e59f0508 	ldr	r0, [pc, #1288]	; 986c <monitor_update+0x5d8>
    9360:	eb001549 	bl	e88c <printf>
    9364:	ebfffb93 	bl	81b8 <dmx_port_direction_get>
    9368:	e59f3500 	ldr	r3, [pc, #1280]	; 9870 <monitor_update+0x5dc>
    936c:	e3500002 	cmp	r0, #2
    9370:	e59f14fc 	ldr	r1, [pc, #1276]	; 9874 <monitor_update+0x5e0>
    9374:	e59f04fc 	ldr	r0, [pc, #1276]	; 9878 <monitor_update+0x5e4>
    9378:	01a01003 	moveq	r1, r3
    937c:	eb001542 	bl	e88c <printf>
    9380:	e1a00005 	mov	r0, r5
    9384:	ebfffe2d 	bl	8c40 <rdm_device_info_get_dmx_start_address>
    9388:	e1a09000 	mov	r9, r0
    938c:	e280a00f 	add	sl, r0, #15
    9390:	e59f64e4 	ldr	r6, [pc, #1252]	; 987c <monitor_update+0x5e8>
    9394:	e1a02b8a 	lsl	r2, sl, #23
    9398:	e1a01000 	mov	r1, r0
    939c:	e1a02ba2 	lsr	r2, r2, #23
    93a0:	e59f04d8 	ldr	r0, [pc, #1240]	; 9880 <monitor_update+0x5ec>
    93a4:	eb001538 	bl	e88c <printf>
    93a8:	e1a08006 	mov	r8, r6
    93ac:	e3a0b020 	mov	fp, #32
    93b0:	e59f74cc 	ldr	r7, [pc, #1228]	; 9884 <monitor_update+0x5f0>
    93b4:	e2494001 	sub	r4, r9, #1
    93b8:	ea00002b 	b	946c <monitor_update+0x1d8>
    93bc:	e1a03225 	lsr	r3, r5, #4
    93c0:	e3530009 	cmp	r3, #9
    93c4:	e5922000 	ldr	r2, [r2]
    93c8:	92833030 	addls	r3, r3, #48	; 0x30
    93cc:	82833037 	addhi	r3, r3, #55	; 0x37
    93d0:	e5c23000 	strb	r3, [r2]
    93d4:	e5960000 	ldr	r0, [r6]
    93d8:	e5902008 	ldr	r2, [r0, #8]
    93dc:	e5923000 	ldr	r3, [r2]
    93e0:	e2833001 	add	r3, r3, #1
    93e4:	e5823000 	str	r3, [r2]
    93e8:	e5902008 	ldr	r2, [r0, #8]
    93ec:	e5923008 	ldr	r3, [r2, #8]
    93f0:	e2433001 	sub	r3, r3, #1
    93f4:	e3530000 	cmp	r3, #0
    93f8:	e5823008 	str	r3, [r2, #8]
    93fc:	ba000096 	blt	965c <monitor_update+0x3c8>
    9400:	e205500f 	and	r5, r5, #15
    9404:	e5923000 	ldr	r3, [r2]
    9408:	e3550009 	cmp	r5, #9
    940c:	92855030 	addls	r5, r5, #48	; 0x30
    9410:	82855037 	addhi	r5, r5, #55	; 0x37
    9414:	e5c35000 	strb	r5, [r3]
    9418:	e5960000 	ldr	r0, [r6]
    941c:	e5902008 	ldr	r2, [r0, #8]
    9420:	e5923000 	ldr	r3, [r2]
    9424:	e2833001 	add	r3, r3, #1
    9428:	e5823000 	str	r3, [r2]
    942c:	e5902008 	ldr	r2, [r0, #8]
    9430:	e5923008 	ldr	r3, [r2, #8]
    9434:	e2433001 	sub	r3, r3, #1
    9438:	e3530000 	cmp	r3, #0
    943c:	e5823008 	str	r3, [r2, #8]
    9440:	ba000024 	blt	94d8 <monitor_update+0x244>
    9444:	e5923000 	ldr	r3, [r2]
    9448:	e5c3b000 	strb	fp, [r3]
    944c:	e5963000 	ldr	r3, [r6]
    9450:	e5932008 	ldr	r2, [r3, #8]
    9454:	e5923000 	ldr	r3, [r2]
    9458:	e2844001 	add	r4, r4, #1
    945c:	e2833001 	add	r3, r3, #1
    9460:	e154000a 	cmp	r4, sl
    9464:	e5823000 	str	r3, [r2]
    9468:	0a000029 	beq	9514 <monitor_update+0x280>
    946c:	e5960000 	ldr	r0, [r6]
    9470:	e1a03b84 	lsl	r3, r4, #23
    9474:	e5902008 	ldr	r2, [r0, #8]
    9478:	e7d75ba3 	ldrb	r5, [r7, r3, lsr #23]
    947c:	e5923008 	ldr	r3, [r2, #8]
    9480:	e2433001 	sub	r3, r3, #1
    9484:	e3530000 	cmp	r3, #0
    9488:	e5823008 	str	r3, [r2, #8]
    948c:	aaffffca 	bge	93bc <monitor_update+0x128>
    9490:	e5921018 	ldr	r1, [r2, #24]
    9494:	e1530001 	cmp	r3, r1
    9498:	ba000081 	blt	96a4 <monitor_update+0x410>
    949c:	e1a03225 	lsr	r3, r5, #4
    94a0:	e3530009 	cmp	r3, #9
    94a4:	e5922000 	ldr	r2, [r2]
    94a8:	92833030 	addls	r3, r3, #48	; 0x30
    94ac:	82833037 	addhi	r3, r3, #55	; 0x37
    94b0:	e5c23000 	strb	r3, [r2]
    94b4:	e5960000 	ldr	r0, [r6]
    94b8:	e5902008 	ldr	r2, [r0, #8]
    94bc:	e5923000 	ldr	r3, [r2]
    94c0:	e5d31000 	ldrb	r1, [r3]
    94c4:	e351000a 	cmp	r1, #10
    94c8:	1affffc4 	bne	93e0 <monitor_update+0x14c>
    94cc:	eb001dc9 	bl	10bf8 <__swbuf_r>
    94d0:	e5980000 	ldr	r0, [r8]
    94d4:	eaffffc3 	b	93e8 <monitor_update+0x154>
    94d8:	e5921018 	ldr	r1, [r2, #24]
    94dc:	e1530001 	cmp	r3, r1
    94e0:	ba00007c 	blt	96d8 <monitor_update+0x444>
    94e4:	e5923000 	ldr	r3, [r2]
    94e8:	e5c3b000 	strb	fp, [r3]
    94ec:	e5960000 	ldr	r0, [r6]
    94f0:	e5902008 	ldr	r2, [r0, #8]
    94f4:	e5923000 	ldr	r3, [r2]
    94f8:	e5d31000 	ldrb	r1, [r3]
    94fc:	e351000a 	cmp	r1, #10
    9500:	1affffd4 	bne	9458 <monitor_update+0x1c4>
    9504:	eb001dbb 	bl	10bf8 <__swbuf_r>
    9508:	e2844001 	add	r4, r4, #1
    950c:	e154000a 	cmp	r4, sl
    9510:	1affffd5 	bne	946c <monitor_update+0x1d8>
    9514:	e2891010 	add	r1, r9, #16
    9518:	e289901f 	add	r9, r9, #31
    951c:	e1a01b81 	lsl	r1, r1, #23
    9520:	e1a02b89 	lsl	r2, r9, #23
    9524:	e1a01ba1 	lsr	r1, r1, #23
    9528:	e1a02ba2 	lsr	r2, r2, #23
    952c:	e59f0354 	ldr	r0, [pc, #852]	; 9888 <monitor_update+0x5f4>
    9530:	eb0014d5 	bl	e88c <printf>
    9534:	e3a0a020 	mov	sl, #32
    9538:	e59f833c 	ldr	r8, [pc, #828]	; 987c <monitor_update+0x5e8>
    953c:	ea00002b 	b	95f0 <monitor_update+0x35c>
    9540:	e1a03225 	lsr	r3, r5, #4
    9544:	e3530009 	cmp	r3, #9
    9548:	e5922000 	ldr	r2, [r2]
    954c:	92833030 	addls	r3, r3, #48	; 0x30
    9550:	82833037 	addhi	r3, r3, #55	; 0x37
    9554:	e5c23000 	strb	r3, [r2]
    9558:	e5960000 	ldr	r0, [r6]
    955c:	e5902008 	ldr	r2, [r0, #8]
    9560:	e5923000 	ldr	r3, [r2]
    9564:	e2833001 	add	r3, r3, #1
    9568:	e5823000 	str	r3, [r2]
    956c:	e5902008 	ldr	r2, [r0, #8]
    9570:	e5923008 	ldr	r3, [r2, #8]
    9574:	e2433001 	sub	r3, r3, #1
    9578:	e3530000 	cmp	r3, #0
    957c:	e5823008 	str	r3, [r2, #8]
    9580:	ba000094 	blt	97d8 <monitor_update+0x544>
    9584:	e205500f 	and	r5, r5, #15
    9588:	e5923000 	ldr	r3, [r2]
    958c:	e3550009 	cmp	r5, #9
    9590:	92855030 	addls	r5, r5, #48	; 0x30
    9594:	82855037 	addhi	r5, r5, #55	; 0x37
    9598:	e5c35000 	strb	r5, [r3]
    959c:	e5960000 	ldr	r0, [r6]
    95a0:	e5902008 	ldr	r2, [r0, #8]
    95a4:	e5923000 	ldr	r3, [r2]
    95a8:	e2833001 	add	r3, r3, #1
    95ac:	e5823000 	str	r3, [r2]
    95b0:	e5902008 	ldr	r2, [r0, #8]
    95b4:	e5923008 	ldr	r3, [r2, #8]
    95b8:	e2433001 	sub	r3, r3, #1
    95bc:	e3530000 	cmp	r3, #0
    95c0:	e5823008 	str	r3, [r2, #8]
    95c4:	ba000046 	blt	96e4 <monitor_update+0x450>
    95c8:	e5923000 	ldr	r3, [r2]
    95cc:	e5c3a000 	strb	sl, [r3]
    95d0:	e5963000 	ldr	r3, [r6]
    95d4:	e5932008 	ldr	r2, [r3, #8]
    95d8:	e5923000 	ldr	r3, [r2]
    95dc:	e2844001 	add	r4, r4, #1
    95e0:	e2833001 	add	r3, r3, #1
    95e4:	e1540009 	cmp	r4, r9
    95e8:	e5823000 	str	r3, [r2]
    95ec:	0a00004b 	beq	9720 <monitor_update+0x48c>
    95f0:	e5960000 	ldr	r0, [r6]
    95f4:	e1a03b84 	lsl	r3, r4, #23
    95f8:	e5902008 	ldr	r2, [r0, #8]
    95fc:	e7d75ba3 	ldrb	r5, [r7, r3, lsr #23]
    9600:	e5923008 	ldr	r3, [r2, #8]
    9604:	e2433001 	sub	r3, r3, #1
    9608:	e3530000 	cmp	r3, #0
    960c:	e5823008 	str	r3, [r2, #8]
    9610:	aaffffca 	bge	9540 <monitor_update+0x2ac>
    9614:	e5921018 	ldr	r1, [r2, #24]
    9618:	e1530001 	cmp	r3, r1
    961c:	ba00007f 	blt	9820 <monitor_update+0x58c>
    9620:	e1a03225 	lsr	r3, r5, #4
    9624:	e3530009 	cmp	r3, #9
    9628:	e5922000 	ldr	r2, [r2]
    962c:	92833030 	addls	r3, r3, #48	; 0x30
    9630:	82833037 	addhi	r3, r3, #55	; 0x37
    9634:	e5c23000 	strb	r3, [r2]
    9638:	e5960000 	ldr	r0, [r6]
    963c:	e5902008 	ldr	r2, [r0, #8]
    9640:	e5923000 	ldr	r3, [r2]
    9644:	e5d31000 	ldrb	r1, [r3]
    9648:	e351000a 	cmp	r1, #10
    964c:	1affffc4 	bne	9564 <monitor_update+0x2d0>
    9650:	eb001d68 	bl	10bf8 <__swbuf_r>
    9654:	e5980000 	ldr	r0, [r8]
    9658:	eaffffc3 	b	956c <monitor_update+0x2d8>
    965c:	e5921018 	ldr	r1, [r2, #24]
    9660:	e205500f 	and	r5, r5, #15
    9664:	e1530001 	cmp	r3, r1
    9668:	ba000014 	blt	96c0 <monitor_update+0x42c>
    966c:	e3550009 	cmp	r5, #9
    9670:	e5923000 	ldr	r3, [r2]
    9674:	92855030 	addls	r5, r5, #48	; 0x30
    9678:	82855037 	addhi	r5, r5, #55	; 0x37
    967c:	e5c35000 	strb	r5, [r3]
    9680:	e5960000 	ldr	r0, [r6]
    9684:	e5902008 	ldr	r2, [r0, #8]
    9688:	e5923000 	ldr	r3, [r2]
    968c:	e5d31000 	ldrb	r1, [r3]
    9690:	e351000a 	cmp	r1, #10
    9694:	1affff62 	bne	9424 <monitor_update+0x190>
    9698:	eb001d56 	bl	10bf8 <__swbuf_r>
    969c:	e5980000 	ldr	r0, [r8]
    96a0:	eaffff61 	b	942c <monitor_update+0x198>
    96a4:	e1a01225 	lsr	r1, r5, #4
    96a8:	e3510009 	cmp	r1, #9
    96ac:	92811030 	addls	r1, r1, #48	; 0x30
    96b0:	82811037 	addhi	r1, r1, #55	; 0x37
    96b4:	eb001d4f 	bl	10bf8 <__swbuf_r>
    96b8:	e5960000 	ldr	r0, [r6]
    96bc:	eaffff49 	b	93e8 <monitor_update+0x154>
    96c0:	e3550009 	cmp	r5, #9
    96c4:	92851030 	addls	r1, r5, #48	; 0x30
    96c8:	82851037 	addhi	r1, r5, #55	; 0x37
    96cc:	eb001d49 	bl	10bf8 <__swbuf_r>
    96d0:	e5960000 	ldr	r0, [r6]
    96d4:	eaffff54 	b	942c <monitor_update+0x198>
    96d8:	e3a01020 	mov	r1, #32
    96dc:	eb001d45 	bl	10bf8 <__swbuf_r>
    96e0:	eaffff88 	b	9508 <monitor_update+0x274>
    96e4:	e5921018 	ldr	r1, [r2, #24]
    96e8:	e1530001 	cmp	r3, r1
    96ec:	ba000058 	blt	9854 <monitor_update+0x5c0>
    96f0:	e5923000 	ldr	r3, [r2]
    96f4:	e5c3a000 	strb	sl, [r3]
    96f8:	e5960000 	ldr	r0, [r6]
    96fc:	e5902008 	ldr	r2, [r0, #8]
    9700:	e5923000 	ldr	r3, [r2]
    9704:	e5d31000 	ldrb	r1, [r3]
    9708:	e351000a 	cmp	r1, #10
    970c:	1affffb2 	bne	95dc <monitor_update+0x348>
    9710:	eb001d38 	bl	10bf8 <__swbuf_r>
    9714:	e2844001 	add	r4, r4, #1
    9718:	e1540009 	cmp	r4, r9
    971c:	1affffb3 	bne	95f0 <monitor_update+0x35c>
    9720:	ebffface 	bl	8260 <total_statistics_get>
    9724:	e1a03000 	mov	r3, r0
    9728:	e59f015c 	ldr	r0, [pc, #348]	; 988c <monitor_update+0x5f8>
    972c:	e8930006 	ldm	r3, {r1, r2}
    9730:	eb001455 	bl	e88c <printf>
    9734:	eb000059 	bl	98a0 <rdm_is_muted>
    9738:	e59f3150 	ldr	r3, [pc, #336]	; 9890 <monitor_update+0x5fc>
    973c:	e3500001 	cmp	r0, #1
    9740:	e59f114c 	ldr	r1, [pc, #332]	; 9894 <monitor_update+0x600>
    9744:	e59f014c 	ldr	r0, [pc, #332]	; 9898 <monitor_update+0x604>
    9748:	01a01003 	moveq	r1, r3
    974c:	eb00144e 	bl	e88c <printf>
    9750:	ebfffa8a 	bl	8180 <rdm_get_current_data>
    9754:	e3a03000 	mov	r3, #0
    9758:	e2408001 	sub	r8, r0, #1
    975c:	e2807008 	add	r7, r0, #8
    9760:	e2806011 	add	r6, r0, #17
    9764:	e280501a 	add	r5, r0, #26
    9768:	e5f82001 	ldrb	r2, [r8, #1]!
    976c:	e5f51001 	ldrb	r1, [r5, #1]!
    9770:	e5f7a001 	ldrb	sl, [r7, #1]!
    9774:	e5f6e001 	ldrb	lr, [r6, #1]!
    9778:	e2834001 	add	r4, r3, #1
    977c:	e2830013 	add	r0, r3, #19
    9780:	e283c01c 	add	ip, r3, #28
    9784:	e283900a 	add	r9, r3, #10
    9788:	e58d101c 	str	r1, [sp, #28]
    978c:	e1a03002 	mov	r3, r2
    9790:	e58d1020 	str	r1, [sp, #32]
    9794:	e58d000c 	str	r0, [sp, #12]
    9798:	e58da004 	str	sl, [sp, #4]
    979c:	e58da008 	str	sl, [sp, #8]
    97a0:	e58de010 	str	lr, [sp, #16]
    97a4:	e58de014 	str	lr, [sp, #20]
    97a8:	e1a01004 	mov	r1, r4
    97ac:	e58d9000 	str	r9, [sp]
    97b0:	e58dc018 	str	ip, [sp, #24]
    97b4:	e59f00e0 	ldr	r0, [pc, #224]	; 989c <monitor_update+0x608>
    97b8:	eb001433 	bl	e88c <printf>
    97bc:	e3540009 	cmp	r4, #9
    97c0:	e1a03004 	mov	r3, r4
    97c4:	1affffe7 	bne	9768 <monitor_update+0x4d4>
    97c8:	e3a00018 	mov	r0, #24
    97cc:	eb0007c9 	bl	b6f8 <console_clear_line>
    97d0:	e28dd034 	add	sp, sp, #52	; 0x34
    97d4:	e8bd8ff0 	pop	{r4, r5, r6, r7, r8, r9, sl, fp, pc}
    97d8:	e5921018 	ldr	r1, [r2, #24]
    97dc:	e205500f 	and	r5, r5, #15
    97e0:	e1530001 	cmp	r3, r1
    97e4:	ba000014 	blt	983c <monitor_update+0x5a8>
    97e8:	e3550009 	cmp	r5, #9
    97ec:	e5923000 	ldr	r3, [r2]
    97f0:	92855030 	addls	r5, r5, #48	; 0x30
    97f4:	82855037 	addhi	r5, r5, #55	; 0x37
    97f8:	e5c35000 	strb	r5, [r3]
    97fc:	e5960000 	ldr	r0, [r6]
    9800:	e5902008 	ldr	r2, [r0, #8]
    9804:	e5923000 	ldr	r3, [r2]
    9808:	e5d31000 	ldrb	r1, [r3]
    980c:	e351000a 	cmp	r1, #10
    9810:	1affff64 	bne	95a8 <monitor_update+0x314>
    9814:	eb001cf7 	bl	10bf8 <__swbuf_r>
    9818:	e5980000 	ldr	r0, [r8]
    981c:	eaffff63 	b	95b0 <monitor_update+0x31c>
    9820:	e1a01225 	lsr	r1, r5, #4
    9824:	e3510009 	cmp	r1, #9
    9828:	92811030 	addls	r1, r1, #48	; 0x30
    982c:	82811037 	addhi	r1, r1, #55	; 0x37
    9830:	eb001cf0 	bl	10bf8 <__swbuf_r>
    9834:	e5960000 	ldr	r0, [r6]
    9838:	eaffff4b 	b	956c <monitor_update+0x2d8>
    983c:	e3550009 	cmp	r5, #9
    9840:	92851030 	addls	r1, r5, #48	; 0x30
    9844:	82851037 	addhi	r1, r5, #55	; 0x37
    9848:	eb001cea 	bl	10bf8 <__swbuf_r>
    984c:	e5960000 	ldr	r0, [r6]
    9850:	eaffff56 	b	95b0 <monitor_update+0x31c>
    9854:	e3a01020 	mov	r1, #32
    9858:	eb001ce6 	bl	10bf8 <__swbuf_r>
    985c:	eaffffac 	b	9714 <monitor_update+0x480>
    9860:	00015180 	andeq	r5, r1, r0, lsl #3
    9864:	91a2b3c5 			; <UNDEFINED> instruction: 0x91a2b3c5
    9868:	88888889 	stmhi	r8, {r0, r3, r7, fp, pc}
    986c:	00016f88 	andeq	r6, r1, r8, lsl #31
    9870:	00016f68 	andeq	r6, r1, r8, ror #30
    9874:	00016f70 	andeq	r6, r1, r0, ror pc
    9878:	00016fbc 			; <UNDEFINED> instruction: 0x00016fbc
    987c:	00017948 	andeq	r7, r1, r8, asr #18
    9880:	00016fc4 	andeq	r6, r1, r4, asr #31
    9884:	0001a360 	andeq	sl, r1, r0, ror #6
    9888:	00016fd4 	ldrdeq	r6, [r1], -r4
    988c:	00016fe4 	andeq	r6, r1, r4, ror #31
    9890:	00016f78 	andeq	r6, r1, r8, ror pc
    9894:	00016f80 	andeq	r6, r1, r0, lsl #31
    9898:	00017004 	andeq	r7, r1, r4
    989c:	0001700c 	andeq	r7, r1, ip

000098a0 <rdm_is_muted>:
    98a0:	e59f3004 	ldr	r3, [pc, #4]	; 98ac <rdm_is_muted+0xc>
    98a4:	e5d30000 	ldrb	r0, [r3]
    98a8:	e12fff1e 	bx	lr
    98ac:	0001a2e5 	andeq	sl, r1, r5, ror #5

000098b0 <rdm_handle_data>:
    98b0:	e92d43f0 	push	{r4, r5, r6, r7, r8, r9, lr}
    98b4:	e24dd014 	sub	sp, sp, #20
    98b8:	ebfffa24 	bl	8150 <rdm_available_get>
    98bc:	e2504000 	subs	r4, r0, #0
    98c0:	0a000026 	beq	9960 <rdm_handle_data+0xb0>
    98c4:	e5d42015 	ldrb	r2, [r4, #21]
    98c8:	e5d43016 	ldrb	r3, [r4, #22]
    98cc:	e5d46014 	ldrb	r6, [r4, #20]
    98d0:	e0835402 	add	r5, r3, r2, lsl #8
    98d4:	e6ff5075 	uxth	r5, r5
    98d8:	e88d002c 	stm	sp, {r2, r3, r5}
    98dc:	e59f1374 	ldr	r1, [pc, #884]	; 9c58 <rdm_handle_data+0x3a8>
    98e0:	e1a03006 	mov	r3, r6
    98e4:	e1a02006 	mov	r2, r6
    98e8:	e3a00017 	mov	r0, #23
    98ec:	ebfffc32 	bl	89bc <monitor_line>
    98f0:	ebfffc8c 	bl	8b28 <rdm_device_info_get_uuid>
    98f4:	e2847003 	add	r7, r4, #3
    98f8:	e1a09000 	mov	r9, r0
    98fc:	e59f1358 	ldr	r1, [pc, #856]	; 9c5c <rdm_handle_data+0x3ac>
    9900:	e3a02006 	mov	r2, #6
    9904:	e1a00007 	mov	r0, r7
    9908:	eb0010dc 	bl	dc80 <memcmp>
    990c:	e1a01009 	mov	r1, r9
    9910:	e16f8f10 	clz	r8, r0
    9914:	e3a02002 	mov	r2, #2
    9918:	e1a00007 	mov	r0, r7
    991c:	eb0010d7 	bl	dc80 <memcmp>
    9920:	e3500000 	cmp	r0, #0
    9924:	e1a082a8 	lsr	r8, r8, #5
    9928:	1a00000e 	bne	9968 <rdm_handle_data+0xb8>
    992c:	e2840005 	add	r0, r4, #5
    9930:	e59f1324 	ldr	r1, [pc, #804]	; 9c5c <rdm_handle_data+0x3ac>
    9934:	e3a02004 	mov	r2, #4
    9938:	eb0010d0 	bl	dc80 <memcmp>
    993c:	e3500000 	cmp	r0, #0
    9940:	1a000008 	bne	9968 <rdm_handle_data+0xb8>
    9944:	e3a00001 	mov	r0, #1
    9948:	e3a07001 	mov	r7, #1
    994c:	e3560010 	cmp	r6, #16
    9950:	0a00001e 	beq	99d0 <rdm_handle_data+0x120>
    9954:	e20630ef 	and	r3, r6, #239	; 0xef
    9958:	e3530020 	cmp	r3, #32
    995c:	0a00000c 	beq	9994 <rdm_handle_data+0xe4>
    9960:	e28dd014 	add	sp, sp, #20
    9964:	e8bd83f0 	pop	{r4, r5, r6, r7, r8, r9, pc}
    9968:	e1a00007 	mov	r0, r7
    996c:	e1a01009 	mov	r1, r9
    9970:	e3a02006 	mov	r2, #6
    9974:	eb0010c1 	bl	dc80 <memcmp>
    9978:	e3500000 	cmp	r0, #0
    997c:	0afffff1 	beq	9948 <rdm_handle_data+0x98>
    9980:	e3580000 	cmp	r8, #0
    9984:	0afffff5 	beq	9960 <rdm_handle_data+0xb0>
    9988:	e3a00000 	mov	r0, #0
    998c:	e1a07000 	mov	r7, r0
    9990:	eaffffed 	b	994c <rdm_handle_data+0x9c>
    9994:	e5d43017 	ldrb	r3, [r4, #23]
    9998:	e1801008 	orr	r1, r0, r8
    999c:	e58d3000 	str	r3, [sp]
    99a0:	e5d42012 	ldrb	r2, [r4, #18]
    99a4:	e5d43013 	ldrb	r3, [r4, #19]
    99a8:	e6ef1071 	uxtb	r1, r1
    99ac:	e0830402 	add	r0, r3, r2, lsl #8
    99b0:	e6ff0070 	uxth	r0, r0
    99b4:	e58d0004 	str	r0, [sp, #4]
    99b8:	e1a02006 	mov	r2, r6
    99bc:	e1a03005 	mov	r3, r5
    99c0:	e1a00004 	mov	r0, r4
    99c4:	eb0004a9 	bl	ac70 <rdm_handlers>
    99c8:	e28dd014 	add	sp, sp, #20
    99cc:	e8bd83f0 	pop	{r4, r5, r6, r7, r8, r9, pc}
    99d0:	e3550001 	cmp	r5, #1
    99d4:	0a00001d 	beq	9a50 <rdm_handle_data+0x1a0>
    99d8:	e3550003 	cmp	r5, #3
    99dc:	0a000089 	beq	9c08 <rdm_handle_data+0x358>
    99e0:	e3550002 	cmp	r5, #2
    99e4:	1affffdd 	bne	9960 <rdm_handle_data+0xb0>
    99e8:	e3a00018 	mov	r0, #24
    99ec:	e59f126c 	ldr	r1, [pc, #620]	; 9c60 <rdm_handle_data+0x3b0>
    99f0:	ebfffbf1 	bl	89bc <monitor_line>
    99f4:	e5d43017 	ldrb	r3, [r4, #23]
    99f8:	e3530000 	cmp	r3, #0
    99fc:	1affffd7 	bne	9960 <rdm_handle_data+0xb0>
    9a00:	e3a01001 	mov	r1, #1
    9a04:	e59f2258 	ldr	r2, [pc, #600]	; 9c64 <rdm_handle_data+0x3b4>
    9a08:	e3570000 	cmp	r7, #0
    9a0c:	e5c21000 	strb	r1, [r2]
    9a10:	0affffd2 	beq	9960 <rdm_handle_data+0xb0>
    9a14:	e3a0201a 	mov	r2, #26
    9a18:	e5c45017 	strb	r5, [r4, #23]
    9a1c:	e5c43018 	strb	r3, [r4, #24]
    9a20:	e5c43019 	strb	r3, [r4, #25]
    9a24:	e5c42002 	strb	r2, [r4, #2]
    9a28:	eb00054e 	bl	af68 <rdm_sub_devices_get>
    9a2c:	e3500000 	cmp	r0, #0
    9a30:	0a000002 	beq	9a40 <rdm_handle_data+0x190>
    9a34:	e5d43019 	ldrb	r3, [r4, #25]
    9a38:	e3833002 	orr	r3, r3, #2
    9a3c:	e5c43019 	strb	r3, [r4, #25]
    9a40:	e1a00004 	mov	r0, r4
    9a44:	e28dd014 	add	sp, sp, #20
    9a48:	e8bd43f0 	pop	{r4, r5, r6, r7, r8, r9, lr}
    9a4c:	eafffde8 	b	91f4 <rdm_send_respond_message_ack>
    9a50:	e59f320c 	ldr	r3, [pc, #524]	; 9c64 <rdm_handle_data+0x3b4>
    9a54:	e5d33000 	ldrb	r3, [r3]
    9a58:	e3530000 	cmp	r3, #0
    9a5c:	1affffbf 	bne	9960 <rdm_handle_data+0xb0>
    9a60:	e2840018 	add	r0, r4, #24
    9a64:	e1a01009 	mov	r1, r9
    9a68:	e3a02006 	mov	r2, #6
    9a6c:	eb001083 	bl	dc80 <memcmp>
    9a70:	e3500000 	cmp	r0, #0
    9a74:	caffffb9 	bgt	9960 <rdm_handle_data+0xb0>
    9a78:	e1a00009 	mov	r0, r9
    9a7c:	e284101e 	add	r1, r4, #30
    9a80:	e3a02006 	mov	r2, #6
    9a84:	eb00107d 	bl	dc80 <memcmp>
    9a88:	e3500000 	cmp	r0, #0
    9a8c:	caffffb3 	bgt	9960 <rdm_handle_data+0xb0>
    9a90:	e3a00018 	mov	r0, #24
    9a94:	e59f11cc 	ldr	r1, [pc, #460]	; 9c68 <rdm_handle_data+0x3b8>
    9a98:	ebfffbc7 	bl	89bc <monitor_line>
    9a9c:	e3e03001 	mvn	r3, #1
    9aa0:	e3e02055 	mvn	r2, #85	; 0x55
    9aa4:	e5c43000 	strb	r3, [r4]
    9aa8:	e5c43001 	strb	r3, [r4, #1]
    9aac:	e5c43002 	strb	r3, [r4, #2]
    9ab0:	e5c43003 	strb	r3, [r4, #3]
    9ab4:	e5c43004 	strb	r3, [r4, #4]
    9ab8:	e5c43005 	strb	r3, [r4, #5]
    9abc:	e5c43006 	strb	r3, [r4, #6]
    9ac0:	e5c42007 	strb	r2, [r4, #7]
    9ac4:	e5d93000 	ldrb	r3, [r9]
    9ac8:	e1a00004 	mov	r0, r4
    9acc:	e1e03003 	mvn	r3, r3
    9ad0:	e2033055 	and	r3, r3, #85	; 0x55
    9ad4:	e1e03003 	mvn	r3, r3
    9ad8:	e5c43008 	strb	r3, [r4, #8]
    9adc:	e5d93000 	ldrb	r3, [r9]
    9ae0:	e3a01018 	mov	r1, #24
    9ae4:	e3833055 	orr	r3, r3, #85	; 0x55
    9ae8:	e5c43009 	strb	r3, [r4, #9]
    9aec:	e5d93001 	ldrb	r3, [r9, #1]
    9af0:	e5d92000 	ldrb	r2, [r9]
    9af4:	e1e03003 	mvn	r3, r3
    9af8:	e2033055 	and	r3, r3, #85	; 0x55
    9afc:	e1e03003 	mvn	r3, r3
    9b00:	e5c4300a 	strb	r3, [r4, #10]
    9b04:	e5d93001 	ldrb	r3, [r9, #1]
    9b08:	e3833055 	orr	r3, r3, #85	; 0x55
    9b0c:	e5c4300b 	strb	r3, [r4, #11]
    9b10:	e5d93002 	ldrb	r3, [r9, #2]
    9b14:	e5d9e001 	ldrb	lr, [r9, #1]
    9b18:	e1e03003 	mvn	r3, r3
    9b1c:	e2033055 	and	r3, r3, #85	; 0x55
    9b20:	e1e03003 	mvn	r3, r3
    9b24:	e5c4300c 	strb	r3, [r4, #12]
    9b28:	e5d9c002 	ldrb	ip, [r9, #2]
    9b2c:	e082300e 	add	r3, r2, lr
    9b30:	e38c2055 	orr	r2, ip, #85	; 0x55
    9b34:	e5c4200d 	strb	r2, [r4, #13]
    9b38:	e5d9c003 	ldrb	ip, [r9, #3]
    9b3c:	e5d92002 	ldrb	r2, [r9, #2]
    9b40:	e1e0c00c 	mvn	ip, ip
    9b44:	e20cc055 	and	ip, ip, #85	; 0x55
    9b48:	e1e0c00c 	mvn	ip, ip
    9b4c:	e5c4c00e 	strb	ip, [r4, #14]
    9b50:	e5d9c003 	ldrb	ip, [r9, #3]
    9b54:	e2833e5f 	add	r3, r3, #1520	; 0x5f0
    9b58:	e38cc055 	orr	ip, ip, #85	; 0x55
    9b5c:	e5c4c00f 	strb	ip, [r4, #15]
    9b60:	e5d9c004 	ldrb	ip, [r9, #4]
    9b64:	e5d9e003 	ldrb	lr, [r9, #3]
    9b68:	e1e0c00c 	mvn	ip, ip
    9b6c:	e20cc055 	and	ip, ip, #85	; 0x55
    9b70:	e1e0c00c 	mvn	ip, ip
    9b74:	e5c4c010 	strb	ip, [r4, #16]
    9b78:	e5d9c004 	ldrb	ip, [r9, #4]
    9b7c:	e283300a 	add	r3, r3, #10
    9b80:	e38cc055 	orr	ip, ip, #85	; 0x55
    9b84:	e5c4c011 	strb	ip, [r4, #17]
    9b88:	e5d95004 	ldrb	r5, [r9, #4]
    9b8c:	e5d9c005 	ldrb	ip, [r9, #5]
    9b90:	e0832002 	add	r2, r3, r2
    9b94:	e1e0c00c 	mvn	ip, ip
    9b98:	e20cc055 	and	ip, ip, #85	; 0x55
    9b9c:	e1e0c00c 	mvn	ip, ip
    9ba0:	e5c4c012 	strb	ip, [r4, #18]
    9ba4:	e5d9c005 	ldrb	ip, [r9, #5]
    9ba8:	e6fe2072 	uxtah	r2, lr, r2
    9bac:	e38cc055 	orr	ip, ip, #85	; 0x55
    9bb0:	e5c4c013 	strb	ip, [r4, #19]
    9bb4:	e5d9c005 	ldrb	ip, [r9, #5]
    9bb8:	e6f53072 	uxtah	r3, r5, r2
    9bbc:	e6fc3073 	uxtah	r3, ip, r3
    9bc0:	e6ff3073 	uxth	r3, r3
    9bc4:	e1a0e423 	lsr	lr, r3, #8
    9bc8:	e6ef3073 	uxtb	r3, r3
    9bcc:	e1e0c00e 	mvn	ip, lr
    9bd0:	e1e02003 	mvn	r2, r3
    9bd4:	e20cc055 	and	ip, ip, #85	; 0x55
    9bd8:	e2022055 	and	r2, r2, #85	; 0x55
    9bdc:	e1e0c00c 	mvn	ip, ip
    9be0:	e1e02002 	mvn	r2, r2
    9be4:	e38ee055 	orr	lr, lr, #85	; 0x55
    9be8:	e3833055 	orr	r3, r3, #85	; 0x55
    9bec:	e5c4c014 	strb	ip, [r4, #20]
    9bf0:	e5c4e015 	strb	lr, [r4, #21]
    9bf4:	e5c42016 	strb	r2, [r4, #22]
    9bf8:	e5c43017 	strb	r3, [r4, #23]
    9bfc:	e28dd014 	add	sp, sp, #20
    9c00:	e8bd43f0 	pop	{r4, r5, r6, r7, r8, r9, lr}
    9c04:	eafffd47 	b	9128 <rdm_send_discovery_respond_message>
    9c08:	e3a00018 	mov	r0, #24
    9c0c:	e59f1058 	ldr	r1, [pc, #88]	; 9c6c <rdm_handle_data+0x3bc>
    9c10:	ebfffb69 	bl	89bc <monitor_line>
    9c14:	e5d43017 	ldrb	r3, [r4, #23]
    9c18:	e3530000 	cmp	r3, #0
    9c1c:	1affff4f 	bne	9960 <rdm_handle_data+0xb0>
    9c20:	e59f203c 	ldr	r2, [pc, #60]	; 9c64 <rdm_handle_data+0x3b4>
    9c24:	e3570000 	cmp	r7, #0
    9c28:	e5c23000 	strb	r3, [r2]
    9c2c:	0affff4b 	beq	9960 <rdm_handle_data+0xb0>
    9c30:	e3a0101a 	mov	r1, #26
    9c34:	e3a02002 	mov	r2, #2
    9c38:	e5c43018 	strb	r3, [r4, #24]
    9c3c:	e5c43019 	strb	r3, [r4, #25]
    9c40:	e5c41002 	strb	r1, [r4, #2]
    9c44:	e5c42017 	strb	r2, [r4, #23]
    9c48:	eb0004c6 	bl	af68 <rdm_sub_devices_get>
    9c4c:	e3500000 	cmp	r0, #0
    9c50:	1affff77 	bne	9a34 <rdm_handle_data+0x184>
    9c54:	eaffff79 	b	9a40 <rdm_handle_data+0x190>
    9c58:	0001704c 	andeq	r7, r1, ip, asr #32
    9c5c:	00016950 	andeq	r6, r1, r0, asr r9
    9c60:	000170a8 	andeq	r7, r1, r8, lsr #1
    9c64:	0001a2e5 	andeq	sl, r1, r5, ror #5
    9c68:	0001707c 	andeq	r7, r1, ip, ror r0
    9c6c:	00017094 	muleq	r1, r4, r0

00009c70 <rdm_set_device_hours>:
    9c70:	e3a02000 	mov	r2, #0
    9c74:	e3a03018 	mov	r3, #24
    9c78:	e59f0010 	ldr	r0, [pc, #16]	; 9c90 <rdm_set_device_hours+0x20>
    9c7c:	e3a01004 	mov	r1, #4
    9c80:	e5900000 	ldr	r0, [r0]
    9c84:	e5c02017 	strb	r2, [r0, #23]
    9c88:	e5c03002 	strb	r3, [r0, #2]
    9c8c:	eafffd5b 	b	9200 <rdm_send_respond_message_nack>
    9c90:	0001a2e8 	andeq	sl, r1, r8, ror #5

00009c94 <rdm_get_supported_parameters>:
    9c94:	e3a03000 	mov	r3, #0
    9c98:	e59fc0b0 	ldr	ip, [pc, #176]	; 9d50 <rdm_get_supported_parameters+0xbc>
    9c9c:	e1500003 	cmp	r0, r3
    9ca0:	e24c2e12 	sub	r2, ip, #288	; 0x120
    9ca4:	e92d4030 	push	{r4, r5, lr}
    9ca8:	01a0c002 	moveq	ip, r2
    9cac:	13a0e007 	movne	lr, #7
    9cb0:	03a0e012 	moveq	lr, #18
    9cb4:	e1a01003 	mov	r1, r3
    9cb8:	e08c2203 	add	r2, ip, r3, lsl #4
    9cbc:	e5d2000d 	ldrb	r0, [r2, #13]
    9cc0:	e2833001 	add	r3, r3, #1
    9cc4:	e2812001 	add	r2, r1, #1
    9cc8:	e3500000 	cmp	r0, #0
    9ccc:	e6ef3073 	uxtb	r3, r3
    9cd0:	e6ef2072 	uxtb	r2, r2
    9cd4:	11a01002 	movne	r1, r2
    9cd8:	e15e0003 	cmp	lr, r3
    9cdc:	cafffff5 	bgt	9cb8 <rdm_get_supported_parameters+0x24>
    9ce0:	e3a04000 	mov	r4, #0
    9ce4:	e59f3068 	ldr	r3, [pc, #104]	; 9d54 <rdm_get_supported_parameters+0xc0>
    9ce8:	e1a01081 	lsl	r1, r1, #1
    9cec:	e5930000 	ldr	r0, [r3]
    9cf0:	e6ef1071 	uxtb	r1, r1
    9cf4:	e5d03002 	ldrb	r3, [r0, #2]
    9cf8:	e5c01017 	strb	r1, [r0, #23]
    9cfc:	e0811003 	add	r1, r1, r3
    9d00:	e1a03004 	mov	r3, r4
    9d04:	e5c01002 	strb	r1, [r0, #2]
    9d08:	e1a02203 	lsl	r2, r3, #4
    9d0c:	e08c1002 	add	r1, ip, r2
    9d10:	e5d1100d 	ldrb	r1, [r1, #13]
    9d14:	e2833001 	add	r3, r3, #1
    9d18:	e3510000 	cmp	r1, #0
    9d1c:	e6ef3073 	uxtb	r3, r3
    9d20:	0a000006 	beq	9d40 <rdm_get_supported_parameters+0xac>
    9d24:	e19c10b2 	ldrh	r1, [ip, r2]
    9d28:	e0805084 	add	r5, r0, r4, lsl #1
    9d2c:	e1a01421 	lsr	r1, r1, #8
    9d30:	e5c51018 	strb	r1, [r5, #24]
    9d34:	e19c20b2 	ldrh	r2, [ip, r2]
    9d38:	e2844001 	add	r4, r4, #1
    9d3c:	e5c52019 	strb	r2, [r5, #25]
    9d40:	e15e0003 	cmp	lr, r3
    9d44:	caffffef 	bgt	9d08 <rdm_get_supported_parameters+0x74>
    9d48:	e8bd4030 	pop	{r4, r5, lr}
    9d4c:	eafffd28 	b	91f4 <rdm_send_respond_message_ack>
    9d50:	00016a78 	andeq	r6, r1, r8, ror sl
    9d54:	0001a2e8 	andeq	sl, r1, r8, ror #5

00009d58 <rdm_set_reset_device>:
    9d58:	e92d4008 	push	{r3, lr}
    9d5c:	e3a03000 	mov	r3, #0
    9d60:	e59f2018 	ldr	r2, [pc, #24]	; 9d80 <rdm_set_reset_device+0x28>
    9d64:	e1500003 	cmp	r0, r3
    9d68:	e5920000 	ldr	r0, [r2]
    9d6c:	e5c03017 	strb	r3, [r0, #23]
    9d70:	1a000000 	bne	9d78 <rdm_set_reset_device+0x20>
    9d74:	ebfffd1e 	bl	91f4 <rdm_send_respond_message_ack>
    9d78:	e8bd4008 	pop	{r3, lr}
    9d7c:	ea000756 	b	badc <hardware_reboot>
    9d80:	0001a2e8 	andeq	sl, r1, r8, ror #5

00009d84 <rdm_set_identify_device>:
    9d84:	e92d4070 	push	{r4, r5, r6, lr}
    9d88:	e59f5070 	ldr	r5, [pc, #112]	; 9e00 <rdm_set_identify_device+0x7c>
    9d8c:	e5954000 	ldr	r4, [r5]
    9d90:	e5d43017 	ldrb	r3, [r4, #23]
    9d94:	e3530001 	cmp	r3, #1
    9d98:	1a000010 	bne	9de0 <rdm_set_identify_device+0x5c>
    9d9c:	e5d43018 	ldrb	r3, [r4, #24]
    9da0:	e3530001 	cmp	r3, #1
    9da4:	8a000009 	bhi	9dd0 <rdm_set_identify_device+0x4c>
    9da8:	e3530000 	cmp	r3, #0
    9dac:	e1a06000 	mov	r6, r0
    9db0:	0a00000e 	beq	9df0 <rdm_set_identify_device+0x6c>
    9db4:	eb000409 	bl	ade0 <rdm_identify_on>
    9db8:	e3560000 	cmp	r6, #0
    9dbc:	18bd8070 	popne	{r4, r5, r6, pc}
    9dc0:	e5c46017 	strb	r6, [r4, #23]
    9dc4:	e5950000 	ldr	r0, [r5]
    9dc8:	e8bd4070 	pop	{r4, r5, r6, lr}
    9dcc:	eafffd08 	b	91f4 <rdm_send_respond_message_ack>
    9dd0:	e1a00004 	mov	r0, r4
    9dd4:	e8bd4070 	pop	{r4, r5, r6, lr}
    9dd8:	e3a01006 	mov	r1, #6
    9ddc:	eafffd07 	b	9200 <rdm_send_respond_message_nack>
    9de0:	e1a00004 	mov	r0, r4
    9de4:	e8bd4070 	pop	{r4, r5, r6, lr}
    9de8:	e3a01001 	mov	r1, #1
    9dec:	eafffd03 	b	9200 <rdm_send_respond_message_nack>
    9df0:	eb0003f3 	bl	adc4 <rdm_identify_off>
    9df4:	e3560000 	cmp	r6, #0
    9df8:	18bd8070 	popne	{r4, r5, r6, pc}
    9dfc:	eaffffef 	b	9dc0 <rdm_set_identify_device+0x3c>
    9e00:	0001a2e8 	andeq	sl, r1, r8, ror #5

00009e04 <rdm_get_identify_device>:
    9e04:	e92d4038 	push	{r3, r4, r5, lr}
    9e08:	e3a02001 	mov	r2, #1
    9e0c:	e3a03019 	mov	r3, #25
    9e10:	e59f501c 	ldr	r5, [pc, #28]	; 9e34 <rdm_get_identify_device+0x30>
    9e14:	e5954000 	ldr	r4, [r5]
    9e18:	e5c42017 	strb	r2, [r4, #23]
    9e1c:	e5c43002 	strb	r3, [r4, #2]
    9e20:	eb0003e3 	bl	adb4 <rdm_identify_is_enabled>
    9e24:	e5c40018 	strb	r0, [r4, #24]
    9e28:	e5950000 	ldr	r0, [r5]
    9e2c:	e8bd4038 	pop	{r3, r4, r5, lr}
    9e30:	eafffcef 	b	91f4 <rdm_send_respond_message_ack>
    9e34:	0001a2e8 	andeq	sl, r1, r8, ror #5

00009e38 <rdm_set_real_time_clock>:
    9e38:	e92d40f0 	push	{r4, r5, r6, r7, lr}
    9e3c:	e59f5080 	ldr	r5, [pc, #128]	; 9ec4 <rdm_set_real_time_clock+0x8c>
    9e40:	e24dd00c 	sub	sp, sp, #12
    9e44:	e5954000 	ldr	r4, [r5]
    9e48:	e5d43017 	ldrb	r3, [r4, #23]
    9e4c:	e3530007 	cmp	r3, #7
    9e50:	0a000004 	beq	9e68 <rdm_set_real_time_clock+0x30>
    9e54:	e1a00004 	mov	r0, r4
    9e58:	e3a01001 	mov	r1, #1
    9e5c:	ebfffce7 	bl	9200 <rdm_send_respond_message_nack>
    9e60:	e28dd00c 	add	sp, sp, #12
    9e64:	e8bd80f0 	pop	{r4, r5, r6, r7, pc}
    9e68:	e1a06000 	mov	r6, r0
    9e6c:	e5d4201e 	ldrb	r2, [r4, #30]
    9e70:	e28d0008 	add	r0, sp, #8
    9e74:	e5d47018 	ldrb	r7, [r4, #24]
    9e78:	e5d43019 	ldrb	r3, [r4, #25]
    9e7c:	e5602008 	strb	r2, [r0, #-8]!
    9e80:	e5d4e01a 	ldrb	lr, [r4, #26]
    9e84:	e5d4c01b 	ldrb	ip, [r4, #27]
    9e88:	e5d4101c 	ldrb	r1, [r4, #28]
    9e8c:	e5d4201d 	ldrb	r2, [r4, #29]
    9e90:	e0833407 	add	r3, r3, r7, lsl #8
    9e94:	e1cd30b6 	strh	r3, [sp, #6]
    9e98:	e5cde004 	strb	lr, [sp, #4]
    9e9c:	e5cdc003 	strb	ip, [sp, #3]
    9ea0:	e5cd1002 	strb	r1, [sp, #2]
    9ea4:	e5cd2001 	strb	r2, [sp, #1]
    9ea8:	eb0006c8 	bl	b9d0 <hardware_rtc_set>
    9eac:	e3560000 	cmp	r6, #0
    9eb0:	1affffea 	bne	9e60 <rdm_set_real_time_clock+0x28>
    9eb4:	e5c46017 	strb	r6, [r4, #23]
    9eb8:	e5950000 	ldr	r0, [r5]
    9ebc:	ebfffccc 	bl	91f4 <rdm_send_respond_message_ack>
    9ec0:	eaffffe6 	b	9e60 <rdm_set_real_time_clock+0x28>
    9ec4:	0001a2e8 	andeq	sl, r1, r8, ror #5

00009ec8 <rdm_get_real_time_clock>:
    9ec8:	e3a03000 	mov	r3, #0
    9ecc:	e52de004 	push	{lr}		; (str lr, [sp, #-4]!)
    9ed0:	e1a00003 	mov	r0, r3
    9ed4:	e24dd00c 	sub	sp, sp, #12
    9ed8:	e58d3004 	str	r3, [sp, #4]
    9edc:	eb000744 	bl	bbf4 <sys_time>
    9ee0:	e28d3008 	add	r3, sp, #8
    9ee4:	e5230004 	str	r0, [r3, #-4]!
    9ee8:	e1a00003 	mov	r0, r3
    9eec:	eb000cb7 	bl	d1d0 <localtime>
    9ef0:	e3a0101f 	mov	r1, #31
    9ef4:	e1a02000 	mov	r2, r0
    9ef8:	e3a00007 	mov	r0, #7
    9efc:	e59f3058 	ldr	r3, [pc, #88]	; 9f5c <rdm_get_real_time_clock+0x94>
    9f00:	e5933000 	ldr	r3, [r3]
    9f04:	e5c30017 	strb	r0, [r3, #23]
    9f08:	e5c31002 	strb	r1, [r3, #2]
    9f0c:	e5921014 	ldr	r1, [r2, #20]
    9f10:	e1a00003 	mov	r0, r3
    9f14:	e2811e7d 	add	r1, r1, #2000	; 0x7d0
    9f18:	e6ff1071 	uxth	r1, r1
    9f1c:	e1a0c421 	lsr	ip, r1, #8
    9f20:	e5c31019 	strb	r1, [r3, #25]
    9f24:	e5c3c018 	strb	ip, [r3, #24]
    9f28:	e5921010 	ldr	r1, [r2, #16]
    9f2c:	e5c3101a 	strb	r1, [r3, #26]
    9f30:	e592100c 	ldr	r1, [r2, #12]
    9f34:	e5c3101b 	strb	r1, [r3, #27]
    9f38:	e5921008 	ldr	r1, [r2, #8]
    9f3c:	e5c3101c 	strb	r1, [r3, #28]
    9f40:	e5921004 	ldr	r1, [r2, #4]
    9f44:	e5c3101d 	strb	r1, [r3, #29]
    9f48:	e5922000 	ldr	r2, [r2]
    9f4c:	e5c3201e 	strb	r2, [r3, #30]
    9f50:	ebfffca7 	bl	91f4 <rdm_send_respond_message_ack>
    9f54:	e28dd00c 	add	sp, sp, #12
    9f58:	e49df004 	pop	{pc}		; (ldr pc, [sp], #4)
    9f5c:	0001a2e8 	andeq	sl, r1, r8, ror #5

00009f60 <rdm_get_device_hours>:
    9f60:	e92d4038 	push	{r3, r4, r5, lr}
    9f64:	e59f5048 	ldr	r5, [pc, #72]	; 9fb4 <rdm_get_device_hours+0x54>
    9f68:	e5954000 	ldr	r4, [r5]
    9f6c:	eb000629 	bl	b818 <hardware_uptime_seconds>
    9f70:	e3a02ee1 	mov	r2, #3600	; 0xe10
    9f74:	e3a03000 	mov	r3, #0
    9f78:	eb003182 	bl	16588 <__aeabi_uldivmod>
    9f7c:	e3a0e004 	mov	lr, #4
    9f80:	e3a0c01c 	mov	ip, #28
    9f84:	e1a03420 	lsr	r3, r0, #8
    9f88:	e1a01c20 	lsr	r1, r0, #24
    9f8c:	e1a02820 	lsr	r2, r0, #16
    9f90:	e5c4001b 	strb	r0, [r4, #27]
    9f94:	e5c4e017 	strb	lr, [r4, #23]
    9f98:	e5c4c002 	strb	ip, [r4, #2]
    9f9c:	e5c41018 	strb	r1, [r4, #24]
    9fa0:	e5c42019 	strb	r2, [r4, #25]
    9fa4:	e5c4301a 	strb	r3, [r4, #26]
    9fa8:	e5950000 	ldr	r0, [r5]
    9fac:	e8bd4038 	pop	{r3, r4, r5, lr}
    9fb0:	eafffc8f 	b	91f4 <rdm_send_respond_message_ack>
    9fb4:	0001a2e8 	andeq	sl, r1, r8, ror #5

00009fb8 <rdm_set_dmx_start_address>:
    9fb8:	e92d4070 	push	{r4, r5, r6, lr}
    9fbc:	e59f5070 	ldr	r5, [pc, #112]	; a034 <rdm_set_dmx_start_address+0x7c>
    9fc0:	e5954000 	ldr	r4, [r5]
    9fc4:	e5d43017 	ldrb	r3, [r4, #23]
    9fc8:	e3530002 	cmp	r3, #2
    9fcc:	1a000014 	bne	a024 <rdm_set_dmx_start_address+0x6c>
    9fd0:	e5d42018 	ldrb	r2, [r4, #24]
    9fd4:	e5d43019 	ldrb	r3, [r4, #25]
    9fd8:	e0833402 	add	r3, r3, r2, lsl #8
    9fdc:	e6ff3073 	uxth	r3, r3
    9fe0:	e2432001 	sub	r2, r3, #1
    9fe4:	e3520c02 	cmp	r2, #512	; 0x200
    9fe8:	2a000009 	bcs	a014 <rdm_set_dmx_start_address+0x5c>
    9fec:	e1a06000 	mov	r6, r0
    9ff0:	e1a00001 	mov	r0, r1
    9ff4:	e1a01003 	mov	r1, r3
    9ff8:	ebfffb1a 	bl	8c68 <rdm_device_info_set_dmx_start_address>
    9ffc:	e3560000 	cmp	r6, #0
    a000:	18bd8070 	popne	{r4, r5, r6, pc}
    a004:	e5c46017 	strb	r6, [r4, #23]
    a008:	e5950000 	ldr	r0, [r5]
    a00c:	e8bd4070 	pop	{r4, r5, r6, lr}
    a010:	eafffc77 	b	91f4 <rdm_send_respond_message_ack>
    a014:	e1a00004 	mov	r0, r4
    a018:	e8bd4070 	pop	{r4, r5, r6, lr}
    a01c:	e3a01006 	mov	r1, #6
    a020:	eafffc76 	b	9200 <rdm_send_respond_message_nack>
    a024:	e1a00004 	mov	r0, r4
    a028:	e8bd4070 	pop	{r4, r5, r6, lr}
    a02c:	e3a01001 	mov	r1, #1
    a030:	eafffc72 	b	9200 <rdm_send_respond_message_nack>
    a034:	0001a2e8 	andeq	sl, r1, r8, ror #5

0000a038 <rdm_get_dmx_start_address>:
    a038:	e92d4038 	push	{r3, r4, r5, lr}
    a03c:	e59f502c 	ldr	r5, [pc, #44]	; a070 <rdm_get_dmx_start_address+0x38>
    a040:	e5954000 	ldr	r4, [r5]
    a044:	ebfffafd 	bl	8c40 <rdm_device_info_get_dmx_start_address>
    a048:	e3a0301a 	mov	r3, #26
    a04c:	e3a02002 	mov	r2, #2
    a050:	e1a01420 	lsr	r1, r0, #8
    a054:	e5c40019 	strb	r0, [r4, #25]
    a058:	e5c41018 	strb	r1, [r4, #24]
    a05c:	e5c42017 	strb	r2, [r4, #23]
    a060:	e5c43002 	strb	r3, [r4, #2]
    a064:	e5950000 	ldr	r0, [r5]
    a068:	e8bd4038 	pop	{r3, r4, r5, lr}
    a06c:	eafffc60 	b	91f4 <rdm_send_respond_message_ack>
    a070:	0001a2e8 	andeq	sl, r1, r8, ror #5

0000a074 <rdm_get_personality_description>:
    a074:	e92d41f0 	push	{r4, r5, r6, r7, r8, lr}
    a078:	e59f51d4 	ldr	r5, [pc, #468]	; a254 <rdm_get_personality_description+0x1e0>
    a07c:	e1a07000 	mov	r7, r0
    a080:	e5956000 	ldr	r6, [r5]
    a084:	e5d64018 	ldrb	r4, [r6, #24]
    a088:	ebfffb03 	bl	8c9c <rdm_device_info_get_personality_count>
    a08c:	e16f3f14 	clz	r3, r4
    a090:	e1a032a3 	lsr	r3, r3, #5
    a094:	e1540000 	cmp	r4, r0
    a098:	91a00003 	movls	r0, r3
    a09c:	83830001 	orrhi	r0, r3, #1
    a0a0:	e3500000 	cmp	r0, #0
    a0a4:	1a00005b 	bne	a218 <rdm_get_personality_description+0x1a4>
    a0a8:	e1a01004 	mov	r1, r4
    a0ac:	e1a00007 	mov	r0, r7
    a0b0:	ebfffb13 	bl	8d04 <rdm_device_info_get_personality_slots>
    a0b4:	e1a01004 	mov	r1, r4
    a0b8:	e1a08000 	mov	r8, r0
    a0bc:	e1a00007 	mov	r0, r7
    a0c0:	ebfffb05 	bl	8cdc <rdm_device_info_get_personality_description>
    a0c4:	e1a04000 	mov	r4, r0
    a0c8:	eb00123d 	bl	e9c4 <strlen>
    a0cc:	e6ef0070 	uxtb	r0, r0
    a0d0:	e3500020 	cmp	r0, #32
    a0d4:	31a0e000 	movcc	lr, r0
    a0d8:	23a0e020 	movcs	lr, #32
    a0dc:	e1a03428 	lsr	r3, r8, #8
    a0e0:	e35e0000 	cmp	lr, #0
    a0e4:	e5c6801a 	strb	r8, [r6, #26]
    a0e8:	e5c63019 	strb	r3, [r6, #25]
    a0ec:	0a000042 	beq	a1fc <rdm_get_personality_description+0x188>
    a0f0:	e2843004 	add	r3, r4, #4
    a0f4:	e286201b 	add	r2, r6, #27
    a0f8:	e286101f 	add	r1, r6, #31
    a0fc:	e1540001 	cmp	r4, r1
    a100:	31520003 	cmpcc	r2, r3
    a104:	23a03001 	movcs	r3, #1
    a108:	33a03000 	movcc	r3, #0
    a10c:	e1842002 	orr	r2, r4, r2
    a110:	e35e0009 	cmp	lr, #9
    a114:	93a03000 	movls	r3, #0
    a118:	82033001 	andhi	r3, r3, #1
    a11c:	e3120003 	tst	r2, #3
    a120:	13a03000 	movne	r3, #0
    a124:	02033001 	andeq	r3, r3, #1
    a128:	e3530000 	cmp	r3, #0
    a12c:	0a00003d 	beq	a228 <rdm_get_personality_description+0x1b4>
    a130:	e5942000 	ldr	r2, [r4]
    a134:	e24e3004 	sub	r3, lr, #4
    a138:	e6ef3073 	uxtb	r3, r3
    a13c:	e586201b 	str	r2, [r6, #27]
    a140:	e1a03123 	lsr	r3, r3, #2
    a144:	e2833001 	add	r3, r3, #1
    a148:	e5941004 	ldr	r1, [r4, #4]
    a14c:	e1a02103 	lsl	r2, r3, #2
    a150:	e3530002 	cmp	r3, #2
    a154:	e6ef2072 	uxtb	r2, r2
    a158:	e586101f 	str	r1, [r6, #31]
    a15c:	0a000014 	beq	a1b4 <rdm_get_personality_description+0x140>
    a160:	e5941008 	ldr	r1, [r4, #8]
    a164:	e3530003 	cmp	r3, #3
    a168:	e5861023 	str	r1, [r6, #35]	; 0x23
    a16c:	0a000010 	beq	a1b4 <rdm_get_personality_description+0x140>
    a170:	e594100c 	ldr	r1, [r4, #12]
    a174:	e3530004 	cmp	r3, #4
    a178:	e5861027 	str	r1, [r6, #39]	; 0x27
    a17c:	0a00000c 	beq	a1b4 <rdm_get_personality_description+0x140>
    a180:	e5941010 	ldr	r1, [r4, #16]
    a184:	e3530005 	cmp	r3, #5
    a188:	e586102b 	str	r1, [r6, #43]	; 0x2b
    a18c:	0a000008 	beq	a1b4 <rdm_get_personality_description+0x140>
    a190:	e5941014 	ldr	r1, [r4, #20]
    a194:	e3530006 	cmp	r3, #6
    a198:	e586102f 	str	r1, [r6, #47]	; 0x2f
    a19c:	0a000004 	beq	a1b4 <rdm_get_personality_description+0x140>
    a1a0:	e5941018 	ldr	r1, [r4, #24]
    a1a4:	e3530008 	cmp	r3, #8
    a1a8:	e5861033 	str	r1, [r6, #51]	; 0x33
    a1ac:	0594301c 	ldreq	r3, [r4, #28]
    a1b0:	05863037 	streq	r3, [r6, #55]	; 0x37
    a1b4:	e15e0002 	cmp	lr, r2
    a1b8:	0a00000f 	beq	a1fc <rdm_get_personality_description+0x188>
    a1bc:	e2821001 	add	r1, r2, #1
    a1c0:	e6ef1071 	uxtb	r1, r1
    a1c4:	e7d40002 	ldrb	r0, [r4, r2]
    a1c8:	e0863002 	add	r3, r6, r2
    a1cc:	e15e0001 	cmp	lr, r1
    a1d0:	e5c3001b 	strb	r0, [r3, #27]
    a1d4:	9a000008 	bls	a1fc <rdm_get_personality_description+0x188>
    a1d8:	e2823002 	add	r3, r2, #2
    a1dc:	e6ef3073 	uxtb	r3, r3
    a1e0:	e7d42001 	ldrb	r2, [r4, r1]
    a1e4:	e15e0003 	cmp	lr, r3
    a1e8:	e0861001 	add	r1, r6, r1
    a1ec:	e5c1201b 	strb	r2, [r1, #27]
    a1f0:	87d42003 	ldrbhi	r2, [r4, r3]
    a1f4:	80863003 	addhi	r3, r6, r3
    a1f8:	85c3201b 	strbhi	r2, [r3, #27]
    a1fc:	e28e3003 	add	r3, lr, #3
    a200:	e28ee01b 	add	lr, lr, #27
    a204:	e5c63017 	strb	r3, [r6, #23]
    a208:	e5c6e002 	strb	lr, [r6, #2]
    a20c:	e5950000 	ldr	r0, [r5]
    a210:	e8bd41f0 	pop	{r4, r5, r6, r7, r8, lr}
    a214:	eafffbf6 	b	91f4 <rdm_send_respond_message_ack>
    a218:	e5950000 	ldr	r0, [r5]
    a21c:	e3a01006 	mov	r1, #6
    a220:	e8bd41f0 	pop	{r4, r5, r6, r7, r8, lr}
    a224:	eafffbf5 	b	9200 <rdm_send_respond_message_nack>
    a228:	e24ec001 	sub	ip, lr, #1
    a22c:	e6efc07c 	uxtb	ip, ip
    a230:	e28cc01b 	add	ip, ip, #27
    a234:	e2442001 	sub	r2, r4, #1
    a238:	e086c00c 	add	ip, r6, ip
    a23c:	e286301a 	add	r3, r6, #26
    a240:	e5f21001 	ldrb	r1, [r2, #1]!
    a244:	e5e31001 	strb	r1, [r3, #1]!
    a248:	e153000c 	cmp	r3, ip
    a24c:	1afffffb 	bne	a240 <rdm_get_personality_description+0x1cc>
    a250:	eaffffe9 	b	a1fc <rdm_get_personality_description+0x188>
    a254:	0001a2e8 	andeq	sl, r1, r8, ror #5

0000a258 <rdm_get_personality>:
    a258:	e92d40f8 	push	{r3, r4, r5, r6, r7, lr}
    a25c:	e59f503c 	ldr	r5, [pc, #60]	; a2a0 <rdm_get_personality+0x48>
    a260:	e1a07000 	mov	r7, r0
    a264:	e5954000 	ldr	r4, [r5]
    a268:	ebfffa8d 	bl	8ca4 <rdm_device_info_get_personality_current>
    a26c:	e1a06000 	mov	r6, r0
    a270:	e1a00007 	mov	r0, r7
    a274:	ebfffa88 	bl	8c9c <rdm_device_info_get_personality_count>
    a278:	e3a02002 	mov	r2, #2
    a27c:	e5d43002 	ldrb	r3, [r4, #2]
    a280:	e5c40019 	strb	r0, [r4, #25]
    a284:	e0833002 	add	r3, r3, r2
    a288:	e5c46018 	strb	r6, [r4, #24]
    a28c:	e5c42017 	strb	r2, [r4, #23]
    a290:	e5c43002 	strb	r3, [r4, #2]
    a294:	e5950000 	ldr	r0, [r5]
    a298:	e8bd40f8 	pop	{r3, r4, r5, r6, r7, lr}
    a29c:	eafffbd4 	b	91f4 <rdm_send_respond_message_ack>
    a2a0:	0001a2e8 	andeq	sl, r1, r8, ror #5

0000a2a4 <rdm_get_boot_software_version_id>:
    a2a4:	e92d4038 	push	{r3, r4, r5, lr}
    a2a8:	e59f5058 	ldr	r5, [pc, #88]	; a308 <rdm_get_boot_software_version_id+0x64>
    a2ac:	e5954000 	ldr	r4, [r5]
    a2b0:	e5d43017 	ldrb	r3, [r4, #23]
    a2b4:	e3530000 	cmp	r3, #0
    a2b8:	1a00000e 	bne	a2f8 <rdm_get_boot_software_version_id+0x54>
    a2bc:	eb000569 	bl	b868 <hardware_get_firmware_revision>
    a2c0:	e3a0301c 	mov	r3, #28
    a2c4:	e3a02004 	mov	r2, #4
    a2c8:	e1a0ec20 	lsr	lr, r0, #24
    a2cc:	e1a0c820 	lsr	ip, r0, #16
    a2d0:	e1a01420 	lsr	r1, r0, #8
    a2d4:	e5c4001b 	strb	r0, [r4, #27]
    a2d8:	e5c4e018 	strb	lr, [r4, #24]
    a2dc:	e5c4c019 	strb	ip, [r4, #25]
    a2e0:	e5c4101a 	strb	r1, [r4, #26]
    a2e4:	e5c42017 	strb	r2, [r4, #23]
    a2e8:	e5c43002 	strb	r3, [r4, #2]
    a2ec:	e5950000 	ldr	r0, [r5]
    a2f0:	e8bd4038 	pop	{r3, r4, r5, lr}
    a2f4:	eafffbbe 	b	91f4 <rdm_send_respond_message_ack>
    a2f8:	e1a00004 	mov	r0, r4
    a2fc:	e8bd4038 	pop	{r3, r4, r5, lr}
    a300:	e3a01001 	mov	r1, #1
    a304:	eafffbbd 	b	9200 <rdm_send_respond_message_nack>
    a308:	0001a2e8 	andeq	sl, r1, r8, ror #5

0000a30c <rdm_get_software_version_label>:
    a30c:	e92d40f8 	push	{r3, r4, r5, r6, r7, lr}
    a310:	ebfffa3b 	bl	8c04 <rdm_device_info_get_software_version>
    a314:	e1a04000 	mov	r4, r0
    a318:	ebfffa3c 	bl	8c10 <rdm_device_info_get_software_version_length>
    a31c:	e1a02000 	mov	r2, r0
    a320:	e59f310c 	ldr	r3, [pc, #268]	; a434 <rdm_get_software_version_label+0x128>
    a324:	e3500000 	cmp	r0, #0
    a328:	e5930000 	ldr	r0, [r3]
    a32c:	e2823018 	add	r3, r2, #24
    a330:	e5c03002 	strb	r3, [r0, #2]
    a334:	e5c02017 	strb	r2, [r0, #23]
    a338:	0a00002f 	beq	a3fc <rdm_get_software_version_label+0xf0>
    a33c:	e2843004 	add	r3, r4, #4
    a340:	e2801018 	add	r1, r0, #24
    a344:	e280c01c 	add	ip, r0, #28
    a348:	e154000c 	cmp	r4, ip
    a34c:	31510003 	cmpcc	r1, r3
    a350:	23a03001 	movcs	r3, #1
    a354:	33a03000 	movcc	r3, #0
    a358:	e184c001 	orr	ip, r4, r1
    a35c:	e3520009 	cmp	r2, #9
    a360:	93a03000 	movls	r3, #0
    a364:	82033001 	andhi	r3, r3, #1
    a368:	e31c0003 	tst	ip, #3
    a36c:	13a03000 	movne	r3, #0
    a370:	02033001 	andeq	r3, r3, #1
    a374:	e3530000 	cmp	r3, #0
    a378:	0a000021 	beq	a404 <rdm_get_software_version_label+0xf8>
    a37c:	e3a03000 	mov	r3, #0
    a380:	e2426004 	sub	r6, r2, #4
    a384:	e6ef6076 	uxtb	r6, r6
    a388:	e1a06126 	lsr	r6, r6, #2
    a38c:	e2866001 	add	r6, r6, #1
    a390:	e1a07106 	lsl	r7, r6, #2
    a394:	e6ef7077 	uxtb	r7, r7
    a398:	e244c004 	sub	ip, r4, #4
    a39c:	e2833001 	add	r3, r3, #1
    a3a0:	e6ef5073 	uxtb	r5, r3
    a3a4:	e5bce004 	ldr	lr, [ip, #4]!
    a3a8:	e1560005 	cmp	r6, r5
    a3ac:	e481e004 	str	lr, [r1], #4
    a3b0:	8afffff9 	bhi	a39c <rdm_get_software_version_label+0x90>
    a3b4:	e1520007 	cmp	r2, r7
    a3b8:	0a00000f 	beq	a3fc <rdm_get_software_version_label+0xf0>
    a3bc:	e2871001 	add	r1, r7, #1
    a3c0:	e6ef1071 	uxtb	r1, r1
    a3c4:	e7d4c007 	ldrb	ip, [r4, r7]
    a3c8:	e0803007 	add	r3, r0, r7
    a3cc:	e1520001 	cmp	r2, r1
    a3d0:	e5c3c018 	strb	ip, [r3, #24]
    a3d4:	9a000008 	bls	a3fc <rdm_get_software_version_label+0xf0>
    a3d8:	e2873002 	add	r3, r7, #2
    a3dc:	e7d4c001 	ldrb	ip, [r4, r1]
    a3e0:	e6ef3073 	uxtb	r3, r3
    a3e4:	e0801001 	add	r1, r0, r1
    a3e8:	e1520003 	cmp	r2, r3
    a3ec:	e5c1c018 	strb	ip, [r1, #24]
    a3f0:	87d42003 	ldrbhi	r2, [r4, r3]
    a3f4:	80803003 	addhi	r3, r0, r3
    a3f8:	85c32018 	strbhi	r2, [r3, #24]
    a3fc:	e8bd40f8 	pop	{r3, r4, r5, r6, r7, lr}
    a400:	eafffb7b 	b	91f4 <rdm_send_respond_message_ack>
    a404:	e242c001 	sub	ip, r2, #1
    a408:	e6efc07c 	uxtb	ip, ip
    a40c:	e28cc018 	add	ip, ip, #24
    a410:	e080c00c 	add	ip, r0, ip
    a414:	e2442001 	sub	r2, r4, #1
    a418:	e2803017 	add	r3, r0, #23
    a41c:	e5f21001 	ldrb	r1, [r2, #1]!
    a420:	e5e31001 	strb	r1, [r3, #1]!
    a424:	e153000c 	cmp	r3, ip
    a428:	1afffffb 	bne	a41c <rdm_get_software_version_label+0x110>
    a42c:	e8bd40f8 	pop	{r3, r4, r5, r6, r7, lr}
    a430:	eafffb6f 	b	91f4 <rdm_send_respond_message_ack>
    a434:	0001a2e8 	andeq	sl, r1, r8, ror #5

0000a438 <rdm_get_language>:
    a438:	e92d40f8 	push	{r3, r4, r5, r6, r7, lr}
    a43c:	ebfff9e8 	bl	8be4 <rdm_device_info_get_supported_language>
    a440:	e1a04000 	mov	r4, r0
    a444:	ebfff9e9 	bl	8bf0 <rdm_device_info_get_supported_language_length>
    a448:	e1a02000 	mov	r2, r0
    a44c:	e59f310c 	ldr	r3, [pc, #268]	; a560 <rdm_get_language+0x128>
    a450:	e3500000 	cmp	r0, #0
    a454:	e5930000 	ldr	r0, [r3]
    a458:	e2823018 	add	r3, r2, #24
    a45c:	e5c03002 	strb	r3, [r0, #2]
    a460:	e5c02017 	strb	r2, [r0, #23]
    a464:	0a00002f 	beq	a528 <rdm_get_language+0xf0>
    a468:	e2843004 	add	r3, r4, #4
    a46c:	e2801018 	add	r1, r0, #24
    a470:	e280c01c 	add	ip, r0, #28
    a474:	e154000c 	cmp	r4, ip
    a478:	31510003 	cmpcc	r1, r3
    a47c:	23a03001 	movcs	r3, #1
    a480:	33a03000 	movcc	r3, #0
    a484:	e184c001 	orr	ip, r4, r1
    a488:	e3520009 	cmp	r2, #9
    a48c:	93a03000 	movls	r3, #0
    a490:	82033001 	andhi	r3, r3, #1
    a494:	e31c0003 	tst	ip, #3
    a498:	13a03000 	movne	r3, #0
    a49c:	02033001 	andeq	r3, r3, #1
    a4a0:	e3530000 	cmp	r3, #0
    a4a4:	0a000021 	beq	a530 <rdm_get_language+0xf8>
    a4a8:	e3a03000 	mov	r3, #0
    a4ac:	e2426004 	sub	r6, r2, #4
    a4b0:	e6ef6076 	uxtb	r6, r6
    a4b4:	e1a06126 	lsr	r6, r6, #2
    a4b8:	e2866001 	add	r6, r6, #1
    a4bc:	e1a07106 	lsl	r7, r6, #2
    a4c0:	e6ef7077 	uxtb	r7, r7
    a4c4:	e244c004 	sub	ip, r4, #4
    a4c8:	e2833001 	add	r3, r3, #1
    a4cc:	e6ef5073 	uxtb	r5, r3
    a4d0:	e5bce004 	ldr	lr, [ip, #4]!
    a4d4:	e1560005 	cmp	r6, r5
    a4d8:	e481e004 	str	lr, [r1], #4
    a4dc:	8afffff9 	bhi	a4c8 <rdm_get_language+0x90>
    a4e0:	e1520007 	cmp	r2, r7
    a4e4:	0a00000f 	beq	a528 <rdm_get_language+0xf0>
    a4e8:	e2871001 	add	r1, r7, #1
    a4ec:	e6ef1071 	uxtb	r1, r1
    a4f0:	e7d4c007 	ldrb	ip, [r4, r7]
    a4f4:	e0803007 	add	r3, r0, r7
    a4f8:	e1520001 	cmp	r2, r1
    a4fc:	e5c3c018 	strb	ip, [r3, #24]
    a500:	9a000008 	bls	a528 <rdm_get_language+0xf0>
    a504:	e2873002 	add	r3, r7, #2
    a508:	e7d4c001 	ldrb	ip, [r4, r1]
    a50c:	e6ef3073 	uxtb	r3, r3
    a510:	e0801001 	add	r1, r0, r1
    a514:	e1520003 	cmp	r2, r3
    a518:	e5c1c018 	strb	ip, [r1, #24]
    a51c:	87d42003 	ldrbhi	r2, [r4, r3]
    a520:	80803003 	addhi	r3, r0, r3
    a524:	85c32018 	strbhi	r2, [r3, #24]
    a528:	e8bd40f8 	pop	{r3, r4, r5, r6, r7, lr}
    a52c:	eafffb30 	b	91f4 <rdm_send_respond_message_ack>
    a530:	e242c001 	sub	ip, r2, #1
    a534:	e6efc07c 	uxtb	ip, ip
    a538:	e28cc018 	add	ip, ip, #24
    a53c:	e080c00c 	add	ip, r0, ip
    a540:	e2442001 	sub	r2, r4, #1
    a544:	e2803017 	add	r3, r0, #23
    a548:	e5f21001 	ldrb	r1, [r2, #1]!
    a54c:	e5e31001 	strb	r1, [r3, #1]!
    a550:	e153000c 	cmp	r3, ip
    a554:	1afffffb 	bne	a548 <rdm_get_language+0x110>
    a558:	e8bd40f8 	pop	{r3, r4, r5, r6, r7, lr}
    a55c:	eafffb24 	b	91f4 <rdm_send_respond_message_ack>
    a560:	0001a2e8 	andeq	sl, r1, r8, ror #5

0000a564 <rdm_get_factory_defaults>:
    a564:	e92d4038 	push	{r3, r4, r5, lr}
    a568:	e59f5040 	ldr	r5, [pc, #64]	; a5b0 <rdm_get_factory_defaults+0x4c>
    a56c:	e5954000 	ldr	r4, [r5]
    a570:	e5d43017 	ldrb	r3, [r4, #23]
    a574:	e3530000 	cmp	r3, #0
    a578:	1a000008 	bne	a5a0 <rdm_get_factory_defaults+0x3c>
    a57c:	e3a03019 	mov	r3, #25
    a580:	e3a02001 	mov	r2, #1
    a584:	e5c43002 	strb	r3, [r4, #2]
    a588:	e5c42017 	strb	r2, [r4, #23]
    a58c:	ebfff948 	bl	8ab4 <rdm_device_info_get_is_factory_defaults>
    a590:	e5c40018 	strb	r0, [r4, #24]
    a594:	e5950000 	ldr	r0, [r5]
    a598:	e8bd4038 	pop	{r3, r4, r5, lr}
    a59c:	eafffb14 	b	91f4 <rdm_send_respond_message_ack>
    a5a0:	e1a00004 	mov	r0, r4
    a5a4:	e8bd4038 	pop	{r3, r4, r5, lr}
    a5a8:	e3a01001 	mov	r1, #1
    a5ac:	eafffb13 	b	9200 <rdm_send_respond_message_nack>
    a5b0:	0001a2e8 	andeq	sl, r1, r8, ror #5

0000a5b4 <rdm_set_device_label>:
    a5b4:	e92d4070 	push	{r4, r5, r6, lr}
    a5b8:	e59f504c 	ldr	r5, [pc, #76]	; a60c <rdm_set_device_label+0x58>
    a5bc:	e5954000 	ldr	r4, [r5]
    a5c0:	e5d42017 	ldrb	r2, [r4, #23]
    a5c4:	e3520020 	cmp	r2, #32
    a5c8:	8a00000b 	bhi	a5fc <rdm_set_device_label+0x48>
    a5cc:	e1a06000 	mov	r6, r0
    a5d0:	e1a00001 	mov	r0, r1
    a5d4:	e2841018 	add	r1, r4, #24
    a5d8:	ebfff960 	bl	8b60 <rdm_device_info_set_label>
    a5dc:	e3560000 	cmp	r6, #0
    a5e0:	18bd8070 	popne	{r4, r5, r6, pc}
    a5e4:	e3a03018 	mov	r3, #24
    a5e8:	e5c46017 	strb	r6, [r4, #23]
    a5ec:	e5c43002 	strb	r3, [r4, #2]
    a5f0:	e5950000 	ldr	r0, [r5]
    a5f4:	e8bd4070 	pop	{r4, r5, r6, lr}
    a5f8:	eafffafd 	b	91f4 <rdm_send_respond_message_ack>
    a5fc:	e1a00004 	mov	r0, r4
    a600:	e8bd4070 	pop	{r4, r5, r6, lr}
    a604:	e3a01001 	mov	r1, #1
    a608:	eafffafc 	b	9200 <rdm_send_respond_message_nack>
    a60c:	0001a2e8 	andeq	sl, r1, r8, ror #5

0000a610 <rdm_get_device_label>:
    a610:	e92d40f8 	push	{r3, r4, r5, r6, r7, lr}
    a614:	e1a05000 	mov	r5, r0
    a618:	ebfff94a 	bl	8b48 <rdm_device_info_get_label>
    a61c:	e1a04000 	mov	r4, r0
    a620:	e1a00005 	mov	r0, r5
    a624:	ebfff95d 	bl	8ba0 <rdm_device_info_get_label_length>
    a628:	e1a02000 	mov	r2, r0
    a62c:	e59f310c 	ldr	r3, [pc, #268]	; a740 <rdm_get_device_label+0x130>
    a630:	e3500000 	cmp	r0, #0
    a634:	e5930000 	ldr	r0, [r3]
    a638:	e2823018 	add	r3, r2, #24
    a63c:	e5c03002 	strb	r3, [r0, #2]
    a640:	e5c02017 	strb	r2, [r0, #23]
    a644:	0a00002f 	beq	a708 <rdm_get_device_label+0xf8>
    a648:	e2843004 	add	r3, r4, #4
    a64c:	e2801018 	add	r1, r0, #24
    a650:	e280c01c 	add	ip, r0, #28
    a654:	e154000c 	cmp	r4, ip
    a658:	31510003 	cmpcc	r1, r3
    a65c:	23a03001 	movcs	r3, #1
    a660:	33a03000 	movcc	r3, #0
    a664:	e184c001 	orr	ip, r4, r1
    a668:	e3520009 	cmp	r2, #9
    a66c:	93a03000 	movls	r3, #0
    a670:	82033001 	andhi	r3, r3, #1
    a674:	e31c0003 	tst	ip, #3
    a678:	13a03000 	movne	r3, #0
    a67c:	02033001 	andeq	r3, r3, #1
    a680:	e3530000 	cmp	r3, #0
    a684:	0a000021 	beq	a710 <rdm_get_device_label+0x100>
    a688:	e3a03000 	mov	r3, #0
    a68c:	e2426004 	sub	r6, r2, #4
    a690:	e6ef6076 	uxtb	r6, r6
    a694:	e1a06126 	lsr	r6, r6, #2
    a698:	e2866001 	add	r6, r6, #1
    a69c:	e1a07106 	lsl	r7, r6, #2
    a6a0:	e6ef7077 	uxtb	r7, r7
    a6a4:	e244c004 	sub	ip, r4, #4
    a6a8:	e2833001 	add	r3, r3, #1
    a6ac:	e6ef5073 	uxtb	r5, r3
    a6b0:	e5bce004 	ldr	lr, [ip, #4]!
    a6b4:	e1560005 	cmp	r6, r5
    a6b8:	e481e004 	str	lr, [r1], #4
    a6bc:	8afffff9 	bhi	a6a8 <rdm_get_device_label+0x98>
    a6c0:	e1520007 	cmp	r2, r7
    a6c4:	0a00000f 	beq	a708 <rdm_get_device_label+0xf8>
    a6c8:	e2871001 	add	r1, r7, #1
    a6cc:	e6ef1071 	uxtb	r1, r1
    a6d0:	e7d4c007 	ldrb	ip, [r4, r7]
    a6d4:	e0803007 	add	r3, r0, r7
    a6d8:	e1520001 	cmp	r2, r1
    a6dc:	e5c3c018 	strb	ip, [r3, #24]
    a6e0:	9a000008 	bls	a708 <rdm_get_device_label+0xf8>
    a6e4:	e2873002 	add	r3, r7, #2
    a6e8:	e7d4c001 	ldrb	ip, [r4, r1]
    a6ec:	e6ef3073 	uxtb	r3, r3
    a6f0:	e0801001 	add	r1, r0, r1
    a6f4:	e1520003 	cmp	r2, r3
    a6f8:	e5c1c018 	strb	ip, [r1, #24]
    a6fc:	87d42003 	ldrbhi	r2, [r4, r3]
    a700:	80803003 	addhi	r3, r0, r3
    a704:	85c32018 	strbhi	r2, [r3, #24]
    a708:	e8bd40f8 	pop	{r3, r4, r5, r6, r7, lr}
    a70c:	eafffab8 	b	91f4 <rdm_send_respond_message_ack>
    a710:	e242c001 	sub	ip, r2, #1
    a714:	e6efc07c 	uxtb	ip, ip
    a718:	e28cc018 	add	ip, ip, #24
    a71c:	e080c00c 	add	ip, r0, ip
    a720:	e2442001 	sub	r2, r4, #1
    a724:	e2803017 	add	r3, r0, #23
    a728:	e5f21001 	ldrb	r1, [r2, #1]!
    a72c:	e5e31001 	strb	r1, [r3, #1]!
    a730:	e153000c 	cmp	r3, ip
    a734:	1afffffb 	bne	a728 <rdm_get_device_label+0x118>
    a738:	e8bd40f8 	pop	{r3, r4, r5, r6, r7, lr}
    a73c:	eafffaac 	b	91f4 <rdm_send_respond_message_ack>
    a740:	0001a2e8 	andeq	sl, r1, r8, ror #5

0000a744 <rdm_get_manufacturer_label>:
    a744:	e92d40f8 	push	{r3, r4, r5, r6, r7, lr}
    a748:	ebfff91b 	bl	8bbc <rdm_device_info_get_manufacturer_name>
    a74c:	e1a04000 	mov	r4, r0
    a750:	ebfff91c 	bl	8bc8 <rdm_device_info_get_manufacturer_name_length>
    a754:	e1a02000 	mov	r2, r0
    a758:	e59f310c 	ldr	r3, [pc, #268]	; a86c <rdm_get_manufacturer_label+0x128>
    a75c:	e3500000 	cmp	r0, #0
    a760:	e5930000 	ldr	r0, [r3]
    a764:	e2823018 	add	r3, r2, #24
    a768:	e5c03002 	strb	r3, [r0, #2]
    a76c:	e5c02017 	strb	r2, [r0, #23]
    a770:	0a00002f 	beq	a834 <rdm_get_manufacturer_label+0xf0>
    a774:	e2843004 	add	r3, r4, #4
    a778:	e2801018 	add	r1, r0, #24
    a77c:	e280c01c 	add	ip, r0, #28
    a780:	e154000c 	cmp	r4, ip
    a784:	31510003 	cmpcc	r1, r3
    a788:	23a03001 	movcs	r3, #1
    a78c:	33a03000 	movcc	r3, #0
    a790:	e184c001 	orr	ip, r4, r1
    a794:	e3520009 	cmp	r2, #9
    a798:	93a03000 	movls	r3, #0
    a79c:	82033001 	andhi	r3, r3, #1
    a7a0:	e31c0003 	tst	ip, #3
    a7a4:	13a03000 	movne	r3, #0
    a7a8:	02033001 	andeq	r3, r3, #1
    a7ac:	e3530000 	cmp	r3, #0
    a7b0:	0a000021 	beq	a83c <rdm_get_manufacturer_label+0xf8>
    a7b4:	e3a03000 	mov	r3, #0
    a7b8:	e2426004 	sub	r6, r2, #4
    a7bc:	e6ef6076 	uxtb	r6, r6
    a7c0:	e1a06126 	lsr	r6, r6, #2
    a7c4:	e2866001 	add	r6, r6, #1
    a7c8:	e1a07106 	lsl	r7, r6, #2
    a7cc:	e6ef7077 	uxtb	r7, r7
    a7d0:	e244c004 	sub	ip, r4, #4
    a7d4:	e2833001 	add	r3, r3, #1
    a7d8:	e6ef5073 	uxtb	r5, r3
    a7dc:	e5bce004 	ldr	lr, [ip, #4]!
    a7e0:	e1560005 	cmp	r6, r5
    a7e4:	e481e004 	str	lr, [r1], #4
    a7e8:	8afffff9 	bhi	a7d4 <rdm_get_manufacturer_label+0x90>
    a7ec:	e1520007 	cmp	r2, r7
    a7f0:	0a00000f 	beq	a834 <rdm_get_manufacturer_label+0xf0>
    a7f4:	e2871001 	add	r1, r7, #1
    a7f8:	e6ef1071 	uxtb	r1, r1
    a7fc:	e7d4c007 	ldrb	ip, [r4, r7]
    a800:	e0803007 	add	r3, r0, r7
    a804:	e1520001 	cmp	r2, r1
    a808:	e5c3c018 	strb	ip, [r3, #24]
    a80c:	9a000008 	bls	a834 <rdm_get_manufacturer_label+0xf0>
    a810:	e2873002 	add	r3, r7, #2
    a814:	e7d4c001 	ldrb	ip, [r4, r1]
    a818:	e6ef3073 	uxtb	r3, r3
    a81c:	e0801001 	add	r1, r0, r1
    a820:	e1520003 	cmp	r2, r3
    a824:	e5c1c018 	strb	ip, [r1, #24]
    a828:	87d42003 	ldrbhi	r2, [r4, r3]
    a82c:	80803003 	addhi	r3, r0, r3
    a830:	85c32018 	strbhi	r2, [r3, #24]
    a834:	e8bd40f8 	pop	{r3, r4, r5, r6, r7, lr}
    a838:	eafffa6d 	b	91f4 <rdm_send_respond_message_ack>
    a83c:	e242c001 	sub	ip, r2, #1
    a840:	e6efc07c 	uxtb	ip, ip
    a844:	e28cc018 	add	ip, ip, #24
    a848:	e080c00c 	add	ip, r0, ip
    a84c:	e2442001 	sub	r2, r4, #1
    a850:	e2803017 	add	r3, r0, #23
    a854:	e5f21001 	ldrb	r1, [r2, #1]!
    a858:	e5e31001 	strb	r1, [r3, #1]!
    a85c:	e153000c 	cmp	r3, ip
    a860:	1afffffb 	bne	a854 <rdm_get_manufacturer_label+0x110>
    a864:	e8bd40f8 	pop	{r3, r4, r5, r6, r7, lr}
    a868:	eafffa61 	b	91f4 <rdm_send_respond_message_ack>
    a86c:	0001a2e8 	andeq	sl, r1, r8, ror #5

0000a870 <rdm_get_device_model_description>:
    a870:	e92d40f8 	push	{r3, r4, r5, r6, r7, lr}
    a874:	eb000402 	bl	b884 <hardware_get_board_model>
    a878:	e1a04000 	mov	r4, r0
    a87c:	eb000449 	bl	b9a8 <hardware_get_board_model_length>
    a880:	e1a02000 	mov	r2, r0
    a884:	e59f310c 	ldr	r3, [pc, #268]	; a998 <rdm_get_device_model_description+0x128>
    a888:	e3500000 	cmp	r0, #0
    a88c:	e5930000 	ldr	r0, [r3]
    a890:	e2823018 	add	r3, r2, #24
    a894:	e5c03002 	strb	r3, [r0, #2]
    a898:	e5c02017 	strb	r2, [r0, #23]
    a89c:	0a00002f 	beq	a960 <rdm_get_device_model_description+0xf0>
    a8a0:	e2843004 	add	r3, r4, #4
    a8a4:	e2801018 	add	r1, r0, #24
    a8a8:	e280c01c 	add	ip, r0, #28
    a8ac:	e154000c 	cmp	r4, ip
    a8b0:	31510003 	cmpcc	r1, r3
    a8b4:	23a03001 	movcs	r3, #1
    a8b8:	33a03000 	movcc	r3, #0
    a8bc:	e184c001 	orr	ip, r4, r1
    a8c0:	e3520009 	cmp	r2, #9
    a8c4:	93a03000 	movls	r3, #0
    a8c8:	82033001 	andhi	r3, r3, #1
    a8cc:	e31c0003 	tst	ip, #3
    a8d0:	13a03000 	movne	r3, #0
    a8d4:	02033001 	andeq	r3, r3, #1
    a8d8:	e3530000 	cmp	r3, #0
    a8dc:	0a000021 	beq	a968 <rdm_get_device_model_description+0xf8>
    a8e0:	e3a03000 	mov	r3, #0
    a8e4:	e2426004 	sub	r6, r2, #4
    a8e8:	e6ef6076 	uxtb	r6, r6
    a8ec:	e1a06126 	lsr	r6, r6, #2
    a8f0:	e2866001 	add	r6, r6, #1
    a8f4:	e1a07106 	lsl	r7, r6, #2
    a8f8:	e6ef7077 	uxtb	r7, r7
    a8fc:	e244c004 	sub	ip, r4, #4
    a900:	e2833001 	add	r3, r3, #1
    a904:	e6ef5073 	uxtb	r5, r3
    a908:	e5bce004 	ldr	lr, [ip, #4]!
    a90c:	e1560005 	cmp	r6, r5
    a910:	e481e004 	str	lr, [r1], #4
    a914:	8afffff9 	bhi	a900 <rdm_get_device_model_description+0x90>
    a918:	e1520007 	cmp	r2, r7
    a91c:	0a00000f 	beq	a960 <rdm_get_device_model_description+0xf0>
    a920:	e2871001 	add	r1, r7, #1
    a924:	e6ef1071 	uxtb	r1, r1
    a928:	e7d4c007 	ldrb	ip, [r4, r7]
    a92c:	e0803007 	add	r3, r0, r7
    a930:	e1520001 	cmp	r2, r1
    a934:	e5c3c018 	strb	ip, [r3, #24]
    a938:	9a000008 	bls	a960 <rdm_get_device_model_description+0xf0>
    a93c:	e2873002 	add	r3, r7, #2
    a940:	e7d4c001 	ldrb	ip, [r4, r1]
    a944:	e6ef3073 	uxtb	r3, r3
    a948:	e0801001 	add	r1, r0, r1
    a94c:	e1520003 	cmp	r2, r3
    a950:	e5c1c018 	strb	ip, [r1, #24]
    a954:	87d42003 	ldrbhi	r2, [r4, r3]
    a958:	80803003 	addhi	r3, r0, r3
    a95c:	85c32018 	strbhi	r2, [r3, #24]
    a960:	e8bd40f8 	pop	{r3, r4, r5, r6, r7, lr}
    a964:	eafffa22 	b	91f4 <rdm_send_respond_message_ack>
    a968:	e242c001 	sub	ip, r2, #1
    a96c:	e6efc07c 	uxtb	ip, ip
    a970:	e28cc018 	add	ip, ip, #24
    a974:	e080c00c 	add	ip, r0, ip
    a978:	e2442001 	sub	r2, r4, #1
    a97c:	e2803017 	add	r3, r0, #23
    a980:	e5f21001 	ldrb	r1, [r2, #1]!
    a984:	e5e31001 	strb	r1, [r3, #1]!
    a988:	e153000c 	cmp	r3, ip
    a98c:	1afffffb 	bne	a980 <rdm_get_device_model_description+0x110>
    a990:	e8bd40f8 	pop	{r3, r4, r5, r6, r7, lr}
    a994:	eafffa16 	b	91f4 <rdm_send_respond_message_ack>
    a998:	0001a2e8 	andeq	sl, r1, r8, ror #5

0000a99c <rdm_get_device_info>:
    a99c:	e92d4038 	push	{r3, r4, r5, lr}
    a9a0:	e59f502c 	ldr	r5, [pc, #44]	; a9d4 <rdm_get_device_info+0x38>
    a9a4:	e5954000 	ldr	r4, [r5]
    a9a8:	ebfff8de 	bl	8d28 <rdm_device_info_get>
    a9ac:	e3a0302b 	mov	r3, #43	; 0x2b
    a9b0:	e3a02013 	mov	r2, #19
    a9b4:	e1a01000 	mov	r1, r0
    a9b8:	e5c43002 	strb	r3, [r4, #2]
    a9bc:	e5c42017 	strb	r2, [r4, #23]
    a9c0:	e2840018 	add	r0, r4, #24
    a9c4:	eb000cd7 	bl	dd28 <memcpy>
    a9c8:	e5950000 	ldr	r0, [r5]
    a9cc:	e8bd4038 	pop	{r3, r4, r5, lr}
    a9d0:	eafffa07 	b	91f4 <rdm_send_respond_message_ack>
    a9d4:	0001a2e8 	andeq	sl, r1, r8, ror #5

0000a9d8 <rdm_set_personality>:
    a9d8:	e92d41f0 	push	{r4, r5, r6, r7, r8, lr}
    a9dc:	e59f607c 	ldr	r6, [pc, #124]	; aa60 <rdm_set_personality+0x88>
    a9e0:	e5964000 	ldr	r4, [r6]
    a9e4:	e5d43017 	ldrb	r3, [r4, #23]
    a9e8:	e3530001 	cmp	r3, #1
    a9ec:	0a000003 	beq	aa00 <rdm_set_personality+0x28>
    a9f0:	e1a00004 	mov	r0, r4
    a9f4:	e8bd41f0 	pop	{r4, r5, r6, r7, r8, lr}
    a9f8:	e3a01001 	mov	r1, #1
    a9fc:	eafff9ff 	b	9200 <rdm_send_respond_message_nack>
    aa00:	e5d48018 	ldrb	r8, [r4, #24]
    aa04:	e1a00001 	mov	r0, r1
    aa08:	e1a07001 	mov	r7, r1
    aa0c:	ebfff8a2 	bl	8c9c <rdm_device_info_get_personality_count>
    aa10:	e16f3f18 	clz	r3, r8
    aa14:	e1a032a3 	lsr	r3, r3, #5
    aa18:	e1580000 	cmp	r8, r0
    aa1c:	91a05003 	movls	r5, r3
    aa20:	83835001 	orrhi	r5, r3, #1
    aa24:	e3550000 	cmp	r5, #0
    aa28:	1a000008 	bne	aa50 <rdm_set_personality+0x78>
    aa2c:	e1a00007 	mov	r0, r7
    aa30:	e1a01008 	mov	r1, r8
    aa34:	ebfff8a1 	bl	8cc0 <rdm_device_info_set_personality_current>
    aa38:	e3a03018 	mov	r3, #24
    aa3c:	e5c45017 	strb	r5, [r4, #23]
    aa40:	e5c43002 	strb	r3, [r4, #2]
    aa44:	e5960000 	ldr	r0, [r6]
    aa48:	e8bd41f0 	pop	{r4, r5, r6, r7, r8, lr}
    aa4c:	eafff9e8 	b	91f4 <rdm_send_respond_message_ack>
    aa50:	e5960000 	ldr	r0, [r6]
    aa54:	e3a01006 	mov	r1, #6
    aa58:	e8bd41f0 	pop	{r4, r5, r6, r7, r8, lr}
    aa5c:	eafff9e7 	b	9200 <rdm_send_respond_message_nack>
    aa60:	0001a2e8 	andeq	sl, r1, r8, ror #5

0000aa64 <rdm_get_boot_software_version_label>:
    aa64:	e92d40f8 	push	{r3, r4, r5, r6, r7, lr}
    aa68:	e59f6138 	ldr	r6, [pc, #312]	; aba8 <rdm_get_boot_software_version_label+0x144>
    aa6c:	e5960000 	ldr	r0, [r6]
    aa70:	e5d05017 	ldrb	r5, [r0, #23]
    aa74:	e3550000 	cmp	r5, #0
    aa78:	1a00003b 	bne	ab6c <rdm_get_boot_software_version_label+0x108>
    aa7c:	eb00037a 	bl	b86c <hardware_get_firmware_copyright>
    aa80:	e1a04000 	mov	r4, r0
    aa84:	eb00037b 	bl	b878 <hardware_get_firmware_copyright_length>
    aa88:	e1a02000 	mov	r2, r0
    aa8c:	e5960000 	ldr	r0, [r6]
    aa90:	e2823018 	add	r3, r2, #24
    aa94:	e3520000 	cmp	r2, #0
    aa98:	e5c02017 	strb	r2, [r0, #23]
    aa9c:	e5c03002 	strb	r3, [r0, #2]
    aaa0:	0a00002f 	beq	ab64 <rdm_get_boot_software_version_label+0x100>
    aaa4:	e2843004 	add	r3, r4, #4
    aaa8:	e2801018 	add	r1, r0, #24
    aaac:	e280c01c 	add	ip, r0, #28
    aab0:	e154000c 	cmp	r4, ip
    aab4:	31510003 	cmpcc	r1, r3
    aab8:	23a03001 	movcs	r3, #1
    aabc:	33a03000 	movcc	r3, #0
    aac0:	e184c001 	orr	ip, r4, r1
    aac4:	e3520009 	cmp	r2, #9
    aac8:	93a03000 	movls	r3, #0
    aacc:	82033001 	andhi	r3, r3, #1
    aad0:	e31c0003 	tst	ip, #3
    aad4:	13a03000 	movne	r3, #0
    aad8:	02033001 	andeq	r3, r3, #1
    aadc:	e3530000 	cmp	r3, #0
    aae0:	0a000024 	beq	ab78 <rdm_get_boot_software_version_label+0x114>
    aae4:	e1a03005 	mov	r3, r5
    aae8:	e2426004 	sub	r6, r2, #4
    aaec:	e6ef6076 	uxtb	r6, r6
    aaf0:	e1a06126 	lsr	r6, r6, #2
    aaf4:	e2866001 	add	r6, r6, #1
    aaf8:	e1a07106 	lsl	r7, r6, #2
    aafc:	e6ef7077 	uxtb	r7, r7
    ab00:	e244c004 	sub	ip, r4, #4
    ab04:	e2833001 	add	r3, r3, #1
    ab08:	e6ef5073 	uxtb	r5, r3
    ab0c:	e5bce004 	ldr	lr, [ip, #4]!
    ab10:	e1560005 	cmp	r6, r5
    ab14:	e481e004 	str	lr, [r1], #4
    ab18:	8afffff9 	bhi	ab04 <rdm_get_boot_software_version_label+0xa0>
    ab1c:	e1520007 	cmp	r2, r7
    ab20:	0a00000f 	beq	ab64 <rdm_get_boot_software_version_label+0x100>
    ab24:	e2871001 	add	r1, r7, #1
    ab28:	e6ef1071 	uxtb	r1, r1
    ab2c:	e7d4c007 	ldrb	ip, [r4, r7]
    ab30:	e0803007 	add	r3, r0, r7
    ab34:	e1520001 	cmp	r2, r1
    ab38:	e5c3c018 	strb	ip, [r3, #24]
    ab3c:	9a000008 	bls	ab64 <rdm_get_boot_software_version_label+0x100>
    ab40:	e2873002 	add	r3, r7, #2
    ab44:	e7d4c001 	ldrb	ip, [r4, r1]
    ab48:	e6ef3073 	uxtb	r3, r3
    ab4c:	e0801001 	add	r1, r0, r1
    ab50:	e1520003 	cmp	r2, r3
    ab54:	e5c1c018 	strb	ip, [r1, #24]
    ab58:	87d42003 	ldrbhi	r2, [r4, r3]
    ab5c:	80803003 	addhi	r3, r0, r3
    ab60:	85c32018 	strbhi	r2, [r3, #24]
    ab64:	e8bd40f8 	pop	{r3, r4, r5, r6, r7, lr}
    ab68:	eafff9a1 	b	91f4 <rdm_send_respond_message_ack>
    ab6c:	e3a01001 	mov	r1, #1
    ab70:	e8bd40f8 	pop	{r3, r4, r5, r6, r7, lr}
    ab74:	eafff9a1 	b	9200 <rdm_send_respond_message_nack>
    ab78:	e242c001 	sub	ip, r2, #1
    ab7c:	e6efc07c 	uxtb	ip, ip
    ab80:	e28cc018 	add	ip, ip, #24
    ab84:	e080c00c 	add	ip, r0, ip
    ab88:	e2442001 	sub	r2, r4, #1
    ab8c:	e2803017 	add	r3, r0, #23
    ab90:	e5f21001 	ldrb	r1, [r2, #1]!
    ab94:	e5e31001 	strb	r1, [r3, #1]!
    ab98:	e153000c 	cmp	r3, ip
    ab9c:	1afffffb 	bne	ab90 <rdm_get_boot_software_version_label+0x12c>
    aba0:	e8bd40f8 	pop	{r3, r4, r5, r6, r7, lr}
    aba4:	eafff992 	b	91f4 <rdm_send_respond_message_ack>
    aba8:	0001a2e8 	andeq	sl, r1, r8, ror #5

0000abac <rdm_set_language>:
    abac:	e92d4070 	push	{r4, r5, r6, lr}
    abb0:	e59f506c 	ldr	r5, [pc, #108]	; ac24 <rdm_set_language+0x78>
    abb4:	e5954000 	ldr	r4, [r5]
    abb8:	e5d43017 	ldrb	r3, [r4, #23]
    abbc:	e3530002 	cmp	r3, #2
    abc0:	0a000003 	beq	abd4 <rdm_set_language+0x28>
    abc4:	e1a00004 	mov	r0, r4
    abc8:	e8bd4070 	pop	{r4, r5, r6, lr}
    abcc:	e3a01001 	mov	r1, #1
    abd0:	eafff98a 	b	9200 <rdm_send_respond_message_nack>
    abd4:	e1a06000 	mov	r6, r0
    abd8:	ebfff801 	bl	8be4 <rdm_device_info_get_supported_language>
    abdc:	e5d42018 	ldrb	r2, [r4, #24]
    abe0:	e5d03000 	ldrb	r3, [r0]
    abe4:	e1520003 	cmp	r2, r3
    abe8:	1a000003 	bne	abfc <rdm_set_language+0x50>
    abec:	e5d03001 	ldrb	r3, [r0, #1]
    abf0:	e5d42019 	ldrb	r2, [r4, #25]
    abf4:	e1520003 	cmp	r2, r3
    abf8:	0a000003 	beq	ac0c <rdm_set_language+0x60>
    abfc:	e5950000 	ldr	r0, [r5]
    ac00:	e3a01006 	mov	r1, #6
    ac04:	e8bd4070 	pop	{r4, r5, r6, lr}
    ac08:	eafff97c 	b	9200 <rdm_send_respond_message_nack>
    ac0c:	e3560000 	cmp	r6, #0
    ac10:	18bd8070 	popne	{r4, r5, r6, pc}
    ac14:	e5c46017 	strb	r6, [r4, #23]
    ac18:	e5950000 	ldr	r0, [r5]
    ac1c:	e8bd4070 	pop	{r4, r5, r6, lr}
    ac20:	eafff973 	b	91f4 <rdm_send_respond_message_ack>
    ac24:	0001a2e8 	andeq	sl, r1, r8, ror #5

0000ac28 <rdm_set_factory_defaults>:
    ac28:	e92d4038 	push	{r3, r4, r5, lr}
    ac2c:	e59f5038 	ldr	r5, [pc, #56]	; ac6c <rdm_set_factory_defaults+0x44>
    ac30:	e5953000 	ldr	r3, [r5]
    ac34:	e5d32017 	ldrb	r2, [r3, #23]
    ac38:	e3520000 	cmp	r2, #0
    ac3c:	1a000006 	bne	ac5c <rdm_set_factory_defaults+0x34>
    ac40:	e1a04000 	mov	r4, r0
    ac44:	ebfff850 	bl	8d8c <rdm_device_info_init>
    ac48:	e3540000 	cmp	r4, #0
    ac4c:	18bd8038 	popne	{r3, r4, r5, pc}
    ac50:	e5950000 	ldr	r0, [r5]
    ac54:	e8bd4038 	pop	{r3, r4, r5, lr}
    ac58:	eafff965 	b	91f4 <rdm_send_respond_message_ack>
    ac5c:	e1a00003 	mov	r0, r3
    ac60:	e8bd4038 	pop	{r3, r4, r5, lr}
    ac64:	e3a01001 	mov	r1, #1
    ac68:	eafff964 	b	9200 <rdm_send_respond_message_nack>
    ac6c:	0001a2e8 	andeq	sl, r1, r8, ror #5

0000ac70 <rdm_handlers>:
    ac70:	e92d47f0 	push	{r4, r5, r6, r7, r8, r9, sl, lr}
    ac74:	e202c0ef 	and	ip, r2, #239	; 0xef
    ac78:	e35c0020 	cmp	ip, #32
    ac7c:	e5dd7020 	ldrb	r7, [sp, #32]
    ac80:	e1dd92b4 	ldrh	r9, [sp, #36]	; 0x24
    ac84:	1a000020 	bne	ad0c <rdm_handlers+0x9c>
    ac88:	e1a08003 	mov	r8, r3
    ac8c:	e1a06001 	mov	r6, r1
    ac90:	e1a05000 	mov	r5, r0
    ac94:	e1a04002 	mov	r4, r2
    ac98:	eb0000b2 	bl	af68 <rdm_sub_devices_get>
    ac9c:	e59fe104 	ldr	lr, [pc, #260]	; ada8 <rdm_handlers+0x138>
    aca0:	e159000e 	cmp	r9, lr
    aca4:	11590000 	cmpne	r9, r0
    aca8:	83a00001 	movhi	r0, #1
    acac:	93a00000 	movls	r0, #0
    acb0:	8a00001a 	bhi	ad20 <rdm_handlers+0xb0>
    acb4:	e1a01000 	mov	r1, r0
    acb8:	e59f30ec 	ldr	r3, [pc, #236]	; adac <rdm_handlers+0x13c>
    acbc:	e59fc0ec 	ldr	ip, [pc, #236]	; adb0 <rdm_handlers+0x140>
    acc0:	e5835000 	str	r5, [r3]
    acc4:	e28c3e12 	add	r3, ip, #288	; 0x120
    acc8:	e1dc20b0 	ldrh	r2, [ip]
    accc:	e1520008 	cmp	r2, r8
    acd0:	01a0100c 	moveq	r1, ip
    acd4:	e28cc010 	add	ip, ip, #16
    acd8:	e15c0003 	cmp	ip, r3
    acdc:	1afffff9 	bne	acc8 <rdm_handlers+0x58>
    ace0:	e3510000 	cmp	r1, #0
    ace4:	0a000025 	beq	ad80 <rdm_handlers+0x110>
    ace8:	e3540020 	cmp	r4, #32
    acec:	0a000010 	beq	ad34 <rdm_handlers+0xc4>
    acf0:	e5913008 	ldr	r3, [r1, #8]
    acf4:	e3530000 	cmp	r3, #0
    acf8:	0a00001c 	beq	ad70 <rdm_handlers+0x100>
    acfc:	e1a00006 	mov	r0, r6
    ad00:	e1a01009 	mov	r1, r9
    ad04:	e8bd47f0 	pop	{r4, r5, r6, r7, r8, r9, sl, lr}
    ad08:	e12fff13 	bx	r3
    ad0c:	e59f3098 	ldr	r3, [pc, #152]	; adac <rdm_handlers+0x13c>
    ad10:	e3a01005 	mov	r1, #5
    ad14:	e8bd47f0 	pop	{r4, r5, r6, r7, r8, r9, sl, lr}
    ad18:	e5930000 	ldr	r0, [r3]
    ad1c:	eafff937 	b	9200 <rdm_send_respond_message_nack>
    ad20:	e59f3084 	ldr	r3, [pc, #132]	; adac <rdm_handlers+0x13c>
    ad24:	e3a01009 	mov	r1, #9
    ad28:	e8bd47f0 	pop	{r4, r5, r6, r7, r8, r9, sl, lr}
    ad2c:	e5930000 	ldr	r0, [r3]
    ad30:	eafff932 	b	9200 <rdm_send_respond_message_nack>
    ad34:	e3560000 	cmp	r6, #0
    ad38:	18bd87f0 	popne	{r4, r5, r6, r7, r8, r9, sl, pc}
    ad3c:	e59f3064 	ldr	r3, [pc, #100]	; ada8 <rdm_handlers+0x138>
    ad40:	e1590003 	cmp	r9, r3
    ad44:	0a000013 	beq	ad98 <rdm_handlers+0x128>
    ad48:	e5913004 	ldr	r3, [r1, #4]
    ad4c:	e3530000 	cmp	r3, #0
    ad50:	0a000006 	beq	ad70 <rdm_handlers+0x100>
    ad54:	e5d1200c 	ldrb	r2, [r1, #12]
    ad58:	e1520007 	cmp	r2, r7
    ad5c:	0a00000a 	beq	ad8c <rdm_handlers+0x11c>
    ad60:	e1a00005 	mov	r0, r5
    ad64:	e8bd47f0 	pop	{r4, r5, r6, r7, r8, r9, sl, lr}
    ad68:	e3a01001 	mov	r1, #1
    ad6c:	eafff923 	b	9200 <rdm_send_respond_message_nack>
    ad70:	e1a00005 	mov	r0, r5
    ad74:	e8bd47f0 	pop	{r4, r5, r6, r7, r8, r9, sl, lr}
    ad78:	e3a01005 	mov	r1, #5
    ad7c:	eafff91f 	b	9200 <rdm_send_respond_message_nack>
    ad80:	e1a00005 	mov	r0, r5
    ad84:	e8bd47f0 	pop	{r4, r5, r6, r7, r8, r9, sl, lr}
    ad88:	eafff91c 	b	9200 <rdm_send_respond_message_nack>
    ad8c:	e1a00009 	mov	r0, r9
    ad90:	e8bd47f0 	pop	{r4, r5, r6, r7, r8, r9, sl, lr}
    ad94:	e12fff13 	bx	r3
    ad98:	e1a00005 	mov	r0, r5
    ad9c:	e8bd47f0 	pop	{r4, r5, r6, r7, r8, r9, sl, lr}
    ada0:	e3a01009 	mov	r1, #9
    ada4:	eafff915 	b	9200 <rdm_send_respond_message_nack>
    ada8:	0000ffff 	strdeq	pc, [r0], -pc	; <UNPREDICTABLE>
    adac:	0001a2e8 	andeq	sl, r1, r8, ror #5
    adb0:	00016958 	andeq	r6, r1, r8, asr r9

0000adb4 <rdm_identify_is_enabled>:
    adb4:	e59f3004 	ldr	r3, [pc, #4]	; adc0 <rdm_identify_is_enabled+0xc>
    adb8:	e5d30000 	ldrb	r0, [r3]
    adbc:	e12fff1e 	bx	lr
    adc0:	0001a2ec 	andeq	sl, r1, ip, ror #5

0000adc4 <rdm_identify_off>:
    adc4:	e3a02000 	mov	r2, #0
    adc8:	e59f3008 	ldr	r3, [pc, #8]	; add8 <rdm_identify_off+0x14>
    adcc:	e59f0008 	ldr	r0, [pc, #8]	; addc <rdm_identify_off+0x18>
    add0:	e5c32000 	strb	r2, [r3]
    add4:	eafff6de 	b	8954 <ticks_per_second_set>
    add8:	0001a2ec 	andeq	sl, r1, ip, ror #5
    addc:	0007a120 	andeq	sl, r7, r0, lsr #2

0000ade0 <rdm_identify_on>:
    ade0:	e3a02001 	mov	r2, #1
    ade4:	e59f3008 	ldr	r3, [pc, #8]	; adf4 <rdm_identify_on+0x14>
    ade8:	e59f0008 	ldr	r0, [pc, #8]	; adf8 <rdm_identify_on+0x18>
    adec:	e5c32000 	strb	r2, [r3]
    adf0:	eafff6d7 	b	8954 <ticks_per_second_set>
    adf4:	0001a2ec 	andeq	sl, r1, ip, ror #5
    adf8:	0003d090 	muleq	r3, r0, r0

0000adfc <rdm_identify>:
    adfc:	e12fff1e 	bx	lr

0000ae00 <rdm_sub_devices_get_footprint>:
    ae00:	e3a0302c 	mov	r3, #44	; 0x2c
    ae04:	e2400001 	sub	r0, r0, #1
    ae08:	e0030093 	mul	r3, r3, r0
    ae0c:	e59f2004 	ldr	r2, [pc, #4]	; ae18 <rdm_sub_devices_get_footprint+0x18>
    ae10:	e19200b3 	ldrh	r0, [r2, r3]
    ae14:	e12fff1e 	bx	lr
    ae18:	00017288 	andeq	r7, r1, r8, lsl #5

0000ae1c <rdm_sub_devices_get_dmx_start_address>:
    ae1c:	e3a0102c 	mov	r1, #44	; 0x2c
    ae20:	e59f200c 	ldr	r2, [pc, #12]	; ae34 <rdm_sub_devices_get_dmx_start_address+0x18>
    ae24:	e2400001 	sub	r0, r0, #1
    ae28:	e0202091 	mla	r0, r1, r0, r2
    ae2c:	e1d000b4 	ldrh	r0, [r0, #4]
    ae30:	e12fff1e 	bx	lr
    ae34:	00017288 	andeq	r7, r1, r8, lsl #5

0000ae38 <rdm_sub_devices_set_dmx_start_address>:
    ae38:	e3a0c02c 	mov	ip, #44	; 0x2c
    ae3c:	e59f200c 	ldr	r2, [pc, #12]	; ae50 <rdm_sub_devices_set_dmx_start_address+0x18>
    ae40:	e2400001 	sub	r0, r0, #1
    ae44:	e020209c 	mla	r0, ip, r0, r2
    ae48:	e1c010b4 	strh	r1, [r0, #4]
    ae4c:	e12fff1e 	bx	lr
    ae50:	00017288 	andeq	r7, r1, r8, lsl #5

0000ae54 <rdm_sub_devices_get_label>:
    ae54:	e3a0102c 	mov	r1, #44	; 0x2c
    ae58:	e59f200c 	ldr	r2, [pc, #12]	; ae6c <rdm_sub_devices_get_label+0x18>
    ae5c:	e2400001 	sub	r0, r0, #1
    ae60:	e0202091 	mla	r0, r1, r0, r2
    ae64:	e2800007 	add	r0, r0, #7
    ae68:	e12fff1e 	bx	lr
    ae6c:	00017288 	andeq	r7, r1, r8, lsl #5

0000ae70 <rdm_sub_devices_set_label>:
    ae70:	e92d4038 	push	{r3, r4, r5, lr}
    ae74:	e3a0402c 	mov	r4, #44	; 0x2c
    ae78:	e1a05002 	mov	r5, r2
    ae7c:	e59f3014 	ldr	r3, [pc, #20]	; ae98 <rdm_sub_devices_set_label+0x28>
    ae80:	e2400001 	sub	r0, r0, #1
    ae84:	e0243094 	mla	r4, r4, r0, r3
    ae88:	e2840007 	add	r0, r4, #7
    ae8c:	eb000ba5 	bl	dd28 <memcpy>
    ae90:	e5c45027 	strb	r5, [r4, #39]	; 0x27
    ae94:	e8bd8038 	pop	{r3, r4, r5, pc}
    ae98:	00017288 	andeq	r7, r1, r8, lsl #5

0000ae9c <rdm_sub_devices_get_label_length>:
    ae9c:	e3a0102c 	mov	r1, #44	; 0x2c
    aea0:	e59f200c 	ldr	r2, [pc, #12]	; aeb4 <rdm_sub_devices_get_label_length+0x18>
    aea4:	e2400001 	sub	r0, r0, #1
    aea8:	e0202091 	mla	r0, r1, r0, r2
    aeac:	e5d00027 	ldrb	r0, [r0, #39]	; 0x27
    aeb0:	e12fff1e 	bx	lr
    aeb4:	00017288 	andeq	r7, r1, r8, lsl #5

0000aeb8 <rdm_sub_devices_get_personality_current>:
    aeb8:	e3a0102c 	mov	r1, #44	; 0x2c
    aebc:	e59f200c 	ldr	r2, [pc, #12]	; aed0 <rdm_sub_devices_get_personality_current+0x18>
    aec0:	e2400001 	sub	r0, r0, #1
    aec4:	e0202091 	mla	r0, r1, r0, r2
    aec8:	e5d00002 	ldrb	r0, [r0, #2]
    aecc:	e12fff1e 	bx	lr
    aed0:	00017288 	andeq	r7, r1, r8, lsl #5

0000aed4 <rdm_sub_devices_set_personality_current>:
    aed4:	e3a0c02c 	mov	ip, #44	; 0x2c
    aed8:	e59f200c 	ldr	r2, [pc, #12]	; aeec <rdm_sub_devices_set_personality_current+0x18>
    aedc:	e2400001 	sub	r0, r0, #1
    aee0:	e020209c 	mla	r0, ip, r0, r2
    aee4:	e5c01002 	strb	r1, [r0, #2]
    aee8:	e12fff1e 	bx	lr
    aeec:	00017288 	andeq	r7, r1, r8, lsl #5

0000aef0 <rdm_sub_devices_get_personality_description>:
    aef0:	e3a0c02c 	mov	ip, #44	; 0x2c
    aef4:	e59f2014 	ldr	r2, [pc, #20]	; af10 <rdm_sub_devices_get_personality_description+0x20>
    aef8:	e2400001 	sub	r0, r0, #1
    aefc:	e020209c 	mla	r0, ip, r0, r2
    af00:	e5903028 	ldr	r3, [r0, #40]	; 0x28
    af04:	e0831181 	add	r1, r3, r1, lsl #3
    af08:	e5110004 	ldr	r0, [r1, #-4]
    af0c:	e12fff1e 	bx	lr
    af10:	00017288 	andeq	r7, r1, r8, lsl #5

0000af14 <rdm_sub_devices_get_personality_slots>:
    af14:	e3a0c02c 	mov	ip, #44	; 0x2c
    af18:	e59f2014 	ldr	r2, [pc, #20]	; af34 <rdm_sub_devices_get_personality_slots+0x20>
    af1c:	e2400001 	sub	r0, r0, #1
    af20:	e020209c 	mla	r0, ip, r0, r2
    af24:	e5903028 	ldr	r3, [r0, #40]	; 0x28
    af28:	e0831181 	add	r1, r3, r1, lsl #3
    af2c:	e15100b8 	ldrh	r0, [r1, #-8]
    af30:	e12fff1e 	bx	lr
    af34:	00017288 	andeq	r7, r1, r8, lsl #5

0000af38 <rdm_sub_devices_info_get>:
    af38:	e3a0202c 	mov	r2, #44	; 0x2c
    af3c:	e59f3008 	ldr	r3, [pc, #8]	; af4c <rdm_sub_devices_info_get+0x14>
    af40:	e2400001 	sub	r0, r0, #1
    af44:	e0203092 	mla	r0, r2, r0, r3
    af48:	e12fff1e 	bx	lr
    af4c:	00017288 	andeq	r7, r1, r8, lsl #5

0000af50 <rdm_sub_devices_info_set>:
    af50:	e3a0202c 	mov	r2, #44	; 0x2c
    af54:	e59f3008 	ldr	r3, [pc, #8]	; af64 <rdm_sub_devices_info_set+0x14>
    af58:	e2400001 	sub	r0, r0, #1
    af5c:	e0203092 	mla	r0, r2, r0, r3
    af60:	ea000b70 	b	dd28 <memcpy>
    af64:	00017288 	andeq	r7, r1, r8, lsl #5

0000af68 <rdm_sub_devices_get>:
    af68:	e3a00004 	mov	r0, #4
    af6c:	e12fff1e 	bx	lr

0000af70 <notmain>:
    af70:	e92d4ff0 	push	{r4, r5, r6, r7, r8, r9, sl, fp, lr}
    af74:	e24dd01c 	sub	sp, sp, #28
    af78:	eb0002bb 	bl	ba6c <hardware_init>
    af7c:	ebfff5bf 	bl	8680 <dmx_init>
    af80:	ebfff781 	bl	8d8c <rdm_device_info_init>
    af84:	e59f1130 	ldr	r1, [pc, #304]	; b0bc <notmain+0x14c>
    af88:	e59f2130 	ldr	r2, [pc, #304]	; b0c0 <notmain+0x150>
    af8c:	e59f0130 	ldr	r0, [pc, #304]	; b0c4 <notmain+0x154>
    af90:	eb000e3d 	bl	e88c <printf>
    af94:	e59f012c 	ldr	r0, [pc, #300]	; b0c8 <notmain+0x158>
    af98:	eb000e3b 	bl	e88c <printf>
    af9c:	ebfff6e1 	bl	8b28 <rdm_device_info_get_uuid>
    afa0:	e5d0c003 	ldrb	ip, [r0, #3]
    afa4:	e5d02001 	ldrb	r2, [r0, #1]
    afa8:	e5d03002 	ldrb	r3, [r0, #2]
    afac:	e5d01000 	ldrb	r1, [r0]
    afb0:	e58dc000 	str	ip, [sp]
    afb4:	e5d0c004 	ldrb	ip, [r0, #4]
    afb8:	e59f910c 	ldr	r9, [pc, #268]	; b0cc <notmain+0x15c>
    afbc:	e58dc004 	str	ip, [sp, #4]
    afc0:	e5d00005 	ldrb	r0, [r0, #5]
    afc4:	e3a05000 	mov	r5, #0
    afc8:	e58d0008 	str	r0, [sp, #8]
    afcc:	e59f00fc 	ldr	r0, [pc, #252]	; b0d0 <notmain+0x160>
    afd0:	eb000e2d 	bl	e88c <printf>
    afd4:	e3a00002 	mov	r0, #2
    afd8:	e3a01001 	mov	r1, #1
    afdc:	ebfff556 	bl	853c <dmx_port_direction_set>
    afe0:	ebfff663 	bl	8974 <irq_init>
    afe4:	ebfff43e 	bl	80e4 <__enable_irq>
    afe8:	eb0005a5 	bl	c684 <watchdog_init>
    afec:	e5990004 	ldr	r0, [r9, #4]
    aff0:	e3a07000 	mov	r7, #0
    aff4:	e1a04000 	mov	r4, r0
    aff8:	e3a0b000 	mov	fp, #0
    affc:	e59f80d0 	ldr	r8, [pc, #208]	; b0d4 <notmain+0x164>
    b000:	e59f60d0 	ldr	r6, [pc, #208]	; b0d8 <notmain+0x168>
    b004:	e1c820d0 	ldrd	r2, [r8]
    b008:	e0922004 	adds	r2, r2, r4
    b00c:	e1c800d8 	ldrd	r0, [r8, #8]
    b010:	e0a33005 	adc	r3, r3, r5
    b014:	e0900004 	adds	r0, r0, r4
    b018:	e0a11005 	adc	r1, r1, r5
    b01c:	e1c820f0 	strd	r2, [r8]
    b020:	e1c800f8 	strd	r0, [r8, #8]
    b024:	e59fa0b0 	ldr	sl, [pc, #176]	; b0dc <notmain+0x16c>
    b028:	e3a05000 	mov	r5, #0
    b02c:	eb0005a0 	bl	c6b4 <watchdog_feed>
    b030:	ebfffa1e 	bl	98b0 <rdm_handle_data>
    b034:	e1c820d0 	ldrd	r2, [r8]
    b038:	e0922006 	adds	r2, r2, r6
    b03c:	e5994004 	ldr	r4, [r9, #4]
    b040:	e0a33007 	adc	r3, r3, r7
    b044:	e1550003 	cmp	r5, r3
    b048:	01540002 	cmpeq	r4, r2
    b04c:	8a000011 	bhi	b098 <notmain+0x128>
    b050:	e1c820d8 	ldrd	r2, [r8, #8]
    b054:	e092200a 	adds	r2, r2, sl
    b058:	e0a3300b 	adc	r3, r3, fp
    b05c:	e1550003 	cmp	r5, r3
    b060:	01540002 	cmpeq	r4, r2
    b064:	e59f1068 	ldr	r1, [pc, #104]	; b0d4 <notmain+0x164>
    b068:	e59f406c 	ldr	r4, [pc, #108]	; b0dc <notmain+0x16c>
    b06c:	e3a05000 	mov	r5, #0
    b070:	9affffec 	bls	b028 <notmain+0xb8>
    b074:	e58d1014 	str	r1, [sp, #20]
    b078:	ebfff885 	bl	9294 <monitor_update>
    b07c:	e59d1014 	ldr	r1, [sp, #20]
    b080:	e1c120d8 	ldrd	r2, [r1, #8]
    b084:	e0922004 	adds	r2, r2, r4
    b088:	e0a33005 	adc	r3, r3, r5
    b08c:	e1c120f8 	strd	r2, [r1, #8]
    b090:	eb000587 	bl	c6b4 <watchdog_feed>
    b094:	eaffffe3 	b	b028 <notmain+0xb8>
    b098:	ebffff57 	bl	adfc <rdm_identify>
    b09c:	e59f3030 	ldr	r3, [pc, #48]	; b0d4 <notmain+0x164>
    b0a0:	e59f102c 	ldr	r1, [pc, #44]	; b0d4 <notmain+0x164>
    b0a4:	e1c320d0 	ldrd	r2, [r3]
    b0a8:	e0922006 	adds	r2, r2, r6
    b0ac:	e0a33007 	adc	r3, r3, r7
    b0b0:	e1c120f0 	strd	r2, [r1]
    b0b4:	eb00057e 	bl	c6b4 <watchdog_feed>
    b0b8:	eaffffe4 	b	b050 <notmain+0xe0>
    b0bc:	0001710c 	andeq	r7, r1, ip, lsl #2
    b0c0:	00017118 	andeq	r7, r1, r8, lsl r1
    b0c4:	000170f4 	strdeq	r7, [r1], -r4
    b0c8:	00017124 	andeq	r7, r1, r4, lsr #2
    b0cc:	20003000 	andcs	r3, r0, r0
    b0d0:	0001715c 	andeq	r7, r1, ip, asr r1
    b0d4:	0001a568 	andeq	sl, r1, r8, ror #10
    b0d8:	0007a120 	andeq	sl, r7, r0, lsr #2
    b0dc:	000f4240 	andeq	r4, pc, r0, asr #4

0000b0e0 <initialise_monitor_handles>:
    b0e0:	e12fff1e 	bx	lr

0000b0e4 <_read>:
    b0e4:	e1a00002 	mov	r0, r2
    b0e8:	e12fff1e 	bx	lr

0000b0ec <_lseek>:
    b0ec:	e3a00000 	mov	r0, #0
    b0f0:	e12fff1e 	bx	lr

0000b0f4 <_write>:
    b0f4:	e92d4070 	push	{r4, r5, r6, lr}
    b0f8:	e2526000 	subs	r6, r2, #0
    b0fc:	da000005 	ble	b118 <_write+0x24>
    b100:	e1a04001 	mov	r4, r1
    b104:	e0815006 	add	r5, r1, r6
    b108:	e4d40001 	ldrb	r0, [r4], #1
    b10c:	eb0000a5 	bl	b3a8 <console_putc>
    b110:	e1540005 	cmp	r4, r5
    b114:	1afffffb 	bne	b108 <_write+0x14>
    b118:	e1a00006 	mov	r0, r6
    b11c:	e8bd8070 	pop	{r4, r5, r6, pc}

0000b120 <_open>:
    b120:	e92d000e 	push	{r1, r2, r3}
    b124:	e3a00000 	mov	r0, #0
    b128:	e28dd00c 	add	sp, sp, #12
    b12c:	e12fff1e 	bx	lr

0000b130 <_close>:
    b130:	e3a00000 	mov	r0, #0
    b134:	e12fff1e 	bx	lr

0000b138 <_exit>:
    b138:	eafffffe 	b	b138 <_exit>

0000b13c <_kill>:
    b13c:	e3a00000 	mov	r0, #0
    b140:	e12fff1e 	bx	lr

0000b144 <_getpid>:
    b144:	e3a00001 	mov	r0, #1
    b148:	e12fff1e 	bx	lr

0000b14c <_sbrk>:
    b14c:	e59f2028 	ldr	r2, [pc, #40]	; b17c <_sbrk+0x30>
    b150:	e59f1028 	ldr	r1, [pc, #40]	; b180 <_sbrk+0x34>
    b154:	e5923000 	ldr	r3, [r2]
    b158:	e3530000 	cmp	r3, #0
    b15c:	059f3020 	ldreq	r3, [pc, #32]	; b184 <_sbrk+0x38>
    b160:	e0830000 	add	r0, r3, r0
    b164:	05823000 	streq	r3, [r2]
    b168:	e1500001 	cmp	r0, r1
    b16c:	95820000 	strls	r0, [r2]
    b170:	91a00003 	movls	r0, r3
    b174:	83a00000 	movhi	r0, #0
    b178:	e12fff1e 	bx	lr
    b17c:	0001a2f0 	strdeq	sl, [r1], -r0
    b180:	08000000 	stmdaeq	r0, {}	; <UNPREDICTABLE>
    b184:	0001bd98 	muleq	r1, r8, sp

0000b188 <_fstat>:
    b188:	e3a00000 	mov	r0, #0
    b18c:	e12fff1e 	bx	lr

0000b190 <_stat>:
    b190:	e3a00000 	mov	r0, #0
    b194:	e12fff1e 	bx	lr

0000b198 <_link>:
    b198:	e3e00000 	mvn	r0, #0
    b19c:	e12fff1e 	bx	lr

0000b1a0 <_unlink>:
    b1a0:	e3e00000 	mvn	r0, #0
    b1a4:	e12fff1e 	bx	lr

0000b1a8 <_raise>:
    b1a8:	e12fff1e 	bx	lr

0000b1ac <_gettimeofday>:
    b1ac:	e3500000 	cmp	r0, #0
    b1b0:	13a03000 	movne	r3, #0
    b1b4:	13a0200a 	movne	r2, #10
    b1b8:	1880000c 	stmne	r0, {r2, r3}
    b1bc:	e3510000 	cmp	r1, #0
    b1c0:	13a03000 	movne	r3, #0
    b1c4:	e3a00000 	mov	r0, #0
    b1c8:	15813000 	strne	r3, [r1]
    b1cc:	15813004 	strne	r3, [r1, #4]
    b1d0:	e12fff1e 	bx	lr

0000b1d4 <_times>:
    b1d4:	e3500000 	cmp	r0, #0
    b1d8:	13a03000 	movne	r3, #0
    b1dc:	13a0200a 	movne	r2, #10
    b1e0:	15803008 	strne	r3, [r0, #8]
    b1e4:	1880000c 	stmne	r0, {r2, r3}
    b1e8:	1580300c 	strne	r3, [r0, #12]
    b1ec:	e3a0000a 	mov	r0, #10
    b1f0:	e12fff1e 	bx	lr

0000b1f4 <_isatty>:
    b1f4:	e3a00001 	mov	r0, #1
    b1f8:	e12fff1e 	bx	lr

0000b1fc <_system>:
    b1fc:	e3500000 	cmp	r0, #0
    b200:	e92d4008 	push	{r3, lr}
    b204:	01a03000 	moveq	r3, r0
    b208:	1a000001 	bne	b214 <_system+0x18>
    b20c:	e1a00003 	mov	r0, r3
    b210:	e8bd8008 	pop	{r3, pc}
    b214:	eb00054e 	bl	c754 <__errno>
    b218:	e3a02058 	mov	r2, #88	; 0x58
    b21c:	e3e03000 	mvn	r3, #0
    b220:	e5802000 	str	r2, [r0]
    b224:	eafffff8 	b	b20c <_system+0x10>

0000b228 <_rename>:
    b228:	e92d4008 	push	{r3, lr}
    b22c:	eb000548 	bl	c754 <__errno>
    b230:	e3a03058 	mov	r3, #88	; 0x58
    b234:	e5803000 	str	r3, [r0]
    b238:	e3e00000 	mvn	r0, #0
    b23c:	e8bd8008 	pop	{r3, pc}

0000b240 <console_draw_char>:
    b240:	e92d4ff0 	push	{r4, r5, r6, r7, r8, r9, sl, fp, lr}
    b244:	e3e04000 	mvn	r4, #0
    b248:	e3a0900c 	mov	r9, #12
    b24c:	e0822082 	add	r2, r2, r2, lsl #1
    b250:	e59fe148 	ldr	lr, [pc, #328]	; b3a0 <console_draw_char+0x160>
    b254:	e1a0c302 	lsl	ip, r2, #6
    b258:	e1094089 	smlabb	r9, r9, r0, r4
    b25c:	e04cc102 	sub	ip, ip, r2, lsl #2
    b260:	e59ea000 	ldr	sl, [lr]
    b264:	e1a0c28c 	lsl	ip, ip, #5
    b268:	e1a01181 	lsl	r1, r1, #3
    b26c:	e24dd00c 	sub	sp, sp, #12
    b270:	e081b00c 	add	fp, r1, ip
    b274:	e58d3004 	str	r3, [sp, #4]
    b278:	e59f3124 	ldr	r3, [pc, #292]	; b3a4 <console_draw_char+0x164>
    b27c:	e28a8c2d 	add	r8, sl, #11520	; 0x2d00
    b280:	e1a0b08b 	lsl	fp, fp, #1
    b284:	e2817007 	add	r7, r1, #7
    b288:	e2816006 	add	r6, r1, #6
    b28c:	e2812005 	add	r2, r1, #5
    b290:	e2815004 	add	r5, r1, #4
    b294:	e2814003 	add	r4, r1, #3
    b298:	e281e002 	add	lr, r1, #2
    b29c:	e288800a 	add	r8, r8, #10
    b2a0:	e2811001 	add	r1, r1, #1
    b2a4:	e0899003 	add	r9, r9, r3
    b2a8:	e08b300a 	add	r3, fp, sl
    b2ac:	e08c7007 	add	r7, ip, r7
    b2b0:	e08c6006 	add	r6, ip, r6
    b2b4:	e08c2002 	add	r2, ip, r2
    b2b8:	e08c5005 	add	r5, ip, r5
    b2bc:	e08c4004 	add	r4, ip, r4
    b2c0:	e08ce00e 	add	lr, ip, lr
    b2c4:	e08c1001 	add	r1, ip, r1
    b2c8:	e088b00b 	add	fp, r8, fp
    b2cc:	e1ddc3b0 	ldrh	ip, [sp, #48]	; 0x30
    b2d0:	e1a08003 	mov	r8, r3
    b2d4:	e59d3004 	ldr	r3, [sp, #4]
    b2d8:	e08a7087 	add	r7, sl, r7, lsl #1
    b2dc:	e08a6086 	add	r6, sl, r6, lsl #1
    b2e0:	e08a2082 	add	r2, sl, r2, lsl #1
    b2e4:	e08a5085 	add	r5, sl, r5, lsl #1
    b2e8:	e08a4084 	add	r4, sl, r4, lsl #1
    b2ec:	e08ae08e 	add	lr, sl, lr, lsl #1
    b2f0:	e08aa081 	add	sl, sl, r1, lsl #1
    b2f4:	e5f91001 	ldrb	r1, [r9, #1]!
    b2f8:	e3110001 	tst	r1, #1
    b2fc:	e1a010a1 	lsr	r1, r1, #1
    b300:	01c8c0b0 	strheq	ip, [r8]
    b304:	11c830b0 	strhne	r3, [r8]
    b308:	e3110001 	tst	r1, #1
    b30c:	e1a010a1 	lsr	r1, r1, #1
    b310:	01cac0b0 	strheq	ip, [sl]
    b314:	11ca30b0 	strhne	r3, [sl]
    b318:	e3110001 	tst	r1, #1
    b31c:	e1a010a1 	lsr	r1, r1, #1
    b320:	01cec0b0 	strheq	ip, [lr]
    b324:	11ce30b0 	strhne	r3, [lr]
    b328:	e3110001 	tst	r1, #1
    b32c:	e1a010a1 	lsr	r1, r1, #1
    b330:	01c4c0b0 	strheq	ip, [r4]
    b334:	11c430b0 	strhne	r3, [r4]
    b338:	e3110001 	tst	r1, #1
    b33c:	e1a010a1 	lsr	r1, r1, #1
    b340:	01c5c0b0 	strheq	ip, [r5]
    b344:	11c530b0 	strhne	r3, [r5]
    b348:	e3110001 	tst	r1, #1
    b34c:	e1a010a1 	lsr	r1, r1, #1
    b350:	01c2c0b0 	strheq	ip, [r2]
    b354:	11c230b0 	strhne	r3, [r2]
    b358:	e3110001 	tst	r1, #1
    b35c:	01c6c0b0 	strheq	ip, [r6]
    b360:	11c630b0 	strhne	r3, [r6]
    b364:	e2822d0f 	add	r2, r2, #960	; 0x3c0
    b368:	e3110002 	tst	r1, #2
    b36c:	01c7c0b0 	strheq	ip, [r7]
    b370:	11c730b0 	strhne	r3, [r7]
    b374:	e152000b 	cmp	r2, fp
    b378:	e2877d0f 	add	r7, r7, #960	; 0x3c0
    b37c:	e2888d0f 	add	r8, r8, #960	; 0x3c0
    b380:	e2866d0f 	add	r6, r6, #960	; 0x3c0
    b384:	e2855d0f 	add	r5, r5, #960	; 0x3c0
    b388:	e2844d0f 	add	r4, r4, #960	; 0x3c0
    b38c:	e28eed0f 	add	lr, lr, #960	; 0x3c0
    b390:	e28aad0f 	add	sl, sl, #960	; 0x3c0
    b394:	1affffd6 	bne	b2f4 <console_draw_char+0xb4>
    b398:	e28dd00c 	add	sp, sp, #12
    b39c:	e8bd8ff0 	pop	{r4, r5, r6, r7, r8, r9, sl, fp, pc}
    b3a0:	0001a584 	andeq	sl, r1, r4, lsl #11
    b3a4:	0001733c 	andeq	r7, r1, ip, lsr r3

0000b3a8 <console_putc>:
    b3a8:	e92d4ff0 	push	{r4, r5, r6, r7, r8, r9, sl, fp, lr}
    b3ac:	e350000a 	cmp	r0, #10
    b3b0:	e24dd014 	sub	sp, sp, #20
    b3b4:	e1a08000 	mov	r8, r0
    b3b8:	0a000075 	beq	b594 <console_putc+0x1ec>
    b3bc:	e350000d 	cmp	r0, #13
    b3c0:	0a00006d 	beq	b57c <console_putc+0x1d4>
    b3c4:	e3500009 	cmp	r0, #9
    b3c8:	0a000064 	beq	b560 <console_putc+0x1b8>
    b3cc:	e59f3290 	ldr	r3, [pc, #656]	; b664 <console_putc+0x2bc>
    b3d0:	e59f2290 	ldr	r2, [pc, #656]	; b668 <console_putc+0x2c0>
    b3d4:	e5933000 	ldr	r3, [r3]
    b3d8:	e59f1284 	ldr	r1, [pc, #644]	; b664 <console_putc+0x2bc>
    b3dc:	e083c083 	add	ip, r3, r3, lsl #1
    b3e0:	e58d3008 	str	r3, [sp, #8]
    b3e4:	e1a0330c 	lsl	r3, ip, #6
    b3e8:	e043c10c 	sub	ip, r3, ip, lsl #2
    b3ec:	e5923000 	ldr	r3, [r2]
    b3f0:	e5911004 	ldr	r1, [r1, #4]
    b3f4:	e1a0a003 	mov	sl, r3
    b3f8:	e1a09181 	lsl	r9, r1, #3
    b3fc:	e1a0c28c 	lsl	ip, ip, #5
    b400:	e089400c 	add	r4, r9, ip
    b404:	e283bc2d 	add	fp, r3, #11520	; 0x2d00
    b408:	e1a04084 	lsl	r4, r4, #1
    b40c:	e2890007 	add	r0, r9, #7
    b410:	e2897006 	add	r7, r9, #6
    b414:	e2892005 	add	r2, r9, #5
    b418:	e2896004 	add	r6, r9, #4
    b41c:	e2895003 	add	r5, r9, #3
    b420:	e289e002 	add	lr, r9, #2
    b424:	e28bb00a 	add	fp, fp, #10
    b428:	e2899001 	add	r9, r9, #1
    b42c:	e08c0000 	add	r0, ip, r0
    b430:	e08c7007 	add	r7, ip, r7
    b434:	e08c2002 	add	r2, ip, r2
    b438:	e08c6006 	add	r6, ip, r6
    b43c:	e08c5005 	add	r5, ip, r5
    b440:	e08ce00e 	add	lr, ip, lr
    b444:	e58d1004 	str	r1, [sp, #4]
    b448:	e08cc009 	add	ip, ip, r9
    b44c:	e59f1218 	ldr	r1, [pc, #536]	; b66c <console_putc+0x2c4>
    b450:	e084900a 	add	r9, r4, sl
    b454:	e08bb004 	add	fp, fp, r4
    b458:	e59f4204 	ldr	r4, [pc, #516]	; b664 <console_putc+0x2bc>
    b45c:	e58d300c 	str	r3, [sp, #12]
    b460:	e08a0080 	add	r0, sl, r0, lsl #1
    b464:	e6ef3078 	uxtb	r3, r8
    b468:	e08a7087 	add	r7, sl, r7, lsl #1
    b46c:	e08a2082 	add	r2, sl, r2, lsl #1
    b470:	e08a6086 	add	r6, sl, r6, lsl #1
    b474:	e08a5085 	add	r5, sl, r5, lsl #1
    b478:	e08ae08e 	add	lr, sl, lr, lsl #1
    b47c:	e08ac08c 	add	ip, sl, ip, lsl #1
    b480:	e59fa1e8 	ldr	sl, [pc, #488]	; b670 <console_putc+0x2c8>
    b484:	e0833083 	add	r3, r3, r3, lsl #1
    b488:	e1d110b0 	ldrh	r1, [r1]
    b48c:	e1d440b8 	ldrh	r4, [r4, #8]
    b490:	e08aa103 	add	sl, sl, r3, lsl #2
    b494:	e5fa3001 	ldrb	r3, [sl, #1]!
    b498:	e3130001 	tst	r3, #1
    b49c:	e1a030a3 	lsr	r3, r3, #1
    b4a0:	01c940b0 	strheq	r4, [r9]
    b4a4:	11c910b0 	strhne	r1, [r9]
    b4a8:	e3130001 	tst	r3, #1
    b4ac:	e1a030a3 	lsr	r3, r3, #1
    b4b0:	01cc40b0 	strheq	r4, [ip]
    b4b4:	11cc10b0 	strhne	r1, [ip]
    b4b8:	e3130001 	tst	r3, #1
    b4bc:	e1a030a3 	lsr	r3, r3, #1
    b4c0:	01ce40b0 	strheq	r4, [lr]
    b4c4:	11ce10b0 	strhne	r1, [lr]
    b4c8:	e3130001 	tst	r3, #1
    b4cc:	e1a030a3 	lsr	r3, r3, #1
    b4d0:	01c540b0 	strheq	r4, [r5]
    b4d4:	11c510b0 	strhne	r1, [r5]
    b4d8:	e3130001 	tst	r3, #1
    b4dc:	e1a030a3 	lsr	r3, r3, #1
    b4e0:	01c640b0 	strheq	r4, [r6]
    b4e4:	11c610b0 	strhne	r1, [r6]
    b4e8:	e3130001 	tst	r3, #1
    b4ec:	e1a030a3 	lsr	r3, r3, #1
    b4f0:	01c240b0 	strheq	r4, [r2]
    b4f4:	11c210b0 	strhne	r1, [r2]
    b4f8:	e3130001 	tst	r3, #1
    b4fc:	01c740b0 	strheq	r4, [r7]
    b500:	11c710b0 	strhne	r1, [r7]
    b504:	e2822d0f 	add	r2, r2, #960	; 0x3c0
    b508:	e3130002 	tst	r3, #2
    b50c:	01c040b0 	strheq	r4, [r0]
    b510:	11c010b0 	strhne	r1, [r0]
    b514:	e152000b 	cmp	r2, fp
    b518:	e2800d0f 	add	r0, r0, #960	; 0x3c0
    b51c:	e2899d0f 	add	r9, r9, #960	; 0x3c0
    b520:	e2877d0f 	add	r7, r7, #960	; 0x3c0
    b524:	e2866d0f 	add	r6, r6, #960	; 0x3c0
    b528:	e2855d0f 	add	r5, r5, #960	; 0x3c0
    b52c:	e28eed0f 	add	lr, lr, #960	; 0x3c0
    b530:	e28ccd0f 	add	ip, ip, #960	; 0x3c0
    b534:	1affffd6 	bne	b494 <console_putc+0xec>
    b538:	e59d3004 	ldr	r3, [sp, #4]
    b53c:	e59f2120 	ldr	r2, [pc, #288]	; b664 <console_putc+0x2bc>
    b540:	e2833001 	add	r3, r3, #1
    b544:	e353003c 	cmp	r3, #60	; 0x3c
    b548:	e5823004 	str	r3, [r2, #4]
    b54c:	e1a05002 	mov	r5, r2
    b550:	0a00002a 	beq	b600 <console_putc+0x258>
    b554:	e1a00008 	mov	r0, r8
    b558:	e28dd014 	add	sp, sp, #20
    b55c:	e8bd8ff0 	pop	{r4, r5, r6, r7, r8, r9, sl, fp, pc}
    b560:	e1a00008 	mov	r0, r8
    b564:	e59f20f8 	ldr	r2, [pc, #248]	; b664 <console_putc+0x2bc>
    b568:	e5923004 	ldr	r3, [r2, #4]
    b56c:	e2833004 	add	r3, r3, #4
    b570:	e5823004 	str	r3, [r2, #4]
    b574:	e28dd014 	add	sp, sp, #20
    b578:	e8bd8ff0 	pop	{r4, r5, r6, r7, r8, r9, sl, fp, pc}
    b57c:	e3a02000 	mov	r2, #0
    b580:	e1a00008 	mov	r0, r8
    b584:	e59f30d8 	ldr	r3, [pc, #216]	; b664 <console_putc+0x2bc>
    b588:	e5832004 	str	r2, [r3, #4]
    b58c:	e28dd014 	add	sp, sp, #20
    b590:	e8bd8ff0 	pop	{r4, r5, r6, r7, r8, r9, sl, fp, pc}
    b594:	e3a03000 	mov	r3, #0
    b598:	e59f40c4 	ldr	r4, [pc, #196]	; b664 <console_putc+0x2bc>
    b59c:	e5945000 	ldr	r5, [r4]
    b5a0:	e5843004 	str	r3, [r4, #4]
    b5a4:	e2853001 	add	r3, r5, #1
    b5a8:	e353001a 	cmp	r3, #26
    b5ac:	e5843000 	str	r3, [r4]
    b5b0:	1affffe7 	bne	b554 <console_putc+0x1ac>
    b5b4:	e3a06f4d 	mov	r6, #308	; 0x134
    b5b8:	e59f70b4 	ldr	r7, [pc, #180]	; b674 <console_putc+0x2cc>
    b5bc:	e59f30a4 	ldr	r3, [pc, #164]	; b668 <console_putc+0x2c0>
    b5c0:	e5972000 	ldr	r2, [r7]
    b5c4:	e5933000 	ldr	r3, [r3]
    b5c8:	e0821082 	add	r1, r2, r2, lsl #1
    b5cc:	e0831101 	add	r1, r3, r1, lsl #2
    b5d0:	e1a00003 	mov	r0, r3
    b5d4:	e0020296 	mul	r2, r6, r2
    b5d8:	eb000a0f 	bl	de1c <memmove>
    b5dc:	e1a03000 	mov	r3, r0
    b5e0:	e5970000 	ldr	r0, [r7]
    b5e4:	e1d410b8 	ldrh	r1, [r4, #8]
    b5e8:	e0802080 	add	r2, r0, r0, lsl #1
    b5ec:	e1a02102 	lsl	r2, r2, #2
    b5f0:	e0203096 	mla	r0, r6, r0, r3
    b5f4:	eb000a53 	bl	df48 <memset>
    b5f8:	e5845000 	str	r5, [r4]
    b5fc:	eaffffd4 	b	b554 <console_putc+0x1ac>
    b600:	e3a02000 	mov	r2, #0
    b604:	e59d3008 	ldr	r3, [sp, #8]
    b608:	e5852004 	str	r2, [r5, #4]
    b60c:	e2833001 	add	r3, r3, #1
    b610:	e353001a 	cmp	r3, #26
    b614:	e5853000 	str	r3, [r5]
    b618:	1affffcd 	bne	b554 <console_putc+0x1ac>
    b61c:	e3a06f4d 	mov	r6, #308	; 0x134
    b620:	e59f704c 	ldr	r7, [pc, #76]	; b674 <console_putc+0x2cc>
    b624:	e59d900c 	ldr	r9, [sp, #12]
    b628:	e5972000 	ldr	r2, [r7]
    b62c:	e1a00009 	mov	r0, r9
    b630:	e0821082 	add	r1, r2, r2, lsl #1
    b634:	e0891101 	add	r1, r9, r1, lsl #2
    b638:	e0020296 	mul	r2, r6, r2
    b63c:	eb0009f6 	bl	de1c <memmove>
    b640:	e5970000 	ldr	r0, [r7]
    b644:	e1a01004 	mov	r1, r4
    b648:	e0802080 	add	r2, r0, r0, lsl #1
    b64c:	e1a02102 	lsl	r2, r2, #2
    b650:	e0209096 	mla	r0, r6, r0, r9
    b654:	eb000a3b 	bl	df48 <memset>
    b658:	e59d3008 	ldr	r3, [sp, #8]
    b65c:	e5853000 	str	r3, [r5]
    b660:	eaffffbb 	b	b554 <console_putc+0x1ac>
    b664:	0001a2f4 	strdeq	sl, [r1], -r4
    b668:	0001a584 	andeq	sl, r1, r4, lsl #11
    b66c:	00017338 	andeq	r7, r1, r8, lsr r3
    b670:	0001733b 	andeq	r7, r1, fp, lsr r3
    b674:	0001a578 	andeq	sl, r1, r8, ror r5

0000b678 <console_clear>:
    b678:	e59f3028 	ldr	r3, [pc, #40]	; b6a8 <console_clear+0x30>
    b67c:	e92d4010 	push	{r4, lr}
    b680:	e59f2024 	ldr	r2, [pc, #36]	; b6ac <console_clear+0x34>
    b684:	e59f4024 	ldr	r4, [pc, #36]	; b6b0 <console_clear+0x38>
    b688:	e5920000 	ldr	r0, [r2]
    b68c:	e1d410b8 	ldrh	r1, [r4, #8]
    b690:	e5932000 	ldr	r2, [r3]
    b694:	eb000a2b 	bl	df48 <memset>
    b698:	e3a03000 	mov	r3, #0
    b69c:	e5843004 	str	r3, [r4, #4]
    b6a0:	e5843000 	str	r3, [r4]
    b6a4:	e8bd8010 	pop	{r4, pc}
    b6a8:	0001a58c 	andeq	sl, r1, ip, lsl #11
    b6ac:	0001a584 	andeq	sl, r1, r4, lsl #11
    b6b0:	0001a2f4 	strdeq	sl, [r1], -r4

0000b6b4 <console_set_cursor>:
    b6b4:	e350003c 	cmp	r0, #60	; 0x3c
    b6b8:	c3a00000 	movgt	r0, #0
    b6bc:	e351001a 	cmp	r1, #26
    b6c0:	c3a01000 	movgt	r1, #0
    b6c4:	e59f3008 	ldr	r3, [pc, #8]	; b6d4 <console_set_cursor+0x20>
    b6c8:	e5830004 	str	r0, [r3, #4]
    b6cc:	e5831000 	str	r1, [r3]
    b6d0:	e12fff1e 	bx	lr
    b6d4:	0001a2f4 	strdeq	sl, [r1], -r4

0000b6d8 <console_set_fg_color>:
    b6d8:	e59f3004 	ldr	r3, [pc, #4]	; b6e4 <console_set_fg_color+0xc>
    b6dc:	e1c300b0 	strh	r0, [r3]
    b6e0:	e12fff1e 	bx	lr
    b6e4:	00017338 	andeq	r7, r1, r8, lsr r3

0000b6e8 <console_set_bg_color>:
    b6e8:	e59f3004 	ldr	r3, [pc, #4]	; b6f4 <console_set_bg_color+0xc>
    b6ec:	e1c300b8 	strh	r0, [r3, #8]
    b6f0:	e12fff1e 	bx	lr
    b6f4:	0001a2f4 	strdeq	sl, [r1], -r4

0000b6f8 <console_clear_line>:
    b6f8:	e350001a 	cmp	r0, #26
    b6fc:	e92d4010 	push	{r4, lr}
    b700:	e3a01c2d 	mov	r1, #11520	; 0x2d00
    b704:	d1a0e000 	movle	lr, r0
    b708:	c3a0e000 	movgt	lr, #0
    b70c:	e3a0c000 	mov	ip, #0
    b710:	e59f2020 	ldr	r2, [pc, #32]	; b738 <console_clear_line+0x40>
    b714:	e59f3020 	ldr	r3, [pc, #32]	; b73c <console_clear_line+0x44>
    b718:	e5924000 	ldr	r4, [r2]
    b71c:	e583e000 	str	lr, [r3]
    b720:	e0204091 	mla	r0, r1, r0, r4
    b724:	e8bd4010 	pop	{r4, lr}
    b728:	e1a02001 	mov	r2, r1
    b72c:	e1d310b8 	ldrh	r1, [r3, #8]
    b730:	e583c004 	str	ip, [r3, #4]
    b734:	ea000a03 	b	df48 <memset>
    b738:	0001a584 	andeq	sl, r1, r4, lsl #11
    b73c:	0001a2f4 	strdeq	sl, [r1], -r4

0000b740 <fb_init>:
    b740:	e92d4038 	push	{r3, r4, r5, lr}
    b744:	e3a02e1e 	mov	r2, #480	; 0x1e0
    b748:	e3a05000 	mov	r5, #0
    b74c:	e3a03d05 	mov	r3, #320	; 0x140
    b750:	e3a0c010 	mov	ip, #16
    b754:	e59f409c 	ldr	r4, [pc, #156]	; b7f8 <fb_init+0xb8>
    b758:	e3a00001 	mov	r0, #1
    b75c:	e5842000 	str	r2, [r4]
    b760:	e1a01004 	mov	r1, r4
    b764:	e5843004 	str	r3, [r4, #4]
    b768:	e5842008 	str	r2, [r4, #8]
    b76c:	e584300c 	str	r3, [r4, #12]
    b770:	e5845010 	str	r5, [r4, #16]
    b774:	e584c014 	str	ip, [r4, #20]
    b778:	e5845018 	str	r5, [r4, #24]
    b77c:	e584501c 	str	r5, [r4, #28]
    b780:	e5845020 	str	r5, [r4, #32]
    b784:	e5845024 	str	r5, [r4, #36]	; 0x24
    b788:	eb0002bc 	bl	c280 <bcm2835_mailbox_write>
    b78c:	e3a00001 	mov	r0, #1
    b790:	eb0002ae 	bl	c250 <bcm2835_mailbox_read>
    b794:	e5943020 	ldr	r3, [r4, #32]
    b798:	e1530005 	cmp	r3, r5
    b79c:	0a000013 	beq	b7f0 <fb_init+0xb0>
    b7a0:	e5941000 	ldr	r1, [r4]
    b7a4:	e59f2050 	ldr	r2, [pc, #80]	; b7fc <fb_init+0xbc>
    b7a8:	e59f3050 	ldr	r3, [pc, #80]	; b800 <fb_init+0xc0>
    b7ac:	e5821000 	str	r1, [r2]
    b7b0:	e5941004 	ldr	r1, [r4, #4]
    b7b4:	e59f2048 	ldr	r2, [pc, #72]	; b804 <fb_init+0xc4>
    b7b8:	e5831000 	str	r1, [r3]
    b7bc:	e5941010 	ldr	r1, [r4, #16]
    b7c0:	e59f3040 	ldr	r3, [pc, #64]	; b808 <fb_init+0xc8>
    b7c4:	e5821000 	str	r1, [r2]
    b7c8:	e5941014 	ldr	r1, [r4, #20]
    b7cc:	e59f2038 	ldr	r2, [pc, #56]	; b80c <fb_init+0xcc>
    b7d0:	e5831000 	str	r1, [r3]
    b7d4:	e5941020 	ldr	r1, [r4, #32]
    b7d8:	e59f3030 	ldr	r3, [pc, #48]	; b810 <fb_init+0xd0>
    b7dc:	e5821000 	str	r1, [r2]
    b7e0:	e5942024 	ldr	r2, [r4, #36]	; 0x24
    b7e4:	e1a00005 	mov	r0, r5
    b7e8:	e5832000 	str	r2, [r3]
    b7ec:	e8bd8038 	pop	{r3, r4, r5, pc}
    b7f0:	e3e00000 	mvn	r0, #0
    b7f4:	e8bd8038 	pop	{r3, r4, r5, pc}
    b7f8:	40007000 	andmi	r7, r0, r0
    b7fc:	0001a57c 	andeq	sl, r1, ip, ror r5
    b800:	0001a588 	andeq	sl, r1, r8, lsl #11
    b804:	0001a578 	andeq	sl, r1, r8, ror r5
    b808:	0001a580 	andeq	sl, r1, r0, lsl #11
    b80c:	0001a584 	andeq	sl, r1, r4, lsl #11
    b810:	0001a58c 	andeq	sl, r1, ip, lsl #11
    b814:	00000000 	andeq	r0, r0, r0

0000b818 <hardware_uptime_seconds>:
    b818:	e59f1040 	ldr	r1, [pc, #64]	; b860 <hardware_uptime_seconds+0x48>
    b81c:	e59f0040 	ldr	r0, [pc, #64]	; b864 <hardware_uptime_seconds+0x4c>
    b820:	e5912004 	ldr	r2, [r1, #4]
    b824:	e92d4008 	push	{r3, lr}
    b828:	e5913008 	ldr	r3, [r1, #8]
    b82c:	e1c000d0 	ldrd	r0, [r0]
    b830:	e0520000 	subs	r0, r2, r0
    b834:	e0c31001 	sbc	r1, r3, r1
    b838:	eb002b35 	bl	16514 <__aeabi_ul2d>
    b83c:	ed9f7b05 	vldr	d7, [pc, #20]	; b858 <hardware_uptime_seconds+0x40>
    b840:	ec410b16 	vmov	d6, r0, r1
    b844:	ee867b07 	vdiv.f64	d7, d6, d7
    b848:	ec510b17 	vmov	r0, r1, d7
    b84c:	eb002b5d 	bl	165c8 <__aeabi_d2ulz>
    b850:	e8bd8008 	pop	{r3, pc}
    b854:	e320f000 	nop	{0}
    b858:	00000000 	andeq	r0, r0, r0
    b85c:	412e8480 	smlawbmi	lr, r0, r4, r8
    b860:	20003000 	andcs	r3, r0, r0
    b864:	0001a300 	andeq	sl, r1, r0, lsl #6

0000b868 <hardware_get_firmware_revision>:
    b868:	ea000335 	b	c544 <bcm2835_vc_get_get_firmware_revision>

0000b86c <hardware_get_firmware_copyright>:
    b86c:	e59f0000 	ldr	r0, [pc]	; b874 <hardware_get_firmware_copyright+0x8>
    b870:	e12fff1e 	bx	lr
    b874:	00016b28 	andeq	r6, r1, r8, lsr #22

0000b878 <hardware_get_firmware_copyright_length>:
    b878:	e3a0001b 	mov	r0, #27
    b87c:	e12fff1e 	bx	lr

0000b880 <hardware_get_board_model_id>:
    b880:	ea000360 	b	c608 <bcm2835_vc_get_get_board_revision>

0000b884 <hardware_get_board_model>:
    b884:	e92d4008 	push	{r3, lr}
    b888:	eb00035e 	bl	c608 <bcm2835_vc_get_get_board_revision>
    b88c:	e3500000 	cmp	r0, #0
    b890:	0a00001f 	beq	b914 <hardware_get_board_model+0x90>
    b894:	e3500002 	cmp	r0, #2
    b898:	0a000027 	beq	b93c <hardware_get_board_model+0xb8>
    b89c:	e3500003 	cmp	r0, #3
    b8a0:	0a000027 	beq	b944 <hardware_get_board_model+0xc0>
    b8a4:	e3500004 	cmp	r0, #4
    b8a8:	0a000027 	beq	b94c <hardware_get_board_model+0xc8>
    b8ac:	e3500005 	cmp	r0, #5
    b8b0:	0a000027 	beq	b954 <hardware_get_board_model+0xd0>
    b8b4:	e3500006 	cmp	r0, #6
    b8b8:	0a00001d 	beq	b934 <hardware_get_board_model+0xb0>
    b8bc:	e3500007 	cmp	r0, #7
    b8c0:	0a000025 	beq	b95c <hardware_get_board_model+0xd8>
    b8c4:	e3500008 	cmp	r0, #8
    b8c8:	0a000025 	beq	b964 <hardware_get_board_model+0xe0>
    b8cc:	e3500009 	cmp	r0, #9
    b8d0:	0a000025 	beq	b96c <hardware_get_board_model+0xe8>
    b8d4:	e350000d 	cmp	r0, #13
    b8d8:	0a000025 	beq	b974 <hardware_get_board_model+0xf0>
    b8dc:	e350000e 	cmp	r0, #14
    b8e0:	0a000025 	beq	b97c <hardware_get_board_model+0xf8>
    b8e4:	e350000f 	cmp	r0, #15
    b8e8:	0a000025 	beq	b984 <hardware_get_board_model+0x100>
    b8ec:	e3500010 	cmp	r0, #16
    b8f0:	0a000025 	beq	b98c <hardware_get_board_model+0x108>
    b8f4:	e3500011 	cmp	r0, #17
    b8f8:	0a000025 	beq	b994 <hardware_get_board_model+0x110>
    b8fc:	e3500012 	cmp	r0, #18
    b900:	0a000005 	beq	b91c <hardware_get_board_model+0x98>
    b904:	e59f3090 	ldr	r3, [pc, #144]	; b99c <hardware_get_board_model+0x118>
    b908:	e1500003 	cmp	r0, r3
    b90c:	03a0000f 	moveq	r0, #15
    b910:	0a000002 	beq	b920 <hardware_get_board_model+0x9c>
    b914:	e59f0084 	ldr	r0, [pc, #132]	; b9a0 <hardware_get_board_model+0x11c>
    b918:	e8bd8008 	pop	{r3, pc}
    b91c:	e3a0000e 	mov	r0, #14
    b920:	e59f307c 	ldr	r3, [pc, #124]	; b9a4 <hardware_get_board_model+0x120>
    b924:	e0800080 	add	r0, r0, r0, lsl #1
    b928:	e0830180 	add	r0, r3, r0, lsl #3
    b92c:	e2800004 	add	r0, r0, #4
    b930:	e8bd8008 	pop	{r3, pc}
    b934:	e3a00005 	mov	r0, #5
    b938:	eafffff8 	b	b920 <hardware_get_board_model+0x9c>
    b93c:	e3a00001 	mov	r0, #1
    b940:	eafffff6 	b	b920 <hardware_get_board_model+0x9c>
    b944:	e3a00002 	mov	r0, #2
    b948:	eafffff4 	b	b920 <hardware_get_board_model+0x9c>
    b94c:	e3a00003 	mov	r0, #3
    b950:	eafffff2 	b	b920 <hardware_get_board_model+0x9c>
    b954:	e3a00004 	mov	r0, #4
    b958:	eafffff0 	b	b920 <hardware_get_board_model+0x9c>
    b95c:	e3a00006 	mov	r0, #6
    b960:	eaffffee 	b	b920 <hardware_get_board_model+0x9c>
    b964:	e3a00007 	mov	r0, #7
    b968:	eaffffec 	b	b920 <hardware_get_board_model+0x9c>
    b96c:	e3a00008 	mov	r0, #8
    b970:	eaffffea 	b	b920 <hardware_get_board_model+0x9c>
    b974:	e3a00009 	mov	r0, #9
    b978:	eaffffe8 	b	b920 <hardware_get_board_model+0x9c>
    b97c:	e3a0000a 	mov	r0, #10
    b980:	eaffffe6 	b	b920 <hardware_get_board_model+0x9c>
    b984:	e3a0000b 	mov	r0, #11
    b988:	eaffffe4 	b	b920 <hardware_get_board_model+0x9c>
    b98c:	e3a0000c 	mov	r0, #12
    b990:	eaffffe2 	b	b920 <hardware_get_board_model+0x9c>
    b994:	e3a0000d 	mov	r0, #13
    b998:	eaffffe0 	b	b920 <hardware_get_board_model+0x9c>
    b99c:	00a01041 	adceq	r1, r0, r1, asr #32
    b9a0:	00016b48 	andeq	r6, r1, r8, asr #22
    b9a4:	00016b44 	andeq	r6, r1, r4, asr #22

0000b9a8 <hardware_get_board_model_length>:
    b9a8:	e3a00014 	mov	r0, #20
    b9ac:	e12fff1e 	bx	lr

0000b9b0 <hardware_led_init>:
    b9b0:	e59f3004 	ldr	r3, [pc, #4]	; b9bc <hardware_led_init+0xc>
    b9b4:	e5933000 	ldr	r3, [r3]
    b9b8:	e12fff13 	bx	r3
    b9bc:	0001793c 	andeq	r7, r1, ip, lsr r9

0000b9c0 <hardware_led_set>:
    b9c0:	e59f3004 	ldr	r3, [pc, #4]	; b9cc <hardware_led_set+0xc>
    b9c4:	e5933004 	ldr	r3, [r3, #4]
    b9c8:	e12fff13 	bx	r3
    b9cc:	0001793c 	andeq	r7, r1, ip, lsr r9

0000b9d0 <hardware_rtc_set>:
    b9d0:	e92d4070 	push	{r4, r5, r6, lr}
    b9d4:	e1d030b6 	ldrh	r3, [r0, #6]
    b9d8:	e5d04002 	ldrb	r4, [r0, #2]
    b9dc:	e5d0e001 	ldrb	lr, [r0, #1]
    b9e0:	e5d0c000 	ldrb	ip, [r0]
    b9e4:	e5d01003 	ldrb	r1, [r0, #3]
    b9e8:	e5d02004 	ldrb	r2, [r0, #4]
    b9ec:	e24dd048 	sub	sp, sp, #72	; 0x48
    b9f0:	e2433e7d 	sub	r3, r3, #2000	; 0x7d0
    b9f4:	e3a00000 	mov	r0, #0
    b9f8:	e58d3014 	str	r3, [sp, #20]
    b9fc:	e58d4008 	str	r4, [sp, #8]
    ba00:	e88d5000 	stm	sp, {ip, lr}
    ba04:	e58d100c 	str	r1, [sp, #12]
    ba08:	e58d2010 	str	r2, [sp, #16]
    ba0c:	eb000091 	bl	bc58 <mcp7941x_start>
    ba10:	e3500001 	cmp	r0, #1
    ba14:	0a000001 	beq	ba20 <hardware_rtc_set+0x50>
    ba18:	e1a0000d 	mov	r0, sp
    ba1c:	eb0000ea 	bl	bdcc <mcp7941x_set_date_time>
    ba20:	e99d0030 	ldmib	sp, {r4, r5}
    ba24:	e3a06000 	mov	r6, #0
    ba28:	e59de000 	ldr	lr, [sp]
    ba2c:	e59dc00c 	ldr	ip, [sp, #12]
    ba30:	e59d1018 	ldr	r1, [sp, #24]
    ba34:	e59d2010 	ldr	r2, [sp, #16]
    ba38:	e59d3014 	ldr	r3, [sp, #20]
    ba3c:	e28d0024 	add	r0, sp, #36	; 0x24
    ba40:	e58d6044 	str	r6, [sp, #68]	; 0x44
    ba44:	e58d502c 	str	r5, [sp, #44]	; 0x2c
    ba48:	e58d4028 	str	r4, [sp, #40]	; 0x28
    ba4c:	e58de024 	str	lr, [sp, #36]	; 0x24
    ba50:	e58dc030 	str	ip, [sp, #48]	; 0x30
    ba54:	e58d103c 	str	r1, [sp, #60]	; 0x3c
    ba58:	e58d2034 	str	r2, [sp, #52]	; 0x34
    ba5c:	e58d3038 	str	r3, [sp, #56]	; 0x38
    ba60:	eb000058 	bl	bbc8 <sys_time_set>
    ba64:	e28dd048 	add	sp, sp, #72	; 0x48
    ba68:	e8bd8070 	pop	{r4, r5, r6, pc}

0000ba6c <hardware_init>:
    ba6c:	e59f1054 	ldr	r1, [pc, #84]	; bac8 <hardware_init+0x5c>
    ba70:	e59f0054 	ldr	r0, [pc, #84]	; bacc <hardware_init+0x60>
    ba74:	e5912004 	ldr	r2, [r1, #4]
    ba78:	e5913008 	ldr	r3, [r1, #8]
    ba7c:	e92d4010 	push	{r4, lr}
    ba80:	e1c020f0 	strd	r2, [r0]
    ba84:	eb00001d 	bl	bb00 <sys_time_init>
    ba88:	ebffff2c 	bl	b740 <fb_init>
    ba8c:	eb0002dd 	bl	c608 <bcm2835_vc_get_get_board_revision>
    ba90:	e350000f 	cmp	r0, #15
    ba94:	959f4034 	ldrls	r4, [pc, #52]	; bad0 <hardware_init+0x64>
    ba98:	859f2034 	ldrhi	r2, [pc, #52]	; bad4 <hardware_init+0x68>
    ba9c:	859f402c 	ldrhi	r4, [pc, #44]	; bad0 <hardware_init+0x64>
    baa0:	859f1030 	ldrhi	r1, [pc, #48]	; bad8 <hardware_init+0x6c>
    baa4:	95943000 	ldrls	r3, [r4]
    baa8:	81a03002 	movhi	r3, r2
    baac:	85842000 	strhi	r2, [r4]
    bab0:	85841004 	strhi	r1, [r4, #4]
    bab4:	e12fff33 	blx	r3
    bab8:	e5943004 	ldr	r3, [r4, #4]
    babc:	e3a00001 	mov	r0, #1
    bac0:	e8bd4010 	pop	{r4, lr}
    bac4:	e12fff13 	bx	r3
    bac8:	20003000 	andcs	r3, r0, r0
    bacc:	0001a300 	andeq	sl, r1, r0, lsl #6
    bad0:	0001793c 	andeq	r7, r1, ip, lsr r9
    bad4:	0000c234 	andeq	ip, r0, r4, lsr r2
    bad8:	0000c218 	andeq	ip, r0, r8, lsl r2

0000badc <hardware_reboot>:
    badc:	e92d4008 	push	{r3, lr}
    bae0:	e59f3010 	ldr	r3, [pc, #16]	; baf8 <hardware_reboot+0x1c>
    bae4:	e3a00001 	mov	r0, #1
    bae8:	e5933004 	ldr	r3, [r3, #4]
    baec:	e12fff33 	blx	r3
    baf0:	eb0002e3 	bl	c684 <watchdog_init>
    baf4:	eafffffe 	b	baf4 <hardware_reboot+0x18>
    baf8:	0001793c 	andeq	r7, r1, ip, lsr r9
    bafc:	e320f000 	nop	{0}

0000bb00 <sys_time_init>:
    bb00:	e92d40f0 	push	{r4, r5, r6, r7, lr}
    bb04:	e59f10b4 	ldr	r1, [pc, #180]	; bbc0 <sys_time_init+0xc0>
    bb08:	e59f40b4 	ldr	r4, [pc, #180]	; bbc4 <sys_time_init+0xc4>
    bb0c:	e5912004 	ldr	r2, [r1, #4]
    bb10:	e5913008 	ldr	r3, [r1, #8]
    bb14:	e24dd04c 	sub	sp, sp, #76	; 0x4c
    bb18:	e3a00000 	mov	r0, #0
    bb1c:	e1c420f0 	strd	r2, [r4]
    bb20:	eb00004c 	bl	bc58 <mcp7941x_start>
    bb24:	e3500001 	cmp	r0, #1
    bb28:	e1a03000 	mov	r3, r0
    bb2c:	0a000015 	beq	bb88 <sys_time_init+0x88>
    bb30:	e3a07000 	mov	r7, #0
    bb34:	e1a0000d 	mov	r0, sp
    bb38:	eb00005b 	bl	bcac <mcp7941x_get_date_time>
    bb3c:	e99d0060 	ldmib	sp, {r5, r6}
    bb40:	e59de000 	ldr	lr, [sp]
    bb44:	e59dc00c 	ldr	ip, [sp, #12]
    bb48:	e59d1018 	ldr	r1, [sp, #24]
    bb4c:	e59d2010 	ldr	r2, [sp, #16]
    bb50:	e59d3014 	ldr	r3, [sp, #20]
    bb54:	e28d0024 	add	r0, sp, #36	; 0x24
    bb58:	e58d7044 	str	r7, [sp, #68]	; 0x44
    bb5c:	e58d602c 	str	r6, [sp, #44]	; 0x2c
    bb60:	e58d5028 	str	r5, [sp, #40]	; 0x28
    bb64:	e58de024 	str	lr, [sp, #36]	; 0x24
    bb68:	e58dc030 	str	ip, [sp, #48]	; 0x30
    bb6c:	e58d103c 	str	r1, [sp, #60]	; 0x3c
    bb70:	e58d2034 	str	r2, [sp, #52]	; 0x34
    bb74:	e58d3038 	str	r3, [sp, #56]	; 0x38
    bb78:	eb0009f9 	bl	e364 <mktime>
    bb7c:	e5840008 	str	r0, [r4, #8]
    bb80:	e28dd04c 	add	sp, sp, #76	; 0x4c
    bb84:	e8bd80f0 	pop	{r4, r5, r6, r7, pc}
    bb88:	e3a02000 	mov	r2, #0
    bb8c:	e3a0100f 	mov	r1, #15
    bb90:	e28d0024 	add	r0, sp, #36	; 0x24
    bb94:	e58d3030 	str	r3, [sp, #48]	; 0x30
    bb98:	e58d3034 	str	r3, [sp, #52]	; 0x34
    bb9c:	e58d202c 	str	r2, [sp, #44]	; 0x2c
    bba0:	e58d2028 	str	r2, [sp, #40]	; 0x28
    bba4:	e58d2024 	str	r2, [sp, #36]	; 0x24
    bba8:	e58d2044 	str	r2, [sp, #68]	; 0x44
    bbac:	e58d1038 	str	r1, [sp, #56]	; 0x38
    bbb0:	eb0009eb 	bl	e364 <mktime>
    bbb4:	e5840008 	str	r0, [r4, #8]
    bbb8:	e28dd04c 	add	sp, sp, #76	; 0x4c
    bbbc:	e8bd80f0 	pop	{r4, r5, r6, r7, pc}
    bbc0:	20003000 	andcs	r3, r0, r0
    bbc4:	0001a308 	andeq	sl, r1, r8, lsl #6

0000bbc8 <sys_time_set>:
    bbc8:	e59f101c 	ldr	r1, [pc, #28]	; bbec <sys_time_set+0x24>
    bbcc:	e92d4010 	push	{r4, lr}
    bbd0:	e5912004 	ldr	r2, [r1, #4]
    bbd4:	e59f4014 	ldr	r4, [pc, #20]	; bbf0 <sys_time_set+0x28>
    bbd8:	e5913008 	ldr	r3, [r1, #8]
    bbdc:	e1c420f0 	strd	r2, [r4]
    bbe0:	eb0009df 	bl	e364 <mktime>
    bbe4:	e5840008 	str	r0, [r4, #8]
    bbe8:	e8bd8010 	pop	{r4, pc}
    bbec:	20003000 	andcs	r3, r0, r0
    bbf0:	0001a308 	andeq	sl, r1, r8, lsl #6

0000bbf4 <sys_time>:
    bbf4:	e59f1054 	ldr	r1, [pc, #84]	; bc50 <sys_time+0x5c>
    bbf8:	e59fc054 	ldr	ip, [pc, #84]	; bc54 <sys_time+0x60>
    bbfc:	e5912004 	ldr	r2, [r1, #4]
    bc00:	e92d4038 	push	{r3, r4, r5, lr}
    bc04:	e5913008 	ldr	r3, [r1, #8]
    bc08:	e1a05000 	mov	r5, r0
    bc0c:	e1cc00d0 	ldrd	r0, [ip]
    bc10:	e0520000 	subs	r0, r2, r0
    bc14:	e0c31001 	sbc	r1, r3, r1
    bc18:	e59c4008 	ldr	r4, [ip, #8]
    bc1c:	eb002a3c 	bl	16514 <__aeabi_ul2d>
    bc20:	ed9f7b08 	vldr	d7, [pc, #32]	; bc48 <sys_time+0x54>
    bc24:	ec410b16 	vmov	d6, r0, r1
    bc28:	ee867b07 	vdiv.f64	d7, d6, d7
    bc2c:	ec510b17 	vmov	r0, r1, d7
    bc30:	eb002a64 	bl	165c8 <__aeabi_d2ulz>
    bc34:	e3550000 	cmp	r5, #0
    bc38:	e0840000 	add	r0, r4, r0
    bc3c:	15850000 	strne	r0, [r5]
    bc40:	e8bd8038 	pop	{r3, r4, r5, pc}
    bc44:	e320f000 	nop	{0}
    bc48:	00000000 	andeq	r0, r0, r0
    bc4c:	412e8480 	smlawbmi	lr, r0, r4, r8
    bc50:	20003000 	andcs	r3, r0, r0
    bc54:	0001a308 	andeq	sl, r1, r8, lsl #6

0000bc58 <mcp7941x_start>:
    bc58:	e92d4010 	push	{r4, lr}
    bc5c:	e1a04000 	mov	r4, r0
    bc60:	eb0000b3 	bl	bf34 <bcm2835_i2c_begin>
    bc64:	e3540000 	cmp	r4, #0
    bc68:	11a03004 	movne	r3, r4
    bc6c:	03a0306f 	moveq	r3, #111	; 0x6f
    bc70:	e59f2028 	ldr	r2, [pc, #40]	; bca0 <mcp7941x_start+0x48>
    bc74:	e1a00003 	mov	r0, r3
    bc78:	e5c23000 	strb	r3, [r2]
    bc7c:	eb0000c1 	bl	bf88 <bcm2835_i2c_setSlaveAddress>
    bc80:	e59f001c 	ldr	r0, [pc, #28]	; bca4 <mcp7941x_start+0x4c>
    bc84:	eb0000c3 	bl	bf98 <bcm2835_i2c_setClockDivider>
    bc88:	e3a00000 	mov	r0, #0
    bc8c:	e1a01000 	mov	r1, r0
    bc90:	eb0000c4 	bl	bfa8 <bcm2835_i2c_write>
    bc94:	e2900000 	adds	r0, r0, #0
    bc98:	13a00001 	movne	r0, #1
    bc9c:	e8bd8010 	pop	{r4, pc}
    bca0:	00017944 	andeq	r7, r1, r4, asr #18
    bca4:	000009c4 	andeq	r0, r0, r4, asr #19

0000bca8 <mcp7941x_end>:
    bca8:	ea0000b0 	b	bf70 <bcm2835_i2c_end>

0000bcac <mcp7941x_get_date_time>:
    bcac:	e3a03000 	mov	r3, #0
    bcb0:	e92d4ff0 	push	{r4, r5, r6, r7, r8, r9, sl, fp, lr}
    bcb4:	e59f2108 	ldr	r2, [pc, #264]	; bdc4 <mcp7941x_get_date_time+0x118>
    bcb8:	e24dd014 	sub	sp, sp, #20
    bcbc:	e1a04000 	mov	r4, r0
    bcc0:	e3a0a00a 	mov	sl, #10
    bcc4:	e5d20000 	ldrb	r0, [r2]
    bcc8:	e5cd3004 	strb	r3, [sp, #4]
    bccc:	e5cd3008 	strb	r3, [sp, #8]
    bcd0:	e5cd3009 	strb	r3, [sp, #9]
    bcd4:	e5cd300a 	strb	r3, [sp, #10]
    bcd8:	e5cd300b 	strb	r3, [sp, #11]
    bcdc:	e5cd300c 	strb	r3, [sp, #12]
    bce0:	e5cd300d 	strb	r3, [sp, #13]
    bce4:	e5cd300e 	strb	r3, [sp, #14]
    bce8:	eb0000a6 	bl	bf88 <bcm2835_i2c_setSlaveAddress>
    bcec:	e59f00d4 	ldr	r0, [pc, #212]	; bdc8 <mcp7941x_get_date_time+0x11c>
    bcf0:	eb0000a8 	bl	bf98 <bcm2835_i2c_setClockDivider>
    bcf4:	e28d0004 	add	r0, sp, #4
    bcf8:	e3a01001 	mov	r1, #1
    bcfc:	eb0000a9 	bl	bfa8 <bcm2835_i2c_write>
    bd00:	e28d0008 	add	r0, sp, #8
    bd04:	e3a01007 	mov	r1, #7
    bd08:	eb0000ee 	bl	c0c8 <bcm2835_i2c_read>
    bd0c:	e5dd300d 	ldrb	r3, [sp, #13]
    bd10:	e5dde00e 	ldrb	lr, [sp, #14]
    bd14:	e5ddc008 	ldrb	ip, [sp, #8]
    bd18:	e5dd0009 	ldrb	r0, [sp, #9]
    bd1c:	e5dd100a 	ldrb	r1, [sp, #10]
    bd20:	e5dd200c 	ldrb	r2, [sp, #12]
    bd24:	e203801f 	and	r8, r3, #31
    bd28:	e20e900f 	and	r9, lr, #15
    bd2c:	e1a0e22e 	lsr	lr, lr, #4
    bd30:	e1099e8a 	smlabb	r9, sl, lr, r9
    bd34:	e20c707f 	and	r7, ip, #127	; 0x7f
    bd38:	e200607f 	and	r6, r0, #127	; 0x7f
    bd3c:	e201503f 	and	r5, r1, #63	; 0x3f
    bd40:	e1a08248 	asr	r8, r8, #4
    bd44:	e202e03f 	and	lr, r2, #63	; 0x3f
    bd48:	e5dda00b 	ldrb	sl, [sp, #11]
    bd4c:	e1a0b108 	lsl	fp, r8, #2
    bd50:	e1a07247 	asr	r7, r7, #4
    bd54:	e1a06246 	asr	r6, r6, #4
    bd58:	e1a05245 	asr	r5, r5, #4
    bd5c:	e1a0e24e 	asr	lr, lr, #4
    bd60:	e20cc00f 	and	ip, ip, #15
    bd64:	e200000f 	and	r0, r0, #15
    bd68:	e201100f 	and	r1, r1, #15
    bd6c:	e202200f 	and	r2, r2, #15
    bd70:	e203300f 	and	r3, r3, #15
    bd74:	e08b8008 	add	r8, fp, r8
    bd78:	e0877107 	add	r7, r7, r7, lsl #2
    bd7c:	e0866106 	add	r6, r6, r6, lsl #2
    bd80:	e0855105 	add	r5, r5, r5, lsl #2
    bd84:	e08ee10e 	add	lr, lr, lr, lsl #2
    bd88:	e08c7087 	add	r7, ip, r7, lsl #1
    bd8c:	e0806086 	add	r6, r0, r6, lsl #1
    bd90:	e0815085 	add	r5, r1, r5, lsl #1
    bd94:	e20aa007 	and	sl, sl, #7
    bd98:	e082e08e 	add	lr, r2, lr, lsl #1
    bd9c:	e0838088 	add	r8, r3, r8, lsl #1
    bda0:	e5847000 	str	r7, [r4]
    bda4:	e5846004 	str	r6, [r4, #4]
    bda8:	e5845008 	str	r5, [r4, #8]
    bdac:	e584a018 	str	sl, [r4, #24]
    bdb0:	e584e00c 	str	lr, [r4, #12]
    bdb4:	e5848010 	str	r8, [r4, #16]
    bdb8:	e5849014 	str	r9, [r4, #20]
    bdbc:	e28dd014 	add	sp, sp, #20
    bdc0:	e8bd8ff0 	pop	{r4, r5, r6, r7, r8, r9, sl, fp, pc}
    bdc4:	00017944 	andeq	r7, r1, r4, asr #18
    bdc8:	000009c4 	andeq	r0, r0, r4, asr #19

0000bdcc <mcp7941x_set_date_time>:
    bdcc:	e5902000 	ldr	r2, [r0]
    bdd0:	e59f1108 	ldr	r1, [pc, #264]	; bee0 <mcp7941x_set_date_time+0x114>
    bdd4:	e202207f 	and	r2, r2, #127	; 0x7f
    bdd8:	e0c3c291 	smull	ip, r3, r1, r2
    bddc:	e1a03123 	lsr	r3, r3, #2
    bde0:	e083c103 	add	ip, r3, r3, lsl #2
    bde4:	e042208c 	sub	r2, r2, ip, lsl #1
    bde8:	e0823203 	add	r3, r2, r3, lsl #4
    bdec:	e1e03c83 	mvn	r3, r3, lsl #25
    bdf0:	e92d4ff0 	push	{r4, r5, r6, r7, r8, r9, sl, fp, lr}
    bdf4:	e1e03ca3 	mvn	r3, r3, lsr #25
    bdf8:	e3a0a000 	mov	sl, #0
    bdfc:	e5909004 	ldr	r9, [r0, #4]
    be00:	e5908008 	ldr	r8, [r0, #8]
    be04:	e590700c 	ldr	r7, [r0, #12]
    be08:	e5906010 	ldr	r6, [r0, #16]
    be0c:	e590b014 	ldr	fp, [r0, #20]
    be10:	e209907f 	and	r9, r9, #127	; 0x7f
    be14:	e0c52991 	smull	r2, r5, r1, r9
    be18:	e206601f 	and	r6, r6, #31
    be1c:	e208801f 	and	r8, r8, #31
    be20:	e207703f 	and	r7, r7, #63	; 0x3f
    be24:	e0c42891 	smull	r2, r4, r1, r8
    be28:	e0ce2791 	smull	r2, lr, r1, r7
    be2c:	e0cc2691 	smull	r2, ip, r1, r6
    be30:	e0c12b91 	smull	r2, r1, r1, fp
    be34:	e1a05125 	lsr	r5, r5, #2
    be38:	e1a02fcb 	asr	r2, fp, #31
    be3c:	e0621141 	rsb	r1, r2, r1, asr #2
    be40:	e1a04124 	lsr	r4, r4, #2
    be44:	e0852105 	add	r2, r5, r5, lsl #2
    be48:	e0499082 	sub	r9, r9, r2, lsl #1
    be4c:	e1a0e12e 	lsr	lr, lr, #2
    be50:	e0842104 	add	r2, r4, r4, lsl #2
    be54:	e0488082 	sub	r8, r8, r2, lsl #1
    be58:	e1a0c12c 	lsr	ip, ip, #2
    be5c:	e08e210e 	add	r2, lr, lr, lsl #2
    be60:	e0477082 	sub	r7, r7, r2, lsl #1
    be64:	e08c210c 	add	r2, ip, ip, lsl #2
    be68:	e0462082 	sub	r2, r6, r2, lsl #1
    be6c:	e5900018 	ldr	r0, [r0, #24]
    be70:	e0816101 	add	r6, r1, r1, lsl #2
    be74:	e04bb086 	sub	fp, fp, r6, lsl #1
    be78:	e59f6064 	ldr	r6, [pc, #100]	; bee4 <mcp7941x_set_date_time+0x118>
    be7c:	e2000007 	and	r0, r0, #7
    be80:	e24dd00c 	sub	sp, sp, #12
    be84:	e087e20e 	add	lr, r7, lr, lsl #4
    be88:	e082c20c 	add	ip, r2, ip, lsl #4
    be8c:	e08b1201 	add	r1, fp, r1, lsl #4
    be90:	e0884204 	add	r4, r8, r4, lsl #4
    be94:	e0895205 	add	r5, r9, r5, lsl #4
    be98:	e3808008 	orr	r8, r0, #8
    be9c:	e5d60000 	ldrb	r0, [r6]
    bea0:	e5cd3001 	strb	r3, [sp, #1]
    bea4:	e5cde005 	strb	lr, [sp, #5]
    bea8:	e5cdc006 	strb	ip, [sp, #6]
    beac:	e5cd1007 	strb	r1, [sp, #7]
    beb0:	e5cd5002 	strb	r5, [sp, #2]
    beb4:	e5cd4003 	strb	r4, [sp, #3]
    beb8:	e5cd8004 	strb	r8, [sp, #4]
    bebc:	e5cda000 	strb	sl, [sp]
    bec0:	eb000030 	bl	bf88 <bcm2835_i2c_setSlaveAddress>
    bec4:	e59f001c 	ldr	r0, [pc, #28]	; bee8 <mcp7941x_set_date_time+0x11c>
    bec8:	eb000032 	bl	bf98 <bcm2835_i2c_setClockDivider>
    becc:	e1a0000d 	mov	r0, sp
    bed0:	e3a01008 	mov	r1, #8
    bed4:	eb000033 	bl	bfa8 <bcm2835_i2c_write>
    bed8:	e28dd00c 	add	sp, sp, #12
    bedc:	e8bd8ff0 	pop	{r4, r5, r6, r7, r8, r9, sl, fp, pc}
    bee0:	66666667 	strbtvs	r6, [r6], -r7, ror #12
    bee4:	00017944 	andeq	r7, r1, r4, asr #18
    bee8:	000009c4 	andeq	r0, r0, r4, asr #19

0000beec <bcm2835_gpio_set_pud>:
    beec:	e92d4038 	push	{r3, r4, r5, lr}
    bef0:	e59f4038 	ldr	r4, [pc, #56]	; bf30 <bcm2835_gpio_set_pud+0x44>
    bef4:	e1a05000 	mov	r5, r0
    bef8:	e5841094 	str	r1, [r4, #148]	; 0x94
    befc:	e3a0000a 	mov	r0, #10
    bf00:	e3a01000 	mov	r1, #0
    bf04:	eb000208 	bl	c72c <udelay>
    bf08:	e3a03001 	mov	r3, #1
    bf0c:	e1a00513 	lsl	r0, r3, r5
    bf10:	e5840098 	str	r0, [r4, #152]	; 0x98
    bf14:	e3a01000 	mov	r1, #0
    bf18:	e3a0000a 	mov	r0, #10
    bf1c:	eb000202 	bl	c72c <udelay>
    bf20:	e3a03000 	mov	r3, #0
    bf24:	e5843094 	str	r3, [r4, #148]	; 0x94
    bf28:	e5843098 	str	r3, [r4, #152]	; 0x98
    bf2c:	e8bd8038 	pop	{r3, r4, r5, pc}
    bf30:	20200000 	eorcs	r0, r0, r0

0000bf34 <bcm2835_i2c_begin>:
    bf34:	e59f2028 	ldr	r2, [pc, #40]	; bf64 <bcm2835_i2c_begin+0x30>
    bf38:	e59f1028 	ldr	r1, [pc, #40]	; bf68 <bcm2835_i2c_begin+0x34>
    bf3c:	e5923000 	ldr	r3, [r2]
    bf40:	e59f0024 	ldr	r0, [pc, #36]	; bf6c <bcm2835_i2c_begin+0x38>
    bf44:	e3c33d3f 	bic	r3, r3, #4032	; 0xfc0
    bf48:	e5823000 	str	r3, [r2]
    bf4c:	e5923000 	ldr	r3, [r2]
    bf50:	e3c33d3f 	bic	r3, r3, #4032	; 0xfc0
    bf54:	e3833c09 	orr	r3, r3, #2304	; 0x900
    bf58:	e5823000 	str	r3, [r2]
    bf5c:	e5810014 	str	r0, [r1, #20]
    bf60:	e12fff1e 	bx	lr
    bf64:	20200000 	eorcs	r0, r0, r0
    bf68:	20804000 	addcs	r4, r0, r0
    bf6c:	000009c4 	andeq	r0, r0, r4, asr #19

0000bf70 <bcm2835_i2c_end>:
    bf70:	e59f200c 	ldr	r2, [pc, #12]	; bf84 <bcm2835_i2c_end+0x14>
    bf74:	e5923000 	ldr	r3, [r2]
    bf78:	e3c33d3f 	bic	r3, r3, #4032	; 0xfc0
    bf7c:	e5823000 	str	r3, [r2]
    bf80:	e12fff1e 	bx	lr
    bf84:	20200000 	eorcs	r0, r0, r0

0000bf88 <bcm2835_i2c_setSlaveAddress>:
    bf88:	e59f3004 	ldr	r3, [pc, #4]	; bf94 <bcm2835_i2c_setSlaveAddress+0xc>
    bf8c:	e583000c 	str	r0, [r3, #12]
    bf90:	e12fff1e 	bx	lr
    bf94:	20804000 	addcs	r4, r0, r0

0000bf98 <bcm2835_i2c_setClockDivider>:
    bf98:	e59f3004 	ldr	r3, [pc, #4]	; bfa4 <bcm2835_i2c_setClockDivider+0xc>
    bf9c:	e5830014 	str	r0, [r3, #20]
    bfa0:	e12fff1e 	bx	lr
    bfa4:	20804000 	addcs	r4, r0, r0

0000bfa8 <bcm2835_i2c_write>:
    bfa8:	e3a02020 	mov	r2, #32
    bfac:	e92d4010 	push	{r4, lr}
    bfb0:	e59f3104 	ldr	r3, [pc, #260]	; c0bc <bcm2835_i2c_write+0x114>
    bfb4:	e59f4104 	ldr	r4, [pc, #260]	; c0c0 <bcm2835_i2c_write+0x118>
    bfb8:	e3510000 	cmp	r1, #0
    bfbc:	e5842000 	str	r2, [r4]
    bfc0:	e5843004 	str	r3, [r4, #4]
    bfc4:	e5841008 	str	r1, [r4, #8]
    bfc8:	0a000039 	beq	c0b4 <bcm2835_i2c_write+0x10c>
    bfcc:	e3a03000 	mov	r3, #0
    bfd0:	e240c001 	sub	ip, r0, #1
    bfd4:	e2511001 	subs	r1, r1, #1
    bfd8:	13a02001 	movne	r2, #1
    bfdc:	03a02000 	moveq	r2, #0
    bfe0:	e2833001 	add	r3, r3, #1
    bfe4:	e353000f 	cmp	r3, #15
    bfe8:	83a02000 	movhi	r2, #0
    bfec:	92022001 	andls	r2, r2, #1
    bff0:	e5fce001 	ldrb	lr, [ip, #1]!
    bff4:	e3520000 	cmp	r2, #0
    bff8:	e584e010 	str	lr, [r4, #16]
    bffc:	1afffff4 	bne	bfd4 <bcm2835_i2c_write+0x2c>
    c000:	e59fc0b8 	ldr	ip, [pc, #184]	; c0c0 <bcm2835_i2c_write+0x118>
    c004:	e59fe0b8 	ldr	lr, [pc, #184]	; c0c4 <bcm2835_i2c_write+0x11c>
    c008:	e1a0200c 	mov	r2, ip
    c00c:	e58ce000 	str	lr, [ip]
    c010:	e592c004 	ldr	ip, [r2, #4]
    c014:	e59fe0a4 	ldr	lr, [pc, #164]	; c0c0 <bcm2835_i2c_write+0x118>
    c018:	e31c0002 	tst	ip, #2
    c01c:	1a000011 	bne	c068 <bcm2835_i2c_write+0xc0>
    c020:	e3510000 	cmp	r1, #0
    c024:	0afffff9 	beq	c010 <bcm2835_i2c_write+0x68>
    c028:	e592c004 	ldr	ip, [r2, #4]
    c02c:	e31c0010 	tst	ip, #16
    c030:	0afffff6 	beq	c010 <bcm2835_i2c_write+0x68>
    c034:	e080c003 	add	ip, r0, r3
    c038:	e4dce001 	ldrb	lr, [ip], #1
    c03c:	e2511001 	subs	r1, r1, #1
    c040:	e2833001 	add	r3, r3, #1
    c044:	e582e010 	str	lr, [r2, #16]
    c048:	0afffff0 	beq	c010 <bcm2835_i2c_write+0x68>
    c04c:	e592e004 	ldr	lr, [r2, #4]
    c050:	e31e0010 	tst	lr, #16
    c054:	1afffff7 	bne	c038 <bcm2835_i2c_write+0x90>
    c058:	e592c004 	ldr	ip, [r2, #4]
    c05c:	e59fe05c 	ldr	lr, [pc, #92]	; c0c0 <bcm2835_i2c_write+0x118>
    c060:	e31c0002 	tst	ip, #2
    c064:	0affffed 	beq	c020 <bcm2835_i2c_write+0x78>
    c068:	e59e3004 	ldr	r3, [lr, #4]
    c06c:	e3130c01 	tst	r3, #256	; 0x100
    c070:	1a00000b 	bne	c0a4 <bcm2835_i2c_write+0xfc>
    c074:	e59e3004 	ldr	r3, [lr, #4]
    c078:	e3130c02 	tst	r3, #512	; 0x200
    c07c:	13a00002 	movne	r0, #2
    c080:	0a000003 	beq	c094 <bcm2835_i2c_write+0xec>
    c084:	e3a02002 	mov	r2, #2
    c088:	e59f3030 	ldr	r3, [pc, #48]	; c0c0 <bcm2835_i2c_write+0x118>
    c08c:	e5832000 	str	r2, [r3]
    c090:	e8bd8010 	pop	{r4, pc}
    c094:	e3510000 	cmp	r1, #0
    c098:	13a00004 	movne	r0, #4
    c09c:	03a00000 	moveq	r0, #0
    c0a0:	eafffff7 	b	c084 <bcm2835_i2c_write+0xdc>
    c0a4:	e3a03c01 	mov	r3, #256	; 0x100
    c0a8:	e3a00001 	mov	r0, #1
    c0ac:	e58e3004 	str	r3, [lr, #4]
    c0b0:	eafffff3 	b	c084 <bcm2835_i2c_write+0xdc>
    c0b4:	e1a03001 	mov	r3, r1
    c0b8:	eaffffd0 	b	c000 <bcm2835_i2c_write+0x58>
    c0bc:	00000302 	andeq	r0, r0, r2, lsl #6
    c0c0:	20804000 	addcs	r4, r0, r0
    c0c4:	00008080 	andeq	r8, r0, r0, lsl #1

0000c0c8 <bcm2835_i2c_read>:
    c0c8:	e3a03020 	mov	r3, #32
    c0cc:	e59fc100 	ldr	ip, [pc, #256]	; c1d4 <bcm2835_i2c_read+0x10c>
    c0d0:	e59f2100 	ldr	r2, [pc, #256]	; c1d8 <bcm2835_i2c_read+0x110>
    c0d4:	e52de004 	push	{lr}		; (str lr, [sp, #-4]!)
    c0d8:	e58c3000 	str	r3, [ip]
    c0dc:	e58c2004 	str	r2, [ip, #4]
    c0e0:	e1a03001 	mov	r3, r1
    c0e4:	e58c1008 	str	r1, [ip, #8]
    c0e8:	e1a0200c 	mov	r2, ip
    c0ec:	e3a01000 	mov	r1, #0
    c0f0:	e59fe0e4 	ldr	lr, [pc, #228]	; c1dc <bcm2835_i2c_read+0x114>
    c0f4:	e58ce000 	str	lr, [ip]
    c0f8:	e592e004 	ldr	lr, [r2, #4]
    c0fc:	e59fc0d0 	ldr	ip, [pc, #208]	; c1d4 <bcm2835_i2c_read+0x10c>
    c100:	e31e0002 	tst	lr, #2
    c104:	1a00000e 	bne	c144 <bcm2835_i2c_read+0x7c>
    c108:	e592c004 	ldr	ip, [r2, #4]
    c10c:	e31c0020 	tst	ip, #32
    c110:	0afffff8 	beq	c0f8 <bcm2835_i2c_read+0x30>
    c114:	e080c001 	add	ip, r0, r1
    c118:	e592e010 	ldr	lr, [r2, #16]
    c11c:	e2811001 	add	r1, r1, #1
    c120:	e4cce001 	strb	lr, [ip], #1
    c124:	e592e004 	ldr	lr, [r2, #4]
    c128:	e2433001 	sub	r3, r3, #1
    c12c:	e31e0020 	tst	lr, #32
    c130:	1afffff8 	bne	c118 <bcm2835_i2c_read+0x50>
    c134:	e592e004 	ldr	lr, [r2, #4]
    c138:	e59fc094 	ldr	ip, [pc, #148]	; c1d4 <bcm2835_i2c_read+0x10c>
    c13c:	e31e0002 	tst	lr, #2
    c140:	0afffff0 	beq	c108 <bcm2835_i2c_read+0x40>
    c144:	e3530000 	cmp	r3, #0
    c148:	0a00000c 	beq	c180 <bcm2835_i2c_read+0xb8>
    c14c:	e59c2004 	ldr	r2, [ip, #4]
    c150:	e3120020 	tst	r2, #32
    c154:	0a00000a 	beq	c184 <bcm2835_i2c_read+0xbc>
    c158:	e1a0200c 	mov	r2, ip
    c15c:	e0801001 	add	r1, r0, r1
    c160:	ea000002 	b	c170 <bcm2835_i2c_read+0xa8>
    c164:	e5920004 	ldr	r0, [r2, #4]
    c168:	e3100020 	tst	r0, #32
    c16c:	0a000004 	beq	c184 <bcm2835_i2c_read+0xbc>
    c170:	e5920010 	ldr	r0, [r2, #16]
    c174:	e2533001 	subs	r3, r3, #1
    c178:	e4c10001 	strb	r0, [r1], #1
    c17c:	1afffff8 	bne	c164 <bcm2835_i2c_read+0x9c>
    c180:	e3a03000 	mov	r3, #0
    c184:	e59f2048 	ldr	r2, [pc, #72]	; c1d4 <bcm2835_i2c_read+0x10c>
    c188:	e5921004 	ldr	r1, [r2, #4]
    c18c:	e3110c01 	tst	r1, #256	; 0x100
    c190:	1a00000b 	bne	c1c4 <bcm2835_i2c_read+0xfc>
    c194:	e5922004 	ldr	r2, [r2, #4]
    c198:	e3120c02 	tst	r2, #512	; 0x200
    c19c:	13a00002 	movne	r0, #2
    c1a0:	0a000003 	beq	c1b4 <bcm2835_i2c_read+0xec>
    c1a4:	e3a02002 	mov	r2, #2
    c1a8:	e59f3024 	ldr	r3, [pc, #36]	; c1d4 <bcm2835_i2c_read+0x10c>
    c1ac:	e5832000 	str	r2, [r3]
    c1b0:	e49df004 	pop	{pc}		; (ldr pc, [sp], #4)
    c1b4:	e3530000 	cmp	r3, #0
    c1b8:	13a00004 	movne	r0, #4
    c1bc:	03a00000 	moveq	r0, #0
    c1c0:	eafffff7 	b	c1a4 <bcm2835_i2c_read+0xdc>
    c1c4:	e3a03c01 	mov	r3, #256	; 0x100
    c1c8:	e3a00001 	mov	r0, #1
    c1cc:	e5823004 	str	r3, [r2, #4]
    c1d0:	eafffff3 	b	c1a4 <bcm2835_i2c_read+0xdc>
    c1d4:	20804000 	addcs	r4, r0, r0
    c1d8:	00000302 	andeq	r0, r0, r2, lsl #6
    c1dc:	00008081 	andeq	r8, r0, r1, lsl #1

0000c1e0 <led_set>:
    c1e0:	e3a02801 	mov	r2, #65536	; 0x10000
    c1e4:	e59f300c 	ldr	r3, [pc, #12]	; c1f8 <led_set+0x18>
    c1e8:	e3500000 	cmp	r0, #0
    c1ec:	0583201c 	streq	r2, [r3, #28]
    c1f0:	15832028 	strne	r2, [r3, #40]	; 0x28
    c1f4:	e12fff1e 	bx	lr
    c1f8:	20200000 	eorcs	r0, r0, r0

0000c1fc <led_init>:
    c1fc:	e59f2010 	ldr	r2, [pc, #16]	; c214 <led_init+0x18>
    c200:	e5923004 	ldr	r3, [r2, #4]
    c204:	e3c33707 	bic	r3, r3, #1835008	; 0x1c0000
    c208:	e3833701 	orr	r3, r3, #262144	; 0x40000
    c20c:	e5823004 	str	r3, [r2, #4]
    c210:	e12fff1e 	bx	lr
    c214:	20200000 	eorcs	r0, r0, r0

0000c218 <led_new_pi_set>:
    c218:	e3a02902 	mov	r2, #32768	; 0x8000
    c21c:	e59f300c 	ldr	r3, [pc, #12]	; c230 <led_new_pi_set+0x18>
    c220:	e3500000 	cmp	r0, #0
    c224:	15832020 	strne	r2, [r3, #32]
    c228:	0583202c 	streq	r2, [r3, #44]	; 0x2c
    c22c:	e12fff1e 	bx	lr
    c230:	20200000 	eorcs	r0, r0, r0

0000c234 <led_new_pi_init>:
    c234:	e59f2010 	ldr	r2, [pc, #16]	; c24c <led_new_pi_init+0x18>
    c238:	e5923010 	ldr	r3, [r2, #16]
    c23c:	e3c3360e 	bic	r3, r3, #14680064	; 0xe00000
    c240:	e3833602 	orr	r3, r3, #2097152	; 0x200000
    c244:	e5823010 	str	r3, [r2, #16]
    c248:	e12fff1e 	bx	lr
    c24c:	20200000 	eorcs	r0, r0, r0

0000c250 <bcm2835_mailbox_read>:
    c250:	e59f1024 	ldr	r1, [pc, #36]	; c27c <bcm2835_mailbox_read+0x2c>
    c254:	e5913098 	ldr	r3, [r1, #152]	; 0x98
    c258:	e59f201c 	ldr	r2, [pc, #28]	; c27c <bcm2835_mailbox_read+0x2c>
    c25c:	e3130101 	tst	r3, #1073741824	; 0x40000000
    c260:	1afffffb 	bne	c254 <bcm2835_mailbox_read+0x4>
    c264:	e5923080 	ldr	r3, [r2, #128]	; 0x80
    c268:	e203200f 	and	r2, r3, #15
    c26c:	e1520000 	cmp	r2, r0
    c270:	1afffff7 	bne	c254 <bcm2835_mailbox_read+0x4>
    c274:	e3c3000f 	bic	r0, r3, #15
    c278:	e12fff1e 	bx	lr
    c27c:	2000b800 	andcs	fp, r0, r0, lsl #16

0000c280 <bcm2835_mailbox_write>:
    c280:	e59fc020 	ldr	ip, [pc, #32]	; c2a8 <bcm2835_mailbox_write+0x28>
    c284:	e59c3098 	ldr	r3, [ip, #152]	; 0x98
    c288:	e59f2018 	ldr	r2, [pc, #24]	; c2a8 <bcm2835_mailbox_write+0x28>
    c28c:	e3530000 	cmp	r3, #0
    c290:	bafffffb 	blt	c284 <bcm2835_mailbox_write+0x4>
    c294:	e200000f 	and	r0, r0, #15
    c298:	e3c1100f 	bic	r1, r1, #15
    c29c:	e1801001 	orr	r1, r0, r1
    c2a0:	e58210a0 	str	r1, [r2, #160]	; 0xa0
    c2a4:	e12fff1e 	bx	lr
    c2a8:	2000b800 	andcs	fp, r0, r0, lsl #16

0000c2ac <bcm2835_vc_get_clock_rate>:
    c2ac:	e92d4070 	push	{r4, r5, r6, lr}
    c2b0:	e3a03000 	mov	r3, #0
    c2b4:	e3a05008 	mov	r5, #8
    c2b8:	e3a02004 	mov	r2, #4
    c2bc:	e1a06000 	mov	r6, r0
    c2c0:	e3a01020 	mov	r1, #32
    c2c4:	e59f405c 	ldr	r4, [pc, #92]	; c328 <bcm2835_vc_get_clock_rate+0x7c>
    c2c8:	e59fc05c 	ldr	ip, [pc, #92]	; c32c <bcm2835_vc_get_clock_rate+0x80>
    c2cc:	e5841000 	str	r1, [r4]
    c2d0:	e1a00005 	mov	r0, r5
    c2d4:	e5843004 	str	r3, [r4, #4]
    c2d8:	e1a01004 	mov	r1, r4
    c2dc:	e584c008 	str	ip, [r4, #8]
    c2e0:	e584500c 	str	r5, [r4, #12]
    c2e4:	e5842010 	str	r2, [r4, #16]
    c2e8:	e5846014 	str	r6, [r4, #20]
    c2ec:	e5843018 	str	r3, [r4, #24]
    c2f0:	e584301c 	str	r3, [r4, #28]
    c2f4:	ebffffe1 	bl	c280 <bcm2835_mailbox_write>
    c2f8:	e1a00005 	mov	r0, r5
    c2fc:	ebffffd3 	bl	c250 <bcm2835_mailbox_read>
    c300:	e5943004 	ldr	r3, [r4, #4]
    c304:	e3530102 	cmp	r3, #-2147483648	; 0x80000000
    c308:	1a000004 	bne	c320 <bcm2835_vc_get_clock_rate+0x74>
    c30c:	e5943014 	ldr	r3, [r4, #20]
    c310:	e1560003 	cmp	r6, r3
    c314:	1a000001 	bne	c320 <bcm2835_vc_get_clock_rate+0x74>
    c318:	e5940018 	ldr	r0, [r4, #24]
    c31c:	e8bd8070 	pop	{r4, r5, r6, pc}
    c320:	e3e00000 	mvn	r0, #0
    c324:	e8bd8070 	pop	{r4, r5, r6, pc}
    c328:	40007000 	andmi	r7, r0, r0
    c32c:	00030002 	andeq	r0, r3, r2

0000c330 <bcm2835_vc_set_clock_rate>:
    c330:	e92d4070 	push	{r4, r5, r6, lr}
    c334:	e3a03000 	mov	r3, #0
    c338:	e1a02001 	mov	r2, r1
    c33c:	e3a05008 	mov	r5, #8
    c340:	e1a06000 	mov	r6, r0
    c344:	e3a01020 	mov	r1, #32
    c348:	e59f405c 	ldr	r4, [pc, #92]	; c3ac <bcm2835_vc_set_clock_rate+0x7c>
    c34c:	e59fc05c 	ldr	ip, [pc, #92]	; c3b0 <bcm2835_vc_set_clock_rate+0x80>
    c350:	e5841000 	str	r1, [r4]
    c354:	e1a00005 	mov	r0, r5
    c358:	e5843004 	str	r3, [r4, #4]
    c35c:	e1a01004 	mov	r1, r4
    c360:	e584c008 	str	ip, [r4, #8]
    c364:	e584500c 	str	r5, [r4, #12]
    c368:	e5845010 	str	r5, [r4, #16]
    c36c:	e5846014 	str	r6, [r4, #20]
    c370:	e5842018 	str	r2, [r4, #24]
    c374:	e584301c 	str	r3, [r4, #28]
    c378:	ebffffc0 	bl	c280 <bcm2835_mailbox_write>
    c37c:	e1a00005 	mov	r0, r5
    c380:	ebffffb2 	bl	c250 <bcm2835_mailbox_read>
    c384:	e5943004 	ldr	r3, [r4, #4]
    c388:	e3530102 	cmp	r3, #-2147483648	; 0x80000000
    c38c:	1a000004 	bne	c3a4 <bcm2835_vc_set_clock_rate+0x74>
    c390:	e5943014 	ldr	r3, [r4, #20]
    c394:	e1560003 	cmp	r6, r3
    c398:	1a000001 	bne	c3a4 <bcm2835_vc_set_clock_rate+0x74>
    c39c:	e5940018 	ldr	r0, [r4, #24]
    c3a0:	e8bd8070 	pop	{r4, r5, r6, pc}
    c3a4:	e3e00000 	mvn	r0, #0
    c3a8:	e8bd8070 	pop	{r4, r5, r6, pc}
    c3ac:	40007000 	andmi	r7, r0, r0
    c3b0:	00038002 	andeq	r8, r3, r2

0000c3b4 <bcm2835_vc_get_power_state>:
    c3b4:	e92d4070 	push	{r4, r5, r6, lr}
    c3b8:	e3a03000 	mov	r3, #0
    c3bc:	e3a05008 	mov	r5, #8
    c3c0:	e3a02004 	mov	r2, #4
    c3c4:	e1a06000 	mov	r6, r0
    c3c8:	e3a01020 	mov	r1, #32
    c3cc:	e59f4060 	ldr	r4, [pc, #96]	; c434 <bcm2835_vc_get_power_state+0x80>
    c3d0:	e59fc060 	ldr	ip, [pc, #96]	; c438 <bcm2835_vc_get_power_state+0x84>
    c3d4:	e5841000 	str	r1, [r4]
    c3d8:	e1a00005 	mov	r0, r5
    c3dc:	e5843004 	str	r3, [r4, #4]
    c3e0:	e1a01004 	mov	r1, r4
    c3e4:	e584c008 	str	ip, [r4, #8]
    c3e8:	e584500c 	str	r5, [r4, #12]
    c3ec:	e5842010 	str	r2, [r4, #16]
    c3f0:	e5846014 	str	r6, [r4, #20]
    c3f4:	e5843018 	str	r3, [r4, #24]
    c3f8:	e584301c 	str	r3, [r4, #28]
    c3fc:	ebffff9f 	bl	c280 <bcm2835_mailbox_write>
    c400:	e1a00005 	mov	r0, r5
    c404:	ebffff91 	bl	c250 <bcm2835_mailbox_read>
    c408:	e5943004 	ldr	r3, [r4, #4]
    c40c:	e3530102 	cmp	r3, #-2147483648	; 0x80000000
    c410:	1a000005 	bne	c42c <bcm2835_vc_get_power_state+0x78>
    c414:	e5943014 	ldr	r3, [r4, #20]
    c418:	e1560003 	cmp	r6, r3
    c41c:	1a000002 	bne	c42c <bcm2835_vc_get_power_state+0x78>
    c420:	e5940018 	ldr	r0, [r4, #24]
    c424:	e2000003 	and	r0, r0, #3
    c428:	e8bd8070 	pop	{r4, r5, r6, pc}
    c42c:	e3a00003 	mov	r0, #3
    c430:	e8bd8070 	pop	{r4, r5, r6, pc}
    c434:	40007000 	andmi	r7, r0, r0
    c438:	00020001 	andeq	r0, r2, r1

0000c43c <bcm2835_vc_set_power_state>:
    c43c:	e92d4070 	push	{r4, r5, r6, lr}
    c440:	e3a03000 	mov	r3, #0
    c444:	e1a02001 	mov	r2, r1
    c448:	e3a05008 	mov	r5, #8
    c44c:	e1a06000 	mov	r6, r0
    c450:	e3a01020 	mov	r1, #32
    c454:	e59f405c 	ldr	r4, [pc, #92]	; c4b8 <bcm2835_vc_set_power_state+0x7c>
    c458:	e59fc05c 	ldr	ip, [pc, #92]	; c4bc <bcm2835_vc_set_power_state+0x80>
    c45c:	e5841000 	str	r1, [r4]
    c460:	e1a00005 	mov	r0, r5
    c464:	e5843004 	str	r3, [r4, #4]
    c468:	e1a01004 	mov	r1, r4
    c46c:	e584c008 	str	ip, [r4, #8]
    c470:	e584500c 	str	r5, [r4, #12]
    c474:	e5845010 	str	r5, [r4, #16]
    c478:	e5846014 	str	r6, [r4, #20]
    c47c:	e5842018 	str	r2, [r4, #24]
    c480:	e584301c 	str	r3, [r4, #28]
    c484:	ebffff7d 	bl	c280 <bcm2835_mailbox_write>
    c488:	e1a00005 	mov	r0, r5
    c48c:	ebffff6f 	bl	c250 <bcm2835_mailbox_read>
    c490:	e5943004 	ldr	r3, [r4, #4]
    c494:	e3530102 	cmp	r3, #-2147483648	; 0x80000000
    c498:	1a000004 	bne	c4b0 <bcm2835_vc_set_power_state+0x74>
    c49c:	e5943014 	ldr	r3, [r4, #20]
    c4a0:	e1560003 	cmp	r6, r3
    c4a4:	1a000001 	bne	c4b0 <bcm2835_vc_set_power_state+0x74>
    c4a8:	e5940018 	ldr	r0, [r4, #24]
    c4ac:	e8bd8070 	pop	{r4, r5, r6, pc}
    c4b0:	e3e00000 	mvn	r0, #0
    c4b4:	e8bd8070 	pop	{r4, r5, r6, pc}
    c4b8:	40007000 	andmi	r7, r0, r0
    c4bc:	00028001 	andeq	r8, r2, r1

0000c4c0 <bcm2835_vc_get_board_mac_address>:
    c4c0:	e92d40f8 	push	{r3, r4, r5, r6, r7, lr}
    c4c4:	e3a02020 	mov	r2, #32
    c4c8:	e3a05000 	mov	r5, #0
    c4cc:	e3a06006 	mov	r6, #6
    c4d0:	e59f4060 	ldr	r4, [pc, #96]	; c538 <bcm2835_vc_get_board_mac_address+0x78>
    c4d4:	e59f3060 	ldr	r3, [pc, #96]	; c53c <bcm2835_vc_get_board_mac_address+0x7c>
    c4d8:	e5842000 	str	r2, [r4]
    c4dc:	e1a01004 	mov	r1, r4
    c4e0:	e5845004 	str	r5, [r4, #4]
    c4e4:	e1a07000 	mov	r7, r0
    c4e8:	e5843008 	str	r3, [r4, #8]
    c4ec:	e3a00008 	mov	r0, #8
    c4f0:	e584600c 	str	r6, [r4, #12]
    c4f4:	e5845010 	str	r5, [r4, #16]
    c4f8:	e5c45014 	strb	r5, [r4, #20]
    c4fc:	e584501c 	str	r5, [r4, #28]
    c500:	ebffff5e 	bl	c280 <bcm2835_mailbox_write>
    c504:	e3a00008 	mov	r0, #8
    c508:	ebffff50 	bl	c250 <bcm2835_mailbox_read>
    c50c:	e5943004 	ldr	r3, [r4, #4]
    c510:	e3530102 	cmp	r3, #-2147483648	; 0x80000000
    c514:	1a000005 	bne	c530 <bcm2835_vc_get_board_mac_address+0x70>
    c518:	e1a00007 	mov	r0, r7
    c51c:	e1a02006 	mov	r2, r6
    c520:	e59f1018 	ldr	r1, [pc, #24]	; c540 <bcm2835_vc_get_board_mac_address+0x80>
    c524:	eb0005ff 	bl	dd28 <memcpy>
    c528:	e1a00005 	mov	r0, r5
    c52c:	e8bd80f8 	pop	{r3, r4, r5, r6, r7, pc}
    c530:	e3e00000 	mvn	r0, #0
    c534:	e8bd80f8 	pop	{r3, r4, r5, r6, r7, pc}
    c538:	40007000 	andmi	r7, r0, r0
    c53c:	00010003 	andeq	r0, r1, r3
    c540:	40007014 	andmi	r7, r0, r4, lsl r0

0000c544 <bcm2835_vc_get_get_firmware_revision>:
    c544:	e3a03000 	mov	r3, #0
    c548:	e3a0c001 	mov	ip, #1
    c54c:	e3a02004 	mov	r2, #4
    c550:	e3a0101c 	mov	r1, #28
    c554:	e92d4010 	push	{r4, lr}
    c558:	e59f4040 	ldr	r4, [pc, #64]	; c5a0 <bcm2835_vc_get_get_firmware_revision+0x5c>
    c55c:	e3a00008 	mov	r0, #8
    c560:	e5841000 	str	r1, [r4]
    c564:	e5843004 	str	r3, [r4, #4]
    c568:	e1a01004 	mov	r1, r4
    c56c:	e584c008 	str	ip, [r4, #8]
    c570:	e584200c 	str	r2, [r4, #12]
    c574:	e5843010 	str	r3, [r4, #16]
    c578:	e5843014 	str	r3, [r4, #20]
    c57c:	e5843018 	str	r3, [r4, #24]
    c580:	ebffff3e 	bl	c280 <bcm2835_mailbox_write>
    c584:	e3a00008 	mov	r0, #8
    c588:	ebffff30 	bl	c250 <bcm2835_mailbox_read>
    c58c:	e5943004 	ldr	r3, [r4, #4]
    c590:	e3530102 	cmp	r3, #-2147483648	; 0x80000000
    c594:	05940014 	ldreq	r0, [r4, #20]
    c598:	13e00000 	mvnne	r0, #0
    c59c:	e8bd8010 	pop	{r4, pc}
    c5a0:	40007000 	andmi	r7, r0, r0

0000c5a4 <bcm2835_vc_get_get_board_model>:
    c5a4:	e3a03000 	mov	r3, #0
    c5a8:	e3a02004 	mov	r2, #4
    c5ac:	e3a0101c 	mov	r1, #28
    c5b0:	e92d4010 	push	{r4, lr}
    c5b4:	e59fc044 	ldr	ip, [pc, #68]	; c600 <bcm2835_vc_get_get_board_model+0x5c>
    c5b8:	e59f4044 	ldr	r4, [pc, #68]	; c604 <bcm2835_vc_get_get_board_model+0x60>
    c5bc:	e3a00008 	mov	r0, #8
    c5c0:	e5841000 	str	r1, [r4]
    c5c4:	e5843004 	str	r3, [r4, #4]
    c5c8:	e1a01004 	mov	r1, r4
    c5cc:	e584c008 	str	ip, [r4, #8]
    c5d0:	e584200c 	str	r2, [r4, #12]
    c5d4:	e5843010 	str	r3, [r4, #16]
    c5d8:	e5843014 	str	r3, [r4, #20]
    c5dc:	e5843018 	str	r3, [r4, #24]
    c5e0:	ebffff26 	bl	c280 <bcm2835_mailbox_write>
    c5e4:	e3a00008 	mov	r0, #8
    c5e8:	ebffff18 	bl	c250 <bcm2835_mailbox_read>
    c5ec:	e5943004 	ldr	r3, [r4, #4]
    c5f0:	e3530102 	cmp	r3, #-2147483648	; 0x80000000
    c5f4:	05940014 	ldreq	r0, [r4, #20]
    c5f8:	13e00000 	mvnne	r0, #0
    c5fc:	e8bd8010 	pop	{r4, pc}
    c600:	00010001 	andeq	r0, r1, r1
    c604:	40007000 	andmi	r7, r0, r0

0000c608 <bcm2835_vc_get_get_board_revision>:
    c608:	e3a03000 	mov	r3, #0
    c60c:	e3a02004 	mov	r2, #4
    c610:	e3a0101c 	mov	r1, #28
    c614:	e92d4010 	push	{r4, lr}
    c618:	e59fc044 	ldr	ip, [pc, #68]	; c664 <bcm2835_vc_get_get_board_revision+0x5c>
    c61c:	e59f4044 	ldr	r4, [pc, #68]	; c668 <bcm2835_vc_get_get_board_revision+0x60>
    c620:	e3a00008 	mov	r0, #8
    c624:	e5841000 	str	r1, [r4]
    c628:	e5843004 	str	r3, [r4, #4]
    c62c:	e1a01004 	mov	r1, r4
    c630:	e584c008 	str	ip, [r4, #8]
    c634:	e584200c 	str	r2, [r4, #12]
    c638:	e5843010 	str	r3, [r4, #16]
    c63c:	e5843014 	str	r3, [r4, #20]
    c640:	e5843018 	str	r3, [r4, #24]
    c644:	ebffff0d 	bl	c280 <bcm2835_mailbox_write>
    c648:	e3a00008 	mov	r0, #8
    c64c:	ebfffeff 	bl	c250 <bcm2835_mailbox_read>
    c650:	e5943004 	ldr	r3, [r4, #4]
    c654:	e3530102 	cmp	r3, #-2147483648	; 0x80000000
    c658:	05940014 	ldreq	r0, [r4, #20]
    c65c:	13e00000 	mvnne	r0, #0
    c660:	e8bd8010 	pop	{r4, pc}
    c664:	00010002 	andeq	r0, r1, r2
    c668:	40007000 	andmi	r7, r0, r0

0000c66c <watchdog_stop>:
    c66c:	e59f3008 	ldr	r3, [pc, #8]	; c67c <watchdog_stop+0x10>
    c670:	e59f2008 	ldr	r2, [pc, #8]	; c680 <watchdog_stop+0x14>
    c674:	e583201c 	str	r2, [r3, #28]
    c678:	e12fff1e 	bx	lr
    c67c:	20100000 	andscs	r0, r0, r0
    c680:	5a000102 	bpl	ca90 <__sinit.part.1+0x58>

0000c684 <watchdog_init>:
    c684:	e59f2020 	ldr	r2, [pc, #32]	; c6ac <watchdog_init+0x28>
    c688:	e59f3020 	ldr	r3, [pc, #32]	; c6b0 <watchdog_init+0x2c>
    c68c:	e5823024 	str	r3, [r2, #36]	; 0x24
    c690:	e592301c 	ldr	r3, [r2, #28]
    c694:	e3c3345a 	bic	r3, r3, #1509949440	; 0x5a000000
    c698:	e3c33030 	bic	r3, r3, #48	; 0x30
    c69c:	e383345a 	orr	r3, r3, #1509949440	; 0x5a000000
    c6a0:	e3833020 	orr	r3, r3, #32
    c6a4:	e582301c 	str	r3, [r2, #28]
    c6a8:	e12fff1e 	bx	lr
    c6ac:	20100000 	andscs	r0, r0, r0
    c6b0:	5a00ffff 	bpl	4c6b4 <heap_low+0x3091c>

0000c6b4 <watchdog_feed>:
    c6b4:	e59f2020 	ldr	r2, [pc, #32]	; c6dc <watchdog_feed+0x28>
    c6b8:	e59f3020 	ldr	r3, [pc, #32]	; c6e0 <watchdog_feed+0x2c>
    c6bc:	e5823024 	str	r3, [r2, #36]	; 0x24
    c6c0:	e592301c 	ldr	r3, [r2, #28]
    c6c4:	e3c3345a 	bic	r3, r3, #1509949440	; 0x5a000000
    c6c8:	e3c33030 	bic	r3, r3, #48	; 0x30
    c6cc:	e383345a 	orr	r3, r3, #1509949440	; 0x5a000000
    c6d0:	e3833020 	orr	r3, r3, #32
    c6d4:	e582301c 	str	r3, [r2, #28]
    c6d8:	e12fff1e 	bx	lr
    c6dc:	20100000 	andscs	r0, r0, r0
    c6e0:	5a00ffff 	bpl	4c6e4 <heap_low+0x3094c>

0000c6e4 <bcm2835_gpio_fsel>:
    c6e4:	e52de004 	push	{lr}		; (str lr, [sp, #-4]!)
    c6e8:	e1a03000 	mov	r3, r0
    c6ec:	e59f0034 	ldr	r0, [pc, #52]	; c728 <bcm2835_gpio_fsel+0x44>
    c6f0:	e3530009 	cmp	r3, #9
    c6f4:	8243300a 	subhi	r3, r3, #10
    c6f8:	82800004 	addhi	r0, r0, #4
    c6fc:	8afffffb 	bhi	c6f0 <bcm2835_gpio_fsel+0xc>
    c700:	e0833083 	add	r3, r3, r3, lsl #1
    c704:	e3a02007 	mov	r2, #7
    c708:	e1a02312 	lsl	r2, r2, r3
    c70c:	e1a01311 	lsl	r1, r1, r3
    c710:	e5903000 	ldr	r3, [r0]
    c714:	e0021001 	and	r1, r2, r1
    c718:	e1c33002 	bic	r3, r3, r2
    c71c:	e1833001 	orr	r3, r3, r1
    c720:	e5803000 	str	r3, [r0]
    c724:	e49df004 	pop	{pc}		; (ldr pc, [sp], #4)
    c728:	20200000 	eorcs	r0, r0, r0

0000c72c <udelay>:
    c72c:	e92d4030 	push	{r4, r5, lr}
    c730:	e1a05000 	mov	r5, r0
    c734:	e59f4014 	ldr	r4, [pc, #20]	; c750 <udelay+0x24>
    c738:	e1c420d4 	ldrd	r2, [r4, #4]
    c73c:	e1c400d4 	ldrd	r0, [r4, #4]
    c740:	e0401002 	sub	r1, r0, r2
    c744:	e1510005 	cmp	r1, r5
    c748:	9afffffb 	bls	c73c <udelay+0x10>
    c74c:	e8bd8030 	pop	{r4, r5, pc}
    c750:	20003000 	andcs	r3, r0, r0

0000c754 <__errno>:
    c754:	e59f3004 	ldr	r3, [pc, #4]	; c760 <__errno+0xc>
    c758:	e5930000 	ldr	r0, [r3]
    c75c:	e12fff1e 	bx	lr
    c760:	00017948 	andeq	r7, r1, r8, asr #18

0000c764 <__sflush_r>:
    c764:	e92d40f8 	push	{r3, r4, r5, r6, r7, lr}
    c768:	e1d130bc 	ldrh	r3, [r1, #12]
    c76c:	e1a05001 	mov	r5, r1
    c770:	e6ff2073 	uxth	r2, r3
    c774:	e3120008 	tst	r2, #8
    c778:	e1a07000 	mov	r7, r0
    c77c:	1a000034 	bne	c854 <__sflush_r+0xf0>
    c780:	e5912004 	ldr	r2, [r1, #4]
    c784:	e3833b02 	orr	r3, r3, #2048	; 0x800
    c788:	e3520000 	cmp	r2, #0
    c78c:	e1c130bc 	strh	r3, [r1, #12]
    c790:	da00004d 	ble	c8cc <__sflush_r+0x168>
    c794:	e595c028 	ldr	ip, [r5, #40]	; 0x28
    c798:	e35c0000 	cmp	ip, #0
    c79c:	0a00004d 	beq	c8d8 <__sflush_r+0x174>
    c7a0:	e3a02000 	mov	r2, #0
    c7a4:	e6ff3073 	uxth	r3, r3
    c7a8:	e2030a01 	and	r0, r3, #4096	; 0x1000
    c7ac:	e6ff6070 	uxth	r6, r0
    c7b0:	e1560002 	cmp	r6, r2
    c7b4:	e5974000 	ldr	r4, [r7]
    c7b8:	e5872000 	str	r2, [r7]
    c7bc:	0a00005e 	beq	c93c <__sflush_r+0x1d8>
    c7c0:	e5952050 	ldr	r2, [r5, #80]	; 0x50
    c7c4:	e3130004 	tst	r3, #4
    c7c8:	0a000005 	beq	c7e4 <__sflush_r+0x80>
    c7cc:	e5951030 	ldr	r1, [r5, #48]	; 0x30
    c7d0:	e5953004 	ldr	r3, [r5, #4]
    c7d4:	e3510000 	cmp	r1, #0
    c7d8:	e0632002 	rsb	r2, r3, r2
    c7dc:	1595303c 	ldrne	r3, [r5, #60]	; 0x3c
    c7e0:	10632002 	rsbne	r2, r3, r2
    c7e4:	e1a00007 	mov	r0, r7
    c7e8:	e595101c 	ldr	r1, [r5, #28]
    c7ec:	e3a03000 	mov	r3, #0
    c7f0:	e12fff3c 	blx	ip
    c7f4:	e3700001 	cmn	r0, #1
    c7f8:	0a000038 	beq	c8e0 <__sflush_r+0x17c>
    c7fc:	e3a01000 	mov	r1, #0
    c800:	e1d530bc 	ldrh	r3, [r5, #12]
    c804:	e5952010 	ldr	r2, [r5, #16]
    c808:	e3c33b02 	bic	r3, r3, #2048	; 0x800
    c80c:	e6ff3073 	uxth	r3, r3
    c810:	e3130a01 	tst	r3, #4096	; 0x1000
    c814:	e1c530bc 	strh	r3, [r5, #12]
    c818:	e5851004 	str	r1, [r5, #4]
    c81c:	e5852000 	str	r2, [r5]
    c820:	1a000043 	bne	c934 <__sflush_r+0x1d0>
    c824:	e5951030 	ldr	r1, [r5, #48]	; 0x30
    c828:	e5874000 	str	r4, [r7]
    c82c:	e3510000 	cmp	r1, #0
    c830:	0a000028 	beq	c8d8 <__sflush_r+0x174>
    c834:	e2853040 	add	r3, r5, #64	; 0x40
    c838:	e1510003 	cmp	r1, r3
    c83c:	0a000001 	beq	c848 <__sflush_r+0xe4>
    c840:	e1a00007 	mov	r0, r7
    c844:	eb000176 	bl	ce24 <_free_r>
    c848:	e3a00000 	mov	r0, #0
    c84c:	e5850030 	str	r0, [r5, #48]	; 0x30
    c850:	e8bd80f8 	pop	{r3, r4, r5, r6, r7, pc}
    c854:	e5916010 	ldr	r6, [r1, #16]
    c858:	e3560000 	cmp	r6, #0
    c85c:	0a00001d 	beq	c8d8 <__sflush_r+0x174>
    c860:	e3120003 	tst	r2, #3
    c864:	13a03000 	movne	r3, #0
    c868:	e5914000 	ldr	r4, [r1]
    c86c:	05913014 	ldreq	r3, [r1, #20]
    c870:	e0664004 	rsb	r4, r6, r4
    c874:	e3540000 	cmp	r4, #0
    c878:	e5816000 	str	r6, [r1]
    c87c:	e5813008 	str	r3, [r1, #8]
    c880:	ca000003 	bgt	c894 <__sflush_r+0x130>
    c884:	ea000013 	b	c8d8 <__sflush_r+0x174>
    c888:	e3540000 	cmp	r4, #0
    c88c:	e0866000 	add	r6, r6, r0
    c890:	da000010 	ble	c8d8 <__sflush_r+0x174>
    c894:	e1a03004 	mov	r3, r4
    c898:	e595c024 	ldr	ip, [r5, #36]	; 0x24
    c89c:	e1a00007 	mov	r0, r7
    c8a0:	e595101c 	ldr	r1, [r5, #28]
    c8a4:	e1a02006 	mov	r2, r6
    c8a8:	e12fff3c 	blx	ip
    c8ac:	e3500000 	cmp	r0, #0
    c8b0:	e0604004 	rsb	r4, r0, r4
    c8b4:	cafffff3 	bgt	c888 <__sflush_r+0x124>
    c8b8:	e1d530bc 	ldrh	r3, [r5, #12]
    c8bc:	e3e00000 	mvn	r0, #0
    c8c0:	e3833040 	orr	r3, r3, #64	; 0x40
    c8c4:	e1c530bc 	strh	r3, [r5, #12]
    c8c8:	e8bd80f8 	pop	{r3, r4, r5, r6, r7, pc}
    c8cc:	e591203c 	ldr	r2, [r1, #60]	; 0x3c
    c8d0:	e3520000 	cmp	r2, #0
    c8d4:	caffffae 	bgt	c794 <__sflush_r+0x30>
    c8d8:	e3a00000 	mov	r0, #0
    c8dc:	e8bd80f8 	pop	{r3, r4, r5, r6, r7, pc}
    c8e0:	e5971000 	ldr	r1, [r7]
    c8e4:	e16f2f11 	clz	r2, r1
    c8e8:	e1a022a2 	lsr	r2, r2, #5
    c8ec:	e351001d 	cmp	r1, #29
    c8f0:	11a03002 	movne	r3, r2
    c8f4:	03823001 	orreq	r3, r2, #1
    c8f8:	e3510016 	cmp	r1, #22
    c8fc:	03833001 	orreq	r3, r3, #1
    c900:	e3530000 	cmp	r3, #0
    c904:	0a000020 	beq	c98c <__sflush_r+0x228>
    c908:	e3a0c000 	mov	ip, #0
    c90c:	e1d530bc 	ldrh	r3, [r5, #12]
    c910:	e5951010 	ldr	r1, [r5, #16]
    c914:	e3c33b02 	bic	r3, r3, #2048	; 0x800
    c918:	e6ff3073 	uxth	r3, r3
    c91c:	e3130a01 	tst	r3, #4096	; 0x1000
    c920:	e1c530bc 	strh	r3, [r5, #12]
    c924:	e8851002 	stm	r5, {r1, ip}
    c928:	0affffbd 	beq	c824 <__sflush_r+0xc0>
    c92c:	e3520000 	cmp	r2, #0
    c930:	0affffbb 	beq	c824 <__sflush_r+0xc0>
    c934:	e5850050 	str	r0, [r5, #80]	; 0x50
    c938:	eaffffb9 	b	c824 <__sflush_r+0xc0>
    c93c:	e1a02006 	mov	r2, r6
    c940:	e1a00007 	mov	r0, r7
    c944:	e595101c 	ldr	r1, [r5, #28]
    c948:	e3a03001 	mov	r3, #1
    c94c:	e12fff3c 	blx	ip
    c950:	e3700001 	cmn	r0, #1
    c954:	e1a02000 	mov	r2, r0
    c958:	0a000002 	beq	c968 <__sflush_r+0x204>
    c95c:	e1d530bc 	ldrh	r3, [r5, #12]
    c960:	e595c028 	ldr	ip, [r5, #40]	; 0x28
    c964:	eaffff96 	b	c7c4 <__sflush_r+0x60>
    c968:	e5973000 	ldr	r3, [r7]
    c96c:	e3530000 	cmp	r3, #0
    c970:	0afffff9 	beq	c95c <__sflush_r+0x1f8>
    c974:	e353001d 	cmp	r3, #29
    c978:	13530016 	cmpne	r3, #22
    c97c:	1affffcd 	bne	c8b8 <__sflush_r+0x154>
    c980:	e5874000 	str	r4, [r7]
    c984:	e1a00006 	mov	r0, r6
    c988:	e8bd80f8 	pop	{r3, r4, r5, r6, r7, pc}
    c98c:	e1d530bc 	ldrh	r3, [r5, #12]
    c990:	e3833040 	orr	r3, r3, #64	; 0x40
    c994:	e1c530bc 	strh	r3, [r5, #12]
    c998:	e8bd80f8 	pop	{r3, r4, r5, r6, r7, pc}

0000c99c <_fflush_r>:
    c99c:	e92d4010 	push	{r4, lr}
    c9a0:	e2504000 	subs	r4, r0, #0
    c9a4:	e24dd008 	sub	sp, sp, #8
    c9a8:	0a000002 	beq	c9b8 <_fflush_r+0x1c>
    c9ac:	e5943038 	ldr	r3, [r4, #56]	; 0x38
    c9b0:	e3530000 	cmp	r3, #0
    c9b4:	0a000008 	beq	c9dc <_fflush_r+0x40>
    c9b8:	e1d100fc 	ldrsh	r0, [r1, #12]
    c9bc:	e3500000 	cmp	r0, #0
    c9c0:	1a000001 	bne	c9cc <_fflush_r+0x30>
    c9c4:	e28dd008 	add	sp, sp, #8
    c9c8:	e8bd8010 	pop	{r4, pc}
    c9cc:	e1a00004 	mov	r0, r4
    c9d0:	e28dd008 	add	sp, sp, #8
    c9d4:	e8bd4010 	pop	{r4, lr}
    c9d8:	eaffff61 	b	c764 <__sflush_r>
    c9dc:	e58d1004 	str	r1, [sp, #4]
    c9e0:	eb0000bd 	bl	ccdc <__sinit>
    c9e4:	e59d1004 	ldr	r1, [sp, #4]
    c9e8:	eafffff2 	b	c9b8 <_fflush_r+0x1c>

0000c9ec <fflush>:
    c9ec:	e2501000 	subs	r1, r0, #0
    c9f0:	0a000002 	beq	ca00 <fflush+0x14>
    c9f4:	e59f3014 	ldr	r3, [pc, #20]	; ca10 <fflush+0x24>
    c9f8:	e5930000 	ldr	r0, [r3]
    c9fc:	eaffffe6 	b	c99c <_fflush_r>
    ca00:	e59f300c 	ldr	r3, [pc, #12]	; ca14 <fflush+0x28>
    ca04:	e59f100c 	ldr	r1, [pc, #12]	; ca18 <fflush+0x2c>
    ca08:	e5930000 	ldr	r0, [r3]
    ca0c:	ea0001cf 	b	d150 <_fwalk_reent>
    ca10:	00017948 	andeq	r7, r1, r8, asr #18
    ca14:	00016cc4 	andeq	r6, r1, r4, asr #25
    ca18:	0000c99c 	muleq	r0, ip, r9

0000ca1c <__fp_lock>:
    ca1c:	e3a00000 	mov	r0, #0
    ca20:	e12fff1e 	bx	lr

0000ca24 <__fp_unlock>:
    ca24:	e3a00000 	mov	r0, #0
    ca28:	e12fff1e 	bx	lr

0000ca2c <_cleanup_r>:
    ca2c:	e59f1000 	ldr	r1, [pc]	; ca34 <_cleanup_r+0x8>
    ca30:	ea0001c6 	b	d150 <_fwalk_reent>
    ca34:	00012400 	andeq	r2, r1, r0, lsl #8

0000ca38 <__sinit.part.1>:
    ca38:	e92d4ff0 	push	{r4, r5, r6, r7, r8, r9, sl, fp, lr}
    ca3c:	e1a07000 	mov	r7, r0
    ca40:	e3a04000 	mov	r4, #0
    ca44:	e3a03004 	mov	r3, #4
    ca48:	e3a01003 	mov	r1, #3
    ca4c:	e5975004 	ldr	r5, [r7, #4]
    ca50:	e59f0128 	ldr	r0, [pc, #296]	; cb80 <__sinit.part.1+0x148>
    ca54:	e2872fbb 	add	r2, r7, #748	; 0x2ec
    ca58:	e587003c 	str	r0, [r7, #60]	; 0x3c
    ca5c:	e58712e4 	str	r1, [r7, #740]	; 0x2e4
    ca60:	e58722e8 	str	r2, [r7, #744]	; 0x2e8
    ca64:	e58742e0 	str	r4, [r7, #736]	; 0x2e0
    ca68:	e24dd00c 	sub	sp, sp, #12
    ca6c:	e5854000 	str	r4, [r5]
    ca70:	e5854004 	str	r4, [r5, #4]
    ca74:	e5854008 	str	r4, [r5, #8]
    ca78:	e5854064 	str	r4, [r5, #100]	; 0x64
    ca7c:	e1c540be 	strh	r4, [r5, #14]
    ca80:	e5854010 	str	r4, [r5, #16]
    ca84:	e5854014 	str	r4, [r5, #20]
    ca88:	e5854018 	str	r4, [r5, #24]
    ca8c:	e1c530bc 	strh	r3, [r5, #12]
    ca90:	e1a01004 	mov	r1, r4
    ca94:	e285005c 	add	r0, r5, #92	; 0x5c
    ca98:	e3a02008 	mov	r2, #8
    ca9c:	eb000529 	bl	df48 <memset>
    caa0:	e3a03001 	mov	r3, #1
    caa4:	e3a02009 	mov	r2, #9
    caa8:	e5976008 	ldr	r6, [r7, #8]
    caac:	e59fb0d0 	ldr	fp, [pc, #208]	; cb84 <__sinit.part.1+0x14c>
    cab0:	e59fa0d0 	ldr	sl, [pc, #208]	; cb88 <__sinit.part.1+0x150>
    cab4:	e59f90d0 	ldr	r9, [pc, #208]	; cb8c <__sinit.part.1+0x154>
    cab8:	e59f80d0 	ldr	r8, [pc, #208]	; cb90 <__sinit.part.1+0x158>
    cabc:	e585b020 	str	fp, [r5, #32]
    cac0:	e585a024 	str	sl, [r5, #36]	; 0x24
    cac4:	e5859028 	str	r9, [r5, #40]	; 0x28
    cac8:	e585802c 	str	r8, [r5, #44]	; 0x2c
    cacc:	e585501c 	str	r5, [r5, #28]
    cad0:	e1a01004 	mov	r1, r4
    cad4:	e1c630be 	strh	r3, [r6, #14]
    cad8:	e1c620bc 	strh	r2, [r6, #12]
    cadc:	e286005c 	add	r0, r6, #92	; 0x5c
    cae0:	e5864000 	str	r4, [r6]
    cae4:	e5864004 	str	r4, [r6, #4]
    cae8:	e5864008 	str	r4, [r6, #8]
    caec:	e5864064 	str	r4, [r6, #100]	; 0x64
    caf0:	e5864010 	str	r4, [r6, #16]
    caf4:	e5864014 	str	r4, [r6, #20]
    caf8:	e5864018 	str	r4, [r6, #24]
    cafc:	e3a02008 	mov	r2, #8
    cb00:	e58d3004 	str	r3, [sp, #4]
    cb04:	eb00050f 	bl	df48 <memset>
    cb08:	e3a00012 	mov	r0, #18
    cb0c:	e3a02002 	mov	r2, #2
    cb10:	e597500c 	ldr	r5, [r7, #12]
    cb14:	e1a01004 	mov	r1, r4
    cb18:	e586601c 	str	r6, [r6, #28]
    cb1c:	e586b020 	str	fp, [r6, #32]
    cb20:	e586a024 	str	sl, [r6, #36]	; 0x24
    cb24:	e5869028 	str	r9, [r6, #40]	; 0x28
    cb28:	e586802c 	str	r8, [r6, #44]	; 0x2c
    cb2c:	e1c500bc 	strh	r0, [r5, #12]
    cb30:	e1c520be 	strh	r2, [r5, #14]
    cb34:	e5854000 	str	r4, [r5]
    cb38:	e5854004 	str	r4, [r5, #4]
    cb3c:	e5854008 	str	r4, [r5, #8]
    cb40:	e5854064 	str	r4, [r5, #100]	; 0x64
    cb44:	e5854010 	str	r4, [r5, #16]
    cb48:	e5854014 	str	r4, [r5, #20]
    cb4c:	e5854018 	str	r4, [r5, #24]
    cb50:	e285005c 	add	r0, r5, #92	; 0x5c
    cb54:	e3a02008 	mov	r2, #8
    cb58:	eb0004fa 	bl	df48 <memset>
    cb5c:	e59d3004 	ldr	r3, [sp, #4]
    cb60:	e585501c 	str	r5, [r5, #28]
    cb64:	e585b020 	str	fp, [r5, #32]
    cb68:	e585a024 	str	sl, [r5, #36]	; 0x24
    cb6c:	e5859028 	str	r9, [r5, #40]	; 0x28
    cb70:	e585802c 	str	r8, [r5, #44]	; 0x2c
    cb74:	e5873038 	str	r3, [r7, #56]	; 0x38
    cb78:	e28dd00c 	add	sp, sp, #12
    cb7c:	e8bd8ff0 	pop	{r4, r5, r6, r7, r8, r9, sl, fp, pc}
    cb80:	0000ca2c 	andeq	ip, r0, ip, lsr #20
    cb84:	0000e904 	andeq	lr, r0, r4, lsl #18
    cb88:	0000e93c 	andeq	lr, r0, ip, lsr r9
    cb8c:	0000e990 	muleq	r0, r0, r9
    cb90:	0000e9bc 			; <UNDEFINED> instruction: 0x0000e9bc

0000cb94 <__sfmoreglue>:
    cb94:	e3a03068 	mov	r3, #104	; 0x68
    cb98:	e92d4070 	push	{r4, r5, r6, lr}
    cb9c:	e2415001 	sub	r5, r1, #1
    cba0:	e0050593 	mul	r5, r3, r5
    cba4:	e1a06001 	mov	r6, r1
    cba8:	e2851074 	add	r1, r5, #116	; 0x74
    cbac:	eb00026a 	bl	d55c <_malloc_r>
    cbb0:	e2504000 	subs	r4, r0, #0
    cbb4:	0a000006 	beq	cbd4 <__sfmoreglue+0x40>
    cbb8:	e3a01000 	mov	r1, #0
    cbbc:	e284000c 	add	r0, r4, #12
    cbc0:	e5846004 	str	r6, [r4, #4]
    cbc4:	e2852068 	add	r2, r5, #104	; 0x68
    cbc8:	e5841000 	str	r1, [r4]
    cbcc:	e5840008 	str	r0, [r4, #8]
    cbd0:	eb0004dc 	bl	df48 <memset>
    cbd4:	e1a00004 	mov	r0, r4
    cbd8:	e8bd8070 	pop	{r4, r5, r6, pc}

0000cbdc <__sfp>:
    cbdc:	e59f30dc 	ldr	r3, [pc, #220]	; ccc0 <__sfp+0xe4>
    cbe0:	e92d4070 	push	{r4, r5, r6, lr}
    cbe4:	e5935000 	ldr	r5, [r3]
    cbe8:	e1a06000 	mov	r6, r0
    cbec:	e5953038 	ldr	r3, [r5, #56]	; 0x38
    cbf0:	e3530000 	cmp	r3, #0
    cbf4:	1a000001 	bne	cc00 <__sfp+0x24>
    cbf8:	e1a00005 	mov	r0, r5
    cbfc:	ebffff8d 	bl	ca38 <__sinit.part.1>
    cc00:	e2855e2e 	add	r5, r5, #736	; 0x2e0
    cc04:	e9950018 	ldmib	r5, {r3, r4}
    cc08:	e2533001 	subs	r3, r3, #1
    cc0c:	5a000004 	bpl	cc24 <__sfp+0x48>
    cc10:	ea00001c 	b	cc88 <__sfp+0xac>
    cc14:	e2433001 	sub	r3, r3, #1
    cc18:	e3730001 	cmn	r3, #1
    cc1c:	e2844068 	add	r4, r4, #104	; 0x68
    cc20:	0a000018 	beq	cc88 <__sfp+0xac>
    cc24:	e1d420fc 	ldrsh	r2, [r4, #12]
    cc28:	e3520000 	cmp	r2, #0
    cc2c:	1afffff8 	bne	cc14 <__sfp+0x38>
    cc30:	e3a05000 	mov	r5, #0
    cc34:	e3a03001 	mov	r3, #1
    cc38:	e3e02000 	mvn	r2, #0
    cc3c:	e1c430bc 	strh	r3, [r4, #12]
    cc40:	e1c420be 	strh	r2, [r4, #14]
    cc44:	e5845064 	str	r5, [r4, #100]	; 0x64
    cc48:	e5845000 	str	r5, [r4]
    cc4c:	e5845008 	str	r5, [r4, #8]
    cc50:	e5845004 	str	r5, [r4, #4]
    cc54:	e5845010 	str	r5, [r4, #16]
    cc58:	e5845014 	str	r5, [r4, #20]
    cc5c:	e5845018 	str	r5, [r4, #24]
    cc60:	e1a01005 	mov	r1, r5
    cc64:	e284005c 	add	r0, r4, #92	; 0x5c
    cc68:	e3a02008 	mov	r2, #8
    cc6c:	eb0004b5 	bl	df48 <memset>
    cc70:	e1a00004 	mov	r0, r4
    cc74:	e5845030 	str	r5, [r4, #48]	; 0x30
    cc78:	e5845034 	str	r5, [r4, #52]	; 0x34
    cc7c:	e5845044 	str	r5, [r4, #68]	; 0x44
    cc80:	e5845048 	str	r5, [r4, #72]	; 0x48
    cc84:	e8bd8070 	pop	{r4, r5, r6, pc}
    cc88:	e5953000 	ldr	r3, [r5]
    cc8c:	e3530000 	cmp	r3, #0
    cc90:	11a05003 	movne	r5, r3
    cc94:	1affffda 	bne	cc04 <__sfp+0x28>
    cc98:	e1a00006 	mov	r0, r6
    cc9c:	e3a01004 	mov	r1, #4
    cca0:	ebffffbb 	bl	cb94 <__sfmoreglue>
    cca4:	e3500000 	cmp	r0, #0
    cca8:	e5850000 	str	r0, [r5]
    ccac:	11a05000 	movne	r5, r0
    ccb0:	1affffd3 	bne	cc04 <__sfp+0x28>
    ccb4:	e3a0200c 	mov	r2, #12
    ccb8:	e5862000 	str	r2, [r6]
    ccbc:	e8bd8070 	pop	{r4, r5, r6, pc}
    ccc0:	00016cc4 	andeq	r6, r1, r4, asr #25

0000ccc4 <_cleanup>:
    ccc4:	e59f3008 	ldr	r3, [pc, #8]	; ccd4 <_cleanup+0x10>
    ccc8:	e59f1008 	ldr	r1, [pc, #8]	; ccd8 <_cleanup+0x14>
    cccc:	e5930000 	ldr	r0, [r3]
    ccd0:	ea00011e 	b	d150 <_fwalk_reent>
    ccd4:	00016cc4 	andeq	r6, r1, r4, asr #25
    ccd8:	00012400 	andeq	r2, r1, r0, lsl #8

0000ccdc <__sinit>:
    ccdc:	e5903038 	ldr	r3, [r0, #56]	; 0x38
    cce0:	e3530000 	cmp	r3, #0
    cce4:	112fff1e 	bxne	lr
    cce8:	eaffff52 	b	ca38 <__sinit.part.1>

0000ccec <__sfp_lock_acquire>:
    ccec:	e12fff1e 	bx	lr

0000ccf0 <__sfp_lock_release>:
    ccf0:	e12fff1e 	bx	lr

0000ccf4 <__sinit_lock_acquire>:
    ccf4:	e12fff1e 	bx	lr

0000ccf8 <__sinit_lock_release>:
    ccf8:	e12fff1e 	bx	lr

0000ccfc <__fp_lock_all>:
    ccfc:	e59f3008 	ldr	r3, [pc, #8]	; cd0c <__fp_lock_all+0x10>
    cd00:	e59f1008 	ldr	r1, [pc, #8]	; cd10 <__fp_lock_all+0x14>
    cd04:	e5930000 	ldr	r0, [r3]
    cd08:	ea0000f2 	b	d0d8 <_fwalk>
    cd0c:	00017948 	andeq	r7, r1, r8, asr #18
    cd10:	0000ca1c 	andeq	ip, r0, ip, lsl sl

0000cd14 <__fp_unlock_all>:
    cd14:	e59f3008 	ldr	r3, [pc, #8]	; cd24 <__fp_unlock_all+0x10>
    cd18:	e59f1008 	ldr	r1, [pc, #8]	; cd28 <__fp_unlock_all+0x14>
    cd1c:	e5930000 	ldr	r0, [r3]
    cd20:	ea0000ec 	b	d0d8 <_fwalk>
    cd24:	00017948 	andeq	r7, r1, r8, asr #18
    cd28:	0000ca24 	andeq	ip, r0, r4, lsr #20

0000cd2c <_malloc_trim_r>:
    cd2c:	e92d40f8 	push	{r3, r4, r5, r6, r7, lr}
    cd30:	e1a04001 	mov	r4, r1
    cd34:	e59f70dc 	ldr	r7, [pc, #220]	; ce18 <_malloc_trim_r+0xec>
    cd38:	e1a05000 	mov	r5, r0
    cd3c:	eb0006c3 	bl	e850 <__malloc_lock>
    cd40:	e5973008 	ldr	r3, [r7, #8]
    cd44:	e5936004 	ldr	r6, [r3, #4]
    cd48:	e3c66003 	bic	r6, r6, #3
    cd4c:	e0644006 	rsb	r4, r4, r6
    cd50:	e2844efe 	add	r4, r4, #4064	; 0xfe0
    cd54:	e284400f 	add	r4, r4, #15
    cd58:	e1a04624 	lsr	r4, r4, #12
    cd5c:	e2444001 	sub	r4, r4, #1
    cd60:	e1a04604 	lsl	r4, r4, #12
    cd64:	e3540a01 	cmp	r4, #4096	; 0x1000
    cd68:	ba000006 	blt	cd88 <_malloc_trim_r+0x5c>
    cd6c:	e1a00005 	mov	r0, r5
    cd70:	e3a01000 	mov	r1, #0
    cd74:	eb0006d4 	bl	e8cc <_sbrk_r>
    cd78:	e5973008 	ldr	r3, [r7, #8]
    cd7c:	e0833006 	add	r3, r3, r6
    cd80:	e1500003 	cmp	r0, r3
    cd84:	0a000003 	beq	cd98 <_malloc_trim_r+0x6c>
    cd88:	e1a00005 	mov	r0, r5
    cd8c:	eb0006b0 	bl	e854 <__malloc_unlock>
    cd90:	e3a00000 	mov	r0, #0
    cd94:	e8bd80f8 	pop	{r3, r4, r5, r6, r7, pc}
    cd98:	e1a00005 	mov	r0, r5
    cd9c:	e2641000 	rsb	r1, r4, #0
    cda0:	eb0006c9 	bl	e8cc <_sbrk_r>
    cda4:	e3700001 	cmn	r0, #1
    cda8:	0a00000b 	beq	cddc <_malloc_trim_r+0xb0>
    cdac:	e59f2068 	ldr	r2, [pc, #104]	; ce1c <_malloc_trim_r+0xf0>
    cdb0:	e5971008 	ldr	r1, [r7, #8]
    cdb4:	e5923000 	ldr	r3, [r2]
    cdb8:	e0646006 	rsb	r6, r4, r6
    cdbc:	e3866001 	orr	r6, r6, #1
    cdc0:	e1a00005 	mov	r0, r5
    cdc4:	e0644003 	rsb	r4, r4, r3
    cdc8:	e5816004 	str	r6, [r1, #4]
    cdcc:	e5824000 	str	r4, [r2]
    cdd0:	eb00069f 	bl	e854 <__malloc_unlock>
    cdd4:	e3a00001 	mov	r0, #1
    cdd8:	e8bd80f8 	pop	{r3, r4, r5, r6, r7, pc}
    cddc:	e1a00005 	mov	r0, r5
    cde0:	e3a01000 	mov	r1, #0
    cde4:	eb0006b8 	bl	e8cc <_sbrk_r>
    cde8:	e5972008 	ldr	r2, [r7, #8]
    cdec:	e0623000 	rsb	r3, r2, r0
    cdf0:	e353000f 	cmp	r3, #15
    cdf4:	daffffe3 	ble	cd88 <_malloc_trim_r+0x5c>
    cdf8:	e59fc020 	ldr	ip, [pc, #32]	; ce20 <_malloc_trim_r+0xf4>
    cdfc:	e59f1018 	ldr	r1, [pc, #24]	; ce1c <_malloc_trim_r+0xf0>
    ce00:	e59cc000 	ldr	ip, [ip]
    ce04:	e3833001 	orr	r3, r3, #1
    ce08:	e06c0000 	rsb	r0, ip, r0
    ce0c:	e5823004 	str	r3, [r2, #4]
    ce10:	e5810000 	str	r0, [r1]
    ce14:	eaffffdb 	b	cd88 <_malloc_trim_r+0x5c>
    ce18:	00017d78 	andeq	r7, r1, r8, ror sp
    ce1c:	0001a31c 	andeq	sl, r1, ip, lsl r3
    ce20:	00018180 	andeq	r8, r1, r0, lsl #3

0000ce24 <_free_r>:
    ce24:	e3510000 	cmp	r1, #0
    ce28:	012fff1e 	bxeq	lr
    ce2c:	e92d4070 	push	{r4, r5, r6, lr}
    ce30:	e1a04001 	mov	r4, r1
    ce34:	e1a05000 	mov	r5, r0
    ce38:	eb000684 	bl	e850 <__malloc_lock>
    ce3c:	e5141004 	ldr	r1, [r4, #-4]
    ce40:	e59f027c 	ldr	r0, [pc, #636]	; d0c4 <_free_r+0x2a0>
    ce44:	e3c12001 	bic	r2, r1, #1
    ce48:	e244c008 	sub	ip, r4, #8
    ce4c:	e08ce002 	add	lr, ip, r2
    ce50:	e5906008 	ldr	r6, [r0, #8]
    ce54:	e59e3004 	ldr	r3, [lr, #4]
    ce58:	e156000e 	cmp	r6, lr
    ce5c:	e3c33003 	bic	r3, r3, #3
    ce60:	0a00004a 	beq	cf90 <_free_r+0x16c>
    ce64:	e3110001 	tst	r1, #1
    ce68:	e58e3004 	str	r3, [lr, #4]
    ce6c:	1a000009 	bne	ce98 <_free_r+0x74>
    ce70:	e5144008 	ldr	r4, [r4, #-8]
    ce74:	e2806008 	add	r6, r0, #8
    ce78:	e064c00c 	rsb	ip, r4, ip
    ce7c:	e59c1008 	ldr	r1, [ip, #8]
    ce80:	e0822004 	add	r2, r2, r4
    ce84:	e1510006 	cmp	r1, r6
    ce88:	0a000056 	beq	cfe8 <_free_r+0x1c4>
    ce8c:	e59c400c 	ldr	r4, [ip, #12]
    ce90:	e581400c 	str	r4, [r1, #12]
    ce94:	e5841008 	str	r1, [r4, #8]
    ce98:	e08e1003 	add	r1, lr, r3
    ce9c:	e5911004 	ldr	r1, [r1, #4]
    cea0:	e3110001 	tst	r1, #1
    cea4:	1a00000b 	bne	ced8 <_free_r+0xb4>
    cea8:	e59f4218 	ldr	r4, [pc, #536]	; d0c8 <_free_r+0x2a4>
    ceac:	e59e1008 	ldr	r1, [lr, #8]
    ceb0:	e0822003 	add	r2, r2, r3
    ceb4:	e1510004 	cmp	r1, r4
    ceb8:	0a00006c 	beq	d070 <_free_r+0x24c>
    cebc:	e59ee00c 	ldr	lr, [lr, #12]
    cec0:	e3823001 	orr	r3, r2, #1
    cec4:	e581e00c 	str	lr, [r1, #12]
    cec8:	e58e1008 	str	r1, [lr, #8]
    cecc:	e58c3004 	str	r3, [ip, #4]
    ced0:	e78c2002 	str	r2, [ip, r2]
    ced4:	ea000002 	b	cee4 <_free_r+0xc0>
    ced8:	e3823001 	orr	r3, r2, #1
    cedc:	e58c3004 	str	r3, [ip, #4]
    cee0:	e78c2002 	str	r2, [ip, r2]
    cee4:	e3520c02 	cmp	r2, #512	; 0x200
    cee8:	2a00000e 	bcs	cf28 <_free_r+0x104>
    ceec:	e3a04001 	mov	r4, #1
    cef0:	e1a021a2 	lsr	r2, r2, #3
    cef4:	e0803182 	add	r3, r0, r2, lsl #3
    cef8:	e5901004 	ldr	r1, [r0, #4]
    cefc:	e593e008 	ldr	lr, [r3, #8]
    cf00:	e1a02142 	asr	r2, r2, #2
    cf04:	e1812214 	orr	r2, r1, r4, lsl r2
    cf08:	e58ce008 	str	lr, [ip, #8]
    cf0c:	e58c300c 	str	r3, [ip, #12]
    cf10:	e5802004 	str	r2, [r0, #4]
    cf14:	e583c008 	str	ip, [r3, #8]
    cf18:	e58ec00c 	str	ip, [lr, #12]
    cf1c:	e1a00005 	mov	r0, r5
    cf20:	e8bd4070 	pop	{r4, r5, r6, lr}
    cf24:	ea00064a 	b	e854 <__malloc_unlock>
    cf28:	e1a034a2 	lsr	r3, r2, #9
    cf2c:	e3530004 	cmp	r3, #4
    cf30:	8a00003d 	bhi	d02c <_free_r+0x208>
    cf34:	e1a03322 	lsr	r3, r2, #6
    cf38:	e2831038 	add	r1, r3, #56	; 0x38
    cf3c:	e1a03081 	lsl	r3, r1, #1
    cf40:	e0800103 	add	r0, r0, r3, lsl #2
    cf44:	e5903008 	ldr	r3, [r0, #8]
    cf48:	e59fe174 	ldr	lr, [pc, #372]	; d0c4 <_free_r+0x2a0>
    cf4c:	e1530000 	cmp	r3, r0
    cf50:	0a00003f 	beq	d054 <_free_r+0x230>
    cf54:	e5931004 	ldr	r1, [r3, #4]
    cf58:	e3c11003 	bic	r1, r1, #3
    cf5c:	e1510002 	cmp	r1, r2
    cf60:	9a000002 	bls	cf70 <_free_r+0x14c>
    cf64:	e5933008 	ldr	r3, [r3, #8]
    cf68:	e1500003 	cmp	r0, r3
    cf6c:	1afffff8 	bne	cf54 <_free_r+0x130>
    cf70:	e593200c 	ldr	r2, [r3, #12]
    cf74:	e58c200c 	str	r2, [ip, #12]
    cf78:	e58c3008 	str	r3, [ip, #8]
    cf7c:	e1a00005 	mov	r0, r5
    cf80:	e8bd4070 	pop	{r4, r5, r6, lr}
    cf84:	e582c008 	str	ip, [r2, #8]
    cf88:	e583c00c 	str	ip, [r3, #12]
    cf8c:	ea000630 	b	e854 <__malloc_unlock>
    cf90:	e3110001 	tst	r1, #1
    cf94:	e0832002 	add	r2, r3, r2
    cf98:	1a000006 	bne	cfb8 <_free_r+0x194>
    cf9c:	e514e008 	ldr	lr, [r4, #-8]
    cfa0:	e06ec00c 	rsb	ip, lr, ip
    cfa4:	e59c300c 	ldr	r3, [ip, #12]
    cfa8:	e59c1008 	ldr	r1, [ip, #8]
    cfac:	e082200e 	add	r2, r2, lr
    cfb0:	e581300c 	str	r3, [r1, #12]
    cfb4:	e5831008 	str	r1, [r3, #8]
    cfb8:	e59f310c 	ldr	r3, [pc, #268]	; d0cc <_free_r+0x2a8>
    cfbc:	e3821001 	orr	r1, r2, #1
    cfc0:	e5933000 	ldr	r3, [r3]
    cfc4:	e58c1004 	str	r1, [ip, #4]
    cfc8:	e1520003 	cmp	r2, r3
    cfcc:	e580c008 	str	ip, [r0, #8]
    cfd0:	3affffd1 	bcc	cf1c <_free_r+0xf8>
    cfd4:	e59f30f4 	ldr	r3, [pc, #244]	; d0d0 <_free_r+0x2ac>
    cfd8:	e1a00005 	mov	r0, r5
    cfdc:	e5931000 	ldr	r1, [r3]
    cfe0:	ebffff51 	bl	cd2c <_malloc_trim_r>
    cfe4:	eaffffcc 	b	cf1c <_free_r+0xf8>
    cfe8:	e08e1003 	add	r1, lr, r3
    cfec:	e5911004 	ldr	r1, [r1, #4]
    cff0:	e3110001 	tst	r1, #1
    cff4:	1a000008 	bne	d01c <_free_r+0x1f8>
    cff8:	e59e1008 	ldr	r1, [lr, #8]
    cffc:	e0823003 	add	r3, r2, r3
    d000:	e59e200c 	ldr	r2, [lr, #12]
    d004:	e3830001 	orr	r0, r3, #1
    d008:	e581200c 	str	r2, [r1, #12]
    d00c:	e5821008 	str	r1, [r2, #8]
    d010:	e58c0004 	str	r0, [ip, #4]
    d014:	e78c3003 	str	r3, [ip, r3]
    d018:	eaffffbf 	b	cf1c <_free_r+0xf8>
    d01c:	e3823001 	orr	r3, r2, #1
    d020:	e58c3004 	str	r3, [ip, #4]
    d024:	e78c2002 	str	r2, [ip, r2]
    d028:	eaffffbb 	b	cf1c <_free_r+0xf8>
    d02c:	e3530014 	cmp	r3, #20
    d030:	9283105b 	addls	r1, r3, #91	; 0x5b
    d034:	91a03081 	lslls	r3, r1, #1
    d038:	9affffc0 	bls	cf40 <_free_r+0x11c>
    d03c:	e3530054 	cmp	r3, #84	; 0x54
    d040:	8a000012 	bhi	d090 <_free_r+0x26c>
    d044:	e1a03622 	lsr	r3, r2, #12
    d048:	e283106e 	add	r1, r3, #110	; 0x6e
    d04c:	e1a03081 	lsl	r3, r1, #1
    d050:	eaffffba 	b	cf40 <_free_r+0x11c>
    d054:	e3a00001 	mov	r0, #1
    d058:	e59e2004 	ldr	r2, [lr, #4]
    d05c:	e1a01141 	asr	r1, r1, #2
    d060:	e1821110 	orr	r1, r2, r0, lsl r1
    d064:	e58e1004 	str	r1, [lr, #4]
    d068:	e1a02003 	mov	r2, r3
    d06c:	eaffffc0 	b	cf74 <_free_r+0x150>
    d070:	e3823001 	orr	r3, r2, #1
    d074:	e580c014 	str	ip, [r0, #20]
    d078:	e580c010 	str	ip, [r0, #16]
    d07c:	e58c100c 	str	r1, [ip, #12]
    d080:	e58c1008 	str	r1, [ip, #8]
    d084:	e58c3004 	str	r3, [ip, #4]
    d088:	e78c2002 	str	r2, [ip, r2]
    d08c:	eaffffa2 	b	cf1c <_free_r+0xf8>
    d090:	e3530f55 	cmp	r3, #340	; 0x154
    d094:	91a037a2 	lsrls	r3, r2, #15
    d098:	92831077 	addls	r1, r3, #119	; 0x77
    d09c:	91a03081 	lslls	r3, r1, #1
    d0a0:	9affffa6 	bls	cf40 <_free_r+0x11c>
    d0a4:	e59f1028 	ldr	r1, [pc, #40]	; d0d4 <_free_r+0x2b0>
    d0a8:	e1530001 	cmp	r3, r1
    d0ac:	91a03922 	lsrls	r3, r2, #18
    d0b0:	9283107c 	addls	r1, r3, #124	; 0x7c
    d0b4:	91a03081 	lslls	r3, r1, #1
    d0b8:	83a030fc 	movhi	r3, #252	; 0xfc
    d0bc:	83a0107e 	movhi	r1, #126	; 0x7e
    d0c0:	eaffff9e 	b	cf40 <_free_r+0x11c>
    d0c4:	00017d78 	andeq	r7, r1, r8, ror sp
    d0c8:	00017d80 	andeq	r7, r1, r0, lsl #27
    d0cc:	00018184 	andeq	r8, r1, r4, lsl #3
    d0d0:	0001a318 	andeq	sl, r1, r8, lsl r3
    d0d4:	00000554 	andeq	r0, r0, r4, asr r5

0000d0d8 <_fwalk>:
    d0d8:	e92d41f0 	push	{r4, r5, r6, r7, r8, lr}
    d0dc:	e2907e2e 	adds	r7, r0, #736	; 0x2e0
    d0e0:	0a000017 	beq	d144 <_fwalk+0x6c>
    d0e4:	e1a08001 	mov	r8, r1
    d0e8:	e3a06000 	mov	r6, #0
    d0ec:	e5975004 	ldr	r5, [r7, #4]
    d0f0:	e5974008 	ldr	r4, [r7, #8]
    d0f4:	e2555001 	subs	r5, r5, #1
    d0f8:	4a00000c 	bmi	d130 <_fwalk+0x58>
    d0fc:	e1d430bc 	ldrh	r3, [r4, #12]
    d100:	e2455001 	sub	r5, r5, #1
    d104:	e3530001 	cmp	r3, #1
    d108:	9a000005 	bls	d124 <_fwalk+0x4c>
    d10c:	e1d430fe 	ldrsh	r3, [r4, #14]
    d110:	e3730001 	cmn	r3, #1
    d114:	0a000002 	beq	d124 <_fwalk+0x4c>
    d118:	e1a00004 	mov	r0, r4
    d11c:	e12fff38 	blx	r8
    d120:	e1866000 	orr	r6, r6, r0
    d124:	e3750001 	cmn	r5, #1
    d128:	e2844068 	add	r4, r4, #104	; 0x68
    d12c:	1afffff2 	bne	d0fc <_fwalk+0x24>
    d130:	e5977000 	ldr	r7, [r7]
    d134:	e3570000 	cmp	r7, #0
    d138:	1affffeb 	bne	d0ec <_fwalk+0x14>
    d13c:	e1a00006 	mov	r0, r6
    d140:	e8bd81f0 	pop	{r4, r5, r6, r7, r8, pc}
    d144:	e1a06007 	mov	r6, r7
    d148:	e1a00006 	mov	r0, r6
    d14c:	e8bd81f0 	pop	{r4, r5, r6, r7, r8, pc}

0000d150 <_fwalk_reent>:
    d150:	e92d43f8 	push	{r3, r4, r5, r6, r7, r8, r9, lr}
    d154:	e2906e2e 	adds	r6, r0, #736	; 0x2e0
    d158:	0a000019 	beq	d1c4 <_fwalk_reent+0x74>
    d15c:	e1a08001 	mov	r8, r1
    d160:	e1a07000 	mov	r7, r0
    d164:	e3a09000 	mov	r9, #0
    d168:	e5965004 	ldr	r5, [r6, #4]
    d16c:	e5964008 	ldr	r4, [r6, #8]
    d170:	e2555001 	subs	r5, r5, #1
    d174:	4a00000d 	bmi	d1b0 <_fwalk_reent+0x60>
    d178:	e1d430bc 	ldrh	r3, [r4, #12]
    d17c:	e2455001 	sub	r5, r5, #1
    d180:	e3530001 	cmp	r3, #1
    d184:	9a000006 	bls	d1a4 <_fwalk_reent+0x54>
    d188:	e1d430fe 	ldrsh	r3, [r4, #14]
    d18c:	e3730001 	cmn	r3, #1
    d190:	0a000003 	beq	d1a4 <_fwalk_reent+0x54>
    d194:	e1a00007 	mov	r0, r7
    d198:	e1a01004 	mov	r1, r4
    d19c:	e12fff38 	blx	r8
    d1a0:	e1899000 	orr	r9, r9, r0
    d1a4:	e3750001 	cmn	r5, #1
    d1a8:	e2844068 	add	r4, r4, #104	; 0x68
    d1ac:	1afffff1 	bne	d178 <_fwalk_reent+0x28>
    d1b0:	e5966000 	ldr	r6, [r6]
    d1b4:	e3560000 	cmp	r6, #0
    d1b8:	1affffea 	bne	d168 <_fwalk_reent+0x18>
    d1bc:	e1a00009 	mov	r0, r9
    d1c0:	e8bd83f8 	pop	{r3, r4, r5, r6, r7, r8, r9, pc}
    d1c4:	e1a09006 	mov	r9, r6
    d1c8:	e1a00009 	mov	r0, r9
    d1cc:	e8bd83f8 	pop	{r3, r4, r5, r6, r7, r8, r9, pc}

0000d1d0 <localtime>:
    d1d0:	e59f3008 	ldr	r3, [pc, #8]	; d1e0 <localtime+0x10>
    d1d4:	e5931000 	ldr	r1, [r3]
    d1d8:	e281107c 	add	r1, r1, #124	; 0x7c
    d1dc:	ea000000 	b	d1e4 <localtime_r>
    d1e0:	00017948 	andeq	r7, r1, r8, asr #18

0000d1e4 <localtime_r>:
    d1e4:	e92d41f0 	push	{r4, r5, r6, r7, r8, lr}
    d1e8:	e1a04001 	mov	r4, r1
    d1ec:	e1a07000 	mov	r7, r0
    d1f0:	eb0014c4 	bl	12508 <__gettzinfo>
    d1f4:	e1a01004 	mov	r1, r4
    d1f8:	e1a08000 	mov	r8, r0
    d1fc:	e1a00007 	mov	r0, r7
    d200:	eb0014c3 	bl	12514 <gmtime_r>
    d204:	e5905014 	ldr	r5, [r0, #20]
    d208:	e1a04000 	mov	r4, r0
    d20c:	e2855e76 	add	r5, r5, #1888	; 0x760
    d210:	e285500c 	add	r5, r5, #12
    d214:	e3150003 	tst	r5, #3
    d218:	11a01fc5 	asrne	r1, r5, #31
    d21c:	1a000028 	bne	d2c4 <localtime_r+0xe0>
    d220:	e3a02064 	mov	r2, #100	; 0x64
    d224:	e59f3318 	ldr	r3, [pc, #792]	; d544 <localtime_r+0x360>
    d228:	e1a01fc5 	asr	r1, r5, #31
    d22c:	e0c30593 	smull	r0, r3, r3, r5
    d230:	e06132c3 	rsb	r3, r1, r3, asr #5
    d234:	e0030392 	mul	r3, r2, r3
    d238:	e1550003 	cmp	r5, r3
    d23c:	13a03001 	movne	r3, #1
    d240:	0a00001f 	beq	d2c4 <localtime_r+0xe0>
    d244:	e1a06083 	lsl	r6, r3, #1
    d248:	e59f22f8 	ldr	r2, [pc, #760]	; d548 <localtime_r+0x364>
    d24c:	e0863003 	add	r3, r6, r3
    d250:	e0826203 	add	r6, r2, r3, lsl #4
    d254:	eb00067e 	bl	ec54 <__tz_lock>
    d258:	e59f32ec 	ldr	r3, [pc, #748]	; d54c <localtime_r+0x368>
    d25c:	e5933000 	ldr	r3, [r3]
    d260:	e3530000 	cmp	r3, #0
    d264:	0a000027 	beq	d308 <localtime_r+0x124>
    d268:	e5983004 	ldr	r3, [r8, #4]
    d26c:	e1530005 	cmp	r3, r5
    d270:	0a000003 	beq	d284 <localtime_r+0xa0>
    d274:	e1a00005 	mov	r0, r5
    d278:	eb0005e8 	bl	ea20 <__tzcalc_limits>
    d27c:	e3500000 	cmp	r0, #0
    d280:	0a000087 	beq	d4a4 <localtime_r+0x2c0>
    d284:	e5983000 	ldr	r3, [r8]
    d288:	e3530000 	cmp	r3, #0
    d28c:	1a000015 	bne	d2e8 <localtime_r+0x104>
    d290:	e5973000 	ldr	r3, [r7]
    d294:	e598201c 	ldr	r2, [r8, #28]
    d298:	e1530002 	cmp	r3, r2
    d29c:	aa000083 	bge	d4b0 <localtime_r+0x2cc>
    d2a0:	e5982038 	ldr	r2, [r8, #56]	; 0x38
    d2a4:	e1530002 	cmp	r3, r2
    d2a8:	a3a03000 	movge	r3, #0
    d2ac:	b3a03001 	movlt	r3, #1
    d2b0:	e3530000 	cmp	r3, #0
    d2b4:	e5843020 	str	r3, [r4, #32]
    d2b8:	0a000013 	beq	d30c <localtime_r+0x128>
    d2bc:	e598003c 	ldr	r0, [r8, #60]	; 0x3c
    d2c0:	ea000012 	b	d310 <localtime_r+0x12c>
    d2c4:	e3a02e19 	mov	r2, #400	; 0x190
    d2c8:	e59f3274 	ldr	r3, [pc, #628]	; d544 <localtime_r+0x360>
    d2cc:	e0c30593 	smull	r0, r3, r3, r5
    d2d0:	e06133c3 	rsb	r3, r1, r3, asr #7
    d2d4:	e0030392 	mul	r3, r2, r3
    d2d8:	e0633005 	rsb	r3, r3, r5
    d2dc:	e16f3f13 	clz	r3, r3
    d2e0:	e1a032a3 	lsr	r3, r3, #5
    d2e4:	eaffffd6 	b	d244 <localtime_r+0x60>
    d2e8:	e5973000 	ldr	r3, [r7]
    d2ec:	e598201c 	ldr	r2, [r8, #28]
    d2f0:	e1530002 	cmp	r3, r2
    d2f4:	ba000002 	blt	d304 <localtime_r+0x120>
    d2f8:	e5982038 	ldr	r2, [r8, #56]	; 0x38
    d2fc:	e1530002 	cmp	r3, r2
    d300:	ba00006a 	blt	d4b0 <localtime_r+0x2cc>
    d304:	e3a03000 	mov	r3, #0
    d308:	e5843020 	str	r3, [r4, #32]
    d30c:	e5980020 	ldr	r0, [r8, #32]
    d310:	e3a02ee1 	mov	r2, #3600	; 0xe10
    d314:	e59f3234 	ldr	r3, [pc, #564]	; d550 <localtime_r+0x36c>
    d318:	e1a0efc0 	asr	lr, r0, #31
    d31c:	e0c31093 	smull	r1, r3, r3, r0
    d320:	e0833000 	add	r3, r3, r0
    d324:	e1a035c3 	asr	r3, r3, #11
    d328:	e06e1003 	rsb	r1, lr, r3
    d32c:	e0010192 	mul	r1, r2, r1
    d330:	e59f221c 	ldr	r2, [pc, #540]	; d554 <localtime_r+0x370>
    d334:	e0611000 	rsb	r1, r1, r0
    d338:	e0c20192 	smull	r0, r2, r2, r1
    d33c:	e1a00fc1 	asr	r0, r1, #31
    d340:	e0822001 	add	r2, r2, r1
    d344:	e060c2c2 	rsb	ip, r0, r2, asr #5
    d348:	e06c220c 	rsb	r2, ip, ip, lsl #4
    d34c:	e5940000 	ldr	r0, [r4]
    d350:	e5945008 	ldr	r5, [r4, #8]
    d354:	e0411102 	sub	r1, r1, r2, lsl #2
    d358:	e5942004 	ldr	r2, [r4, #4]
    d35c:	e0611000 	rsb	r1, r1, r0
    d360:	e06e3003 	rsb	r3, lr, r3
    d364:	e0633005 	rsb	r3, r3, r5
    d368:	e06c2002 	rsb	r2, ip, r2
    d36c:	e351003b 	cmp	r1, #59	; 0x3b
    d370:	e884000e 	stm	r4, {r1, r2, r3}
    d374:	da000045 	ble	d490 <localtime_r+0x2ac>
    d378:	e2822001 	add	r2, r2, #1
    d37c:	e241103c 	sub	r1, r1, #60	; 0x3c
    d380:	e8840006 	stm	r4, {r1, r2}
    d384:	e352003b 	cmp	r2, #59	; 0x3b
    d388:	da00003b 	ble	d47c <localtime_r+0x298>
    d38c:	e2833001 	add	r3, r3, #1
    d390:	e242203c 	sub	r2, r2, #60	; 0x3c
    d394:	e984000c 	stmib	r4, {r2, r3}
    d398:	e3530017 	cmp	r3, #23
    d39c:	da00001e 	ble	d41c <localtime_r+0x238>
    d3a0:	e5942018 	ldr	r2, [r4, #24]
    d3a4:	e594101c 	ldr	r1, [r4, #28]
    d3a8:	e2822001 	add	r2, r2, #1
    d3ac:	e3520006 	cmp	r2, #6
    d3b0:	c3a02000 	movgt	r2, #0
    d3b4:	e5842018 	str	r2, [r4, #24]
    d3b8:	e594200c 	ldr	r2, [r4, #12]
    d3bc:	e2811001 	add	r1, r1, #1
    d3c0:	e584101c 	str	r1, [r4, #28]
    d3c4:	e2433018 	sub	r3, r3, #24
    d3c8:	e2822001 	add	r2, r2, #1
    d3cc:	e5941010 	ldr	r1, [r4, #16]
    d3d0:	e5843008 	str	r3, [r4, #8]
    d3d4:	e584200c 	str	r2, [r4, #12]
    d3d8:	e7963101 	ldr	r3, [r6, r1, lsl #2]
    d3dc:	e1520003 	cmp	r2, r3
    d3e0:	da00000a 	ble	d410 <localtime_r+0x22c>
    d3e4:	e2811001 	add	r1, r1, #1
    d3e8:	e351000c 	cmp	r1, #12
    d3ec:	e0632002 	rsb	r2, r3, r2
    d3f0:	e584200c 	str	r2, [r4, #12]
    d3f4:	03a02000 	moveq	r2, #0
    d3f8:	05943014 	ldreq	r3, [r4, #20]
    d3fc:	15841010 	strne	r1, [r4, #16]
    d400:	02833001 	addeq	r3, r3, #1
    d404:	05842010 	streq	r2, [r4, #16]
    d408:	05843014 	streq	r3, [r4, #20]
    d40c:	0584201c 	streq	r2, [r4, #28]
    d410:	eb000610 	bl	ec58 <__tz_unlock>
    d414:	e1a00004 	mov	r0, r4
    d418:	e8bd81f0 	pop	{r4, r5, r6, r7, r8, pc}
    d41c:	e3530000 	cmp	r3, #0
    d420:	aafffffa 	bge	d410 <localtime_r+0x22c>
    d424:	e5942018 	ldr	r2, [r4, #24]
    d428:	e594101c 	ldr	r1, [r4, #28]
    d42c:	e2522001 	subs	r2, r2, #1
    d430:	43a02006 	movmi	r2, #6
    d434:	e5842018 	str	r2, [r4, #24]
    d438:	e594200c 	ldr	r2, [r4, #12]
    d43c:	e2411001 	sub	r1, r1, #1
    d440:	e2422001 	sub	r2, r2, #1
    d444:	e2833018 	add	r3, r3, #24
    d448:	e3520000 	cmp	r2, #0
    d44c:	e584101c 	str	r1, [r4, #28]
    d450:	e5843008 	str	r3, [r4, #8]
    d454:	e584200c 	str	r2, [r4, #12]
    d458:	1affffec 	bne	d410 <localtime_r+0x22c>
    d45c:	e5943010 	ldr	r3, [r4, #16]
    d460:	e2533001 	subs	r3, r3, #1
    d464:	4a000014 	bmi	d4bc <localtime_r+0x2d8>
    d468:	e5843010 	str	r3, [r4, #16]
    d46c:	e1a03103 	lsl	r3, r3, #2
    d470:	e7963003 	ldr	r3, [r6, r3]
    d474:	e584300c 	str	r3, [r4, #12]
    d478:	eaffffe4 	b	d410 <localtime_r+0x22c>
    d47c:	e3520000 	cmp	r2, #0
    d480:	b2433001 	sublt	r3, r3, #1
    d484:	b282203c 	addlt	r2, r2, #60	; 0x3c
    d488:	b984000c 	stmiblt	r4, {r2, r3}
    d48c:	eaffffc1 	b	d398 <localtime_r+0x1b4>
    d490:	e3510000 	cmp	r1, #0
    d494:	b2422001 	sublt	r2, r2, #1
    d498:	b281103c 	addlt	r1, r1, #60	; 0x3c
    d49c:	b8840006 	stmlt	r4, {r1, r2}
    d4a0:	eaffffb7 	b	d384 <localtime_r+0x1a0>
    d4a4:	e3e03000 	mvn	r3, #0
    d4a8:	e5843020 	str	r3, [r4, #32]
    d4ac:	eaffff96 	b	d30c <localtime_r+0x128>
    d4b0:	e3a03001 	mov	r3, #1
    d4b4:	e5843020 	str	r3, [r4, #32]
    d4b8:	eaffff7f 	b	d2bc <localtime_r+0xd8>
    d4bc:	e3a0200b 	mov	r2, #11
    d4c0:	e5943014 	ldr	r3, [r4, #20]
    d4c4:	e5842010 	str	r2, [r4, #16]
    d4c8:	e2432001 	sub	r2, r3, #1
    d4cc:	e3120003 	tst	r2, #3
    d4d0:	e5842014 	str	r2, [r4, #20]
    d4d4:	0a00000e 	beq	d514 <localtime_r+0x330>
    d4d8:	e2833e76 	add	r3, r3, #1888	; 0x760
    d4dc:	e283300b 	add	r3, r3, #11
    d4e0:	e1a01fc3 	asr	r1, r3, #31
    d4e4:	e3a02e19 	mov	r2, #400	; 0x190
    d4e8:	e59f0054 	ldr	r0, [pc, #84]	; d544 <localtime_r+0x360>
    d4ec:	e0c0c390 	smull	ip, r0, r0, r3
    d4f0:	e06113c0 	rsb	r1, r1, r0, asr #7
    d4f4:	e0010192 	mul	r1, r2, r1
    d4f8:	e0613003 	rsb	r3, r1, r3
    d4fc:	e16f3f13 	clz	r3, r3
    d500:	e1a032a3 	lsr	r3, r3, #5
    d504:	e2832f5b 	add	r2, r3, #364	; 0x16c
    d508:	e3a0302c 	mov	r3, #44	; 0x2c
    d50c:	e584201c 	str	r2, [r4, #28]
    d510:	eaffffd6 	b	d470 <localtime_r+0x28c>
    d514:	e3a00064 	mov	r0, #100	; 0x64
    d518:	e2833e76 	add	r3, r3, #1888	; 0x760
    d51c:	e59f2020 	ldr	r2, [pc, #32]	; d544 <localtime_r+0x360>
    d520:	e283300b 	add	r3, r3, #11
    d524:	e0c21392 	smull	r1, r2, r2, r3
    d528:	e1a01fc3 	asr	r1, r3, #31
    d52c:	e06122c2 	rsb	r2, r1, r2, asr #5
    d530:	e0020290 	mul	r2, r0, r2
    d534:	e1530002 	cmp	r3, r2
    d538:	159f2018 	ldrne	r2, [pc, #24]	; d558 <localtime_r+0x374>
    d53c:	1afffff1 	bne	d508 <localtime_r+0x324>
    d540:	eaffffe7 	b	d4e4 <localtime_r+0x300>
    d544:	51eb851f 	mvnpl	r8, pc, lsl r5
    d548:	00016d28 	andeq	r6, r1, r8, lsr #26
    d54c:	0001a350 	andeq	sl, r1, r0, asr r3
    d550:	91a2b3c5 			; <UNDEFINED> instruction: 0x91a2b3c5
    d554:	88888889 	stmhi	r8, {r0, r3, r7, fp, pc}
    d558:	0000016d 	andeq	r0, r0, sp, ror #2

0000d55c <_malloc_r>:
    d55c:	e92d4ff0 	push	{r4, r5, r6, r7, r8, r9, sl, fp, lr}
    d560:	e281500b 	add	r5, r1, #11
    d564:	e3550016 	cmp	r5, #22
    d568:	e24dd00c 	sub	sp, sp, #12
    d56c:	e1a06000 	mov	r6, r0
    d570:	9a00001e 	bls	d5f0 <_malloc_r+0x94>
    d574:	e3c55007 	bic	r5, r5, #7
    d578:	e1510005 	cmp	r1, r5
    d57c:	93a01000 	movls	r1, #0
    d580:	83a01001 	movhi	r1, #1
    d584:	e1913fa5 	orrs	r3, r1, r5, lsr #31
    d588:	1a000082 	bne	d798 <_malloc_r+0x23c>
    d58c:	eb0004af 	bl	e850 <__malloc_lock>
    d590:	e3550f7e 	cmp	r5, #504	; 0x1f8
    d594:	2a00001a 	bcs	d604 <_malloc_r+0xa8>
    d598:	e59f76d4 	ldr	r7, [pc, #1748]	; dc74 <_malloc_r+0x718>
    d59c:	e1a001a5 	lsr	r0, r5, #3
    d5a0:	e0873180 	add	r3, r7, r0, lsl #3
    d5a4:	e593400c 	ldr	r4, [r3, #12]
    d5a8:	e1540003 	cmp	r4, r3
    d5ac:	0a000107 	beq	d9d0 <_malloc_r+0x474>
    d5b0:	e5943004 	ldr	r3, [r4, #4]
    d5b4:	e594100c 	ldr	r1, [r4, #12]
    d5b8:	e3c33003 	bic	r3, r3, #3
    d5bc:	e0843003 	add	r3, r4, r3
    d5c0:	e5932004 	ldr	r2, [r3, #4]
    d5c4:	e594c008 	ldr	ip, [r4, #8]
    d5c8:	e3822001 	orr	r2, r2, #1
    d5cc:	e58c100c 	str	r1, [ip, #12]
    d5d0:	e1a00006 	mov	r0, r6
    d5d4:	e581c008 	str	ip, [r1, #8]
    d5d8:	e5832004 	str	r2, [r3, #4]
    d5dc:	eb00049c 	bl	e854 <__malloc_unlock>
    d5e0:	e2844008 	add	r4, r4, #8
    d5e4:	e1a00004 	mov	r0, r4
    d5e8:	e28dd00c 	add	sp, sp, #12
    d5ec:	e8bd8ff0 	pop	{r4, r5, r6, r7, r8, r9, sl, fp, pc}
    d5f0:	e3510010 	cmp	r1, #16
    d5f4:	8a000067 	bhi	d798 <_malloc_r+0x23c>
    d5f8:	eb000494 	bl	e850 <__malloc_lock>
    d5fc:	e3a05010 	mov	r5, #16
    d600:	eaffffe4 	b	d598 <_malloc_r+0x3c>
    d604:	e1b004a5 	lsrs	r0, r5, #9
    d608:	03a0107e 	moveq	r1, #126	; 0x7e
    d60c:	03a0003f 	moveq	r0, #63	; 0x3f
    d610:	1a000066 	bne	d7b0 <_malloc_r+0x254>
    d614:	e59f7658 	ldr	r7, [pc, #1624]	; dc74 <_malloc_r+0x718>
    d618:	e0871101 	add	r1, r7, r1, lsl #2
    d61c:	e591400c 	ldr	r4, [r1, #12]
    d620:	e1510004 	cmp	r1, r4
    d624:	1a000005 	bne	d640 <_malloc_r+0xe4>
    d628:	ea00000a 	b	d658 <_malloc_r+0xfc>
    d62c:	e3520000 	cmp	r2, #0
    d630:	aa0000a1 	bge	d8bc <_malloc_r+0x360>
    d634:	e594400c 	ldr	r4, [r4, #12]
    d638:	e1510004 	cmp	r1, r4
    d63c:	0a000005 	beq	d658 <_malloc_r+0xfc>
    d640:	e5943004 	ldr	r3, [r4, #4]
    d644:	e3c33003 	bic	r3, r3, #3
    d648:	e0652003 	rsb	r2, r5, r3
    d64c:	e352000f 	cmp	r2, #15
    d650:	dafffff5 	ble	d62c <_malloc_r+0xd0>
    d654:	e2400001 	sub	r0, r0, #1
    d658:	e2800001 	add	r0, r0, #1
    d65c:	e59f1610 	ldr	r1, [pc, #1552]	; dc74 <_malloc_r+0x718>
    d660:	e5974010 	ldr	r4, [r7, #16]
    d664:	e281c008 	add	ip, r1, #8
    d668:	e154000c 	cmp	r4, ip
    d66c:	05913004 	ldreq	r3, [r1, #4]
    d670:	0a000016 	beq	d6d0 <_malloc_r+0x174>
    d674:	e5943004 	ldr	r3, [r4, #4]
    d678:	e3c33003 	bic	r3, r3, #3
    d67c:	e0652003 	rsb	r2, r5, r3
    d680:	e352000f 	cmp	r2, #15
    d684:	ca0000bf 	bgt	d988 <_malloc_r+0x42c>
    d688:	e3520000 	cmp	r2, #0
    d68c:	e581c014 	str	ip, [r1, #20]
    d690:	e581c010 	str	ip, [r1, #16]
    d694:	aa00004b 	bge	d7c8 <_malloc_r+0x26c>
    d698:	e3530c02 	cmp	r3, #512	; 0x200
    d69c:	2a0000a0 	bcs	d924 <_malloc_r+0x3c8>
    d6a0:	e3a09001 	mov	r9, #1
    d6a4:	e1a0e1a3 	lsr	lr, r3, #3
    d6a8:	e081818e 	add	r8, r1, lr, lsl #3
    d6ac:	e5912004 	ldr	r2, [r1, #4]
    d6b0:	e1a0314e 	asr	r3, lr, #2
    d6b4:	e598e008 	ldr	lr, [r8, #8]
    d6b8:	e1823319 	orr	r3, r2, r9, lsl r3
    d6bc:	e584e008 	str	lr, [r4, #8]
    d6c0:	e584800c 	str	r8, [r4, #12]
    d6c4:	e5813004 	str	r3, [r1, #4]
    d6c8:	e5884008 	str	r4, [r8, #8]
    d6cc:	e58e400c 	str	r4, [lr, #12]
    d6d0:	e3a0e001 	mov	lr, #1
    d6d4:	e1a02140 	asr	r2, r0, #2
    d6d8:	e1a0e21e 	lsl	lr, lr, r2
    d6dc:	e15e0003 	cmp	lr, r3
    d6e0:	8a000042 	bhi	d7f0 <_malloc_r+0x294>
    d6e4:	e113000e 	tst	r3, lr
    d6e8:	1a000008 	bne	d710 <_malloc_r+0x1b4>
    d6ec:	e1a0e08e 	lsl	lr, lr, #1
    d6f0:	e3c00003 	bic	r0, r0, #3
    d6f4:	e113000e 	tst	r3, lr
    d6f8:	e2800004 	add	r0, r0, #4
    d6fc:	1a000003 	bne	d710 <_malloc_r+0x1b4>
    d700:	e1a0e08e 	lsl	lr, lr, #1
    d704:	e113000e 	tst	r3, lr
    d708:	e2800004 	add	r0, r0, #4
    d70c:	0afffffb 	beq	d700 <_malloc_r+0x1a4>
    d710:	e0878180 	add	r8, r7, r0, lsl #3
    d714:	e1a04008 	mov	r4, r8
    d718:	e1a09000 	mov	r9, r0
    d71c:	e594300c 	ldr	r3, [r4, #12]
    d720:	e1540003 	cmp	r4, r3
    d724:	1a000005 	bne	d740 <_malloc_r+0x1e4>
    d728:	ea0000a3 	b	d9bc <_malloc_r+0x460>
    d72c:	e3510000 	cmp	r1, #0
    d730:	aa0000ac 	bge	d9e8 <_malloc_r+0x48c>
    d734:	e593300c 	ldr	r3, [r3, #12]
    d738:	e1540003 	cmp	r4, r3
    d73c:	0a00009e 	beq	d9bc <_malloc_r+0x460>
    d740:	e5932004 	ldr	r2, [r3, #4]
    d744:	e3c22003 	bic	r2, r2, #3
    d748:	e0651002 	rsb	r1, r5, r2
    d74c:	e351000f 	cmp	r1, #15
    d750:	dafffff5 	ble	d72c <_malloc_r+0x1d0>
    d754:	e1a04003 	mov	r4, r3
    d758:	e593200c 	ldr	r2, [r3, #12]
    d75c:	e5b4e008 	ldr	lr, [r4, #8]!
    d760:	e3859001 	orr	r9, r5, #1
    d764:	e3818001 	orr	r8, r1, #1
    d768:	e0835005 	add	r5, r3, r5
    d76c:	e5839004 	str	r9, [r3, #4]
    d770:	e1a00006 	mov	r0, r6
    d774:	e58e200c 	str	r2, [lr, #12]
    d778:	e582e008 	str	lr, [r2, #8]
    d77c:	e5875014 	str	r5, [r7, #20]
    d780:	e5875010 	str	r5, [r7, #16]
    d784:	e585c00c 	str	ip, [r5, #12]
    d788:	e9851100 	stmib	r5, {r8, ip}
    d78c:	e7851001 	str	r1, [r5, r1]
    d790:	eb00042f 	bl	e854 <__malloc_unlock>
    d794:	eaffff92 	b	d5e4 <_malloc_r+0x88>
    d798:	e3a04000 	mov	r4, #0
    d79c:	e3a0300c 	mov	r3, #12
    d7a0:	e1a00004 	mov	r0, r4
    d7a4:	e5863000 	str	r3, [r6]
    d7a8:	e28dd00c 	add	sp, sp, #12
    d7ac:	e8bd8ff0 	pop	{r4, r5, r6, r7, r8, r9, sl, fp, pc}
    d7b0:	e3500004 	cmp	r0, #4
    d7b4:	8a000050 	bhi	d8fc <_malloc_r+0x3a0>
    d7b8:	e1a00325 	lsr	r0, r5, #6
    d7bc:	e2800038 	add	r0, r0, #56	; 0x38
    d7c0:	e1a01080 	lsl	r1, r0, #1
    d7c4:	eaffff92 	b	d614 <_malloc_r+0xb8>
    d7c8:	e0843003 	add	r3, r4, r3
    d7cc:	e5932004 	ldr	r2, [r3, #4]
    d7d0:	e1a00006 	mov	r0, r6
    d7d4:	e3822001 	orr	r2, r2, #1
    d7d8:	e5832004 	str	r2, [r3, #4]
    d7dc:	e2844008 	add	r4, r4, #8
    d7e0:	eb00041b 	bl	e854 <__malloc_unlock>
    d7e4:	e1a00004 	mov	r0, r4
    d7e8:	e28dd00c 	add	sp, sp, #12
    d7ec:	e8bd8ff0 	pop	{r4, r5, r6, r7, r8, r9, sl, fp, pc}
    d7f0:	e5974008 	ldr	r4, [r7, #8]
    d7f4:	e59f1478 	ldr	r1, [pc, #1144]	; dc74 <_malloc_r+0x718>
    d7f8:	e5948004 	ldr	r8, [r4, #4]
    d7fc:	e3c88003 	bic	r8, r8, #3
    d800:	e1580005 	cmp	r8, r5
    d804:	23a02000 	movcs	r2, #0
    d808:	33a02001 	movcc	r2, #1
    d80c:	e0653008 	rsb	r3, r5, r8
    d810:	e353000f 	cmp	r3, #15
    d814:	d3822001 	orrle	r2, r2, #1
    d818:	e3520000 	cmp	r2, #0
    d81c:	0a00002a 	beq	d8cc <_malloc_r+0x370>
    d820:	e59f9450 	ldr	r9, [pc, #1104]	; dc78 <_malloc_r+0x71c>
    d824:	e5912408 	ldr	r2, [r1, #1032]	; 0x408
    d828:	e5993000 	ldr	r3, [r9]
    d82c:	e3720001 	cmn	r2, #1
    d830:	e0853003 	add	r3, r5, r3
    d834:	12833a01 	addne	r3, r3, #4096	; 0x1000
    d838:	1283300f 	addne	r3, r3, #15
    d83c:	13c33eff 	bicne	r3, r3, #4080	; 0xff0
    d840:	0283a010 	addeq	sl, r3, #16
    d844:	13c3a00f 	bicne	sl, r3, #15
    d848:	e1a00006 	mov	r0, r6
    d84c:	e1a0100a 	mov	r1, sl
    d850:	eb00041d 	bl	e8cc <_sbrk_r>
    d854:	e3700001 	cmn	r0, #1
    d858:	e1a0b000 	mov	fp, r0
    d85c:	0a000007 	beq	d880 <_malloc_r+0x324>
    d860:	e0542007 	subs	r2, r4, r7
    d864:	e0843008 	add	r3, r4, r8
    d868:	13a02001 	movne	r2, #1
    d86c:	e1540007 	cmp	r4, r7
    d870:	11530000 	cmpne	r3, r0
    d874:	e58d2004 	str	r2, [sp, #4]
    d878:	e59f03f4 	ldr	r0, [pc, #1012]	; dc74 <_malloc_r+0x718>
    d87c:	9a000089 	bls	daa8 <_malloc_r+0x54c>
    d880:	e5974008 	ldr	r4, [r7, #8]
    d884:	e5943004 	ldr	r3, [r4, #4]
    d888:	e3c33003 	bic	r3, r3, #3
    d88c:	e1550003 	cmp	r5, r3
    d890:	93a02000 	movls	r2, #0
    d894:	83a02001 	movhi	r2, #1
    d898:	e0653003 	rsb	r3, r5, r3
    d89c:	e353000f 	cmp	r3, #15
    d8a0:	d3822001 	orrle	r2, r2, #1
    d8a4:	e3520000 	cmp	r2, #0
    d8a8:	0a000007 	beq	d8cc <_malloc_r+0x370>
    d8ac:	e1a00006 	mov	r0, r6
    d8b0:	eb0003e7 	bl	e854 <__malloc_unlock>
    d8b4:	e3a04000 	mov	r4, #0
    d8b8:	eaffff49 	b	d5e4 <_malloc_r+0x88>
    d8bc:	e0843003 	add	r3, r4, r3
    d8c0:	e5932004 	ldr	r2, [r3, #4]
    d8c4:	e594100c 	ldr	r1, [r4, #12]
    d8c8:	eaffff3d 	b	d5c4 <_malloc_r+0x68>
    d8cc:	e3852001 	orr	r2, r5, #1
    d8d0:	e3833001 	orr	r3, r3, #1
    d8d4:	e0845005 	add	r5, r4, r5
    d8d8:	e5842004 	str	r2, [r4, #4]
    d8dc:	e1a00006 	mov	r0, r6
    d8e0:	e5875008 	str	r5, [r7, #8]
    d8e4:	e2844008 	add	r4, r4, #8
    d8e8:	e5853004 	str	r3, [r5, #4]
    d8ec:	eb0003d8 	bl	e854 <__malloc_unlock>
    d8f0:	e1a00004 	mov	r0, r4
    d8f4:	e28dd00c 	add	sp, sp, #12
    d8f8:	e8bd8ff0 	pop	{r4, r5, r6, r7, r8, r9, sl, fp, pc}
    d8fc:	e3500014 	cmp	r0, #20
    d900:	9280005b 	addls	r0, r0, #91	; 0x5b
    d904:	91a01080 	lslls	r1, r0, #1
    d908:	9affff41 	bls	d614 <_malloc_r+0xb8>
    d90c:	e3500054 	cmp	r0, #84	; 0x54
    d910:	8a0000a7 	bhi	dbb4 <_malloc_r+0x658>
    d914:	e1a00625 	lsr	r0, r5, #12
    d918:	e280006e 	add	r0, r0, #110	; 0x6e
    d91c:	e1a01080 	lsl	r1, r0, #1
    d920:	eaffff3b 	b	d614 <_malloc_r+0xb8>
    d924:	e1a024a3 	lsr	r2, r3, #9
    d928:	e3520004 	cmp	r2, #4
    d92c:	8a000039 	bhi	da18 <_malloc_r+0x4bc>
    d930:	e1a02323 	lsr	r2, r3, #6
    d934:	e2821038 	add	r1, r2, #56	; 0x38
    d938:	e1a0e081 	lsl	lr, r1, #1
    d93c:	e087e10e 	add	lr, r7, lr, lsl #2
    d940:	e59e2008 	ldr	r2, [lr, #8]
    d944:	e59f8328 	ldr	r8, [pc, #808]	; dc74 <_malloc_r+0x718>
    d948:	e152000e 	cmp	r2, lr
    d94c:	0a00009e 	beq	dbcc <_malloc_r+0x670>
    d950:	e5921004 	ldr	r1, [r2, #4]
    d954:	e3c11003 	bic	r1, r1, #3
    d958:	e1530001 	cmp	r3, r1
    d95c:	2a000002 	bcs	d96c <_malloc_r+0x410>
    d960:	e5922008 	ldr	r2, [r2, #8]
    d964:	e15e0002 	cmp	lr, r2
    d968:	1afffff8 	bne	d950 <_malloc_r+0x3f4>
    d96c:	e592100c 	ldr	r1, [r2, #12]
    d970:	e5973004 	ldr	r3, [r7, #4]
    d974:	e584100c 	str	r1, [r4, #12]
    d978:	e5842008 	str	r2, [r4, #8]
    d97c:	e5814008 	str	r4, [r1, #8]
    d980:	e582400c 	str	r4, [r2, #12]
    d984:	eaffff51 	b	d6d0 <_malloc_r+0x174>
    d988:	e385e001 	orr	lr, r5, #1
    d98c:	e3823001 	orr	r3, r2, #1
    d990:	e0845005 	add	r5, r4, r5
    d994:	e584e004 	str	lr, [r4, #4]
    d998:	e1a00006 	mov	r0, r6
    d99c:	e5815014 	str	r5, [r1, #20]
    d9a0:	e5815010 	str	r5, [r1, #16]
    d9a4:	e585c00c 	str	ip, [r5, #12]
    d9a8:	e9851008 	stmib	r5, {r3, ip}
    d9ac:	e7852002 	str	r2, [r5, r2]
    d9b0:	e2844008 	add	r4, r4, #8
    d9b4:	eb0003a6 	bl	e854 <__malloc_unlock>
    d9b8:	eaffff09 	b	d5e4 <_malloc_r+0x88>
    d9bc:	e2899001 	add	r9, r9, #1
    d9c0:	e3190003 	tst	r9, #3
    d9c4:	e2844008 	add	r4, r4, #8
    d9c8:	1affff53 	bne	d71c <_malloc_r+0x1c0>
    d9cc:	ea00001f 	b	da50 <_malloc_r+0x4f4>
    d9d0:	e2843008 	add	r3, r4, #8
    d9d4:	e5944014 	ldr	r4, [r4, #20]
    d9d8:	e1530004 	cmp	r3, r4
    d9dc:	02800002 	addeq	r0, r0, #2
    d9e0:	0affff1d 	beq	d65c <_malloc_r+0x100>
    d9e4:	eafffef1 	b	d5b0 <_malloc_r+0x54>
    d9e8:	e1a04003 	mov	r4, r3
    d9ec:	e0832002 	add	r2, r3, r2
    d9f0:	e5921004 	ldr	r1, [r2, #4]
    d9f4:	e593c00c 	ldr	ip, [r3, #12]
    d9f8:	e5b4e008 	ldr	lr, [r4, #8]!
    d9fc:	e3813001 	orr	r3, r1, #1
    da00:	e5823004 	str	r3, [r2, #4]
    da04:	e1a00006 	mov	r0, r6
    da08:	e58ec00c 	str	ip, [lr, #12]
    da0c:	e58ce008 	str	lr, [ip, #8]
    da10:	eb00038f 	bl	e854 <__malloc_unlock>
    da14:	eafffef2 	b	d5e4 <_malloc_r+0x88>
    da18:	e3520014 	cmp	r2, #20
    da1c:	9282105b 	addls	r1, r2, #91	; 0x5b
    da20:	91a0e081 	lslls	lr, r1, #1
    da24:	9affffc4 	bls	d93c <_malloc_r+0x3e0>
    da28:	e3520054 	cmp	r2, #84	; 0x54
    da2c:	8a000081 	bhi	dc38 <_malloc_r+0x6dc>
    da30:	e1a02623 	lsr	r2, r3, #12
    da34:	e282106e 	add	r1, r2, #110	; 0x6e
    da38:	e1a0e081 	lsl	lr, r1, #1
    da3c:	eaffffbe 	b	d93c <_malloc_r+0x3e0>
    da40:	e5988000 	ldr	r8, [r8]
    da44:	e2400001 	sub	r0, r0, #1
    da48:	e1580003 	cmp	r8, r3
    da4c:	1a000086 	bne	dc6c <_malloc_r+0x710>
    da50:	e3100003 	tst	r0, #3
    da54:	e2483008 	sub	r3, r8, #8
    da58:	1afffff8 	bne	da40 <_malloc_r+0x4e4>
    da5c:	e5973004 	ldr	r3, [r7, #4]
    da60:	e1c3300e 	bic	r3, r3, lr
    da64:	e5873004 	str	r3, [r7, #4]
    da68:	e1a0e08e 	lsl	lr, lr, #1
    da6c:	e15e0003 	cmp	lr, r3
    da70:	83a02000 	movhi	r2, #0
    da74:	93a02001 	movls	r2, #1
    da78:	e35e0000 	cmp	lr, #0
    da7c:	03a02000 	moveq	r2, #0
    da80:	e3520000 	cmp	r2, #0
    da84:	0affff59 	beq	d7f0 <_malloc_r+0x294>
    da88:	e113000e 	tst	r3, lr
    da8c:	e1a00009 	mov	r0, r9
    da90:	1affff1e 	bne	d710 <_malloc_r+0x1b4>
    da94:	e1a0e08e 	lsl	lr, lr, #1
    da98:	e113000e 	tst	r3, lr
    da9c:	e2800004 	add	r0, r0, #4
    daa0:	0afffffb 	beq	da94 <_malloc_r+0x538>
    daa4:	eaffff19 	b	d710 <_malloc_r+0x1b4>
    daa8:	e5991004 	ldr	r1, [r9, #4]
    daac:	e153000b 	cmp	r3, fp
    dab0:	e08a1001 	add	r1, sl, r1
    dab4:	e5891004 	str	r1, [r9, #4]
    dab8:	0a000052 	beq	dc08 <_malloc_r+0x6ac>
    dabc:	e5970408 	ldr	r0, [r7, #1032]	; 0x408
    dac0:	e59fc1ac 	ldr	ip, [pc, #428]	; dc74 <_malloc_r+0x718>
    dac4:	e3700001 	cmn	r0, #1
    dac8:	1063300b 	rsbne	r3, r3, fp
    dacc:	10811003 	addne	r1, r1, r3
    dad0:	15891004 	strne	r1, [r9, #4]
    dad4:	058cb408 	streq	fp, [ip, #1032]	; 0x408
    dad8:	e21b3007 	ands	r3, fp, #7
    dadc:	03a01a01 	moveq	r1, #4096	; 0x1000
    dae0:	12631008 	rsbne	r1, r3, #8
    dae4:	108bb001 	addne	fp, fp, r1
    dae8:	12633a01 	rsbne	r3, r3, #4096	; 0x1000
    daec:	12831008 	addne	r1, r3, #8
    daf0:	e08b300a 	add	r3, fp, sl
    daf4:	e1a03a03 	lsl	r3, r3, #20
    daf8:	e041aa23 	sub	sl, r1, r3, lsr #20
    dafc:	e1a0100a 	mov	r1, sl
    db00:	e1a00006 	mov	r0, r6
    db04:	eb000370 	bl	e8cc <_sbrk_r>
    db08:	e3700001 	cmn	r0, #1
    db0c:	03a0a000 	moveq	sl, #0
    db10:	03a03001 	moveq	r3, #1
    db14:	106b3000 	rsbne	r3, fp, r0
    db18:	e5991004 	ldr	r1, [r9, #4]
    db1c:	e59d2004 	ldr	r2, [sp, #4]
    db20:	108a3003 	addne	r3, sl, r3
    db24:	13833001 	orrne	r3, r3, #1
    db28:	e08a1001 	add	r1, sl, r1
    db2c:	e3520000 	cmp	r2, #0
    db30:	e587b008 	str	fp, [r7, #8]
    db34:	e5891004 	str	r1, [r9, #4]
    db38:	e58b3004 	str	r3, [fp, #4]
    db3c:	e59fa134 	ldr	sl, [pc, #308]	; dc78 <_malloc_r+0x71c>
    db40:	0a00000f 	beq	db84 <_malloc_r+0x628>
    db44:	e358000f 	cmp	r8, #15
    db48:	93a03001 	movls	r3, #1
    db4c:	958b3004 	strls	r3, [fp, #4]
    db50:	9affff55 	bls	d8ac <_malloc_r+0x350>
    db54:	e3a00005 	mov	r0, #5
    db58:	e5942004 	ldr	r2, [r4, #4]
    db5c:	e248300c 	sub	r3, r8, #12
    db60:	e3c33007 	bic	r3, r3, #7
    db64:	e2022001 	and	r2, r2, #1
    db68:	e1832002 	orr	r2, r3, r2
    db6c:	e353000f 	cmp	r3, #15
    db70:	e0843003 	add	r3, r4, r3
    db74:	e5842004 	str	r2, [r4, #4]
    db78:	e5830004 	str	r0, [r3, #4]
    db7c:	e5830008 	str	r0, [r3, #8]
    db80:	8a000027 	bhi	dc24 <_malloc_r+0x6c8>
    db84:	e599302c 	ldr	r3, [r9, #44]	; 0x2c
    db88:	e59f20e8 	ldr	r2, [pc, #232]	; dc78 <_malloc_r+0x71c>
    db8c:	e1510003 	cmp	r1, r3
    db90:	e5974008 	ldr	r4, [r7, #8]
    db94:	e5993030 	ldr	r3, [r9, #48]	; 0x30
    db98:	8582102c 	strhi	r1, [r2, #44]	; 0x2c
    db9c:	e1510003 	cmp	r1, r3
    dba0:	e59f20d0 	ldr	r2, [pc, #208]	; dc78 <_malloc_r+0x71c>
    dba4:	e5943004 	ldr	r3, [r4, #4]
    dba8:	85821030 	strhi	r1, [r2, #48]	; 0x30
    dbac:	e3c33003 	bic	r3, r3, #3
    dbb0:	eaffff35 	b	d88c <_malloc_r+0x330>
    dbb4:	e3500f55 	cmp	r0, #340	; 0x154
    dbb8:	8a00000a 	bhi	dbe8 <_malloc_r+0x68c>
    dbbc:	e1a007a5 	lsr	r0, r5, #15
    dbc0:	e2800077 	add	r0, r0, #119	; 0x77
    dbc4:	e1a01080 	lsl	r1, r0, #1
    dbc8:	eafffe91 	b	d614 <_malloc_r+0xb8>
    dbcc:	e3a0e001 	mov	lr, #1
    dbd0:	e5983004 	ldr	r3, [r8, #4]
    dbd4:	e1a01141 	asr	r1, r1, #2
    dbd8:	e183311e 	orr	r3, r3, lr, lsl r1
    dbdc:	e5883004 	str	r3, [r8, #4]
    dbe0:	e1a01002 	mov	r1, r2
    dbe4:	eaffff62 	b	d974 <_malloc_r+0x418>
    dbe8:	e59f308c 	ldr	r3, [pc, #140]	; dc7c <_malloc_r+0x720>
    dbec:	e1500003 	cmp	r0, r3
    dbf0:	91a00925 	lsrls	r0, r5, #18
    dbf4:	9280007c 	addls	r0, r0, #124	; 0x7c
    dbf8:	91a01080 	lslls	r1, r0, #1
    dbfc:	83a010fc 	movhi	r1, #252	; 0xfc
    dc00:	83a0007e 	movhi	r0, #126	; 0x7e
    dc04:	eafffe82 	b	d614 <_malloc_r+0xb8>
    dc08:	e1b02a03 	lsls	r2, r3, #20
    dc0c:	1affffaa 	bne	dabc <_malloc_r+0x560>
    dc10:	e08a3008 	add	r3, sl, r8
    dc14:	e5902008 	ldr	r2, [r0, #8]
    dc18:	e3833001 	orr	r3, r3, #1
    dc1c:	e5823004 	str	r3, [r2, #4]
    dc20:	eaffffd7 	b	db84 <_malloc_r+0x628>
    dc24:	e2841008 	add	r1, r4, #8
    dc28:	e1a00006 	mov	r0, r6
    dc2c:	ebfffc7c 	bl	ce24 <_free_r>
    dc30:	e59a1004 	ldr	r1, [sl, #4]
    dc34:	eaffffd2 	b	db84 <_malloc_r+0x628>
    dc38:	e3520f55 	cmp	r2, #340	; 0x154
    dc3c:	91a027a3 	lsrls	r2, r3, #15
    dc40:	92821077 	addls	r1, r2, #119	; 0x77
    dc44:	91a0e081 	lslls	lr, r1, #1
    dc48:	9affff3b 	bls	d93c <_malloc_r+0x3e0>
    dc4c:	e59f1028 	ldr	r1, [pc, #40]	; dc7c <_malloc_r+0x720>
    dc50:	e1520001 	cmp	r2, r1
    dc54:	91a02923 	lsrls	r2, r3, #18
    dc58:	9282107c 	addls	r1, r2, #124	; 0x7c
    dc5c:	91a0e081 	lslls	lr, r1, #1
    dc60:	83a0e0fc 	movhi	lr, #252	; 0xfc
    dc64:	83a0107e 	movhi	r1, #126	; 0x7e
    dc68:	eaffff33 	b	d93c <_malloc_r+0x3e0>
    dc6c:	e5973004 	ldr	r3, [r7, #4]
    dc70:	eaffff7c 	b	da68 <_malloc_r+0x50c>
    dc74:	00017d78 	andeq	r7, r1, r8, ror sp
    dc78:	0001a318 	andeq	sl, r1, r8, lsl r3
    dc7c:	00000554 	andeq	r0, r0, r4, asr r5

0000dc80 <memcmp>:
    dc80:	e3520003 	cmp	r2, #3
    dc84:	e92d4010 	push	{r4, lr}
    dc88:	9a000011 	bls	dcd4 <memcmp+0x54>
    dc8c:	e1803001 	orr	r3, r0, r1
    dc90:	e3130003 	tst	r3, #3
    dc94:	1a000010 	bne	dcdc <memcmp+0x5c>
    dc98:	e1a0c001 	mov	ip, r1
    dc9c:	e1a03000 	mov	r3, r0
    dca0:	e5934000 	ldr	r4, [r3]
    dca4:	e59ce000 	ldr	lr, [ip]
    dca8:	e1a00003 	mov	r0, r3
    dcac:	e154000e 	cmp	r4, lr
    dcb0:	e1a0100c 	mov	r1, ip
    dcb4:	e2833004 	add	r3, r3, #4
    dcb8:	e28cc004 	add	ip, ip, #4
    dcbc:	1a000004 	bne	dcd4 <memcmp+0x54>
    dcc0:	e2422004 	sub	r2, r2, #4
    dcc4:	e3520003 	cmp	r2, #3
    dcc8:	e1a00003 	mov	r0, r3
    dccc:	e1a0100c 	mov	r1, ip
    dcd0:	8afffff2 	bhi	dca0 <memcmp+0x20>
    dcd4:	e3520000 	cmp	r2, #0
    dcd8:	0a000010 	beq	dd20 <memcmp+0xa0>
    dcdc:	e5d0c000 	ldrb	ip, [r0]
    dce0:	e5d1e000 	ldrb	lr, [r1]
    dce4:	e15c000e 	cmp	ip, lr
    dce8:	00802002 	addeq	r2, r0, r2
    dcec:	02803001 	addeq	r3, r0, #1
    dcf0:	0a000004 	beq	dd08 <memcmp+0x88>
    dcf4:	ea000007 	b	dd18 <memcmp+0x98>
    dcf8:	e4d3c001 	ldrb	ip, [r3], #1
    dcfc:	e5f1e001 	ldrb	lr, [r1, #1]!
    dd00:	e15c000e 	cmp	ip, lr
    dd04:	1a000003 	bne	dd18 <memcmp+0x98>
    dd08:	e1530002 	cmp	r3, r2
    dd0c:	1afffff9 	bne	dcf8 <memcmp+0x78>
    dd10:	e3a00000 	mov	r0, #0
    dd14:	e8bd8010 	pop	{r4, pc}
    dd18:	e06e000c 	rsb	r0, lr, ip
    dd1c:	e8bd8010 	pop	{r4, pc}
    dd20:	e1a00002 	mov	r0, r2
    dd24:	e8bd8010 	pop	{r4, pc}

0000dd28 <memcpy>:
    dd28:	e352000f 	cmp	r2, #15
    dd2c:	e92d4070 	push	{r4, r5, r6, lr}
    dd30:	9a00002b 	bls	dde4 <memcpy+0xbc>
    dd34:	e1803001 	orr	r3, r0, r1
    dd38:	e3130003 	tst	r3, #3
    dd3c:	1a000032 	bne	de0c <memcpy+0xe4>
    dd40:	e1a0e002 	mov	lr, r2
    dd44:	e280c010 	add	ip, r0, #16
    dd48:	e2813010 	add	r3, r1, #16
    dd4c:	e5134010 	ldr	r4, [r3, #-16]
    dd50:	e24ee010 	sub	lr, lr, #16
    dd54:	e50c4010 	str	r4, [ip, #-16]
    dd58:	e513400c 	ldr	r4, [r3, #-12]
    dd5c:	e35e000f 	cmp	lr, #15
    dd60:	e50c400c 	str	r4, [ip, #-12]
    dd64:	e5134008 	ldr	r4, [r3, #-8]
    dd68:	e28cc010 	add	ip, ip, #16
    dd6c:	e50c4018 	str	r4, [ip, #-24]	; 0xffffffe8
    dd70:	e5134004 	ldr	r4, [r3, #-4]
    dd74:	e2833010 	add	r3, r3, #16
    dd78:	e50c4014 	str	r4, [ip, #-20]	; 0xffffffec
    dd7c:	8afffff2 	bhi	dd4c <memcpy+0x24>
    dd80:	e2423010 	sub	r3, r2, #16
    dd84:	e3c3300f 	bic	r3, r3, #15
    dd88:	e202600f 	and	r6, r2, #15
    dd8c:	e2833010 	add	r3, r3, #16
    dd90:	e3560003 	cmp	r6, #3
    dd94:	e0811003 	add	r1, r1, r3
    dd98:	e0803003 	add	r3, r0, r3
    dd9c:	9a00001c 	bls	de14 <memcpy+0xec>
    dda0:	e1a04001 	mov	r4, r1
    dda4:	e1a0c006 	mov	ip, r6
    dda8:	e243e004 	sub	lr, r3, #4
    ddac:	e24cc004 	sub	ip, ip, #4
    ddb0:	e4945004 	ldr	r5, [r4], #4
    ddb4:	e35c0003 	cmp	ip, #3
    ddb8:	e5ae5004 	str	r5, [lr, #4]!
    ddbc:	8afffffa 	bhi	ddac <memcpy+0x84>
    ddc0:	e246c004 	sub	ip, r6, #4
    ddc4:	e3ccc003 	bic	ip, ip, #3
    ddc8:	e2022003 	and	r2, r2, #3
    ddcc:	e28cc004 	add	ip, ip, #4
    ddd0:	e3520000 	cmp	r2, #0
    ddd4:	e083300c 	add	r3, r3, ip
    ddd8:	e081100c 	add	r1, r1, ip
    dddc:	1a000003 	bne	ddf0 <memcpy+0xc8>
    dde0:	e8bd8070 	pop	{r4, r5, r6, pc}
    dde4:	e1a03000 	mov	r3, r0
    dde8:	e3520000 	cmp	r2, #0
    ddec:	08bd8070 	popeq	{r4, r5, r6, pc}
    ddf0:	e2433001 	sub	r3, r3, #1
    ddf4:	e0812002 	add	r2, r1, r2
    ddf8:	e4d1c001 	ldrb	ip, [r1], #1
    ddfc:	e1510002 	cmp	r1, r2
    de00:	e5e3c001 	strb	ip, [r3, #1]!
    de04:	1afffffb 	bne	ddf8 <memcpy+0xd0>
    de08:	e8bd8070 	pop	{r4, r5, r6, pc}
    de0c:	e1a03000 	mov	r3, r0
    de10:	eafffff6 	b	ddf0 <memcpy+0xc8>
    de14:	e1a02006 	mov	r2, r6
    de18:	eafffff2 	b	dde8 <memcpy+0xc0>

0000de1c <memmove>:
    de1c:	e1500001 	cmp	r0, r1
    de20:	e92d4070 	push	{r4, r5, r6, lr}
    de24:	9a00000b 	bls	de58 <memmove+0x3c>
    de28:	e0813002 	add	r3, r1, r2
    de2c:	e1500003 	cmp	r0, r3
    de30:	2a000008 	bcs	de58 <memmove+0x3c>
    de34:	e3520000 	cmp	r2, #0
    de38:	e0801002 	add	r1, r0, r2
    de3c:	08bd8070 	popeq	{r4, r5, r6, pc}
    de40:	e0622003 	rsb	r2, r2, r3
    de44:	e573c001 	ldrb	ip, [r3, #-1]!
    de48:	e1530002 	cmp	r3, r2
    de4c:	e561c001 	strb	ip, [r1, #-1]!
    de50:	1afffffb 	bne	de44 <memmove+0x28>
    de54:	e8bd8070 	pop	{r4, r5, r6, pc}
    de58:	e352000f 	cmp	r2, #15
    de5c:	8a000009 	bhi	de88 <memmove+0x6c>
    de60:	e1a03000 	mov	r3, r0
    de64:	e3520000 	cmp	r2, #0
    de68:	08bd8070 	popeq	{r4, r5, r6, pc}
    de6c:	e2433001 	sub	r3, r3, #1
    de70:	e0812002 	add	r2, r1, r2
    de74:	e4d1c001 	ldrb	ip, [r1], #1
    de78:	e1510002 	cmp	r1, r2
    de7c:	e5e3c001 	strb	ip, [r3, #1]!
    de80:	1afffffb 	bne	de74 <memmove+0x58>
    de84:	e8bd8070 	pop	{r4, r5, r6, pc}
    de88:	e1803001 	orr	r3, r0, r1
    de8c:	e3130003 	tst	r3, #3
    de90:	1a000028 	bne	df38 <memmove+0x11c>
    de94:	e1a0e002 	mov	lr, r2
    de98:	e280c010 	add	ip, r0, #16
    de9c:	e2813010 	add	r3, r1, #16
    dea0:	e5134010 	ldr	r4, [r3, #-16]
    dea4:	e24ee010 	sub	lr, lr, #16
    dea8:	e50c4010 	str	r4, [ip, #-16]
    deac:	e513400c 	ldr	r4, [r3, #-12]
    deb0:	e35e000f 	cmp	lr, #15
    deb4:	e50c400c 	str	r4, [ip, #-12]
    deb8:	e5134008 	ldr	r4, [r3, #-8]
    debc:	e28cc010 	add	ip, ip, #16
    dec0:	e50c4018 	str	r4, [ip, #-24]	; 0xffffffe8
    dec4:	e5134004 	ldr	r4, [r3, #-4]
    dec8:	e2833010 	add	r3, r3, #16
    decc:	e50c4014 	str	r4, [ip, #-20]	; 0xffffffec
    ded0:	8afffff2 	bhi	dea0 <memmove+0x84>
    ded4:	e2423010 	sub	r3, r2, #16
    ded8:	e3c3300f 	bic	r3, r3, #15
    dedc:	e202600f 	and	r6, r2, #15
    dee0:	e2833010 	add	r3, r3, #16
    dee4:	e3560003 	cmp	r6, #3
    dee8:	e0811003 	add	r1, r1, r3
    deec:	e0803003 	add	r3, r0, r3
    def0:	9a000012 	bls	df40 <memmove+0x124>
    def4:	e1a04001 	mov	r4, r1
    def8:	e1a0c006 	mov	ip, r6
    defc:	e243e004 	sub	lr, r3, #4
    df00:	e24cc004 	sub	ip, ip, #4
    df04:	e4945004 	ldr	r5, [r4], #4
    df08:	e35c0003 	cmp	ip, #3
    df0c:	e5ae5004 	str	r5, [lr, #4]!
    df10:	8afffffa 	bhi	df00 <memmove+0xe4>
    df14:	e246c004 	sub	ip, r6, #4
    df18:	e3ccc003 	bic	ip, ip, #3
    df1c:	e2022003 	and	r2, r2, #3
    df20:	e28cc004 	add	ip, ip, #4
    df24:	e3520000 	cmp	r2, #0
    df28:	e083300c 	add	r3, r3, ip
    df2c:	e081100c 	add	r1, r1, ip
    df30:	1affffcd 	bne	de6c <memmove+0x50>
    df34:	e8bd8070 	pop	{r4, r5, r6, pc}
    df38:	e1a03000 	mov	r3, r0
    df3c:	eaffffca 	b	de6c <memmove+0x50>
    df40:	e1a02006 	mov	r2, r6
    df44:	eaffffc6 	b	de64 <memmove+0x48>

0000df48 <memset>:
    df48:	e3100003 	tst	r0, #3
    df4c:	e92d4010 	push	{r4, lr}
    df50:	0a000036 	beq	e030 <memset+0xe8>
    df54:	e3520000 	cmp	r2, #0
    df58:	e2422001 	sub	r2, r2, #1
    df5c:	08bd8010 	popeq	{r4, pc}
    df60:	e6efc071 	uxtb	ip, r1
    df64:	e1a03000 	mov	r3, r0
    df68:	ea000002 	b	df78 <memset+0x30>
    df6c:	e3520000 	cmp	r2, #0
    df70:	e2422001 	sub	r2, r2, #1
    df74:	08bd8010 	popeq	{r4, pc}
    df78:	e4c3c001 	strb	ip, [r3], #1
    df7c:	e3130003 	tst	r3, #3
    df80:	1afffff9 	bne	df6c <memset+0x24>
    df84:	e3520003 	cmp	r2, #3
    df88:	9a000020 	bls	e010 <memset+0xc8>
    df8c:	e6efe071 	uxtb	lr, r1
    df90:	e18ee40e 	orr	lr, lr, lr, lsl #8
    df94:	e352000f 	cmp	r2, #15
    df98:	e18ee80e 	orr	lr, lr, lr, lsl #16
    df9c:	9a000010 	bls	dfe4 <memset+0x9c>
    dfa0:	e1a04002 	mov	r4, r2
    dfa4:	e283c010 	add	ip, r3, #16
    dfa8:	e2444010 	sub	r4, r4, #16
    dfac:	e354000f 	cmp	r4, #15
    dfb0:	e50ce010 	str	lr, [ip, #-16]
    dfb4:	e50ce00c 	str	lr, [ip, #-12]
    dfb8:	e50ce008 	str	lr, [ip, #-8]
    dfbc:	e50ce004 	str	lr, [ip, #-4]
    dfc0:	e28cc010 	add	ip, ip, #16
    dfc4:	8afffff7 	bhi	dfa8 <memset+0x60>
    dfc8:	e242c010 	sub	ip, r2, #16
    dfcc:	e3ccc00f 	bic	ip, ip, #15
    dfd0:	e202200f 	and	r2, r2, #15
    dfd4:	e28cc010 	add	ip, ip, #16
    dfd8:	e3520003 	cmp	r2, #3
    dfdc:	e083300c 	add	r3, r3, ip
    dfe0:	9a00000a 	bls	e010 <memset+0xc8>
    dfe4:	e1a04003 	mov	r4, r3
    dfe8:	e1a0c002 	mov	ip, r2
    dfec:	e24cc004 	sub	ip, ip, #4
    dff0:	e35c0003 	cmp	ip, #3
    dff4:	e484e004 	str	lr, [r4], #4
    dff8:	8afffffb 	bhi	dfec <memset+0xa4>
    dffc:	e242c004 	sub	ip, r2, #4
    e000:	e3ccc003 	bic	ip, ip, #3
    e004:	e28cc004 	add	ip, ip, #4
    e008:	e083300c 	add	r3, r3, ip
    e00c:	e2022003 	and	r2, r2, #3
    e010:	e3520000 	cmp	r2, #0
    e014:	08bd8010 	popeq	{r4, pc}
    e018:	e6ef1071 	uxtb	r1, r1
    e01c:	e0832002 	add	r2, r3, r2
    e020:	e4c31001 	strb	r1, [r3], #1
    e024:	e1530002 	cmp	r3, r2
    e028:	1afffffc 	bne	e020 <memset+0xd8>
    e02c:	e8bd8010 	pop	{r4, pc}
    e030:	e1a03000 	mov	r3, r0
    e034:	eaffffd2 	b	df84 <memset+0x3c>

0000e038 <validate_structure>:
    e038:	e92d43f0 	push	{r4, r5, r6, r7, r8, r9, lr}
    e03c:	e5901000 	ldr	r1, [r0]
    e040:	e24dd00c 	sub	sp, sp, #12
    e044:	e351003b 	cmp	r1, #59	; 0x3b
    e048:	e1a04000 	mov	r4, r0
    e04c:	8a00009d 	bhi	e2c8 <validate_structure+0x290>
    e050:	e5901004 	ldr	r1, [r0, #4]
    e054:	e351003b 	cmp	r1, #59	; 0x3b
    e058:	8a00008c 	bhi	e290 <validate_structure+0x258>
    e05c:	e5941008 	ldr	r1, [r4, #8]
    e060:	e3510017 	cmp	r1, #23
    e064:	8a00007b 	bhi	e258 <validate_structure+0x220>
    e068:	e5941010 	ldr	r1, [r4, #16]
    e06c:	e351000b 	cmp	r1, #11
    e070:	8a000069 	bhi	e21c <validate_structure+0x1e4>
    e074:	e5943014 	ldr	r3, [r4, #20]
    e078:	e3130003 	tst	r3, #3
    e07c:	1a00003a 	bne	e16c <validate_structure+0x134>
    e080:	e3a00064 	mov	r0, #100	; 0x64
    e084:	e59fc2d0 	ldr	ip, [pc, #720]	; e35c <validate_structure+0x324>
    e088:	e1a02fc3 	asr	r2, r3, #31
    e08c:	e0ce539c 	smull	r5, lr, ip, r3
    e090:	e06222ce 	rsb	r2, r2, lr, asr #5
    e094:	e0020290 	mul	r2, r0, r2
    e098:	e1530002 	cmp	r3, r2
    e09c:	13a0001d 	movne	r0, #29
    e0a0:	0a000052 	beq	e1f0 <validate_structure+0x1b8>
    e0a4:	e594300c 	ldr	r3, [r4, #12]
    e0a8:	e3530000 	cmp	r3, #0
    e0ac:	da000032 	ble	e17c <validate_structure+0x144>
    e0b0:	e3a06000 	mov	r6, #0
    e0b4:	e3a08064 	mov	r8, #100	; 0x64
    e0b8:	e3a09e19 	mov	r9, #400	; 0x190
    e0bc:	e59f529c 	ldr	r5, [pc, #668]	; e360 <validate_structure+0x328>
    e0c0:	e59f7294 	ldr	r7, [pc, #660]	; e35c <validate_structure+0x324>
    e0c4:	e2812001 	add	r2, r1, #1
    e0c8:	e085c101 	add	ip, r5, r1, lsl #2
    e0cc:	ea00000a 	b	e0fc <validate_structure+0xc4>
    e0d0:	e59ce000 	ldr	lr, [ip]
    e0d4:	e15e0003 	cmp	lr, r3
    e0d8:	e06e3003 	rsb	r3, lr, r3
    e0dc:	aa000010 	bge	e124 <validate_structure+0xec>
    e0e0:	e352000c 	cmp	r2, #12
    e0e4:	e584300c 	str	r3, [r4, #12]
    e0e8:	e5842010 	str	r2, [r4, #16]
    e0ec:	0a00000e 	beq	e12c <validate_structure+0xf4>
    e0f0:	e2811001 	add	r1, r1, #1
    e0f4:	e2822001 	add	r2, r2, #1
    e0f8:	e28cc004 	add	ip, ip, #4
    e0fc:	e3510001 	cmp	r1, #1
    e100:	1afffff2 	bne	e0d0 <validate_structure+0x98>
    e104:	e1500003 	cmp	r0, r3
    e108:	e0603003 	rsb	r3, r0, r3
    e10c:	aa000004 	bge	e124 <validate_structure+0xec>
    e110:	e584300c 	str	r3, [r4, #12]
    e114:	e5842010 	str	r2, [r4, #16]
    e118:	eafffff4 	b	e0f0 <validate_structure+0xb8>
    e11c:	e5841010 	str	r1, [r4, #16]
    e120:	e584300c 	str	r3, [r4, #12]
    e124:	e28dd00c 	add	sp, sp, #12
    e128:	e8bd83f0 	pop	{r4, r5, r6, r7, r8, r9, pc}
    e12c:	e5941014 	ldr	r1, [r4, #20]
    e130:	e5846010 	str	r6, [r4, #16]
    e134:	e2812001 	add	r2, r1, #1
    e138:	e3120003 	tst	r2, #3
    e13c:	e5842014 	str	r2, [r4, #20]
    e140:	13a0001c 	movne	r0, #28
    e144:	1a000006 	bne	e164 <validate_structure+0x12c>
    e148:	e0cc0297 	smull	r0, ip, r7, r2
    e14c:	e1a00fc2 	asr	r0, r2, #31
    e150:	e06002cc 	rsb	r0, r0, ip, asr #5
    e154:	e0000098 	mul	r0, r8, r0
    e158:	e1520000 	cmp	r2, r0
    e15c:	13a0001d 	movne	r0, #29
    e160:	0a000072 	beq	e330 <validate_structure+0x2f8>
    e164:	e3a01000 	mov	r1, #0
    e168:	eaffffd5 	b	e0c4 <validate_structure+0x8c>
    e16c:	e594300c 	ldr	r3, [r4, #12]
    e170:	e3a0001c 	mov	r0, #28
    e174:	e3530000 	cmp	r3, #0
    e178:	caffffcc 	bgt	e0b0 <validate_structure+0x78>
    e17c:	e3a05064 	mov	r5, #100	; 0x64
    e180:	e3a06e19 	mov	r6, #400	; 0x190
    e184:	e59fc1d4 	ldr	ip, [pc, #468]	; e360 <validate_structure+0x328>
    e188:	e59fe1cc 	ldr	lr, [pc, #460]	; e35c <validate_structure+0x324>
    e18c:	ea000006 	b	e1ac <validate_structure+0x174>
    e190:	e3510001 	cmp	r1, #1
    e194:	01a02000 	moveq	r2, r0
    e198:	0a000000 	beq	e1a0 <validate_structure+0x168>
    e19c:	e79c2101 	ldr	r2, [ip, r1, lsl #2]
    e1a0:	e0833002 	add	r3, r3, r2
    e1a4:	e3530000 	cmp	r3, #0
    e1a8:	caffffdb 	bgt	e11c <validate_structure+0xe4>
    e1ac:	e2511001 	subs	r1, r1, #1
    e1b0:	2afffff6 	bcs	e190 <validate_structure+0x158>
    e1b4:	e5941014 	ldr	r1, [r4, #20]
    e1b8:	e2412001 	sub	r2, r1, #1
    e1bc:	e3120003 	tst	r2, #3
    e1c0:	e5842014 	str	r2, [r4, #20]
    e1c4:	13a0001c 	movne	r0, #28
    e1c8:	1a000006 	bne	e1e8 <validate_structure+0x1b0>
    e1cc:	e0c7029e 	smull	r0, r7, lr, r2
    e1d0:	e1a00fc2 	asr	r0, r2, #31
    e1d4:	e06002c7 	rsb	r0, r0, r7, asr #5
    e1d8:	e0000095 	mul	r0, r5, r0
    e1dc:	e1520000 	cmp	r2, r0
    e1e0:	13a0001d 	movne	r0, #29
    e1e4:	0a000046 	beq	e304 <validate_structure+0x2cc>
    e1e8:	e3a0100b 	mov	r1, #11
    e1ec:	eaffffea 	b	e19c <validate_structure+0x164>
    e1f0:	e3a02e19 	mov	r2, #400	; 0x190
    e1f4:	e2833e76 	add	r3, r3, #1888	; 0x760
    e1f8:	e283300c 	add	r3, r3, #12
    e1fc:	e0cc039c 	smull	r0, ip, ip, r3
    e200:	e1a00fc3 	asr	r0, r3, #31
    e204:	e06003cc 	rsb	r0, r0, ip, asr #7
    e208:	e0000092 	mul	r0, r2, r0
    e20c:	e1530000 	cmp	r3, r0
    e210:	03a0001d 	moveq	r0, #29
    e214:	13a0001c 	movne	r0, #28
    e218:	eaffffa1 	b	e0a4 <validate_structure+0x6c>
    e21c:	e3a0200c 	mov	r2, #12
    e220:	e1a0000d 	mov	r0, sp
    e224:	eb000b35 	bl	10f00 <div>
    e228:	e59d1004 	ldr	r1, [sp, #4]
    e22c:	e5943014 	ldr	r3, [r4, #20]
    e230:	e59d2000 	ldr	r2, [sp]
    e234:	e3510000 	cmp	r1, #0
    e238:	e0833002 	add	r3, r3, r2
    e23c:	e5843014 	str	r3, [r4, #20]
    e240:	b281100c 	addlt	r1, r1, #12
    e244:	b2433001 	sublt	r3, r3, #1
    e248:	a5841010 	strge	r1, [r4, #16]
    e24c:	b5841010 	strlt	r1, [r4, #16]
    e250:	b5843014 	strlt	r3, [r4, #20]
    e254:	eaffff87 	b	e078 <validate_structure+0x40>
    e258:	e3a02018 	mov	r2, #24
    e25c:	e1a0000d 	mov	r0, sp
    e260:	eb000b26 	bl	10f00 <div>
    e264:	e89d0006 	ldm	sp, {r1, r2}
    e268:	e594300c 	ldr	r3, [r4, #12]
    e26c:	e3520000 	cmp	r2, #0
    e270:	e0833001 	add	r3, r3, r1
    e274:	e584300c 	str	r3, [r4, #12]
    e278:	b2822018 	addlt	r2, r2, #24
    e27c:	b2433001 	sublt	r3, r3, #1
    e280:	a5842008 	strge	r2, [r4, #8]
    e284:	b5842008 	strlt	r2, [r4, #8]
    e288:	b584300c 	strlt	r3, [r4, #12]
    e28c:	eaffff75 	b	e068 <validate_structure+0x30>
    e290:	e3a0203c 	mov	r2, #60	; 0x3c
    e294:	e1a0000d 	mov	r0, sp
    e298:	eb000b18 	bl	10f00 <div>
    e29c:	e89d0006 	ldm	sp, {r1, r2}
    e2a0:	e5943008 	ldr	r3, [r4, #8]
    e2a4:	e3520000 	cmp	r2, #0
    e2a8:	e0831001 	add	r1, r3, r1
    e2ac:	e5841008 	str	r1, [r4, #8]
    e2b0:	b282203c 	addlt	r2, r2, #60	; 0x3c
    e2b4:	b2411001 	sublt	r1, r1, #1
    e2b8:	a5842004 	strge	r2, [r4, #4]
    e2bc:	b5842004 	strlt	r2, [r4, #4]
    e2c0:	b5841008 	strlt	r1, [r4, #8]
    e2c4:	eaffff65 	b	e060 <validate_structure+0x28>
    e2c8:	e3a0203c 	mov	r2, #60	; 0x3c
    e2cc:	e1a0000d 	mov	r0, sp
    e2d0:	eb000b0a 	bl	10f00 <div>
    e2d4:	e59d2004 	ldr	r2, [sp, #4]
    e2d8:	e5941004 	ldr	r1, [r4, #4]
    e2dc:	e59d3000 	ldr	r3, [sp]
    e2e0:	e3520000 	cmp	r2, #0
    e2e4:	e0831001 	add	r1, r3, r1
    e2e8:	e5841004 	str	r1, [r4, #4]
    e2ec:	b282203c 	addlt	r2, r2, #60	; 0x3c
    e2f0:	b2411001 	sublt	r1, r1, #1
    e2f4:	a5842000 	strge	r2, [r4]
    e2f8:	b5842000 	strlt	r2, [r4]
    e2fc:	b5841004 	strlt	r1, [r4, #4]
    e300:	eaffff53 	b	e054 <validate_structure+0x1c>
    e304:	e2812e76 	add	r2, r1, #1888	; 0x760
    e308:	e282200b 	add	r2, r2, #11
    e30c:	e0c0129e 	smull	r1, r0, lr, r2
    e310:	e1a01fc2 	asr	r1, r2, #31
    e314:	e06103c0 	rsb	r0, r1, r0, asr #7
    e318:	e0000096 	mul	r0, r6, r0
    e31c:	e1520000 	cmp	r2, r0
    e320:	13a0001c 	movne	r0, #28
    e324:	03a0001d 	moveq	r0, #29
    e328:	e3a0100b 	mov	r1, #11
    e32c:	eaffff9a 	b	e19c <validate_structure+0x164>
    e330:	e2812e76 	add	r2, r1, #1888	; 0x760
    e334:	e282200d 	add	r2, r2, #13
    e338:	e0c01297 	smull	r1, r0, r7, r2
    e33c:	e1a01fc2 	asr	r1, r2, #31
    e340:	e06103c0 	rsb	r0, r1, r0, asr #7
    e344:	e0000099 	mul	r0, r9, r0
    e348:	e1520000 	cmp	r2, r0
    e34c:	13a0001c 	movne	r0, #28
    e350:	03a0001d 	moveq	r0, #29
    e354:	e3a01000 	mov	r1, #0
    e358:	eaffff59 	b	e0c4 <validate_structure+0x8c>
    e35c:	51eb851f 	mvnpl	r8, pc, lsl r5
    e360:	00016cc8 	andeq	r6, r1, r8, asr #25

0000e364 <mktime>:
    e364:	e92d4ff0 	push	{r4, r5, r6, r7, r8, r9, sl, fp, lr}
    e368:	e24dd00c 	sub	sp, sp, #12
    e36c:	e1a06000 	mov	r6, r0
    e370:	eb001064 	bl	12508 <__gettzinfo>
    e374:	e3a05ee1 	mov	r5, #3600	; 0xe10
    e378:	e1a07000 	mov	r7, r0
    e37c:	e1a00006 	mov	r0, r6
    e380:	ebffff2c 	bl	e038 <validate_structure>
    e384:	e5963004 	ldr	r3, [r6, #4]
    e388:	e5962000 	ldr	r2, [r6]
    e38c:	e0633203 	rsb	r3, r3, r3, lsl #4
    e390:	e5960008 	ldr	r0, [r6, #8]
    e394:	e596e010 	ldr	lr, [r6, #16]
    e398:	e59fc490 	ldr	ip, [pc, #1168]	; e830 <mktime+0x4cc>
    e39c:	e0823103 	add	r3, r2, r3, lsl #2
    e3a0:	e0233095 	mla	r3, r5, r0, r3
    e3a4:	e08cc10e 	add	ip, ip, lr, lsl #2
    e3a8:	e596100c 	ldr	r1, [r6, #12]
    e3ac:	e59c4030 	ldr	r4, [ip, #48]	; 0x30
    e3b0:	e2411001 	sub	r1, r1, #1
    e3b4:	e35e0001 	cmp	lr, #1
    e3b8:	e0814004 	add	r4, r1, r4
    e3bc:	e58d3004 	str	r3, [sp, #4]
    e3c0:	e5965014 	ldr	r5, [r6, #20]
    e3c4:	da000001 	ble	e3d0 <mktime+0x6c>
    e3c8:	e3150003 	tst	r5, #3
    e3cc:	0a000083 	beq	e5e0 <mktime+0x27c>
    e3d0:	e2853c27 	add	r3, r5, #9984	; 0x2700
    e3d4:	e59f2458 	ldr	r2, [pc, #1112]	; e834 <mktime+0x4d0>
    e3d8:	e2833010 	add	r3, r3, #16
    e3dc:	e1530002 	cmp	r3, r2
    e3e0:	e586401c 	str	r4, [r6, #28]
    e3e4:	8a0000bc 	bhi	e6dc <mktime+0x378>
    e3e8:	e3550046 	cmp	r5, #70	; 0x46
    e3ec:	ca000037 	bgt	e4d0 <mktime+0x16c>
    e3f0:	0a000053 	beq	e544 <mktime+0x1e0>
    e3f4:	e3550045 	cmp	r5, #69	; 0x45
    e3f8:	0a0000ad 	beq	e6b4 <mktime+0x350>
    e3fc:	e3a03045 	mov	r3, #69	; 0x45
    e400:	e3a0e064 	mov	lr, #100	; 0x64
    e404:	e3a0ae19 	mov	sl, #400	; 0x190
    e408:	e59f9428 	ldr	r9, [pc, #1064]	; e838 <mktime+0x4d4>
    e40c:	e59fc428 	ldr	ip, [pc, #1064]	; e83c <mktime+0x4d8>
    e410:	e59f8428 	ldr	r8, [pc, #1064]	; e840 <mktime+0x4dc>
    e414:	e3130003 	tst	r3, #3
    e418:	e1a01fc3 	asr	r1, r3, #31
    e41c:	159f2414 	ldrne	r2, [pc, #1044]	; e838 <mktime+0x4d4>
    e420:	1a00000e 	bne	e460 <mktime+0xfc>
    e424:	e0cb039c 	smull	r0, fp, ip, r3
    e428:	e06112cb 	rsb	r1, r1, fp, asr #5
    e42c:	e001019e 	mul	r1, lr, r1
    e430:	e2832e76 	add	r2, r3, #1888	; 0x760
    e434:	e282200c 	add	r2, r2, #12
    e438:	e1530001 	cmp	r3, r1
    e43c:	e1a0bfc2 	asr	fp, r2, #31
    e440:	159f23f8 	ldrne	r2, [pc, #1016]	; e840 <mktime+0x4dc>
    e444:	1a000005 	bne	e460 <mktime+0xfc>
    e448:	e0c1029c 	smull	r0, r1, ip, r2
    e44c:	e06bb3c1 	rsb	fp, fp, r1, asr #7
    e450:	e00b0b9a 	mul	fp, sl, fp
    e454:	e152000b 	cmp	r2, fp
    e458:	11a02009 	movne	r2, r9
    e45c:	01a02008 	moveq	r2, r8
    e460:	e2433001 	sub	r3, r3, #1
    e464:	e1530005 	cmp	r3, r5
    e468:	e0624004 	rsb	r4, r2, r4
    e46c:	1affffe8 	bne	e414 <mktime+0xb0>
    e470:	e3150003 	tst	r5, #3
    e474:	1a00008e 	bne	e6b4 <mktime+0x350>
    e478:	e3a02064 	mov	r2, #100	; 0x64
    e47c:	e59f13b8 	ldr	r1, [pc, #952]	; e83c <mktime+0x4d8>
    e480:	e1a03fc5 	asr	r3, r5, #31
    e484:	e0cc0591 	smull	r0, ip, r1, r5
    e488:	e06332cc 	rsb	r3, r3, ip, asr #5
    e48c:	e0030392 	mul	r3, r2, r3
    e490:	e1550003 	cmp	r5, r3
    e494:	159f33a4 	ldrne	r3, [pc, #932]	; e840 <mktime+0x4dc>
    e498:	1a000086 	bne	e6b8 <mktime+0x354>
    e49c:	e3a02e19 	mov	r2, #400	; 0x190
    e4a0:	e2853e76 	add	r3, r5, #1888	; 0x760
    e4a4:	e283c00c 	add	ip, r3, #12
    e4a8:	e0c13c91 	smull	r3, r1, r1, ip
    e4ac:	e1a03fcc 	asr	r3, ip, #31
    e4b0:	e06333c1 	rsb	r3, r3, r1, asr #7
    e4b4:	e0030392 	mul	r3, r2, r3
    e4b8:	e59f1380 	ldr	r1, [pc, #896]	; e840 <mktime+0x4dc>
    e4bc:	e15c0003 	cmp	ip, r3
    e4c0:	e2422023 	sub	r2, r2, #35	; 0x23
    e4c4:	11a03002 	movne	r3, r2
    e4c8:	01a03001 	moveq	r3, r1
    e4cc:	ea000079 	b	e6b8 <mktime+0x354>
    e4d0:	e3a03046 	mov	r3, #70	; 0x46
    e4d4:	e3a0e064 	mov	lr, #100	; 0x64
    e4d8:	e3a0ae19 	mov	sl, #400	; 0x190
    e4dc:	e59f9354 	ldr	r9, [pc, #852]	; e838 <mktime+0x4d4>
    e4e0:	e59fc354 	ldr	ip, [pc, #852]	; e83c <mktime+0x4d8>
    e4e4:	e59f8354 	ldr	r8, [pc, #852]	; e840 <mktime+0x4dc>
    e4e8:	e3130003 	tst	r3, #3
    e4ec:	e1a01fc3 	asr	r1, r3, #31
    e4f0:	159f2340 	ldrne	r2, [pc, #832]	; e838 <mktime+0x4d4>
    e4f4:	1a00000e 	bne	e534 <mktime+0x1d0>
    e4f8:	e0cb039c 	smull	r0, fp, ip, r3
    e4fc:	e06112cb 	rsb	r1, r1, fp, asr #5
    e500:	e001019e 	mul	r1, lr, r1
    e504:	e2832e76 	add	r2, r3, #1888	; 0x760
    e508:	e282200c 	add	r2, r2, #12
    e50c:	e1530001 	cmp	r3, r1
    e510:	e1a0bfc2 	asr	fp, r2, #31
    e514:	159f2324 	ldrne	r2, [pc, #804]	; e840 <mktime+0x4dc>
    e518:	1a000005 	bne	e534 <mktime+0x1d0>
    e51c:	e0c1029c 	smull	r0, r1, ip, r2
    e520:	e06bb3c1 	rsb	fp, fp, r1, asr #7
    e524:	e00b0b9a 	mul	fp, sl, fp
    e528:	e152000b 	cmp	r2, fp
    e52c:	11a02009 	movne	r2, r9
    e530:	01a02008 	moveq	r2, r8
    e534:	e2833001 	add	r3, r3, #1
    e538:	e1530005 	cmp	r3, r5
    e53c:	e0844002 	add	r4, r4, r2
    e540:	1affffe8 	bne	e4e8 <mktime+0x184>
    e544:	e59d3004 	ldr	r3, [sp, #4]
    e548:	e59f92f4 	ldr	r9, [pc, #756]	; e844 <mktime+0x4e0>
    e54c:	e0293499 	mla	r9, r9, r4, r3
    e550:	eb0001bf 	bl	ec54 <__tz_lock>
    e554:	e59f32ec 	ldr	r3, [pc, #748]	; e848 <mktime+0x4e4>
    e558:	e5938000 	ldr	r8, [r3]
    e55c:	e3580000 	cmp	r8, #0
    e560:	0a000046 	beq	e680 <mktime+0x31c>
    e564:	e5960014 	ldr	r0, [r6, #20]
    e568:	e5968020 	ldr	r8, [r6, #32]
    e56c:	e2800e76 	add	r0, r0, #1888	; 0x760
    e570:	e5973004 	ldr	r3, [r7, #4]
    e574:	e3580001 	cmp	r8, #1
    e578:	e280000c 	add	r0, r0, #12
    e57c:	a3a08001 	movge	r8, #1
    e580:	e1530000 	cmp	r3, r0
    e584:	0a00001f 	beq	e608 <mktime+0x2a4>
    e588:	eb000124 	bl	ea20 <__tzcalc_limits>
    e58c:	e3500000 	cmp	r0, #0
    e590:	1a00001c 	bne	e608 <mktime+0x2a4>
    e594:	e3580001 	cmp	r8, #1
    e598:	1a000038 	bne	e680 <mktime+0x31c>
    e59c:	e597503c 	ldr	r5, [r7, #60]	; 0x3c
    e5a0:	e0895005 	add	r5, r9, r5
    e5a4:	eb0001ab 	bl	ec58 <__tz_unlock>
    e5a8:	e1a00005 	mov	r0, r5
    e5ac:	e59f3298 	ldr	r3, [pc, #664]	; e84c <mktime+0x4e8>
    e5b0:	e2844004 	add	r4, r4, #4
    e5b4:	e0c32493 	smull	r2, r3, r3, r4
    e5b8:	e1a02fc4 	asr	r2, r4, #31
    e5bc:	e0833004 	add	r3, r3, r4
    e5c0:	e0623143 	rsb	r3, r2, r3, asr #2
    e5c4:	e0633183 	rsb	r3, r3, r3, lsl #3
    e5c8:	e0543003 	subs	r3, r4, r3
    e5cc:	42833007 	addmi	r3, r3, #7
    e5d0:	e5868020 	str	r8, [r6, #32]
    e5d4:	e5863018 	str	r3, [r6, #24]
    e5d8:	e28dd00c 	add	sp, sp, #12
    e5dc:	e8bd8ff0 	pop	{r4, r5, r6, r7, r8, r9, sl, fp, pc}
    e5e0:	e3a02064 	mov	r2, #100	; 0x64
    e5e4:	e59f1250 	ldr	r1, [pc, #592]	; e83c <mktime+0x4d8>
    e5e8:	e1a03fc5 	asr	r3, r5, #31
    e5ec:	e0cc0591 	smull	r0, ip, r1, r5
    e5f0:	e06332cc 	rsb	r3, r3, ip, asr #5
    e5f4:	e0030392 	mul	r3, r2, r3
    e5f8:	e1550003 	cmp	r5, r3
    e5fc:	0a000022 	beq	e68c <mktime+0x328>
    e600:	e2844001 	add	r4, r4, #1
    e604:	eaffff71 	b	e3d0 <mktime+0x6c>
    e608:	e5972038 	ldr	r2, [r7, #56]	; 0x38
    e60c:	e597003c 	ldr	r0, [r7, #60]	; 0x3c
    e610:	e5971020 	ldr	r1, [r7, #32]
    e614:	e0603002 	rsb	r3, r0, r2
    e618:	e1590003 	cmp	r9, r3
    e61c:	e0612002 	rsb	r2, r1, r2
    e620:	b3a03001 	movlt	r3, #1
    e624:	a3a03000 	movge	r3, #0
    e628:	e1590002 	cmp	r9, r2
    e62c:	b3a03000 	movlt	r3, #0
    e630:	e3530000 	cmp	r3, #0
    e634:	e597301c 	ldr	r3, [r7, #28]
    e638:	1affffd5 	bne	e594 <mktime+0x230>
    e63c:	e597c000 	ldr	ip, [r7]
    e640:	e0603003 	rsb	r3, r0, r3
    e644:	e35c0000 	cmp	ip, #0
    e648:	0a00001c 	beq	e6c0 <mktime+0x35c>
    e64c:	e1590002 	cmp	r9, r2
    e650:	b3a0a001 	movlt	sl, #1
    e654:	a3a0a000 	movge	sl, #0
    e658:	e1590003 	cmp	r9, r3
    e65c:	b3a0a000 	movlt	sl, #0
    e660:	e3580000 	cmp	r8, #0
    e664:	ba000002 	blt	e674 <mktime+0x310>
    e668:	e028800a 	eor	r8, r8, sl
    e66c:	e3580001 	cmp	r8, #1
    e670:	0a00001b 	beq	e6e4 <mktime+0x380>
    e674:	e1a0800a 	mov	r8, sl
    e678:	e3580001 	cmp	r8, #1
    e67c:	0affffc6 	beq	e59c <mktime+0x238>
    e680:	e5975020 	ldr	r5, [r7, #32]
    e684:	e0895005 	add	r5, r9, r5
    e688:	eaffffc5 	b	e5a4 <mktime+0x240>
    e68c:	e3a0ce19 	mov	ip, #400	; 0x190
    e690:	e2852e76 	add	r2, r5, #1888	; 0x760
    e694:	e282200c 	add	r2, r2, #12
    e698:	e0c31291 	smull	r1, r3, r1, r2
    e69c:	e1a01fc2 	asr	r1, r2, #31
    e6a0:	e06133c3 	rsb	r3, r1, r3, asr #7
    e6a4:	e003039c 	mul	r3, ip, r3
    e6a8:	e1520003 	cmp	r2, r3
    e6ac:	1affff47 	bne	e3d0 <mktime+0x6c>
    e6b0:	eaffffd2 	b	e600 <mktime+0x29c>
    e6b4:	e59f317c 	ldr	r3, [pc, #380]	; e838 <mktime+0x4d4>
    e6b8:	e0634004 	rsb	r4, r3, r4
    e6bc:	eaffffa0 	b	e544 <mktime+0x1e0>
    e6c0:	e1590003 	cmp	r9, r3
    e6c4:	b3a03000 	movlt	r3, #0
    e6c8:	a3a03001 	movge	r3, #1
    e6cc:	e1590002 	cmp	r9, r2
    e6d0:	a1a0a003 	movge	sl, r3
    e6d4:	b383a001 	orrlt	sl, r3, #1
    e6d8:	eaffffe0 	b	e660 <mktime+0x2fc>
    e6dc:	e3e00000 	mvn	r0, #0
    e6e0:	eaffffbc 	b	e5d8 <mktime+0x274>
    e6e4:	e22a3001 	eor	r3, sl, #1
    e6e8:	e1a02003 	mov	r2, r3
    e6ec:	e0601001 	rsb	r1, r0, r1
    e6f0:	e2633000 	rsb	r3, r3, #0
    e6f4:	e0233001 	eor	r3, r3, r1
    e6f8:	e5961000 	ldr	r1, [r6]
    e6fc:	e0833002 	add	r3, r3, r2
    e700:	e0812003 	add	r2, r1, r3
    e704:	e5862000 	str	r2, [r6]
    e708:	e1a00006 	mov	r0, r6
    e70c:	e0899003 	add	r9, r9, r3
    e710:	e596800c 	ldr	r8, [r6, #12]
    e714:	ebfffe47 	bl	e038 <validate_structure>
    e718:	e596300c 	ldr	r3, [r6, #12]
    e71c:	e0533008 	subs	r3, r3, r8
    e720:	0affffd3 	beq	e674 <mktime+0x310>
    e724:	e3530001 	cmp	r3, #1
    e728:	c3e03000 	mvngt	r3, #0
    e72c:	da00003c 	ble	e824 <mktime+0x4c0>
    e730:	e596201c 	ldr	r2, [r6, #28]
    e734:	e0844003 	add	r4, r4, r3
    e738:	e0932002 	adds	r2, r3, r2
    e73c:	4a00001f 	bmi	e7c0 <mktime+0x45c>
    e740:	e3150003 	tst	r5, #3
    e744:	159f30ec 	ldrne	r3, [pc, #236]	; e838 <mktime+0x4d4>
    e748:	1a000014 	bne	e7a0 <mktime+0x43c>
    e74c:	e3a00064 	mov	r0, #100	; 0x64
    e750:	e59f10e4 	ldr	r1, [pc, #228]	; e83c <mktime+0x4d8>
    e754:	e1a03fc5 	asr	r3, r5, #31
    e758:	e0cce591 	smull	lr, ip, r1, r5
    e75c:	e06332cc 	rsb	r3, r3, ip, asr #5
    e760:	e0030390 	mul	r3, r0, r3
    e764:	e1550003 	cmp	r5, r3
    e768:	159f30d0 	ldrne	r3, [pc, #208]	; e840 <mktime+0x4dc>
    e76c:	1a00000b 	bne	e7a0 <mktime+0x43c>
    e770:	e3a00e19 	mov	r0, #400	; 0x190
    e774:	e2853e76 	add	r3, r5, #1888	; 0x760
    e778:	e283300c 	add	r3, r3, #12
    e77c:	e0c1c391 	smull	ip, r1, r1, r3
    e780:	e1a0cfc3 	asr	ip, r3, #31
    e784:	e06c13c1 	rsb	r1, ip, r1, asr #7
    e788:	e0000190 	mul	r0, r0, r1
    e78c:	e59fc0ac 	ldr	ip, [pc, #172]	; e840 <mktime+0x4dc>
    e790:	e59f10a0 	ldr	r1, [pc, #160]	; e838 <mktime+0x4d4>
    e794:	e1530000 	cmp	r3, r0
    e798:	11a03001 	movne	r3, r1
    e79c:	01a0300c 	moveq	r3, ip
    e7a0:	e1530002 	cmp	r3, r2
    e7a4:	c586201c 	strgt	r2, [r6, #28]
    e7a8:	c1a0800a 	movgt	r8, sl
    e7ac:	caffff78 	bgt	e594 <mktime+0x230>
    e7b0:	e0633002 	rsb	r3, r3, r2
    e7b4:	e586301c 	str	r3, [r6, #28]
    e7b8:	e1a0800a 	mov	r8, sl
    e7bc:	eaffff74 	b	e594 <mktime+0x230>
    e7c0:	e2453001 	sub	r3, r5, #1
    e7c4:	e3130003 	tst	r3, #3
    e7c8:	13a03f5b 	movne	r3, #364	; 0x16c
    e7cc:	1afffff8 	bne	e7b4 <mktime+0x450>
    e7d0:	e3a01064 	mov	r1, #100	; 0x64
    e7d4:	e59f2060 	ldr	r2, [pc, #96]	; e83c <mktime+0x4d8>
    e7d8:	e1a00fc3 	asr	r0, r3, #31
    e7dc:	e0cce392 	smull	lr, ip, r2, r3
    e7e0:	e06002cc 	rsb	r0, r0, ip, asr #5
    e7e4:	e0010091 	mul	r1, r1, r0
    e7e8:	e1530001 	cmp	r3, r1
    e7ec:	159f3044 	ldrne	r3, [pc, #68]	; e838 <mktime+0x4d4>
    e7f0:	1affffef 	bne	e7b4 <mktime+0x450>
    e7f4:	e3a01e19 	mov	r1, #400	; 0x190
    e7f8:	e2853e76 	add	r3, r5, #1888	; 0x760
    e7fc:	e283300b 	add	r3, r3, #11
    e800:	e0c20392 	smull	r0, r2, r2, r3
    e804:	e1a00fc3 	asr	r0, r3, #31
    e808:	e06023c2 	rsb	r2, r0, r2, asr #7
    e80c:	e0010291 	mul	r1, r1, r2
    e810:	e59f2020 	ldr	r2, [pc, #32]	; e838 <mktime+0x4d4>
    e814:	e1530001 	cmp	r3, r1
    e818:	01a03002 	moveq	r3, r2
    e81c:	13a03f5b 	movne	r3, #364	; 0x16c
    e820:	eaffffe3 	b	e7b4 <mktime+0x450>
    e824:	e3730001 	cmn	r3, #1
    e828:	b3a03001 	movlt	r3, #1
    e82c:	eaffffbf 	b	e730 <mktime+0x3cc>
    e830:	00016cc8 	andeq	r6, r1, r8, asr #25
    e834:	00004e20 	andeq	r4, r0, r0, lsr #28
    e838:	0000016d 	andeq	r0, r0, sp, ror #2
    e83c:	51eb851f 	mvnpl	r8, pc, lsl r5
    e840:	0000016e 	andeq	r0, r0, lr, ror #2
    e844:	00015180 	andeq	r5, r1, r0, lsl #3
    e848:	0001a350 	andeq	sl, r1, r0, asr r3
    e84c:	92492493 	subls	r2, r9, #-1828716544	; 0x93000000

0000e850 <__malloc_lock>:
    e850:	e12fff1e 	bx	lr

0000e854 <__malloc_unlock>:
    e854:	e12fff1e 	bx	lr

0000e858 <_printf_r>:
    e858:	e92d000e 	push	{r1, r2, r3}
    e85c:	e52de004 	push	{lr}		; (str lr, [sp, #-4]!)
    e860:	e24dd008 	sub	sp, sp, #8
    e864:	e28dc010 	add	ip, sp, #16
    e868:	e1a0300c 	mov	r3, ip
    e86c:	e5901008 	ldr	r1, [r0, #8]
    e870:	e59d200c 	ldr	r2, [sp, #12]
    e874:	e58dc004 	str	ip, [sp, #4]
    e878:	eb0000f8 	bl	ec60 <_vfprintf_r>
    e87c:	e28dd008 	add	sp, sp, #8
    e880:	e49de004 	pop	{lr}		; (ldr lr, [sp], #4)
    e884:	e28dd00c 	add	sp, sp, #12
    e888:	e12fff1e 	bx	lr

0000e88c <printf>:
    e88c:	e92d000f 	push	{r0, r1, r2, r3}
    e890:	e52de004 	push	{lr}		; (str lr, [sp, #-4]!)
    e894:	e59f302c 	ldr	r3, [pc, #44]	; e8c8 <printf+0x3c>
    e898:	e24dd00c 	sub	sp, sp, #12
    e89c:	e5930000 	ldr	r0, [r3]
    e8a0:	e28dc014 	add	ip, sp, #20
    e8a4:	e1a0300c 	mov	r3, ip
    e8a8:	e5901008 	ldr	r1, [r0, #8]
    e8ac:	e59d2010 	ldr	r2, [sp, #16]
    e8b0:	e58dc004 	str	ip, [sp, #4]
    e8b4:	eb0000e9 	bl	ec60 <_vfprintf_r>
    e8b8:	e28dd00c 	add	sp, sp, #12
    e8bc:	e49de004 	pop	{lr}		; (ldr lr, [sp], #4)
    e8c0:	e28dd010 	add	sp, sp, #16
    e8c4:	e12fff1e 	bx	lr
    e8c8:	00017948 	andeq	r7, r1, r8, asr #18

0000e8cc <_sbrk_r>:
    e8cc:	e92d4038 	push	{r3, r4, r5, lr}
    e8d0:	e3a03000 	mov	r3, #0
    e8d4:	e59f4024 	ldr	r4, [pc, #36]	; e900 <_sbrk_r+0x34>
    e8d8:	e1a05000 	mov	r5, r0
    e8dc:	e1a00001 	mov	r0, r1
    e8e0:	e5843000 	str	r3, [r4]
    e8e4:	ebfff218 	bl	b14c <_sbrk>
    e8e8:	e3700001 	cmn	r0, #1
    e8ec:	18bd8038 	popne	{r3, r4, r5, pc}
    e8f0:	e5943000 	ldr	r3, [r4]
    e8f4:	e3530000 	cmp	r3, #0
    e8f8:	15853000 	strne	r3, [r5]
    e8fc:	e8bd8038 	pop	{r3, r4, r5, pc}
    e900:	0001a590 	muleq	r1, r0, r5

0000e904 <__sread>:
    e904:	e92d4010 	push	{r4, lr}
    e908:	e1a04001 	mov	r4, r1
    e90c:	e1d110fe 	ldrsh	r1, [r1, #14]
    e910:	eb0013a2 	bl	137a0 <_read_r>
    e914:	e3500000 	cmp	r0, #0
    e918:	a5943050 	ldrge	r3, [r4, #80]	; 0x50
    e91c:	b1d430bc 	ldrhlt	r3, [r4, #12]
    e920:	a0833000 	addge	r3, r3, r0
    e924:	b3c33a01 	biclt	r3, r3, #4096	; 0x1000
    e928:	a5843050 	strge	r3, [r4, #80]	; 0x50
    e92c:	b1c430bc 	strhlt	r3, [r4, #12]
    e930:	e8bd8010 	pop	{r4, pc}

0000e934 <__seofread>:
    e934:	e3a00000 	mov	r0, #0
    e938:	e12fff1e 	bx	lr

0000e93c <__swrite>:
    e93c:	e1d1c0bc 	ldrh	ip, [r1, #12]
    e940:	e92d41f0 	push	{r4, r5, r6, r7, r8, lr}
    e944:	e31c0c01 	tst	ip, #256	; 0x100
    e948:	e1a04001 	mov	r4, r1
    e94c:	e1a06002 	mov	r6, r2
    e950:	e1a05003 	mov	r5, r3
    e954:	e1a07000 	mov	r7, r0
    e958:	0a000004 	beq	e970 <__swrite+0x34>
    e95c:	e1d110fe 	ldrsh	r1, [r1, #14]
    e960:	e3a02000 	mov	r2, #0
    e964:	e3a03002 	mov	r3, #2
    e968:	eb000fa1 	bl	127f4 <_lseek_r>
    e96c:	e1d4c0bc 	ldrh	ip, [r4, #12]
    e970:	e3ccca01 	bic	ip, ip, #4096	; 0x1000
    e974:	e1c4c0bc 	strh	ip, [r4, #12]
    e978:	e1a00007 	mov	r0, r7
    e97c:	e1d410fe 	ldrsh	r1, [r4, #14]
    e980:	e1a02006 	mov	r2, r6
    e984:	e1a03005 	mov	r3, r5
    e988:	e8bd41f0 	pop	{r4, r5, r6, r7, r8, lr}
    e98c:	ea0008e8 	b	10d34 <_write_r>

0000e990 <__sseek>:
    e990:	e92d4010 	push	{r4, lr}
    e994:	e1a04001 	mov	r4, r1
    e998:	e1d110fe 	ldrsh	r1, [r1, #14]
    e99c:	eb000f94 	bl	127f4 <_lseek_r>
    e9a0:	e1d430bc 	ldrh	r3, [r4, #12]
    e9a4:	e3700001 	cmn	r0, #1
    e9a8:	03c33a01 	biceq	r3, r3, #4096	; 0x1000
    e9ac:	13833a01 	orrne	r3, r3, #4096	; 0x1000
    e9b0:	15840050 	strne	r0, [r4, #80]	; 0x50
    e9b4:	e1c430bc 	strh	r3, [r4, #12]
    e9b8:	e8bd8010 	pop	{r4, pc}

0000e9bc <__sclose>:
    e9bc:	e1d110fe 	ldrsh	r1, [r1, #14]
    e9c0:	ea000940 	b	10ec8 <_close_r>

0000e9c4 <strlen>:
    e9c4:	e3c01003 	bic	r1, r0, #3
    e9c8:	e2100003 	ands	r0, r0, #3
    e9cc:	e2600000 	rsb	r0, r0, #0
    e9d0:	e4913004 	ldr	r3, [r1], #4
    e9d4:	e280c004 	add	ip, r0, #4
    e9d8:	e1a0c18c 	lsl	ip, ip, #3
    e9dc:	e3e02000 	mvn	r2, #0
    e9e0:	11833c32 	orrne	r3, r3, r2, lsr ip
    e9e4:	e3a0c001 	mov	ip, #1
    e9e8:	e18cc40c 	orr	ip, ip, ip, lsl #8
    e9ec:	e18cc80c 	orr	ip, ip, ip, lsl #16
    e9f0:	e043200c 	sub	r2, r3, ip
    e9f4:	e1c22003 	bic	r2, r2, r3
    e9f8:	e012238c 	ands	r2, r2, ip, lsl #7
    e9fc:	04913004 	ldreq	r3, [r1], #4
    ea00:	02800004 	addeq	r0, r0, #4
    ea04:	0afffff9 	beq	e9f0 <strlen+0x2c>
    ea08:	e2621000 	rsb	r1, r2, #0
    ea0c:	e0022001 	and	r2, r2, r1
    ea10:	e16f2f12 	clz	r2, r2
    ea14:	e262201f 	rsb	r2, r2, #31
    ea18:	e08001a2 	add	r0, r0, r2, lsr #3
    ea1c:	e12fff1e 	bx	lr

0000ea20 <__tzcalc_limits>:
    ea20:	e92d4ff8 	push	{r3, r4, r5, r6, r7, r8, r9, sl, fp, lr}
    ea24:	e1a05000 	mov	r5, r0
    ea28:	eb000eb6 	bl	12508 <__gettzinfo>
    ea2c:	e59f320c 	ldr	r3, [pc, #524]	; ec40 <__tzcalc_limits+0x220>
    ea30:	e1550003 	cmp	r5, r3
    ea34:	da000067 	ble	ebd8 <__tzcalc_limits+0x1b8>
    ea38:	e3a03e19 	mov	r3, #400	; 0x190
    ea3c:	e59f4200 	ldr	r4, [pc, #512]	; ec44 <__tzcalc_limits+0x224>
    ea40:	e1a06fc5 	asr	r6, r5, #31
    ea44:	e0c92594 	smull	r2, r9, r4, r5
    ea48:	e066a3c9 	rsb	sl, r6, r9, asr #7
    ea4c:	e00a0a93 	mul	sl, r3, sl
    ea50:	e06692c9 	rsb	r9, r6, r9, asr #5
    ea54:	e3a06064 	mov	r6, #100	; 0x64
    ea58:	e06aa005 	rsb	sl, sl, r5
    ea5c:	e1a08000 	mov	r8, r0
    ea60:	e16faf1a 	clz	sl, sl
    ea64:	e2451e76 	sub	r1, r5, #1888	; 0x760
    ea68:	e245ce7b 	sub	ip, r5, #1968	; 0x7b0
    ea6c:	e241100d 	sub	r1, r1, #13
    ea70:	e2452d19 	sub	r2, r5, #1600	; 0x640
    ea74:	e24c3002 	sub	r3, ip, #2
    ea78:	e2422001 	sub	r2, r2, #1
    ea7c:	e1a0e000 	mov	lr, r0
    ea80:	e0c0b194 	smull	fp, r0, r4, r1
    ea84:	e083b183 	add	fp, r3, r3, lsl #3
    ea88:	e0c47294 	smull	r7, r4, r4, r2
    ea8c:	e083318b 	add	r3, r3, fp, lsl #3
    ea90:	e0090996 	mul	r9, r6, r9
    ea94:	e24cc001 	sub	ip, ip, #1
    ea98:	e0833103 	add	r3, r3, r3, lsl #2
    ea9c:	e1a01fc1 	asr	r1, r1, #31
    eaa0:	e04112c0 	sub	r1, r1, r0, asr #5
    eaa4:	e083314c 	add	r3, r3, ip, asr #2
    eaa8:	e1a02fc2 	asr	r2, r2, #31
    eaac:	e0833001 	add	r3, r3, r1
    eab0:	e06243c4 	rsb	r4, r2, r4, asr #7
    eab4:	e59fb18c 	ldr	fp, [pc, #396]	; ec48 <__tzcalc_limits+0x228>
    eab8:	e5885004 	str	r5, [r8, #4]
    eabc:	e0699005 	rsb	r9, r9, r5
    eac0:	e1a0a2aa 	lsr	sl, sl, #5
    eac4:	e0834004 	add	r4, r3, r4
    eac8:	e2055003 	and	r5, r5, #3
    eacc:	e2880038 	add	r0, r8, #56	; 0x38
    ead0:	e5de3008 	ldrb	r3, [lr, #8]
    ead4:	e353004a 	cmp	r3, #74	; 0x4a
    ead8:	0a000040 	beq	ebe0 <__tzcalc_limits+0x1c0>
    eadc:	e3530044 	cmp	r3, #68	; 0x44
    eae0:	0a000051 	beq	ec2c <__tzcalc_limits+0x20c>
    eae4:	e3550000 	cmp	r5, #0
    eae8:	11a0c00a 	movne	ip, sl
    eaec:	0a000035 	beq	ebc8 <__tzcalc_limits+0x1a8>
    eaf0:	e1a0308c 	lsl	r3, ip, #1
    eaf4:	e59e600c 	ldr	r6, [lr, #12]
    eaf8:	e083c00c 	add	ip, r3, ip
    eafc:	e59f3148 	ldr	r3, [pc, #328]	; ec4c <__tzcalc_limits+0x22c>
    eb00:	e3560001 	cmp	r6, #1
    eb04:	e1a01004 	mov	r1, r4
    eb08:	e083c20c 	add	ip, r3, ip, lsl #4
    eb0c:	da000049 	ble	ec38 <__tzcalc_limits+0x218>
    eb10:	e246610b 	sub	r6, r6, #-1073741822	; 0xc0000002
    eb14:	e1a07106 	lsl	r7, r6, #2
    eb18:	e08c6007 	add	r6, ip, r7
    eb1c:	e24c3004 	sub	r3, ip, #4
    eb20:	e5b32004 	ldr	r2, [r3, #4]!
    eb24:	e1530006 	cmp	r3, r6
    eb28:	e0811002 	add	r1, r1, r2
    eb2c:	1afffffb 	bne	eb20 <__tzcalc_limits+0x100>
    eb30:	e2876004 	add	r6, r7, #4
    eb34:	e59f3114 	ldr	r3, [pc, #276]	; ec50 <__tzcalc_limits+0x230>
    eb38:	e2812004 	add	r2, r1, #4
    eb3c:	e0c37293 	smull	r7, r3, r3, r2
    eb40:	e1a07fc2 	asr	r7, r2, #31
    eb44:	e0833002 	add	r3, r3, r2
    eb48:	e0673143 	rsb	r3, r7, r3, asr #2
    eb4c:	e0633183 	rsb	r3, r3, r3, lsl #3
    eb50:	e59e7014 	ldr	r7, [lr, #20]
    eb54:	e0632002 	rsb	r2, r3, r2
    eb58:	e0573002 	subs	r3, r7, r2
    eb5c:	e59e2010 	ldr	r2, [lr, #16]
    eb60:	42833007 	addmi	r3, r3, #7
    eb64:	e2422001 	sub	r2, r2, #1
    eb68:	e79cc006 	ldr	ip, [ip, r6]
    eb6c:	e0622182 	rsb	r2, r2, r2, lsl #3
    eb70:	e0823003 	add	r3, r2, r3
    eb74:	e153000c 	cmp	r3, ip
    eb78:	ba000002 	blt	eb88 <__tzcalc_limits+0x168>
    eb7c:	e2433007 	sub	r3, r3, #7
    eb80:	e153000c 	cmp	r3, ip
    eb84:	aafffffc 	bge	eb7c <__tzcalc_limits+0x15c>
    eb88:	e0811003 	add	r1, r1, r3
    eb8c:	e59e3018 	ldr	r3, [lr, #24]
    eb90:	e59e2020 	ldr	r2, [lr, #32]
    eb94:	e023319b 	mla	r3, fp, r1, r3
    eb98:	e0833002 	add	r3, r3, r2
    eb9c:	e5ae301c 	str	r3, [lr, #28]!
    eba0:	e15e0000 	cmp	lr, r0
    eba4:	1affffc9 	bne	ead0 <__tzcalc_limits+0xb0>
    eba8:	e598301c 	ldr	r3, [r8, #28]
    ebac:	e5982038 	ldr	r2, [r8, #56]	; 0x38
    ebb0:	e3a00001 	mov	r0, #1
    ebb4:	e1530002 	cmp	r3, r2
    ebb8:	a3a03000 	movge	r3, #0
    ebbc:	b3a03001 	movlt	r3, #1
    ebc0:	e5883000 	str	r3, [r8]
    ebc4:	e8bd8ff8 	pop	{r3, r4, r5, r6, r7, r8, r9, sl, fp, pc}
    ebc8:	e3590000 	cmp	r9, #0
    ebcc:	01a0c00a 	moveq	ip, sl
    ebd0:	13a0c001 	movne	ip, #1
    ebd4:	eaffffc5 	b	eaf0 <__tzcalc_limits+0xd0>
    ebd8:	e3a00000 	mov	r0, #0
    ebdc:	e8bd8ff8 	pop	{r3, r4, r5, r6, r7, r8, r9, sl, fp, pc}
    ebe0:	e59e3014 	ldr	r3, [lr, #20]
    ebe4:	e3550000 	cmp	r5, #0
    ebe8:	e0832004 	add	r2, r3, r4
    ebec:	1a000007 	bne	ec10 <__tzcalc_limits+0x1f0>
    ebf0:	e3590000 	cmp	r9, #0
    ebf4:	0a000005 	beq	ec10 <__tzcalc_limits+0x1f0>
    ebf8:	e353003b 	cmp	r3, #59	; 0x3b
    ebfc:	d3a03000 	movle	r3, #0
    ec00:	c3a03001 	movgt	r3, #1
    ec04:	e0823003 	add	r3, r2, r3
    ec08:	e2431001 	sub	r1, r3, #1
    ec0c:	eaffffde 	b	eb8c <__tzcalc_limits+0x16c>
    ec10:	e35a0000 	cmp	sl, #0
    ec14:	01a0300a 	moveq	r3, sl
    ec18:	0afffff9 	beq	ec04 <__tzcalc_limits+0x1e4>
    ec1c:	e353003b 	cmp	r3, #59	; 0x3b
    ec20:	d3a03000 	movle	r3, #0
    ec24:	c3a03001 	movgt	r3, #1
    ec28:	eafffff5 	b	ec04 <__tzcalc_limits+0x1e4>
    ec2c:	e59e3014 	ldr	r3, [lr, #20]
    ec30:	e0841003 	add	r1, r4, r3
    ec34:	eaffffd4 	b	eb8c <__tzcalc_limits+0x16c>
    ec38:	e3a06000 	mov	r6, #0
    ec3c:	eaffffbc 	b	eb34 <__tzcalc_limits+0x114>
    ec40:	000007b1 			; <UNDEFINED> instruction: 0x000007b1
    ec44:	51eb851f 	mvnpl	r8, pc, lsl r5
    ec48:	00015180 	andeq	r5, r1, r0, lsl #3
    ec4c:	00016d28 	andeq	r6, r1, r8, lsr #26
    ec50:	92492493 	subls	r2, r9, #-1828716544	; 0x93000000

0000ec54 <__tz_lock>:
    ec54:	e12fff1e 	bx	lr

0000ec58 <__tz_unlock>:
    ec58:	e12fff1e 	bx	lr
    ec5c:	00000000 	andeq	r0, r0, r0

0000ec60 <_vfprintf_r>:
    ec60:	e92d4ff0 	push	{r4, r5, r6, r7, r8, r9, sl, fp, lr}
    ec64:	ed2d8b04 	vpush	{d8-d9}
    ec68:	e24dd0f4 	sub	sp, sp, #244	; 0xf4
    ec6c:	e1a04003 	mov	r4, r3
    ec70:	e1a0b001 	mov	fp, r1
    ec74:	e58d2010 	str	r2, [sp, #16]
    ec78:	e1a0a000 	mov	sl, r0
    ec7c:	eb000ed0 	bl	127c4 <_localeconv_r>
    ec80:	e5903000 	ldr	r3, [r0]
    ec84:	e58d4024 	str	r4, [sp, #36]	; 0x24
    ec88:	e1a00003 	mov	r0, r3
    ec8c:	e58d3044 	str	r3, [sp, #68]	; 0x44
    ec90:	ebffff4b 	bl	e9c4 <strlen>
    ec94:	e35a0000 	cmp	sl, #0
    ec98:	e58d0048 	str	r0, [sp, #72]	; 0x48
    ec9c:	0a000002 	beq	ecac <_vfprintf_r+0x4c>
    eca0:	e59a3038 	ldr	r3, [sl, #56]	; 0x38
    eca4:	e3530000 	cmp	r3, #0
    eca8:	0a0000cc 	beq	efe0 <_vfprintf_r+0x380>
    ecac:	e1db30bc 	ldrh	r3, [fp, #12]
    ecb0:	e6ff2073 	uxth	r2, r3
    ecb4:	e3120a02 	tst	r2, #8192	; 0x2000
    ecb8:	1a000005 	bne	ecd4 <_vfprintf_r+0x74>
    ecbc:	e59b1064 	ldr	r1, [fp, #100]	; 0x64
    ecc0:	e3832a02 	orr	r2, r3, #8192	; 0x2000
    ecc4:	e3c13a02 	bic	r3, r1, #8192	; 0x2000
    ecc8:	e1cb20bc 	strh	r2, [fp, #12]
    eccc:	e58b3064 	str	r3, [fp, #100]	; 0x64
    ecd0:	e6ff2072 	uxth	r2, r2
    ecd4:	e3120008 	tst	r2, #8
    ecd8:	0a0000a3 	beq	ef6c <_vfprintf_r+0x30c>
    ecdc:	e59b3010 	ldr	r3, [fp, #16]
    ece0:	e3530000 	cmp	r3, #0
    ece4:	0a0000a0 	beq	ef6c <_vfprintf_r+0x30c>
    ece8:	e202201a 	and	r2, r2, #26
    ecec:	e352000a 	cmp	r2, #10
    ecf0:	0a0000af 	beq	efb4 <_vfprintf_r+0x354>
    ecf4:	e3a03000 	mov	r3, #0
    ecf8:	e28d60b0 	add	r6, sp, #176	; 0xb0
    ecfc:	e1a07006 	mov	r7, r6
    ed00:	ed9f8bbe 	vldr	d8, [pc, #760]	; f000 <_vfprintf_r+0x3a0>
    ed04:	e59f830c 	ldr	r8, [pc, #780]	; f018 <_vfprintf_r+0x3b8>
    ed08:	e58d303c 	str	r3, [sp, #60]	; 0x3c
    ed0c:	e58d304c 	str	r3, [sp, #76]	; 0x4c
    ed10:	e58d3054 	str	r3, [sp, #84]	; 0x54
    ed14:	e58d301c 	str	r3, [sp, #28]
    ed18:	e58d3084 	str	r3, [sp, #132]	; 0x84
    ed1c:	e58d3080 	str	r3, [sp, #128]	; 0x80
    ed20:	e58d607c 	str	r6, [sp, #124]	; 0x7c
    ed24:	e2889010 	add	r9, r8, #16
    ed28:	e58da018 	str	sl, [sp, #24]
    ed2c:	e58db014 	str	fp, [sp, #20]
    ed30:	e59d4010 	ldr	r4, [sp, #16]
    ed34:	e5d43000 	ldrb	r3, [r4]
    ed38:	e3530025 	cmp	r3, #37	; 0x25
    ed3c:	13530000 	cmpne	r3, #0
    ed40:	0a0000a9 	beq	efec <_vfprintf_r+0x38c>
    ed44:	e5f43001 	ldrb	r3, [r4, #1]!
    ed48:	e3530025 	cmp	r3, #37	; 0x25
    ed4c:	13530000 	cmpne	r3, #0
    ed50:	1afffffb 	bne	ed44 <_vfprintf_r+0xe4>
    ed54:	e59d1010 	ldr	r1, [sp, #16]
    ed58:	e0545001 	subs	r5, r4, r1
    ed5c:	0a00000c 	beq	ed94 <_vfprintf_r+0x134>
    ed60:	e59d3080 	ldr	r3, [sp, #128]	; 0x80
    ed64:	e59d2084 	ldr	r2, [sp, #132]	; 0x84
    ed68:	e2833001 	add	r3, r3, #1
    ed6c:	e3530007 	cmp	r3, #7
    ed70:	e0822005 	add	r2, r2, r5
    ed74:	e8870022 	stm	r7, {r1, r5}
    ed78:	e58d3080 	str	r3, [sp, #128]	; 0x80
    ed7c:	e58d2084 	str	r2, [sp, #132]	; 0x84
    ed80:	d2877008 	addle	r7, r7, #8
    ed84:	ca000082 	bgt	ef94 <_vfprintf_r+0x334>
    ed88:	e59d301c 	ldr	r3, [sp, #28]
    ed8c:	e0833005 	add	r3, r3, r5
    ed90:	e58d301c 	str	r3, [sp, #28]
    ed94:	e5d43000 	ldrb	r3, [r4]
    ed98:	e3530000 	cmp	r3, #0
    ed9c:	0a0005f1 	beq	10568 <_vfprintf_r+0x1908>
    eda0:	e3a03000 	mov	r3, #0
    eda4:	e3e05000 	mvn	r5, #0
    eda8:	e1a02003 	mov	r2, r3
    edac:	e2844001 	add	r4, r4, #1
    edb0:	e5cd305f 	strb	r3, [sp, #95]	; 0x5f
    edb4:	e58d3020 	str	r3, [sp, #32]
    edb8:	e58d3008 	str	r3, [sp, #8]
    edbc:	e5d43000 	ldrb	r3, [r4]
    edc0:	e2840001 	add	r0, r4, #1
    edc4:	e2431020 	sub	r1, r3, #32
    edc8:	e3510058 	cmp	r1, #88	; 0x58
    edcc:	979ff101 	ldrls	pc, [pc, r1, lsl #2]
    edd0:	ea000240 	b	f6d8 <_vfprintf_r+0xa78>
    edd4:	0000f224 	andeq	pc, r0, r4, lsr #4
    edd8:	0000f6d8 	ldrdeq	pc, [r0], -r8
    eddc:	0000f6d8 	ldrdeq	pc, [r0], -r8
    ede0:	0000f234 	andeq	pc, r0, r4, lsr r2	; <UNPREDICTABLE>
    ede4:	0000f6d8 	ldrdeq	pc, [r0], -r8
    ede8:	0000f6d8 	ldrdeq	pc, [r0], -r8
    edec:	0000f6d8 	ldrdeq	pc, [r0], -r8
    edf0:	0000f6d8 	ldrdeq	pc, [r0], -r8
    edf4:	0000f6d8 	ldrdeq	pc, [r0], -r8
    edf8:	0000f6d8 	ldrdeq	pc, [r0], -r8
    edfc:	0000f248 	andeq	pc, r0, r8, asr #4
    ee00:	0000eff4 	strdeq	lr, [r0], -r4
    ee04:	0000f6d8 	ldrdeq	pc, [r0], -r8
    ee08:	0000ef58 	andeq	lr, r0, r8, asr pc
    ee0c:	0000f434 	andeq	pc, r0, r4, lsr r4	; <UNPREDICTABLE>
    ee10:	0000f6d8 	ldrdeq	pc, [r0], -r8
    ee14:	0000f474 	andeq	pc, r0, r4, ror r4	; <UNPREDICTABLE>
    ee18:	0000f3c0 	andeq	pc, r0, r0, asr #7
    ee1c:	0000f3c0 	andeq	pc, r0, r0, asr #7
    ee20:	0000f3c0 	andeq	pc, r0, r0, asr #7
    ee24:	0000f3c0 	andeq	pc, r0, r0, asr #7
    ee28:	0000f3c0 	andeq	pc, r0, r0, asr #7
    ee2c:	0000f3c0 	andeq	pc, r0, r0, asr #7
    ee30:	0000f3c0 	andeq	pc, r0, r0, asr #7
    ee34:	0000f3c0 	andeq	pc, r0, r0, asr #7
    ee38:	0000f3c0 	andeq	pc, r0, r0, asr #7
    ee3c:	0000f6d8 	ldrdeq	pc, [r0], -r8
    ee40:	0000f6d8 	ldrdeq	pc, [r0], -r8
    ee44:	0000f6d8 	ldrdeq	pc, [r0], -r8
    ee48:	0000f6d8 	ldrdeq	pc, [r0], -r8
    ee4c:	0000f6d8 	ldrdeq	pc, [r0], -r8
    ee50:	0000f6d8 	ldrdeq	pc, [r0], -r8
    ee54:	0000f6d8 	ldrdeq	pc, [r0], -r8
    ee58:	0000f6d8 	ldrdeq	pc, [r0], -r8
    ee5c:	0000f6d8 	ldrdeq	pc, [r0], -r8
    ee60:	0000f6d8 	ldrdeq	pc, [r0], -r8
    ee64:	0000f3ec 	andeq	pc, r0, ip, ror #7
    ee68:	0000f61c 	andeq	pc, r0, ip, lsl r6	; <UNPREDICTABLE>
    ee6c:	0000f6d8 	ldrdeq	pc, [r0], -r8
    ee70:	0000f61c 	andeq	pc, r0, ip, lsl r6	; <UNPREDICTABLE>
    ee74:	0000f6d8 	ldrdeq	pc, [r0], -r8
    ee78:	0000f6d8 	ldrdeq	pc, [r0], -r8
    ee7c:	0000f6d8 	ldrdeq	pc, [r0], -r8
    ee80:	0000f6d8 	ldrdeq	pc, [r0], -r8
    ee84:	0000f6c4 	andeq	pc, r0, r4, asr #13
    ee88:	0000f6d8 	ldrdeq	pc, [r0], -r8
    ee8c:	0000f6d8 	ldrdeq	pc, [r0], -r8
    ee90:	0000f36c 	andeq	pc, r0, ip, ror #6
    ee94:	0000f6d8 	ldrdeq	pc, [r0], -r8
    ee98:	0000f6d8 	ldrdeq	pc, [r0], -r8
    ee9c:	0000f6d8 	ldrdeq	pc, [r0], -r8
    eea0:	0000f6d8 	ldrdeq	pc, [r0], -r8
    eea4:	0000f6d8 	ldrdeq	pc, [r0], -r8
    eea8:	0000f524 	andeq	pc, r0, r4, lsr #10
    eeac:	0000f6d8 	ldrdeq	pc, [r0], -r8
    eeb0:	0000f6d8 	ldrdeq	pc, [r0], -r8
    eeb4:	0000f488 	andeq	pc, r0, r8, lsl #9
    eeb8:	0000f6d8 	ldrdeq	pc, [r0], -r8
    eebc:	0000f6d8 	ldrdeq	pc, [r0], -r8
    eec0:	0000f6d8 	ldrdeq	pc, [r0], -r8
    eec4:	0000f6d8 	ldrdeq	pc, [r0], -r8
    eec8:	0000f6d8 	ldrdeq	pc, [r0], -r8
    eecc:	0000f6d8 	ldrdeq	pc, [r0], -r8
    eed0:	0000f6d8 	ldrdeq	pc, [r0], -r8
    eed4:	0000f6d8 	ldrdeq	pc, [r0], -r8
    eed8:	0000f6d8 	ldrdeq	pc, [r0], -r8
    eedc:	0000f6d8 	ldrdeq	pc, [r0], -r8
    eee0:	0000f4dc 	ldrdeq	pc, [r0], -ip
    eee4:	0000f26c 	andeq	pc, r0, ip, ror #4
    eee8:	0000f61c 	andeq	pc, r0, ip, lsl r6	; <UNPREDICTABLE>
    eeec:	0000f61c 	andeq	pc, r0, ip, lsl r6	; <UNPREDICTABLE>
    eef0:	0000f61c 	andeq	pc, r0, ip, lsl r6	; <UNPREDICTABLE>
    eef4:	0000f2b4 			; <UNDEFINED> instruction: 0x0000f2b4
    eef8:	0000f26c 	andeq	pc, r0, ip, ror #4
    eefc:	0000f6d8 	ldrdeq	pc, [r0], -r8
    ef00:	0000f6d8 	ldrdeq	pc, [r0], -r8
    ef04:	0000ef38 	andeq	lr, r0, r8, lsr pc
    ef08:	0000f6d8 	ldrdeq	pc, [r0], -r8
    ef0c:	0000f330 	andeq	pc, r0, r0, lsr r3	; <UNPREDICTABLE>
    ef10:	0000f1f8 	strdeq	pc, [r0], -r8
    ef14:	0000f5d8 	ldrdeq	pc, [r0], -r8
    ef18:	0000ef38 	andeq	lr, r0, r8, lsr pc
    ef1c:	0000f6d8 	ldrdeq	pc, [r0], -r8
    ef20:	0000f56c 	andeq	pc, r0, ip, ror #10
    ef24:	0000f6d8 	ldrdeq	pc, [r0], -r8
    ef28:	0000f024 	andeq	pc, r0, r4, lsr #32
    ef2c:	0000f6d8 	ldrdeq	pc, [r0], -r8
    ef30:	0000f6d8 	ldrdeq	pc, [r0], -r8
    ef34:	0000f2c8 	andeq	pc, r0, r8, asr #5
    ef38:	e59d3008 	ldr	r3, [sp, #8]
    ef3c:	e1a04000 	mov	r4, r0
    ef40:	e3833010 	orr	r3, r3, #16
    ef44:	e58d3008 	str	r3, [sp, #8]
    ef48:	eaffff9b 	b	edbc <_vfprintf_r+0x15c>
    ef4c:	e58d3024 	str	r3, [sp, #36]	; 0x24
    ef50:	e2613000 	rsb	r3, r1, #0
    ef54:	e58d3020 	str	r3, [sp, #32]
    ef58:	e59d3008 	ldr	r3, [sp, #8]
    ef5c:	e1a04000 	mov	r4, r0
    ef60:	e3833004 	orr	r3, r3, #4
    ef64:	e58d3008 	str	r3, [sp, #8]
    ef68:	eaffff93 	b	edbc <_vfprintf_r+0x15c>
    ef6c:	e1a0000a 	mov	r0, sl
    ef70:	e1a0100b 	mov	r1, fp
    ef74:	eb00077e 	bl	10d74 <__swsetup_r>
    ef78:	e3500000 	cmp	r0, #0
    ef7c:	01db20bc 	ldrheq	r2, [fp, #12]
    ef80:	0affff58 	beq	ece8 <_vfprintf_r+0x88>
    ef84:	e3e00000 	mvn	r0, #0
    ef88:	e28dd0f4 	add	sp, sp, #244	; 0xf4
    ef8c:	ecbd8b04 	vpop	{d8-d9}
    ef90:	e8bd8ff0 	pop	{r4, r5, r6, r7, r8, r9, sl, fp, pc}
    ef94:	e59d0018 	ldr	r0, [sp, #24]
    ef98:	e59d1014 	ldr	r1, [sp, #20]
    ef9c:	e28d207c 	add	r2, sp, #124	; 0x7c
    efa0:	eb001387 	bl	13dc4 <__sprint_r>
    efa4:	e3500000 	cmp	r0, #0
    efa8:	1a000376 	bne	fd88 <_vfprintf_r+0x1128>
    efac:	e1a07006 	mov	r7, r6
    efb0:	eaffff74 	b	ed88 <_vfprintf_r+0x128>
    efb4:	e1db30fe 	ldrsh	r3, [fp, #14]
    efb8:	e3530000 	cmp	r3, #0
    efbc:	baffff4c 	blt	ecf4 <_vfprintf_r+0x94>
    efc0:	e1a0000a 	mov	r0, sl
    efc4:	e1a0100b 	mov	r1, fp
    efc8:	e59d2010 	ldr	r2, [sp, #16]
    efcc:	e1a03004 	mov	r3, r4
    efd0:	eb0006d2 	bl	10b20 <__sbprintf>
    efd4:	e28dd0f4 	add	sp, sp, #244	; 0xf4
    efd8:	ecbd8b04 	vpop	{d8-d9}
    efdc:	e8bd8ff0 	pop	{r4, r5, r6, r7, r8, r9, sl, fp, pc}
    efe0:	e1a0000a 	mov	r0, sl
    efe4:	ebfff73c 	bl	ccdc <__sinit>
    efe8:	eaffff2f 	b	ecac <_vfprintf_r+0x4c>
    efec:	e59d4010 	ldr	r4, [sp, #16]
    eff0:	eaffff67 	b	ed94 <_vfprintf_r+0x134>
    eff4:	e1a04000 	mov	r4, r0
    eff8:	e3a0202b 	mov	r2, #43	; 0x2b
    effc:	eaffff6e 	b	edbc <_vfprintf_r+0x15c>
	...
    f008:	000171a0 	andeq	r7, r1, r0, lsr #3
    f00c:	000171b4 			; <UNDEFINED> instruction: 0x000171b4
    f010:	00017190 	muleq	r1, r0, r1
    f014:	00017194 	muleq	r1, r4, r1
    f018:	00016d88 	andeq	r6, r1, r8, lsl #27
    f01c:	000171d0 	ldrdeq	r7, [r1], -r0
    f020:	00016d98 	muleq	r1, r8, sp
    f024:	e58d3034 	str	r3, [sp, #52]	; 0x34
    f028:	e59d3008 	ldr	r3, [sp, #8]
    f02c:	e58d0010 	str	r0, [sp, #16]
    f030:	e3130010 	tst	r3, #16
    f034:	0a000142 	beq	f544 <_vfprintf_r+0x8e4>
    f038:	e3a02001 	mov	r2, #1
    f03c:	e59d1024 	ldr	r1, [sp, #36]	; 0x24
    f040:	e5913000 	ldr	r3, [r1]
    f044:	e2811004 	add	r1, r1, #4
    f048:	e58d1024 	str	r1, [sp, #36]	; 0x24
    f04c:	e3a00000 	mov	r0, #0
    f050:	e1a01000 	mov	r1, r0
    f054:	e58d5030 	str	r5, [sp, #48]	; 0x30
    f058:	e5cd005f 	strb	r0, [sp, #95]	; 0x5f
    f05c:	e3550000 	cmp	r5, #0
    f060:	a59d0008 	ldrge	r0, [sp, #8]
    f064:	a3c00080 	bicge	r0, r0, #128	; 0x80
    f068:	a58d0008 	strge	r0, [sp, #8]
    f06c:	e3530000 	cmp	r3, #0
    f070:	03550000 	cmpeq	r5, #0
    f074:	13a04001 	movne	r4, #1
    f078:	03a04000 	moveq	r4, #0
    f07c:	0a0002b2 	beq	fb4c <_vfprintf_r+0xeec>
    f080:	e3520001 	cmp	r2, #1
    f084:	0a0003ae 	beq	ff44 <_vfprintf_r+0x12e4>
    f088:	e3520002 	cmp	r2, #2
    f08c:	1a000364 	bne	fe24 <_vfprintf_r+0x11c4>
    f090:	e1a02006 	mov	r2, r6
    f094:	e59dc04c 	ldr	ip, [sp, #76]	; 0x4c
    f098:	e203000f 	and	r0, r3, #15
    f09c:	e7dc0000 	ldrb	r0, [ip, r0]
    f0a0:	e1b03223 	lsrs	r3, r3, #4
    f0a4:	e5620001 	strb	r0, [r2, #-1]!
    f0a8:	1afffffa 	bne	f098 <_vfprintf_r+0x438>
    f0ac:	e1a03002 	mov	r3, r2
    f0b0:	e58d202c 	str	r2, [sp, #44]	; 0x2c
    f0b4:	e0624006 	rsb	r4, r2, r6
    f0b8:	e1540005 	cmp	r4, r5
    f0bc:	a1a03004 	movge	r3, r4
    f0c0:	b1a03005 	movlt	r3, r5
    f0c4:	e58d300c 	str	r3, [sp, #12]
    f0c8:	e3a03000 	mov	r3, #0
    f0cc:	e58d3038 	str	r3, [sp, #56]	; 0x38
    f0d0:	e3510000 	cmp	r1, #0
    f0d4:	0a000002 	beq	f0e4 <_vfprintf_r+0x484>
    f0d8:	e59d300c 	ldr	r3, [sp, #12]
    f0dc:	e2833001 	add	r3, r3, #1
    f0e0:	e58d300c 	str	r3, [sp, #12]
    f0e4:	e59d3008 	ldr	r3, [sp, #8]
    f0e8:	e213a002 	ands	sl, r3, #2
    f0ec:	159d300c 	ldrne	r3, [sp, #12]
    f0f0:	12833002 	addne	r3, r3, #2
    f0f4:	158d300c 	strne	r3, [sp, #12]
    f0f8:	e59d3008 	ldr	r3, [sp, #8]
    f0fc:	e2133084 	ands	r3, r3, #132	; 0x84
    f100:	e58d3028 	str	r3, [sp, #40]	; 0x28
    f104:	1a000194 	bne	f75c <_vfprintf_r+0xafc>
    f108:	e59d3020 	ldr	r3, [sp, #32]
    f10c:	e59d200c 	ldr	r2, [sp, #12]
    f110:	e062b003 	rsb	fp, r2, r3
    f114:	e35b0000 	cmp	fp, #0
    f118:	da00018f 	ble	f75c <_vfprintf_r+0xafc>
    f11c:	e35b0010 	cmp	fp, #16
    f120:	da000584 	ble	10738 <_vfprintf_r+0x1ad8>
    f124:	e51f3114 	ldr	r3, [pc, #-276]	; f018 <_vfprintf_r+0x3b8>
    f128:	e58d4050 	str	r4, [sp, #80]	; 0x50
    f12c:	e58d3040 	str	r3, [sp, #64]	; 0x40
    f130:	e1a0300b 	mov	r3, fp
    f134:	e1a00007 	mov	r0, r7
    f138:	e1a0b00a 	mov	fp, sl
    f13c:	e3a05010 	mov	r5, #16
    f140:	e59d2084 	ldr	r2, [sp, #132]	; 0x84
    f144:	e59d1080 	ldr	r1, [sp, #128]	; 0x80
    f148:	e59d4018 	ldr	r4, [sp, #24]
    f14c:	e59d7014 	ldr	r7, [sp, #20]
    f150:	e1a0a003 	mov	sl, r3
    f154:	ea000002 	b	f164 <_vfprintf_r+0x504>
    f158:	e24aa010 	sub	sl, sl, #16
    f15c:	e35a0010 	cmp	sl, #16
    f160:	da000014 	ble	f1b8 <_vfprintf_r+0x558>
    f164:	e2811001 	add	r1, r1, #1
    f168:	e3510007 	cmp	r1, #7
    f16c:	e2822010 	add	r2, r2, #16
    f170:	e5808000 	str	r8, [r0]
    f174:	e5805004 	str	r5, [r0, #4]
    f178:	e58d1080 	str	r1, [sp, #128]	; 0x80
    f17c:	e58d2084 	str	r2, [sp, #132]	; 0x84
    f180:	d2800008 	addle	r0, r0, #8
    f184:	dafffff3 	ble	f158 <_vfprintf_r+0x4f8>
    f188:	e1a00004 	mov	r0, r4
    f18c:	e1a01007 	mov	r1, r7
    f190:	e28d207c 	add	r2, sp, #124	; 0x7c
    f194:	eb00130a 	bl	13dc4 <__sprint_r>
    f198:	e3500000 	cmp	r0, #0
    f19c:	1a00021b 	bne	fa10 <_vfprintf_r+0xdb0>
    f1a0:	e24aa010 	sub	sl, sl, #16
    f1a4:	e35a0010 	cmp	sl, #16
    f1a8:	e1a00006 	mov	r0, r6
    f1ac:	e59d2084 	ldr	r2, [sp, #132]	; 0x84
    f1b0:	e59d1080 	ldr	r1, [sp, #128]	; 0x80
    f1b4:	caffffea 	bgt	f164 <_vfprintf_r+0x504>
    f1b8:	e1a0300a 	mov	r3, sl
    f1bc:	e1a07000 	mov	r7, r0
    f1c0:	e1a0a00b 	mov	sl, fp
    f1c4:	e1a0b003 	mov	fp, r3
    f1c8:	e59d4050 	ldr	r4, [sp, #80]	; 0x50
    f1cc:	e2811001 	add	r1, r1, #1
    f1d0:	e59d3040 	ldr	r3, [sp, #64]	; 0x40
    f1d4:	e08b2002 	add	r2, fp, r2
    f1d8:	e3510007 	cmp	r1, #7
    f1dc:	e58d1080 	str	r1, [sp, #128]	; 0x80
    f1e0:	e58d2084 	str	r2, [sp, #132]	; 0x84
    f1e4:	e8870808 	stm	r7, {r3, fp}
    f1e8:	ca000153 	bgt	f73c <_vfprintf_r+0xadc>
    f1ec:	e2877008 	add	r7, r7, #8
    f1f0:	e5dd105f 	ldrb	r1, [sp, #95]	; 0x5f
    f1f4:	ea000159 	b	f760 <_vfprintf_r+0xb00>
    f1f8:	e58d3034 	str	r3, [sp, #52]	; 0x34
    f1fc:	e59d3008 	ldr	r3, [sp, #8]
    f200:	e58d0010 	str	r0, [sp, #16]
    f204:	e2134010 	ands	r4, r3, #16
    f208:	0a00005f 	beq	f38c <_vfprintf_r+0x72c>
    f20c:	e59d1024 	ldr	r1, [sp, #36]	; 0x24
    f210:	e3a02000 	mov	r2, #0
    f214:	e5913000 	ldr	r3, [r1]
    f218:	e2811004 	add	r1, r1, #4
    f21c:	e58d1024 	str	r1, [sp, #36]	; 0x24
    f220:	eaffff89 	b	f04c <_vfprintf_r+0x3ec>
    f224:	e3520000 	cmp	r2, #0
    f228:	e1a04000 	mov	r4, r0
    f22c:	03a02020 	moveq	r2, #32
    f230:	eafffee1 	b	edbc <_vfprintf_r+0x15c>
    f234:	e59d3008 	ldr	r3, [sp, #8]
    f238:	e1a04000 	mov	r4, r0
    f23c:	e3833001 	orr	r3, r3, #1
    f240:	e58d3008 	str	r3, [sp, #8]
    f244:	eafffedc 	b	edbc <_vfprintf_r+0x15c>
    f248:	e59d3024 	ldr	r3, [sp, #36]	; 0x24
    f24c:	e1a04000 	mov	r4, r0
    f250:	e5931000 	ldr	r1, [r3]
    f254:	e2833004 	add	r3, r3, #4
    f258:	e3510000 	cmp	r1, #0
    f25c:	e58d1020 	str	r1, [sp, #32]
    f260:	baffff39 	blt	ef4c <_vfprintf_r+0x2ec>
    f264:	e58d3024 	str	r3, [sp, #36]	; 0x24
    f268:	eafffed3 	b	edbc <_vfprintf_r+0x15c>
    f26c:	e58d3034 	str	r3, [sp, #52]	; 0x34
    f270:	e59d3008 	ldr	r3, [sp, #8]
    f274:	e58d0010 	str	r0, [sp, #16]
    f278:	e3130010 	tst	r3, #16
    f27c:	e5cd205f 	strb	r2, [sp, #95]	; 0x5f
    f280:	0a000062 	beq	f410 <_vfprintf_r+0x7b0>
    f284:	e59d2024 	ldr	r2, [sp, #36]	; 0x24
    f288:	e5923000 	ldr	r3, [r2]
    f28c:	e2822004 	add	r2, r2, #4
    f290:	e58d2024 	str	r2, [sp, #36]	; 0x24
    f294:	e3530000 	cmp	r3, #0
    f298:	b3a0102d 	movlt	r1, #45	; 0x2d
    f29c:	a5dd105f 	ldrbge	r1, [sp, #95]	; 0x5f
    f2a0:	b2633000 	rsblt	r3, r3, #0
    f2a4:	b5cd105f 	strblt	r1, [sp, #95]	; 0x5f
    f2a8:	e58d5030 	str	r5, [sp, #48]	; 0x30
    f2ac:	e3a02001 	mov	r2, #1
    f2b0:	eaffff69 	b	f05c <_vfprintf_r+0x3fc>
    f2b4:	e59d3008 	ldr	r3, [sp, #8]
    f2b8:	e1a04000 	mov	r4, r0
    f2bc:	e3833040 	orr	r3, r3, #64	; 0x40
    f2c0:	e58d3008 	str	r3, [sp, #8]
    f2c4:	eafffebc 	b	edbc <_vfprintf_r+0x15c>
    f2c8:	e58d3034 	str	r3, [sp, #52]	; 0x34
    f2cc:	e51f32c8 	ldr	r3, [pc, #-712]	; f00c <_vfprintf_r+0x3ac>
    f2d0:	e58d0010 	str	r0, [sp, #16]
    f2d4:	e58d304c 	str	r3, [sp, #76]	; 0x4c
    f2d8:	e59d3008 	ldr	r3, [sp, #8]
    f2dc:	e5cd205f 	strb	r2, [sp, #95]	; 0x5f
    f2e0:	e3130010 	tst	r3, #16
    f2e4:	0a00006f 	beq	f4a8 <_vfprintf_r+0x848>
    f2e8:	e59d2024 	ldr	r2, [sp, #36]	; 0x24
    f2ec:	e5923000 	ldr	r3, [r2]
    f2f0:	e2822004 	add	r2, r2, #4
    f2f4:	e58d2024 	str	r2, [sp, #36]	; 0x24
    f2f8:	e59d2008 	ldr	r2, [sp, #8]
    f2fc:	e3120001 	tst	r2, #1
    f300:	0a000073 	beq	f4d4 <_vfprintf_r+0x874>
    f304:	e3530000 	cmp	r3, #0
    f308:	0a000071 	beq	f4d4 <_vfprintf_r+0x874>
    f30c:	e3a02030 	mov	r2, #48	; 0x30
    f310:	e5dd1034 	ldrb	r1, [sp, #52]	; 0x34
    f314:	e5cd2060 	strb	r2, [sp, #96]	; 0x60
    f318:	e5cd1061 	strb	r1, [sp, #97]	; 0x61
    f31c:	e59d1008 	ldr	r1, [sp, #8]
    f320:	e3a02002 	mov	r2, #2
    f324:	e3811002 	orr	r1, r1, #2
    f328:	e58d1008 	str	r1, [sp, #8]
    f32c:	eaffff46 	b	f04c <_vfprintf_r+0x3ec>
    f330:	e59d3008 	ldr	r3, [sp, #8]
    f334:	e58d0010 	str	r0, [sp, #16]
    f338:	e3130010 	tst	r3, #16
    f33c:	e5cd205f 	strb	r2, [sp, #95]	; 0x5f
    f340:	1a0000f6 	bne	f720 <_vfprintf_r+0xac0>
    f344:	e59d3008 	ldr	r3, [sp, #8]
    f348:	e3130040 	tst	r3, #64	; 0x40
    f34c:	0a0000f3 	beq	f720 <_vfprintf_r+0xac0>
    f350:	e59d2024 	ldr	r2, [sp, #36]	; 0x24
    f354:	e5923000 	ldr	r3, [r2]
    f358:	e2822004 	add	r2, r2, #4
    f35c:	e58d2024 	str	r2, [sp, #36]	; 0x24
    f360:	e1dd21bc 	ldrh	r2, [sp, #28]
    f364:	e1c320b0 	strh	r2, [r3]
    f368:	eafffe70 	b	ed30 <_vfprintf_r+0xd0>
    f36c:	e58d3034 	str	r3, [sp, #52]	; 0x34
    f370:	e59d3008 	ldr	r3, [sp, #8]
    f374:	e58d0010 	str	r0, [sp, #16]
    f378:	e3833010 	orr	r3, r3, #16
    f37c:	e58d3008 	str	r3, [sp, #8]
    f380:	e59d3008 	ldr	r3, [sp, #8]
    f384:	e2134010 	ands	r4, r3, #16
    f388:	1affff9f 	bne	f20c <_vfprintf_r+0x5ac>
    f38c:	e59d3008 	ldr	r3, [sp, #8]
    f390:	e2133040 	ands	r3, r3, #64	; 0x40
    f394:	159d1024 	ldrne	r1, [sp, #36]	; 0x24
    f398:	059d1024 	ldreq	r1, [sp, #36]	; 0x24
    f39c:	11a03001 	movne	r3, r1
    f3a0:	01a02003 	moveq	r2, r3
    f3a4:	01a03001 	moveq	r3, r1
    f3a8:	e2811004 	add	r1, r1, #4
    f3ac:	11a02004 	movne	r2, r4
    f3b0:	11d330b0 	ldrhne	r3, [r3]
    f3b4:	05933000 	ldreq	r3, [r3]
    f3b8:	e58d1024 	str	r1, [sp, #36]	; 0x24
    f3bc:	eaffff22 	b	f04c <_vfprintf_r+0x3ec>
    f3c0:	e3a01000 	mov	r1, #0
    f3c4:	e1a0c001 	mov	ip, r1
    f3c8:	e2431030 	sub	r1, r3, #48	; 0x30
    f3cc:	e4d03001 	ldrb	r3, [r0], #1
    f3d0:	e08cc10c 	add	ip, ip, ip, lsl #2
    f3d4:	e081c08c 	add	ip, r1, ip, lsl #1
    f3d8:	e2431030 	sub	r1, r3, #48	; 0x30
    f3dc:	e3510009 	cmp	r1, #9
    f3e0:	9afffff9 	bls	f3cc <_vfprintf_r+0x76c>
    f3e4:	e58dc020 	str	ip, [sp, #32]
    f3e8:	eafffe75 	b	edc4 <_vfprintf_r+0x164>
    f3ec:	e58d3034 	str	r3, [sp, #52]	; 0x34
    f3f0:	e59d3008 	ldr	r3, [sp, #8]
    f3f4:	e58d0010 	str	r0, [sp, #16]
    f3f8:	e3833010 	orr	r3, r3, #16
    f3fc:	e58d3008 	str	r3, [sp, #8]
    f400:	e59d3008 	ldr	r3, [sp, #8]
    f404:	e5cd205f 	strb	r2, [sp, #95]	; 0x5f
    f408:	e3130010 	tst	r3, #16
    f40c:	1affff9c 	bne	f284 <_vfprintf_r+0x624>
    f410:	e59d2024 	ldr	r2, [sp, #36]	; 0x24
    f414:	e59d3008 	ldr	r3, [sp, #8]
    f418:	e3130040 	tst	r3, #64	; 0x40
    f41c:	e1a03002 	mov	r3, r2
    f420:	11d230f0 	ldrshne	r3, [r2]
    f424:	e2822004 	add	r2, r2, #4
    f428:	05933000 	ldreq	r3, [r3]
    f42c:	e58d2024 	str	r2, [sp, #36]	; 0x24
    f430:	eaffff97 	b	f294 <_vfprintf_r+0x634>
    f434:	e5d03000 	ldrb	r3, [r0]
    f438:	e2800001 	add	r0, r0, #1
    f43c:	e353002a 	cmp	r3, #42	; 0x2a
    f440:	0a00058b 	beq	10a74 <_vfprintf_r+0x1e14>
    f444:	e2431030 	sub	r1, r3, #48	; 0x30
    f448:	e3510009 	cmp	r1, #9
    f44c:	e3a05000 	mov	r5, #0
    f450:	8afffe5b 	bhi	edc4 <_vfprintf_r+0x164>
    f454:	e4d03001 	ldrb	r3, [r0], #1
    f458:	e0855105 	add	r5, r5, r5, lsl #2
    f45c:	e0815085 	add	r5, r1, r5, lsl #1
    f460:	e2431030 	sub	r1, r3, #48	; 0x30
    f464:	e3510009 	cmp	r1, #9
    f468:	9afffff9 	bls	f454 <_vfprintf_r+0x7f4>
    f46c:	e1855fc5 	orr	r5, r5, r5, asr #31
    f470:	eafffe53 	b	edc4 <_vfprintf_r+0x164>
    f474:	e59d3008 	ldr	r3, [sp, #8]
    f478:	e1a04000 	mov	r4, r0
    f47c:	e3833080 	orr	r3, r3, #128	; 0x80
    f480:	e58d3008 	str	r3, [sp, #8]
    f484:	eafffe4c 	b	edbc <_vfprintf_r+0x15c>
    f488:	e58d3034 	str	r3, [sp, #52]	; 0x34
    f48c:	e51f348c 	ldr	r3, [pc, #-1164]	; f008 <_vfprintf_r+0x3a8>
    f490:	e58d0010 	str	r0, [sp, #16]
    f494:	e58d304c 	str	r3, [sp, #76]	; 0x4c
    f498:	e59d3008 	ldr	r3, [sp, #8]
    f49c:	e5cd205f 	strb	r2, [sp, #95]	; 0x5f
    f4a0:	e3130010 	tst	r3, #16
    f4a4:	1affff8f 	bne	f2e8 <_vfprintf_r+0x688>
    f4a8:	e59d2024 	ldr	r2, [sp, #36]	; 0x24
    f4ac:	e59d3008 	ldr	r3, [sp, #8]
    f4b0:	e3130040 	tst	r3, #64	; 0x40
    f4b4:	e1a03002 	mov	r3, r2
    f4b8:	11d230b0 	ldrhne	r3, [r2]
    f4bc:	e2822004 	add	r2, r2, #4
    f4c0:	05933000 	ldreq	r3, [r3]
    f4c4:	e58d2024 	str	r2, [sp, #36]	; 0x24
    f4c8:	e59d2008 	ldr	r2, [sp, #8]
    f4cc:	e3120001 	tst	r2, #1
    f4d0:	1affff8b 	bne	f304 <_vfprintf_r+0x6a4>
    f4d4:	e3a02002 	mov	r2, #2
    f4d8:	eafffedb 	b	f04c <_vfprintf_r+0x3ec>
    f4dc:	e58d3034 	str	r3, [sp, #52]	; 0x34
    f4e0:	e3a03000 	mov	r3, #0
    f4e4:	e58d0010 	str	r0, [sp, #16]
    f4e8:	e3a00001 	mov	r0, #1
    f4ec:	e59dc024 	ldr	ip, [sp, #36]	; 0x24
    f4f0:	e1a01003 	mov	r1, r3
    f4f4:	e59c2000 	ldr	r2, [ip]
    f4f8:	e5cd305f 	strb	r3, [sp, #95]	; 0x5f
    f4fc:	e58d3030 	str	r3, [sp, #48]	; 0x30
    f500:	e58d3038 	str	r3, [sp, #56]	; 0x38
    f504:	e28c3004 	add	r3, ip, #4
    f508:	e58d3024 	str	r3, [sp, #36]	; 0x24
    f50c:	e28d3088 	add	r3, sp, #136	; 0x88
    f510:	e58d000c 	str	r0, [sp, #12]
    f514:	e5cd2088 	strb	r2, [sp, #136]	; 0x88
    f518:	e1a04000 	mov	r4, r0
    f51c:	e58d302c 	str	r3, [sp, #44]	; 0x2c
    f520:	eafffeef 	b	f0e4 <_vfprintf_r+0x484>
    f524:	e58d3034 	str	r3, [sp, #52]	; 0x34
    f528:	e59d3008 	ldr	r3, [sp, #8]
    f52c:	e58d0010 	str	r0, [sp, #16]
    f530:	e3833010 	orr	r3, r3, #16
    f534:	e58d3008 	str	r3, [sp, #8]
    f538:	e59d3008 	ldr	r3, [sp, #8]
    f53c:	e3130010 	tst	r3, #16
    f540:	1afffebc 	bne	f038 <_vfprintf_r+0x3d8>
    f544:	e59d1024 	ldr	r1, [sp, #36]	; 0x24
    f548:	e59d3008 	ldr	r3, [sp, #8]
    f54c:	e3a02001 	mov	r2, #1
    f550:	e3130040 	tst	r3, #64	; 0x40
    f554:	e1a03001 	mov	r3, r1
    f558:	11d130b0 	ldrhne	r3, [r1]
    f55c:	e2811004 	add	r1, r1, #4
    f560:	05933000 	ldreq	r3, [r3]
    f564:	e58d1024 	str	r1, [sp, #36]	; 0x24
    f568:	eafffeb7 	b	f04c <_vfprintf_r+0x3ec>
    f56c:	e3a0a000 	mov	sl, #0
    f570:	e58d3034 	str	r3, [sp, #52]	; 0x34
    f574:	e59d3024 	ldr	r3, [sp, #36]	; 0x24
    f578:	e58d0010 	str	r0, [sp, #16]
    f57c:	e5932000 	ldr	r2, [r3]
    f580:	e5cda05f 	strb	sl, [sp, #95]	; 0x5f
    f584:	e152000a 	cmp	r2, sl
    f588:	e58d202c 	str	r2, [sp, #44]	; 0x2c
    f58c:	e283b004 	add	fp, r3, #4
    f590:	0a000482 	beq	107a0 <_vfprintf_r+0x1b40>
    f594:	e3550000 	cmp	r5, #0
    f598:	e59d002c 	ldr	r0, [sp, #44]	; 0x2c
    f59c:	ba00045c 	blt	10714 <_vfprintf_r+0x1ab4>
    f5a0:	e1a0100a 	mov	r1, sl
    f5a4:	e1a02005 	mov	r2, r5
    f5a8:	eb000cf9 	bl	12994 <memchr>
    f5ac:	e3500000 	cmp	r0, #0
    f5b0:	0a0004f8 	beq	10998 <_vfprintf_r+0x1d38>
    f5b4:	e59d202c 	ldr	r2, [sp, #44]	; 0x2c
    f5b8:	e58da030 	str	sl, [sp, #48]	; 0x30
    f5bc:	e0624000 	rsb	r4, r2, r0
    f5c0:	e1c42fc4 	bic	r2, r4, r4, asr #31
    f5c4:	e58db024 	str	fp, [sp, #36]	; 0x24
    f5c8:	e58d200c 	str	r2, [sp, #12]
    f5cc:	e58da038 	str	sl, [sp, #56]	; 0x38
    f5d0:	e5dd105f 	ldrb	r1, [sp, #95]	; 0x5f
    f5d4:	eafffebd 	b	f0d0 <_vfprintf_r+0x470>
    f5d8:	e3a02078 	mov	r2, #120	; 0x78
    f5dc:	e3a01030 	mov	r1, #48	; 0x30
    f5e0:	e59dc008 	ldr	ip, [sp, #8]
    f5e4:	e58d0010 	str	r0, [sp, #16]
    f5e8:	e59d0024 	ldr	r0, [sp, #36]	; 0x24
    f5ec:	e5cd2061 	strb	r2, [sp, #97]	; 0x61
    f5f0:	e58d2034 	str	r2, [sp, #52]	; 0x34
    f5f4:	e51f25f0 	ldr	r2, [pc, #-1520]	; f00c <_vfprintf_r+0x3ac>
    f5f8:	e5903000 	ldr	r3, [r0]
    f5fc:	e38cc002 	orr	ip, ip, #2
    f600:	e2800004 	add	r0, r0, #4
    f604:	e58d204c 	str	r2, [sp, #76]	; 0x4c
    f608:	e58dc008 	str	ip, [sp, #8]
    f60c:	e58d0024 	str	r0, [sp, #36]	; 0x24
    f610:	e5cd1060 	strb	r1, [sp, #96]	; 0x60
    f614:	e3a02002 	mov	r2, #2
    f618:	eafffe8b 	b	f04c <_vfprintf_r+0x3ec>
    f61c:	e58d3034 	str	r3, [sp, #52]	; 0x34
    f620:	e59d3008 	ldr	r3, [sp, #8]
    f624:	e5cd205f 	strb	r2, [sp, #95]	; 0x5f
    f628:	e3130008 	tst	r3, #8
    f62c:	e59d3024 	ldr	r3, [sp, #36]	; 0x24
    f630:	e58d0010 	str	r0, [sp, #16]
    f634:	e283b007 	add	fp, r3, #7
    f638:	13cb3007 	bicne	r3, fp, #7
    f63c:	03cbb007 	biceq	fp, fp, #7
    f640:	1d938b00 	vldrne	d8, [r3]
    f644:	0d9b8b00 	vldreq	d8, [fp]
    f648:	12832008 	addne	r2, r3, #8
    f64c:	028b3008 	addeq	r3, fp, #8
    f650:	eeb00b48 	vmov.f64	d0, d8
    f654:	158d2024 	strne	r2, [sp, #36]	; 0x24
    f658:	058d3024 	streq	r3, [sp, #36]	; 0x24
    f65c:	eb0010a6 	bl	138fc <__fpclassifyd>
    f660:	e3500001 	cmp	r0, #1
    f664:	1a000320 	bne	102ec <_vfprintf_r+0x168c>
    f668:	eeb58bc0 	vcmpe.f64	d8, #0.0
    f66c:	eef1fa10 	vmrs	APSR_nzcv, fpscr
    f670:	43a0302d 	movmi	r3, #45	; 0x2d
    f674:	41a01003 	movmi	r1, r3
    f678:	45cd305f 	strbmi	r3, [sp, #95]	; 0x5f
    f67c:	e3a03003 	mov	r3, #3
    f680:	e1a04003 	mov	r4, r3
    f684:	e58d300c 	str	r3, [sp, #12]
    f688:	e3a03000 	mov	r3, #0
    f68c:	e1a00003 	mov	r0, r3
    f690:	e58d0038 	str	r0, [sp, #56]	; 0x38
    f694:	e59d0034 	ldr	r0, [sp, #52]	; 0x34
    f698:	e58d3030 	str	r3, [sp, #48]	; 0x30
    f69c:	e51f3694 	ldr	r3, [pc, #-1684]	; f010 <_vfprintf_r+0x3b0>
    f6a0:	55dd105f 	ldrbpl	r1, [sp, #95]	; 0x5f
    f6a4:	e3500047 	cmp	r0, #71	; 0x47
    f6a8:	e51f269c 	ldr	r2, [pc, #-1692]	; f014 <_vfprintf_r+0x3b4>
    f6ac:	d1a02003 	movle	r2, r3
    f6b0:	e59dc008 	ldr	ip, [sp, #8]
    f6b4:	e58d202c 	str	r2, [sp, #44]	; 0x2c
    f6b8:	e3ccc080 	bic	ip, ip, #128	; 0x80
    f6bc:	e58dc008 	str	ip, [sp, #8]
    f6c0:	eafffe82 	b	f0d0 <_vfprintf_r+0x470>
    f6c4:	e59d3008 	ldr	r3, [sp, #8]
    f6c8:	e1a04000 	mov	r4, r0
    f6cc:	e3833008 	orr	r3, r3, #8
    f6d0:	e58d3008 	str	r3, [sp, #8]
    f6d4:	eafffdb8 	b	edbc <_vfprintf_r+0x15c>
    f6d8:	e3530000 	cmp	r3, #0
    f6dc:	e58d0010 	str	r0, [sp, #16]
    f6e0:	e58d3034 	str	r3, [sp, #52]	; 0x34
    f6e4:	e1a00003 	mov	r0, r3
    f6e8:	e5cd205f 	strb	r2, [sp, #95]	; 0x5f
    f6ec:	0a00039d 	beq	10568 <_vfprintf_r+0x1908>
    f6f0:	e3a03000 	mov	r3, #0
    f6f4:	e3a02001 	mov	r2, #1
    f6f8:	e1a01003 	mov	r1, r3
    f6fc:	e5cd305f 	strb	r3, [sp, #95]	; 0x5f
    f700:	e58d3030 	str	r3, [sp, #48]	; 0x30
    f704:	e58d3038 	str	r3, [sp, #56]	; 0x38
    f708:	e28d3088 	add	r3, sp, #136	; 0x88
    f70c:	e58d200c 	str	r2, [sp, #12]
    f710:	e5cd0088 	strb	r0, [sp, #136]	; 0x88
    f714:	e1a04002 	mov	r4, r2
    f718:	e58d302c 	str	r3, [sp, #44]	; 0x2c
    f71c:	eafffe70 	b	f0e4 <_vfprintf_r+0x484>
    f720:	e59d2024 	ldr	r2, [sp, #36]	; 0x24
    f724:	e5923000 	ldr	r3, [r2]
    f728:	e2822004 	add	r2, r2, #4
    f72c:	e58d2024 	str	r2, [sp, #36]	; 0x24
    f730:	e59d201c 	ldr	r2, [sp, #28]
    f734:	e5832000 	str	r2, [r3]
    f738:	eafffd7c 	b	ed30 <_vfprintf_r+0xd0>
    f73c:	e59d0018 	ldr	r0, [sp, #24]
    f740:	e59d1014 	ldr	r1, [sp, #20]
    f744:	e28d207c 	add	r2, sp, #124	; 0x7c
    f748:	eb00119d 	bl	13dc4 <__sprint_r>
    f74c:	e3500000 	cmp	r0, #0
    f750:	1a00018c 	bne	fd88 <_vfprintf_r+0x1128>
    f754:	e1a07006 	mov	r7, r6
    f758:	e5dd105f 	ldrb	r1, [sp, #95]	; 0x5f
    f75c:	e59d2084 	ldr	r2, [sp, #132]	; 0x84
    f760:	e3510000 	cmp	r1, #0
    f764:	0a00000b 	beq	f798 <_vfprintf_r+0xb38>
    f768:	e3a01001 	mov	r1, #1
    f76c:	e59d3080 	ldr	r3, [sp, #128]	; 0x80
    f770:	e0822001 	add	r2, r2, r1
    f774:	e0833001 	add	r3, r3, r1
    f778:	e3530007 	cmp	r3, #7
    f77c:	e58d3080 	str	r3, [sp, #128]	; 0x80
    f780:	e28d305f 	add	r3, sp, #95	; 0x5f
    f784:	e5871004 	str	r1, [r7, #4]
    f788:	e5873000 	str	r3, [r7]
    f78c:	e58d2084 	str	r2, [sp, #132]	; 0x84
    f790:	d2877008 	addle	r7, r7, #8
    f794:	ca00017d 	bgt	fd90 <_vfprintf_r+0x1130>
    f798:	e35a0000 	cmp	sl, #0
    f79c:	0a00000b 	beq	f7d0 <_vfprintf_r+0xb70>
    f7a0:	e3a01002 	mov	r1, #2
    f7a4:	e59d3080 	ldr	r3, [sp, #128]	; 0x80
    f7a8:	e0822001 	add	r2, r2, r1
    f7ac:	e2833001 	add	r3, r3, #1
    f7b0:	e3530007 	cmp	r3, #7
    f7b4:	e58d3080 	str	r3, [sp, #128]	; 0x80
    f7b8:	e28d3060 	add	r3, sp, #96	; 0x60
    f7bc:	e5871004 	str	r1, [r7, #4]
    f7c0:	e5873000 	str	r3, [r7]
    f7c4:	e58d2084 	str	r2, [sp, #132]	; 0x84
    f7c8:	d2877008 	addle	r7, r7, #8
    f7cc:	ca000178 	bgt	fdb4 <_vfprintf_r+0x1154>
    f7d0:	e59d3028 	ldr	r3, [sp, #40]	; 0x28
    f7d4:	e3530080 	cmp	r3, #128	; 0x80
    f7d8:	0a0000e9 	beq	fb84 <_vfprintf_r+0xf24>
    f7dc:	e59d3030 	ldr	r3, [sp, #48]	; 0x30
    f7e0:	e064a003 	rsb	sl, r4, r3
    f7e4:	e35a0000 	cmp	sl, #0
    f7e8:	da000036 	ble	f8c8 <_vfprintf_r+0xc68>
    f7ec:	e35a0010 	cmp	sl, #16
    f7f0:	da000314 	ble	10448 <_vfprintf_r+0x17e8>
    f7f4:	e51f57dc 	ldr	r5, [pc, #-2012]	; f020 <_vfprintf_r+0x3c0>
    f7f8:	e58d4028 	str	r4, [sp, #40]	; 0x28
    f7fc:	e1a01007 	mov	r1, r7
    f800:	e3a0b010 	mov	fp, #16
    f804:	e1a0700a 	mov	r7, sl
    f808:	e59d3080 	ldr	r3, [sp, #128]	; 0x80
    f80c:	e1a0a005 	mov	sl, r5
    f810:	e59d4018 	ldr	r4, [sp, #24]
    f814:	e59d5014 	ldr	r5, [sp, #20]
    f818:	ea000002 	b	f828 <_vfprintf_r+0xbc8>
    f81c:	e2477010 	sub	r7, r7, #16
    f820:	e3570010 	cmp	r7, #16
    f824:	da000013 	ble	f878 <_vfprintf_r+0xc18>
    f828:	e2833001 	add	r3, r3, #1
    f82c:	e3530007 	cmp	r3, #7
    f830:	e2822010 	add	r2, r2, #16
    f834:	e8810a00 	stm	r1, {r9, fp}
    f838:	e58d3080 	str	r3, [sp, #128]	; 0x80
    f83c:	e58d2084 	str	r2, [sp, #132]	; 0x84
    f840:	d2811008 	addle	r1, r1, #8
    f844:	dafffff4 	ble	f81c <_vfprintf_r+0xbbc>
    f848:	e1a00004 	mov	r0, r4
    f84c:	e1a01005 	mov	r1, r5
    f850:	e28d207c 	add	r2, sp, #124	; 0x7c
    f854:	eb00115a 	bl	13dc4 <__sprint_r>
    f858:	e3500000 	cmp	r0, #0
    f85c:	1a000105 	bne	fc78 <_vfprintf_r+0x1018>
    f860:	e2477010 	sub	r7, r7, #16
    f864:	e3570010 	cmp	r7, #16
    f868:	e1a01006 	mov	r1, r6
    f86c:	e59d2084 	ldr	r2, [sp, #132]	; 0x84
    f870:	e59d3080 	ldr	r3, [sp, #128]	; 0x80
    f874:	caffffeb 	bgt	f828 <_vfprintf_r+0xbc8>
    f878:	e1a0500a 	mov	r5, sl
    f87c:	e1a0a007 	mov	sl, r7
    f880:	e1a07001 	mov	r7, r1
    f884:	e59d4028 	ldr	r4, [sp, #40]	; 0x28
    f888:	e2833001 	add	r3, r3, #1
    f88c:	e3530007 	cmp	r3, #7
    f890:	e082200a 	add	r2, r2, sl
    f894:	e8870420 	stm	r7, {r5, sl}
    f898:	e58d3080 	str	r3, [sp, #128]	; 0x80
    f89c:	e58d2084 	str	r2, [sp, #132]	; 0x84
    f8a0:	d2877008 	addle	r7, r7, #8
    f8a4:	da000007 	ble	f8c8 <_vfprintf_r+0xc68>
    f8a8:	e59d0018 	ldr	r0, [sp, #24]
    f8ac:	e59d1014 	ldr	r1, [sp, #20]
    f8b0:	e28d207c 	add	r2, sp, #124	; 0x7c
    f8b4:	eb001142 	bl	13dc4 <__sprint_r>
    f8b8:	e3500000 	cmp	r0, #0
    f8bc:	1a000131 	bne	fd88 <_vfprintf_r+0x1128>
    f8c0:	e1a07006 	mov	r7, r6
    f8c4:	e59d2084 	ldr	r2, [sp, #132]	; 0x84
    f8c8:	e59d3008 	ldr	r3, [sp, #8]
    f8cc:	e3130c01 	tst	r3, #256	; 0x100
    f8d0:	1a000056 	bne	fa30 <_vfprintf_r+0xdd0>
    f8d4:	e59d3080 	ldr	r3, [sp, #128]	; 0x80
    f8d8:	e59d102c 	ldr	r1, [sp, #44]	; 0x2c
    f8dc:	e2833001 	add	r3, r3, #1
    f8e0:	e0822004 	add	r2, r2, r4
    f8e4:	e3530007 	cmp	r3, #7
    f8e8:	e58d2084 	str	r2, [sp, #132]	; 0x84
    f8ec:	e8870012 	stm	r7, {r1, r4}
    f8f0:	e58d3080 	str	r3, [sp, #128]	; 0x80
    f8f4:	ca000141 	bgt	fe00 <_vfprintf_r+0x11a0>
    f8f8:	e2877008 	add	r7, r7, #8
    f8fc:	e59d3008 	ldr	r3, [sp, #8]
    f900:	e3130004 	tst	r3, #4
    f904:	0a000034 	beq	f9dc <_vfprintf_r+0xd7c>
    f908:	e59d3020 	ldr	r3, [sp, #32]
    f90c:	e59d100c 	ldr	r1, [sp, #12]
    f910:	e0614003 	rsb	r4, r1, r3
    f914:	e3540000 	cmp	r4, #0
    f918:	da00002f 	ble	f9dc <_vfprintf_r+0xd7c>
    f91c:	e3540010 	cmp	r4, #16
    f920:	da0003aa 	ble	107d0 <_vfprintf_r+0x1b70>
    f924:	e51f1914 	ldr	r1, [pc, #-2324]	; f018 <_vfprintf_r+0x3b8>
    f928:	e3a05010 	mov	r5, #16
    f92c:	e59d3080 	ldr	r3, [sp, #128]	; 0x80
    f930:	e58d1040 	str	r1, [sp, #64]	; 0x40
    f934:	e59da018 	ldr	sl, [sp, #24]
    f938:	e59db014 	ldr	fp, [sp, #20]
    f93c:	ea000002 	b	f94c <_vfprintf_r+0xcec>
    f940:	e2444010 	sub	r4, r4, #16
    f944:	e3540010 	cmp	r4, #16
    f948:	da000014 	ble	f9a0 <_vfprintf_r+0xd40>
    f94c:	e2833001 	add	r3, r3, #1
    f950:	e3530007 	cmp	r3, #7
    f954:	e2822010 	add	r2, r2, #16
    f958:	e5878000 	str	r8, [r7]
    f95c:	e5875004 	str	r5, [r7, #4]
    f960:	e58d3080 	str	r3, [sp, #128]	; 0x80
    f964:	e58d2084 	str	r2, [sp, #132]	; 0x84
    f968:	d2877008 	addle	r7, r7, #8
    f96c:	dafffff3 	ble	f940 <_vfprintf_r+0xce0>
    f970:	e1a0000a 	mov	r0, sl
    f974:	e1a0100b 	mov	r1, fp
    f978:	e28d207c 	add	r2, sp, #124	; 0x7c
    f97c:	eb001110 	bl	13dc4 <__sprint_r>
    f980:	e3500000 	cmp	r0, #0
    f984:	1a000022 	bne	fa14 <_vfprintf_r+0xdb4>
    f988:	e2444010 	sub	r4, r4, #16
    f98c:	e3540010 	cmp	r4, #16
    f990:	e1a07006 	mov	r7, r6
    f994:	e59d2084 	ldr	r2, [sp, #132]	; 0x84
    f998:	e59d3080 	ldr	r3, [sp, #128]	; 0x80
    f99c:	caffffea 	bgt	f94c <_vfprintf_r+0xcec>
    f9a0:	e2833001 	add	r3, r3, #1
    f9a4:	e3530007 	cmp	r3, #7
    f9a8:	e58d3080 	str	r3, [sp, #128]	; 0x80
    f9ac:	e59d3040 	ldr	r3, [sp, #64]	; 0x40
    f9b0:	e0822004 	add	r2, r2, r4
    f9b4:	e58d2084 	str	r2, [sp, #132]	; 0x84
    f9b8:	e8870018 	stm	r7, {r3, r4}
    f9bc:	da000006 	ble	f9dc <_vfprintf_r+0xd7c>
    f9c0:	e59d0018 	ldr	r0, [sp, #24]
    f9c4:	e59d1014 	ldr	r1, [sp, #20]
    f9c8:	e28d207c 	add	r2, sp, #124	; 0x7c
    f9cc:	eb0010fc 	bl	13dc4 <__sprint_r>
    f9d0:	e3500000 	cmp	r0, #0
    f9d4:	1a0000eb 	bne	fd88 <_vfprintf_r+0x1128>
    f9d8:	e59d2084 	ldr	r2, [sp, #132]	; 0x84
    f9dc:	e59d301c 	ldr	r3, [sp, #28]
    f9e0:	e59d100c 	ldr	r1, [sp, #12]
    f9e4:	e59d0020 	ldr	r0, [sp, #32]
    f9e8:	e1510000 	cmp	r1, r0
    f9ec:	a0833001 	addge	r3, r3, r1
    f9f0:	b0833000 	addlt	r3, r3, r0
    f9f4:	e3520000 	cmp	r2, #0
    f9f8:	e58d301c 	str	r3, [sp, #28]
    f9fc:	1a0000db 	bne	fd70 <_vfprintf_r+0x1110>
    fa00:	e3a03000 	mov	r3, #0
    fa04:	e1a07006 	mov	r7, r6
    fa08:	e58d3080 	str	r3, [sp, #128]	; 0x80
    fa0c:	eafffcc7 	b	ed30 <_vfprintf_r+0xd0>
    fa10:	e1a0b007 	mov	fp, r7
    fa14:	e1db30bc 	ldrh	r3, [fp, #12]
    fa18:	e3130040 	tst	r3, #64	; 0x40
    fa1c:	1afffd58 	bne	ef84 <_vfprintf_r+0x324>
    fa20:	e59d001c 	ldr	r0, [sp, #28]
    fa24:	e28dd0f4 	add	sp, sp, #244	; 0xf4
    fa28:	ecbd8b04 	vpop	{d8-d9}
    fa2c:	e8bd8ff0 	pop	{r4, r5, r6, r7, r8, r9, sl, fp, pc}
    fa30:	e59d3034 	ldr	r3, [sp, #52]	; 0x34
    fa34:	e3530065 	cmp	r3, #101	; 0x65
    fa38:	da000090 	ble	fc80 <_vfprintf_r+0x1020>
    fa3c:	eeb58b40 	vcmp.f64	d8, #0.0
    fa40:	eef1fa10 	vmrs	APSR_nzcv, fpscr
    fa44:	1a000103 	bne	fe58 <_vfprintf_r+0x11f8>
    fa48:	e3a01001 	mov	r1, #1
    fa4c:	e59d3080 	ldr	r3, [sp, #128]	; 0x80
    fa50:	e51f0a3c 	ldr	r0, [pc, #-2620]	; f01c <_vfprintf_r+0x3bc>
    fa54:	e0833001 	add	r3, r3, r1
    fa58:	e0822001 	add	r2, r2, r1
    fa5c:	e3530007 	cmp	r3, #7
    fa60:	e5870000 	str	r0, [r7]
    fa64:	e5871004 	str	r1, [r7, #4]
    fa68:	e58d2084 	str	r2, [sp, #132]	; 0x84
    fa6c:	e58d3080 	str	r3, [sp, #128]	; 0x80
    fa70:	d2877008 	addle	r7, r7, #8
    fa74:	ca000276 	bgt	10454 <_vfprintf_r+0x17f4>
    fa78:	e59d3064 	ldr	r3, [sp, #100]	; 0x64
    fa7c:	e59d103c 	ldr	r1, [sp, #60]	; 0x3c
    fa80:	e1530001 	cmp	r3, r1
    fa84:	ba000002 	blt	fa94 <_vfprintf_r+0xe34>
    fa88:	e59d3008 	ldr	r3, [sp, #8]
    fa8c:	e3130001 	tst	r3, #1
    fa90:	0affff99 	beq	f8fc <_vfprintf_r+0xc9c>
    fa94:	e59d3080 	ldr	r3, [sp, #128]	; 0x80
    fa98:	e59d1048 	ldr	r1, [sp, #72]	; 0x48
    fa9c:	e2833001 	add	r3, r3, #1
    faa0:	e59d0044 	ldr	r0, [sp, #68]	; 0x44
    faa4:	e0822001 	add	r2, r2, r1
    faa8:	e3530007 	cmp	r3, #7
    faac:	e8870003 	stm	r7, {r0, r1}
    fab0:	e58d2084 	str	r2, [sp, #132]	; 0x84
    fab4:	e58d3080 	str	r3, [sp, #128]	; 0x80
    fab8:	d2877008 	addle	r7, r7, #8
    fabc:	ca0002ec 	bgt	10674 <_vfprintf_r+0x1a14>
    fac0:	e59d303c 	ldr	r3, [sp, #60]	; 0x3c
    fac4:	e2434001 	sub	r4, r3, #1
    fac8:	e3540000 	cmp	r4, #0
    facc:	daffff8a 	ble	f8fc <_vfprintf_r+0xc9c>
    fad0:	e3540010 	cmp	r4, #16
    fad4:	da0003cf 	ble	10a18 <_vfprintf_r+0x1db8>
    fad8:	e51f5ac0 	ldr	r5, [pc, #-2752]	; f020 <_vfprintf_r+0x3c0>
    fadc:	e3a0a010 	mov	sl, #16
    fae0:	e58d5028 	str	r5, [sp, #40]	; 0x28
    fae4:	e59d3080 	ldr	r3, [sp, #128]	; 0x80
    fae8:	e1a05004 	mov	r5, r4
    faec:	e59db018 	ldr	fp, [sp, #24]
    faf0:	e59d4014 	ldr	r4, [sp, #20]
    faf4:	ea000002 	b	fb04 <_vfprintf_r+0xea4>
    faf8:	e2455010 	sub	r5, r5, #16
    fafc:	e3550010 	cmp	r5, #16
    fb00:	da0000b4 	ble	fdd8 <_vfprintf_r+0x1178>
    fb04:	e2833001 	add	r3, r3, #1
    fb08:	e3530007 	cmp	r3, #7
    fb0c:	e2822010 	add	r2, r2, #16
    fb10:	e8870600 	stm	r7, {r9, sl}
    fb14:	e58d3080 	str	r3, [sp, #128]	; 0x80
    fb18:	e58d2084 	str	r2, [sp, #132]	; 0x84
    fb1c:	d2877008 	addle	r7, r7, #8
    fb20:	dafffff4 	ble	faf8 <_vfprintf_r+0xe98>
    fb24:	e1a0000b 	mov	r0, fp
    fb28:	e1a01004 	mov	r1, r4
    fb2c:	e28d207c 	add	r2, sp, #124	; 0x7c
    fb30:	eb0010a3 	bl	13dc4 <__sprint_r>
    fb34:	e3500000 	cmp	r0, #0
    fb38:	1a000240 	bne	10440 <_vfprintf_r+0x17e0>
    fb3c:	e1a07006 	mov	r7, r6
    fb40:	e59d2084 	ldr	r2, [sp, #132]	; 0x84
    fb44:	e59d3080 	ldr	r3, [sp, #128]	; 0x80
    fb48:	eaffffea 	b	faf8 <_vfprintf_r+0xe98>
    fb4c:	e3520000 	cmp	r2, #0
    fb50:	1a000009 	bne	fb7c <_vfprintf_r+0xf1c>
    fb54:	e59d3008 	ldr	r3, [sp, #8]
    fb58:	e3130001 	tst	r3, #1
    fb5c:	0a000005 	beq	fb78 <_vfprintf_r+0xf18>
    fb60:	e3a02030 	mov	r2, #48	; 0x30
    fb64:	e28d30f0 	add	r3, sp, #240	; 0xf0
    fb68:	e5632041 	strb	r2, [r3, #-65]!	; 0xffffffbf
    fb6c:	e0634006 	rsb	r4, r3, r6
    fb70:	e58d302c 	str	r3, [sp, #44]	; 0x2c
    fb74:	eafffd4f 	b	f0b8 <_vfprintf_r+0x458>
    fb78:	e1a04002 	mov	r4, r2
    fb7c:	e58d602c 	str	r6, [sp, #44]	; 0x2c
    fb80:	eafffd4c 	b	f0b8 <_vfprintf_r+0x458>
    fb84:	e59d3020 	ldr	r3, [sp, #32]
    fb88:	e59d100c 	ldr	r1, [sp, #12]
    fb8c:	e061a003 	rsb	sl, r1, r3
    fb90:	e35a0000 	cmp	sl, #0
    fb94:	daffff10 	ble	f7dc <_vfprintf_r+0xb7c>
    fb98:	e35a0010 	cmp	sl, #16
    fb9c:	da000342 	ble	108ac <_vfprintf_r+0x1c4c>
    fba0:	e51f5b88 	ldr	r5, [pc, #-2952]	; f020 <_vfprintf_r+0x3c0>
    fba4:	e58d4028 	str	r4, [sp, #40]	; 0x28
    fba8:	e1a01007 	mov	r1, r7
    fbac:	e3a0b010 	mov	fp, #16
    fbb0:	e1a0700a 	mov	r7, sl
    fbb4:	e59d3080 	ldr	r3, [sp, #128]	; 0x80
    fbb8:	e1a0a005 	mov	sl, r5
    fbbc:	e59d4018 	ldr	r4, [sp, #24]
    fbc0:	e59d5014 	ldr	r5, [sp, #20]
    fbc4:	ea000002 	b	fbd4 <_vfprintf_r+0xf74>
    fbc8:	e2477010 	sub	r7, r7, #16
    fbcc:	e3570010 	cmp	r7, #16
    fbd0:	da000013 	ble	fc24 <_vfprintf_r+0xfc4>
    fbd4:	e2833001 	add	r3, r3, #1
    fbd8:	e3530007 	cmp	r3, #7
    fbdc:	e2822010 	add	r2, r2, #16
    fbe0:	e8810a00 	stm	r1, {r9, fp}
    fbe4:	e58d3080 	str	r3, [sp, #128]	; 0x80
    fbe8:	e58d2084 	str	r2, [sp, #132]	; 0x84
    fbec:	d2811008 	addle	r1, r1, #8
    fbf0:	dafffff4 	ble	fbc8 <_vfprintf_r+0xf68>
    fbf4:	e1a00004 	mov	r0, r4
    fbf8:	e1a01005 	mov	r1, r5
    fbfc:	e28d207c 	add	r2, sp, #124	; 0x7c
    fc00:	eb00106f 	bl	13dc4 <__sprint_r>
    fc04:	e3500000 	cmp	r0, #0
    fc08:	1a00001a 	bne	fc78 <_vfprintf_r+0x1018>
    fc0c:	e2477010 	sub	r7, r7, #16
    fc10:	e3570010 	cmp	r7, #16
    fc14:	e1a01006 	mov	r1, r6
    fc18:	e59d2084 	ldr	r2, [sp, #132]	; 0x84
    fc1c:	e59d3080 	ldr	r3, [sp, #128]	; 0x80
    fc20:	caffffeb 	bgt	fbd4 <_vfprintf_r+0xf74>
    fc24:	e1a0500a 	mov	r5, sl
    fc28:	e1a0a007 	mov	sl, r7
    fc2c:	e1a07001 	mov	r7, r1
    fc30:	e59d4028 	ldr	r4, [sp, #40]	; 0x28
    fc34:	e2833001 	add	r3, r3, #1
    fc38:	e3530007 	cmp	r3, #7
    fc3c:	e082200a 	add	r2, r2, sl
    fc40:	e8870420 	stm	r7, {r5, sl}
    fc44:	e58d3080 	str	r3, [sp, #128]	; 0x80
    fc48:	e58d2084 	str	r2, [sp, #132]	; 0x84
    fc4c:	d2877008 	addle	r7, r7, #8
    fc50:	dafffee1 	ble	f7dc <_vfprintf_r+0xb7c>
    fc54:	e59d0018 	ldr	r0, [sp, #24]
    fc58:	e59d1014 	ldr	r1, [sp, #20]
    fc5c:	e28d207c 	add	r2, sp, #124	; 0x7c
    fc60:	eb001057 	bl	13dc4 <__sprint_r>
    fc64:	e3500000 	cmp	r0, #0
    fc68:	1a000046 	bne	fd88 <_vfprintf_r+0x1128>
    fc6c:	e1a07006 	mov	r7, r6
    fc70:	e59d2084 	ldr	r2, [sp, #132]	; 0x84
    fc74:	eafffed8 	b	f7dc <_vfprintf_r+0xb7c>
    fc78:	e1a0b005 	mov	fp, r5
    fc7c:	eaffff64 	b	fa14 <_vfprintf_r+0xdb4>
    fc80:	e59d303c 	ldr	r3, [sp, #60]	; 0x3c
    fc84:	e3a01001 	mov	r1, #1
    fc88:	e3530001 	cmp	r3, #1
    fc8c:	da00013f 	ble	10190 <_vfprintf_r+0x1530>
    fc90:	e59d3080 	ldr	r3, [sp, #128]	; 0x80
    fc94:	e59d002c 	ldr	r0, [sp, #44]	; 0x2c
    fc98:	e0833001 	add	r3, r3, r1
    fc9c:	e0822001 	add	r2, r2, r1
    fca0:	e3530007 	cmp	r3, #7
    fca4:	e5870000 	str	r0, [r7]
    fca8:	e5871004 	str	r1, [r7, #4]
    fcac:	e58d2084 	str	r2, [sp, #132]	; 0x84
    fcb0:	e58d3080 	str	r3, [sp, #128]	; 0x80
    fcb4:	d2877008 	addle	r7, r7, #8
    fcb8:	ca00014b 	bgt	101ec <_vfprintf_r+0x158c>
    fcbc:	e59d1048 	ldr	r1, [sp, #72]	; 0x48
    fcc0:	e2833001 	add	r3, r3, #1
    fcc4:	e59d0044 	ldr	r0, [sp, #68]	; 0x44
    fcc8:	e3530007 	cmp	r3, #7
    fccc:	e0822001 	add	r2, r2, r1
    fcd0:	e8870003 	stm	r7, {r0, r1}
    fcd4:	e58d3080 	str	r3, [sp, #128]	; 0x80
    fcd8:	e58d2084 	str	r2, [sp, #132]	; 0x84
    fcdc:	d2877008 	addle	r7, r7, #8
    fce0:	ca00014b 	bgt	10214 <_vfprintf_r+0x15b4>
    fce4:	eeb58b40 	vcmp.f64	d8, #0.0
    fce8:	eef1fa10 	vmrs	APSR_nzcv, fpscr
    fcec:	0a00009c 	beq	ff64 <_vfprintf_r+0x1304>
    fcf0:	e59d103c 	ldr	r1, [sp, #60]	; 0x3c
    fcf4:	e59d002c 	ldr	r0, [sp, #44]	; 0x2c
    fcf8:	e2833001 	add	r3, r3, #1
    fcfc:	e2411001 	sub	r1, r1, #1
    fd00:	e2800001 	add	r0, r0, #1
    fd04:	e0822001 	add	r2, r2, r1
    fd08:	e3530007 	cmp	r3, #7
    fd0c:	e58d3080 	str	r3, [sp, #128]	; 0x80
    fd10:	e5870000 	str	r0, [r7]
    fd14:	e58d2084 	str	r2, [sp, #132]	; 0x84
    fd18:	e5871004 	str	r1, [r7, #4]
    fd1c:	ca000150 	bgt	10264 <_vfprintf_r+0x1604>
    fd20:	e2877008 	add	r7, r7, #8
    fd24:	e59d0054 	ldr	r0, [sp, #84]	; 0x54
    fd28:	e2833001 	add	r3, r3, #1
    fd2c:	e3530007 	cmp	r3, #7
    fd30:	e58d3080 	str	r3, [sp, #128]	; 0x80
    fd34:	e1a03000 	mov	r3, r0
    fd38:	e0822000 	add	r2, r2, r0
    fd3c:	e28d106c 	add	r1, sp, #108	; 0x6c
    fd40:	e58d2084 	str	r2, [sp, #132]	; 0x84
    fd44:	e887000a 	stm	r7, {r1, r3}
    fd48:	dafffeea 	ble	f8f8 <_vfprintf_r+0xc98>
    fd4c:	e59d0018 	ldr	r0, [sp, #24]
    fd50:	e59d1014 	ldr	r1, [sp, #20]
    fd54:	e28d207c 	add	r2, sp, #124	; 0x7c
    fd58:	eb001019 	bl	13dc4 <__sprint_r>
    fd5c:	e3500000 	cmp	r0, #0
    fd60:	1a000008 	bne	fd88 <_vfprintf_r+0x1128>
    fd64:	e1a07006 	mov	r7, r6
    fd68:	e59d2084 	ldr	r2, [sp, #132]	; 0x84
    fd6c:	eafffee2 	b	f8fc <_vfprintf_r+0xc9c>
    fd70:	e59d0018 	ldr	r0, [sp, #24]
    fd74:	e59d1014 	ldr	r1, [sp, #20]
    fd78:	e28d207c 	add	r2, sp, #124	; 0x7c
    fd7c:	eb001010 	bl	13dc4 <__sprint_r>
    fd80:	e3500000 	cmp	r0, #0
    fd84:	0affff1d 	beq	fa00 <_vfprintf_r+0xda0>
    fd88:	e59db014 	ldr	fp, [sp, #20]
    fd8c:	eaffff20 	b	fa14 <_vfprintf_r+0xdb4>
    fd90:	e59d0018 	ldr	r0, [sp, #24]
    fd94:	e59d1014 	ldr	r1, [sp, #20]
    fd98:	e28d207c 	add	r2, sp, #124	; 0x7c
    fd9c:	eb001008 	bl	13dc4 <__sprint_r>
    fda0:	e3500000 	cmp	r0, #0
    fda4:	1afffff7 	bne	fd88 <_vfprintf_r+0x1128>
    fda8:	e1a07006 	mov	r7, r6
    fdac:	e59d2084 	ldr	r2, [sp, #132]	; 0x84
    fdb0:	eafffe78 	b	f798 <_vfprintf_r+0xb38>
    fdb4:	e59d0018 	ldr	r0, [sp, #24]
    fdb8:	e59d1014 	ldr	r1, [sp, #20]
    fdbc:	e28d207c 	add	r2, sp, #124	; 0x7c
    fdc0:	eb000fff 	bl	13dc4 <__sprint_r>
    fdc4:	e3500000 	cmp	r0, #0
    fdc8:	1affffee 	bne	fd88 <_vfprintf_r+0x1128>
    fdcc:	e1a07006 	mov	r7, r6
    fdd0:	e59d2084 	ldr	r2, [sp, #132]	; 0x84
    fdd4:	eafffe7d 	b	f7d0 <_vfprintf_r+0xb70>
    fdd8:	e1a04005 	mov	r4, r5
    fddc:	e59d5028 	ldr	r5, [sp, #40]	; 0x28
    fde0:	e2833001 	add	r3, r3, #1
    fde4:	e0822004 	add	r2, r2, r4
    fde8:	e3530007 	cmp	r3, #7
    fdec:	e58d3080 	str	r3, [sp, #128]	; 0x80
    fdf0:	e58d2084 	str	r2, [sp, #132]	; 0x84
    fdf4:	e5875000 	str	r5, [r7]
    fdf8:	e5874004 	str	r4, [r7, #4]
    fdfc:	dafffebd 	ble	f8f8 <_vfprintf_r+0xc98>
    fe00:	e59d0018 	ldr	r0, [sp, #24]
    fe04:	e59d1014 	ldr	r1, [sp, #20]
    fe08:	e28d207c 	add	r2, sp, #124	; 0x7c
    fe0c:	eb000fec 	bl	13dc4 <__sprint_r>
    fe10:	e3500000 	cmp	r0, #0
    fe14:	1affffdb 	bne	fd88 <_vfprintf_r+0x1128>
    fe18:	e59d2084 	ldr	r2, [sp, #132]	; 0x84
    fe1c:	e1a07006 	mov	r7, r6
    fe20:	eafffeb5 	b	f8fc <_vfprintf_r+0xc9c>
    fe24:	e1a00006 	mov	r0, r6
    fe28:	e2032007 	and	r2, r3, #7
    fe2c:	e2822030 	add	r2, r2, #48	; 0x30
    fe30:	e1b031a3 	lsrs	r3, r3, #3
    fe34:	e5602001 	strb	r2, [r0, #-1]!
    fe38:	1afffffa 	bne	fe28 <_vfprintf_r+0x11c8>
    fe3c:	e59d3008 	ldr	r3, [sp, #8]
    fe40:	e58d002c 	str	r0, [sp, #44]	; 0x2c
    fe44:	e3130001 	tst	r3, #1
    fe48:	1a00010f 	bne	1028c <_vfprintf_r+0x162c>
    fe4c:	e1a03000 	mov	r3, r0
    fe50:	e0604006 	rsb	r4, r0, r6
    fe54:	eafffc97 	b	f0b8 <_vfprintf_r+0x458>
    fe58:	e59d4064 	ldr	r4, [sp, #100]	; 0x64
    fe5c:	e3540000 	cmp	r4, #0
    fe60:	da000184 	ble	10478 <_vfprintf_r+0x1818>
    fe64:	e59d303c 	ldr	r3, [sp, #60]	; 0x3c
    fe68:	e59d1038 	ldr	r1, [sp, #56]	; 0x38
    fe6c:	e1530001 	cmp	r3, r1
    fe70:	a1a04001 	movge	r4, r1
    fe74:	b1a04003 	movlt	r4, r3
    fe78:	e59d102c 	ldr	r1, [sp, #44]	; 0x2c
    fe7c:	e3540000 	cmp	r4, #0
    fe80:	e081b003 	add	fp, r1, r3
    fe84:	da000008 	ble	feac <_vfprintf_r+0x124c>
    fe88:	e59d3080 	ldr	r3, [sp, #128]	; 0x80
    fe8c:	e0822004 	add	r2, r2, r4
    fe90:	e2833001 	add	r3, r3, #1
    fe94:	e3530007 	cmp	r3, #7
    fe98:	e8870012 	stm	r7, {r1, r4}
    fe9c:	e58d2084 	str	r2, [sp, #132]	; 0x84
    fea0:	e58d3080 	str	r3, [sp, #128]	; 0x80
    fea4:	d2877008 	addle	r7, r7, #8
    fea8:	ca000227 	bgt	1074c <_vfprintf_r+0x1aec>
    feac:	e59d3038 	ldr	r3, [sp, #56]	; 0x38
    feb0:	e3540000 	cmp	r4, #0
    feb4:	a0643003 	rsbge	r3, r4, r3
    feb8:	e3530000 	cmp	r3, #0
    febc:	e1a04003 	mov	r4, r3
    fec0:	da00005e 	ble	10040 <_vfprintf_r+0x13e0>
    fec4:	e3530010 	cmp	r3, #16
    fec8:	da0002e0 	ble	10a50 <_vfprintf_r+0x1df0>
    fecc:	e51f5eb4 	ldr	r5, [pc, #-3764]	; f020 <_vfprintf_r+0x3c0>
    fed0:	e1a01007 	mov	r1, r7
    fed4:	e58d5028 	str	r5, [sp, #40]	; 0x28
    fed8:	e1a07004 	mov	r7, r4
    fedc:	e3a0a010 	mov	sl, #16
    fee0:	e59d3080 	ldr	r3, [sp, #128]	; 0x80
    fee4:	e59d4018 	ldr	r4, [sp, #24]
    fee8:	e59d5014 	ldr	r5, [sp, #20]
    feec:	ea000002 	b	fefc <_vfprintf_r+0x129c>
    fef0:	e2477010 	sub	r7, r7, #16
    fef4:	e3570010 	cmp	r7, #16
    fef8:	da00003c 	ble	fff0 <_vfprintf_r+0x1390>
    fefc:	e2833001 	add	r3, r3, #1
    ff00:	e3530007 	cmp	r3, #7
    ff04:	e2822010 	add	r2, r2, #16
    ff08:	e8810600 	stm	r1, {r9, sl}
    ff0c:	e58d3080 	str	r3, [sp, #128]	; 0x80
    ff10:	e58d2084 	str	r2, [sp, #132]	; 0x84
    ff14:	d2811008 	addle	r1, r1, #8
    ff18:	dafffff4 	ble	fef0 <_vfprintf_r+0x1290>
    ff1c:	e1a00004 	mov	r0, r4
    ff20:	e1a01005 	mov	r1, r5
    ff24:	e28d207c 	add	r2, sp, #124	; 0x7c
    ff28:	eb000fa5 	bl	13dc4 <__sprint_r>
    ff2c:	e3500000 	cmp	r0, #0
    ff30:	1affff50 	bne	fc78 <_vfprintf_r+0x1018>
    ff34:	e1a01006 	mov	r1, r6
    ff38:	e59d2084 	ldr	r2, [sp, #132]	; 0x84
    ff3c:	e59d3080 	ldr	r3, [sp, #128]	; 0x80
    ff40:	eaffffea 	b	fef0 <_vfprintf_r+0x1290>
    ff44:	e3530009 	cmp	r3, #9
    ff48:	8a0000d9 	bhi	102b4 <_vfprintf_r+0x1654>
    ff4c:	e28d20f0 	add	r2, sp, #240	; 0xf0
    ff50:	e2833030 	add	r3, r3, #48	; 0x30
    ff54:	e5623041 	strb	r3, [r2, #-65]!	; 0xffffffbf
    ff58:	e0624006 	rsb	r4, r2, r6
    ff5c:	e58d202c 	str	r2, [sp, #44]	; 0x2c
    ff60:	eafffc54 	b	f0b8 <_vfprintf_r+0x458>
    ff64:	e59d103c 	ldr	r1, [sp, #60]	; 0x3c
    ff68:	e2414001 	sub	r4, r1, #1
    ff6c:	e3540000 	cmp	r4, #0
    ff70:	daffff6b 	ble	fd24 <_vfprintf_r+0x10c4>
    ff74:	e3540010 	cmp	r4, #16
    ff78:	d51f5f60 	ldrle	r5, [pc, #-3936]	; f020 <_vfprintf_r+0x3c0>
    ff7c:	da0000b0 	ble	10244 <_vfprintf_r+0x15e4>
    ff80:	e51f5f68 	ldr	r5, [pc, #-3944]	; f020 <_vfprintf_r+0x3c0>
    ff84:	e3a0a010 	mov	sl, #16
    ff88:	e58d5028 	str	r5, [sp, #40]	; 0x28
    ff8c:	e59db018 	ldr	fp, [sp, #24]
    ff90:	e1a05004 	mov	r5, r4
    ff94:	e59d4014 	ldr	r4, [sp, #20]
    ff98:	ea000002 	b	ffa8 <_vfprintf_r+0x1348>
    ff9c:	e2455010 	sub	r5, r5, #16
    ffa0:	e3550010 	cmp	r5, #16
    ffa4:	da0000a4 	ble	1023c <_vfprintf_r+0x15dc>
    ffa8:	e2833001 	add	r3, r3, #1
    ffac:	e3530007 	cmp	r3, #7
    ffb0:	e2822010 	add	r2, r2, #16
    ffb4:	e8870600 	stm	r7, {r9, sl}
    ffb8:	e58d3080 	str	r3, [sp, #128]	; 0x80
    ffbc:	e58d2084 	str	r2, [sp, #132]	; 0x84
    ffc0:	d2877008 	addle	r7, r7, #8
    ffc4:	dafffff4 	ble	ff9c <_vfprintf_r+0x133c>
    ffc8:	e1a0000b 	mov	r0, fp
    ffcc:	e1a01004 	mov	r1, r4
    ffd0:	e28d207c 	add	r2, sp, #124	; 0x7c
    ffd4:	eb000f7a 	bl	13dc4 <__sprint_r>
    ffd8:	e3500000 	cmp	r0, #0
    ffdc:	1a000117 	bne	10440 <_vfprintf_r+0x17e0>
    ffe0:	e1a07006 	mov	r7, r6
    ffe4:	e59d2084 	ldr	r2, [sp, #132]	; 0x84
    ffe8:	e59d3080 	ldr	r3, [sp, #128]	; 0x80
    ffec:	eaffffea 	b	ff9c <_vfprintf_r+0x133c>
    fff0:	e1a04007 	mov	r4, r7
    fff4:	e1a07001 	mov	r7, r1
    fff8:	e59d5028 	ldr	r5, [sp, #40]	; 0x28
    fffc:	e2833001 	add	r3, r3, #1
   10000:	e3530007 	cmp	r3, #7
   10004:	e0822004 	add	r2, r2, r4
   10008:	e5875000 	str	r5, [r7]
   1000c:	e5874004 	str	r4, [r7, #4]
   10010:	e58d3080 	str	r3, [sp, #128]	; 0x80
   10014:	e58d2084 	str	r2, [sp, #132]	; 0x84
   10018:	d2877008 	addle	r7, r7, #8
   1001c:	da000007 	ble	10040 <_vfprintf_r+0x13e0>
   10020:	e59d0018 	ldr	r0, [sp, #24]
   10024:	e59d1014 	ldr	r1, [sp, #20]
   10028:	e28d207c 	add	r2, sp, #124	; 0x7c
   1002c:	eb000f64 	bl	13dc4 <__sprint_r>
   10030:	e3500000 	cmp	r0, #0
   10034:	1affff53 	bne	fd88 <_vfprintf_r+0x1128>
   10038:	e1a07006 	mov	r7, r6
   1003c:	e59d2084 	ldr	r2, [sp, #132]	; 0x84
   10040:	e59d302c 	ldr	r3, [sp, #44]	; 0x2c
   10044:	e59d1038 	ldr	r1, [sp, #56]	; 0x38
   10048:	e59d4064 	ldr	r4, [sp, #100]	; 0x64
   1004c:	e083a001 	add	sl, r3, r1
   10050:	e59d303c 	ldr	r3, [sp, #60]	; 0x3c
   10054:	e1540003 	cmp	r4, r3
   10058:	ba000037 	blt	1013c <_vfprintf_r+0x14dc>
   1005c:	e59d3008 	ldr	r3, [sp, #8]
   10060:	e3130001 	tst	r3, #1
   10064:	1a000034 	bne	1013c <_vfprintf_r+0x14dc>
   10068:	e59d303c 	ldr	r3, [sp, #60]	; 0x3c
   1006c:	e06ab00b 	rsb	fp, sl, fp
   10070:	e0644003 	rsb	r4, r4, r3
   10074:	e154000b 	cmp	r4, fp
   10078:	b1a05004 	movlt	r5, r4
   1007c:	a1a0500b 	movge	r5, fp
   10080:	e3550000 	cmp	r5, #0
   10084:	da000009 	ble	100b0 <_vfprintf_r+0x1450>
   10088:	e59d3080 	ldr	r3, [sp, #128]	; 0x80
   1008c:	e0822005 	add	r2, r2, r5
   10090:	e2833001 	add	r3, r3, #1
   10094:	e3530007 	cmp	r3, #7
   10098:	e587a000 	str	sl, [r7]
   1009c:	e5875004 	str	r5, [r7, #4]
   100a0:	e58d2084 	str	r2, [sp, #132]	; 0x84
   100a4:	e58d3080 	str	r3, [sp, #128]	; 0x80
   100a8:	d2877008 	addle	r7, r7, #8
   100ac:	ca0001af 	bgt	10770 <_vfprintf_r+0x1b10>
   100b0:	e3550000 	cmp	r5, #0
   100b4:	a0654004 	rsbge	r4, r5, r4
   100b8:	e3540000 	cmp	r4, #0
   100bc:	dafffe0e 	ble	f8fc <_vfprintf_r+0xc9c>
   100c0:	e3540010 	cmp	r4, #16
   100c4:	da000253 	ble	10a18 <_vfprintf_r+0x1db8>
   100c8:	e59f5a08 	ldr	r5, [pc, #2568]	; 10ad8 <_vfprintf_r+0x1e78>
   100cc:	e3a0a010 	mov	sl, #16
   100d0:	e58d5028 	str	r5, [sp, #40]	; 0x28
   100d4:	e59d3080 	ldr	r3, [sp, #128]	; 0x80
   100d8:	e1a05004 	mov	r5, r4
   100dc:	e59db018 	ldr	fp, [sp, #24]
   100e0:	e59d4014 	ldr	r4, [sp, #20]
   100e4:	ea000002 	b	100f4 <_vfprintf_r+0x1494>
   100e8:	e2455010 	sub	r5, r5, #16
   100ec:	e3550010 	cmp	r5, #16
   100f0:	daffff38 	ble	fdd8 <_vfprintf_r+0x1178>
   100f4:	e2833001 	add	r3, r3, #1
   100f8:	e3530007 	cmp	r3, #7
   100fc:	e2822010 	add	r2, r2, #16
   10100:	e8870600 	stm	r7, {r9, sl}
   10104:	e58d3080 	str	r3, [sp, #128]	; 0x80
   10108:	e58d2084 	str	r2, [sp, #132]	; 0x84
   1010c:	d2877008 	addle	r7, r7, #8
   10110:	dafffff4 	ble	100e8 <_vfprintf_r+0x1488>
   10114:	e1a0000b 	mov	r0, fp
   10118:	e1a01004 	mov	r1, r4
   1011c:	e28d207c 	add	r2, sp, #124	; 0x7c
   10120:	eb000f27 	bl	13dc4 <__sprint_r>
   10124:	e3500000 	cmp	r0, #0
   10128:	1a0000c4 	bne	10440 <_vfprintf_r+0x17e0>
   1012c:	e1a07006 	mov	r7, r6
   10130:	e59d2084 	ldr	r2, [sp, #132]	; 0x84
   10134:	e59d3080 	ldr	r3, [sp, #128]	; 0x80
   10138:	eaffffea 	b	100e8 <_vfprintf_r+0x1488>
   1013c:	e59d3080 	ldr	r3, [sp, #128]	; 0x80
   10140:	e59d1048 	ldr	r1, [sp, #72]	; 0x48
   10144:	e2833001 	add	r3, r3, #1
   10148:	e59d0044 	ldr	r0, [sp, #68]	; 0x44
   1014c:	e0822001 	add	r2, r2, r1
   10150:	e3530007 	cmp	r3, #7
   10154:	e8870003 	stm	r7, {r0, r1}
   10158:	e58d2084 	str	r2, [sp, #132]	; 0x84
   1015c:	e58d3080 	str	r3, [sp, #128]	; 0x80
   10160:	d2877008 	addle	r7, r7, #8
   10164:	daffffbf 	ble	10068 <_vfprintf_r+0x1408>
   10168:	e59d0018 	ldr	r0, [sp, #24]
   1016c:	e59d1014 	ldr	r1, [sp, #20]
   10170:	e28d207c 	add	r2, sp, #124	; 0x7c
   10174:	eb000f12 	bl	13dc4 <__sprint_r>
   10178:	e3500000 	cmp	r0, #0
   1017c:	1affff01 	bne	fd88 <_vfprintf_r+0x1128>
   10180:	e1a07006 	mov	r7, r6
   10184:	e59d4064 	ldr	r4, [sp, #100]	; 0x64
   10188:	e59d2084 	ldr	r2, [sp, #132]	; 0x84
   1018c:	eaffffb5 	b	10068 <_vfprintf_r+0x1408>
   10190:	e59d3008 	ldr	r3, [sp, #8]
   10194:	e3130001 	tst	r3, #1
   10198:	1afffebc 	bne	fc90 <_vfprintf_r+0x1030>
   1019c:	e59d3080 	ldr	r3, [sp, #128]	; 0x80
   101a0:	e59d002c 	ldr	r0, [sp, #44]	; 0x2c
   101a4:	e0833001 	add	r3, r3, r1
   101a8:	e0822001 	add	r2, r2, r1
   101ac:	e3530007 	cmp	r3, #7
   101b0:	e58d2084 	str	r2, [sp, #132]	; 0x84
   101b4:	e5870000 	str	r0, [r7]
   101b8:	e58d3080 	str	r3, [sp, #128]	; 0x80
   101bc:	e5871004 	str	r1, [r7, #4]
   101c0:	dafffed6 	ble	fd20 <_vfprintf_r+0x10c0>
   101c4:	e59d0018 	ldr	r0, [sp, #24]
   101c8:	e59d1014 	ldr	r1, [sp, #20]
   101cc:	e28d207c 	add	r2, sp, #124	; 0x7c
   101d0:	eb000efb 	bl	13dc4 <__sprint_r>
   101d4:	e3500000 	cmp	r0, #0
   101d8:	1afffeea 	bne	fd88 <_vfprintf_r+0x1128>
   101dc:	e1a07006 	mov	r7, r6
   101e0:	e59d2084 	ldr	r2, [sp, #132]	; 0x84
   101e4:	e59d3080 	ldr	r3, [sp, #128]	; 0x80
   101e8:	eafffecd 	b	fd24 <_vfprintf_r+0x10c4>
   101ec:	e59d0018 	ldr	r0, [sp, #24]
   101f0:	e59d1014 	ldr	r1, [sp, #20]
   101f4:	e28d207c 	add	r2, sp, #124	; 0x7c
   101f8:	eb000ef1 	bl	13dc4 <__sprint_r>
   101fc:	e3500000 	cmp	r0, #0
   10200:	1afffee0 	bne	fd88 <_vfprintf_r+0x1128>
   10204:	e1a07006 	mov	r7, r6
   10208:	e59d2084 	ldr	r2, [sp, #132]	; 0x84
   1020c:	e59d3080 	ldr	r3, [sp, #128]	; 0x80
   10210:	eafffea9 	b	fcbc <_vfprintf_r+0x105c>
   10214:	e59d0018 	ldr	r0, [sp, #24]
   10218:	e59d1014 	ldr	r1, [sp, #20]
   1021c:	e28d207c 	add	r2, sp, #124	; 0x7c
   10220:	eb000ee7 	bl	13dc4 <__sprint_r>
   10224:	e3500000 	cmp	r0, #0
   10228:	1afffed6 	bne	fd88 <_vfprintf_r+0x1128>
   1022c:	e1a07006 	mov	r7, r6
   10230:	e59d2084 	ldr	r2, [sp, #132]	; 0x84
   10234:	e59d3080 	ldr	r3, [sp, #128]	; 0x80
   10238:	eafffea9 	b	fce4 <_vfprintf_r+0x1084>
   1023c:	e1a04005 	mov	r4, r5
   10240:	e59d5028 	ldr	r5, [sp, #40]	; 0x28
   10244:	e2833001 	add	r3, r3, #1
   10248:	e0822004 	add	r2, r2, r4
   1024c:	e3530007 	cmp	r3, #7
   10250:	e58d3080 	str	r3, [sp, #128]	; 0x80
   10254:	e58d2084 	str	r2, [sp, #132]	; 0x84
   10258:	e5875000 	str	r5, [r7]
   1025c:	e5874004 	str	r4, [r7, #4]
   10260:	dafffeae 	ble	fd20 <_vfprintf_r+0x10c0>
   10264:	e59d0018 	ldr	r0, [sp, #24]
   10268:	e59d1014 	ldr	r1, [sp, #20]
   1026c:	e28d207c 	add	r2, sp, #124	; 0x7c
   10270:	eb000ed3 	bl	13dc4 <__sprint_r>
   10274:	e3500000 	cmp	r0, #0
   10278:	1afffec2 	bne	fd88 <_vfprintf_r+0x1128>
   1027c:	e59d2084 	ldr	r2, [sp, #132]	; 0x84
   10280:	e59d3080 	ldr	r3, [sp, #128]	; 0x80
   10284:	e1a07006 	mov	r7, r6
   10288:	eafffea5 	b	fd24 <_vfprintf_r+0x10c4>
   1028c:	e3520030 	cmp	r2, #48	; 0x30
   10290:	13a03030 	movne	r3, #48	; 0x30
   10294:	159d202c 	ldrne	r2, [sp, #44]	; 0x2c
   10298:	059d302c 	ldreq	r3, [sp, #44]	; 0x2c
   1029c:	12422001 	subne	r2, r2, #1
   102a0:	00634006 	rsbeq	r4, r3, r6
   102a4:	158d202c 	strne	r2, [sp, #44]	; 0x2c
   102a8:	10624006 	rsbne	r4, r2, r6
   102ac:	15403001 	strbne	r3, [r0, #-1]
   102b0:	eafffb80 	b	f0b8 <_vfprintf_r+0x458>
   102b4:	e1a0c006 	mov	ip, r6
   102b8:	e59f281c 	ldr	r2, [pc, #2076]	; 10adc <_vfprintf_r+0x1e7c>
   102bc:	e0820392 	umull	r0, r2, r2, r3
   102c0:	e1a021a2 	lsr	r2, r2, #3
   102c4:	e0820102 	add	r0, r2, r2, lsl #2
   102c8:	e0433080 	sub	r3, r3, r0, lsl #1
   102cc:	e2830030 	add	r0, r3, #48	; 0x30
   102d0:	e2523000 	subs	r3, r2, #0
   102d4:	e56c0001 	strb	r0, [ip, #-1]!
   102d8:	1afffff6 	bne	102b8 <_vfprintf_r+0x1658>
   102dc:	e1a0300c 	mov	r3, ip
   102e0:	e58dc02c 	str	ip, [sp, #44]	; 0x2c
   102e4:	e06c4006 	rsb	r4, ip, r6
   102e8:	eafffb72 	b	f0b8 <_vfprintf_r+0x458>
   102ec:	eeb00b48 	vmov.f64	d0, d8
   102f0:	eb000d81 	bl	138fc <__fpclassifyd>
   102f4:	e3500000 	cmp	r0, #0
   102f8:	0a0000a4 	beq	10590 <_vfprintf_r+0x1930>
   102fc:	e59d3034 	ldr	r3, [sp, #52]	; 0x34
   10300:	e3750001 	cmn	r5, #1
   10304:	e3c3a020 	bic	sl, r3, #32
   10308:	03a05006 	moveq	r5, #6
   1030c:	0a0000be 	beq	1060c <_vfprintf_r+0x19ac>
   10310:	e35a0047 	cmp	sl, #71	; 0x47
   10314:	03550000 	cmpeq	r5, #0
   10318:	1a0000bb 	bne	1060c <_vfprintf_r+0x19ac>
   1031c:	ee183a90 	vmov	r3, s17
   10320:	e3530000 	cmp	r3, #0
   10324:	e59d3008 	ldr	r3, [sp, #8]
   10328:	e3a0a047 	mov	sl, #71	; 0x47
   1032c:	e3833c01 	orr	r3, r3, #256	; 0x100
   10330:	e3a05001 	mov	r5, #1
   10334:	e58d3028 	str	r3, [sp, #40]	; 0x28
   10338:	ba0001a9 	blt	109e4 <_vfprintf_r+0x1d84>
   1033c:	eeb09b48 	vmov.f64	d9, d8
   10340:	e3a0b000 	mov	fp, #0
   10344:	e28d2068 	add	r2, sp, #104	; 0x68
   10348:	e28d3074 	add	r3, sp, #116	; 0x74
   1034c:	e88d000c 	stm	sp, {r2, r3}
   10350:	e59d0018 	ldr	r0, [sp, #24]
   10354:	eeb00b49 	vmov.f64	d0, d9
   10358:	e3a01002 	mov	r1, #2
   1035c:	e1a02005 	mov	r2, r5
   10360:	e28d3064 	add	r3, sp, #100	; 0x64
   10364:	eb00036d 	bl	11120 <_dtoa_r>
   10368:	e35a0047 	cmp	sl, #71	; 0x47
   1036c:	e58d002c 	str	r0, [sp, #44]	; 0x2c
   10370:	1a0001d6 	bne	10ad0 <_vfprintf_r+0x1e70>
   10374:	e59d3008 	ldr	r3, [sp, #8]
   10378:	e3130001 	tst	r3, #1
   1037c:	0a0001a3 	beq	10a10 <_vfprintf_r+0x1db0>
   10380:	e59d302c 	ldr	r3, [sp, #44]	; 0x2c
   10384:	e0834005 	add	r4, r3, r5
   10388:	eeb59b40 	vcmp.f64	d9, #0.0
   1038c:	eef1fa10 	vmrs	APSR_nzcv, fpscr
   10390:	01a03004 	moveq	r3, r4
   10394:	0a000009 	beq	103c0 <_vfprintf_r+0x1760>
   10398:	e59d3074 	ldr	r3, [sp, #116]	; 0x74
   1039c:	e1540003 	cmp	r4, r3
   103a0:	9a000006 	bls	103c0 <_vfprintf_r+0x1760>
   103a4:	e3a01030 	mov	r1, #48	; 0x30
   103a8:	e2832001 	add	r2, r3, #1
   103ac:	e58d2074 	str	r2, [sp, #116]	; 0x74
   103b0:	e5c31000 	strb	r1, [r3]
   103b4:	e59d3074 	ldr	r3, [sp, #116]	; 0x74
   103b8:	e1540003 	cmp	r4, r3
   103bc:	8afffff9 	bhi	103a8 <_vfprintf_r+0x1748>
   103c0:	e59d202c 	ldr	r2, [sp, #44]	; 0x2c
   103c4:	e35a0047 	cmp	sl, #71	; 0x47
   103c8:	e0623003 	rsb	r3, r2, r3
   103cc:	e58d303c 	str	r3, [sp, #60]	; 0x3c
   103d0:	1a000123 	bne	10864 <_vfprintf_r+0x1c04>
   103d4:	e59d3064 	ldr	r3, [sp, #100]	; 0x64
   103d8:	e3730003 	cmn	r3, #3
   103dc:	a1550003 	cmpge	r5, r3
   103e0:	ba000134 	blt	108b8 <_vfprintf_r+0x1c58>
   103e4:	e58d3038 	str	r3, [sp, #56]	; 0x38
   103e8:	e3a03067 	mov	r3, #103	; 0x67
   103ec:	e58d3034 	str	r3, [sp, #52]	; 0x34
   103f0:	e59d303c 	ldr	r3, [sp, #60]	; 0x3c
   103f4:	e59d2038 	ldr	r2, [sp, #56]	; 0x38
   103f8:	e1530002 	cmp	r3, r2
   103fc:	ca00017b 	bgt	109f0 <_vfprintf_r+0x1d90>
   10400:	e59d3008 	ldr	r3, [sp, #8]
   10404:	e3130001 	tst	r3, #1
   10408:	01a04002 	moveq	r4, r2
   1040c:	01a03004 	moveq	r3, r4
   10410:	159d3038 	ldrne	r3, [sp, #56]	; 0x38
   10414:	01c33fc3 	biceq	r3, r3, r3, asr #31
   10418:	12834001 	addne	r4, r3, #1
   1041c:	11c43fc4 	bicne	r3, r4, r4, asr #31
   10420:	e35b0000 	cmp	fp, #0
   10424:	1a000106 	bne	10844 <_vfprintf_r+0x1be4>
   10428:	e58d300c 	str	r3, [sp, #12]
   1042c:	e59d3028 	ldr	r3, [sp, #40]	; 0x28
   10430:	e58db030 	str	fp, [sp, #48]	; 0x30
   10434:	e58d3008 	str	r3, [sp, #8]
   10438:	e5dd105f 	ldrb	r1, [sp, #95]	; 0x5f
   1043c:	eafffb23 	b	f0d0 <_vfprintf_r+0x470>
   10440:	e1a0b004 	mov	fp, r4
   10444:	eafffd72 	b	fa14 <_vfprintf_r+0xdb4>
   10448:	e59d3080 	ldr	r3, [sp, #128]	; 0x80
   1044c:	e59f5684 	ldr	r5, [pc, #1668]	; 10ad8 <_vfprintf_r+0x1e78>
   10450:	eafffd0c 	b	f888 <_vfprintf_r+0xc28>
   10454:	e59d0018 	ldr	r0, [sp, #24]
   10458:	e59d1014 	ldr	r1, [sp, #20]
   1045c:	e28d207c 	add	r2, sp, #124	; 0x7c
   10460:	eb000e57 	bl	13dc4 <__sprint_r>
   10464:	e3500000 	cmp	r0, #0
   10468:	1afffe46 	bne	fd88 <_vfprintf_r+0x1128>
   1046c:	e1a07006 	mov	r7, r6
   10470:	e59d2084 	ldr	r2, [sp, #132]	; 0x84
   10474:	eafffd7f 	b	fa78 <_vfprintf_r+0xe18>
   10478:	e3a01001 	mov	r1, #1
   1047c:	e59d3080 	ldr	r3, [sp, #128]	; 0x80
   10480:	e59f0658 	ldr	r0, [pc, #1624]	; 10ae0 <_vfprintf_r+0x1e80>
   10484:	e0833001 	add	r3, r3, r1
   10488:	e0822001 	add	r2, r2, r1
   1048c:	e3530007 	cmp	r3, #7
   10490:	e5870000 	str	r0, [r7]
   10494:	e5871004 	str	r1, [r7, #4]
   10498:	e58d2084 	str	r2, [sp, #132]	; 0x84
   1049c:	e58d3080 	str	r3, [sp, #128]	; 0x80
   104a0:	d2877008 	addle	r7, r7, #8
   104a4:	ca00004e 	bgt	105e4 <_vfprintf_r+0x1984>
   104a8:	e59d303c 	ldr	r3, [sp, #60]	; 0x3c
   104ac:	e1943003 	orrs	r3, r4, r3
   104b0:	0a000047 	beq	105d4 <_vfprintf_r+0x1974>
   104b4:	e59d3080 	ldr	r3, [sp, #128]	; 0x80
   104b8:	e59d1048 	ldr	r1, [sp, #72]	; 0x48
   104bc:	e2833001 	add	r3, r3, #1
   104c0:	e59d0044 	ldr	r0, [sp, #68]	; 0x44
   104c4:	e0822001 	add	r2, r2, r1
   104c8:	e3530007 	cmp	r3, #7
   104cc:	e8870003 	stm	r7, {r0, r1}
   104d0:	e58d2084 	str	r2, [sp, #132]	; 0x84
   104d4:	e58d3080 	str	r3, [sp, #128]	; 0x80
   104d8:	d2877008 	addle	r7, r7, #8
   104dc:	ca000135 	bgt	109b8 <_vfprintf_r+0x1d58>
   104e0:	e2644000 	rsb	r4, r4, #0
   104e4:	e3540000 	cmp	r4, #0
   104e8:	da00007e 	ble	106e8 <_vfprintf_r+0x1a88>
   104ec:	e3540010 	cmp	r4, #16
   104f0:	d59f55e0 	ldrle	r5, [pc, #1504]	; 10ad8 <_vfprintf_r+0x1e78>
   104f4:	da000069 	ble	106a0 <_vfprintf_r+0x1a40>
   104f8:	e59f55d8 	ldr	r5, [pc, #1496]	; 10ad8 <_vfprintf_r+0x1e78>
   104fc:	e3a0a010 	mov	sl, #16
   10500:	e58d5028 	str	r5, [sp, #40]	; 0x28
   10504:	e59db018 	ldr	fp, [sp, #24]
   10508:	e1a05004 	mov	r5, r4
   1050c:	e59d4014 	ldr	r4, [sp, #20]
   10510:	ea000002 	b	10520 <_vfprintf_r+0x18c0>
   10514:	e2455010 	sub	r5, r5, #16
   10518:	e3550010 	cmp	r5, #16
   1051c:	da00005d 	ble	10698 <_vfprintf_r+0x1a38>
   10520:	e2833001 	add	r3, r3, #1
   10524:	e3530007 	cmp	r3, #7
   10528:	e2822010 	add	r2, r2, #16
   1052c:	e8870600 	stm	r7, {r9, sl}
   10530:	e58d3080 	str	r3, [sp, #128]	; 0x80
   10534:	e58d2084 	str	r2, [sp, #132]	; 0x84
   10538:	d2877008 	addle	r7, r7, #8
   1053c:	dafffff4 	ble	10514 <_vfprintf_r+0x18b4>
   10540:	e1a0000b 	mov	r0, fp
   10544:	e1a01004 	mov	r1, r4
   10548:	e28d207c 	add	r2, sp, #124	; 0x7c
   1054c:	eb000e1c 	bl	13dc4 <__sprint_r>
   10550:	e3500000 	cmp	r0, #0
   10554:	1affffb9 	bne	10440 <_vfprintf_r+0x17e0>
   10558:	e1a07006 	mov	r7, r6
   1055c:	e59d2084 	ldr	r2, [sp, #132]	; 0x84
   10560:	e59d3080 	ldr	r3, [sp, #128]	; 0x80
   10564:	eaffffea 	b	10514 <_vfprintf_r+0x18b4>
   10568:	e59d3084 	ldr	r3, [sp, #132]	; 0x84
   1056c:	e59da018 	ldr	sl, [sp, #24]
   10570:	e3530000 	cmp	r3, #0
   10574:	e59db014 	ldr	fp, [sp, #20]
   10578:	0afffd25 	beq	fa14 <_vfprintf_r+0xdb4>
   1057c:	e1a0000a 	mov	r0, sl
   10580:	e1a0100b 	mov	r1, fp
   10584:	e28d207c 	add	r2, sp, #124	; 0x7c
   10588:	eb000e0d 	bl	13dc4 <__sprint_r>
   1058c:	eafffd20 	b	fa14 <_vfprintf_r+0xdb4>
   10590:	e1a01000 	mov	r1, r0
   10594:	e3a03003 	mov	r3, #3
   10598:	e58d1038 	str	r1, [sp, #56]	; 0x38
   1059c:	e59d1034 	ldr	r1, [sp, #52]	; 0x34
   105a0:	e1a04003 	mov	r4, r3
   105a4:	e58d300c 	str	r3, [sp, #12]
   105a8:	e59f3534 	ldr	r3, [pc, #1332]	; 10ae4 <_vfprintf_r+0x1e84>
   105ac:	e3510047 	cmp	r1, #71	; 0x47
   105b0:	e59f2530 	ldr	r2, [pc, #1328]	; 10ae8 <_vfprintf_r+0x1e88>
   105b4:	d1a02003 	movle	r2, r3
   105b8:	e58d0030 	str	r0, [sp, #48]	; 0x30
   105bc:	e59d0008 	ldr	r0, [sp, #8]
   105c0:	e58d202c 	str	r2, [sp, #44]	; 0x2c
   105c4:	e3c00080 	bic	r0, r0, #128	; 0x80
   105c8:	e58d0008 	str	r0, [sp, #8]
   105cc:	e5dd105f 	ldrb	r1, [sp, #95]	; 0x5f
   105d0:	eafffabe 	b	f0d0 <_vfprintf_r+0x470>
   105d4:	e59d3008 	ldr	r3, [sp, #8]
   105d8:	e3130001 	tst	r3, #1
   105dc:	0afffcc6 	beq	f8fc <_vfprintf_r+0xc9c>
   105e0:	eaffffb3 	b	104b4 <_vfprintf_r+0x1854>
   105e4:	e59d0018 	ldr	r0, [sp, #24]
   105e8:	e59d1014 	ldr	r1, [sp, #20]
   105ec:	e28d207c 	add	r2, sp, #124	; 0x7c
   105f0:	eb000df3 	bl	13dc4 <__sprint_r>
   105f4:	e3500000 	cmp	r0, #0
   105f8:	1afffde2 	bne	fd88 <_vfprintf_r+0x1128>
   105fc:	e1a07006 	mov	r7, r6
   10600:	e59d4064 	ldr	r4, [sp, #100]	; 0x64
   10604:	e59d2084 	ldr	r2, [sp, #132]	; 0x84
   10608:	eaffffa6 	b	104a8 <_vfprintf_r+0x1848>
   1060c:	ee183a90 	vmov	r3, s17
   10610:	e3530000 	cmp	r3, #0
   10614:	e59d3008 	ldr	r3, [sp, #8]
   10618:	aeb09b48 	vmovge.f64	d9, d8
   1061c:	e3833c01 	orr	r3, r3, #256	; 0x100
   10620:	e58d3028 	str	r3, [sp, #40]	; 0x28
   10624:	a3a0b000 	movge	fp, #0
   10628:	ba0000ed 	blt	109e4 <_vfprintf_r+0x1d84>
   1062c:	e35a0046 	cmp	sl, #70	; 0x46
   10630:	0a00006a 	beq	107e0 <_vfprintf_r+0x1b80>
   10634:	e35a0045 	cmp	sl, #69	; 0x45
   10638:	1affff41 	bne	10344 <_vfprintf_r+0x16e4>
   1063c:	e28d1068 	add	r1, sp, #104	; 0x68
   10640:	e28d3074 	add	r3, sp, #116	; 0x74
   10644:	e2854001 	add	r4, r5, #1
   10648:	e88d000a 	stm	sp, {r1, r3}
   1064c:	e1a02004 	mov	r2, r4
   10650:	e59d0018 	ldr	r0, [sp, #24]
   10654:	eeb00b49 	vmov.f64	d0, d9
   10658:	e3a01002 	mov	r1, #2
   1065c:	e28d3064 	add	r3, sp, #100	; 0x64
   10660:	eb0002ae 	bl	11120 <_dtoa_r>
   10664:	e58d002c 	str	r0, [sp, #44]	; 0x2c
   10668:	e59d302c 	ldr	r3, [sp, #44]	; 0x2c
   1066c:	e0834004 	add	r4, r3, r4
   10670:	eaffff44 	b	10388 <_vfprintf_r+0x1728>
   10674:	e59d0018 	ldr	r0, [sp, #24]
   10678:	e59d1014 	ldr	r1, [sp, #20]
   1067c:	e28d207c 	add	r2, sp, #124	; 0x7c
   10680:	eb000dcf 	bl	13dc4 <__sprint_r>
   10684:	e3500000 	cmp	r0, #0
   10688:	1afffdbe 	bne	fd88 <_vfprintf_r+0x1128>
   1068c:	e1a07006 	mov	r7, r6
   10690:	e59d2084 	ldr	r2, [sp, #132]	; 0x84
   10694:	eafffd09 	b	fac0 <_vfprintf_r+0xe60>
   10698:	e1a04005 	mov	r4, r5
   1069c:	e59d5028 	ldr	r5, [sp, #40]	; 0x28
   106a0:	e2833001 	add	r3, r3, #1
   106a4:	e3530007 	cmp	r3, #7
   106a8:	e0822004 	add	r2, r2, r4
   106ac:	e5875000 	str	r5, [r7]
   106b0:	e5874004 	str	r4, [r7, #4]
   106b4:	e58d3080 	str	r3, [sp, #128]	; 0x80
   106b8:	e58d2084 	str	r2, [sp, #132]	; 0x84
   106bc:	d2877008 	addle	r7, r7, #8
   106c0:	da000008 	ble	106e8 <_vfprintf_r+0x1a88>
   106c4:	e59d0018 	ldr	r0, [sp, #24]
   106c8:	e59d1014 	ldr	r1, [sp, #20]
   106cc:	e28d207c 	add	r2, sp, #124	; 0x7c
   106d0:	eb000dbb 	bl	13dc4 <__sprint_r>
   106d4:	e3500000 	cmp	r0, #0
   106d8:	1afffdaa 	bne	fd88 <_vfprintf_r+0x1128>
   106dc:	e1a07006 	mov	r7, r6
   106e0:	e59d2084 	ldr	r2, [sp, #132]	; 0x84
   106e4:	e59d3080 	ldr	r3, [sp, #128]	; 0x80
   106e8:	e2833001 	add	r3, r3, #1
   106ec:	e59d103c 	ldr	r1, [sp, #60]	; 0x3c
   106f0:	e3530007 	cmp	r3, #7
   106f4:	e58d3080 	str	r3, [sp, #128]	; 0x80
   106f8:	e59d302c 	ldr	r3, [sp, #44]	; 0x2c
   106fc:	e0822001 	add	r2, r2, r1
   10700:	e58d2084 	str	r2, [sp, #132]	; 0x84
   10704:	e5873000 	str	r3, [r7]
   10708:	e5871004 	str	r1, [r7, #4]
   1070c:	dafffc79 	ble	f8f8 <_vfprintf_r+0xc98>
   10710:	eafffdba 	b	fe00 <_vfprintf_r+0x11a0>
   10714:	e58da030 	str	sl, [sp, #48]	; 0x30
   10718:	ebfff8a9 	bl	e9c4 <strlen>
   1071c:	e1c03fc0 	bic	r3, r0, r0, asr #31
   10720:	e1a04000 	mov	r4, r0
   10724:	e58db024 	str	fp, [sp, #36]	; 0x24
   10728:	e58d300c 	str	r3, [sp, #12]
   1072c:	e58da038 	str	sl, [sp, #56]	; 0x38
   10730:	e5dd105f 	ldrb	r1, [sp, #95]	; 0x5f
   10734:	eafffa65 	b	f0d0 <_vfprintf_r+0x470>
   10738:	e59f33ac 	ldr	r3, [pc, #940]	; 10aec <_vfprintf_r+0x1e8c>
   1073c:	e59d2084 	ldr	r2, [sp, #132]	; 0x84
   10740:	e59d1080 	ldr	r1, [sp, #128]	; 0x80
   10744:	e58d3040 	str	r3, [sp, #64]	; 0x40
   10748:	eafffa9f 	b	f1cc <_vfprintf_r+0x56c>
   1074c:	e59d0018 	ldr	r0, [sp, #24]
   10750:	e59d1014 	ldr	r1, [sp, #20]
   10754:	e28d207c 	add	r2, sp, #124	; 0x7c
   10758:	eb000d99 	bl	13dc4 <__sprint_r>
   1075c:	e3500000 	cmp	r0, #0
   10760:	1afffd88 	bne	fd88 <_vfprintf_r+0x1128>
   10764:	e1a07006 	mov	r7, r6
   10768:	e59d2084 	ldr	r2, [sp, #132]	; 0x84
   1076c:	eafffdce 	b	feac <_vfprintf_r+0x124c>
   10770:	e59d0018 	ldr	r0, [sp, #24]
   10774:	e59d1014 	ldr	r1, [sp, #20]
   10778:	e28d207c 	add	r2, sp, #124	; 0x7c
   1077c:	eb000d90 	bl	13dc4 <__sprint_r>
   10780:	e3500000 	cmp	r0, #0
   10784:	1afffd7f 	bne	fd88 <_vfprintf_r+0x1128>
   10788:	e59d4064 	ldr	r4, [sp, #100]	; 0x64
   1078c:	e59d303c 	ldr	r3, [sp, #60]	; 0x3c
   10790:	e59d2084 	ldr	r2, [sp, #132]	; 0x84
   10794:	e0644003 	rsb	r4, r4, r3
   10798:	e1a07006 	mov	r7, r6
   1079c:	eafffe43 	b	100b0 <_vfprintf_r+0x1450>
   107a0:	e3550006 	cmp	r5, #6
   107a4:	31a04005 	movcc	r4, r5
   107a8:	23a04006 	movcs	r4, #6
   107ac:	e1c43fc4 	bic	r3, r4, r4, asr #31
   107b0:	e58d300c 	str	r3, [sp, #12]
   107b4:	e59f3334 	ldr	r3, [pc, #820]	; 10af0 <_vfprintf_r+0x1e90>
   107b8:	e58db024 	str	fp, [sp, #36]	; 0x24
   107bc:	e1a01002 	mov	r1, r2
   107c0:	e58d2030 	str	r2, [sp, #48]	; 0x30
   107c4:	e58d2038 	str	r2, [sp, #56]	; 0x38
   107c8:	e58d302c 	str	r3, [sp, #44]	; 0x2c
   107cc:	eafffa3f 	b	f0d0 <_vfprintf_r+0x470>
   107d0:	e59f1314 	ldr	r1, [pc, #788]	; 10aec <_vfprintf_r+0x1e8c>
   107d4:	e59d3080 	ldr	r3, [sp, #128]	; 0x80
   107d8:	e58d1040 	str	r1, [sp, #64]	; 0x40
   107dc:	eafffc6f 	b	f9a0 <_vfprintf_r+0xd40>
   107e0:	e28d2068 	add	r2, sp, #104	; 0x68
   107e4:	e28d3074 	add	r3, sp, #116	; 0x74
   107e8:	e88d000c 	stm	sp, {r2, r3}
   107ec:	e3a01003 	mov	r1, #3
   107f0:	e1a02005 	mov	r2, r5
   107f4:	e28d3064 	add	r3, sp, #100	; 0x64
   107f8:	e59d0018 	ldr	r0, [sp, #24]
   107fc:	eeb00b49 	vmov.f64	d0, d9
   10800:	eb000246 	bl	11120 <_dtoa_r>
   10804:	eeb59b40 	vcmp.f64	d9, #0.0
   10808:	eef1fa10 	vmrs	APSR_nzcv, fpscr
   1080c:	13a02001 	movne	r2, #1
   10810:	03a02000 	moveq	r2, #0
   10814:	e5d01000 	ldrb	r1, [r0]
   10818:	e58d002c 	str	r0, [sp, #44]	; 0x2c
   1081c:	e3510030 	cmp	r1, #48	; 0x30
   10820:	13a02000 	movne	r2, #0
   10824:	02022001 	andeq	r2, r2, #1
   10828:	e3520000 	cmp	r2, #0
   1082c:	12654001 	rsbne	r4, r5, #1
   10830:	e0803005 	add	r3, r0, r5
   10834:	158d4064 	strne	r4, [sp, #100]	; 0x64
   10838:	059d4064 	ldreq	r4, [sp, #100]	; 0x64
   1083c:	e0834004 	add	r4, r3, r4
   10840:	eafffed0 	b	10388 <_vfprintf_r+0x1728>
   10844:	e58d300c 	str	r3, [sp, #12]
   10848:	e59d3028 	ldr	r3, [sp, #40]	; 0x28
   1084c:	e3a0102d 	mov	r1, #45	; 0x2d
   10850:	e58d3008 	str	r3, [sp, #8]
   10854:	e3a03000 	mov	r3, #0
   10858:	e5cd105f 	strb	r1, [sp, #95]	; 0x5f
   1085c:	e58d3030 	str	r3, [sp, #48]	; 0x30
   10860:	eafffa1c 	b	f0d8 <_vfprintf_r+0x478>
   10864:	e59d3034 	ldr	r3, [sp, #52]	; 0x34
   10868:	e3530065 	cmp	r3, #101	; 0x65
   1086c:	da000093 	ble	10ac0 <_vfprintf_r+0x1e60>
   10870:	e59d3034 	ldr	r3, [sp, #52]	; 0x34
   10874:	e3530066 	cmp	r3, #102	; 0x66
   10878:	e59d3064 	ldr	r3, [sp, #100]	; 0x64
   1087c:	e58d3038 	str	r3, [sp, #56]	; 0x38
   10880:	1afffeda 	bne	103f0 <_vfprintf_r+0x1790>
   10884:	e3530000 	cmp	r3, #0
   10888:	da000082 	ble	10a98 <_vfprintf_r+0x1e38>
   1088c:	e3550000 	cmp	r5, #0
   10890:	1a000063 	bne	10a24 <_vfprintf_r+0x1dc4>
   10894:	e59d3008 	ldr	r3, [sp, #8]
   10898:	e3130001 	tst	r3, #1
   1089c:	1a000060 	bne	10a24 <_vfprintf_r+0x1dc4>
   108a0:	e59d4038 	ldr	r4, [sp, #56]	; 0x38
   108a4:	e1c43fc4 	bic	r3, r4, r4, asr #31
   108a8:	eafffedc 	b	10420 <_vfprintf_r+0x17c0>
   108ac:	e59d3080 	ldr	r3, [sp, #128]	; 0x80
   108b0:	e59f5220 	ldr	r5, [pc, #544]	; 10ad8 <_vfprintf_r+0x1e78>
   108b4:	eafffcde 	b	fc34 <_vfprintf_r+0xfd4>
   108b8:	e59d2034 	ldr	r2, [sp, #52]	; 0x34
   108bc:	e2422002 	sub	r2, r2, #2
   108c0:	e58d2034 	str	r2, [sp, #52]	; 0x34
   108c4:	e2433001 	sub	r3, r3, #1
   108c8:	e5dd2034 	ldrb	r2, [sp, #52]	; 0x34
   108cc:	e3530000 	cmp	r3, #0
   108d0:	e5cd206c 	strb	r2, [sp, #108]	; 0x6c
   108d4:	b3a0202d 	movlt	r2, #45	; 0x2d
   108d8:	a3a0202b 	movge	r2, #43	; 0x2b
   108dc:	e58d3064 	str	r3, [sp, #100]	; 0x64
   108e0:	b2633000 	rsblt	r3, r3, #0
   108e4:	e3530009 	cmp	r3, #9
   108e8:	e5cd206d 	strb	r2, [sp, #109]	; 0x6d
   108ec:	da000051 	ble	10a38 <_vfprintf_r+0x1dd8>
   108f0:	e28d007b 	add	r0, sp, #123	; 0x7b
   108f4:	e1a01000 	mov	r1, r0
   108f8:	e59f21f4 	ldr	r2, [pc, #500]	; 10af4 <_vfprintf_r+0x1e94>
   108fc:	e0cc2392 	smull	r2, ip, r2, r3
   10900:	e1a02fc3 	asr	r2, r3, #31
   10904:	e062c14c 	rsb	ip, r2, ip, asr #2
   10908:	e08c210c 	add	r2, ip, ip, lsl #2
   1090c:	e0432082 	sub	r2, r3, r2, lsl #1
   10910:	e2822030 	add	r2, r2, #48	; 0x30
   10914:	e35c0009 	cmp	ip, #9
   10918:	e1a0300c 	mov	r3, ip
   1091c:	e5612001 	strb	r2, [r1, #-1]!
   10920:	cafffff4 	bgt	108f8 <_vfprintf_r+0x1c98>
   10924:	e1a02001 	mov	r2, r1
   10928:	e28c3030 	add	r3, ip, #48	; 0x30
   1092c:	e6ef3073 	uxtb	r3, r3
   10930:	e5623001 	strb	r3, [r2, #-1]!
   10934:	e1500002 	cmp	r0, r2
   10938:	9a000062 	bls	10ac8 <_vfprintf_r+0x1e68>
   1093c:	e28dc06e 	add	ip, sp, #110	; 0x6e
   10940:	e1a02001 	mov	r2, r1
   10944:	ea000000 	b	1094c <_vfprintf_r+0x1cec>
   10948:	e4d23001 	ldrb	r3, [r2], #1
   1094c:	e1520000 	cmp	r2, r0
   10950:	e4cc3001 	strb	r3, [ip], #1
   10954:	1afffffb 	bne	10948 <_vfprintf_r+0x1ce8>
   10958:	e28d307c 	add	r3, sp, #124	; 0x7c
   1095c:	e0613003 	rsb	r3, r1, r3
   10960:	e28d206e 	add	r2, sp, #110	; 0x6e
   10964:	e0823003 	add	r3, r2, r3
   10968:	e59d103c 	ldr	r1, [sp, #60]	; 0x3c
   1096c:	e28d206c 	add	r2, sp, #108	; 0x6c
   10970:	e0623003 	rsb	r3, r2, r3
   10974:	e3510001 	cmp	r1, #1
   10978:	e58d3054 	str	r3, [sp, #84]	; 0x54
   1097c:	e0814003 	add	r4, r1, r3
   10980:	da000035 	ble	10a5c <_vfprintf_r+0x1dfc>
   10984:	e3a02000 	mov	r2, #0
   10988:	e2844001 	add	r4, r4, #1
   1098c:	e1c43fc4 	bic	r3, r4, r4, asr #31
   10990:	e58d2038 	str	r2, [sp, #56]	; 0x38
   10994:	eafffea1 	b	10420 <_vfprintf_r+0x17c0>
   10998:	e1c53fc5 	bic	r3, r5, r5, asr #31
   1099c:	e58d0030 	str	r0, [sp, #48]	; 0x30
   109a0:	e58db024 	str	fp, [sp, #36]	; 0x24
   109a4:	e58d0038 	str	r0, [sp, #56]	; 0x38
   109a8:	e5dd105f 	ldrb	r1, [sp, #95]	; 0x5f
   109ac:	e58d300c 	str	r3, [sp, #12]
   109b0:	e1a04005 	mov	r4, r5
   109b4:	eafff9c5 	b	f0d0 <_vfprintf_r+0x470>
   109b8:	e59d0018 	ldr	r0, [sp, #24]
   109bc:	e59d1014 	ldr	r1, [sp, #20]
   109c0:	e28d207c 	add	r2, sp, #124	; 0x7c
   109c4:	eb000cfe 	bl	13dc4 <__sprint_r>
   109c8:	e3500000 	cmp	r0, #0
   109cc:	1afffced 	bne	fd88 <_vfprintf_r+0x1128>
   109d0:	e1a07006 	mov	r7, r6
   109d4:	e59d4064 	ldr	r4, [sp, #100]	; 0x64
   109d8:	e59d2084 	ldr	r2, [sp, #132]	; 0x84
   109dc:	e59d3080 	ldr	r3, [sp, #128]	; 0x80
   109e0:	eafffebe 	b	104e0 <_vfprintf_r+0x1880>
   109e4:	eeb19b48 	vneg.f64	d9, d8
   109e8:	e3a0b02d 	mov	fp, #45	; 0x2d
   109ec:	eaffff0e 	b	1062c <_vfprintf_r+0x19cc>
   109f0:	e59d3038 	ldr	r3, [sp, #56]	; 0x38
   109f4:	e3530000 	cmp	r3, #0
   109f8:	c3a04001 	movgt	r4, #1
   109fc:	d2634002 	rsble	r4, r3, #2
   10a00:	e59d303c 	ldr	r3, [sp, #60]	; 0x3c
   10a04:	e0844003 	add	r4, r4, r3
   10a08:	e1c43fc4 	bic	r3, r4, r4, asr #31
   10a0c:	eafffe83 	b	10420 <_vfprintf_r+0x17c0>
   10a10:	e59d3074 	ldr	r3, [sp, #116]	; 0x74
   10a14:	eafffe69 	b	103c0 <_vfprintf_r+0x1760>
   10a18:	e59d3080 	ldr	r3, [sp, #128]	; 0x80
   10a1c:	e59f50b4 	ldr	r5, [pc, #180]	; 10ad8 <_vfprintf_r+0x1e78>
   10a20:	eafffcee 	b	fde0 <_vfprintf_r+0x1180>
   10a24:	e59d3038 	ldr	r3, [sp, #56]	; 0x38
   10a28:	e2854001 	add	r4, r5, #1
   10a2c:	e0834004 	add	r4, r3, r4
   10a30:	e1c43fc4 	bic	r3, r4, r4, asr #31
   10a34:	eafffe79 	b	10420 <_vfprintf_r+0x17c0>
   10a38:	e3a02030 	mov	r2, #48	; 0x30
   10a3c:	e0833002 	add	r3, r3, r2
   10a40:	e5cd306f 	strb	r3, [sp, #111]	; 0x6f
   10a44:	e5cd206e 	strb	r2, [sp, #110]	; 0x6e
   10a48:	e28d3070 	add	r3, sp, #112	; 0x70
   10a4c:	eaffffc5 	b	10968 <_vfprintf_r+0x1d08>
   10a50:	e59d3080 	ldr	r3, [sp, #128]	; 0x80
   10a54:	e59f507c 	ldr	r5, [pc, #124]	; 10ad8 <_vfprintf_r+0x1e78>
   10a58:	eafffd67 	b	fffc <_vfprintf_r+0x139c>
   10a5c:	e59d3008 	ldr	r3, [sp, #8]
   10a60:	e2133001 	ands	r3, r3, #1
   10a64:	1affffc6 	bne	10984 <_vfprintf_r+0x1d24>
   10a68:	e58d3038 	str	r3, [sp, #56]	; 0x38
   10a6c:	e1c43fc4 	bic	r3, r4, r4, asr #31
   10a70:	eafffe6a 	b	10420 <_vfprintf_r+0x17c0>
   10a74:	e59d3024 	ldr	r3, [sp, #36]	; 0x24
   10a78:	e1a04000 	mov	r4, r0
   10a7c:	e5935000 	ldr	r5, [r3]
   10a80:	e2833004 	add	r3, r3, #4
   10a84:	e3550000 	cmp	r5, #0
   10a88:	b58d3024 	strlt	r3, [sp, #36]	; 0x24
   10a8c:	b3e05000 	mvnlt	r5, #0
   10a90:	aafff9f3 	bge	f264 <_vfprintf_r+0x604>
   10a94:	eafff8c8 	b	edbc <_vfprintf_r+0x15c>
   10a98:	e3550000 	cmp	r5, #0
   10a9c:	1a000004 	bne	10ab4 <_vfprintf_r+0x1e54>
   10aa0:	e59d3008 	ldr	r3, [sp, #8]
   10aa4:	e3130001 	tst	r3, #1
   10aa8:	03a03001 	moveq	r3, #1
   10aac:	01a04003 	moveq	r4, r3
   10ab0:	0afffe5a 	beq	10420 <_vfprintf_r+0x17c0>
   10ab4:	e2854002 	add	r4, r5, #2
   10ab8:	e1c43fc4 	bic	r3, r4, r4, asr #31
   10abc:	eafffe57 	b	10420 <_vfprintf_r+0x17c0>
   10ac0:	e59d3064 	ldr	r3, [sp, #100]	; 0x64
   10ac4:	eaffff7e 	b	108c4 <_vfprintf_r+0x1c64>
   10ac8:	e28d306e 	add	r3, sp, #110	; 0x6e
   10acc:	eaffffa5 	b	10968 <_vfprintf_r+0x1d08>
   10ad0:	e1a04005 	mov	r4, r5
   10ad4:	eafffee3 	b	10668 <_vfprintf_r+0x1a08>
   10ad8:	00016d98 	muleq	r1, r8, sp
   10adc:	cccccccd 	stclgt	12, cr12, [ip], {205}	; 0xcd
   10ae0:	000171d0 	ldrdeq	r7, [r1], -r0
   10ae4:	00017198 	muleq	r1, r8, r1
   10ae8:	0001719c 	muleq	r1, ip, r1
   10aec:	00016d88 	andeq	r6, r1, r8, lsl #27
   10af0:	000171c8 	andeq	r7, r1, r8, asr #3
   10af4:	66666667 	strbtvs	r6, [r6], -r7, ror #12

00010af8 <vfprintf>:
   10af8:	e52de004 	push	{lr}		; (str lr, [sp, #-4]!)
   10afc:	e1a0e001 	mov	lr, r1
   10b00:	e59fc014 	ldr	ip, [pc, #20]	; 10b1c <vfprintf+0x24>
   10b04:	e1a03002 	mov	r3, r2
   10b08:	e1a01000 	mov	r1, r0
   10b0c:	e1a0200e 	mov	r2, lr
   10b10:	e59c0000 	ldr	r0, [ip]
   10b14:	e49de004 	pop	{lr}		; (ldr lr, [sp], #4)
   10b18:	eafff850 	b	ec60 <_vfprintf_r>
   10b1c:	00017948 	andeq	r7, r1, r8, asr #18

00010b20 <__sbprintf>:
   10b20:	e92d47f0 	push	{r4, r5, r6, r7, r8, r9, sl, lr}
   10b24:	e1a04001 	mov	r4, r1
   10b28:	e3a0eb01 	mov	lr, #1024	; 0x400
   10b2c:	e3a06000 	mov	r6, #0
   10b30:	e1d1c0bc 	ldrh	ip, [r1, #12]
   10b34:	e24dde46 	sub	sp, sp, #1120	; 0x460
   10b38:	e24dd008 	sub	sp, sp, #8
   10b3c:	e5947024 	ldr	r7, [r4, #36]	; 0x24
   10b40:	e1d4a0be 	ldrh	sl, [r4, #14]
   10b44:	e5949064 	ldr	r9, [r4, #100]	; 0x64
   10b48:	e594801c 	ldr	r8, [r4, #28]
   10b4c:	e3ccc002 	bic	ip, ip, #2
   10b50:	e1cdc0bc 	strh	ip, [sp, #12]
   10b54:	e1a0100d 	mov	r1, sp
   10b58:	e28dc068 	add	ip, sp, #104	; 0x68
   10b5c:	e58d7024 	str	r7, [sp, #36]	; 0x24
   10b60:	e58d6018 	str	r6, [sp, #24]
   10b64:	e1cda0be 	strh	sl, [sp, #14]
   10b68:	e58d9064 	str	r9, [sp, #100]	; 0x64
   10b6c:	e58d801c 	str	r8, [sp, #28]
   10b70:	e58de008 	str	lr, [sp, #8]
   10b74:	e58de014 	str	lr, [sp, #20]
   10b78:	e58dc000 	str	ip, [sp]
   10b7c:	e58dc010 	str	ip, [sp, #16]
   10b80:	e1a07000 	mov	r7, r0
   10b84:	ebfff835 	bl	ec60 <_vfprintf_r>
   10b88:	e2506000 	subs	r6, r0, #0
   10b8c:	ba000004 	blt	10ba4 <__sbprintf+0x84>
   10b90:	e1a00007 	mov	r0, r7
   10b94:	e1a0100d 	mov	r1, sp
   10b98:	ebffef7f 	bl	c99c <_fflush_r>
   10b9c:	e3500000 	cmp	r0, #0
   10ba0:	13e06000 	mvnne	r6, #0
   10ba4:	e1a00006 	mov	r0, r6
   10ba8:	e1dd30bc 	ldrh	r3, [sp, #12]
   10bac:	e3130040 	tst	r3, #64	; 0x40
   10bb0:	11d430bc 	ldrhne	r3, [r4, #12]
   10bb4:	13833040 	orrne	r3, r3, #64	; 0x40
   10bb8:	11c430bc 	strhne	r3, [r4, #12]
   10bbc:	e28dde46 	add	sp, sp, #1120	; 0x460
   10bc0:	e28dd008 	add	sp, sp, #8
   10bc4:	e8bd87f0 	pop	{r4, r5, r6, r7, r8, r9, sl, pc}

00010bc8 <vprintf>:
   10bc8:	e1a03001 	mov	r3, r1
   10bcc:	e59f100c 	ldr	r1, [pc, #12]	; 10be0 <vprintf+0x18>
   10bd0:	e1a02000 	mov	r2, r0
   10bd4:	e5910000 	ldr	r0, [r1]
   10bd8:	e5901008 	ldr	r1, [r0, #8]
   10bdc:	eafff81f 	b	ec60 <_vfprintf_r>
   10be0:	00017948 	andeq	r7, r1, r8, asr #18

00010be4 <_vprintf_r>:
   10be4:	e1a0c001 	mov	ip, r1
   10be8:	e1a03002 	mov	r3, r2
   10bec:	e5901008 	ldr	r1, [r0, #8]
   10bf0:	e1a0200c 	mov	r2, ip
   10bf4:	eafff819 	b	ec60 <_vfprintf_r>

00010bf8 <__swbuf_r>:
   10bf8:	e92d4070 	push	{r4, r5, r6, lr}
   10bfc:	e2506000 	subs	r6, r0, #0
   10c00:	e1a05001 	mov	r5, r1
   10c04:	e1a04002 	mov	r4, r2
   10c08:	0a000002 	beq	10c18 <__swbuf_r+0x20>
   10c0c:	e5963038 	ldr	r3, [r6, #56]	; 0x38
   10c10:	e3530000 	cmp	r3, #0
   10c14:	0a00003e 	beq	10d14 <__swbuf_r+0x11c>
   10c18:	e1d420bc 	ldrh	r2, [r4, #12]
   10c1c:	e5943018 	ldr	r3, [r4, #24]
   10c20:	e6ffc072 	uxth	ip, r2
   10c24:	e31c0008 	tst	ip, #8
   10c28:	e5843008 	str	r3, [r4, #8]
   10c2c:	0a000020 	beq	10cb4 <__swbuf_r+0xbc>
   10c30:	e5943010 	ldr	r3, [r4, #16]
   10c34:	e3530000 	cmp	r3, #0
   10c38:	0a00001d 	beq	10cb4 <__swbuf_r+0xbc>
   10c3c:	e31c0a02 	tst	ip, #8192	; 0x2000
   10c40:	05941064 	ldreq	r1, [r4, #100]	; 0x64
   10c44:	03822a02 	orreq	r2, r2, #8192	; 0x2000
   10c48:	03c11a02 	biceq	r1, r1, #8192	; 0x2000
   10c4c:	01c420bc 	strheq	r2, [r4, #12]
   10c50:	e5942000 	ldr	r2, [r4]
   10c54:	05841064 	streq	r1, [r4, #100]	; 0x64
   10c58:	e5941014 	ldr	r1, [r4, #20]
   10c5c:	e0633002 	rsb	r3, r3, r2
   10c60:	e1530001 	cmp	r3, r1
   10c64:	e6ef5075 	uxtb	r5, r5
   10c68:	b2833001 	addlt	r3, r3, #1
   10c6c:	aa000019 	bge	10cd8 <__swbuf_r+0xe0>
   10c70:	e5941008 	ldr	r1, [r4, #8]
   10c74:	e2820001 	add	r0, r2, #1
   10c78:	e2411001 	sub	r1, r1, #1
   10c7c:	e5841008 	str	r1, [r4, #8]
   10c80:	e5840000 	str	r0, [r4]
   10c84:	e5c25000 	strb	r5, [r2]
   10c88:	e5942014 	ldr	r2, [r4, #20]
   10c8c:	e1520003 	cmp	r2, r3
   10c90:	0a000018 	beq	10cf8 <__swbuf_r+0x100>
   10c94:	e1d430bc 	ldrh	r3, [r4, #12]
   10c98:	e355000a 	cmp	r5, #10
   10c9c:	13a03000 	movne	r3, #0
   10ca0:	02033001 	andeq	r3, r3, #1
   10ca4:	e3530000 	cmp	r3, #0
   10ca8:	1a000012 	bne	10cf8 <__swbuf_r+0x100>
   10cac:	e1a00005 	mov	r0, r5
   10cb0:	e8bd8070 	pop	{r4, r5, r6, pc}
   10cb4:	e1a00006 	mov	r0, r6
   10cb8:	e1a01004 	mov	r1, r4
   10cbc:	eb00002c 	bl	10d74 <__swsetup_r>
   10cc0:	e3500000 	cmp	r0, #0
   10cc4:	1a000010 	bne	10d0c <__swbuf_r+0x114>
   10cc8:	e1d420bc 	ldrh	r2, [r4, #12]
   10ccc:	e5943010 	ldr	r3, [r4, #16]
   10cd0:	e6ffc072 	uxth	ip, r2
   10cd4:	eaffffd8 	b	10c3c <__swbuf_r+0x44>
   10cd8:	e1a00006 	mov	r0, r6
   10cdc:	e1a01004 	mov	r1, r4
   10ce0:	ebffef2d 	bl	c99c <_fflush_r>
   10ce4:	e3500000 	cmp	r0, #0
   10ce8:	1a000007 	bne	10d0c <__swbuf_r+0x114>
   10cec:	e3a03001 	mov	r3, #1
   10cf0:	e5942000 	ldr	r2, [r4]
   10cf4:	eaffffdd 	b	10c70 <__swbuf_r+0x78>
   10cf8:	e1a00006 	mov	r0, r6
   10cfc:	e1a01004 	mov	r1, r4
   10d00:	ebffef25 	bl	c99c <_fflush_r>
   10d04:	e3500000 	cmp	r0, #0
   10d08:	0affffe7 	beq	10cac <__swbuf_r+0xb4>
   10d0c:	e3e00000 	mvn	r0, #0
   10d10:	e8bd8070 	pop	{r4, r5, r6, pc}
   10d14:	ebffeff0 	bl	ccdc <__sinit>
   10d18:	eaffffbe 	b	10c18 <__swbuf_r+0x20>

00010d1c <__swbuf>:
   10d1c:	e59f300c 	ldr	r3, [pc, #12]	; 10d30 <__swbuf+0x14>
   10d20:	e1a02001 	mov	r2, r1
   10d24:	e1a01000 	mov	r1, r0
   10d28:	e5930000 	ldr	r0, [r3]
   10d2c:	eaffffb1 	b	10bf8 <__swbuf_r>
   10d30:	00017948 	andeq	r7, r1, r8, asr #18

00010d34 <_write_r>:
   10d34:	e3a0c000 	mov	ip, #0
   10d38:	e92d4038 	push	{r3, r4, r5, lr}
   10d3c:	e59f402c 	ldr	r4, [pc, #44]	; 10d70 <_write_r+0x3c>
   10d40:	e1a05000 	mov	r5, r0
   10d44:	e1a00001 	mov	r0, r1
   10d48:	e1a01002 	mov	r1, r2
   10d4c:	e1a02003 	mov	r2, r3
   10d50:	e584c000 	str	ip, [r4]
   10d54:	ebffe8e6 	bl	b0f4 <_write>
   10d58:	e3700001 	cmn	r0, #1
   10d5c:	18bd8038 	popne	{r3, r4, r5, pc}
   10d60:	e5943000 	ldr	r3, [r4]
   10d64:	e3530000 	cmp	r3, #0
   10d68:	15853000 	strne	r3, [r5]
   10d6c:	e8bd8038 	pop	{r3, r4, r5, pc}
   10d70:	0001a590 	muleq	r1, r0, r5

00010d74 <__swsetup_r>:
   10d74:	e92d4038 	push	{r3, r4, r5, lr}
   10d78:	e59f3144 	ldr	r3, [pc, #324]	; 10ec4 <__swsetup_r+0x150>
   10d7c:	e1a05000 	mov	r5, r0
   10d80:	e5930000 	ldr	r0, [r3]
   10d84:	e1a04001 	mov	r4, r1
   10d88:	e3500000 	cmp	r0, #0
   10d8c:	0a000002 	beq	10d9c <__swsetup_r+0x28>
   10d90:	e5902038 	ldr	r2, [r0, #56]	; 0x38
   10d94:	e3520000 	cmp	r2, #0
   10d98:	0a000030 	beq	10e60 <__swsetup_r+0xec>
   10d9c:	e1d4c0bc 	ldrh	ip, [r4, #12]
   10da0:	e6ff307c 	uxth	r3, ip
   10da4:	e3130008 	tst	r3, #8
   10da8:	0a00000b 	beq	10ddc <__swsetup_r+0x68>
   10dac:	e5942010 	ldr	r2, [r4, #16]
   10db0:	e3520000 	cmp	r2, #0
   10db4:	0a000012 	beq	10e04 <__swsetup_r+0x90>
   10db8:	e2131001 	ands	r1, r3, #1
   10dbc:	1a000019 	bne	10e28 <__swsetup_r+0xb4>
   10dc0:	e3130002 	tst	r3, #2
   10dc4:	05941014 	ldreq	r1, [r4, #20]
   10dc8:	e3520000 	cmp	r2, #0
   10dcc:	e5841008 	str	r1, [r4, #8]
   10dd0:	0a00001b 	beq	10e44 <__swsetup_r+0xd0>
   10dd4:	e3a00000 	mov	r0, #0
   10dd8:	e8bd8038 	pop	{r3, r4, r5, pc}
   10ddc:	e3130010 	tst	r3, #16
   10de0:	0a000031 	beq	10eac <__swsetup_r+0x138>
   10de4:	e3130004 	tst	r3, #4
   10de8:	1a00001e 	bne	10e68 <__swsetup_r+0xf4>
   10dec:	e5942010 	ldr	r2, [r4, #16]
   10df0:	e38c3008 	orr	r3, ip, #8
   10df4:	e3520000 	cmp	r2, #0
   10df8:	e1c430bc 	strh	r3, [r4, #12]
   10dfc:	e6ff3073 	uxth	r3, r3
   10e00:	1affffec 	bne	10db8 <__swsetup_r+0x44>
   10e04:	e2031d0a 	and	r1, r3, #640	; 0x280
   10e08:	e3510c02 	cmp	r1, #512	; 0x200
   10e0c:	0affffe9 	beq	10db8 <__swsetup_r+0x44>
   10e10:	e1a00005 	mov	r0, r5
   10e14:	e1a01004 	mov	r1, r4
   10e18:	eb000685 	bl	12834 <__smakebuf_r>
   10e1c:	e1d430bc 	ldrh	r3, [r4, #12]
   10e20:	e5942010 	ldr	r2, [r4, #16]
   10e24:	eaffffe3 	b	10db8 <__swsetup_r+0x44>
   10e28:	e3a01000 	mov	r1, #0
   10e2c:	e5943014 	ldr	r3, [r4, #20]
   10e30:	e3520000 	cmp	r2, #0
   10e34:	e2633000 	rsb	r3, r3, #0
   10e38:	e5841008 	str	r1, [r4, #8]
   10e3c:	e5843018 	str	r3, [r4, #24]
   10e40:	1affffe3 	bne	10dd4 <__swsetup_r+0x60>
   10e44:	e1d430bc 	ldrh	r3, [r4, #12]
   10e48:	e3130080 	tst	r3, #128	; 0x80
   10e4c:	0affffe0 	beq	10dd4 <__swsetup_r+0x60>
   10e50:	e3833040 	orr	r3, r3, #64	; 0x40
   10e54:	e1c430bc 	strh	r3, [r4, #12]
   10e58:	e3e00000 	mvn	r0, #0
   10e5c:	e8bd8038 	pop	{r3, r4, r5, pc}
   10e60:	ebffef9d 	bl	ccdc <__sinit>
   10e64:	eaffffcc 	b	10d9c <__swsetup_r+0x28>
   10e68:	e5941030 	ldr	r1, [r4, #48]	; 0x30
   10e6c:	e3510000 	cmp	r1, #0
   10e70:	0a000007 	beq	10e94 <__swsetup_r+0x120>
   10e74:	e2843040 	add	r3, r4, #64	; 0x40
   10e78:	e1510003 	cmp	r1, r3
   10e7c:	0a000002 	beq	10e8c <__swsetup_r+0x118>
   10e80:	e1a00005 	mov	r0, r5
   10e84:	ebffefe6 	bl	ce24 <_free_r>
   10e88:	e1d4c0bc 	ldrh	ip, [r4, #12]
   10e8c:	e3a03000 	mov	r3, #0
   10e90:	e5843030 	str	r3, [r4, #48]	; 0x30
   10e94:	e3a03000 	mov	r3, #0
   10e98:	e5942010 	ldr	r2, [r4, #16]
   10e9c:	e3ccc024 	bic	ip, ip, #36	; 0x24
   10ea0:	e6ffc07c 	uxth	ip, ip
   10ea4:	e884000c 	stm	r4, {r2, r3}
   10ea8:	eaffffd0 	b	10df0 <__swsetup_r+0x7c>
   10eac:	e3a03009 	mov	r3, #9
   10eb0:	e38cc040 	orr	ip, ip, #64	; 0x40
   10eb4:	e5853000 	str	r3, [r5]
   10eb8:	e3e00000 	mvn	r0, #0
   10ebc:	e1c4c0bc 	strh	ip, [r4, #12]
   10ec0:	e8bd8038 	pop	{r3, r4, r5, pc}
   10ec4:	00017948 	andeq	r7, r1, r8, asr #18

00010ec8 <_close_r>:
   10ec8:	e92d4038 	push	{r3, r4, r5, lr}
   10ecc:	e3a03000 	mov	r3, #0
   10ed0:	e59f4024 	ldr	r4, [pc, #36]	; 10efc <_close_r+0x34>
   10ed4:	e1a05000 	mov	r5, r0
   10ed8:	e1a00001 	mov	r0, r1
   10edc:	e5843000 	str	r3, [r4]
   10ee0:	ebffe892 	bl	b130 <_close>
   10ee4:	e3700001 	cmn	r0, #1
   10ee8:	18bd8038 	popne	{r3, r4, r5, pc}
   10eec:	e5943000 	ldr	r3, [r4]
   10ef0:	e3530000 	cmp	r3, #0
   10ef4:	15853000 	strne	r3, [r5]
   10ef8:	e8bd8038 	pop	{r3, r4, r5, pc}
   10efc:	0001a590 	muleq	r1, r0, r5

00010f00 <div>:
   10f00:	e92d40f8 	push	{r3, r4, r5, r6, r7, lr}
   10f04:	e1a05001 	mov	r5, r1
   10f08:	e1a04000 	mov	r4, r0
   10f0c:	e1a01002 	mov	r1, r2
   10f10:	e1a00005 	mov	r0, r5
   10f14:	e1a06002 	mov	r6, r2
   10f18:	eb00141b 	bl	15f8c <__aeabi_idiv>
   10f1c:	e1a01006 	mov	r1, r6
   10f20:	e1a07000 	mov	r7, r0
   10f24:	e1a00005 	mov	r0, r5
   10f28:	eb00149f 	bl	161ac <__aeabi_idivmod>
   10f2c:	e3550000 	cmp	r5, #0
   10f30:	ba000006 	blt	10f50 <div+0x50>
   10f34:	e3510000 	cmp	r1, #0
   10f38:	b2877001 	addlt	r7, r7, #1
   10f3c:	b0661001 	rsblt	r1, r6, r1
   10f40:	e5847000 	str	r7, [r4]
   10f44:	e5841004 	str	r1, [r4, #4]
   10f48:	e1a00004 	mov	r0, r4
   10f4c:	e8bd80f8 	pop	{r3, r4, r5, r6, r7, pc}
   10f50:	e3510000 	cmp	r1, #0
   10f54:	c2477001 	subgt	r7, r7, #1
   10f58:	c0811006 	addgt	r1, r1, r6
   10f5c:	eafffff7 	b	10f40 <div+0x40>

00010f60 <quorem>:
   10f60:	e92d4ff0 	push	{r4, r5, r6, r7, r8, r9, sl, fp, lr}
   10f64:	e5903010 	ldr	r3, [r0, #16]
   10f68:	e5915010 	ldr	r5, [r1, #16]
   10f6c:	e24dd00c 	sub	sp, sp, #12
   10f70:	e1550003 	cmp	r5, r3
   10f74:	c3a00000 	movgt	r0, #0
   10f78:	ca000066 	bgt	11118 <quorem+0x1b8>
   10f7c:	e2455001 	sub	r5, r5, #1
   10f80:	e2814014 	add	r4, r1, #20
   10f84:	e58d1000 	str	r1, [sp]
   10f88:	e7941105 	ldr	r1, [r4, r5, lsl #2]
   10f8c:	e2809014 	add	r9, r0, #20
   10f90:	e1a06000 	mov	r6, r0
   10f94:	e2811001 	add	r1, r1, #1
   10f98:	e7990105 	ldr	r0, [r9, r5, lsl #2]
   10f9c:	eb001377 	bl	15d80 <__aeabi_uidiv>
   10fa0:	e1a0a105 	lsl	sl, r5, #2
   10fa4:	e089300a 	add	r3, r9, sl
   10fa8:	e2507000 	subs	r7, r0, #0
   10fac:	e084800a 	add	r8, r4, sl
   10fb0:	e58d3004 	str	r3, [sp, #4]
   10fb4:	0a00002c 	beq	1106c <quorem+0x10c>
   10fb8:	e3a0e000 	mov	lr, #0
   10fbc:	e1a0b004 	mov	fp, r4
   10fc0:	e1a0200e 	mov	r2, lr
   10fc4:	e1a00009 	mov	r0, r9
   10fc8:	e1a0100e 	mov	r1, lr
   10fcc:	e49be004 	ldr	lr, [fp], #4
   10fd0:	e590c000 	ldr	ip, [r0]
   10fd4:	e6ff307e 	uxth	r3, lr
   10fd8:	e1a0e82e 	lsr	lr, lr, #16
   10fdc:	e0211793 	mla	r1, r3, r7, r1
   10fe0:	e00e079e 	mul	lr, lr, r7
   10fe4:	e6ff3071 	uxth	r3, r1
   10fe8:	e08ee821 	add	lr, lr, r1, lsr #16
   10fec:	e0633002 	rsb	r3, r3, r2
   10ff0:	e6ff107e 	uxth	r1, lr
   10ff4:	e6f3307c 	uxtah	r3, r3, ip
   10ff8:	e061182c 	rsb	r1, r1, ip, lsr #16
   10ffc:	e0811843 	add	r1, r1, r3, asr #16
   11000:	e6ff3073 	uxth	r3, r3
   11004:	e1833801 	orr	r3, r3, r1, lsl #16
   11008:	e158000b 	cmp	r8, fp
   1100c:	e1a02841 	asr	r2, r1, #16
   11010:	e4803004 	str	r3, [r0], #4
   11014:	e1a0182e 	lsr	r1, lr, #16
   11018:	2affffeb 	bcs	10fcc <quorem+0x6c>
   1101c:	e799300a 	ldr	r3, [r9, sl]
   11020:	e3530000 	cmp	r3, #0
   11024:	1a000010 	bne	1106c <quorem+0x10c>
   11028:	e59d2004 	ldr	r2, [sp, #4]
   1102c:	e2423004 	sub	r3, r2, #4
   11030:	e1590003 	cmp	r9, r3
   11034:	2a00000b 	bcs	11068 <quorem+0x108>
   11038:	e5123004 	ldr	r3, [r2, #-4]
   1103c:	e3530000 	cmp	r3, #0
   11040:	1a000008 	bne	11068 <quorem+0x108>
   11044:	e2423008 	sub	r3, r2, #8
   11048:	ea000003 	b	1105c <quorem+0xfc>
   1104c:	e5932000 	ldr	r2, [r3]
   11050:	e2433004 	sub	r3, r3, #4
   11054:	e3520000 	cmp	r2, #0
   11058:	1a000002 	bne	11068 <quorem+0x108>
   1105c:	e1590003 	cmp	r9, r3
   11060:	e2455001 	sub	r5, r5, #1
   11064:	3afffff8 	bcc	1104c <quorem+0xec>
   11068:	e5865010 	str	r5, [r6, #16]
   1106c:	e59d1000 	ldr	r1, [sp]
   11070:	e1a00006 	mov	r0, r6
   11074:	eb00085f 	bl	131f8 <__mcmp>
   11078:	e3500000 	cmp	r0, #0
   1107c:	ba000024 	blt	11114 <quorem+0x1b4>
   11080:	e1a0c009 	mov	ip, r9
   11084:	e3a03000 	mov	r3, #0
   11088:	e2877001 	add	r7, r7, #1
   1108c:	e4941004 	ldr	r1, [r4], #4
   11090:	e59c0000 	ldr	r0, [ip]
   11094:	e6ff2071 	uxth	r2, r1
   11098:	e0622003 	rsb	r2, r2, r3
   1109c:	e1a01821 	lsr	r1, r1, #16
   110a0:	e6f22070 	uxtah	r2, r2, r0
   110a4:	e0613820 	rsb	r3, r1, r0, lsr #16
   110a8:	e0833842 	add	r3, r3, r2, asr #16
   110ac:	e6ff1072 	uxth	r1, r2
   110b0:	e1811803 	orr	r1, r1, r3, lsl #16
   110b4:	e1580004 	cmp	r8, r4
   110b8:	e48c1004 	str	r1, [ip], #4
   110bc:	e1a03843 	asr	r3, r3, #16
   110c0:	2afffff1 	bcs	1108c <quorem+0x12c>
   110c4:	e7992105 	ldr	r2, [r9, r5, lsl #2]
   110c8:	e0893105 	add	r3, r9, r5, lsl #2
   110cc:	e3520000 	cmp	r2, #0
   110d0:	1a00000f 	bne	11114 <quorem+0x1b4>
   110d4:	e2432004 	sub	r2, r3, #4
   110d8:	e1590002 	cmp	r9, r2
   110dc:	2a00000b 	bcs	11110 <quorem+0x1b0>
   110e0:	e5132004 	ldr	r2, [r3, #-4]
   110e4:	e3520000 	cmp	r2, #0
   110e8:	1a000008 	bne	11110 <quorem+0x1b0>
   110ec:	e2433008 	sub	r3, r3, #8
   110f0:	ea000003 	b	11104 <quorem+0x1a4>
   110f4:	e5932000 	ldr	r2, [r3]
   110f8:	e2433004 	sub	r3, r3, #4
   110fc:	e3520000 	cmp	r2, #0
   11100:	1a000002 	bne	11110 <quorem+0x1b0>
   11104:	e1590003 	cmp	r9, r3
   11108:	e2455001 	sub	r5, r5, #1
   1110c:	3afffff8 	bcc	110f4 <quorem+0x194>
   11110:	e5865010 	str	r5, [r6, #16]
   11114:	e1a00007 	mov	r0, r7
   11118:	e28dd00c 	add	sp, sp, #12
   1111c:	e8bd8ff0 	pop	{r4, r5, r6, r7, r8, r9, sl, fp, pc}

00011120 <_dtoa_r>:
   11120:	e92d4ff0 	push	{r4, r5, r6, r7, r8, r9, sl, fp, lr}
   11124:	ed2d8b02 	vpush	{d8}
   11128:	e590c040 	ldr	ip, [r0, #64]	; 0x40
   1112c:	e24dd04c 	sub	sp, sp, #76	; 0x4c
   11130:	e35c0000 	cmp	ip, #0
   11134:	e1a04000 	mov	r4, r0
   11138:	e1a05001 	mov	r5, r1
   1113c:	e1a07002 	mov	r7, r2
   11140:	e58d3004 	str	r3, [sp, #4]
   11144:	e59d8078 	ldr	r8, [sp, #120]	; 0x78
   11148:	ec5bab10 	vmov	sl, fp, d0
   1114c:	0a000007 	beq	11170 <_dtoa_r+0x50>
   11150:	e3a03001 	mov	r3, #1
   11154:	e5902044 	ldr	r2, [r0, #68]	; 0x44
   11158:	e1a0100c 	mov	r1, ip
   1115c:	e1a03213 	lsl	r3, r3, r2
   11160:	e98c000c 	stmib	ip, {r2, r3}
   11164:	eb000676 	bl	12b44 <_Bfree>
   11168:	e3a03000 	mov	r3, #0
   1116c:	e5843040 	str	r3, [r4, #64]	; 0x40
   11170:	e35b0000 	cmp	fp, #0
   11174:	b3a03001 	movlt	r3, #1
   11178:	a3a03000 	movge	r3, #0
   1117c:	b5883000 	strlt	r3, [r8]
   11180:	a5883000 	strge	r3, [r8]
   11184:	e59f3364 	ldr	r3, [pc, #868]	; 114f0 <_dtoa_r+0x3d0>
   11188:	e1a0600b 	mov	r6, fp
   1118c:	e1a02003 	mov	r2, r3
   11190:	b3cb6102 	biclt	r6, fp, #-2147483648	; 0x80000000
   11194:	e0033006 	and	r3, r3, r6
   11198:	b1a0b006 	movlt	fp, r6
   1119c:	e1530002 	cmp	r3, r2
   111a0:	0a000010 	beq	111e8 <_dtoa_r+0xc8>
   111a4:	ec4bab18 	vmov	d8, sl, fp
   111a8:	eeb58b40 	vcmp.f64	d8, #0.0
   111ac:	eef1fa10 	vmrs	APSR_nzcv, fpscr
   111b0:	1a00001e 	bne	11230 <_dtoa_r+0x110>
   111b4:	e3a03001 	mov	r3, #1
   111b8:	e59d207c 	ldr	r2, [sp, #124]	; 0x7c
   111bc:	e3520000 	cmp	r2, #0
   111c0:	e59d2004 	ldr	r2, [sp, #4]
   111c4:	e5823000 	str	r3, [r2]
   111c8:	0a00008a 	beq	113f8 <_dtoa_r+0x2d8>
   111cc:	e59f0320 	ldr	r0, [pc, #800]	; 114f4 <_dtoa_r+0x3d4>
   111d0:	e59d307c 	ldr	r3, [sp, #124]	; 0x7c
   111d4:	e5830000 	str	r0, [r3]
   111d8:	e2400001 	sub	r0, r0, #1
   111dc:	e28dd04c 	add	sp, sp, #76	; 0x4c
   111e0:	ecbd8b02 	vpop	{d8}
   111e4:	e8bd8ff0 	pop	{r4, r5, r6, r7, r8, r9, sl, fp, pc}
   111e8:	e59f3308 	ldr	r3, [pc, #776]	; 114f8 <_dtoa_r+0x3d8>
   111ec:	e59d2004 	ldr	r2, [sp, #4]
   111f0:	e35a0000 	cmp	sl, #0
   111f4:	e5823000 	str	r3, [r2]
   111f8:	0a00006b 	beq	113ac <_dtoa_r+0x28c>
   111fc:	e59f02f8 	ldr	r0, [pc, #760]	; 114fc <_dtoa_r+0x3dc>
   11200:	e59d307c 	ldr	r3, [sp, #124]	; 0x7c
   11204:	e3530000 	cmp	r3, #0
   11208:	0afffff3 	beq	111dc <_dtoa_r+0xbc>
   1120c:	e5d03003 	ldrb	r3, [r0, #3]
   11210:	e59d207c 	ldr	r2, [sp, #124]	; 0x7c
   11214:	e3530000 	cmp	r3, #0
   11218:	12803008 	addne	r3, r0, #8
   1121c:	02803003 	addeq	r3, r0, #3
   11220:	e5823000 	str	r3, [r2]
   11224:	e28dd04c 	add	sp, sp, #76	; 0x4c
   11228:	ecbd8b02 	vpop	{d8}
   1122c:	e8bd8ff0 	pop	{r4, r5, r6, r7, r8, r9, sl, fp, pc}
   11230:	e1a00004 	mov	r0, r4
   11234:	ec4bab10 	vmov	d0, sl, fp
   11238:	e28d1044 	add	r1, sp, #68	; 0x44
   1123c:	e28d2040 	add	r2, sp, #64	; 0x40
   11240:	eb0008aa 	bl	134f0 <__d2b>
   11244:	e1b08a26 	lsrs	r8, r6, #20
   11248:	e1a09000 	mov	r9, r0
   1124c:	1a00005d 	bne	113c8 <_dtoa_r+0x2a8>
   11250:	e3e03e41 	mvn	r3, #1040	; 0x410
   11254:	e59d1040 	ldr	r1, [sp, #64]	; 0x40
   11258:	e59d8044 	ldr	r8, [sp, #68]	; 0x44
   1125c:	e3a00001 	mov	r0, #1
   11260:	e0818008 	add	r8, r1, r8
   11264:	e1580003 	cmp	r8, r3
   11268:	a2883e41 	addge	r3, r8, #1040	; 0x410
   1126c:	b59f328c 	ldrlt	r3, [pc, #652]	; 11500 <_dtoa_r+0x3e0>
   11270:	a59f228c 	ldrge	r2, [pc, #652]	; 11504 <_dtoa_r+0x3e4>
   11274:	a2833002 	addge	r3, r3, #2
   11278:	b0683003 	rsblt	r3, r8, r3
   1127c:	a1a0333a 	lsrge	r3, sl, r3
   11280:	a0682002 	rsbge	r2, r8, r2
   11284:	a1833216 	orrge	r3, r3, r6, lsl r2
   11288:	b1a0331a 	lsllt	r3, sl, r3
   1128c:	ee073a90 	vmov	s15, r3
   11290:	eeb87b67 	vcvt.f64.u32	d7, s15
   11294:	ec532b17 	vmov	r2, r3, d7
   11298:	e58d001c 	str	r0, [sp, #28]
   1129c:	e2488001 	sub	r8, r8, #1
   112a0:	e243361f 	sub	r3, r3, #32505856	; 0x1f00000
   112a4:	ec432b17 	vmov	d7, r2, r3
   112a8:	ed9f6b86 	vldr	d6, [pc, #536]	; 114c8 <_dtoa_r+0x3a8>
   112ac:	ed9f5b87 	vldr	d5, [pc, #540]	; 114d0 <_dtoa_r+0x3b0>
   112b0:	ee376b46 	vsub.f64	d6, d7, d6
   112b4:	ed9f7b87 	vldr	d7, [pc, #540]	; 114d8 <_dtoa_r+0x3b8>
   112b8:	ee067b05 	vmla.f64	d7, d6, d5
   112bc:	ee068a90 	vmov	s13, r8
   112c0:	ed9f5b86 	vldr	d5, [pc, #536]	; 114e0 <_dtoa_r+0x3c0>
   112c4:	eeb86be6 	vcvt.f64.s32	d6, s13
   112c8:	ee067b05 	vmla.f64	d7, d6, d5
   112cc:	eeb57bc0 	vcmpe.f64	d7, #0.0
   112d0:	eefd6bc7 	vcvt.s32.f64	s13, d7
   112d4:	eef1fa10 	vmrs	APSR_nzcv, fpscr
   112d8:	edcd6a02 	vstr	s13, [sp, #8]
   112dc:	4a00012a 	bmi	1178c <_dtoa_r+0x66c>
   112e0:	e59d3008 	ldr	r3, [sp, #8]
   112e4:	e3530016 	cmp	r3, #22
   112e8:	83a03001 	movhi	r3, #1
   112ec:	858d3030 	strhi	r3, [sp, #48]	; 0x30
   112f0:	8a00000b 	bhi	11324 <_dtoa_r+0x204>
   112f4:	e59d2008 	ldr	r2, [sp, #8]
   112f8:	e59f3210 	ldr	r3, [pc, #528]	; 11510 <_dtoa_r+0x3f0>
   112fc:	ec4bab16 	vmov	d6, sl, fp
   11300:	e0833182 	add	r3, r3, r2, lsl #3
   11304:	ed937b00 	vldr	d7, [r3]
   11308:	eeb47bc6 	vcmpe.f64	d7, d6
   1130c:	eef1fa10 	vmrs	APSR_nzcv, fpscr
   11310:	c1a03002 	movgt	r3, r2
   11314:	c2433001 	subgt	r3, r3, #1
   11318:	c58d3008 	strgt	r3, [sp, #8]
   1131c:	e3a03000 	mov	r3, #0
   11320:	e58d3030 	str	r3, [sp, #48]	; 0x30
   11324:	e0688001 	rsb	r8, r8, r1
   11328:	e2588001 	subs	r8, r8, #1
   1132c:	53a03000 	movpl	r3, #0
   11330:	42683000 	rsbmi	r3, r8, #0
   11334:	43a08000 	movmi	r8, #0
   11338:	458d3018 	strmi	r3, [sp, #24]
   1133c:	558d3018 	strpl	r3, [sp, #24]
   11340:	e59d3008 	ldr	r3, [sp, #8]
   11344:	e3530000 	cmp	r3, #0
   11348:	b3a03000 	movlt	r3, #0
   1134c:	a0888003 	addge	r8, r8, r3
   11350:	a58d3024 	strge	r3, [sp, #36]	; 0x24
   11354:	a3a03000 	movge	r3, #0
   11358:	b58d3024 	strlt	r3, [sp, #36]	; 0x24
   1135c:	b59d2018 	ldrlt	r2, [sp, #24]
   11360:	b59d3008 	ldrlt	r3, [sp, #8]
   11364:	b0632002 	rsblt	r2, r3, r2
   11368:	b58d2018 	strlt	r2, [sp, #24]
   1136c:	b2633000 	rsblt	r3, r3, #0
   11370:	e3550009 	cmp	r5, #9
   11374:	e58d3010 	str	r3, [sp, #16]
   11378:	8a000020 	bhi	11400 <_dtoa_r+0x2e0>
   1137c:	e3550005 	cmp	r5, #5
   11380:	d3a02001 	movle	r2, #1
   11384:	c3a02000 	movgt	r2, #0
   11388:	c2455004 	subgt	r5, r5, #4
   1138c:	e2453002 	sub	r3, r5, #2
   11390:	e3530003 	cmp	r3, #3
   11394:	979ff103 	ldrls	pc, [pc, r3, lsl #2]
   11398:	ea000102 	b	117a8 <_dtoa_r+0x688>
   1139c:	00011ac8 	andeq	r1, r1, r8, asr #21
   113a0:	00011a8c 	andeq	r1, r1, ip, lsl #21
   113a4:	0001188c 	andeq	r1, r1, ip, lsl #17
   113a8:	000123e0 	andeq	r2, r1, r0, ror #7
   113ac:	e3c664ff 	bic	r6, r6, #-16777216	; 0xff000000
   113b0:	e59f3144 	ldr	r3, [pc, #324]	; 114fc <_dtoa_r+0x3dc>
   113b4:	e3c6660f 	bic	r6, r6, #15728640	; 0xf00000
   113b8:	e3560000 	cmp	r6, #0
   113bc:	e59f0144 	ldr	r0, [pc, #324]	; 11508 <_dtoa_r+0x3e8>
   113c0:	11a00003 	movne	r0, r3
   113c4:	eaffff8d 	b	11200 <_dtoa_r+0xe0>
   113c8:	e3a00000 	mov	r0, #0
   113cc:	e1cda0f8 	strd	sl, [sp, #8]
   113d0:	e1cd20d8 	ldrd	r2, [sp, #8]
   113d4:	e3c314ff 	bic	r1, r3, #-16777216	; 0xff000000
   113d8:	e3c1160f 	bic	r1, r1, #15728640	; 0xf00000
   113dc:	e38115ff 	orr	r1, r1, #1069547520	; 0x3fc00000
   113e0:	e2488fff 	sub	r8, r8, #1020	; 0x3fc
   113e4:	e3813603 	orr	r3, r1, #3145728	; 0x300000
   113e8:	e2488003 	sub	r8, r8, #3
   113ec:	e59d1040 	ldr	r1, [sp, #64]	; 0x40
   113f0:	e58d001c 	str	r0, [sp, #28]
   113f4:	eaffffaa 	b	112a4 <_dtoa_r+0x184>
   113f8:	e59f010c 	ldr	r0, [pc, #268]	; 1150c <_dtoa_r+0x3ec>
   113fc:	eaffff76 	b	111dc <_dtoa_r+0xbc>
   11400:	e3a01000 	mov	r1, #0
   11404:	e1a00004 	mov	r0, r4
   11408:	e5841044 	str	r1, [r4, #68]	; 0x44
   1140c:	e1a07001 	mov	r7, r1
   11410:	eb0005a8 	bl	12ab8 <_Balloc>
   11414:	e3e03000 	mvn	r3, #0
   11418:	e58d3034 	str	r3, [sp, #52]	; 0x34
   1141c:	e58d3014 	str	r3, [sp, #20]
   11420:	e3a03001 	mov	r3, #1
   11424:	e1a06000 	mov	r6, r0
   11428:	e1a05007 	mov	r5, r7
   1142c:	e5840040 	str	r0, [r4, #64]	; 0x40
   11430:	e58d3020 	str	r3, [sp, #32]
   11434:	e59d2008 	ldr	r2, [sp, #8]
   11438:	e59d3044 	ldr	r3, [sp, #68]	; 0x44
   1143c:	e352000e 	cmp	r2, #14
   11440:	c3a02000 	movgt	r2, #0
   11444:	d3a02001 	movle	r2, #1
   11448:	e3530000 	cmp	r3, #0
   1144c:	b3a02000 	movlt	r2, #0
   11450:	e3520000 	cmp	r2, #0
   11454:	0a00002f 	beq	11518 <_dtoa_r+0x3f8>
   11458:	e59d3014 	ldr	r3, [sp, #20]
   1145c:	e1a02fa7 	lsr	r2, r7, #31
   11460:	e3530000 	cmp	r3, #0
   11464:	c3a02000 	movgt	r2, #0
   11468:	d2022001 	andle	r2, r2, #1
   1146c:	e59f309c 	ldr	r3, [pc, #156]	; 11510 <_dtoa_r+0x3f0>
   11470:	e3520000 	cmp	r2, #0
   11474:	e59d2008 	ldr	r2, [sp, #8]
   11478:	e0833182 	add	r3, r3, r2, lsl #3
   1147c:	ed935b00 	vldr	d5, [r3]
   11480:	0a000193 	beq	11ad4 <_dtoa_r+0x9b4>
   11484:	e59d3014 	ldr	r3, [sp, #20]
   11488:	e3530000 	cmp	r3, #0
   1148c:	1a0001e3 	bne	11c20 <_dtoa_r+0xb00>
   11490:	ed9f7b14 	vldr	d7, [pc, #80]	; 114e8 <_dtoa_r+0x3c8>
   11494:	ee255b07 	vmul.f64	d5, d5, d7
   11498:	ec4bab17 	vmov	d7, sl, fp
   1149c:	eeb45bc7 	vcmpe.f64	d5, d7
   114a0:	eef1fa10 	vmrs	APSR_nzcv, fpscr
   114a4:	ba000220 	blt	11d2c <_dtoa_r+0xc0c>
   114a8:	e59d3014 	ldr	r3, [sp, #20]
   114ac:	e58d3010 	str	r3, [sp, #16]
   114b0:	e58d301c 	str	r3, [sp, #28]
   114b4:	e1e03007 	mvn	r3, r7
   114b8:	e1a0b006 	mov	fp, r6
   114bc:	e58d3008 	str	r3, [sp, #8]
   114c0:	ea000096 	b	11720 <_dtoa_r+0x600>
   114c4:	e320f000 	nop	{0}
   114c8:	00000000 	andeq	r0, r0, r0
   114cc:	3ff80000 	svccc	0x00f80000
   114d0:	636f4361 	cmnvs	pc, #-2080374783	; 0x84000001
   114d4:	3fd287a7 	svccc	0x00d287a7
   114d8:	8b60c8b3 	blhi	18437ac <heap_low+0x1827a14>
   114dc:	3fc68a28 	svccc	0x00c68a28
   114e0:	509f79fb 			; <UNDEFINED> instruction: 0x509f79fb
   114e4:	3fd34413 	svccc	0x00d34413
   114e8:	00000000 	andeq	r0, r0, r0
   114ec:	40140000 	andsmi	r0, r4, r0
   114f0:	7ff00000 	svcvc	0x00f00000	; IMB
   114f4:	000171d1 	ldrdeq	r7, [r1], -r1
   114f8:	0000270f 	andeq	r2, r0, pc, lsl #14
   114fc:	000171e0 	andeq	r7, r1, r0, ror #3
   11500:	fffffbee 			; <UNDEFINED> instruction: 0xfffffbee
   11504:	fffffc0e 			; <UNDEFINED> instruction: 0xfffffc0e
   11508:	000171d4 	ldrdeq	r7, [r1], -r4
   1150c:	000171d0 	ldrdeq	r7, [r1], -r0
   11510:	00016db8 			; <UNDEFINED> instruction: 0x00016db8
   11514:	00016ea8 	andeq	r6, r1, r8, lsr #29
   11518:	e59d2020 	ldr	r2, [sp, #32]
   1151c:	e3520000 	cmp	r2, #0
   11520:	1a0000b7 	bne	11804 <_dtoa_r+0x6e4>
   11524:	e59d3018 	ldr	r3, [sp, #24]
   11528:	e59dc010 	ldr	ip, [sp, #16]
   1152c:	e58d3028 	str	r3, [sp, #40]	; 0x28
   11530:	e59d3020 	ldr	r3, [sp, #32]
   11534:	e58d301c 	str	r3, [sp, #28]
   11538:	e59d3028 	ldr	r3, [sp, #40]	; 0x28
   1153c:	e3580000 	cmp	r8, #0
   11540:	c3530000 	cmpgt	r3, #0
   11544:	da000008 	ble	1156c <_dtoa_r+0x44c>
   11548:	e1580003 	cmp	r8, r3
   1154c:	e1a02003 	mov	r2, r3
   11550:	b1a03008 	movlt	r3, r8
   11554:	e59d1018 	ldr	r1, [sp, #24]
   11558:	e0632002 	rsb	r2, r3, r2
   1155c:	e0631001 	rsb	r1, r3, r1
   11560:	e58d1018 	str	r1, [sp, #24]
   11564:	e58d2028 	str	r2, [sp, #40]	; 0x28
   11568:	e0638008 	rsb	r8, r3, r8
   1156c:	e59d3010 	ldr	r3, [sp, #16]
   11570:	e3530000 	cmp	r3, #0
   11574:	da000018 	ble	115dc <_dtoa_r+0x4bc>
   11578:	e59d3020 	ldr	r3, [sp, #32]
   1157c:	e3530000 	cmp	r3, #0
   11580:	0a0002f2 	beq	12150 <_dtoa_r+0x1030>
   11584:	e35c0000 	cmp	ip, #0
   11588:	da000010 	ble	115d0 <_dtoa_r+0x4b0>
   1158c:	e1a0200c 	mov	r2, ip
   11590:	e59d101c 	ldr	r1, [sp, #28]
   11594:	e1a00004 	mov	r0, r4
   11598:	e58dc03c 	str	ip, [sp, #60]	; 0x3c
   1159c:	eb000698 	bl	13004 <__pow5mult>
   115a0:	e1a02009 	mov	r2, r9
   115a4:	e1a01000 	mov	r1, r0
   115a8:	e58d001c 	str	r0, [sp, #28]
   115ac:	e1a00004 	mov	r0, r4
   115b0:	eb00061c 	bl	12e28 <__multiply>
   115b4:	e1a01009 	mov	r1, r9
   115b8:	e58d0038 	str	r0, [sp, #56]	; 0x38
   115bc:	e1a00004 	mov	r0, r4
   115c0:	eb00055f 	bl	12b44 <_Bfree>
   115c4:	e59d3038 	ldr	r3, [sp, #56]	; 0x38
   115c8:	e59dc03c 	ldr	ip, [sp, #60]	; 0x3c
   115cc:	e1a09003 	mov	r9, r3
   115d0:	e59d3010 	ldr	r3, [sp, #16]
   115d4:	e053200c 	subs	r2, r3, ip
   115d8:	1a0002fa 	bne	121c8 <_dtoa_r+0x10a8>
   115dc:	e1a00004 	mov	r0, r4
   115e0:	e3a01001 	mov	r1, #1
   115e4:	eb000607 	bl	12e08 <__i2b>
   115e8:	e59d3024 	ldr	r3, [sp, #36]	; 0x24
   115ec:	e58d0010 	str	r0, [sp, #16]
   115f0:	e3530000 	cmp	r3, #0
   115f4:	da000170 	ble	11bbc <_dtoa_r+0xa9c>
   115f8:	e1a01000 	mov	r1, r0
   115fc:	e1a02003 	mov	r2, r3
   11600:	e1a00004 	mov	r0, r4
   11604:	eb00067e 	bl	13004 <__pow5mult>
   11608:	e3550001 	cmp	r5, #1
   1160c:	e58d0010 	str	r0, [sp, #16]
   11610:	da0002f1 	ble	121dc <_dtoa_r+0x10bc>
   11614:	e3a03000 	mov	r3, #0
   11618:	e58d3038 	str	r3, [sp, #56]	; 0x38
   1161c:	e59d2010 	ldr	r2, [sp, #16]
   11620:	e5923010 	ldr	r3, [r2, #16]
   11624:	e0823103 	add	r3, r2, r3, lsl #2
   11628:	e5930010 	ldr	r0, [r3, #16]
   1162c:	eb0005b8 	bl	12d14 <__hi0bits>
   11630:	e2600020 	rsb	r0, r0, #32
   11634:	e0800008 	add	r0, r0, r8
   11638:	e210001f 	ands	r0, r0, #31
   1163c:	0a0001b7 	beq	11d20 <_dtoa_r+0xc00>
   11640:	e2603020 	rsb	r3, r0, #32
   11644:	e3530004 	cmp	r3, #4
   11648:	da000361 	ble	123d4 <_dtoa_r+0x12b4>
   1164c:	e260001c 	rsb	r0, r0, #28
   11650:	e59d3018 	ldr	r3, [sp, #24]
   11654:	e0888000 	add	r8, r8, r0
   11658:	e0833000 	add	r3, r3, r0
   1165c:	e58d3018 	str	r3, [sp, #24]
   11660:	e59d3028 	ldr	r3, [sp, #40]	; 0x28
   11664:	e0833000 	add	r3, r3, r0
   11668:	e58d3028 	str	r3, [sp, #40]	; 0x28
   1166c:	e59d3018 	ldr	r3, [sp, #24]
   11670:	e3530000 	cmp	r3, #0
   11674:	da000004 	ble	1168c <_dtoa_r+0x56c>
   11678:	e1a01009 	mov	r1, r9
   1167c:	e1a02003 	mov	r2, r3
   11680:	e1a00004 	mov	r0, r4
   11684:	eb00069e 	bl	13104 <__lshift>
   11688:	e1a09000 	mov	r9, r0
   1168c:	e3580000 	cmp	r8, #0
   11690:	da000004 	ble	116a8 <_dtoa_r+0x588>
   11694:	e59d1010 	ldr	r1, [sp, #16]
   11698:	e1a02008 	mov	r2, r8
   1169c:	e1a00004 	mov	r0, r4
   116a0:	eb000697 	bl	13104 <__lshift>
   116a4:	e58d0010 	str	r0, [sp, #16]
   116a8:	e59d3030 	ldr	r3, [sp, #48]	; 0x30
   116ac:	e3530000 	cmp	r3, #0
   116b0:	1a0001f3 	bne	11e84 <_dtoa_r+0xd64>
   116b4:	e59d2014 	ldr	r2, [sp, #20]
   116b8:	e3550002 	cmp	r5, #2
   116bc:	c3a03001 	movgt	r3, #1
   116c0:	d3a03000 	movle	r3, #0
   116c4:	e3520000 	cmp	r2, #0
   116c8:	c3a03000 	movgt	r3, #0
   116cc:	e3530000 	cmp	r3, #0
   116d0:	0a000156 	beq	11c30 <_dtoa_r+0xb10>
   116d4:	e59d3014 	ldr	r3, [sp, #20]
   116d8:	e3530000 	cmp	r3, #0
   116dc:	1affff74 	bne	114b4 <_dtoa_r+0x394>
   116e0:	e59d1010 	ldr	r1, [sp, #16]
   116e4:	e3a02005 	mov	r2, #5
   116e8:	e1a00004 	mov	r0, r4
   116ec:	eb00051b 	bl	12b60 <__multadd>
   116f0:	e1a01000 	mov	r1, r0
   116f4:	e58d0010 	str	r0, [sp, #16]
   116f8:	e1a00009 	mov	r0, r9
   116fc:	eb0006bd 	bl	131f8 <__mcmp>
   11700:	e3500000 	cmp	r0, #0
   11704:	daffff6a 	ble	114b4 <_dtoa_r+0x394>
   11708:	e3a03031 	mov	r3, #49	; 0x31
   1170c:	e59d2008 	ldr	r2, [sp, #8]
   11710:	e5c63000 	strb	r3, [r6]
   11714:	e2822001 	add	r2, r2, #1
   11718:	e58d2008 	str	r2, [sp, #8]
   1171c:	e286b001 	add	fp, r6, #1
   11720:	e59d1010 	ldr	r1, [sp, #16]
   11724:	e1a00004 	mov	r0, r4
   11728:	eb000505 	bl	12b44 <_Bfree>
   1172c:	e59d301c 	ldr	r3, [sp, #28]
   11730:	e3530000 	cmp	r3, #0
   11734:	0a000002 	beq	11744 <_dtoa_r+0x624>
   11738:	e59d101c 	ldr	r1, [sp, #28]
   1173c:	e1a00004 	mov	r0, r4
   11740:	eb0004ff 	bl	12b44 <_Bfree>
   11744:	e1a00004 	mov	r0, r4
   11748:	e1a01009 	mov	r1, r9
   1174c:	eb0004fc 	bl	12b44 <_Bfree>
   11750:	e3a02000 	mov	r2, #0
   11754:	e59d107c 	ldr	r1, [sp, #124]	; 0x7c
   11758:	e59d3008 	ldr	r3, [sp, #8]
   1175c:	e1510002 	cmp	r1, r2
   11760:	e5cb2000 	strb	r2, [fp]
   11764:	e59d2004 	ldr	r2, [sp, #4]
   11768:	e2833001 	add	r3, r3, #1
   1176c:	e5823000 	str	r3, [r2]
   11770:	01a00006 	moveq	r0, r6
   11774:	0afffe98 	beq	111dc <_dtoa_r+0xbc>
   11778:	e1a00006 	mov	r0, r6
   1177c:	e581b000 	str	fp, [r1]
   11780:	e28dd04c 	add	sp, sp, #76	; 0x4c
   11784:	ecbd8b02 	vpop	{d8}
   11788:	e8bd8ff0 	pop	{r4, r5, r6, r7, r8, r9, sl, fp, pc}
   1178c:	eeb86be6 	vcvt.f64.s32	d6, s13
   11790:	eeb46b47 	vcmp.f64	d6, d7
   11794:	eef1fa10 	vmrs	APSR_nzcv, fpscr
   11798:	159d3008 	ldrne	r3, [sp, #8]
   1179c:	12433001 	subne	r3, r3, #1
   117a0:	158d3008 	strne	r3, [sp, #8]
   117a4:	eafffecd 	b	112e0 <_dtoa_r+0x1c0>
   117a8:	e3a02000 	mov	r2, #0
   117ac:	e1a00004 	mov	r0, r4
   117b0:	e5842044 	str	r2, [r4, #68]	; 0x44
   117b4:	e1a01002 	mov	r1, r2
   117b8:	e58d2014 	str	r2, [sp, #20]
   117bc:	eb0004bd 	bl	12ab8 <_Balloc>
   117c0:	e59d7008 	ldr	r7, [sp, #8]
   117c4:	e59d3044 	ldr	r3, [sp, #68]	; 0x44
   117c8:	e357000e 	cmp	r7, #14
   117cc:	c3a07000 	movgt	r7, #0
   117d0:	d3a07001 	movle	r7, #1
   117d4:	e3530000 	cmp	r3, #0
   117d8:	b3a07000 	movlt	r7, #0
   117dc:	e3570000 	cmp	r7, #0
   117e0:	e1a06000 	mov	r6, r0
   117e4:	e5840040 	str	r0, [r4, #64]	; 0x40
   117e8:	e59d2014 	ldr	r2, [sp, #20]
   117ec:	1a0002fe 	bne	123ec <_dtoa_r+0x12cc>
   117f0:	e3e02000 	mvn	r2, #0
   117f4:	e58d2014 	str	r2, [sp, #20]
   117f8:	e58d2034 	str	r2, [sp, #52]	; 0x34
   117fc:	e3a02001 	mov	r2, #1
   11800:	e58d2020 	str	r2, [sp, #32]
   11804:	e3550001 	cmp	r5, #1
   11808:	da000282 	ble	12218 <_dtoa_r+0x10f8>
   1180c:	e59d3014 	ldr	r3, [sp, #20]
   11810:	e2432001 	sub	r2, r3, #1
   11814:	e59d3010 	ldr	r3, [sp, #16]
   11818:	e1530002 	cmp	r3, r2
   1181c:	b59d3010 	ldrlt	r3, [sp, #16]
   11820:	b58d2010 	strlt	r2, [sp, #16]
   11824:	b0633002 	rsblt	r3, r3, r2
   11828:	b59d2024 	ldrlt	r2, [sp, #36]	; 0x24
   1182c:	a062c003 	rsbge	ip, r2, r3
   11830:	b0823003 	addlt	r3, r2, r3
   11834:	b58d3024 	strlt	r3, [sp, #36]	; 0x24
   11838:	e59d3014 	ldr	r3, [sp, #20]
   1183c:	b3a0c000 	movlt	ip, #0
   11840:	e3530000 	cmp	r3, #0
   11844:	b59d2014 	ldrlt	r2, [sp, #20]
   11848:	e59d3018 	ldr	r3, [sp, #24]
   1184c:	b0623003 	rsblt	r3, r2, r3
   11850:	b58d3028 	strlt	r3, [sp, #40]	; 0x28
   11854:	b3a03000 	movlt	r3, #0
   11858:	a58d3028 	strge	r3, [sp, #40]	; 0x28
   1185c:	a59d3014 	ldrge	r3, [sp, #20]
   11860:	e59d2018 	ldr	r2, [sp, #24]
   11864:	e1a00004 	mov	r0, r4
   11868:	e0822003 	add	r2, r2, r3
   1186c:	e3a01001 	mov	r1, #1
   11870:	e58dc038 	str	ip, [sp, #56]	; 0x38
   11874:	e58d2018 	str	r2, [sp, #24]
   11878:	e0888003 	add	r8, r8, r3
   1187c:	eb000561 	bl	12e08 <__i2b>
   11880:	e59dc038 	ldr	ip, [sp, #56]	; 0x38
   11884:	e58d001c 	str	r0, [sp, #28]
   11888:	eaffff2a 	b	11538 <_dtoa_r+0x418>
   1188c:	e3a03001 	mov	r3, #1
   11890:	e58d3020 	str	r3, [sp, #32]
   11894:	e3570000 	cmp	r7, #0
   11898:	da000227 	ble	1213c <_dtoa_r+0x101c>
   1189c:	e357000e 	cmp	r7, #14
   118a0:	83a0c000 	movhi	ip, #0
   118a4:	9202c001 	andls	ip, r2, #1
   118a8:	e1a00007 	mov	r0, r7
   118ac:	e58d7034 	str	r7, [sp, #52]	; 0x34
   118b0:	e58d7014 	str	r7, [sp, #20]
   118b4:	e3a01000 	mov	r1, #0
   118b8:	e3500017 	cmp	r0, #23
   118bc:	e5841044 	str	r1, [r4, #68]	; 0x44
   118c0:	9a000008 	bls	118e8 <_dtoa_r+0x7c8>
   118c4:	e3a02001 	mov	r2, #1
   118c8:	e3a03004 	mov	r3, #4
   118cc:	e1a01002 	mov	r1, r2
   118d0:	e1a03083 	lsl	r3, r3, #1
   118d4:	e2832014 	add	r2, r3, #20
   118d8:	e1520000 	cmp	r2, r0
   118dc:	e2812001 	add	r2, r1, #1
   118e0:	9afffff9 	bls	118cc <_dtoa_r+0x7ac>
   118e4:	e5841044 	str	r1, [r4, #68]	; 0x44
   118e8:	e1a00004 	mov	r0, r4
   118ec:	e58dc028 	str	ip, [sp, #40]	; 0x28
   118f0:	eb000470 	bl	12ab8 <_Balloc>
   118f4:	e59dc028 	ldr	ip, [sp, #40]	; 0x28
   118f8:	e1a06000 	mov	r6, r0
   118fc:	e35c0000 	cmp	ip, #0
   11900:	e5840040 	str	r0, [r4, #64]	; 0x40
   11904:	0afffeca 	beq	11434 <_dtoa_r+0x314>
   11908:	e59d3008 	ldr	r3, [sp, #8]
   1190c:	ec4bab15 	vmov	d5, sl, fp
   11910:	e3530000 	cmp	r3, #0
   11914:	da000117 	ble	11d78 <_dtoa_r+0xc58>
   11918:	e51f1410 	ldr	r1, [pc, #-1040]	; 11510 <_dtoa_r+0x3f0>
   1191c:	e203200f 	and	r2, r3, #15
   11920:	e1a03243 	asr	r3, r3, #4
   11924:	e3130010 	tst	r3, #16
   11928:	e0812182 	add	r2, r1, r2, lsl #3
   1192c:	ed927b00 	vldr	d7, [r2]
   11930:	151f2424 	ldrne	r2, [pc, #-1060]	; 11514 <_dtoa_r+0x3f4>
   11934:	1203300f 	andne	r3, r3, #15
   11938:	1d924b08 	vldrne	d4, [r2, #32]
   1193c:	13a01003 	movne	r1, #3
   11940:	1e854b04 	vdivne.f64	d4, d5, d4
   11944:	0eb04b45 	vmoveq.f64	d4, d5
   11948:	03a01002 	moveq	r1, #2
   1194c:	e3530000 	cmp	r3, #0
   11950:	0a000007 	beq	11974 <_dtoa_r+0x854>
   11954:	e51f2448 	ldr	r2, [pc, #-1096]	; 11514 <_dtoa_r+0x3f4>
   11958:	e3130001 	tst	r3, #1
   1195c:	1d926b00 	vldrne	d6, [r2]
   11960:	12811001 	addne	r1, r1, #1
   11964:	1e277b06 	vmulne.f64	d7, d7, d6
   11968:	e1b030c3 	asrs	r3, r3, #1
   1196c:	e2822008 	add	r2, r2, #8
   11970:	1afffff8 	bne	11958 <_dtoa_r+0x838>
   11974:	ee844b07 	vdiv.f64	d4, d4, d7
   11978:	e59d3030 	ldr	r3, [sp, #48]	; 0x30
   1197c:	e3530000 	cmp	r3, #0
   11980:	0a000003 	beq	11994 <_dtoa_r+0x874>
   11984:	ed9f7bef 	vldr	d7, [pc, #956]	; 11d48 <_dtoa_r+0xc28>
   11988:	eeb44bc7 	vcmpe.f64	d4, d7
   1198c:	eef1fa10 	vmrs	APSR_nzcv, fpscr
   11990:	4a0001fa 	bmi	12180 <_dtoa_r+0x1060>
   11994:	ee071a90 	vmov	s15, r1
   11998:	eeb86be7 	vcvt.f64.s32	d6, s15
   1199c:	ed9f7beb 	vldr	d7, [pc, #940]	; 11d50 <_dtoa_r+0xc30>
   119a0:	ee067b04 	vmla.f64	d7, d6, d4
   119a4:	ec532b17 	vmov	r2, r3, d7
   119a8:	e59d1014 	ldr	r1, [sp, #20]
   119ac:	e243350d 	sub	r3, r3, #54525952	; 0x3400000
   119b0:	e3510000 	cmp	r1, #0
   119b4:	0a00008f 	beq	11bf8 <_dtoa_r+0xad8>
   119b8:	e59de008 	ldr	lr, [sp, #8]
   119bc:	e59d0014 	ldr	r0, [sp, #20]
   119c0:	e59d1020 	ldr	r1, [sp, #32]
   119c4:	e3510000 	cmp	r1, #0
   119c8:	0a000101 	beq	11dd4 <_dtoa_r+0xcb4>
   119cc:	e59f13a0 	ldr	r1, [pc, #928]	; 11d74 <_dtoa_r+0xc54>
   119d0:	ed9f7be0 	vldr	d7, [pc, #896]	; 11d58 <_dtoa_r+0xc38>
   119d4:	e0811180 	add	r1, r1, r0, lsl #3
   119d8:	eefd6bc4 	vcvt.s32.f64	s13, d4
   119dc:	ed113b02 	vldr	d3, [r1, #-8]
   119e0:	ec432b12 	vmov	d2, r2, r3
   119e4:	ee873b03 	vdiv.f64	d3, d7, d3
   119e8:	eeb87be6 	vcvt.f64.s32	d7, s13
   119ec:	ee333b42 	vsub.f64	d3, d3, d2
   119f0:	ee347b47 	vsub.f64	d7, d4, d7
   119f4:	eeb43bc7 	vcmpe.f64	d3, d7
   119f8:	ee163a90 	vmov	r3, s13
   119fc:	eef1fa10 	vmrs	APSR_nzcv, fpscr
   11a00:	e2833030 	add	r3, r3, #48	; 0x30
   11a04:	e6ef3073 	uxtb	r3, r3
   11a08:	e5c63000 	strb	r3, [r6]
   11a0c:	e286b001 	add	fp, r6, #1
   11a10:	ca00001b 	bgt	11a84 <_dtoa_r+0x964>
   11a14:	ed9f1bcb 	vldr	d1, [pc, #812]	; 11d48 <_dtoa_r+0xc28>
   11a18:	ee316b47 	vsub.f64	d6, d1, d7
   11a1c:	eeb43bc6 	vcmpe.f64	d3, d6
   11a20:	eef1fa10 	vmrs	APSR_nzcv, fpscr
   11a24:	ca000057 	bgt	11b88 <_dtoa_r+0xa68>
   11a28:	e3500001 	cmp	r0, #1
   11a2c:	da0000c1 	ble	11d38 <_dtoa_r+0xc18>
   11a30:	e0860000 	add	r0, r6, r0
   11a34:	ed9f2bc9 	vldr	d2, [pc, #804]	; 11d60 <_dtoa_r+0xc40>
   11a38:	ea000005 	b	11a54 <_dtoa_r+0x934>
   11a3c:	ee316b47 	vsub.f64	d6, d1, d7
   11a40:	eeb46bc3 	vcmpe.f64	d6, d3
   11a44:	eef1fa10 	vmrs	APSR_nzcv, fpscr
   11a48:	4a00004e 	bmi	11b88 <_dtoa_r+0xa68>
   11a4c:	e15b0000 	cmp	fp, r0
   11a50:	0a0000b8 	beq	11d38 <_dtoa_r+0xc18>
   11a54:	ee277b02 	vmul.f64	d7, d7, d2
   11a58:	eefd4bc7 	vcvt.s32.f64	s9, d7
   11a5c:	eeb86be4 	vcvt.f64.s32	d6, s9
   11a60:	ee233b02 	vmul.f64	d3, d3, d2
   11a64:	ee377b46 	vsub.f64	d7, d7, d6
   11a68:	eeb47bc3 	vcmpe.f64	d7, d3
   11a6c:	ee143a90 	vmov	r3, s9
   11a70:	eef1fa10 	vmrs	APSR_nzcv, fpscr
   11a74:	e2833030 	add	r3, r3, #48	; 0x30
   11a78:	e6ef3073 	uxtb	r3, r3
   11a7c:	e4cb3001 	strb	r3, [fp], #1
   11a80:	5affffed 	bpl	11a3c <_dtoa_r+0x91c>
   11a84:	e58de008 	str	lr, [sp, #8]
   11a88:	eaffff2d 	b	11744 <_dtoa_r+0x624>
   11a8c:	e3a03000 	mov	r3, #0
   11a90:	e58d3020 	str	r3, [sp, #32]
   11a94:	e59d3008 	ldr	r3, [sp, #8]
   11a98:	e0873003 	add	r3, r7, r3
   11a9c:	e58d3034 	str	r3, [sp, #52]	; 0x34
   11aa0:	e2833001 	add	r3, r3, #1
   11aa4:	e3530000 	cmp	r3, #0
   11aa8:	e58d3014 	str	r3, [sp, #20]
   11aac:	da00019b 	ble	12120 <_dtoa_r+0x1000>
   11ab0:	e59d3014 	ldr	r3, [sp, #20]
   11ab4:	e353000e 	cmp	r3, #14
   11ab8:	83a0c000 	movhi	ip, #0
   11abc:	9202c001 	andls	ip, r2, #1
   11ac0:	e1a00003 	mov	r0, r3
   11ac4:	eaffff7a 	b	118b4 <_dtoa_r+0x794>
   11ac8:	e3a03000 	mov	r3, #0
   11acc:	e58d3020 	str	r3, [sp, #32]
   11ad0:	eaffff6f 	b	11894 <_dtoa_r+0x774>
   11ad4:	ec4bab17 	vmov	d7, sl, fp
   11ad8:	ee876b05 	vdiv.f64	d6, d7, d5
   11adc:	eebd6bc6 	vcvt.s32.f64	s12, d6
   11ae0:	e59d3014 	ldr	r3, [sp, #20]
   11ae4:	eeb84bc6 	vcvt.f64.s32	d4, s12
   11ae8:	e3530001 	cmp	r3, #1
   11aec:	ee163a10 	vmov	r3, s12
   11af0:	e2833030 	add	r3, r3, #48	; 0x30
   11af4:	ee047b45 	vmls.f64	d7, d4, d5
   11af8:	e5c63000 	strb	r3, [r6]
   11afc:	e286b001 	add	fp, r6, #1
   11b00:	0a000014 	beq	11b58 <_dtoa_r+0xa38>
   11b04:	ed9f3b95 	vldr	d3, [pc, #596]	; 11d60 <_dtoa_r+0xc40>
   11b08:	ee277b03 	vmul.f64	d7, d7, d3
   11b0c:	eeb57b40 	vcmp.f64	d7, #0.0
   11b10:	eef1fa10 	vmrs	APSR_nzcv, fpscr
   11b14:	159d2014 	ldrne	r2, [sp, #20]
   11b18:	1a000004 	bne	11b30 <_dtoa_r+0xa10>
   11b1c:	eaffff08 	b	11744 <_dtoa_r+0x624>
   11b20:	ee277b03 	vmul.f64	d7, d7, d3
   11b24:	eeb57b40 	vcmp.f64	d7, #0.0
   11b28:	eef1fa10 	vmrs	APSR_nzcv, fpscr
   11b2c:	0affff04 	beq	11744 <_dtoa_r+0x624>
   11b30:	ee876b05 	vdiv.f64	d6, d7, d5
   11b34:	eebd6bc6 	vcvt.s32.f64	s12, d6
   11b38:	ee163a10 	vmov	r3, s12
   11b3c:	eeb84bc6 	vcvt.f64.s32	d4, s12
   11b40:	e2833030 	add	r3, r3, #48	; 0x30
   11b44:	e4cb3001 	strb	r3, [fp], #1
   11b48:	e066300b 	rsb	r3, r6, fp
   11b4c:	e1520003 	cmp	r2, r3
   11b50:	ee047b45 	vmls.f64	d7, d4, d5
   11b54:	1afffff1 	bne	11b20 <_dtoa_r+0xa00>
   11b58:	ee377b07 	vadd.f64	d7, d7, d7
   11b5c:	eeb45bc7 	vcmpe.f64	d5, d7
   11b60:	eef1fa10 	vmrs	APSR_nzcv, fpscr
   11b64:	4a000005 	bmi	11b80 <_dtoa_r+0xa60>
   11b68:	eeb45b47 	vcmp.f64	d5, d7
   11b6c:	eef1fa10 	vmrs	APSR_nzcv, fpscr
   11b70:	1afffef3 	bne	11744 <_dtoa_r+0x624>
   11b74:	ee163a10 	vmov	r3, s12
   11b78:	e3130001 	tst	r3, #1
   11b7c:	0afffef0 	beq	11744 <_dtoa_r+0x624>
   11b80:	e59de008 	ldr	lr, [sp, #8]
   11b84:	e55b3001 	ldrb	r3, [fp, #-1]
   11b88:	e24b2001 	sub	r2, fp, #1
   11b8c:	ea000002 	b	11b9c <_dtoa_r+0xa7c>
   11b90:	e1520006 	cmp	r2, r6
   11b94:	0a000173 	beq	12168 <_dtoa_r+0x1048>
   11b98:	e5723001 	ldrb	r3, [r2, #-1]!
   11b9c:	e3530039 	cmp	r3, #57	; 0x39
   11ba0:	e282b001 	add	fp, r2, #1
   11ba4:	0afffff9 	beq	11b90 <_dtoa_r+0xa70>
   11ba8:	e2833001 	add	r3, r3, #1
   11bac:	e58de008 	str	lr, [sp, #8]
   11bb0:	e6ef3073 	uxtb	r3, r3
   11bb4:	e5c23000 	strb	r3, [r2]
   11bb8:	eafffee1 	b	11744 <_dtoa_r+0x624>
   11bbc:	e3550001 	cmp	r5, #1
   11bc0:	da0000cd 	ble	11efc <_dtoa_r+0xddc>
   11bc4:	e3a03000 	mov	r3, #0
   11bc8:	e58d3038 	str	r3, [sp, #56]	; 0x38
   11bcc:	e59d3024 	ldr	r3, [sp, #36]	; 0x24
   11bd0:	e3530000 	cmp	r3, #0
   11bd4:	03a00001 	moveq	r0, #1
   11bd8:	0afffe95 	beq	11634 <_dtoa_r+0x514>
   11bdc:	eafffe8e 	b	1161c <_dtoa_r+0x4fc>
   11be0:	ee071a90 	vmov	s15, r1
   11be4:	eeb86be7 	vcvt.f64.s32	d6, s15
   11be8:	ed9f7b58 	vldr	d7, [pc, #352]	; 11d50 <_dtoa_r+0xc30>
   11bec:	ee067b04 	vmla.f64	d7, d6, d4
   11bf0:	ec532b17 	vmov	r2, r3, d7
   11bf4:	e243350d 	sub	r3, r3, #54525952	; 0x3400000
   11bf8:	ed9f7b5a 	vldr	d7, [pc, #360]	; 11d68 <_dtoa_r+0xc48>
   11bfc:	ec432b16 	vmov	d6, r2, r3
   11c00:	ee347b47 	vsub.f64	d7, d4, d7
   11c04:	eeb47bc6 	vcmpe.f64	d7, d6
   11c08:	eef1fa10 	vmrs	APSR_nzcv, fpscr
   11c0c:	ca000045 	bgt	11d28 <_dtoa_r+0xc08>
   11c10:	eeb16b46 	vneg.f64	d6, d6
   11c14:	eeb47bc6 	vcmpe.f64	d7, d6
   11c18:	eef1fa10 	vmrs	APSR_nzcv, fpscr
   11c1c:	5a000045 	bpl	11d38 <_dtoa_r+0xc18>
   11c20:	e3a03000 	mov	r3, #0
   11c24:	e58d3010 	str	r3, [sp, #16]
   11c28:	e58d301c 	str	r3, [sp, #28]
   11c2c:	eafffe20 	b	114b4 <_dtoa_r+0x394>
   11c30:	e59d3020 	ldr	r3, [sp, #32]
   11c34:	e3530000 	cmp	r3, #0
   11c38:	1a0000d2 	bne	11f88 <_dtoa_r+0xe68>
   11c3c:	e1a07006 	mov	r7, r6
   11c40:	e59d5010 	ldr	r5, [sp, #16]
   11c44:	e59da014 	ldr	sl, [sp, #20]
   11c48:	ea000005 	b	11c64 <_dtoa_r+0xb44>
   11c4c:	e1a01009 	mov	r1, r9
   11c50:	e1a00004 	mov	r0, r4
   11c54:	e3a0200a 	mov	r2, #10
   11c58:	e3a03000 	mov	r3, #0
   11c5c:	eb0003bf 	bl	12b60 <__multadd>
   11c60:	e1a09000 	mov	r9, r0
   11c64:	e1a00009 	mov	r0, r9
   11c68:	e1a01005 	mov	r1, r5
   11c6c:	ebfffcbb 	bl	10f60 <quorem>
   11c70:	e2800030 	add	r0, r0, #48	; 0x30
   11c74:	e4c70001 	strb	r0, [r7], #1
   11c78:	e0663007 	rsb	r3, r6, r7
   11c7c:	e153000a 	cmp	r3, sl
   11c80:	bafffff1 	blt	11c4c <_dtoa_r+0xb2c>
   11c84:	e59d3014 	ldr	r3, [sp, #20]
   11c88:	e1a08000 	mov	r8, r0
   11c8c:	e3530001 	cmp	r3, #1
   11c90:	a086b003 	addge	fp, r6, r3
   11c94:	b286b001 	addlt	fp, r6, #1
   11c98:	e3a0a000 	mov	sl, #0
   11c9c:	e1a01009 	mov	r1, r9
   11ca0:	e3a02001 	mov	r2, #1
   11ca4:	e1a00004 	mov	r0, r4
   11ca8:	eb000515 	bl	13104 <__lshift>
   11cac:	e59d1010 	ldr	r1, [sp, #16]
   11cb0:	e1a09000 	mov	r9, r0
   11cb4:	eb00054f 	bl	131f8 <__mcmp>
   11cb8:	e3500000 	cmp	r0, #0
   11cbc:	da000179 	ble	122a8 <_dtoa_r+0x1188>
   11cc0:	e55b2001 	ldrb	r2, [fp, #-1]
   11cc4:	e24b3001 	sub	r3, fp, #1
   11cc8:	ea000002 	b	11cd8 <_dtoa_r+0xbb8>
   11ccc:	e1530006 	cmp	r3, r6
   11cd0:	0a000144 	beq	121e8 <_dtoa_r+0x10c8>
   11cd4:	e5732001 	ldrb	r2, [r3, #-1]!
   11cd8:	e3520039 	cmp	r2, #57	; 0x39
   11cdc:	e283b001 	add	fp, r3, #1
   11ce0:	0afffff9 	beq	11ccc <_dtoa_r+0xbac>
   11ce4:	e2822001 	add	r2, r2, #1
   11ce8:	e5c32000 	strb	r2, [r3]
   11cec:	e59d1010 	ldr	r1, [sp, #16]
   11cf0:	e1a00004 	mov	r0, r4
   11cf4:	eb000392 	bl	12b44 <_Bfree>
   11cf8:	e59d301c 	ldr	r3, [sp, #28]
   11cfc:	e3530000 	cmp	r3, #0
   11d00:	0afffe8f 	beq	11744 <_dtoa_r+0x624>
   11d04:	e15a0003 	cmp	sl, r3
   11d08:	135a0000 	cmpne	sl, #0
   11d0c:	0afffe89 	beq	11738 <_dtoa_r+0x618>
   11d10:	e1a0100a 	mov	r1, sl
   11d14:	e1a00004 	mov	r0, r4
   11d18:	eb000389 	bl	12b44 <_Bfree>
   11d1c:	eafffe85 	b	11738 <_dtoa_r+0x618>
   11d20:	e3a0001c 	mov	r0, #28
   11d24:	eafffe49 	b	11650 <_dtoa_r+0x530>
   11d28:	e3a03000 	mov	r3, #0
   11d2c:	e58d3010 	str	r3, [sp, #16]
   11d30:	e58d301c 	str	r3, [sp, #28]
   11d34:	eafffe73 	b	11708 <_dtoa_r+0x5e8>
   11d38:	ed8d5b0a 	vstr	d5, [sp, #40]	; 0x28
   11d3c:	e1cda2d8 	ldrd	sl, [sp, #40]	; 0x28
   11d40:	eafffdbb 	b	11434 <_dtoa_r+0x314>
   11d44:	e320f000 	nop	{0}
   11d48:	00000000 	andeq	r0, r0, r0
   11d4c:	3ff00000 	svccc	0x00f00000	; IMB
   11d50:	00000000 	andeq	r0, r0, r0
   11d54:	401c0000 	andsmi	r0, ip, r0
   11d58:	00000000 	andeq	r0, r0, r0
   11d5c:	3fe00000 	svccc	0x00e00000
   11d60:	00000000 	andeq	r0, r0, r0
   11d64:	40240000 	eormi	r0, r4, r0
   11d68:	00000000 	andeq	r0, r0, r0
   11d6c:	40140000 	andsmi	r0, r4, r0
   11d70:	00016ea8 	andeq	r6, r1, r8, lsr #29
   11d74:	00016db8 			; <UNDEFINED> instruction: 0x00016db8
   11d78:	e59d3008 	ldr	r3, [sp, #8]
   11d7c:	e2633000 	rsb	r3, r3, #0
   11d80:	e3530000 	cmp	r3, #0
   11d84:	0eb04b45 	vmoveq.f64	d4, d5
   11d88:	03a01002 	moveq	r1, #2
   11d8c:	0afffef9 	beq	11978 <_dtoa_r+0x858>
   11d90:	e51f2024 	ldr	r2, [pc, #-36]	; 11d74 <_dtoa_r+0xc54>
   11d94:	e203100f 	and	r1, r3, #15
   11d98:	e0822181 	add	r2, r2, r1, lsl #3
   11d9c:	ed927b00 	vldr	d7, [r2]
   11da0:	e1b03243 	asrs	r3, r3, #4
   11da4:	e3a01002 	mov	r1, #2
   11da8:	ee254b07 	vmul.f64	d4, d5, d7
   11dac:	0afffef1 	beq	11978 <_dtoa_r+0x858>
   11db0:	e51f2048 	ldr	r2, [pc, #-72]	; 11d70 <_dtoa_r+0xc50>
   11db4:	e3130001 	tst	r3, #1
   11db8:	1d927b00 	vldrne	d7, [r2]
   11dbc:	12811001 	addne	r1, r1, #1
   11dc0:	1e244b07 	vmulne.f64	d4, d4, d7
   11dc4:	e1b030c3 	asrs	r3, r3, #1
   11dc8:	e2822008 	add	r2, r2, #8
   11dcc:	1afffff8 	bne	11db4 <_dtoa_r+0xc94>
   11dd0:	eafffee8 	b	11978 <_dtoa_r+0x858>
   11dd4:	eefd7bc4 	vcvt.s32.f64	s15, d4
   11dd8:	e51fc06c 	ldr	ip, [pc, #-108]	; 11d74 <_dtoa_r+0xc54>
   11ddc:	e2401001 	sub	r1, r0, #1
   11de0:	e08cc181 	add	ip, ip, r1, lsl #3
   11de4:	ed9c2b00 	vldr	d2, [ip]
   11de8:	ee17ca90 	vmov	ip, s15
   11dec:	eeb86be7 	vcvt.f64.s32	d6, s15
   11df0:	ec432b17 	vmov	d7, r2, r3
   11df4:	e28cc030 	add	ip, ip, #48	; 0x30
   11df8:	e3500001 	cmp	r0, #1
   11dfc:	ee222b07 	vmul.f64	d2, d2, d7
   11e00:	e5c6c000 	strb	ip, [r6]
   11e04:	ee347b46 	vsub.f64	d7, d4, d6
   11e08:	e286b001 	add	fp, r6, #1
   11e0c:	0a00000c 	beq	11e44 <_dtoa_r+0xd24>
   11e10:	e1a0200b 	mov	r2, fp
   11e14:	ed9f3bf9 	vldr	d3, [pc, #996]	; 12200 <_dtoa_r+0x10e0>
   11e18:	e0860000 	add	r0, r6, r0
   11e1c:	ee277b03 	vmul.f64	d7, d7, d3
   11e20:	eefd4bc7 	vcvt.s32.f64	s9, d7
   11e24:	ee143a90 	vmov	r3, s9
   11e28:	eeb86be4 	vcvt.f64.s32	d6, s9
   11e2c:	e2833030 	add	r3, r3, #48	; 0x30
   11e30:	e4c23001 	strb	r3, [r2], #1
   11e34:	e1520000 	cmp	r2, r0
   11e38:	ee377b46 	vsub.f64	d7, d7, d6
   11e3c:	1afffff6 	bne	11e1c <_dtoa_r+0xcfc>
   11e40:	e08bb001 	add	fp, fp, r1
   11e44:	ed9f6bef 	vldr	d6, [pc, #956]	; 12208 <_dtoa_r+0x10e8>
   11e48:	ee324b06 	vadd.f64	d4, d2, d6
   11e4c:	eeb44bc7 	vcmpe.f64	d4, d7
   11e50:	eef1fa10 	vmrs	APSR_nzcv, fpscr
   11e54:	4affff4a 	bmi	11b84 <_dtoa_r+0xa64>
   11e58:	ee366b42 	vsub.f64	d6, d6, d2
   11e5c:	eeb46bc7 	vcmpe.f64	d6, d7
   11e60:	eef1fa10 	vmrs	APSR_nzcv, fpscr
   11e64:	ca000001 	bgt	11e70 <_dtoa_r+0xd50>
   11e68:	eaffffb2 	b	11d38 <_dtoa_r+0xc18>
   11e6c:	e1a0b002 	mov	fp, r2
   11e70:	e55b3001 	ldrb	r3, [fp, #-1]
   11e74:	e24b2001 	sub	r2, fp, #1
   11e78:	e3530030 	cmp	r3, #48	; 0x30
   11e7c:	0afffffa 	beq	11e6c <_dtoa_r+0xd4c>
   11e80:	eafffeff 	b	11a84 <_dtoa_r+0x964>
   11e84:	e1a00009 	mov	r0, r9
   11e88:	e59d1010 	ldr	r1, [sp, #16]
   11e8c:	eb0004d9 	bl	131f8 <__mcmp>
   11e90:	e3500000 	cmp	r0, #0
   11e94:	aafffe06 	bge	116b4 <_dtoa_r+0x594>
   11e98:	e1a01009 	mov	r1, r9
   11e9c:	e3a03000 	mov	r3, #0
   11ea0:	e1a00004 	mov	r0, r4
   11ea4:	e3a0200a 	mov	r2, #10
   11ea8:	eb00032c 	bl	12b60 <__multadd>
   11eac:	e59d3020 	ldr	r3, [sp, #32]
   11eb0:	e1a09000 	mov	r9, r0
   11eb4:	e3530000 	cmp	r3, #0
   11eb8:	e59d3008 	ldr	r3, [sp, #8]
   11ebc:	e2433001 	sub	r3, r3, #1
   11ec0:	e58d3008 	str	r3, [sp, #8]
   11ec4:	1a00001f 	bne	11f48 <_dtoa_r+0xe28>
   11ec8:	e59d2034 	ldr	r2, [sp, #52]	; 0x34
   11ecc:	e3550002 	cmp	r5, #2
   11ed0:	c3a03001 	movgt	r3, #1
   11ed4:	d3a03000 	movle	r3, #0
   11ed8:	e3520000 	cmp	r2, #0
   11edc:	c3a03000 	movgt	r3, #0
   11ee0:	e3530000 	cmp	r3, #0
   11ee4:	01a03002 	moveq	r3, r2
   11ee8:	058d3014 	streq	r3, [sp, #20]
   11eec:	0affff52 	beq	11c3c <_dtoa_r+0xb1c>
   11ef0:	e59d3034 	ldr	r3, [sp, #52]	; 0x34
   11ef4:	e58d3014 	str	r3, [sp, #20]
   11ef8:	eafffdf5 	b	116d4 <_dtoa_r+0x5b4>
   11efc:	e35a0000 	cmp	sl, #0
   11f00:	1affff2f 	bne	11bc4 <_dtoa_r+0xaa4>
   11f04:	e3cb34ff 	bic	r3, fp, #-16777216	; 0xff000000
   11f08:	e3c3360f 	bic	r3, r3, #15728640	; 0xf00000
   11f0c:	e3530000 	cmp	r3, #0
   11f10:	1affff2b 	bne	11bc4 <_dtoa_r+0xaa4>
   11f14:	e3cb3102 	bic	r3, fp, #-2147483648	; 0x80000000
   11f18:	e1a03a23 	lsr	r3, r3, #20
   11f1c:	e1a03a03 	lsl	r3, r3, #20
   11f20:	e3530000 	cmp	r3, #0
   11f24:	058d3038 	streq	r3, [sp, #56]	; 0x38
   11f28:	0affff27 	beq	11bcc <_dtoa_r+0xaac>
   11f2c:	e59d3018 	ldr	r3, [sp, #24]
   11f30:	e2888001 	add	r8, r8, #1
   11f34:	e2833001 	add	r3, r3, #1
   11f38:	e58d3018 	str	r3, [sp, #24]
   11f3c:	e3a03001 	mov	r3, #1
   11f40:	e58d3038 	str	r3, [sp, #56]	; 0x38
   11f44:	eaffff20 	b	11bcc <_dtoa_r+0xaac>
   11f48:	e3a03000 	mov	r3, #0
   11f4c:	e3a0200a 	mov	r2, #10
   11f50:	e59d101c 	ldr	r1, [sp, #28]
   11f54:	e1a00004 	mov	r0, r4
   11f58:	eb000300 	bl	12b60 <__multadd>
   11f5c:	e59d2034 	ldr	r2, [sp, #52]	; 0x34
   11f60:	e3550002 	cmp	r5, #2
   11f64:	c3a03001 	movgt	r3, #1
   11f68:	d3a03000 	movle	r3, #0
   11f6c:	e3520000 	cmp	r2, #0
   11f70:	c3a03000 	movgt	r3, #0
   11f74:	e3530000 	cmp	r3, #0
   11f78:	01a03002 	moveq	r3, r2
   11f7c:	e58d001c 	str	r0, [sp, #28]
   11f80:	058d3014 	streq	r3, [sp, #20]
   11f84:	1affffd9 	bne	11ef0 <_dtoa_r+0xdd0>
   11f88:	e59d3028 	ldr	r3, [sp, #40]	; 0x28
   11f8c:	e3530000 	cmp	r3, #0
   11f90:	da000004 	ble	11fa8 <_dtoa_r+0xe88>
   11f94:	e59d101c 	ldr	r1, [sp, #28]
   11f98:	e1a02003 	mov	r2, r3
   11f9c:	e1a00004 	mov	r0, r4
   11fa0:	eb000457 	bl	13104 <__lshift>
   11fa4:	e58d001c 	str	r0, [sp, #28]
   11fa8:	e59d3038 	ldr	r3, [sp, #56]	; 0x38
   11fac:	e3530000 	cmp	r3, #0
   11fb0:	1a0000c6 	bne	122d0 <_dtoa_r+0x11b0>
   11fb4:	e59d301c 	ldr	r3, [sp, #28]
   11fb8:	e58d3018 	str	r3, [sp, #24]
   11fbc:	e59d3014 	ldr	r3, [sp, #20]
   11fc0:	e1a07006 	mov	r7, r6
   11fc4:	e2433001 	sub	r3, r3, #1
   11fc8:	e0863003 	add	r3, r6, r3
   11fcc:	e58d3024 	str	r3, [sp, #36]	; 0x24
   11fd0:	e20a3001 	and	r3, sl, #1
   11fd4:	e58d6030 	str	r6, [sp, #48]	; 0x30
   11fd8:	e1a08005 	mov	r8, r5
   11fdc:	e58d3020 	str	r3, [sp, #32]
   11fe0:	e59d6018 	ldr	r6, [sp, #24]
   11fe4:	e59d501c 	ldr	r5, [sp, #28]
   11fe8:	ea000008 	b	12010 <_dtoa_r+0xef0>
   11fec:	eb0002db 	bl	12b60 <__multadd>
   11ff0:	e1a01006 	mov	r1, r6
   11ff4:	e1a05000 	mov	r5, r0
   11ff8:	e3a0200a 	mov	r2, #10
   11ffc:	e1a00004 	mov	r0, r4
   12000:	e3a03000 	mov	r3, #0
   12004:	eb0002d5 	bl	12b60 <__multadd>
   12008:	e1a06000 	mov	r6, r0
   1200c:	e1a0700a 	mov	r7, sl
   12010:	e59d1010 	ldr	r1, [sp, #16]
   12014:	e1a00009 	mov	r0, r9
   12018:	ebfffbd0 	bl	10f60 <quorem>
   1201c:	e1a01005 	mov	r1, r5
   12020:	e1a0b000 	mov	fp, r0
   12024:	e1a00009 	mov	r0, r9
   12028:	eb000472 	bl	131f8 <__mcmp>
   1202c:	e59d1010 	ldr	r1, [sp, #16]
   12030:	e1a02006 	mov	r2, r6
   12034:	e1a0a000 	mov	sl, r0
   12038:	e1a00004 	mov	r0, r4
   1203c:	eb000486 	bl	1325c <__mdiff>
   12040:	e590200c 	ldr	r2, [r0, #12]
   12044:	e28b1030 	add	r1, fp, #48	; 0x30
   12048:	e3520000 	cmp	r2, #0
   1204c:	e1a03000 	mov	r3, r0
   12050:	e58d1014 	str	r1, [sp, #20]
   12054:	1a00002f 	bne	12118 <_dtoa_r+0xff8>
   12058:	e1a01003 	mov	r1, r3
   1205c:	e1a00009 	mov	r0, r9
   12060:	e58d3018 	str	r3, [sp, #24]
   12064:	eb000463 	bl	131f8 <__mcmp>
   12068:	e1a02000 	mov	r2, r0
   1206c:	e59d3018 	ldr	r3, [sp, #24]
   12070:	e1a01003 	mov	r1, r3
   12074:	e1a00004 	mov	r0, r4
   12078:	e58d2018 	str	r2, [sp, #24]
   1207c:	eb0002b0 	bl	12b44 <_Bfree>
   12080:	e59d2018 	ldr	r2, [sp, #24]
   12084:	e1923008 	orrs	r3, r2, r8
   12088:	1a000002 	bne	12098 <_dtoa_r+0xf78>
   1208c:	e59d3020 	ldr	r3, [sp, #32]
   12090:	e3530000 	cmp	r3, #0
   12094:	0a0000b1 	beq	12360 <_dtoa_r+0x1240>
   12098:	e35a0000 	cmp	sl, #0
   1209c:	ba000068 	blt	12244 <_dtoa_r+0x1124>
   120a0:	e19a3008 	orrs	r3, sl, r8
   120a4:	1a000002 	bne	120b4 <_dtoa_r+0xf94>
   120a8:	e59d3020 	ldr	r3, [sp, #32]
   120ac:	e3530000 	cmp	r3, #0
   120b0:	0a000063 	beq	12244 <_dtoa_r+0x1124>
   120b4:	e3520000 	cmp	r2, #0
   120b8:	ca000095 	bgt	12314 <_dtoa_r+0x11f4>
   120bc:	e59d3024 	ldr	r3, [sp, #36]	; 0x24
   120c0:	e287a001 	add	sl, r7, #1
   120c4:	e1570003 	cmp	r7, r3
   120c8:	e5dd3014 	ldrb	r3, [sp, #20]
   120cc:	e1a0b00a 	mov	fp, sl
   120d0:	e5c73000 	strb	r3, [r7]
   120d4:	0a00009b 	beq	12348 <_dtoa_r+0x1228>
   120d8:	e1a01009 	mov	r1, r9
   120dc:	e3a0200a 	mov	r2, #10
   120e0:	e3a03000 	mov	r3, #0
   120e4:	e1a00004 	mov	r0, r4
   120e8:	eb00029c 	bl	12b60 <__multadd>
   120ec:	e1550006 	cmp	r5, r6
   120f0:	e1a09000 	mov	r9, r0
   120f4:	e1a01005 	mov	r1, r5
   120f8:	e1a00004 	mov	r0, r4
   120fc:	e3a0200a 	mov	r2, #10
   12100:	e3a03000 	mov	r3, #0
   12104:	1affffb8 	bne	11fec <_dtoa_r+0xecc>
   12108:	eb000294 	bl	12b60 <__multadd>
   1210c:	e1a05000 	mov	r5, r0
   12110:	e1a06000 	mov	r6, r0
   12114:	eaffffbc 	b	1200c <_dtoa_r+0xeec>
   12118:	e3a02001 	mov	r2, #1
   1211c:	eaffffd3 	b	12070 <_dtoa_r+0xf50>
   12120:	e353000e 	cmp	r3, #14
   12124:	83a03000 	movhi	r3, #0
   12128:	93a03001 	movls	r3, #1
   1212c:	e3a01000 	mov	r1, #0
   12130:	e003c002 	and	ip, r3, r2
   12134:	e5841044 	str	r1, [r4, #68]	; 0x44
   12138:	eafffdea 	b	118e8 <_dtoa_r+0x7c8>
   1213c:	e3a03001 	mov	r3, #1
   12140:	e58d3034 	str	r3, [sp, #52]	; 0x34
   12144:	e58d3014 	str	r3, [sp, #20]
   12148:	e1a07003 	mov	r7, r3
   1214c:	eafffff6 	b	1212c <_dtoa_r+0x100c>
   12150:	e1a01009 	mov	r1, r9
   12154:	e59d2010 	ldr	r2, [sp, #16]
   12158:	e1a00004 	mov	r0, r4
   1215c:	eb0003a8 	bl	13004 <__pow5mult>
   12160:	e1a09000 	mov	r9, r0
   12164:	eafffd1c 	b	115dc <_dtoa_r+0x4bc>
   12168:	e3a03030 	mov	r3, #48	; 0x30
   1216c:	e28e1001 	add	r1, lr, #1
   12170:	e5c23000 	strb	r3, [r2]
   12174:	e58d1008 	str	r1, [sp, #8]
   12178:	e3a03031 	mov	r3, #49	; 0x31
   1217c:	eafffe8c 	b	11bb4 <_dtoa_r+0xa94>
   12180:	e59d3014 	ldr	r3, [sp, #20]
   12184:	e3530000 	cmp	r3, #0
   12188:	0afffe94 	beq	11be0 <_dtoa_r+0xac0>
   1218c:	e59d0034 	ldr	r0, [sp, #52]	; 0x34
   12190:	e3500000 	cmp	r0, #0
   12194:	dafffee7 	ble	11d38 <_dtoa_r+0xc18>
   12198:	e2811001 	add	r1, r1, #1
   1219c:	ed9f7b17 	vldr	d7, [pc, #92]	; 12200 <_dtoa_r+0x10e0>
   121a0:	ee061a90 	vmov	s13, r1
   121a4:	ee244b07 	vmul.f64	d4, d4, d7
   121a8:	eeb86be6 	vcvt.f64.s32	d6, s13
   121ac:	ed9f7b17 	vldr	d7, [pc, #92]	; 12210 <_dtoa_r+0x10f0>
   121b0:	ee047b06 	vmla.f64	d7, d4, d6
   121b4:	ec532b17 	vmov	r2, r3, d7
   121b8:	e59d1008 	ldr	r1, [sp, #8]
   121bc:	e243350d 	sub	r3, r3, #54525952	; 0x3400000
   121c0:	e241e001 	sub	lr, r1, #1
   121c4:	eafffdfd 	b	119c0 <_dtoa_r+0x8a0>
   121c8:	e1a01009 	mov	r1, r9
   121cc:	e1a00004 	mov	r0, r4
   121d0:	eb00038b 	bl	13004 <__pow5mult>
   121d4:	e1a09000 	mov	r9, r0
   121d8:	eafffcff 	b	115dc <_dtoa_r+0x4bc>
   121dc:	e35a0000 	cmp	sl, #0
   121e0:	0affff47 	beq	11f04 <_dtoa_r+0xde4>
   121e4:	eafffd0a 	b	11614 <_dtoa_r+0x4f4>
   121e8:	e3a03031 	mov	r3, #49	; 0x31
   121ec:	e59d2008 	ldr	r2, [sp, #8]
   121f0:	e5c63000 	strb	r3, [r6]
   121f4:	e2822001 	add	r2, r2, #1
   121f8:	e58d2008 	str	r2, [sp, #8]
   121fc:	eafffeba 	b	11cec <_dtoa_r+0xbcc>
   12200:	00000000 	andeq	r0, r0, r0
   12204:	40240000 	eormi	r0, r4, r0
   12208:	00000000 	andeq	r0, r0, r0
   1220c:	3fe00000 	svccc	0x00e00000
   12210:	00000000 	andeq	r0, r0, r0
   12214:	401c0000 	andsmi	r0, ip, r0
   12218:	e59d201c 	ldr	r2, [sp, #28]
   1221c:	e3520000 	cmp	r2, #0
   12220:	059d3040 	ldreq	r3, [sp, #64]	; 0x40
   12224:	e59d2018 	ldr	r2, [sp, #24]
   12228:	12833e43 	addne	r3, r3, #1072	; 0x430
   1222c:	12833003 	addne	r3, r3, #3
   12230:	159dc010 	ldrne	ip, [sp, #16]
   12234:	059dc010 	ldreq	ip, [sp, #16]
   12238:	02633036 	rsbeq	r3, r3, #54	; 0x36
   1223c:	e58d2028 	str	r2, [sp, #40]	; 0x28
   12240:	eafffd86 	b	11860 <_dtoa_r+0x740>
   12244:	e59d8014 	ldr	r8, [sp, #20]
   12248:	e3520000 	cmp	r2, #0
   1224c:	e58d6018 	str	r6, [sp, #24]
   12250:	e58d501c 	str	r5, [sp, #28]
   12254:	e59d6030 	ldr	r6, [sp, #48]	; 0x30
   12258:	e1a0b008 	mov	fp, r8
   1225c:	da00000b 	ble	12290 <_dtoa_r+0x1170>
   12260:	e1a01009 	mov	r1, r9
   12264:	e3a02001 	mov	r2, #1
   12268:	e1a00004 	mov	r0, r4
   1226c:	eb0003a4 	bl	13104 <__lshift>
   12270:	e59d1010 	ldr	r1, [sp, #16]
   12274:	e1a09000 	mov	r9, r0
   12278:	eb0003de 	bl	131f8 <__mcmp>
   1227c:	e3500000 	cmp	r0, #0
   12280:	da00004f 	ble	123c4 <_dtoa_r+0x12a4>
   12284:	e3580039 	cmp	r8, #57	; 0x39
   12288:	0a000042 	beq	12398 <_dtoa_r+0x1278>
   1228c:	e288b001 	add	fp, r8, #1
   12290:	e59d3018 	ldr	r3, [sp, #24]
   12294:	e59da01c 	ldr	sl, [sp, #28]
   12298:	e5c7b000 	strb	fp, [r7]
   1229c:	e58d301c 	str	r3, [sp, #28]
   122a0:	e287b001 	add	fp, r7, #1
   122a4:	eafffe90 	b	11cec <_dtoa_r+0xbcc>
   122a8:	1a000003 	bne	122bc <_dtoa_r+0x119c>
   122ac:	e3180001 	tst	r8, #1
   122b0:	0a000001 	beq	122bc <_dtoa_r+0x119c>
   122b4:	eafffe81 	b	11cc0 <_dtoa_r+0xba0>
   122b8:	e1a0b002 	mov	fp, r2
   122bc:	e55b3001 	ldrb	r3, [fp, #-1]
   122c0:	e24b2001 	sub	r2, fp, #1
   122c4:	e3530030 	cmp	r3, #48	; 0x30
   122c8:	0afffffa 	beq	122b8 <_dtoa_r+0x1198>
   122cc:	eafffe86 	b	11cec <_dtoa_r+0xbcc>
   122d0:	e59d801c 	ldr	r8, [sp, #28]
   122d4:	e1a00004 	mov	r0, r4
   122d8:	e5981004 	ldr	r1, [r8, #4]
   122dc:	eb0001f5 	bl	12ab8 <_Balloc>
   122e0:	e1a07000 	mov	r7, r0
   122e4:	e5982010 	ldr	r2, [r8, #16]
   122e8:	e288100c 	add	r1, r8, #12
   122ec:	e2822002 	add	r2, r2, #2
   122f0:	e1a02102 	lsl	r2, r2, #2
   122f4:	e280000c 	add	r0, r0, #12
   122f8:	ebffee8a 	bl	dd28 <memcpy>
   122fc:	e1a00004 	mov	r0, r4
   12300:	e1a01007 	mov	r1, r7
   12304:	e3a02001 	mov	r2, #1
   12308:	eb00037d 	bl	13104 <__lshift>
   1230c:	e58d0018 	str	r0, [sp, #24]
   12310:	eaffff29 	b	11fbc <_dtoa_r+0xe9c>
   12314:	e59d8014 	ldr	r8, [sp, #20]
   12318:	e58d6018 	str	r6, [sp, #24]
   1231c:	e3580039 	cmp	r8, #57	; 0x39
   12320:	e58d501c 	str	r5, [sp, #28]
   12324:	e59d6030 	ldr	r6, [sp, #48]	; 0x30
   12328:	0a000021 	beq	123b4 <_dtoa_r+0x1294>
   1232c:	e59d3018 	ldr	r3, [sp, #24]
   12330:	e2888001 	add	r8, r8, #1
   12334:	e59da01c 	ldr	sl, [sp, #28]
   12338:	e5c78000 	strb	r8, [r7]
   1233c:	e287b001 	add	fp, r7, #1
   12340:	e58d301c 	str	r3, [sp, #28]
   12344:	eafffe68 	b	11cec <_dtoa_r+0xbcc>
   12348:	e1a03006 	mov	r3, r6
   1234c:	e59d8014 	ldr	r8, [sp, #20]
   12350:	e59d6030 	ldr	r6, [sp, #48]	; 0x30
   12354:	e1a0a005 	mov	sl, r5
   12358:	e58d301c 	str	r3, [sp, #28]
   1235c:	eafffe4e 	b	11c9c <_dtoa_r+0xb7c>
   12360:	e59d8014 	ldr	r8, [sp, #20]
   12364:	e58d6018 	str	r6, [sp, #24]
   12368:	e3580039 	cmp	r8, #57	; 0x39
   1236c:	e58d501c 	str	r5, [sp, #28]
   12370:	e59d6030 	ldr	r6, [sp, #48]	; 0x30
   12374:	0a000007 	beq	12398 <_dtoa_r+0x1278>
   12378:	e35a0000 	cmp	sl, #0
   1237c:	e59d3018 	ldr	r3, [sp, #24]
   12380:	c28b8031 	addgt	r8, fp, #49	; 0x31
   12384:	e59da01c 	ldr	sl, [sp, #28]
   12388:	e5c78000 	strb	r8, [r7]
   1238c:	e287b001 	add	fp, r7, #1
   12390:	e58d301c 	str	r3, [sp, #28]
   12394:	eafffe54 	b	11cec <_dtoa_r+0xbcc>
   12398:	e59d3018 	ldr	r3, [sp, #24]
   1239c:	e59da01c 	ldr	sl, [sp, #28]
   123a0:	e58d301c 	str	r3, [sp, #28]
   123a4:	e3a02039 	mov	r2, #57	; 0x39
   123a8:	e287b001 	add	fp, r7, #1
   123ac:	e5c72000 	strb	r2, [r7]
   123b0:	eafffe43 	b	11cc4 <_dtoa_r+0xba4>
   123b4:	e59d3018 	ldr	r3, [sp, #24]
   123b8:	e1a0a005 	mov	sl, r5
   123bc:	e58d301c 	str	r3, [sp, #28]
   123c0:	eafffff7 	b	123a4 <_dtoa_r+0x1284>
   123c4:	1affffb1 	bne	12290 <_dtoa_r+0x1170>
   123c8:	e3180001 	tst	r8, #1
   123cc:	0affffaf 	beq	12290 <_dtoa_r+0x1170>
   123d0:	eaffffab 	b	12284 <_dtoa_r+0x1164>
   123d4:	1260003c 	rsbne	r0, r0, #60	; 0x3c
   123d8:	0afffca3 	beq	1166c <_dtoa_r+0x54c>
   123dc:	eafffc9b 	b	11650 <_dtoa_r+0x530>
   123e0:	e3a03001 	mov	r3, #1
   123e4:	e58d3020 	str	r3, [sp, #32]
   123e8:	eafffda9 	b	11a94 <_dtoa_r+0x974>
   123ec:	e3e03000 	mvn	r3, #0
   123f0:	e1a07002 	mov	r7, r2
   123f4:	e58d3014 	str	r3, [sp, #20]
   123f8:	eafffc16 	b	11458 <_dtoa_r+0x338>
   123fc:	e320f000 	nop	{0}

00012400 <_fclose_r>:
   12400:	e3510000 	cmp	r1, #0
   12404:	0a000038 	beq	124ec <_fclose_r+0xec>
   12408:	e3500000 	cmp	r0, #0
   1240c:	e92d4070 	push	{r4, r5, r6, lr}
   12410:	e1a05000 	mov	r5, r0
   12414:	e1a04001 	mov	r4, r1
   12418:	0a000002 	beq	12428 <_fclose_r+0x28>
   1241c:	e5903038 	ldr	r3, [r0, #56]	; 0x38
   12420:	e3530000 	cmp	r3, #0
   12424:	0a00002a 	beq	124d4 <_fclose_r+0xd4>
   12428:	e1d430fc 	ldrsh	r3, [r4, #12]
   1242c:	e3530000 	cmp	r3, #0
   12430:	1a000001 	bne	1243c <_fclose_r+0x3c>
   12434:	e3a00000 	mov	r0, #0
   12438:	e8bd8070 	pop	{r4, r5, r6, pc}
   1243c:	e1a00005 	mov	r0, r5
   12440:	e1a01004 	mov	r1, r4
   12444:	ebffe8c6 	bl	c764 <__sflush_r>
   12448:	e594302c 	ldr	r3, [r4, #44]	; 0x2c
   1244c:	e1a06000 	mov	r6, r0
   12450:	e3530000 	cmp	r3, #0
   12454:	0a000004 	beq	1246c <_fclose_r+0x6c>
   12458:	e1a00005 	mov	r0, r5
   1245c:	e594101c 	ldr	r1, [r4, #28]
   12460:	e12fff33 	blx	r3
   12464:	e3500000 	cmp	r0, #0
   12468:	b3e06000 	mvnlt	r6, #0
   1246c:	e1d430bc 	ldrh	r3, [r4, #12]
   12470:	e3130080 	tst	r3, #128	; 0x80
   12474:	1a000018 	bne	124dc <_fclose_r+0xdc>
   12478:	e5941030 	ldr	r1, [r4, #48]	; 0x30
   1247c:	e3510000 	cmp	r1, #0
   12480:	0a000006 	beq	124a0 <_fclose_r+0xa0>
   12484:	e2843040 	add	r3, r4, #64	; 0x40
   12488:	e1510003 	cmp	r1, r3
   1248c:	0a000001 	beq	12498 <_fclose_r+0x98>
   12490:	e1a00005 	mov	r0, r5
   12494:	ebffea62 	bl	ce24 <_free_r>
   12498:	e3a03000 	mov	r3, #0
   1249c:	e5843030 	str	r3, [r4, #48]	; 0x30
   124a0:	e5941044 	ldr	r1, [r4, #68]	; 0x44
   124a4:	e3510000 	cmp	r1, #0
   124a8:	0a000003 	beq	124bc <_fclose_r+0xbc>
   124ac:	e1a00005 	mov	r0, r5
   124b0:	ebffea5b 	bl	ce24 <_free_r>
   124b4:	e3a03000 	mov	r3, #0
   124b8:	e5843044 	str	r3, [r4, #68]	; 0x44
   124bc:	ebffea0a 	bl	ccec <__sfp_lock_acquire>
   124c0:	e3a03000 	mov	r3, #0
   124c4:	e1c430bc 	strh	r3, [r4, #12]
   124c8:	ebffea08 	bl	ccf0 <__sfp_lock_release>
   124cc:	e1a00006 	mov	r0, r6
   124d0:	e8bd8070 	pop	{r4, r5, r6, pc}
   124d4:	ebffea00 	bl	ccdc <__sinit>
   124d8:	eaffffd2 	b	12428 <_fclose_r+0x28>
   124dc:	e1a00005 	mov	r0, r5
   124e0:	e5941010 	ldr	r1, [r4, #16]
   124e4:	ebffea4e 	bl	ce24 <_free_r>
   124e8:	eaffffe2 	b	12478 <_fclose_r+0x78>
   124ec:	e3a00000 	mov	r0, #0
   124f0:	e12fff1e 	bx	lr

000124f4 <fclose>:
   124f4:	e59f3008 	ldr	r3, [pc, #8]	; 12504 <fclose+0x10>
   124f8:	e1a01000 	mov	r1, r0
   124fc:	e5930000 	ldr	r0, [r3]
   12500:	eaffffbe 	b	12400 <_fclose_r>
   12504:	00017948 	andeq	r7, r1, r8, asr #18

00012508 <__gettzinfo>:
   12508:	e59f0000 	ldr	r0, [pc]	; 12510 <__gettzinfo+0x8>
   1250c:	e12fff1e 	bx	lr
   12510:	00018190 	muleq	r1, r0, r1

00012514 <gmtime_r>:
   12514:	e92d4070 	push	{r4, r5, r6, lr}
   12518:	e3a0eee1 	mov	lr, #3600	; 0xe10
   1251c:	e590c000 	ldr	ip, [r0]
   12520:	e59f21c8 	ldr	r2, [pc, #456]	; 126f0 <gmtime_r+0x1dc>
   12524:	e1a03fcc 	asr	r3, ip, #31
   12528:	e0c20c92 	smull	r0, r2, r2, ip
   1252c:	e59f01c0 	ldr	r0, [pc, #448]	; 126f4 <gmtime_r+0x1e0>
   12530:	e082200c 	add	r2, r2, ip
   12534:	e0632842 	rsb	r2, r3, r2, asr #16
   12538:	e0000290 	mul	r0, r0, r2
   1253c:	e05c0000 	subs	r0, ip, r0
   12540:	42800a15 	addmi	r0, r0, #86016	; 0x15000
   12544:	e59f31ac 	ldr	r3, [pc, #428]	; 126f8 <gmtime_r+0x1e4>
   12548:	42800d06 	addmi	r0, r0, #384	; 0x180
   1254c:	e0c3c093 	smull	ip, r3, r3, r0
   12550:	e1a05fc0 	asr	r5, r0, #31
   12554:	e0833000 	add	r3, r3, r0
   12558:	e06555c3 	rsb	r5, r5, r3, asr #11
   1255c:	e00e059e 	mul	lr, lr, r5
   12560:	52422c2b 	subpl	r2, r2, #11008	; 0x2b00
   12564:	42422c2b 	submi	r2, r2, #11008	; 0x2b00
   12568:	52422009 	subpl	r2, r2, #9
   1256c:	4242200a 	submi	r2, r2, #10
   12570:	e59f3184 	ldr	r3, [pc, #388]	; 126fc <gmtime_r+0x1e8>
   12574:	e06e0000 	rsb	r0, lr, r0
   12578:	e59fc180 	ldr	ip, [pc, #384]	; 12700 <gmtime_r+0x1ec>
   1257c:	e282e003 	add	lr, r2, #3
   12580:	e0c34e93 	smull	r4, r3, r3, lr
   12584:	e0cc409c 	smull	r4, ip, ip, r0
   12588:	e083400e 	add	r4, r3, lr
   1258c:	e1a03fce 	asr	r3, lr, #31
   12590:	e08c6000 	add	r6, ip, r0
   12594:	e0633144 	rsb	r3, r3, r4, asr #2
   12598:	e1a0cfc0 	asr	ip, r0, #31
   1259c:	e06cc2c6 	rsb	ip, ip, r6, asr #5
   125a0:	e0633183 	rsb	r3, r3, r3, lsl #3
   125a4:	e05e3003 	subs	r3, lr, r3
   125a8:	e06c420c 	rsb	r4, ip, ip, lsl #4
   125ac:	e0400104 	sub	r0, r0, r4, lsl #2
   125b0:	42833007 	addmi	r3, r3, #7
   125b4:	e3520000 	cmp	r2, #0
   125b8:	e8811001 	stm	r1, {r0, ip}
   125bc:	a3a00000 	movge	r0, #0
   125c0:	b2822b8e 	addlt	r2, r2, #145408	; 0x23800
   125c4:	b2822e2b 	addlt	r2, r2, #688	; 0x2b0
   125c8:	b59f0134 	ldrlt	r0, [pc, #308]	; 12704 <gmtime_r+0x1f0>
   125cc:	b2822001 	addlt	r2, r2, #1
   125d0:	e59fe130 	ldr	lr, [pc, #304]	; 12708 <gmtime_r+0x1f4>
   125d4:	e0822000 	add	r2, r2, r0
   125d8:	a1a04000 	movge	r4, r0
   125dc:	e0c0c29e 	smull	ip, r0, lr, r2
   125e0:	e1a0efc2 	asr	lr, r2, #31
   125e4:	e59fc120 	ldr	ip, [pc, #288]	; 1270c <gmtime_r+0x1f8>
   125e8:	e06ee3c0 	rsb	lr, lr, r0, asr #7
   125ec:	e02c2e9c 	mla	ip, ip, lr, r2
   125f0:	e59f2118 	ldr	r2, [pc, #280]	; 12710 <gmtime_r+0x1fc>
   125f4:	e5815008 	str	r5, [r1, #8]
   125f8:	e0c25c92 	smull	r5, r2, r2, ip
   125fc:	e1a00fcc 	asr	r0, ip, #31
   12600:	e082200c 	add	r2, r2, ip
   12604:	e0602442 	rsb	r2, r0, r2, asr #8
   12608:	e5813018 	str	r3, [r1, #24]
   1260c:	b3a04003 	movlt	r4, #3
   12610:	b59f30fc 	ldrlt	r3, [pc, #252]	; 12714 <gmtime_r+0x200>
   12614:	a3a03e7d 	movge	r3, #2000	; 0x7d0
   12618:	e3520004 	cmp	r2, #4
   1261c:	0a00002c 	beq	126d4 <gmtime_r+0x1c0>
   12620:	e3e00f5b 	mvn	r0, #364	; 0x16c
   12624:	e3520000 	cmp	r2, #0
   12628:	e083310e 	add	r3, r3, lr, lsl #2
   1262c:	e0823003 	add	r3, r2, r3
   12630:	13a0e000 	movne	lr, #0
   12634:	e022c290 	mla	r2, r0, r2, ip
   12638:	13a0cf5b 	movne	ip, #364	; 0x16c
   1263c:	1a000008 	bne	12664 <gmtime_r+0x150>
   12640:	e16f4f14 	clz	r4, r4
   12644:	e1a042a4 	lsr	r4, r4, #5
   12648:	e35e0000 	cmp	lr, #0
   1264c:	13844001 	orrne	r4, r4, #1
   12650:	e3540000 	cmp	r4, #0
   12654:	e59fc0bc 	ldr	ip, [pc, #188]	; 12718 <gmtime_r+0x204>
   12658:	13a0e001 	movne	lr, #1
   1265c:	03a0cf5b 	moveq	ip, #364	; 0x16c
   12660:	03a0e000 	moveq	lr, #0
   12664:	e282003b 	add	r0, r2, #59	; 0x3b
   12668:	e08e0000 	add	r0, lr, r0
   1266c:	e150000c 	cmp	r0, ip
   12670:	c3e0cf5b 	mvngt	ip, #364	; 0x16c
   12674:	c2833001 	addgt	r3, r3, #1
   12678:	c06ec00c 	rsbgt	ip, lr, ip
   1267c:	e2433e76 	sub	r3, r3, #1888	; 0x760
   12680:	e243300c 	sub	r3, r3, #12
   12684:	c080000c 	addgt	r0, r0, ip
   12688:	e5813014 	str	r3, [r1, #20]
   1268c:	e581001c 	str	r0, [r1, #28]
   12690:	e3a03002 	mov	r3, #2
   12694:	e59fe080 	ldr	lr, [pc, #128]	; 1271c <gmtime_r+0x208>
   12698:	ea000003 	b	126ac <gmtime_r+0x198>
   1269c:	e2833001 	add	r3, r3, #1
   126a0:	e353000b 	cmp	r3, #11
   126a4:	c3a03000 	movgt	r3, #0
   126a8:	e06c2002 	rsb	r2, ip, r2
   126ac:	e79ec103 	ldr	ip, [lr, r3, lsl #2]
   126b0:	e152000c 	cmp	r2, ip
   126b4:	aafffff8 	bge	1269c <gmtime_r+0x188>
   126b8:	e3a00000 	mov	r0, #0
   126bc:	e2822001 	add	r2, r2, #1
   126c0:	e5810020 	str	r0, [r1, #32]
   126c4:	e581200c 	str	r2, [r1, #12]
   126c8:	e5813010 	str	r3, [r1, #16]
   126cc:	e1a00001 	mov	r0, r1
   126d0:	e8bd8070 	pop	{r4, r5, r6, pc}
   126d4:	e24c2d11 	sub	r2, ip, #1088	; 0x440
   126d8:	e083310e 	add	r3, r3, lr, lsl #2
   126dc:	e2422007 	sub	r2, r2, #7
   126e0:	e2833003 	add	r3, r3, #3
   126e4:	e3a0cf5b 	mov	ip, #364	; 0x16c
   126e8:	e3a0e000 	mov	lr, #0
   126ec:	eaffffdc 	b	12664 <gmtime_r+0x150>
   126f0:	c22e4507 	eorgt	r4, lr, #29360128	; 0x1c00000
   126f4:	00015180 	andeq	r5, r1, r0, lsl #3
   126f8:	91a2b3c5 			; <UNDEFINED> instruction: 0x91a2b3c5
   126fc:	92492493 	subls	r2, r9, #-1828716544	; 0x93000000
   12700:	88888889 	stmhi	r8, {r0, r3, r7, fp, pc}
   12704:	fffe53fc 			; <UNDEFINED> instruction: 0xfffe53fc
   12708:	166db073 			; <UNDEFINED> instruction: 0x166db073
   1270c:	fffffa4b 			; <UNDEFINED> instruction: 0xfffffa4b
   12710:	b38cf9b1 	orrlt	pc, ip, #2899968	; 0x2c4000
   12714:	0000076c 	andeq	r0, r0, ip, ror #14
   12718:	0000016d 	andeq	r0, r0, sp, ror #2
   1271c:	00016d58 	andeq	r6, r1, r8, asr sp

00012720 <_setlocale_r>:
   12720:	e3520000 	cmp	r2, #0
   12724:	0a000015 	beq	12780 <_setlocale_r+0x60>
   12728:	e92d4010 	push	{r4, lr}
   1272c:	e1a00002 	mov	r0, r2
   12730:	e59f1050 	ldr	r1, [pc, #80]	; 12788 <_setlocale_r+0x68>
   12734:	e1a04002 	mov	r4, r2
   12738:	eb000492 	bl	13988 <strcmp>
   1273c:	e3500000 	cmp	r0, #0
   12740:	1a000001 	bne	1274c <_setlocale_r+0x2c>
   12744:	e59f0040 	ldr	r0, [pc, #64]	; 1278c <_setlocale_r+0x6c>
   12748:	e8bd8010 	pop	{r4, pc}
   1274c:	e1a00004 	mov	r0, r4
   12750:	e59f1034 	ldr	r1, [pc, #52]	; 1278c <_setlocale_r+0x6c>
   12754:	eb00048b 	bl	13988 <strcmp>
   12758:	e3500000 	cmp	r0, #0
   1275c:	0afffff8 	beq	12744 <_setlocale_r+0x24>
   12760:	e1a00004 	mov	r0, r4
   12764:	e59f1024 	ldr	r1, [pc, #36]	; 12790 <_setlocale_r+0x70>
   12768:	eb000486 	bl	13988 <strcmp>
   1276c:	e59f3018 	ldr	r3, [pc, #24]	; 1278c <_setlocale_r+0x6c>
   12770:	e3500000 	cmp	r0, #0
   12774:	01a00003 	moveq	r0, r3
   12778:	13a00000 	movne	r0, #0
   1277c:	e8bd8010 	pop	{r4, pc}
   12780:	e59f0004 	ldr	r0, [pc, #4]	; 1278c <_setlocale_r+0x6c>
   12784:	e12fff1e 	bx	lr
   12788:	000171e4 	andeq	r7, r1, r4, ror #3
   1278c:	00017188 	andeq	r7, r1, r8, lsl #3
   12790:	00016fc0 	andeq	r6, r1, r0, asr #31

00012794 <__locale_charset>:
   12794:	e59f0000 	ldr	r0, [pc]	; 1279c <__locale_charset+0x8>
   12798:	e12fff1e 	bx	lr
   1279c:	000181d0 	ldrdeq	r8, [r1], -r0

000127a0 <__locale_mb_cur_max>:
   127a0:	e59f3004 	ldr	r3, [pc, #4]	; 127ac <__locale_mb_cur_max+0xc>
   127a4:	e5930020 	ldr	r0, [r3, #32]
   127a8:	e12fff1e 	bx	lr
   127ac:	000181d0 	ldrdeq	r8, [r1], -r0

000127b0 <__locale_msgcharset>:
   127b0:	e59f0000 	ldr	r0, [pc]	; 127b8 <__locale_msgcharset+0x8>
   127b4:	e12fff1e 	bx	lr
   127b8:	000181f4 	strdeq	r8, [r1], -r4

000127bc <__locale_cjk_lang>:
   127bc:	e3a00000 	mov	r0, #0
   127c0:	e12fff1e 	bx	lr

000127c4 <_localeconv_r>:
   127c4:	e59f0000 	ldr	r0, [pc]	; 127cc <_localeconv_r+0x8>
   127c8:	e12fff1e 	bx	lr
   127cc:	00018214 	andeq	r8, r1, r4, lsl r2

000127d0 <setlocale>:
   127d0:	e59f300c 	ldr	r3, [pc, #12]	; 127e4 <setlocale+0x14>
   127d4:	e1a02001 	mov	r2, r1
   127d8:	e1a01000 	mov	r1, r0
   127dc:	e5930000 	ldr	r0, [r3]
   127e0:	eaffffce 	b	12720 <_setlocale_r>
   127e4:	00017948 	andeq	r7, r1, r8, asr #18

000127e8 <localeconv>:
   127e8:	e59f0000 	ldr	r0, [pc]	; 127f0 <localeconv+0x8>
   127ec:	e12fff1e 	bx	lr
   127f0:	00018214 	andeq	r8, r1, r4, lsl r2

000127f4 <_lseek_r>:
   127f4:	e3a0c000 	mov	ip, #0
   127f8:	e92d4038 	push	{r3, r4, r5, lr}
   127fc:	e59f402c 	ldr	r4, [pc, #44]	; 12830 <_lseek_r+0x3c>
   12800:	e1a05000 	mov	r5, r0
   12804:	e1a00001 	mov	r0, r1
   12808:	e1a01002 	mov	r1, r2
   1280c:	e1a02003 	mov	r2, r3
   12810:	e584c000 	str	ip, [r4]
   12814:	ebffe234 	bl	b0ec <_lseek>
   12818:	e3700001 	cmn	r0, #1
   1281c:	18bd8038 	popne	{r3, r4, r5, pc}
   12820:	e5943000 	ldr	r3, [r4]
   12824:	e3530000 	cmp	r3, #0
   12828:	15853000 	strne	r3, [r5]
   1282c:	e8bd8038 	pop	{r3, r4, r5, pc}
   12830:	0001a590 	muleq	r1, r0, r5

00012834 <__smakebuf_r>:
   12834:	e1d130bc 	ldrh	r3, [r1, #12]
   12838:	e6ff2073 	uxth	r2, r3
   1283c:	e3120002 	tst	r2, #2
   12840:	1a00002f 	bne	12904 <__smakebuf_r+0xd0>
   12844:	e92d40f0 	push	{r4, r5, r6, r7, lr}
   12848:	e1a04001 	mov	r4, r1
   1284c:	e1d110fe 	ldrsh	r1, [r1, #14]
   12850:	e24dd044 	sub	sp, sp, #68	; 0x44
   12854:	e3510000 	cmp	r1, #0
   12858:	e1a05000 	mov	r5, r0
   1285c:	ba000011 	blt	128a8 <__smakebuf_r+0x74>
   12860:	e28d2004 	add	r2, sp, #4
   12864:	eb000a3c 	bl	1515c <_fstat_r>
   12868:	e3500000 	cmp	r0, #0
   1286c:	ba00000b 	blt	128a0 <__smakebuf_r+0x6c>
   12870:	e59d3008 	ldr	r3, [sp, #8]
   12874:	e3a06b01 	mov	r6, #1024	; 0x400
   12878:	e2033a0f 	and	r3, r3, #61440	; 0xf000
   1287c:	e2437a02 	sub	r7, r3, #8192	; 0x2000
   12880:	e16f7f17 	clz	r7, r7
   12884:	e3530902 	cmp	r3, #32768	; 0x8000
   12888:	e1a072a7 	lsr	r7, r7, #5
   1288c:	0a000022 	beq	1291c <__smakebuf_r+0xe8>
   12890:	e1d430bc 	ldrh	r3, [r4, #12]
   12894:	e3833b02 	orr	r3, r3, #2048	; 0x800
   12898:	e1c430bc 	strh	r3, [r4, #12]
   1289c:	ea000007 	b	128c0 <__smakebuf_r+0x8c>
   128a0:	e1d430bc 	ldrh	r3, [r4, #12]
   128a4:	e6ff2073 	uxth	r2, r3
   128a8:	e3120080 	tst	r2, #128	; 0x80
   128ac:	03a06b01 	moveq	r6, #1024	; 0x400
   128b0:	13a06040 	movne	r6, #64	; 0x40
   128b4:	e3a07000 	mov	r7, #0
   128b8:	e3833b02 	orr	r3, r3, #2048	; 0x800
   128bc:	e1c430bc 	strh	r3, [r4, #12]
   128c0:	e1a00005 	mov	r0, r5
   128c4:	e1a01006 	mov	r1, r6
   128c8:	ebffeb23 	bl	d55c <_malloc_r>
   128cc:	e3500000 	cmp	r0, #0
   128d0:	e1d430bc 	ldrh	r3, [r4, #12]
   128d4:	0a000022 	beq	12964 <__smakebuf_r+0x130>
   128d8:	e59f20ac 	ldr	r2, [pc, #172]	; 1298c <__smakebuf_r+0x158>
   128dc:	e3833080 	orr	r3, r3, #128	; 0x80
   128e0:	e3570000 	cmp	r7, #0
   128e4:	e585203c 	str	r2, [r5, #60]	; 0x3c
   128e8:	e1c430bc 	strh	r3, [r4, #12]
   128ec:	e5840000 	str	r0, [r4]
   128f0:	e5840010 	str	r0, [r4, #16]
   128f4:	e5846014 	str	r6, [r4, #20]
   128f8:	1a000010 	bne	12940 <__smakebuf_r+0x10c>
   128fc:	e28dd044 	add	sp, sp, #68	; 0x44
   12900:	e8bd80f0 	pop	{r4, r5, r6, r7, pc}
   12904:	e3a02001 	mov	r2, #1
   12908:	e2813043 	add	r3, r1, #67	; 0x43
   1290c:	e5812014 	str	r2, [r1, #20]
   12910:	e5813000 	str	r3, [r1]
   12914:	e5813010 	str	r3, [r1, #16]
   12918:	e12fff1e 	bx	lr
   1291c:	e59f306c 	ldr	r3, [pc, #108]	; 12990 <__smakebuf_r+0x15c>
   12920:	e5942028 	ldr	r2, [r4, #40]	; 0x28
   12924:	e1520003 	cmp	r2, r3
   12928:	1affffd8 	bne	12890 <__smakebuf_r+0x5c>
   1292c:	e1d430bc 	ldrh	r3, [r4, #12]
   12930:	e584604c 	str	r6, [r4, #76]	; 0x4c
   12934:	e1833006 	orr	r3, r3, r6
   12938:	e1c430bc 	strh	r3, [r4, #12]
   1293c:	eaffffdf 	b	128c0 <__smakebuf_r+0x8c>
   12940:	e1a00005 	mov	r0, r5
   12944:	e1d410fe 	ldrsh	r1, [r4, #14]
   12948:	eb000b43 	bl	1565c <_isatty_r>
   1294c:	e3500000 	cmp	r0, #0
   12950:	11d430bc 	ldrhne	r3, [r4, #12]
   12954:	13833001 	orrne	r3, r3, #1
   12958:	11c430bc 	strhne	r3, [r4, #12]
   1295c:	e28dd044 	add	sp, sp, #68	; 0x44
   12960:	e8bd80f0 	pop	{r4, r5, r6, r7, pc}
   12964:	e3130c02 	tst	r3, #512	; 0x200
   12968:	1affffe3 	bne	128fc <__smakebuf_r+0xc8>
   1296c:	e3a01001 	mov	r1, #1
   12970:	e2842043 	add	r2, r4, #67	; 0x43
   12974:	e3833002 	orr	r3, r3, #2
   12978:	e1c430bc 	strh	r3, [r4, #12]
   1297c:	e5841014 	str	r1, [r4, #20]
   12980:	e5842000 	str	r2, [r4]
   12984:	e5842010 	str	r2, [r4, #16]
   12988:	eaffffdb 	b	128fc <__smakebuf_r+0xc8>
   1298c:	0000ca2c 	andeq	ip, r0, ip, lsr #20
   12990:	0000e990 	muleq	r0, r0, r9

00012994 <memchr>:
   12994:	e3100003 	tst	r0, #3
   12998:	e92d4030 	push	{r4, r5, lr}
   1299c:	e6ef1071 	uxtb	r1, r1
   129a0:	0a00003b 	beq	12a94 <memchr+0x100>
   129a4:	e3520000 	cmp	r2, #0
   129a8:	e242c001 	sub	ip, r2, #1
   129ac:	0a00003b 	beq	12aa0 <memchr+0x10c>
   129b0:	e5d03000 	ldrb	r3, [r0]
   129b4:	e1530001 	cmp	r3, r1
   129b8:	12803001 	addne	r3, r0, #1
   129bc:	1a000007 	bne	129e0 <memchr+0x4c>
   129c0:	ea000035 	b	12a9c <memchr+0x108>
   129c4:	e35c0000 	cmp	ip, #0
   129c8:	0a00001a 	beq	12a38 <memchr+0xa4>
   129cc:	e5d02000 	ldrb	r2, [r0]
   129d0:	e2833001 	add	r3, r3, #1
   129d4:	e1520001 	cmp	r2, r1
   129d8:	e24cc001 	sub	ip, ip, #1
   129dc:	0a000017 	beq	12a40 <memchr+0xac>
   129e0:	e3130003 	tst	r3, #3
   129e4:	e1a00003 	mov	r0, r3
   129e8:	1afffff5 	bne	129c4 <memchr+0x30>
   129ec:	e35c0003 	cmp	ip, #3
   129f0:	8a000013 	bhi	12a44 <memchr+0xb0>
   129f4:	e35c0000 	cmp	ip, #0
   129f8:	0a00000e 	beq	12a38 <memchr+0xa4>
   129fc:	e5d03000 	ldrb	r3, [r0]
   12a00:	e1530001 	cmp	r3, r1
   12a04:	1080c00c 	addne	ip, r0, ip
   12a08:	12803001 	addne	r3, r0, #1
   12a0c:	1a000004 	bne	12a24 <memchr+0x90>
   12a10:	ea000024 	b	12aa8 <memchr+0x114>
   12a14:	e5d02000 	ldrb	r2, [r0]
   12a18:	e2833001 	add	r3, r3, #1
   12a1c:	e1520001 	cmp	r2, r1
   12a20:	0a00001a 	beq	12a90 <memchr+0xfc>
   12a24:	e153000c 	cmp	r3, ip
   12a28:	e1a00003 	mov	r0, r3
   12a2c:	1afffff8 	bne	12a14 <memchr+0x80>
   12a30:	e3a00000 	mov	r0, #0
   12a34:	e8bd8030 	pop	{r4, r5, pc}
   12a38:	e1a0000c 	mov	r0, ip
   12a3c:	e8bd8030 	pop	{r4, r5, pc}
   12a40:	e8bd8030 	pop	{r4, r5, pc}
   12a44:	e1a0e000 	mov	lr, r0
   12a48:	e1815401 	orr	r5, r1, r1, lsl #8
   12a4c:	e1855805 	orr	r5, r5, r5, lsl #16
   12a50:	e59e2000 	ldr	r2, [lr]
   12a54:	e59f3050 	ldr	r3, [pc, #80]	; 12aac <memchr+0x118>
   12a58:	e0222005 	eor	r2, r2, r5
   12a5c:	e0823003 	add	r3, r2, r3
   12a60:	e59f4048 	ldr	r4, [pc, #72]	; 12ab0 <memchr+0x11c>
   12a64:	e1c33002 	bic	r3, r3, r2
   12a68:	e0044003 	and	r4, r4, r3
   12a6c:	e3540000 	cmp	r4, #0
   12a70:	e1a0000e 	mov	r0, lr
   12a74:	e28ee004 	add	lr, lr, #4
   12a78:	1affffdd 	bne	129f4 <memchr+0x60>
   12a7c:	e24cc004 	sub	ip, ip, #4
   12a80:	e35c0003 	cmp	ip, #3
   12a84:	e1a0000e 	mov	r0, lr
   12a88:	8afffff0 	bhi	12a50 <memchr+0xbc>
   12a8c:	eaffffd8 	b	129f4 <memchr+0x60>
   12a90:	e8bd8030 	pop	{r4, r5, pc}
   12a94:	e1a0c002 	mov	ip, r2
   12a98:	eaffffd3 	b	129ec <memchr+0x58>
   12a9c:	e8bd8030 	pop	{r4, r5, pc}
   12aa0:	e1a00002 	mov	r0, r2
   12aa4:	e8bd8030 	pop	{r4, r5, pc}
   12aa8:	e8bd8030 	pop	{r4, r5, pc}
   12aac:	fefefeff 	mrc2	14, 7, pc, cr14, cr15, {7}
   12ab0:	80808080 	addhi	r8, r0, r0, lsl #1
   12ab4:	00000000 	andeq	r0, r0, r0

00012ab8 <_Balloc>:
   12ab8:	e590204c 	ldr	r2, [r0, #76]	; 0x4c
   12abc:	e92d4070 	push	{r4, r5, r6, lr}
   12ac0:	e3520000 	cmp	r2, #0
   12ac4:	e1a05000 	mov	r5, r0
   12ac8:	e1a04001 	mov	r4, r1
   12acc:	0a000009 	beq	12af8 <_Balloc+0x40>
   12ad0:	e7923104 	ldr	r3, [r2, r4, lsl #2]
   12ad4:	e3530000 	cmp	r3, #0
   12ad8:	0a00000f 	beq	12b1c <_Balloc+0x64>
   12adc:	e5931000 	ldr	r1, [r3]
   12ae0:	e7821104 	str	r1, [r2, r4, lsl #2]
   12ae4:	e3a02000 	mov	r2, #0
   12ae8:	e1a00003 	mov	r0, r3
   12aec:	e5832010 	str	r2, [r3, #16]
   12af0:	e583200c 	str	r2, [r3, #12]
   12af4:	e8bd8070 	pop	{r4, r5, r6, pc}
   12af8:	e3a02021 	mov	r2, #33	; 0x21
   12afc:	e3a01004 	mov	r1, #4
   12b00:	eb00090e 	bl	14f40 <_calloc_r>
   12b04:	e3500000 	cmp	r0, #0
   12b08:	e585004c 	str	r0, [r5, #76]	; 0x4c
   12b0c:	11a02000 	movne	r2, r0
   12b10:	1affffee 	bne	12ad0 <_Balloc+0x18>
   12b14:	e3a00000 	mov	r0, #0
   12b18:	e8bd8070 	pop	{r4, r5, r6, pc}
   12b1c:	e3a01001 	mov	r1, #1
   12b20:	e1a06411 	lsl	r6, r1, r4
   12b24:	e2862005 	add	r2, r6, #5
   12b28:	e1a00005 	mov	r0, r5
   12b2c:	e1a02102 	lsl	r2, r2, #2
   12b30:	eb000902 	bl	14f40 <_calloc_r>
   12b34:	e2503000 	subs	r3, r0, #0
   12b38:	0afffff5 	beq	12b14 <_Balloc+0x5c>
   12b3c:	e9830050 	stmib	r3, {r4, r6}
   12b40:	eaffffe7 	b	12ae4 <_Balloc+0x2c>

00012b44 <_Bfree>:
   12b44:	e3510000 	cmp	r1, #0
   12b48:	1590304c 	ldrne	r3, [r0, #76]	; 0x4c
   12b4c:	15912004 	ldrne	r2, [r1, #4]
   12b50:	17930102 	ldrne	r0, [r3, r2, lsl #2]
   12b54:	15810000 	strne	r0, [r1]
   12b58:	17831102 	strne	r1, [r3, r2, lsl #2]
   12b5c:	e12fff1e 	bx	lr

00012b60 <__multadd>:
   12b60:	e92d40f0 	push	{r4, r5, r6, r7, lr}
   12b64:	e1a04001 	mov	r4, r1
   12b68:	e3a07000 	mov	r7, #0
   12b6c:	e5916010 	ldr	r6, [r1, #16]
   12b70:	e1a05000 	mov	r5, r0
   12b74:	e24dd00c 	sub	sp, sp, #12
   12b78:	e2810014 	add	r0, r1, #20
   12b7c:	e590c000 	ldr	ip, [r0]
   12b80:	e2877001 	add	r7, r7, #1
   12b84:	e6ffe07c 	uxth	lr, ip
   12b88:	e1a0c82c 	lsr	ip, ip, #16
   12b8c:	e0233e92 	mla	r3, r2, lr, r3
   12b90:	e00c0c92 	mul	ip, r2, ip
   12b94:	e6ff1073 	uxth	r1, r3
   12b98:	e08c3823 	add	r3, ip, r3, lsr #16
   12b9c:	e081c803 	add	ip, r1, r3, lsl #16
   12ba0:	e1560007 	cmp	r6, r7
   12ba4:	e480c004 	str	ip, [r0], #4
   12ba8:	e1a03823 	lsr	r3, r3, #16
   12bac:	cafffff2 	bgt	12b7c <__multadd+0x1c>
   12bb0:	e3530000 	cmp	r3, #0
   12bb4:	0a000006 	beq	12bd4 <__multadd+0x74>
   12bb8:	e5942008 	ldr	r2, [r4, #8]
   12bbc:	e1560002 	cmp	r6, r2
   12bc0:	aa000006 	bge	12be0 <__multadd+0x80>
   12bc4:	e0842106 	add	r2, r4, r6, lsl #2
   12bc8:	e2866001 	add	r6, r6, #1
   12bcc:	e5823014 	str	r3, [r2, #20]
   12bd0:	e5846010 	str	r6, [r4, #16]
   12bd4:	e1a00004 	mov	r0, r4
   12bd8:	e28dd00c 	add	sp, sp, #12
   12bdc:	e8bd80f0 	pop	{r4, r5, r6, r7, pc}
   12be0:	e5941004 	ldr	r1, [r4, #4]
   12be4:	e1a00005 	mov	r0, r5
   12be8:	e2811001 	add	r1, r1, #1
   12bec:	e58d3004 	str	r3, [sp, #4]
   12bf0:	ebffffb0 	bl	12ab8 <_Balloc>
   12bf4:	e1a07000 	mov	r7, r0
   12bf8:	e5942010 	ldr	r2, [r4, #16]
   12bfc:	e284100c 	add	r1, r4, #12
   12c00:	e2822002 	add	r2, r2, #2
   12c04:	e1a02102 	lsl	r2, r2, #2
   12c08:	e280000c 	add	r0, r0, #12
   12c0c:	ebffec45 	bl	dd28 <memcpy>
   12c10:	e595204c 	ldr	r2, [r5, #76]	; 0x4c
   12c14:	e5941004 	ldr	r1, [r4, #4]
   12c18:	e59d3004 	ldr	r3, [sp, #4]
   12c1c:	e7920101 	ldr	r0, [r2, r1, lsl #2]
   12c20:	e5840000 	str	r0, [r4]
   12c24:	e7824101 	str	r4, [r2, r1, lsl #2]
   12c28:	e1a04007 	mov	r4, r7
   12c2c:	eaffffe4 	b	12bc4 <__multadd+0x64>

00012c30 <__s2b>:
   12c30:	e92d43f8 	push	{r3, r4, r5, r6, r7, r8, r9, lr}
   12c34:	e1a06003 	mov	r6, r3
   12c38:	e59f30d0 	ldr	r3, [pc, #208]	; 12d10 <__s2b+0xe0>
   12c3c:	e286c008 	add	ip, r6, #8
   12c40:	e0c3ec93 	smull	lr, r3, r3, ip
   12c44:	e1a0cfcc 	asr	ip, ip, #31
   12c48:	e06c30c3 	rsb	r3, ip, r3, asr #1
   12c4c:	e3530001 	cmp	r3, #1
   12c50:	e1a05000 	mov	r5, r0
   12c54:	e1a04001 	mov	r4, r1
   12c58:	e1a07002 	mov	r7, r2
   12c5c:	e59d8020 	ldr	r8, [sp, #32]
   12c60:	da000028 	ble	12d08 <__s2b+0xd8>
   12c64:	e3a0c001 	mov	ip, #1
   12c68:	e3a01000 	mov	r1, #0
   12c6c:	e1a0c08c 	lsl	ip, ip, #1
   12c70:	e153000c 	cmp	r3, ip
   12c74:	e2811001 	add	r1, r1, #1
   12c78:	cafffffb 	bgt	12c6c <__s2b+0x3c>
   12c7c:	e1a00005 	mov	r0, r5
   12c80:	ebffff8c 	bl	12ab8 <_Balloc>
   12c84:	e3a03001 	mov	r3, #1
   12c88:	e3570009 	cmp	r7, #9
   12c8c:	e5808014 	str	r8, [r0, #20]
   12c90:	e5803010 	str	r3, [r0, #16]
   12c94:	d3a07009 	movle	r7, #9
   12c98:	d284400a 	addle	r4, r4, #10
   12c9c:	da00000c 	ble	12cd4 <__s2b+0xa4>
   12ca0:	e2849009 	add	r9, r4, #9
   12ca4:	e1a08009 	mov	r8, r9
   12ca8:	e0844007 	add	r4, r4, r7
   12cac:	e4d83001 	ldrb	r3, [r8], #1
   12cb0:	e1a01000 	mov	r1, r0
   12cb4:	e2433030 	sub	r3, r3, #48	; 0x30
   12cb8:	e1a00005 	mov	r0, r5
   12cbc:	e3a0200a 	mov	r2, #10
   12cc0:	ebffffa6 	bl	12b60 <__multadd>
   12cc4:	e1580004 	cmp	r8, r4
   12cc8:	1afffff7 	bne	12cac <__s2b+0x7c>
   12ccc:	e0894007 	add	r4, r9, r7
   12cd0:	e2444008 	sub	r4, r4, #8
   12cd4:	e1560007 	cmp	r6, r7
   12cd8:	d8bd83f8 	pople	{r3, r4, r5, r6, r7, r8, r9, pc}
   12cdc:	e0676006 	rsb	r6, r7, r6
   12ce0:	e0846006 	add	r6, r4, r6
   12ce4:	e4d43001 	ldrb	r3, [r4], #1
   12ce8:	e1a01000 	mov	r1, r0
   12cec:	e2433030 	sub	r3, r3, #48	; 0x30
   12cf0:	e1a00005 	mov	r0, r5
   12cf4:	e3a0200a 	mov	r2, #10
   12cf8:	ebffff98 	bl	12b60 <__multadd>
   12cfc:	e1540006 	cmp	r4, r6
   12d00:	1afffff7 	bne	12ce4 <__s2b+0xb4>
   12d04:	e8bd83f8 	pop	{r3, r4, r5, r6, r7, r8, r9, pc}
   12d08:	e3a01000 	mov	r1, #0
   12d0c:	eaffffda 	b	12c7c <__s2b+0x4c>
   12d10:	38e38e39 	stmiacc	r3!, {r0, r3, r4, r5, r9, sl, fp, pc}^

00012d14 <__hi0bits>:
   12d14:	e1b03820 	lsrs	r3, r0, #16
   12d18:	03a03010 	moveq	r3, #16
   12d1c:	01a00800 	lsleq	r0, r0, #16
   12d20:	13a03000 	movne	r3, #0
   12d24:	e31004ff 	tst	r0, #-16777216	; 0xff000000
   12d28:	01a00400 	lsleq	r0, r0, #8
   12d2c:	02833008 	addeq	r3, r3, #8
   12d30:	e310020f 	tst	r0, #-268435456	; 0xf0000000
   12d34:	01a00200 	lsleq	r0, r0, #4
   12d38:	02833004 	addeq	r3, r3, #4
   12d3c:	e3100103 	tst	r0, #-1073741824	; 0xc0000000
   12d40:	01a00100 	lsleq	r0, r0, #2
   12d44:	02833002 	addeq	r3, r3, #2
   12d48:	e3500000 	cmp	r0, #0
   12d4c:	ba000005 	blt	12d68 <__hi0bits+0x54>
   12d50:	e3100101 	tst	r0, #1073741824	; 0x40000000
   12d54:	1a000001 	bne	12d60 <__hi0bits+0x4c>
   12d58:	e3a00020 	mov	r0, #32
   12d5c:	e12fff1e 	bx	lr
   12d60:	e2830001 	add	r0, r3, #1
   12d64:	e12fff1e 	bx	lr
   12d68:	e1a00003 	mov	r0, r3
   12d6c:	e12fff1e 	bx	lr

00012d70 <__lo0bits>:
   12d70:	e5903000 	ldr	r3, [r0]
   12d74:	e2132007 	ands	r2, r3, #7
   12d78:	0a000009 	beq	12da4 <__lo0bits+0x34>
   12d7c:	e3130001 	tst	r3, #1
   12d80:	1a00001e 	bne	12e00 <__lo0bits+0x90>
   12d84:	e3130002 	tst	r3, #2
   12d88:	11a030a3 	lsrne	r3, r3, #1
   12d8c:	01a03123 	lsreq	r3, r3, #2
   12d90:	15803000 	strne	r3, [r0]
   12d94:	05803000 	streq	r3, [r0]
   12d98:	13a00001 	movne	r0, #1
   12d9c:	03a00002 	moveq	r0, #2
   12da0:	e12fff1e 	bx	lr
   12da4:	e6ff1073 	uxth	r1, r3
   12da8:	e3510000 	cmp	r1, #0
   12dac:	03a02010 	moveq	r2, #16
   12db0:	01a03823 	lsreq	r3, r3, #16
   12db4:	e31300ff 	tst	r3, #255	; 0xff
   12db8:	01a03423 	lsreq	r3, r3, #8
   12dbc:	02822008 	addeq	r2, r2, #8
   12dc0:	e313000f 	tst	r3, #15
   12dc4:	01a03223 	lsreq	r3, r3, #4
   12dc8:	02822004 	addeq	r2, r2, #4
   12dcc:	e3130003 	tst	r3, #3
   12dd0:	01a03123 	lsreq	r3, r3, #2
   12dd4:	02822002 	addeq	r2, r2, #2
   12dd8:	e3130001 	tst	r3, #1
   12ddc:	1a000004 	bne	12df4 <__lo0bits+0x84>
   12de0:	e1b030a3 	lsrs	r3, r3, #1
   12de4:	1a000001 	bne	12df0 <__lo0bits+0x80>
   12de8:	e3a00020 	mov	r0, #32
   12dec:	e12fff1e 	bx	lr
   12df0:	e2822001 	add	r2, r2, #1
   12df4:	e5803000 	str	r3, [r0]
   12df8:	e1a00002 	mov	r0, r2
   12dfc:	e12fff1e 	bx	lr
   12e00:	e3a00000 	mov	r0, #0
   12e04:	e12fff1e 	bx	lr

00012e08 <__i2b>:
   12e08:	e92d4010 	push	{r4, lr}
   12e0c:	e1a04001 	mov	r4, r1
   12e10:	e3a01001 	mov	r1, #1
   12e14:	ebffff27 	bl	12ab8 <_Balloc>
   12e18:	e3a02001 	mov	r2, #1
   12e1c:	e5804014 	str	r4, [r0, #20]
   12e20:	e5802010 	str	r2, [r0, #16]
   12e24:	e8bd8010 	pop	{r4, pc}

00012e28 <__multiply>:
   12e28:	e92d4ff0 	push	{r4, r5, r6, r7, r8, r9, sl, fp, lr}
   12e2c:	e5916010 	ldr	r6, [r1, #16]
   12e30:	e5928010 	ldr	r8, [r2, #16]
   12e34:	e1a05001 	mov	r5, r1
   12e38:	e1560008 	cmp	r6, r8
   12e3c:	a1a03008 	movge	r3, r8
   12e40:	b1a03001 	movlt	r3, r1
   12e44:	b1a05002 	movlt	r5, r2
   12e48:	a1a08006 	movge	r8, r6
   12e4c:	a1a06003 	movge	r6, r3
   12e50:	e1a04002 	mov	r4, r2
   12e54:	b1a04003 	movlt	r4, r3
   12e58:	e5953008 	ldr	r3, [r5, #8]
   12e5c:	e0889006 	add	r9, r8, r6
   12e60:	e5951004 	ldr	r1, [r5, #4]
   12e64:	e1590003 	cmp	r9, r3
   12e68:	e24dd014 	sub	sp, sp, #20
   12e6c:	c2811001 	addgt	r1, r1, #1
   12e70:	ebffff10 	bl	12ab8 <_Balloc>
   12e74:	e280a014 	add	sl, r0, #20
   12e78:	e08ab109 	add	fp, sl, r9, lsl #2
   12e7c:	e15a000b 	cmp	sl, fp
   12e80:	e1a03000 	mov	r3, r0
   12e84:	e58d0004 	str	r0, [sp, #4]
   12e88:	31a0300a 	movcc	r3, sl
   12e8c:	33a00000 	movcc	r0, #0
   12e90:	2a000002 	bcs	12ea0 <__multiply+0x78>
   12e94:	e4830004 	str	r0, [r3], #4
   12e98:	e15b0003 	cmp	fp, r3
   12e9c:	8afffffc 	bhi	12e94 <__multiply+0x6c>
   12ea0:	e2842014 	add	r2, r4, #20
   12ea4:	e0823106 	add	r3, r2, r6, lsl #2
   12ea8:	e1a01003 	mov	r1, r3
   12eac:	e1520003 	cmp	r2, r3
   12eb0:	e2853014 	add	r3, r5, #20
   12eb4:	358db008 	strcc	fp, [sp, #8]
   12eb8:	358d900c 	strcc	r9, [sp, #12]
   12ebc:	e0838108 	add	r8, r3, r8, lsl #2
   12ec0:	31a0b001 	movcc	fp, r1
   12ec4:	31a09003 	movcc	r9, r3
   12ec8:	2a00003c 	bcs	12fc0 <__multiply+0x198>
   12ecc:	e4926004 	ldr	r6, [r2], #4
   12ed0:	e6ff7076 	uxth	r7, r6
   12ed4:	e3570000 	cmp	r7, #0
   12ed8:	0a000017 	beq	12f3c <__multiply+0x114>
   12edc:	e1a06009 	mov	r6, r9
   12ee0:	e1a0500a 	mov	r5, sl
   12ee4:	e3a00000 	mov	r0, #0
   12ee8:	ea000000 	b	12ef0 <__multiply+0xc8>
   12eec:	e1a0500c 	mov	r5, ip
   12ef0:	e1a0c005 	mov	ip, r5
   12ef4:	e4964004 	ldr	r4, [r6], #4
   12ef8:	e595e000 	ldr	lr, [r5]
   12efc:	e6ff3074 	uxth	r3, r4
   12f00:	e6ff107e 	uxth	r1, lr
   12f04:	e0211397 	mla	r1, r7, r3, r1
   12f08:	e1a04824 	lsr	r4, r4, #16
   12f0c:	e1a0e82e 	lsr	lr, lr, #16
   12f10:	e02ee497 	mla	lr, r7, r4, lr
   12f14:	e0813000 	add	r3, r1, r0
   12f18:	e08e0823 	add	r0, lr, r3, lsr #16
   12f1c:	e6ff1073 	uxth	r1, r3
   12f20:	e1811800 	orr	r1, r1, r0, lsl #16
   12f24:	e1580006 	cmp	r8, r6
   12f28:	e1a00820 	lsr	r0, r0, #16
   12f2c:	e48c1004 	str	r1, [ip], #4
   12f30:	8affffed 	bhi	12eec <__multiply+0xc4>
   12f34:	e5850004 	str	r0, [r5, #4]
   12f38:	e5126004 	ldr	r6, [r2, #-4]
   12f3c:	e1b06826 	lsrs	r6, r6, #16
   12f40:	0a000019 	beq	12fac <__multiply+0x184>
   12f44:	e3a01000 	mov	r1, #0
   12f48:	e59a3000 	ldr	r3, [sl]
   12f4c:	e1a0400a 	mov	r4, sl
   12f50:	e1a05003 	mov	r5, r3
   12f54:	e1a0c009 	mov	ip, r9
   12f58:	e1a07001 	mov	r7, r1
   12f5c:	ea000000 	b	12f64 <__multiply+0x13c>
   12f60:	e1a0400e 	mov	r4, lr
   12f64:	e1a0e004 	mov	lr, r4
   12f68:	e1dc10b0 	ldrh	r1, [ip]
   12f6c:	e1a05825 	lsr	r5, r5, #16
   12f70:	e0255196 	mla	r5, r6, r1, r5
   12f74:	e6ff0073 	uxth	r0, r3
   12f78:	e0851007 	add	r1, r5, r7
   12f7c:	e1803801 	orr	r3, r0, r1, lsl #16
   12f80:	e48e3004 	str	r3, [lr], #4
   12f84:	e49c0004 	ldr	r0, [ip], #4
   12f88:	e5945004 	ldr	r5, [r4, #4]
   12f8c:	e1a00820 	lsr	r0, r0, #16
   12f90:	e6ff3075 	uxth	r3, r5
   12f94:	e0203096 	mla	r0, r6, r0, r3
   12f98:	e158000c 	cmp	r8, ip
   12f9c:	e0803821 	add	r3, r0, r1, lsr #16
   12fa0:	e1a07823 	lsr	r7, r3, #16
   12fa4:	8affffed 	bhi	12f60 <__multiply+0x138>
   12fa8:	e5843004 	str	r3, [r4, #4]
   12fac:	e15b0002 	cmp	fp, r2
   12fb0:	e28aa004 	add	sl, sl, #4
   12fb4:	8affffc4 	bhi	12ecc <__multiply+0xa4>
   12fb8:	e59db008 	ldr	fp, [sp, #8]
   12fbc:	e59d900c 	ldr	r9, [sp, #12]
   12fc0:	e3590000 	cmp	r9, #0
   12fc4:	da000009 	ble	12ff0 <__multiply+0x1c8>
   12fc8:	e51b3004 	ldr	r3, [fp, #-4]
   12fcc:	e24bb004 	sub	fp, fp, #4
   12fd0:	e3530000 	cmp	r3, #0
   12fd4:	0a000003 	beq	12fe8 <__multiply+0x1c0>
   12fd8:	ea000004 	b	12ff0 <__multiply+0x1c8>
   12fdc:	e53b3004 	ldr	r3, [fp, #-4]!
   12fe0:	e3530000 	cmp	r3, #0
   12fe4:	1a000001 	bne	12ff0 <__multiply+0x1c8>
   12fe8:	e2599001 	subs	r9, r9, #1
   12fec:	1afffffa 	bne	12fdc <__multiply+0x1b4>
   12ff0:	e59d3004 	ldr	r3, [sp, #4]
   12ff4:	e1a00003 	mov	r0, r3
   12ff8:	e5839010 	str	r9, [r3, #16]
   12ffc:	e28dd014 	add	sp, sp, #20
   13000:	e8bd8ff0 	pop	{r4, r5, r6, r7, r8, r9, sl, fp, pc}

00013004 <__pow5mult>:
   13004:	e2123003 	ands	r3, r2, #3
   13008:	e92d41f0 	push	{r4, r5, r6, r7, r8, lr}
   1300c:	e1a04002 	mov	r4, r2
   13010:	e1a07000 	mov	r7, r0
   13014:	e1a06001 	mov	r6, r1
   13018:	1a000024 	bne	130b0 <__pow5mult+0xac>
   1301c:	e1b04144 	asrs	r4, r4, #2
   13020:	0a000019 	beq	1308c <__pow5mult+0x88>
   13024:	e5975048 	ldr	r5, [r7, #72]	; 0x48
   13028:	e3550000 	cmp	r5, #0
   1302c:	0a000026 	beq	130cc <__pow5mult+0xc8>
   13030:	e3a08000 	mov	r8, #0
   13034:	ea000005 	b	13050 <__pow5mult+0x4c>
   13038:	e1b040c4 	asrs	r4, r4, #1
   1303c:	0a000012 	beq	1308c <__pow5mult+0x88>
   13040:	e5950000 	ldr	r0, [r5]
   13044:	e3500000 	cmp	r0, #0
   13048:	0a000011 	beq	13094 <__pow5mult+0x90>
   1304c:	e1a05000 	mov	r5, r0
   13050:	e3140001 	tst	r4, #1
   13054:	0afffff7 	beq	13038 <__pow5mult+0x34>
   13058:	e1a02005 	mov	r2, r5
   1305c:	e1a01006 	mov	r1, r6
   13060:	e1a00007 	mov	r0, r7
   13064:	ebffff6f 	bl	12e28 <__multiply>
   13068:	e3560000 	cmp	r6, #0
   1306c:	1596c004 	ldrne	ip, [r6, #4]
   13070:	1597304c 	ldrne	r3, [r7, #76]	; 0x4c
   13074:	1793210c 	ldrne	r2, [r3, ip, lsl #2]
   13078:	15862000 	strne	r2, [r6]
   1307c:	1783610c 	strne	r6, [r3, ip, lsl #2]
   13080:	e1b040c4 	asrs	r4, r4, #1
   13084:	e1a06000 	mov	r6, r0
   13088:	1affffec 	bne	13040 <__pow5mult+0x3c>
   1308c:	e1a00006 	mov	r0, r6
   13090:	e8bd81f0 	pop	{r4, r5, r6, r7, r8, pc}
   13094:	e1a00007 	mov	r0, r7
   13098:	e1a01005 	mov	r1, r5
   1309c:	e1a02005 	mov	r2, r5
   130a0:	ebffff60 	bl	12e28 <__multiply>
   130a4:	e5850000 	str	r0, [r5]
   130a8:	e5808000 	str	r8, [r0]
   130ac:	eaffffe6 	b	1304c <__pow5mult+0x48>
   130b0:	e59f2044 	ldr	r2, [pc, #68]	; 130fc <__pow5mult+0xf8>
   130b4:	e2433001 	sub	r3, r3, #1
   130b8:	e7922103 	ldr	r2, [r2, r3, lsl #2]
   130bc:	e3a03000 	mov	r3, #0
   130c0:	ebfffea6 	bl	12b60 <__multadd>
   130c4:	e1a06000 	mov	r6, r0
   130c8:	eaffffd3 	b	1301c <__pow5mult+0x18>
   130cc:	e3a01001 	mov	r1, #1
   130d0:	e1a00007 	mov	r0, r7
   130d4:	ebfffe77 	bl	12ab8 <_Balloc>
   130d8:	e3a01001 	mov	r1, #1
   130dc:	e3a03000 	mov	r3, #0
   130e0:	e59f2018 	ldr	r2, [pc, #24]	; 13100 <__pow5mult+0xfc>
   130e4:	e5801010 	str	r1, [r0, #16]
   130e8:	e5802014 	str	r2, [r0, #20]
   130ec:	e1a05000 	mov	r5, r0
   130f0:	e5870048 	str	r0, [r7, #72]	; 0x48
   130f4:	e5803000 	str	r3, [r0]
   130f8:	eaffffcc 	b	13030 <__pow5mult+0x2c>
   130fc:	00016da8 	andeq	r6, r1, r8, lsr #27
   13100:	00000271 	andeq	r0, r0, r1, ror r2

00013104 <__lshift>:
   13104:	e92d47f0 	push	{r4, r5, r6, r7, r8, r9, sl, lr}
   13108:	e5916010 	ldr	r6, [r1, #16]
   1310c:	e1a082c2 	asr	r8, r2, #5
   13110:	e5913008 	ldr	r3, [r1, #8]
   13114:	e0886006 	add	r6, r8, r6
   13118:	e2864001 	add	r4, r6, #1
   1311c:	e1540003 	cmp	r4, r3
   13120:	e1a05001 	mov	r5, r1
   13124:	e1a09002 	mov	r9, r2
   13128:	e1a07000 	mov	r7, r0
   1312c:	e5911004 	ldr	r1, [r1, #4]
   13130:	da000003 	ble	13144 <__lshift+0x40>
   13134:	e1a03083 	lsl	r3, r3, #1
   13138:	e1540003 	cmp	r4, r3
   1313c:	e2811001 	add	r1, r1, #1
   13140:	cafffffb 	bgt	13134 <__lshift+0x30>
   13144:	e1a00007 	mov	r0, r7
   13148:	ebfffe5a 	bl	12ab8 <_Balloc>
   1314c:	e3580000 	cmp	r8, #0
   13150:	e280e014 	add	lr, r0, #20
   13154:	da000007 	ble	13178 <__lshift+0x74>
   13158:	e3a03000 	mov	r3, #0
   1315c:	e1a0100e 	mov	r1, lr
   13160:	e1a02003 	mov	r2, r3
   13164:	e2833001 	add	r3, r3, #1
   13168:	e1530008 	cmp	r3, r8
   1316c:	e4812004 	str	r2, [r1], #4
   13170:	1afffffb 	bne	13164 <__lshift+0x60>
   13174:	e08ee103 	add	lr, lr, r3, lsl #2
   13178:	e5951010 	ldr	r1, [r5, #16]
   1317c:	e2853014 	add	r3, r5, #20
   13180:	e219901f 	ands	r9, r9, #31
   13184:	e0831101 	add	r1, r3, r1, lsl #2
   13188:	0a000014 	beq	131e0 <__lshift+0xdc>
   1318c:	e3a0c000 	mov	ip, #0
   13190:	e2698020 	rsb	r8, r9, #32
   13194:	e593a000 	ldr	sl, [r3]
   13198:	e1a0200e 	mov	r2, lr
   1319c:	e18cc91a 	orr	ip, ip, sl, lsl r9
   131a0:	e48ec004 	str	ip, [lr], #4
   131a4:	e493c004 	ldr	ip, [r3], #4
   131a8:	e1510003 	cmp	r1, r3
   131ac:	e1a0c83c 	lsr	ip, ip, r8
   131b0:	8afffff7 	bhi	13194 <__lshift+0x90>
   131b4:	e35c0000 	cmp	ip, #0
   131b8:	e582c004 	str	ip, [r2, #4]
   131bc:	12864002 	addne	r4, r6, #2
   131c0:	e597304c 	ldr	r3, [r7, #76]	; 0x4c
   131c4:	e5952004 	ldr	r2, [r5, #4]
   131c8:	e2444001 	sub	r4, r4, #1
   131cc:	e7931102 	ldr	r1, [r3, r2, lsl #2]
   131d0:	e5804010 	str	r4, [r0, #16]
   131d4:	e5851000 	str	r1, [r5]
   131d8:	e7835102 	str	r5, [r3, r2, lsl #2]
   131dc:	e8bd87f0 	pop	{r4, r5, r6, r7, r8, r9, sl, pc}
   131e0:	e24ee004 	sub	lr, lr, #4
   131e4:	e4932004 	ldr	r2, [r3], #4
   131e8:	e1510003 	cmp	r1, r3
   131ec:	e5ae2004 	str	r2, [lr, #4]!
   131f0:	8afffffb 	bhi	131e4 <__lshift+0xe0>
   131f4:	eafffff1 	b	131c0 <__lshift+0xbc>

000131f8 <__mcmp>:
   131f8:	e5902010 	ldr	r2, [r0, #16]
   131fc:	e5913010 	ldr	r3, [r1, #16]
   13200:	e0522003 	subs	r2, r2, r3
   13204:	1a00000e 	bne	13244 <__mcmp+0x4c>
   13208:	e1a03103 	lsl	r3, r3, #2
   1320c:	e2800014 	add	r0, r0, #20
   13210:	e2811014 	add	r1, r1, #20
   13214:	e0811003 	add	r1, r1, r3
   13218:	e0803003 	add	r3, r0, r3
   1321c:	ea000001 	b	13228 <__mcmp+0x30>
   13220:	e1500003 	cmp	r0, r3
   13224:	2a000008 	bcs	1324c <__mcmp+0x54>
   13228:	e533c004 	ldr	ip, [r3, #-4]!
   1322c:	e5312004 	ldr	r2, [r1, #-4]!
   13230:	e15c0002 	cmp	ip, r2
   13234:	0afffff9 	beq	13220 <__mcmp+0x28>
   13238:	3a000005 	bcc	13254 <__mcmp+0x5c>
   1323c:	e3a00001 	mov	r0, #1
   13240:	e12fff1e 	bx	lr
   13244:	e1a00002 	mov	r0, r2
   13248:	e12fff1e 	bx	lr
   1324c:	e3a00000 	mov	r0, #0
   13250:	e12fff1e 	bx	lr
   13254:	e3e00000 	mvn	r0, #0
   13258:	e12fff1e 	bx	lr

0001325c <__mdiff>:
   1325c:	e92d43f8 	push	{r3, r4, r5, r6, r7, r8, r9, lr}
   13260:	e1a04001 	mov	r4, r1
   13264:	e1a05000 	mov	r5, r0
   13268:	e1a01002 	mov	r1, r2
   1326c:	e1a00004 	mov	r0, r4
   13270:	e1a08002 	mov	r8, r2
   13274:	ebffffdf 	bl	131f8 <__mcmp>
   13278:	e2506000 	subs	r6, r0, #0
   1327c:	0a00003e 	beq	1337c <__mdiff+0x120>
   13280:	b1a03004 	movlt	r3, r4
   13284:	b1a04008 	movlt	r4, r8
   13288:	e1a00005 	mov	r0, r5
   1328c:	e5941004 	ldr	r1, [r4, #4]
   13290:	b1a08003 	movlt	r8, r3
   13294:	b3a09001 	movlt	r9, #1
   13298:	a3a09000 	movge	r9, #0
   1329c:	ebfffe05 	bl	12ab8 <_Balloc>
   132a0:	e2882014 	add	r2, r8, #20
   132a4:	e1a06000 	mov	r6, r0
   132a8:	e1a07002 	mov	r7, r2
   132ac:	e3a03000 	mov	r3, #0
   132b0:	e2845014 	add	r5, r4, #20
   132b4:	e5980010 	ldr	r0, [r8, #16]
   132b8:	e5944010 	ldr	r4, [r4, #16]
   132bc:	e1a0e005 	mov	lr, r5
   132c0:	e586900c 	str	r9, [r6, #12]
   132c4:	e286c014 	add	ip, r6, #20
   132c8:	e0855104 	add	r5, r5, r4, lsl #2
   132cc:	e0820100 	add	r0, r2, r0, lsl #2
   132d0:	e49e8004 	ldr	r8, [lr], #4
   132d4:	e4972004 	ldr	r2, [r7], #4
   132d8:	e6f31078 	uxtah	r1, r3, r8
   132dc:	e6ff3072 	uxth	r3, r2
   132e0:	e1a02822 	lsr	r2, r2, #16
   132e4:	e0631001 	rsb	r1, r3, r1
   132e8:	e0623828 	rsb	r3, r2, r8, lsr #16
   132ec:	e0833841 	add	r3, r3, r1, asr #16
   132f0:	e6ff1071 	uxth	r1, r1
   132f4:	e1811803 	orr	r1, r1, r3, lsl #16
   132f8:	e1500007 	cmp	r0, r7
   132fc:	e48c1004 	str	r1, [ip], #4
   13300:	e1a03843 	asr	r3, r3, #16
   13304:	e1a0800e 	mov	r8, lr
   13308:	8afffff0 	bhi	132d0 <__mdiff+0x74>
   1330c:	e155000e 	cmp	r5, lr
   13310:	e1a0000c 	mov	r0, ip
   13314:	9a00000e 	bls	13354 <__mdiff+0xf8>
   13318:	e4982004 	ldr	r2, [r8], #4
   1331c:	e6f33072 	uxtah	r3, r3, r2
   13320:	e1a02822 	lsr	r2, r2, #16
   13324:	e0822843 	add	r2, r2, r3, asr #16
   13328:	e6ff3073 	uxth	r3, r3
   1332c:	e1831802 	orr	r1, r3, r2, lsl #16
   13330:	e1550008 	cmp	r5, r8
   13334:	e48c1004 	str	r1, [ip], #4
   13338:	e1a03842 	asr	r3, r2, #16
   1333c:	8afffff5 	bhi	13318 <__mdiff+0xbc>
   13340:	e1e0c00e 	mvn	ip, lr
   13344:	e08cc005 	add	ip, ip, r5
   13348:	e3ccc003 	bic	ip, ip, #3
   1334c:	e28cc004 	add	ip, ip, #4
   13350:	e080c00c 	add	ip, r0, ip
   13354:	e3510000 	cmp	r1, #0
   13358:	e24cc004 	sub	ip, ip, #4
   1335c:	1a000003 	bne	13370 <__mdiff+0x114>
   13360:	e53c3004 	ldr	r3, [ip, #-4]!
   13364:	e2444001 	sub	r4, r4, #1
   13368:	e3530000 	cmp	r3, #0
   1336c:	0afffffb 	beq	13360 <__mdiff+0x104>
   13370:	e1a00006 	mov	r0, r6
   13374:	e5864010 	str	r4, [r6, #16]
   13378:	e8bd83f8 	pop	{r3, r4, r5, r6, r7, r8, r9, pc}
   1337c:	e1a00005 	mov	r0, r5
   13380:	e1a01006 	mov	r1, r6
   13384:	ebfffdcb 	bl	12ab8 <_Balloc>
   13388:	e3a03001 	mov	r3, #1
   1338c:	e5806014 	str	r6, [r0, #20]
   13390:	e5803010 	str	r3, [r0, #16]
   13394:	e8bd83f8 	pop	{r3, r4, r5, r6, r7, r8, r9, pc}

00013398 <__ulp>:
   13398:	ee102a90 	vmov	r2, s1
   1339c:	e59f3064 	ldr	r3, [pc, #100]	; 13408 <__ulp+0x70>
   133a0:	e0022003 	and	r2, r2, r3
   133a4:	e242350d 	sub	r3, r2, #54525952	; 0x3400000
   133a8:	e3530000 	cmp	r3, #0
   133ac:	da000003 	ble	133c0 <__ulp+0x28>
   133b0:	e3a00000 	mov	r0, #0
   133b4:	e1a01003 	mov	r1, r3
   133b8:	ec410b10 	vmov	d0, r0, r1
   133bc:	e12fff1e 	bx	lr
   133c0:	e2633000 	rsb	r3, r3, #0
   133c4:	e1a03a43 	asr	r3, r3, #20
   133c8:	e3530013 	cmp	r3, #19
   133cc:	da000008 	ble	133f4 <__ulp+0x5c>
   133d0:	e3530032 	cmp	r3, #50	; 0x32
   133d4:	d3a02001 	movle	r2, #1
   133d8:	c3a03001 	movgt	r3, #1
   133dc:	d2633033 	rsble	r3, r3, #51	; 0x33
   133e0:	d1a03312 	lslle	r3, r2, r3
   133e4:	e3a01000 	mov	r1, #0
   133e8:	e1a00003 	mov	r0, r3
   133ec:	ec410b10 	vmov	d0, r0, r1
   133f0:	e12fff1e 	bx	lr
   133f4:	e3a02702 	mov	r2, #524288	; 0x80000
   133f8:	e3a00000 	mov	r0, #0
   133fc:	e1a01352 	asr	r1, r2, r3
   13400:	ec410b10 	vmov	d0, r0, r1
   13404:	e12fff1e 	bx	lr
   13408:	7ff00000 	svcvc	0x00f00000	; IMB

0001340c <__b2d>:
   1340c:	e92d40f8 	push	{r3, r4, r5, r6, r7, lr}
   13410:	e5905010 	ldr	r5, [r0, #16]
   13414:	e2804014 	add	r4, r0, #20
   13418:	e0845105 	add	r5, r4, r5, lsl #2
   1341c:	e5157004 	ldr	r7, [r5, #-4]
   13420:	e1a06001 	mov	r6, r1
   13424:	e1a00007 	mov	r0, r7
   13428:	ebfffe39 	bl	12d14 <__hi0bits>
   1342c:	e2603020 	rsb	r3, r0, #32
   13430:	e350000a 	cmp	r0, #10
   13434:	e5863000 	str	r3, [r6]
   13438:	e2451004 	sub	r1, r5, #4
   1343c:	ca00000b 	bgt	13470 <__b2d+0x64>
   13440:	e260e00b 	rsb	lr, r0, #11
   13444:	e1a0ce37 	lsr	ip, r7, lr
   13448:	e1540001 	cmp	r4, r1
   1344c:	e38c15ff 	orr	r1, ip, #1069547520	; 0x3fc00000
   13450:	e3813603 	orr	r3, r1, #3145728	; 0x300000
   13454:	23a01000 	movcs	r1, #0
   13458:	35151008 	ldrcc	r1, [r5, #-8]
   1345c:	e2800015 	add	r0, r0, #21
   13460:	31a01e31 	lsrcc	r1, r1, lr
   13464:	e1812017 	orr	r2, r1, r7, lsl r0
   13468:	ec432b10 	vmov	d0, r2, r3
   1346c:	e8bd80f8 	pop	{r3, r4, r5, r6, r7, pc}
   13470:	e1540001 	cmp	r4, r1
   13474:	2a00000f 	bcs	134b8 <__b2d+0xac>
   13478:	e250e00b 	subs	lr, r0, #11
   1347c:	e2456008 	sub	r6, r5, #8
   13480:	e515c008 	ldr	ip, [r5, #-8]
   13484:	0a00000e 	beq	134c4 <__b2d+0xb8>
   13488:	e260002b 	rsb	r0, r0, #43	; 0x2b
   1348c:	e1540006 	cmp	r4, r6
   13490:	e1a0103c 	lsr	r1, ip, r0
   13494:	23a00000 	movcs	r0, #0
   13498:	e1817e17 	orr	r7, r1, r7, lsl lr
   1349c:	3515100c 	ldrcc	r1, [r5, #-12]
   134a0:	e38775ff 	orr	r7, r7, #1069547520	; 0x3fc00000
   134a4:	e3873603 	orr	r3, r7, #3145728	; 0x300000
   134a8:	31a00031 	lsrcc	r0, r1, r0
   134ac:	e1802e1c 	orr	r2, r0, ip, lsl lr
   134b0:	ec432b10 	vmov	d0, r2, r3
   134b4:	e8bd80f8 	pop	{r3, r4, r5, r6, r7, pc}
   134b8:	e250e00b 	subs	lr, r0, #11
   134bc:	01a0c00e 	moveq	ip, lr
   134c0:	1a000004 	bne	134d8 <__b2d+0xcc>
   134c4:	e1a0200c 	mov	r2, ip
   134c8:	e38775ff 	orr	r7, r7, #1069547520	; 0x3fc00000
   134cc:	e3873603 	orr	r3, r7, #3145728	; 0x300000
   134d0:	ec432b10 	vmov	d0, r2, r3
   134d4:	e8bd80f8 	pop	{r3, r4, r5, r6, r7, pc}
   134d8:	e3a00000 	mov	r0, #0
   134dc:	e1a01e17 	lsl	r1, r7, lr
   134e0:	e38115ff 	orr	r1, r1, #1069547520	; 0x3fc00000
   134e4:	e3813603 	orr	r3, r1, #3145728	; 0x300000
   134e8:	e1a0c000 	mov	ip, r0
   134ec:	eaffffee 	b	134ac <__b2d+0xa0>

000134f0 <__d2b>:
   134f0:	e92d43f0 	push	{r4, r5, r6, r7, r8, r9, lr}
   134f4:	ee104a90 	vmov	r4, s1
   134f8:	e24dd00c 	sub	sp, sp, #12
   134fc:	ee108a10 	vmov	r8, s0
   13500:	e1a06001 	mov	r6, r1
   13504:	e3a01001 	mov	r1, #1
   13508:	e1a05002 	mov	r5, r2
   1350c:	ebfffd69 	bl	12ab8 <_Balloc>
   13510:	e3c42102 	bic	r2, r4, #-2147483648	; 0x80000000
   13514:	e3c444ff 	bic	r4, r4, #-16777216	; 0xff000000
   13518:	e1b09a22 	lsrs	r9, r2, #20
   1351c:	e3c4460f 	bic	r4, r4, #15728640	; 0xf00000
   13520:	13844601 	orrne	r4, r4, #1048576	; 0x100000
   13524:	e3580000 	cmp	r8, #0
   13528:	e1a07000 	mov	r7, r0
   1352c:	e58d4004 	str	r4, [sp, #4]
   13530:	0a00001c 	beq	135a8 <__d2b+0xb8>
   13534:	e28d0008 	add	r0, sp, #8
   13538:	e5208008 	str	r8, [r0, #-8]!
   1353c:	ebfffe0b 	bl	12d70 <__lo0bits>
   13540:	e89d0006 	ldm	sp, {r1, r2}
   13544:	e2503000 	subs	r3, r0, #0
   13548:	12630020 	rsbne	r0, r3, #32
   1354c:	11811012 	orrne	r1, r1, r2, lsl r0
   13550:	11a02332 	lsrne	r2, r2, r3
   13554:	15871014 	strne	r1, [r7, #20]
   13558:	158d2004 	strne	r2, [sp, #4]
   1355c:	05871014 	streq	r1, [r7, #20]
   13560:	e3520000 	cmp	r2, #0
   13564:	13a04002 	movne	r4, #2
   13568:	03a04001 	moveq	r4, #1
   1356c:	e3590000 	cmp	r9, #0
   13570:	e5872018 	str	r2, [r7, #24]
   13574:	e5874010 	str	r4, [r7, #16]
   13578:	1a000014 	bne	135d0 <__d2b+0xe0>
   1357c:	e2433e43 	sub	r3, r3, #1072	; 0x430
   13580:	e2433002 	sub	r3, r3, #2
   13584:	e0872104 	add	r2, r7, r4, lsl #2
   13588:	e5920010 	ldr	r0, [r2, #16]
   1358c:	e5863000 	str	r3, [r6]
   13590:	ebfffddf 	bl	12d14 <__hi0bits>
   13594:	e0600284 	rsb	r0, r0, r4, lsl #5
   13598:	e5850000 	str	r0, [r5]
   1359c:	e1a00007 	mov	r0, r7
   135a0:	e28dd00c 	add	sp, sp, #12
   135a4:	e8bd83f0 	pop	{r4, r5, r6, r7, r8, r9, pc}
   135a8:	e28d0004 	add	r0, sp, #4
   135ac:	ebfffdef 	bl	12d70 <__lo0bits>
   135b0:	e3a02001 	mov	r2, #1
   135b4:	e59d1004 	ldr	r1, [sp, #4]
   135b8:	e3590000 	cmp	r9, #0
   135bc:	e1a04002 	mov	r4, r2
   135c0:	e2803020 	add	r3, r0, #32
   135c4:	e5872010 	str	r2, [r7, #16]
   135c8:	e5871014 	str	r1, [r7, #20]
   135cc:	0affffea 	beq	1357c <__d2b+0x8c>
   135d0:	e1a00007 	mov	r0, r7
   135d4:	e2492e43 	sub	r2, r9, #1072	; 0x430
   135d8:	e2422003 	sub	r2, r2, #3
   135dc:	e0822003 	add	r2, r2, r3
   135e0:	e2633035 	rsb	r3, r3, #53	; 0x35
   135e4:	e5862000 	str	r2, [r6]
   135e8:	e5853000 	str	r3, [r5]
   135ec:	e28dd00c 	add	sp, sp, #12
   135f0:	e8bd83f0 	pop	{r4, r5, r6, r7, r8, r9, pc}

000135f4 <__ratio>:
   135f4:	e92d4030 	push	{r4, r5, lr}
   135f8:	ed2d8b02 	vpush	{d8}
   135fc:	e24dd014 	sub	sp, sp, #20
   13600:	e1a04001 	mov	r4, r1
   13604:	e28d1008 	add	r1, sp, #8
   13608:	e1a05000 	mov	r5, r0
   1360c:	ebffff7e 	bl	1340c <__b2d>
   13610:	e1a00004 	mov	r0, r4
   13614:	eeb08b40 	vmov.f64	d8, d0
   13618:	e28d100c 	add	r1, sp, #12
   1361c:	ebffff7a 	bl	1340c <__b2d>
   13620:	e595c010 	ldr	ip, [r5, #16]
   13624:	e5941010 	ldr	r1, [r4, #16]
   13628:	e59d2008 	ldr	r2, [sp, #8]
   1362c:	e59d300c 	ldr	r3, [sp, #12]
   13630:	e061100c 	rsb	r1, r1, ip
   13634:	e0633002 	rsb	r3, r3, r2
   13638:	e0833281 	add	r3, r3, r1, lsl #5
   1363c:	ed8d8b00 	vstr	d8, [sp]
   13640:	e1cd00d0 	ldrd	r0, [sp]
   13644:	e3530000 	cmp	r3, #0
   13648:	ed8d0b00 	vstr	d0, [sp]
   1364c:	e1cd40d0 	ldrd	r4, [sp]
   13650:	c0811a03 	addgt	r1, r1, r3, lsl #20
   13654:	d0455a03 	suble	r5, r5, r3, lsl #20
   13658:	cc410b18 	vmovgt	d8, r0, r1
   1365c:	dc454b10 	vmovle	d0, r4, r5
   13660:	ee880b00 	vdiv.f64	d0, d8, d0
   13664:	e28dd014 	add	sp, sp, #20
   13668:	ecbd8b02 	vpop	{d8}
   1366c:	e8bd8030 	pop	{r4, r5, pc}

00013670 <_mprec_log10>:
   13670:	e3500017 	cmp	r0, #23
   13674:	da000005 	ble	13690 <_mprec_log10+0x20>
   13678:	ed9f0b08 	vldr	d0, [pc, #32]	; 136a0 <_mprec_log10+0x30>
   1367c:	ed9f7b09 	vldr	d7, [pc, #36]	; 136a8 <_mprec_log10+0x38>
   13680:	e2500001 	subs	r0, r0, #1
   13684:	ee200b07 	vmul.f64	d0, d0, d7
   13688:	1afffffc 	bne	13680 <_mprec_log10+0x10>
   1368c:	e12fff1e 	bx	lr
   13690:	e59f3018 	ldr	r3, [pc, #24]	; 136b0 <_mprec_log10+0x40>
   13694:	e0830180 	add	r0, r3, r0, lsl #3
   13698:	ed900b04 	vldr	d0, [r0, #16]
   1369c:	e12fff1e 	bx	lr
   136a0:	00000000 	andeq	r0, r0, r0
   136a4:	3ff00000 	svccc	0x00f00000	; IMB
   136a8:	00000000 	andeq	r0, r0, r0
   136ac:	40240000 	eormi	r0, r4, r0
   136b0:	00016da8 	andeq	r6, r1, r8, lsr #27

000136b4 <__copybits>:
   136b4:	e592c010 	ldr	ip, [r2, #16]
   136b8:	e2823014 	add	r3, r2, #20
   136bc:	e2411001 	sub	r1, r1, #1
   136c0:	e92d4010 	push	{r4, lr}
   136c4:	e083c10c 	add	ip, r3, ip, lsl #2
   136c8:	e1a042c1 	asr	r4, r1, #5
   136cc:	e2844001 	add	r4, r4, #1
   136d0:	e153000c 	cmp	r3, ip
   136d4:	e0804104 	add	r4, r0, r4, lsl #2
   136d8:	2a000009 	bcs	13704 <__copybits+0x50>
   136dc:	e2401004 	sub	r1, r0, #4
   136e0:	e493e004 	ldr	lr, [r3], #4
   136e4:	e15c0003 	cmp	ip, r3
   136e8:	e5a1e004 	str	lr, [r1, #4]!
   136ec:	8afffffb 	bhi	136e0 <__copybits+0x2c>
   136f0:	e062300c 	rsb	r3, r2, ip
   136f4:	e2433015 	sub	r3, r3, #21
   136f8:	e3c33003 	bic	r3, r3, #3
   136fc:	e2833004 	add	r3, r3, #4
   13700:	e0800003 	add	r0, r0, r3
   13704:	e1540000 	cmp	r4, r0
   13708:	98bd8010 	popls	{r4, pc}
   1370c:	e3a03000 	mov	r3, #0
   13710:	e4803004 	str	r3, [r0], #4
   13714:	e1540000 	cmp	r4, r0
   13718:	8afffffc 	bhi	13710 <__copybits+0x5c>
   1371c:	e8bd8010 	pop	{r4, pc}

00013720 <__any_on>:
   13720:	e5903010 	ldr	r3, [r0, #16]
   13724:	e1a022c1 	asr	r2, r1, #5
   13728:	e1530002 	cmp	r3, r2
   1372c:	e280c014 	add	ip, r0, #20
   13730:	b08c3103 	addlt	r3, ip, r3, lsl #2
   13734:	ba00000a 	blt	13764 <__any_on+0x44>
   13738:	da000008 	ble	13760 <__any_on+0x40>
   1373c:	e211101f 	ands	r1, r1, #31
   13740:	0a000006 	beq	13760 <__any_on+0x40>
   13744:	e79c0102 	ldr	r0, [ip, r2, lsl #2]
   13748:	e08c3102 	add	r3, ip, r2, lsl #2
   1374c:	e1a02130 	lsr	r2, r0, r1
   13750:	e1500112 	cmp	r0, r2, lsl r1
   13754:	0a000002 	beq	13764 <__any_on+0x44>
   13758:	e3a00001 	mov	r0, #1
   1375c:	e12fff1e 	bx	lr
   13760:	e08c3102 	add	r3, ip, r2, lsl #2
   13764:	e15c0003 	cmp	ip, r3
   13768:	2a00000a 	bcs	13798 <__any_on+0x78>
   1376c:	e5130004 	ldr	r0, [r3, #-4]
   13770:	e2433004 	sub	r3, r3, #4
   13774:	e3500000 	cmp	r0, #0
   13778:	0a000003 	beq	1378c <__any_on+0x6c>
   1377c:	eafffff5 	b	13758 <__any_on+0x38>
   13780:	e5332004 	ldr	r2, [r3, #-4]!
   13784:	e3520000 	cmp	r2, #0
   13788:	1afffff2 	bne	13758 <__any_on+0x38>
   1378c:	e15c0003 	cmp	ip, r3
   13790:	3afffffa 	bcc	13780 <__any_on+0x60>
   13794:	e12fff1e 	bx	lr
   13798:	e3a00000 	mov	r0, #0
   1379c:	e12fff1e 	bx	lr

000137a0 <_read_r>:
   137a0:	e3a0c000 	mov	ip, #0
   137a4:	e92d4038 	push	{r3, r4, r5, lr}
   137a8:	e59f402c 	ldr	r4, [pc, #44]	; 137dc <_read_r+0x3c>
   137ac:	e1a05000 	mov	r5, r0
   137b0:	e1a00001 	mov	r0, r1
   137b4:	e1a01002 	mov	r1, r2
   137b8:	e1a02003 	mov	r2, r3
   137bc:	e584c000 	str	ip, [r4]
   137c0:	ebffde47 	bl	b0e4 <_read>
   137c4:	e3700001 	cmn	r0, #1
   137c8:	18bd8038 	popne	{r3, r4, r5, pc}
   137cc:	e5943000 	ldr	r3, [r4]
   137d0:	e3530000 	cmp	r3, #0
   137d4:	15853000 	strne	r3, [r5]
   137d8:	e8bd8038 	pop	{r3, r4, r5, pc}
   137dc:	0001a590 	muleq	r1, r0, r5

000137e0 <cleanup_glue>:
   137e0:	e92d4038 	push	{r3, r4, r5, lr}
   137e4:	e1a04001 	mov	r4, r1
   137e8:	e5911000 	ldr	r1, [r1]
   137ec:	e1a05000 	mov	r5, r0
   137f0:	e3510000 	cmp	r1, #0
   137f4:	0a000000 	beq	137fc <cleanup_glue+0x1c>
   137f8:	ebfffff8 	bl	137e0 <cleanup_glue>
   137fc:	e1a00005 	mov	r0, r5
   13800:	e1a01004 	mov	r1, r4
   13804:	e8bd4038 	pop	{r3, r4, r5, lr}
   13808:	eaffe585 	b	ce24 <_free_r>

0001380c <_reclaim_reent>:
   1380c:	e59f30e4 	ldr	r3, [pc, #228]	; 138f8 <_reclaim_reent+0xec>
   13810:	e5933000 	ldr	r3, [r3]
   13814:	e1500003 	cmp	r0, r3
   13818:	012fff1e 	bxeq	lr
   1381c:	e590304c 	ldr	r3, [r0, #76]	; 0x4c
   13820:	e92d4070 	push	{r4, r5, r6, lr}
   13824:	e3530000 	cmp	r3, #0
   13828:	e1a05000 	mov	r5, r0
   1382c:	0a00000f 	beq	13870 <_reclaim_reent+0x64>
   13830:	e3a06000 	mov	r6, #0
   13834:	e7931006 	ldr	r1, [r3, r6]
   13838:	e3510000 	cmp	r1, #0
   1383c:	0a000005 	beq	13858 <_reclaim_reent+0x4c>
   13840:	e5914000 	ldr	r4, [r1]
   13844:	e1a00005 	mov	r0, r5
   13848:	ebffe575 	bl	ce24 <_free_r>
   1384c:	e2541000 	subs	r1, r4, #0
   13850:	1afffffa 	bne	13840 <_reclaim_reent+0x34>
   13854:	e595304c 	ldr	r3, [r5, #76]	; 0x4c
   13858:	e2866004 	add	r6, r6, #4
   1385c:	e3560080 	cmp	r6, #128	; 0x80
   13860:	1afffff3 	bne	13834 <_reclaim_reent+0x28>
   13864:	e1a01003 	mov	r1, r3
   13868:	e1a00005 	mov	r0, r5
   1386c:	ebffe56c 	bl	ce24 <_free_r>
   13870:	e5951040 	ldr	r1, [r5, #64]	; 0x40
   13874:	e3510000 	cmp	r1, #0
   13878:	0a000001 	beq	13884 <_reclaim_reent+0x78>
   1387c:	e1a00005 	mov	r0, r5
   13880:	ebffe567 	bl	ce24 <_free_r>
   13884:	e5951148 	ldr	r1, [r5, #328]	; 0x148
   13888:	e3510000 	cmp	r1, #0
   1388c:	0a000008 	beq	138b4 <_reclaim_reent+0xa8>
   13890:	e2856f53 	add	r6, r5, #332	; 0x14c
   13894:	e1510006 	cmp	r1, r6
   13898:	0a000005 	beq	138b4 <_reclaim_reent+0xa8>
   1389c:	e5914000 	ldr	r4, [r1]
   138a0:	e1a00005 	mov	r0, r5
   138a4:	ebffe55e 	bl	ce24 <_free_r>
   138a8:	e1560004 	cmp	r6, r4
   138ac:	e1a01004 	mov	r1, r4
   138b0:	1afffff9 	bne	1389c <_reclaim_reent+0x90>
   138b4:	e5951054 	ldr	r1, [r5, #84]	; 0x54
   138b8:	e3510000 	cmp	r1, #0
   138bc:	0a000001 	beq	138c8 <_reclaim_reent+0xbc>
   138c0:	e1a00005 	mov	r0, r5
   138c4:	ebffe556 	bl	ce24 <_free_r>
   138c8:	e5953038 	ldr	r3, [r5, #56]	; 0x38
   138cc:	e3530000 	cmp	r3, #0
   138d0:	08bd8070 	popeq	{r4, r5, r6, pc}
   138d4:	e595303c 	ldr	r3, [r5, #60]	; 0x3c
   138d8:	e1a00005 	mov	r0, r5
   138dc:	e12fff33 	blx	r3
   138e0:	e59512e0 	ldr	r1, [r5, #736]	; 0x2e0
   138e4:	e3510000 	cmp	r1, #0
   138e8:	08bd8070 	popeq	{r4, r5, r6, pc}
   138ec:	e1a00005 	mov	r0, r5
   138f0:	e8bd4070 	pop	{r4, r5, r6, lr}
   138f4:	eaffffb9 	b	137e0 <cleanup_glue>
   138f8:	00017948 	andeq	r7, r1, r8, asr #18

000138fc <__fpclassifyd>:
   138fc:	ee103a10 	vmov	r3, s0
   13900:	ee100a90 	vmov	r0, s1
   13904:	e1932000 	orrs	r2, r3, r0
   13908:	1a000001 	bne	13914 <__fpclassifyd+0x18>
   1390c:	e3a00002 	mov	r0, #2
   13910:	e12fff1e 	bx	lr
   13914:	e3500102 	cmp	r0, #-2147483648	; 0x80000000
   13918:	03530000 	cmpeq	r3, #0
   1391c:	e16f3f13 	clz	r3, r3
   13920:	e1a032a3 	lsr	r3, r3, #5
   13924:	0afffff8 	beq	1390c <__fpclassifyd+0x10>
   13928:	e3c00102 	bic	r0, r0, #-2147483648	; 0x80000000
   1392c:	e59f2034 	ldr	r2, [pc, #52]	; 13968 <__fpclassifyd+0x6c>
   13930:	e2401601 	sub	r1, r0, #1048576	; 0x100000
   13934:	e1510002 	cmp	r1, r2
   13938:	8a000001 	bhi	13944 <__fpclassifyd+0x48>
   1393c:	e3a00004 	mov	r0, #4
   13940:	e12fff1e 	bx	lr
   13944:	e3500601 	cmp	r0, #1048576	; 0x100000
   13948:	2a000001 	bcs	13954 <__fpclassifyd+0x58>
   1394c:	e3a00003 	mov	r0, #3
   13950:	e12fff1e 	bx	lr
   13954:	e59f2010 	ldr	r2, [pc, #16]	; 1396c <__fpclassifyd+0x70>
   13958:	e1500002 	cmp	r0, r2
   1395c:	13a00000 	movne	r0, #0
   13960:	02030001 	andeq	r0, r3, #1
   13964:	e12fff1e 	bx	lr
   13968:	7fdfffff 	svcvc	0x00dfffff
   1396c:	7ff00000 	svcvc	0x00f00000	; IMB
	...
   13980:	e0420003 	sub	r0, r2, r3
   13984:	e12fff1e 	bx	lr

00013988 <strcmp>:
   13988:	e5d02000 	ldrb	r2, [r0]
   1398c:	e5d13000 	ldrb	r3, [r1]
   13990:	e3520001 	cmp	r2, #1
   13994:	21520003 	cmpcs	r2, r3
   13998:	1afffff8 	bne	13980 <__fpclassifyd+0x84>
   1399c:	e16d41f0 	strd	r4, [sp, #-16]!
   139a0:	e1804001 	orr	r4, r0, r1
   139a4:	e1cd60f8 	strd	r6, [sp, #8]
   139a8:	e3e0c000 	mvn	ip, #0
   139ac:	e3140007 	tst	r4, #7
   139b0:	0a000013 	beq	13a04 <strcmp+0x7c>
   139b4:	e0204001 	eor	r4, r0, r1
   139b8:	e3140007 	tst	r4, #7
   139bc:	1a00003c 	bne	13ab4 <strcmp+0x12c>
   139c0:	e2004007 	and	r4, r0, #7
   139c4:	e3c00007 	bic	r0, r0, #7
   139c8:	e2045003 	and	r5, r4, #3
   139cc:	e3c11007 	bic	r1, r1, #7
   139d0:	e1a05185 	lsl	r5, r5, #3
   139d4:	e0c021d0 	ldrd	r2, [r0], #16
   139d8:	e3140004 	tst	r4, #4
   139dc:	e0c161d0 	ldrd	r6, [r1], #16
   139e0:	e1e0451c 	mvn	r4, ip, lsl r5
   139e4:	e1822004 	orr	r2, r2, r4
   139e8:	e1866004 	orr	r6, r6, r4
   139ec:	0a000006 	beq	13a0c <strcmp+0x84>
   139f0:	e1833004 	orr	r3, r3, r4
   139f4:	e1a0200c 	mov	r2, ip
   139f8:	e1877004 	orr	r7, r7, r4
   139fc:	e1a0600c 	mov	r6, ip
   13a00:	ea000001 	b	13a0c <strcmp+0x84>
   13a04:	e0c021d0 	ldrd	r2, [r0], #16
   13a08:	e0c161d0 	ldrd	r6, [r1], #16
   13a0c:	e6525f9c 	uadd8	r5, r2, ip
   13a10:	e0224006 	eor	r4, r2, r6
   13a14:	e6844fbc 	sel	r4, r4, ip
   13a18:	e6535f9c 	uadd8	r5, r3, ip
   13a1c:	e0235007 	eor	r5, r3, r7
   13a20:	e6855fbc 	sel	r5, r5, ip
   13a24:	e1955004 	orrs	r5, r5, r4
   13a28:	1a000009 	bne	13a54 <strcmp+0xcc>
   13a2c:	e14020d8 	ldrd	r2, [r0, #-8]
   13a30:	e14160d8 	ldrd	r6, [r1, #-8]
   13a34:	e6525f9c 	uadd8	r5, r2, ip
   13a38:	e0224006 	eor	r4, r2, r6
   13a3c:	e6844fbc 	sel	r4, r4, ip
   13a40:	e6535f9c 	uadd8	r5, r3, ip
   13a44:	e0235007 	eor	r5, r3, r7
   13a48:	e6855fbc 	sel	r5, r5, ip
   13a4c:	e1955004 	orrs	r5, r5, r4
   13a50:	0affffeb 	beq	13a04 <strcmp+0x7c>
   13a54:	e3540000 	cmp	r4, #0
   13a58:	1a00000a 	bne	13a88 <strcmp+0x100>
   13a5c:	e6bf5f35 	rev	r5, r5
   13a60:	e16f4f15 	clz	r4, r5
   13a64:	e3c44007 	bic	r4, r4, #7
   13a68:	e1a01437 	lsr	r1, r7, r4
   13a6c:	e1cd60d8 	ldrd	r6, [sp, #8]
   13a70:	e1a03433 	lsr	r3, r3, r4
   13a74:	e20300ff 	and	r0, r3, #255	; 0xff
   13a78:	e20110ff 	and	r1, r1, #255	; 0xff
   13a7c:	e0cd41d0 	ldrd	r4, [sp], #16
   13a80:	e0400001 	sub	r0, r0, r1
   13a84:	e12fff1e 	bx	lr
   13a88:	e6bf4f34 	rev	r4, r4
   13a8c:	e16f4f14 	clz	r4, r4
   13a90:	e3c44007 	bic	r4, r4, #7
   13a94:	e1a01436 	lsr	r1, r6, r4
   13a98:	e1cd60d8 	ldrd	r6, [sp, #8]
   13a9c:	e1a02432 	lsr	r2, r2, r4
   13aa0:	e20200ff 	and	r0, r2, #255	; 0xff
   13aa4:	e20110ff 	and	r1, r1, #255	; 0xff
   13aa8:	e0cd41d0 	ldrd	r4, [sp], #16
   13aac:	e0400001 	sub	r0, r0, r1
   13ab0:	e12fff1e 	bx	lr
   13ab4:	e3140003 	tst	r4, #3
   13ab8:	1a000022 	bne	13b48 <strcmp+0x1c0>
   13abc:	e2104003 	ands	r4, r0, #3
   13ac0:	1a000017 	bne	13b24 <strcmp+0x19c>
   13ac4:	e4902008 	ldr	r2, [r0], #8
   13ac8:	e4913008 	ldr	r3, [r1], #8
   13acc:	e6525f9c 	uadd8	r5, r2, ip
   13ad0:	e0225003 	eor	r5, r2, r3
   13ad4:	e6855fbc 	sel	r5, r5, ip
   13ad8:	e3550000 	cmp	r5, #0
   13adc:	1a000006 	bne	13afc <strcmp+0x174>
   13ae0:	e5102004 	ldr	r2, [r0, #-4]
   13ae4:	e5113004 	ldr	r3, [r1, #-4]
   13ae8:	e6525f9c 	uadd8	r5, r2, ip
   13aec:	e0225003 	eor	r5, r2, r3
   13af0:	e6855fbc 	sel	r5, r5, ip
   13af4:	e3550000 	cmp	r5, #0
   13af8:	0afffff1 	beq	13ac4 <strcmp+0x13c>
   13afc:	e6bf5f35 	rev	r5, r5
   13b00:	e16f4f15 	clz	r4, r5
   13b04:	e3c44007 	bic	r4, r4, #7
   13b08:	e1a01433 	lsr	r1, r3, r4
   13b0c:	e1a02432 	lsr	r2, r2, r4
   13b10:	e20200ff 	and	r0, r2, #255	; 0xff
   13b14:	e20110ff 	and	r1, r1, #255	; 0xff
   13b18:	e0cd41d0 	ldrd	r4, [sp], #16
   13b1c:	e0400001 	sub	r0, r0, r1
   13b20:	e12fff1e 	bx	lr
   13b24:	e1a04184 	lsl	r4, r4, #3
   13b28:	e3c00003 	bic	r0, r0, #3
   13b2c:	e4902008 	ldr	r2, [r0], #8
   13b30:	e3c11003 	bic	r1, r1, #3
   13b34:	e4913008 	ldr	r3, [r1], #8
   13b38:	e1e0441c 	mvn	r4, ip, lsl r4
   13b3c:	e1822004 	orr	r2, r2, r4
   13b40:	e1833004 	orr	r3, r3, r4
   13b44:	eaffffe0 	b	13acc <strcmp+0x144>
   13b48:	e2104003 	ands	r4, r0, #3
   13b4c:	0a000013 	beq	13ba0 <strcmp+0x218>
   13b50:	e0411004 	sub	r1, r1, r4
   13b54:	e3c00003 	bic	r0, r0, #3
   13b58:	e1b04f84 	lsls	r4, r4, #31
   13b5c:	e4902004 	ldr	r2, [r0], #4
   13b60:	0a000005 	beq	13b7c <strcmp+0x1f4>
   13b64:	2a00000c 	bcs	13b9c <strcmp+0x214>
   13b68:	e5d13002 	ldrb	r3, [r1, #2]
   13b6c:	e6ef4872 	uxtb	r4, r2, ror #16
   13b70:	e3540001 	cmp	r4, #1
   13b74:	21540003 	cmpcs	r4, r3
   13b78:	1a000004 	bne	13b90 <strcmp+0x208>
   13b7c:	e5d13003 	ldrb	r3, [r1, #3]
   13b80:	e6ef4c72 	uxtb	r4, r2, ror #24
   13b84:	e3540001 	cmp	r4, #1
   13b88:	21540003 	cmpcs	r4, r3
   13b8c:	0a000002 	beq	13b9c <strcmp+0x214>
   13b90:	e0440003 	sub	r0, r4, r3
   13b94:	e49d4010 	ldr	r4, [sp], #16
   13b98:	e12fff1e 	bx	lr
   13b9c:	e2811004 	add	r1, r1, #4
   13ba0:	e4902004 	ldr	r2, [r0], #4
   13ba4:	e1b04f81 	lsls	r4, r1, #31
   13ba8:	e3c11003 	bic	r1, r1, #3
   13bac:	e4913004 	ldr	r3, [r1], #4
   13bb0:	8a000032 	bhi	13c80 <strcmp+0x2f8>
   13bb4:	2a000019 	bcs	13c20 <strcmp+0x298>
   13bb8:	e3c244ff 	bic	r4, r2, #-16777216	; 0xff000000
   13bbc:	e6525f9c 	uadd8	r5, r2, ip
   13bc0:	e0345423 	eors	r5, r4, r3, lsr #8
   13bc4:	e6855fbc 	sel	r5, r5, ip
   13bc8:	1a000007 	bne	13bec <strcmp+0x264>
   13bcc:	e3550000 	cmp	r5, #0
   13bd0:	04913004 	ldreq	r3, [r1], #4
   13bd4:	1a000006 	bne	13bf4 <strcmp+0x26c>
   13bd8:	e0244002 	eor	r4, r4, r2
   13bdc:	e1540c03 	cmp	r4, r3, lsl #24
   13be0:	1a000009 	bne	13c0c <strcmp+0x284>
   13be4:	e4902004 	ldr	r2, [r0], #4
   13be8:	eafffff2 	b	13bb8 <strcmp+0x230>
   13bec:	e1a03423 	lsr	r3, r3, #8
   13bf0:	ea00003a 	b	13ce0 <strcmp+0x358>
   13bf4:	e3d554ff 	bics	r5, r5, #-16777216	; 0xff000000
   13bf8:	1a000035 	bne	13cd4 <strcmp+0x34c>
   13bfc:	e5d10000 	ldrb	r0, [r1]
   13c00:	e0cd41d0 	ldrd	r4, [sp], #16
   13c04:	e2600000 	rsb	r0, r0, #0
   13c08:	e12fff1e 	bx	lr
   13c0c:	e1a02c22 	lsr	r2, r2, #24
   13c10:	e20330ff 	and	r3, r3, #255	; 0xff
   13c14:	ea000031 	b	13ce0 <strcmp+0x358>
   13c18:	e320f000 	nop	{0}
   13c1c:	e320f000 	nop	{0}
   13c20:	e002482c 	and	r4, r2, ip, lsr #16
   13c24:	e6525f9c 	uadd8	r5, r2, ip
   13c28:	e0345823 	eors	r5, r4, r3, lsr #16
   13c2c:	e6855fbc 	sel	r5, r5, ip
   13c30:	1a000007 	bne	13c54 <strcmp+0x2cc>
   13c34:	e3550000 	cmp	r5, #0
   13c38:	04913004 	ldreq	r3, [r1], #4
   13c3c:	1a000006 	bne	13c5c <strcmp+0x2d4>
   13c40:	e0244002 	eor	r4, r4, r2
   13c44:	e1540803 	cmp	r4, r3, lsl #16
   13c48:	1a000008 	bne	13c70 <strcmp+0x2e8>
   13c4c:	e4902004 	ldr	r2, [r0], #4
   13c50:	eafffff2 	b	13c20 <strcmp+0x298>
   13c54:	e1a03823 	lsr	r3, r3, #16
   13c58:	ea000020 	b	13ce0 <strcmp+0x358>
   13c5c:	e015582c 	ands	r5, r5, ip, lsr #16
   13c60:	1a00001b 	bne	13cd4 <strcmp+0x34c>
   13c64:	e1d130b0 	ldrh	r3, [r1]
   13c68:	e1a02822 	lsr	r2, r2, #16
   13c6c:	ea00001b 	b	13ce0 <strcmp+0x358>
   13c70:	e1a02822 	lsr	r2, r2, #16
   13c74:	e003382c 	and	r3, r3, ip, lsr #16
   13c78:	ea000018 	b	13ce0 <strcmp+0x358>
   13c7c:	e320f000 	nop	{0}
   13c80:	e20240ff 	and	r4, r2, #255	; 0xff
   13c84:	e6525f9c 	uadd8	r5, r2, ip
   13c88:	e0345c23 	eors	r5, r4, r3, lsr #24
   13c8c:	e6855fbc 	sel	r5, r5, ip
   13c90:	1a000007 	bne	13cb4 <strcmp+0x32c>
   13c94:	e3550000 	cmp	r5, #0
   13c98:	04913004 	ldreq	r3, [r1], #4
   13c9c:	1a000006 	bne	13cbc <strcmp+0x334>
   13ca0:	e0244002 	eor	r4, r4, r2
   13ca4:	e1540403 	cmp	r4, r3, lsl #8
   13ca8:	1a000006 	bne	13cc8 <strcmp+0x340>
   13cac:	e4902004 	ldr	r2, [r0], #4
   13cb0:	eafffff2 	b	13c80 <strcmp+0x2f8>
   13cb4:	e1a03c23 	lsr	r3, r3, #24
   13cb8:	ea000008 	b	13ce0 <strcmp+0x358>
   13cbc:	e31500ff 	tst	r5, #255	; 0xff
   13cc0:	1a000003 	bne	13cd4 <strcmp+0x34c>
   13cc4:	e5913000 	ldr	r3, [r1]
   13cc8:	e1a02422 	lsr	r2, r2, #8
   13ccc:	e3c334ff 	bic	r3, r3, #-16777216	; 0xff000000
   13cd0:	ea000002 	b	13ce0 <strcmp+0x358>
   13cd4:	e3a00000 	mov	r0, #0
   13cd8:	e0cd41d0 	ldrd	r4, [sp], #16
   13cdc:	e12fff1e 	bx	lr
   13ce0:	e6bf2f32 	rev	r2, r2
   13ce4:	e6bf3f33 	rev	r3, r3
   13ce8:	e6524f9c 	uadd8	r4, r2, ip
   13cec:	e0224003 	eor	r4, r2, r3
   13cf0:	e6845fbc 	sel	r5, r4, ip
   13cf4:	e16f4f15 	clz	r4, r5
   13cf8:	e1a02412 	lsl	r2, r2, r4
   13cfc:	e1a03413 	lsl	r3, r3, r4
   13d00:	e1a00c22 	lsr	r0, r2, #24
   13d04:	e0cd41d0 	ldrd	r4, [sp], #16
   13d08:	e0400c23 	sub	r0, r0, r3, lsr #24
   13d0c:	e12fff1e 	bx	lr
   13d10:	e320f000 	nop	{0}
   13d14:	e320f000 	nop	{0}
   13d18:	e320f000 	nop	{0}
   13d1c:	e320f000 	nop	{0}

00013d20 <__sprint_r.part.0>:
   13d20:	e5913064 	ldr	r3, [r1, #100]	; 0x64
   13d24:	e92d47f0 	push	{r4, r5, r6, r7, r8, r9, sl, lr}
   13d28:	e3130a02 	tst	r3, #8192	; 0x2000
   13d2c:	e1a07001 	mov	r7, r1
   13d30:	e1a0a002 	mov	sl, r2
   13d34:	0a000020 	beq	13dbc <__sprint_r.part.0+0x9c>
   13d38:	e5923008 	ldr	r3, [r2, #8]
   13d3c:	e5929000 	ldr	r9, [r2]
   13d40:	e3530000 	cmp	r3, #0
   13d44:	11a08000 	movne	r8, r0
   13d48:	12899008 	addne	r9, r9, #8
   13d4c:	0a000018 	beq	13db4 <__sprint_r.part.0+0x94>
   13d50:	e9190060 	ldmdb	r9, {r5, r6}
   13d54:	e1b06126 	lsrs	r6, r6, #2
   13d58:	13a04000 	movne	r4, #0
   13d5c:	12455004 	subne	r5, r5, #4
   13d60:	1a000002 	bne	13d70 <__sprint_r.part.0+0x50>
   13d64:	ea00000d 	b	13da0 <__sprint_r.part.0+0x80>
   13d68:	e1560004 	cmp	r6, r4
   13d6c:	0a00000a 	beq	13d9c <__sprint_r.part.0+0x7c>
   13d70:	e1a00008 	mov	r0, r8
   13d74:	e5b51004 	ldr	r1, [r5, #4]!
   13d78:	e1a02007 	mov	r2, r7
   13d7c:	eb0004dc 	bl	150f4 <_fputwc_r>
   13d80:	e3700001 	cmn	r0, #1
   13d84:	e2844001 	add	r4, r4, #1
   13d88:	1afffff6 	bne	13d68 <__sprint_r.part.0+0x48>
   13d8c:	e3a03000 	mov	r3, #0
   13d90:	e58a3008 	str	r3, [sl, #8]
   13d94:	e58a3004 	str	r3, [sl, #4]
   13d98:	e8bd87f0 	pop	{r4, r5, r6, r7, r8, r9, sl, pc}
   13d9c:	e59a3008 	ldr	r3, [sl, #8]
   13da0:	e0433106 	sub	r3, r3, r6, lsl #2
   13da4:	e3530000 	cmp	r3, #0
   13da8:	e58a3008 	str	r3, [sl, #8]
   13dac:	e2899008 	add	r9, r9, #8
   13db0:	1affffe6 	bne	13d50 <__sprint_r.part.0+0x30>
   13db4:	e3a00000 	mov	r0, #0
   13db8:	eafffff3 	b	13d8c <__sprint_r.part.0+0x6c>
   13dbc:	eb0004f5 	bl	15198 <__sfvwrite_r>
   13dc0:	eafffff1 	b	13d8c <__sprint_r.part.0+0x6c>

00013dc4 <__sprint_r>:
   13dc4:	e5923008 	ldr	r3, [r2, #8]
   13dc8:	e3530000 	cmp	r3, #0
   13dcc:	0a000000 	beq	13dd4 <__sprint_r+0x10>
   13dd0:	eaffffd2 	b	13d20 <__sprint_r.part.0>
   13dd4:	e5823004 	str	r3, [r2, #4]
   13dd8:	e1a00003 	mov	r0, r3
   13ddc:	e12fff1e 	bx	lr

00013de0 <_vfiprintf_r>:
   13de0:	e92d4ff0 	push	{r4, r5, r6, r7, r8, r9, sl, fp, lr}
   13de4:	e1a04003 	mov	r4, r3
   13de8:	e24dd0bc 	sub	sp, sp, #188	; 0xbc
   13dec:	e2503000 	subs	r3, r0, #0
   13df0:	e58d300c 	str	r3, [sp, #12]
   13df4:	e58d1004 	str	r1, [sp, #4]
   13df8:	e1a07002 	mov	r7, r2
   13dfc:	e58d4014 	str	r4, [sp, #20]
   13e00:	0a000002 	beq	13e10 <_vfiprintf_r+0x30>
   13e04:	e5933038 	ldr	r3, [r3, #56]	; 0x38
   13e08:	e3530000 	cmp	r3, #0
   13e0c:	0a0000c3 	beq	14120 <_vfiprintf_r+0x340>
   13e10:	e59d3004 	ldr	r3, [sp, #4]
   13e14:	e1d310bc 	ldrh	r1, [r3, #12]
   13e18:	e6ff2071 	uxth	r2, r1
   13e1c:	e3120a02 	tst	r2, #8192	; 0x2000
   13e20:	1a000006 	bne	13e40 <_vfiprintf_r+0x60>
   13e24:	e1a00003 	mov	r0, r3
   13e28:	e5933064 	ldr	r3, [r3, #100]	; 0x64
   13e2c:	e3812a02 	orr	r2, r1, #8192	; 0x2000
   13e30:	e3c33a02 	bic	r3, r3, #8192	; 0x2000
   13e34:	e1c020bc 	strh	r2, [r0, #12]
   13e38:	e5803064 	str	r3, [r0, #100]	; 0x64
   13e3c:	e6ff2072 	uxth	r2, r2
   13e40:	e3120008 	tst	r2, #8
   13e44:	0a00009d 	beq	140c0 <_vfiprintf_r+0x2e0>
   13e48:	e59d3004 	ldr	r3, [sp, #4]
   13e4c:	e5933010 	ldr	r3, [r3, #16]
   13e50:	e3530000 	cmp	r3, #0
   13e54:	0a000099 	beq	140c0 <_vfiprintf_r+0x2e0>
   13e58:	e202201a 	and	r2, r2, #26
   13e5c:	e352000a 	cmp	r2, #10
   13e60:	0a0000a0 	beq	140e8 <_vfiprintf_r+0x308>
   13e64:	e3a03000 	mov	r3, #0
   13e68:	e28d8078 	add	r8, sp, #120	; 0x78
   13e6c:	e1a0c008 	mov	ip, r8
   13e70:	e58d3030 	str	r3, [sp, #48]	; 0x30
   13e74:	e58d3010 	str	r3, [sp, #16]
   13e78:	e59fbfd8 	ldr	fp, [pc, #4056]	; 14e58 <_vfiprintf_r+0x1078>
   13e7c:	e58d304c 	str	r3, [sp, #76]	; 0x4c
   13e80:	e58d3048 	str	r3, [sp, #72]	; 0x48
   13e84:	e28d3077 	add	r3, sp, #119	; 0x77
   13e88:	e0633008 	rsb	r3, r3, r8
   13e8c:	e58d8044 	str	r8, [sp, #68]	; 0x44
   13e90:	e58d3034 	str	r3, [sp, #52]	; 0x34
   13e94:	e28b9010 	add	r9, fp, #16
   13e98:	e5d73000 	ldrb	r3, [r7]
   13e9c:	e1a04007 	mov	r4, r7
   13ea0:	e3530025 	cmp	r3, #37	; 0x25
   13ea4:	13530000 	cmpne	r3, #0
   13ea8:	0a000013 	beq	13efc <_vfiprintf_r+0x11c>
   13eac:	e5f43001 	ldrb	r3, [r4, #1]!
   13eb0:	e3530025 	cmp	r3, #37	; 0x25
   13eb4:	13530000 	cmpne	r3, #0
   13eb8:	1afffffb 	bne	13eac <_vfiprintf_r+0xcc>
   13ebc:	e0545007 	subs	r5, r4, r7
   13ec0:	0a00000d 	beq	13efc <_vfiprintf_r+0x11c>
   13ec4:	e59d3048 	ldr	r3, [sp, #72]	; 0x48
   13ec8:	e59d204c 	ldr	r2, [sp, #76]	; 0x4c
   13ecc:	e2833001 	add	r3, r3, #1
   13ed0:	e3530007 	cmp	r3, #7
   13ed4:	e0852002 	add	r2, r5, r2
   13ed8:	e58c7000 	str	r7, [ip]
   13edc:	e58c5004 	str	r5, [ip, #4]
   13ee0:	e58d3048 	str	r3, [sp, #72]	; 0x48
   13ee4:	e58d204c 	str	r2, [sp, #76]	; 0x4c
   13ee8:	d28cc008 	addle	ip, ip, #8
   13eec:	ca00006b 	bgt	140a0 <_vfiprintf_r+0x2c0>
   13ef0:	e59d3010 	ldr	r3, [sp, #16]
   13ef4:	e0833005 	add	r3, r3, r5
   13ef8:	e58d3010 	str	r3, [sp, #16]
   13efc:	e5d43000 	ldrb	r3, [r4]
   13f00:	e3530000 	cmp	r3, #0
   13f04:	0a000394 	beq	14d5c <_vfiprintf_r+0xf7c>
   13f08:	e3a03000 	mov	r3, #0
   13f0c:	e3e05000 	mvn	r5, #0
   13f10:	e1a01003 	mov	r1, r3
   13f14:	e1a00003 	mov	r0, r3
   13f18:	e1a06003 	mov	r6, r3
   13f1c:	e2844001 	add	r4, r4, #1
   13f20:	e5cd303f 	strb	r3, [sp, #63]	; 0x3f
   13f24:	e5d42000 	ldrb	r2, [r4]
   13f28:	e2847001 	add	r7, r4, #1
   13f2c:	e2423020 	sub	r3, r2, #32
   13f30:	e3530058 	cmp	r3, #88	; 0x58
   13f34:	979ff103 	ldrls	pc, [pc, r3, lsl #2]
   13f38:	ea0001d4 	b	14690 <_vfiprintf_r+0x8b0>
   13f3c:	00014624 	andeq	r4, r1, r4, lsr #12
   13f40:	00014690 	muleq	r1, r0, r6
   13f44:	00014690 	muleq	r1, r0, r6
   13f48:	00014634 	andeq	r4, r1, r4, lsr r6
   13f4c:	00014690 	muleq	r1, r0, r6
   13f50:	00014690 	muleq	r1, r0, r6
   13f54:	00014690 	muleq	r1, r0, r6
   13f58:	00014690 	muleq	r1, r0, r6
   13f5c:	00014690 	muleq	r1, r0, r6
   13f60:	00014690 	muleq	r1, r0, r6
   13f64:	00014640 	andeq	r4, r1, r0, asr #12
   13f68:	0001413c 	andeq	r4, r1, ip, lsr r1
   13f6c:	00014690 	muleq	r1, r0, r6
   13f70:	00014130 	andeq	r4, r1, r0, lsr r1
   13f74:	0001443c 	andeq	r4, r1, ip, lsr r4
   13f78:	00014690 	muleq	r1, r0, r6
   13f7c:	00014488 	andeq	r4, r1, r8, lsl #9
   13f80:	00014494 	muleq	r1, r4, r4
   13f84:	00014494 	muleq	r1, r4, r4
   13f88:	00014494 	muleq	r1, r4, r4
   13f8c:	00014494 	muleq	r1, r4, r4
   13f90:	00014494 	muleq	r1, r4, r4
   13f94:	00014494 	muleq	r1, r4, r4
   13f98:	00014494 	muleq	r1, r4, r4
   13f9c:	00014494 	muleq	r1, r4, r4
   13fa0:	00014494 	muleq	r1, r4, r4
   13fa4:	00014690 	muleq	r1, r0, r6
   13fa8:	00014690 	muleq	r1, r0, r6
   13fac:	00014690 	muleq	r1, r0, r6
   13fb0:	00014690 	muleq	r1, r0, r6
   13fb4:	00014690 	muleq	r1, r0, r6
   13fb8:	00014690 	muleq	r1, r0, r6
   13fbc:	00014690 	muleq	r1, r0, r6
   13fc0:	00014690 	muleq	r1, r0, r6
   13fc4:	00014690 	muleq	r1, r0, r6
   13fc8:	00014690 	muleq	r1, r0, r6
   13fcc:	000144b8 			; <UNDEFINED> instruction: 0x000144b8
   13fd0:	00014690 	muleq	r1, r0, r6
   13fd4:	00014690 	muleq	r1, r0, r6
   13fd8:	00014690 	muleq	r1, r0, r6
   13fdc:	00014690 	muleq	r1, r0, r6
   13fe0:	00014690 	muleq	r1, r0, r6
   13fe4:	00014690 	muleq	r1, r0, r6
   13fe8:	00014690 	muleq	r1, r0, r6
   13fec:	00014690 	muleq	r1, r0, r6
   13ff0:	00014690 	muleq	r1, r0, r6
   13ff4:	00014690 	muleq	r1, r0, r6
   13ff8:	00014508 	andeq	r4, r1, r8, lsl #10
   13ffc:	00014690 	muleq	r1, r0, r6
   14000:	00014690 	muleq	r1, r0, r6
   14004:	00014690 	muleq	r1, r0, r6
   14008:	00014690 	muleq	r1, r0, r6
   1400c:	00014690 	muleq	r1, r0, r6
   14010:	00014544 	andeq	r4, r1, r4, asr #10
   14014:	00014690 	muleq	r1, r0, r6
   14018:	00014690 	muleq	r1, r0, r6
   1401c:	00014570 	andeq	r4, r1, r0, ror r5
   14020:	00014690 	muleq	r1, r0, r6
   14024:	00014690 	muleq	r1, r0, r6
   14028:	00014690 	muleq	r1, r0, r6
   1402c:	00014690 	muleq	r1, r0, r6
   14030:	00014690 	muleq	r1, r0, r6
   14034:	00014690 	muleq	r1, r0, r6
   14038:	00014690 	muleq	r1, r0, r6
   1403c:	00014690 	muleq	r1, r0, r6
   14040:	00014690 	muleq	r1, r0, r6
   14044:	00014690 	muleq	r1, r0, r6
   14048:	000145c0 	andeq	r4, r1, r0, asr #11
   1404c:	000145fc 	strdeq	r4, [r1], -ip
   14050:	00014690 	muleq	r1, r0, r6
   14054:	00014690 	muleq	r1, r0, r6
   14058:	00014690 	muleq	r1, r0, r6
   1405c:	0001447c 	andeq	r4, r1, ip, ror r4
   14060:	000145fc 	strdeq	r4, [r1], -ip
   14064:	00014690 	muleq	r1, r0, r6
   14068:	00014690 	muleq	r1, r0, r6
   1406c:	000140b4 	strheq	r4, [r1], -r4	; <UNPREDICTABLE>
   14070:	00014690 	muleq	r1, r0, r6
   14074:	00014660 	andeq	r4, r1, r0, ror #12
   14078:	00014148 	andeq	r4, r1, r8, asr #2
   1407c:	000143a0 	andeq	r4, r1, r0, lsr #7
   14080:	000140b4 	strheq	r4, [r1], -r4	; <UNPREDICTABLE>
   14084:	00014690 	muleq	r1, r0, r6
   14088:	000143d8 	ldrdeq	r4, [r1], -r8
   1408c:	00014690 	muleq	r1, r0, r6
   14090:	0001431c 	andeq	r4, r1, ip, lsl r3
   14094:	00014690 	muleq	r1, r0, r6
   14098:	00014690 	muleq	r1, r0, r6
   1409c:	0001434c 	andeq	r4, r1, ip, asr #6
   140a0:	e3520000 	cmp	r2, #0
   140a4:	1a0002ed 	bne	14c60 <_vfiprintf_r+0xe80>
   140a8:	e58d2048 	str	r2, [sp, #72]	; 0x48
   140ac:	e1a0c008 	mov	ip, r8
   140b0:	eaffff8e 	b	13ef0 <_vfiprintf_r+0x110>
   140b4:	e3866010 	orr	r6, r6, #16
   140b8:	e1a04007 	mov	r4, r7
   140bc:	eaffff98 	b	13f24 <_vfiprintf_r+0x144>
   140c0:	e59d000c 	ldr	r0, [sp, #12]
   140c4:	e59d1004 	ldr	r1, [sp, #4]
   140c8:	ebfff329 	bl	10d74 <__swsetup_r>
   140cc:	e3500000 	cmp	r0, #0
   140d0:	1a00000f 	bne	14114 <_vfiprintf_r+0x334>
   140d4:	e59d3004 	ldr	r3, [sp, #4]
   140d8:	e1d320bc 	ldrh	r2, [r3, #12]
   140dc:	e202201a 	and	r2, r2, #26
   140e0:	e352000a 	cmp	r2, #10
   140e4:	1affff5e 	bne	13e64 <_vfiprintf_r+0x84>
   140e8:	e59d3004 	ldr	r3, [sp, #4]
   140ec:	e1d330fe 	ldrsh	r3, [r3, #14]
   140f0:	e3530000 	cmp	r3, #0
   140f4:	baffff5a 	blt	13e64 <_vfiprintf_r+0x84>
   140f8:	e59d000c 	ldr	r0, [sp, #12]
   140fc:	e59d1004 	ldr	r1, [sp, #4]
   14100:	e1a02007 	mov	r2, r7
   14104:	e1a03004 	mov	r3, r4
   14108:	eb000362 	bl	14e98 <__sbprintf>
   1410c:	e28dd0bc 	add	sp, sp, #188	; 0xbc
   14110:	e8bd8ff0 	pop	{r4, r5, r6, r7, r8, r9, sl, fp, pc}
   14114:	e3e00000 	mvn	r0, #0
   14118:	e28dd0bc 	add	sp, sp, #188	; 0xbc
   1411c:	e8bd8ff0 	pop	{r4, r5, r6, r7, r8, r9, sl, fp, pc}
   14120:	ebffe2ed 	bl	ccdc <__sinit>
   14124:	eaffff39 	b	13e10 <_vfiprintf_r+0x30>
   14128:	e58d3014 	str	r3, [sp, #20]
   1412c:	e2600000 	rsb	r0, r0, #0
   14130:	e3866004 	orr	r6, r6, #4
   14134:	e1a04007 	mov	r4, r7
   14138:	eaffff79 	b	13f24 <_vfiprintf_r+0x144>
   1413c:	e1a04007 	mov	r4, r7
   14140:	e3a0102b 	mov	r1, #43	; 0x2b
   14144:	eaffff76 	b	13f24 <_vfiprintf_r+0x144>
   14148:	e2163010 	ands	r3, r6, #16
   1414c:	e58d001c 	str	r0, [sp, #28]
   14150:	0a0000f0 	beq	14518 <_vfiprintf_r+0x738>
   14154:	e3a02000 	mov	r2, #0
   14158:	e59d1014 	ldr	r1, [sp, #20]
   1415c:	e5913000 	ldr	r3, [r1]
   14160:	e2811004 	add	r1, r1, #4
   14164:	e58d1014 	str	r1, [sp, #20]
   14168:	e3a00000 	mov	r0, #0
   1416c:	e1a01000 	mov	r1, r0
   14170:	e58d5018 	str	r5, [sp, #24]
   14174:	e5cd003f 	strb	r0, [sp, #63]	; 0x3f
   14178:	e3550000 	cmp	r5, #0
   1417c:	a3c66080 	bicge	r6, r6, #128	; 0x80
   14180:	e3530000 	cmp	r3, #0
   14184:	03550000 	cmpeq	r5, #0
   14188:	13a05001 	movne	r5, #1
   1418c:	03a05000 	moveq	r5, #0
   14190:	0a000243 	beq	14aa4 <_vfiprintf_r+0xcc4>
   14194:	e3520001 	cmp	r2, #1
   14198:	0a0002a0 	beq	14c20 <_vfiprintf_r+0xe40>
   1419c:	e3520002 	cmp	r2, #2
   141a0:	e1a0a008 	mov	sl, r8
   141a4:	1a00004d 	bne	142e0 <_vfiprintf_r+0x500>
   141a8:	e59d0030 	ldr	r0, [sp, #48]	; 0x30
   141ac:	e203200f 	and	r2, r3, #15
   141b0:	e7d02002 	ldrb	r2, [r0, r2]
   141b4:	e1b03223 	lsrs	r3, r3, #4
   141b8:	e56a2001 	strb	r2, [sl, #-1]!
   141bc:	1afffffa 	bne	141ac <_vfiprintf_r+0x3cc>
   141c0:	e06a5008 	rsb	r5, sl, r8
   141c4:	e59d3018 	ldr	r3, [sp, #24]
   141c8:	e1550003 	cmp	r5, r3
   141cc:	a1a03005 	movge	r3, r5
   141d0:	e3510000 	cmp	r1, #0
   141d4:	e58d3008 	str	r3, [sp, #8]
   141d8:	12833001 	addne	r3, r3, #1
   141dc:	158d3008 	strne	r3, [sp, #8]
   141e0:	e2163002 	ands	r3, r6, #2
   141e4:	e58d3020 	str	r3, [sp, #32]
   141e8:	159d3008 	ldrne	r3, [sp, #8]
   141ec:	12833002 	addne	r3, r3, #2
   141f0:	158d3008 	strne	r3, [sp, #8]
   141f4:	e2163084 	ands	r3, r6, #132	; 0x84
   141f8:	e58d3024 	str	r3, [sp, #36]	; 0x24
   141fc:	1a00014a 	bne	1472c <_vfiprintf_r+0x94c>
   14200:	e59d301c 	ldr	r3, [sp, #28]
   14204:	e59d2008 	ldr	r2, [sp, #8]
   14208:	e0624003 	rsb	r4, r2, r3
   1420c:	e3540000 	cmp	r4, #0
   14210:	da000145 	ble	1472c <_vfiprintf_r+0x94c>
   14214:	e3540010 	cmp	r4, #16
   14218:	da0002eb 	ble	14dcc <_vfiprintf_r+0xfec>
   1421c:	e59f1c34 	ldr	r1, [pc, #3124]	; 14e58 <_vfiprintf_r+0x1078>
   14220:	e3a03010 	mov	r3, #16
   14224:	e59d204c 	ldr	r2, [sp, #76]	; 0x4c
   14228:	e59de048 	ldr	lr, [sp, #72]	; 0x48
   1422c:	e58d102c 	str	r1, [sp, #44]	; 0x2c
   14230:	ea000005 	b	1424c <_vfiprintf_r+0x46c>
   14234:	e28e1002 	add	r1, lr, #2
   14238:	e1a0e000 	mov	lr, r0
   1423c:	e28cc008 	add	ip, ip, #8
   14240:	e2444010 	sub	r4, r4, #16
   14244:	e3540010 	cmp	r4, #16
   14248:	da00000f 	ble	1428c <_vfiprintf_r+0x4ac>
   1424c:	e28e0001 	add	r0, lr, #1
   14250:	e2822010 	add	r2, r2, #16
   14254:	e3500007 	cmp	r0, #7
   14258:	e58d204c 	str	r2, [sp, #76]	; 0x4c
   1425c:	e58cb000 	str	fp, [ip]
   14260:	e58c3004 	str	r3, [ip, #4]
   14264:	e58d0048 	str	r0, [sp, #72]	; 0x48
   14268:	dafffff1 	ble	14234 <_vfiprintf_r+0x454>
   1426c:	e3520000 	cmp	r2, #0
   14270:	1a000119 	bne	146dc <_vfiprintf_r+0x8fc>
   14274:	e2444010 	sub	r4, r4, #16
   14278:	e3540010 	cmp	r4, #16
   1427c:	e1a0e002 	mov	lr, r2
   14280:	e3a01001 	mov	r1, #1
   14284:	e1a0c008 	mov	ip, r8
   14288:	caffffef 	bgt	1424c <_vfiprintf_r+0x46c>
   1428c:	e59d302c 	ldr	r3, [sp, #44]	; 0x2c
   14290:	e3510007 	cmp	r1, #7
   14294:	e0842002 	add	r2, r4, r2
   14298:	e88c0018 	stm	ip, {r3, r4}
   1429c:	e58d204c 	str	r2, [sp, #76]	; 0x4c
   142a0:	e58d1048 	str	r1, [sp, #72]	; 0x48
   142a4:	d28cc008 	addle	ip, ip, #8
   142a8:	d2810001 	addle	r0, r1, #1
   142ac:	da000121 	ble	14738 <_vfiprintf_r+0x958>
   142b0:	e3520000 	cmp	r2, #0
   142b4:	1a000115 	bne	14710 <_vfiprintf_r+0x930>
   142b8:	e5dd103f 	ldrb	r1, [sp, #63]	; 0x3f
   142bc:	e3510000 	cmp	r1, #0
   142c0:	0a000299 	beq	14d2c <_vfiprintf_r+0xf4c>
   142c4:	e3a02001 	mov	r2, #1
   142c8:	e28d103f 	add	r1, sp, #63	; 0x3f
   142cc:	e1a00002 	mov	r0, r2
   142d0:	e58d207c 	str	r2, [sp, #124]	; 0x7c
   142d4:	e58d1078 	str	r1, [sp, #120]	; 0x78
   142d8:	e1a0c008 	mov	ip, r8
   142dc:	ea000121 	b	14768 <_vfiprintf_r+0x988>
   142e0:	e2032007 	and	r2, r3, #7
   142e4:	e2822030 	add	r2, r2, #48	; 0x30
   142e8:	e1b031a3 	lsrs	r3, r3, #3
   142ec:	e56a2001 	strb	r2, [sl, #-1]!
   142f0:	1afffffa 	bne	142e0 <_vfiprintf_r+0x500>
   142f4:	e3160001 	tst	r6, #1
   142f8:	e1a0300a 	mov	r3, sl
   142fc:	0affffaf 	beq	141c0 <_vfiprintf_r+0x3e0>
   14300:	e3520030 	cmp	r2, #48	; 0x30
   14304:	0affffad 	beq	141c0 <_vfiprintf_r+0x3e0>
   14308:	e3a02030 	mov	r2, #48	; 0x30
   1430c:	e24aa001 	sub	sl, sl, #1
   14310:	e06a5008 	rsb	r5, sl, r8
   14314:	e5432001 	strb	r2, [r3, #-1]
   14318:	eaffffa9 	b	141c4 <_vfiprintf_r+0x3e4>
   1431c:	e59d1014 	ldr	r1, [sp, #20]
   14320:	e3160010 	tst	r6, #16
   14324:	e58d001c 	str	r0, [sp, #28]
   14328:	e1a03001 	mov	r3, r1
   1432c:	1a00008a 	bne	1455c <_vfiprintf_r+0x77c>
   14330:	e3160040 	tst	r6, #64	; 0x40
   14334:	0a000088 	beq	1455c <_vfiprintf_r+0x77c>
   14338:	e1d130b0 	ldrh	r3, [r1]
   1433c:	e2811004 	add	r1, r1, #4
   14340:	e3a02001 	mov	r2, #1
   14344:	e58d1014 	str	r1, [sp, #20]
   14348:	eaffff86 	b	14168 <_vfiprintf_r+0x388>
   1434c:	e58d001c 	str	r0, [sp, #28]
   14350:	e59f0b04 	ldr	r0, [pc, #2820]	; 14e5c <_vfiprintf_r+0x107c>
   14354:	e3160010 	tst	r6, #16
   14358:	e59d3014 	ldr	r3, [sp, #20]
   1435c:	e58d0030 	str	r0, [sp, #48]	; 0x30
   14360:	e5cd103f 	strb	r1, [sp, #63]	; 0x3f
   14364:	0a000088 	beq	1458c <_vfiprintf_r+0x7ac>
   14368:	e59d1014 	ldr	r1, [sp, #20]
   1436c:	e3160001 	tst	r6, #1
   14370:	e2811004 	add	r1, r1, #4
   14374:	e58d1014 	str	r1, [sp, #20]
   14378:	e5933000 	ldr	r3, [r3]
   1437c:	0a00008d 	beq	145b8 <_vfiprintf_r+0x7d8>
   14380:	e3530000 	cmp	r3, #0
   14384:	0a00008b 	beq	145b8 <_vfiprintf_r+0x7d8>
   14388:	e3a01030 	mov	r1, #48	; 0x30
   1438c:	e5cd2041 	strb	r2, [sp, #65]	; 0x41
   14390:	e3866002 	orr	r6, r6, #2
   14394:	e5cd1040 	strb	r1, [sp, #64]	; 0x40
   14398:	e3a02002 	mov	r2, #2
   1439c:	eaffff71 	b	14168 <_vfiprintf_r+0x388>
   143a0:	e3a02078 	mov	r2, #120	; 0x78
   143a4:	e3a01030 	mov	r1, #48	; 0x30
   143a8:	e58d001c 	str	r0, [sp, #28]
   143ac:	e59d0014 	ldr	r0, [sp, #20]
   143b0:	e5cd2041 	strb	r2, [sp, #65]	; 0x41
   143b4:	e59f2aa0 	ldr	r2, [pc, #2720]	; 14e5c <_vfiprintf_r+0x107c>
   143b8:	e5903000 	ldr	r3, [r0]
   143bc:	e2800004 	add	r0, r0, #4
   143c0:	e58d2030 	str	r2, [sp, #48]	; 0x30
   143c4:	e3866002 	orr	r6, r6, #2
   143c8:	e58d0014 	str	r0, [sp, #20]
   143cc:	e5cd1040 	strb	r1, [sp, #64]	; 0x40
   143d0:	e3a02002 	mov	r2, #2
   143d4:	eaffff63 	b	14168 <_vfiprintf_r+0x388>
   143d8:	e3a04000 	mov	r4, #0
   143dc:	e59d3014 	ldr	r3, [sp, #20]
   143e0:	e58d001c 	str	r0, [sp, #28]
   143e4:	e593a000 	ldr	sl, [r3]
   143e8:	e5cd403f 	strb	r4, [sp, #63]	; 0x3f
   143ec:	e15a0004 	cmp	sl, r4
   143f0:	e2833004 	add	r3, r3, #4
   143f4:	0a00027a 	beq	14de4 <_vfiprintf_r+0x1004>
   143f8:	e3550000 	cmp	r5, #0
   143fc:	ba00025e 	blt	14d7c <_vfiprintf_r+0xf9c>
   14400:	e1a0000a 	mov	r0, sl
   14404:	e1a01004 	mov	r1, r4
   14408:	e1a02005 	mov	r2, r5
   1440c:	e58dc014 	str	ip, [sp, #20]
   14410:	e58d3008 	str	r3, [sp, #8]
   14414:	ebfff95e 	bl	12994 <memchr>
   14418:	e3500000 	cmp	r0, #0
   1441c:	e59d3008 	ldr	r3, [sp, #8]
   14420:	e59dc014 	ldr	ip, [sp, #20]
   14424:	0a00027e 	beq	14e24 <_vfiprintf_r+0x1044>
   14428:	e06a5000 	rsb	r5, sl, r0
   1442c:	e58d3014 	str	r3, [sp, #20]
   14430:	e58d4018 	str	r4, [sp, #24]
   14434:	e5dd103f 	ldrb	r1, [sp, #63]	; 0x3f
   14438:	eaffff61 	b	141c4 <_vfiprintf_r+0x3e4>
   1443c:	e5d72000 	ldrb	r2, [r7]
   14440:	e2877001 	add	r7, r7, #1
   14444:	e352002a 	cmp	r2, #42	; 0x2a
   14448:	0a000279 	beq	14e34 <_vfiprintf_r+0x1054>
   1444c:	e2423030 	sub	r3, r2, #48	; 0x30
   14450:	e3530009 	cmp	r3, #9
   14454:	e3a05000 	mov	r5, #0
   14458:	8afffeb3 	bhi	13f2c <_vfiprintf_r+0x14c>
   1445c:	e4d72001 	ldrb	r2, [r7], #1
   14460:	e0855105 	add	r5, r5, r5, lsl #2
   14464:	e0835085 	add	r5, r3, r5, lsl #1
   14468:	e2423030 	sub	r3, r2, #48	; 0x30
   1446c:	e3530009 	cmp	r3, #9
   14470:	9afffff9 	bls	1445c <_vfiprintf_r+0x67c>
   14474:	e1855fc5 	orr	r5, r5, r5, asr #31
   14478:	eafffeab 	b	13f2c <_vfiprintf_r+0x14c>
   1447c:	e3866040 	orr	r6, r6, #64	; 0x40
   14480:	e1a04007 	mov	r4, r7
   14484:	eafffea6 	b	13f24 <_vfiprintf_r+0x144>
   14488:	e3866080 	orr	r6, r6, #128	; 0x80
   1448c:	e1a04007 	mov	r4, r7
   14490:	eafffea3 	b	13f24 <_vfiprintf_r+0x144>
   14494:	e3a00000 	mov	r0, #0
   14498:	e2423030 	sub	r3, r2, #48	; 0x30
   1449c:	e4d72001 	ldrb	r2, [r7], #1
   144a0:	e0800100 	add	r0, r0, r0, lsl #2
   144a4:	e0830080 	add	r0, r3, r0, lsl #1
   144a8:	e2423030 	sub	r3, r2, #48	; 0x30
   144ac:	e3530009 	cmp	r3, #9
   144b0:	9afffff9 	bls	1449c <_vfiprintf_r+0x6bc>
   144b4:	eafffe9c 	b	13f2c <_vfiprintf_r+0x14c>
   144b8:	e3866010 	orr	r6, r6, #16
   144bc:	e59d2014 	ldr	r2, [sp, #20]
   144c0:	e3160010 	tst	r6, #16
   144c4:	e58d001c 	str	r0, [sp, #28]
   144c8:	e5cd103f 	strb	r1, [sp, #63]	; 0x3f
   144cc:	e1a03002 	mov	r3, r2
   144d0:	1a00004f 	bne	14614 <_vfiprintf_r+0x834>
   144d4:	e3160040 	tst	r6, #64	; 0x40
   144d8:	0a00004d 	beq	14614 <_vfiprintf_r+0x834>
   144dc:	e1d230f0 	ldrsh	r3, [r2]
   144e0:	e2822004 	add	r2, r2, #4
   144e4:	e58d2014 	str	r2, [sp, #20]
   144e8:	e3530000 	cmp	r3, #0
   144ec:	b3a0102d 	movlt	r1, #45	; 0x2d
   144f0:	a5dd103f 	ldrbge	r1, [sp, #63]	; 0x3f
   144f4:	b2633000 	rsblt	r3, r3, #0
   144f8:	b5cd103f 	strblt	r1, [sp, #63]	; 0x3f
   144fc:	e58d5018 	str	r5, [sp, #24]
   14500:	e3a02001 	mov	r2, #1
   14504:	eaffff1b 	b	14178 <_vfiprintf_r+0x398>
   14508:	e3866010 	orr	r6, r6, #16
   1450c:	e2163010 	ands	r3, r6, #16
   14510:	e58d001c 	str	r0, [sp, #28]
   14514:	1affff0e 	bne	14154 <_vfiprintf_r+0x374>
   14518:	e2162040 	ands	r2, r6, #64	; 0x40
   1451c:	159d1014 	ldrne	r1, [sp, #20]
   14520:	059d1014 	ldreq	r1, [sp, #20]
   14524:	11a02003 	movne	r2, r3
   14528:	01a03001 	moveq	r3, r1
   1452c:	11a03001 	movne	r3, r1
   14530:	e2811004 	add	r1, r1, #4
   14534:	11d330b0 	ldrhne	r3, [r3]
   14538:	05933000 	ldreq	r3, [r3]
   1453c:	e58d1014 	str	r1, [sp, #20]
   14540:	eaffff08 	b	14168 <_vfiprintf_r+0x388>
   14544:	e3866010 	orr	r6, r6, #16
   14548:	e59d1014 	ldr	r1, [sp, #20]
   1454c:	e3160010 	tst	r6, #16
   14550:	e58d001c 	str	r0, [sp, #28]
   14554:	e1a03001 	mov	r3, r1
   14558:	0affff74 	beq	14330 <_vfiprintf_r+0x550>
   1455c:	e2811004 	add	r1, r1, #4
   14560:	e5933000 	ldr	r3, [r3]
   14564:	e3a02001 	mov	r2, #1
   14568:	e58d1014 	str	r1, [sp, #20]
   1456c:	eafffefd 	b	14168 <_vfiprintf_r+0x388>
   14570:	e5cd103f 	strb	r1, [sp, #63]	; 0x3f
   14574:	e59f18e4 	ldr	r1, [pc, #2276]	; 14e60 <_vfiprintf_r+0x1080>
   14578:	e3160010 	tst	r6, #16
   1457c:	e58d001c 	str	r0, [sp, #28]
   14580:	e59d3014 	ldr	r3, [sp, #20]
   14584:	e58d1030 	str	r1, [sp, #48]	; 0x30
   14588:	1affff76 	bne	14368 <_vfiprintf_r+0x588>
   1458c:	e3160040 	tst	r6, #64	; 0x40
   14590:	159d1014 	ldrne	r1, [sp, #20]
   14594:	059d1014 	ldreq	r1, [sp, #20]
   14598:	12811004 	addne	r1, r1, #4
   1459c:	02811004 	addeq	r1, r1, #4
   145a0:	158d1014 	strne	r1, [sp, #20]
   145a4:	11d330b0 	ldrhne	r3, [r3]
   145a8:	05933000 	ldreq	r3, [r3]
   145ac:	058d1014 	streq	r1, [sp, #20]
   145b0:	e3160001 	tst	r6, #1
   145b4:	1affff71 	bne	14380 <_vfiprintf_r+0x5a0>
   145b8:	e3a02002 	mov	r2, #2
   145bc:	eafffee9 	b	14168 <_vfiprintf_r+0x388>
   145c0:	e3a01001 	mov	r1, #1
   145c4:	e3a03000 	mov	r3, #0
   145c8:	e1a05001 	mov	r5, r1
   145cc:	e58d001c 	str	r0, [sp, #28]
   145d0:	e59d0014 	ldr	r0, [sp, #20]
   145d4:	e58d1008 	str	r1, [sp, #8]
   145d8:	e5902000 	ldr	r2, [r0]
   145dc:	e2800004 	add	r0, r0, #4
   145e0:	e58d0014 	str	r0, [sp, #20]
   145e4:	e5cd2050 	strb	r2, [sp, #80]	; 0x50
   145e8:	e5cd303f 	strb	r3, [sp, #63]	; 0x3f
   145ec:	e28da050 	add	sl, sp, #80	; 0x50
   145f0:	e3a03000 	mov	r3, #0
   145f4:	e58d3018 	str	r3, [sp, #24]
   145f8:	eafffef8 	b	141e0 <_vfiprintf_r+0x400>
   145fc:	e59d2014 	ldr	r2, [sp, #20]
   14600:	e3160010 	tst	r6, #16
   14604:	e58d001c 	str	r0, [sp, #28]
   14608:	e5cd103f 	strb	r1, [sp, #63]	; 0x3f
   1460c:	e1a03002 	mov	r3, r2
   14610:	0affffaf 	beq	144d4 <_vfiprintf_r+0x6f4>
   14614:	e2822004 	add	r2, r2, #4
   14618:	e5933000 	ldr	r3, [r3]
   1461c:	e58d2014 	str	r2, [sp, #20]
   14620:	eaffffb0 	b	144e8 <_vfiprintf_r+0x708>
   14624:	e3510000 	cmp	r1, #0
   14628:	e1a04007 	mov	r4, r7
   1462c:	03a01020 	moveq	r1, #32
   14630:	eafffe3b 	b	13f24 <_vfiprintf_r+0x144>
   14634:	e3866001 	orr	r6, r6, #1
   14638:	e1a04007 	mov	r4, r7
   1463c:	eafffe38 	b	13f24 <_vfiprintf_r+0x144>
   14640:	e59d3014 	ldr	r3, [sp, #20]
   14644:	e1a04007 	mov	r4, r7
   14648:	e5930000 	ldr	r0, [r3]
   1464c:	e2833004 	add	r3, r3, #4
   14650:	e3500000 	cmp	r0, #0
   14654:	bafffeb3 	blt	14128 <_vfiprintf_r+0x348>
   14658:	e58d3014 	str	r3, [sp, #20]
   1465c:	eafffe30 	b	13f24 <_vfiprintf_r+0x144>
   14660:	e3160010 	tst	r6, #16
   14664:	e5cd103f 	strb	r1, [sp, #63]	; 0x3f
   14668:	1a000014 	bne	146c0 <_vfiprintf_r+0x8e0>
   1466c:	e3160040 	tst	r6, #64	; 0x40
   14670:	0a000012 	beq	146c0 <_vfiprintf_r+0x8e0>
   14674:	e59d2014 	ldr	r2, [sp, #20]
   14678:	e5923000 	ldr	r3, [r2]
   1467c:	e2822004 	add	r2, r2, #4
   14680:	e58d2014 	str	r2, [sp, #20]
   14684:	e1dd21b0 	ldrh	r2, [sp, #16]
   14688:	e1c320b0 	strh	r2, [r3]
   1468c:	eafffe01 	b	13e98 <_vfiprintf_r+0xb8>
   14690:	e3520000 	cmp	r2, #0
   14694:	e58d001c 	str	r0, [sp, #28]
   14698:	e5cd103f 	strb	r1, [sp, #63]	; 0x3f
   1469c:	0a0001ae 	beq	14d5c <_vfiprintf_r+0xf7c>
   146a0:	e3a01001 	mov	r1, #1
   146a4:	e3a03000 	mov	r3, #0
   146a8:	e58d1008 	str	r1, [sp, #8]
   146ac:	e5cd2050 	strb	r2, [sp, #80]	; 0x50
   146b0:	e5cd303f 	strb	r3, [sp, #63]	; 0x3f
   146b4:	e1a05001 	mov	r5, r1
   146b8:	e28da050 	add	sl, sp, #80	; 0x50
   146bc:	eaffffcb 	b	145f0 <_vfiprintf_r+0x810>
   146c0:	e59d2014 	ldr	r2, [sp, #20]
   146c4:	e5923000 	ldr	r3, [r2]
   146c8:	e2822004 	add	r2, r2, #4
   146cc:	e58d2014 	str	r2, [sp, #20]
   146d0:	e59d2010 	ldr	r2, [sp, #16]
   146d4:	e5832000 	str	r2, [r3]
   146d8:	eafffdee 	b	13e98 <_vfiprintf_r+0xb8>
   146dc:	e59d000c 	ldr	r0, [sp, #12]
   146e0:	e59d1004 	ldr	r1, [sp, #4]
   146e4:	e28d2044 	add	r2, sp, #68	; 0x44
   146e8:	e58d3028 	str	r3, [sp, #40]	; 0x28
   146ec:	ebfffd8b 	bl	13d20 <__sprint_r.part.0>
   146f0:	e3500000 	cmp	r0, #0
   146f4:	1a0000aa 	bne	149a4 <_vfiprintf_r+0xbc4>
   146f8:	e59de048 	ldr	lr, [sp, #72]	; 0x48
   146fc:	e1a0c008 	mov	ip, r8
   14700:	e59d204c 	ldr	r2, [sp, #76]	; 0x4c
   14704:	e28e1001 	add	r1, lr, #1
   14708:	e59d3028 	ldr	r3, [sp, #40]	; 0x28
   1470c:	eafffecb 	b	14240 <_vfiprintf_r+0x460>
   14710:	e59d000c 	ldr	r0, [sp, #12]
   14714:	e59d1004 	ldr	r1, [sp, #4]
   14718:	e28d2044 	add	r2, sp, #68	; 0x44
   1471c:	ebfffd7f 	bl	13d20 <__sprint_r.part.0>
   14720:	e3500000 	cmp	r0, #0
   14724:	1a00009e 	bne	149a4 <_vfiprintf_r+0xbc4>
   14728:	e1a0c008 	mov	ip, r8
   1472c:	e59d1048 	ldr	r1, [sp, #72]	; 0x48
   14730:	e59d204c 	ldr	r2, [sp, #76]	; 0x4c
   14734:	e2810001 	add	r0, r1, #1
   14738:	e5dde03f 	ldrb	lr, [sp, #63]	; 0x3f
   1473c:	e35e0000 	cmp	lr, #0
   14740:	0a00000b 	beq	14774 <_vfiprintf_r+0x994>
   14744:	e3a01001 	mov	r1, #1
   14748:	e28de03f 	add	lr, sp, #63	; 0x3f
   1474c:	e0822001 	add	r2, r2, r1
   14750:	e3500007 	cmp	r0, #7
   14754:	e58d204c 	str	r2, [sp, #76]	; 0x4c
   14758:	e58d0048 	str	r0, [sp, #72]	; 0x48
   1475c:	e58c1004 	str	r1, [ip, #4]
   14760:	e58ce000 	str	lr, [ip]
   14764:	ca000113 	bgt	14bb8 <_vfiprintf_r+0xdd8>
   14768:	e1a01000 	mov	r1, r0
   1476c:	e28cc008 	add	ip, ip, #8
   14770:	e2800001 	add	r0, r0, #1
   14774:	e59d3020 	ldr	r3, [sp, #32]
   14778:	e3530000 	cmp	r3, #0
   1477c:	0a00000b 	beq	147b0 <_vfiprintf_r+0x9d0>
   14780:	e3a01002 	mov	r1, #2
   14784:	e28d3040 	add	r3, sp, #64	; 0x40
   14788:	e0822001 	add	r2, r2, r1
   1478c:	e3500007 	cmp	r0, #7
   14790:	e58d204c 	str	r2, [sp, #76]	; 0x4c
   14794:	e58d0048 	str	r0, [sp, #72]	; 0x48
   14798:	e58c1004 	str	r1, [ip, #4]
   1479c:	e58c3000 	str	r3, [ip]
   147a0:	ca000111 	bgt	14bec <_vfiprintf_r+0xe0c>
   147a4:	e1a01000 	mov	r1, r0
   147a8:	e28cc008 	add	ip, ip, #8
   147ac:	e2800001 	add	r0, r0, #1
   147b0:	e59d3024 	ldr	r3, [sp, #36]	; 0x24
   147b4:	e3530080 	cmp	r3, #128	; 0x80
   147b8:	0a0000c5 	beq	14ad4 <_vfiprintf_r+0xcf4>
   147bc:	e59d3018 	ldr	r3, [sp, #24]
   147c0:	e0654003 	rsb	r4, r5, r3
   147c4:	e3540000 	cmp	r4, #0
   147c8:	da000093 	ble	14a1c <_vfiprintf_r+0xc3c>
   147cc:	e3540010 	cmp	r4, #16
   147d0:	d59f368c 	ldrle	r3, [pc, #1676]	; 14e64 <_vfiprintf_r+0x1084>
   147d4:	d58d3020 	strle	r3, [sp, #32]
   147d8:	da000019 	ble	14844 <_vfiprintf_r+0xa64>
   147dc:	e59f0680 	ldr	r0, [pc, #1664]	; 14e64 <_vfiprintf_r+0x1084>
   147e0:	e3a03010 	mov	r3, #16
   147e4:	e58d0020 	str	r0, [sp, #32]
   147e8:	ea000005 	b	14804 <_vfiprintf_r+0xa24>
   147ec:	e2810002 	add	r0, r1, #2
   147f0:	e1a0100e 	mov	r1, lr
   147f4:	e28cc008 	add	ip, ip, #8
   147f8:	e2444010 	sub	r4, r4, #16
   147fc:	e3540010 	cmp	r4, #16
   14800:	da00000f 	ble	14844 <_vfiprintf_r+0xa64>
   14804:	e281e001 	add	lr, r1, #1
   14808:	e2822010 	add	r2, r2, #16
   1480c:	e35e0007 	cmp	lr, #7
   14810:	e58d204c 	str	r2, [sp, #76]	; 0x4c
   14814:	e58c9000 	str	r9, [ip]
   14818:	e58c3004 	str	r3, [ip, #4]
   1481c:	e58de048 	str	lr, [sp, #72]	; 0x48
   14820:	dafffff1 	ble	147ec <_vfiprintf_r+0xa0c>
   14824:	e3520000 	cmp	r2, #0
   14828:	1a000064 	bne	149c0 <_vfiprintf_r+0xbe0>
   1482c:	e2444010 	sub	r4, r4, #16
   14830:	e3540010 	cmp	r4, #16
   14834:	e3a00001 	mov	r0, #1
   14838:	e1a01002 	mov	r1, r2
   1483c:	e1a0c008 	mov	ip, r8
   14840:	caffffef 	bgt	14804 <_vfiprintf_r+0xa24>
   14844:	e59d3020 	ldr	r3, [sp, #32]
   14848:	e3500007 	cmp	r0, #7
   1484c:	e0822004 	add	r2, r2, r4
   14850:	e88c0018 	stm	ip, {r3, r4}
   14854:	e58d0048 	str	r0, [sp, #72]	; 0x48
   14858:	e58d204c 	str	r2, [sp, #76]	; 0x4c
   1485c:	d28cc008 	addle	ip, ip, #8
   14860:	d2800001 	addle	r0, r0, #1
   14864:	da00006c 	ble	14a1c <_vfiprintf_r+0xc3c>
   14868:	e3520000 	cmp	r2, #0
   1486c:	1a000060 	bne	149f4 <_vfiprintf_r+0xc14>
   14870:	e3a02001 	mov	r2, #1
   14874:	e1a03005 	mov	r3, r5
   14878:	e1a0c008 	mov	ip, r8
   1487c:	e58d507c 	str	r5, [sp, #124]	; 0x7c
   14880:	e58d504c 	str	r5, [sp, #76]	; 0x4c
   14884:	e58da078 	str	sl, [sp, #120]	; 0x78
   14888:	e58d2048 	str	r2, [sp, #72]	; 0x48
   1488c:	e28cc008 	add	ip, ip, #8
   14890:	e3160004 	tst	r6, #4
   14894:	0a000033 	beq	14968 <_vfiprintf_r+0xb88>
   14898:	e59d201c 	ldr	r2, [sp, #28]
   1489c:	e59d1008 	ldr	r1, [sp, #8]
   148a0:	e0614002 	rsb	r4, r1, r2
   148a4:	e3540000 	cmp	r4, #0
   148a8:	da00002e 	ble	14968 <_vfiprintf_r+0xb88>
   148ac:	e3540010 	cmp	r4, #16
   148b0:	da000152 	ble	14e00 <_vfiprintf_r+0x1020>
   148b4:	e59f259c 	ldr	r2, [pc, #1436]	; 14e58 <_vfiprintf_r+0x1078>
   148b8:	e3a05010 	mov	r5, #16
   148bc:	e59d1048 	ldr	r1, [sp, #72]	; 0x48
   148c0:	e58d202c 	str	r2, [sp, #44]	; 0x2c
   148c4:	e59d600c 	ldr	r6, [sp, #12]
   148c8:	e59da004 	ldr	sl, [sp, #4]
   148cc:	ea000005 	b	148e8 <_vfiprintf_r+0xb08>
   148d0:	e2810002 	add	r0, r1, #2
   148d4:	e1a01002 	mov	r1, r2
   148d8:	e28cc008 	add	ip, ip, #8
   148dc:	e2444010 	sub	r4, r4, #16
   148e0:	e3540010 	cmp	r4, #16
   148e4:	da00000f 	ble	14928 <_vfiprintf_r+0xb48>
   148e8:	e2812001 	add	r2, r1, #1
   148ec:	e2833010 	add	r3, r3, #16
   148f0:	e3520007 	cmp	r2, #7
   148f4:	e58d304c 	str	r3, [sp, #76]	; 0x4c
   148f8:	e58cb000 	str	fp, [ip]
   148fc:	e58c5004 	str	r5, [ip, #4]
   14900:	e58d2048 	str	r2, [sp, #72]	; 0x48
   14904:	dafffff1 	ble	148d0 <_vfiprintf_r+0xaf0>
   14908:	e3530000 	cmp	r3, #0
   1490c:	1a000059 	bne	14a78 <_vfiprintf_r+0xc98>
   14910:	e2444010 	sub	r4, r4, #16
   14914:	e3540010 	cmp	r4, #16
   14918:	e3a00001 	mov	r0, #1
   1491c:	e1a01003 	mov	r1, r3
   14920:	e1a0c008 	mov	ip, r8
   14924:	caffffef 	bgt	148e8 <_vfiprintf_r+0xb08>
   14928:	e59d202c 	ldr	r2, [sp, #44]	; 0x2c
   1492c:	e0833004 	add	r3, r3, r4
   14930:	e3500007 	cmp	r0, #7
   14934:	e58d304c 	str	r3, [sp, #76]	; 0x4c
   14938:	e88c0014 	stm	ip, {r2, r4}
   1493c:	e58d0048 	str	r0, [sp, #72]	; 0x48
   14940:	da000008 	ble	14968 <_vfiprintf_r+0xb88>
   14944:	e3530000 	cmp	r3, #0
   14948:	0a00003f 	beq	14a4c <_vfiprintf_r+0xc6c>
   1494c:	e59d000c 	ldr	r0, [sp, #12]
   14950:	e59d1004 	ldr	r1, [sp, #4]
   14954:	e28d2044 	add	r2, sp, #68	; 0x44
   14958:	ebfffcf0 	bl	13d20 <__sprint_r.part.0>
   1495c:	e3500000 	cmp	r0, #0
   14960:	1a00000f 	bne	149a4 <_vfiprintf_r+0xbc4>
   14964:	e59d304c 	ldr	r3, [sp, #76]	; 0x4c
   14968:	e59d2010 	ldr	r2, [sp, #16]
   1496c:	e59d1008 	ldr	r1, [sp, #8]
   14970:	e59d001c 	ldr	r0, [sp, #28]
   14974:	e1510000 	cmp	r1, r0
   14978:	a0822001 	addge	r2, r2, r1
   1497c:	b0822000 	addlt	r2, r2, r0
   14980:	e3530000 	cmp	r3, #0
   14984:	e58d2010 	str	r2, [sp, #16]
   14988:	0a000036 	beq	14a68 <_vfiprintf_r+0xc88>
   1498c:	e59d000c 	ldr	r0, [sp, #12]
   14990:	e59d1004 	ldr	r1, [sp, #4]
   14994:	e28d2044 	add	r2, sp, #68	; 0x44
   14998:	ebfffce0 	bl	13d20 <__sprint_r.part.0>
   1499c:	e3500000 	cmp	r0, #0
   149a0:	0a000030 	beq	14a68 <_vfiprintf_r+0xc88>
   149a4:	e59d3004 	ldr	r3, [sp, #4]
   149a8:	e1d330bc 	ldrh	r3, [r3, #12]
   149ac:	e3130040 	tst	r3, #64	; 0x40
   149b0:	1afffdd7 	bne	14114 <_vfiprintf_r+0x334>
   149b4:	e59d0010 	ldr	r0, [sp, #16]
   149b8:	e28dd0bc 	add	sp, sp, #188	; 0xbc
   149bc:	e8bd8ff0 	pop	{r4, r5, r6, r7, r8, r9, sl, fp, pc}
   149c0:	e59d000c 	ldr	r0, [sp, #12]
   149c4:	e59d1004 	ldr	r1, [sp, #4]
   149c8:	e28d2044 	add	r2, sp, #68	; 0x44
   149cc:	e58d3018 	str	r3, [sp, #24]
   149d0:	ebfffcd2 	bl	13d20 <__sprint_r.part.0>
   149d4:	e3500000 	cmp	r0, #0
   149d8:	1afffff1 	bne	149a4 <_vfiprintf_r+0xbc4>
   149dc:	e59d1048 	ldr	r1, [sp, #72]	; 0x48
   149e0:	e1a0c008 	mov	ip, r8
   149e4:	e59d204c 	ldr	r2, [sp, #76]	; 0x4c
   149e8:	e2810001 	add	r0, r1, #1
   149ec:	e59d3018 	ldr	r3, [sp, #24]
   149f0:	eaffff80 	b	147f8 <_vfiprintf_r+0xa18>
   149f4:	e59d000c 	ldr	r0, [sp, #12]
   149f8:	e59d1004 	ldr	r1, [sp, #4]
   149fc:	e28d2044 	add	r2, sp, #68	; 0x44
   14a00:	ebfffcc6 	bl	13d20 <__sprint_r.part.0>
   14a04:	e3500000 	cmp	r0, #0
   14a08:	1affffe5 	bne	149a4 <_vfiprintf_r+0xbc4>
   14a0c:	e1a0c008 	mov	ip, r8
   14a10:	e59d0048 	ldr	r0, [sp, #72]	; 0x48
   14a14:	e59d204c 	ldr	r2, [sp, #76]	; 0x4c
   14a18:	e2800001 	add	r0, r0, #1
   14a1c:	e0823005 	add	r3, r2, r5
   14a20:	e3500007 	cmp	r0, #7
   14a24:	e58d304c 	str	r3, [sp, #76]	; 0x4c
   14a28:	e58ca000 	str	sl, [ip]
   14a2c:	e58c5004 	str	r5, [ip, #4]
   14a30:	e58d0048 	str	r0, [sp, #72]	; 0x48
   14a34:	daffff94 	ble	1488c <_vfiprintf_r+0xaac>
   14a38:	e3530000 	cmp	r3, #0
   14a3c:	1a00007e 	bne	14c3c <_vfiprintf_r+0xe5c>
   14a40:	e3160004 	tst	r6, #4
   14a44:	e58d3048 	str	r3, [sp, #72]	; 0x48
   14a48:	1a00006d 	bne	14c04 <_vfiprintf_r+0xe24>
   14a4c:	e59d3010 	ldr	r3, [sp, #16]
   14a50:	e59d2008 	ldr	r2, [sp, #8]
   14a54:	e59d101c 	ldr	r1, [sp, #28]
   14a58:	e1520001 	cmp	r2, r1
   14a5c:	a0833002 	addge	r3, r3, r2
   14a60:	b0833001 	addlt	r3, r3, r1
   14a64:	e58d3010 	str	r3, [sp, #16]
   14a68:	e3a03000 	mov	r3, #0
   14a6c:	e1a0c008 	mov	ip, r8
   14a70:	e58d3048 	str	r3, [sp, #72]	; 0x48
   14a74:	eafffd07 	b	13e98 <_vfiprintf_r+0xb8>
   14a78:	e1a00006 	mov	r0, r6
   14a7c:	e1a0100a 	mov	r1, sl
   14a80:	e28d2044 	add	r2, sp, #68	; 0x44
   14a84:	ebfffca5 	bl	13d20 <__sprint_r.part.0>
   14a88:	e3500000 	cmp	r0, #0
   14a8c:	1affffc4 	bne	149a4 <_vfiprintf_r+0xbc4>
   14a90:	e59d1048 	ldr	r1, [sp, #72]	; 0x48
   14a94:	e1a0c008 	mov	ip, r8
   14a98:	e59d304c 	ldr	r3, [sp, #76]	; 0x4c
   14a9c:	e2810001 	add	r0, r1, #1
   14aa0:	eaffff8d 	b	148dc <_vfiprintf_r+0xafc>
   14aa4:	e3520000 	cmp	r2, #0
   14aa8:	1a000007 	bne	14acc <_vfiprintf_r+0xcec>
   14aac:	e3160001 	tst	r6, #1
   14ab0:	0a000004 	beq	14ac8 <_vfiprintf_r+0xce8>
   14ab4:	e3a03030 	mov	r3, #48	; 0x30
   14ab8:	e59d5034 	ldr	r5, [sp, #52]	; 0x34
   14abc:	e5cd3077 	strb	r3, [sp, #119]	; 0x77
   14ac0:	e28da077 	add	sl, sp, #119	; 0x77
   14ac4:	eafffdbe 	b	141c4 <_vfiprintf_r+0x3e4>
   14ac8:	e1a05002 	mov	r5, r2
   14acc:	e1a0a008 	mov	sl, r8
   14ad0:	eafffdbb 	b	141c4 <_vfiprintf_r+0x3e4>
   14ad4:	e59d301c 	ldr	r3, [sp, #28]
   14ad8:	e59de008 	ldr	lr, [sp, #8]
   14adc:	e06e4003 	rsb	r4, lr, r3
   14ae0:	e3540000 	cmp	r4, #0
   14ae4:	daffff34 	ble	147bc <_vfiprintf_r+0x9dc>
   14ae8:	e3540010 	cmp	r4, #16
   14aec:	da0000c8 	ble	14e14 <_vfiprintf_r+0x1034>
   14af0:	e59f036c 	ldr	r0, [pc, #876]	; 14e64 <_vfiprintf_r+0x1084>
   14af4:	e3a03010 	mov	r3, #16
   14af8:	e58d0020 	str	r0, [sp, #32]
   14afc:	ea000005 	b	14b18 <_vfiprintf_r+0xd38>
   14b00:	e281e002 	add	lr, r1, #2
   14b04:	e1a01000 	mov	r1, r0
   14b08:	e28cc008 	add	ip, ip, #8
   14b0c:	e2444010 	sub	r4, r4, #16
   14b10:	e3540010 	cmp	r4, #16
   14b14:	da00000f 	ble	14b58 <_vfiprintf_r+0xd78>
   14b18:	e2810001 	add	r0, r1, #1
   14b1c:	e2822010 	add	r2, r2, #16
   14b20:	e3500007 	cmp	r0, #7
   14b24:	e58d204c 	str	r2, [sp, #76]	; 0x4c
   14b28:	e58c9000 	str	r9, [ip]
   14b2c:	e58c3004 	str	r3, [ip, #4]
   14b30:	e58d0048 	str	r0, [sp, #72]	; 0x48
   14b34:	dafffff1 	ble	14b00 <_vfiprintf_r+0xd20>
   14b38:	e3520000 	cmp	r2, #0
   14b3c:	1a000010 	bne	14b84 <_vfiprintf_r+0xda4>
   14b40:	e2444010 	sub	r4, r4, #16
   14b44:	e3540010 	cmp	r4, #16
   14b48:	e3a0e001 	mov	lr, #1
   14b4c:	e1a01002 	mov	r1, r2
   14b50:	e1a0c008 	mov	ip, r8
   14b54:	caffffef 	bgt	14b18 <_vfiprintf_r+0xd38>
   14b58:	e59d3020 	ldr	r3, [sp, #32]
   14b5c:	e0822004 	add	r2, r2, r4
   14b60:	e35e0007 	cmp	lr, #7
   14b64:	e58d204c 	str	r2, [sp, #76]	; 0x4c
   14b68:	e88c0018 	stm	ip, {r3, r4}
   14b6c:	e58de048 	str	lr, [sp, #72]	; 0x48
   14b70:	ca00005c 	bgt	14ce8 <_vfiprintf_r+0xf08>
   14b74:	e28cc008 	add	ip, ip, #8
   14b78:	e28e0001 	add	r0, lr, #1
   14b7c:	e1a0100e 	mov	r1, lr
   14b80:	eaffff0d 	b	147bc <_vfiprintf_r+0x9dc>
   14b84:	e59d000c 	ldr	r0, [sp, #12]
   14b88:	e59d1004 	ldr	r1, [sp, #4]
   14b8c:	e28d2044 	add	r2, sp, #68	; 0x44
   14b90:	e58d3024 	str	r3, [sp, #36]	; 0x24
   14b94:	ebfffc61 	bl	13d20 <__sprint_r.part.0>
   14b98:	e3500000 	cmp	r0, #0
   14b9c:	1affff80 	bne	149a4 <_vfiprintf_r+0xbc4>
   14ba0:	e59d1048 	ldr	r1, [sp, #72]	; 0x48
   14ba4:	e1a0c008 	mov	ip, r8
   14ba8:	e59d204c 	ldr	r2, [sp, #76]	; 0x4c
   14bac:	e281e001 	add	lr, r1, #1
   14bb0:	e59d3024 	ldr	r3, [sp, #36]	; 0x24
   14bb4:	eaffffd4 	b	14b0c <_vfiprintf_r+0xd2c>
   14bb8:	e3520000 	cmp	r2, #0
   14bbc:	1a000033 	bne	14c90 <_vfiprintf_r+0xeb0>
   14bc0:	e59d3020 	ldr	r3, [sp, #32]
   14bc4:	e3530000 	cmp	r3, #0
   14bc8:	0a00002c 	beq	14c80 <_vfiprintf_r+0xea0>
   14bcc:	e3a03002 	mov	r3, #2
   14bd0:	e28dc040 	add	ip, sp, #64	; 0x40
   14bd4:	e58dc078 	str	ip, [sp, #120]	; 0x78
   14bd8:	e1a00001 	mov	r0, r1
   14bdc:	e58d307c 	str	r3, [sp, #124]	; 0x7c
   14be0:	e1a02003 	mov	r2, r3
   14be4:	e1a0c008 	mov	ip, r8
   14be8:	eafffeed 	b	147a4 <_vfiprintf_r+0x9c4>
   14bec:	e3520000 	cmp	r2, #0
   14bf0:	1a000031 	bne	14cbc <_vfiprintf_r+0xedc>
   14bf4:	e3a00001 	mov	r0, #1
   14bf8:	e1a01002 	mov	r1, r2
   14bfc:	e1a0c008 	mov	ip, r8
   14c00:	eafffeea 	b	147b0 <_vfiprintf_r+0x9d0>
   14c04:	e59d201c 	ldr	r2, [sp, #28]
   14c08:	e59d1008 	ldr	r1, [sp, #8]
   14c0c:	e1a0c008 	mov	ip, r8
   14c10:	e0614002 	rsb	r4, r1, r2
   14c14:	e3540000 	cmp	r4, #0
   14c18:	caffff23 	bgt	148ac <_vfiprintf_r+0xacc>
   14c1c:	eaffff8a 	b	14a4c <_vfiprintf_r+0xc6c>
   14c20:	e3530009 	cmp	r3, #9
   14c24:	8a000035 	bhi	14d00 <_vfiprintf_r+0xf20>
   14c28:	e2833030 	add	r3, r3, #48	; 0x30
   14c2c:	e5cd3077 	strb	r3, [sp, #119]	; 0x77
   14c30:	e59d5034 	ldr	r5, [sp, #52]	; 0x34
   14c34:	e28da077 	add	sl, sp, #119	; 0x77
   14c38:	eafffd61 	b	141c4 <_vfiprintf_r+0x3e4>
   14c3c:	e59d000c 	ldr	r0, [sp, #12]
   14c40:	e59d1004 	ldr	r1, [sp, #4]
   14c44:	e28d2044 	add	r2, sp, #68	; 0x44
   14c48:	ebfffc34 	bl	13d20 <__sprint_r.part.0>
   14c4c:	e3500000 	cmp	r0, #0
   14c50:	1affff53 	bne	149a4 <_vfiprintf_r+0xbc4>
   14c54:	e1a0c008 	mov	ip, r8
   14c58:	e59d304c 	ldr	r3, [sp, #76]	; 0x4c
   14c5c:	eaffff0b 	b	14890 <_vfiprintf_r+0xab0>
   14c60:	e59d000c 	ldr	r0, [sp, #12]
   14c64:	e59d1004 	ldr	r1, [sp, #4]
   14c68:	e28d2044 	add	r2, sp, #68	; 0x44
   14c6c:	ebfffc2b 	bl	13d20 <__sprint_r.part.0>
   14c70:	e3500000 	cmp	r0, #0
   14c74:	1affff4a 	bne	149a4 <_vfiprintf_r+0xbc4>
   14c78:	e1a0c008 	mov	ip, r8
   14c7c:	eafffc9b 	b	13ef0 <_vfiprintf_r+0x110>
   14c80:	e1a00001 	mov	r0, r1
   14c84:	e1a0c008 	mov	ip, r8
   14c88:	e1a01002 	mov	r1, r2
   14c8c:	eafffec7 	b	147b0 <_vfiprintf_r+0x9d0>
   14c90:	e59d000c 	ldr	r0, [sp, #12]
   14c94:	e59d1004 	ldr	r1, [sp, #4]
   14c98:	e28d2044 	add	r2, sp, #68	; 0x44
   14c9c:	ebfffc1f 	bl	13d20 <__sprint_r.part.0>
   14ca0:	e3500000 	cmp	r0, #0
   14ca4:	1affff3e 	bne	149a4 <_vfiprintf_r+0xbc4>
   14ca8:	e59d1048 	ldr	r1, [sp, #72]	; 0x48
   14cac:	e1a0c008 	mov	ip, r8
   14cb0:	e59d204c 	ldr	r2, [sp, #76]	; 0x4c
   14cb4:	e2810001 	add	r0, r1, #1
   14cb8:	eafffead 	b	14774 <_vfiprintf_r+0x994>
   14cbc:	e59d000c 	ldr	r0, [sp, #12]
   14cc0:	e59d1004 	ldr	r1, [sp, #4]
   14cc4:	e28d2044 	add	r2, sp, #68	; 0x44
   14cc8:	ebfffc14 	bl	13d20 <__sprint_r.part.0>
   14ccc:	e3500000 	cmp	r0, #0
   14cd0:	1affff33 	bne	149a4 <_vfiprintf_r+0xbc4>
   14cd4:	e59d1048 	ldr	r1, [sp, #72]	; 0x48
   14cd8:	e1a0c008 	mov	ip, r8
   14cdc:	e59d204c 	ldr	r2, [sp, #76]	; 0x4c
   14ce0:	e2810001 	add	r0, r1, #1
   14ce4:	eafffeb1 	b	147b0 <_vfiprintf_r+0x9d0>
   14ce8:	e3520000 	cmp	r2, #0
   14cec:	1a00002b 	bne	14da0 <_vfiprintf_r+0xfc0>
   14cf0:	e3a00001 	mov	r0, #1
   14cf4:	e1a01002 	mov	r1, r2
   14cf8:	e1a0c008 	mov	ip, r8
   14cfc:	eafffeae 	b	147bc <_vfiprintf_r+0x9dc>
   14d00:	e1a0a008 	mov	sl, r8
   14d04:	e59f215c 	ldr	r2, [pc, #348]	; 14e68 <_vfiprintf_r+0x1088>
   14d08:	e0820392 	umull	r0, r2, r2, r3
   14d0c:	e1a021a2 	lsr	r2, r2, #3
   14d10:	e0820102 	add	r0, r2, r2, lsl #2
   14d14:	e0433080 	sub	r3, r3, r0, lsl #1
   14d18:	e2830030 	add	r0, r3, #48	; 0x30
   14d1c:	e2523000 	subs	r3, r2, #0
   14d20:	e56a0001 	strb	r0, [sl, #-1]!
   14d24:	1afffff6 	bne	14d04 <_vfiprintf_r+0xf24>
   14d28:	eafffd24 	b	141c0 <_vfiprintf_r+0x3e0>
   14d2c:	e59d3020 	ldr	r3, [sp, #32]
   14d30:	e1a01002 	mov	r1, r2
   14d34:	e3530000 	cmp	r3, #0
   14d38:	e3a00001 	mov	r0, #1
   14d3c:	e1a0c008 	mov	ip, r8
   14d40:	0afffe9d 	beq	147bc <_vfiprintf_r+0x9dc>
   14d44:	e3a03002 	mov	r3, #2
   14d48:	e28d1040 	add	r1, sp, #64	; 0x40
   14d4c:	e5883004 	str	r3, [r8, #4]
   14d50:	e1a02003 	mov	r2, r3
   14d54:	e5881000 	str	r1, [r8]
   14d58:	eafffe91 	b	147a4 <_vfiprintf_r+0x9c4>
   14d5c:	e59d304c 	ldr	r3, [sp, #76]	; 0x4c
   14d60:	e3530000 	cmp	r3, #0
   14d64:	0affff0e 	beq	149a4 <_vfiprintf_r+0xbc4>
   14d68:	e59d000c 	ldr	r0, [sp, #12]
   14d6c:	e59d1004 	ldr	r1, [sp, #4]
   14d70:	e28d2044 	add	r2, sp, #68	; 0x44
   14d74:	ebfffbe9 	bl	13d20 <__sprint_r.part.0>
   14d78:	eaffff09 	b	149a4 <_vfiprintf_r+0xbc4>
   14d7c:	e1a0000a 	mov	r0, sl
   14d80:	e58dc008 	str	ip, [sp, #8]
   14d84:	e58d3014 	str	r3, [sp, #20]
   14d88:	e58d4018 	str	r4, [sp, #24]
   14d8c:	ebffe70c 	bl	e9c4 <strlen>
   14d90:	e5dd103f 	ldrb	r1, [sp, #63]	; 0x3f
   14d94:	e1a05000 	mov	r5, r0
   14d98:	e59dc008 	ldr	ip, [sp, #8]
   14d9c:	eafffd08 	b	141c4 <_vfiprintf_r+0x3e4>
   14da0:	e59d000c 	ldr	r0, [sp, #12]
   14da4:	e59d1004 	ldr	r1, [sp, #4]
   14da8:	e28d2044 	add	r2, sp, #68	; 0x44
   14dac:	ebfffbdb 	bl	13d20 <__sprint_r.part.0>
   14db0:	e3500000 	cmp	r0, #0
   14db4:	1afffefa 	bne	149a4 <_vfiprintf_r+0xbc4>
   14db8:	e59d1048 	ldr	r1, [sp, #72]	; 0x48
   14dbc:	e1a0c008 	mov	ip, r8
   14dc0:	e59d204c 	ldr	r2, [sp, #76]	; 0x4c
   14dc4:	e2810001 	add	r0, r1, #1
   14dc8:	eafffe7b 	b	147bc <_vfiprintf_r+0x9dc>
   14dcc:	e59d1048 	ldr	r1, [sp, #72]	; 0x48
   14dd0:	e59f3080 	ldr	r3, [pc, #128]	; 14e58 <_vfiprintf_r+0x1078>
   14dd4:	e59d204c 	ldr	r2, [sp, #76]	; 0x4c
   14dd8:	e2811001 	add	r1, r1, #1
   14ddc:	e58d302c 	str	r3, [sp, #44]	; 0x2c
   14de0:	eafffd29 	b	1428c <_vfiprintf_r+0x4ac>
   14de4:	e3550006 	cmp	r5, #6
   14de8:	23a05006 	movcs	r5, #6
   14dec:	e58d3014 	str	r3, [sp, #20]
   14df0:	e1c53fc5 	bic	r3, r5, r5, asr #31
   14df4:	e58d3008 	str	r3, [sp, #8]
   14df8:	e59fa06c 	ldr	sl, [pc, #108]	; 14e6c <_vfiprintf_r+0x108c>
   14dfc:	eafffdfb 	b	145f0 <_vfiprintf_r+0x810>
   14e00:	e59d0048 	ldr	r0, [sp, #72]	; 0x48
   14e04:	e59f204c 	ldr	r2, [pc, #76]	; 14e58 <_vfiprintf_r+0x1078>
   14e08:	e2800001 	add	r0, r0, #1
   14e0c:	e58d202c 	str	r2, [sp, #44]	; 0x2c
   14e10:	eafffec4 	b	14928 <_vfiprintf_r+0xb48>
   14e14:	e59f3048 	ldr	r3, [pc, #72]	; 14e64 <_vfiprintf_r+0x1084>
   14e18:	e1a0e000 	mov	lr, r0
   14e1c:	e58d3020 	str	r3, [sp, #32]
   14e20:	eaffff4c 	b	14b58 <_vfiprintf_r+0xd78>
   14e24:	e58d3014 	str	r3, [sp, #20]
   14e28:	e58d0018 	str	r0, [sp, #24]
   14e2c:	e5dd103f 	ldrb	r1, [sp, #63]	; 0x3f
   14e30:	eafffce3 	b	141c4 <_vfiprintf_r+0x3e4>
   14e34:	e59d3014 	ldr	r3, [sp, #20]
   14e38:	e1a04007 	mov	r4, r7
   14e3c:	e5935000 	ldr	r5, [r3]
   14e40:	e2833004 	add	r3, r3, #4
   14e44:	e3550000 	cmp	r5, #0
   14e48:	b58d3014 	strlt	r3, [sp, #20]
   14e4c:	b3e05000 	mvnlt	r5, #0
   14e50:	aafffe00 	bge	14658 <_vfiprintf_r+0x878>
   14e54:	eafffc32 	b	13f24 <_vfiprintf_r+0x144>
   14e58:	00016ed0 	ldrdeq	r6, [r1], -r0
   14e5c:	000171b4 			; <UNDEFINED> instruction: 0x000171b4
   14e60:	000171a0 	andeq	r7, r1, r0, lsr #3
   14e64:	00016ee0 	andeq	r6, r1, r0, ror #29
   14e68:	cccccccd 	stclgt	12, cr12, [ip], {205}	; 0xcd
   14e6c:	000171c8 	andeq	r7, r1, r8, asr #3

00014e70 <vfiprintf>:
   14e70:	e52de004 	push	{lr}		; (str lr, [sp, #-4]!)
   14e74:	e1a0e001 	mov	lr, r1
   14e78:	e59fc014 	ldr	ip, [pc, #20]	; 14e94 <vfiprintf+0x24>
   14e7c:	e1a03002 	mov	r3, r2
   14e80:	e1a01000 	mov	r1, r0
   14e84:	e1a0200e 	mov	r2, lr
   14e88:	e59c0000 	ldr	r0, [ip]
   14e8c:	e49de004 	pop	{lr}		; (ldr lr, [sp], #4)
   14e90:	eafffbd2 	b	13de0 <_vfiprintf_r>
   14e94:	00017948 	andeq	r7, r1, r8, asr #18

00014e98 <__sbprintf>:
   14e98:	e92d47f0 	push	{r4, r5, r6, r7, r8, r9, sl, lr}
   14e9c:	e1a04001 	mov	r4, r1
   14ea0:	e3a0eb01 	mov	lr, #1024	; 0x400
   14ea4:	e3a06000 	mov	r6, #0
   14ea8:	e1d1c0bc 	ldrh	ip, [r1, #12]
   14eac:	e24dde46 	sub	sp, sp, #1120	; 0x460
   14eb0:	e24dd008 	sub	sp, sp, #8
   14eb4:	e5947024 	ldr	r7, [r4, #36]	; 0x24
   14eb8:	e1d4a0be 	ldrh	sl, [r4, #14]
   14ebc:	e5949064 	ldr	r9, [r4, #100]	; 0x64
   14ec0:	e594801c 	ldr	r8, [r4, #28]
   14ec4:	e3ccc002 	bic	ip, ip, #2
   14ec8:	e1cdc0bc 	strh	ip, [sp, #12]
   14ecc:	e1a0100d 	mov	r1, sp
   14ed0:	e28dc068 	add	ip, sp, #104	; 0x68
   14ed4:	e58d7024 	str	r7, [sp, #36]	; 0x24
   14ed8:	e58d6018 	str	r6, [sp, #24]
   14edc:	e1cda0be 	strh	sl, [sp, #14]
   14ee0:	e58d9064 	str	r9, [sp, #100]	; 0x64
   14ee4:	e58d801c 	str	r8, [sp, #28]
   14ee8:	e58de008 	str	lr, [sp, #8]
   14eec:	e58de014 	str	lr, [sp, #20]
   14ef0:	e58dc000 	str	ip, [sp]
   14ef4:	e58dc010 	str	ip, [sp, #16]
   14ef8:	e1a07000 	mov	r7, r0
   14efc:	ebfffbb7 	bl	13de0 <_vfiprintf_r>
   14f00:	e2506000 	subs	r6, r0, #0
   14f04:	ba000004 	blt	14f1c <__sbprintf+0x84>
   14f08:	e1a00007 	mov	r0, r7
   14f0c:	e1a0100d 	mov	r1, sp
   14f10:	ebffdea1 	bl	c99c <_fflush_r>
   14f14:	e3500000 	cmp	r0, #0
   14f18:	13e06000 	mvnne	r6, #0
   14f1c:	e1a00006 	mov	r0, r6
   14f20:	e1dd30bc 	ldrh	r3, [sp, #12]
   14f24:	e3130040 	tst	r3, #64	; 0x40
   14f28:	11d430bc 	ldrhne	r3, [r4, #12]
   14f2c:	13833040 	orrne	r3, r3, #64	; 0x40
   14f30:	11c430bc 	strhne	r3, [r4, #12]
   14f34:	e28dde46 	add	sp, sp, #1120	; 0x460
   14f38:	e28dd008 	add	sp, sp, #8
   14f3c:	e8bd87f0 	pop	{r4, r5, r6, r7, r8, r9, sl, pc}

00014f40 <_calloc_r>:
   14f40:	e92d4010 	push	{r4, lr}
   14f44:	e0010192 	mul	r1, r2, r1
   14f48:	ebffe183 	bl	d55c <_malloc_r>
   14f4c:	e2504000 	subs	r4, r0, #0
   14f50:	0a00000b 	beq	14f84 <_calloc_r+0x44>
   14f54:	e5142004 	ldr	r2, [r4, #-4]
   14f58:	e3c22003 	bic	r2, r2, #3
   14f5c:	e2422004 	sub	r2, r2, #4
   14f60:	e3520024 	cmp	r2, #36	; 0x24
   14f64:	8a000016 	bhi	14fc4 <_calloc_r+0x84>
   14f68:	e3520013 	cmp	r2, #19
   14f6c:	91a03004 	movls	r3, r4
   14f70:	8a000005 	bhi	14f8c <_calloc_r+0x4c>
   14f74:	e3a02000 	mov	r2, #0
   14f78:	e5832000 	str	r2, [r3]
   14f7c:	e5832004 	str	r2, [r3, #4]
   14f80:	e5832008 	str	r2, [r3, #8]
   14f84:	e1a00004 	mov	r0, r4
   14f88:	e8bd8010 	pop	{r4, pc}
   14f8c:	e3a03000 	mov	r3, #0
   14f90:	e352001b 	cmp	r2, #27
   14f94:	e5843000 	str	r3, [r4]
   14f98:	e5843004 	str	r3, [r4, #4]
   14f9c:	92843008 	addls	r3, r4, #8
   14fa0:	9afffff3 	bls	14f74 <_calloc_r+0x34>
   14fa4:	e3520024 	cmp	r2, #36	; 0x24
   14fa8:	e5843008 	str	r3, [r4, #8]
   14fac:	e584300c 	str	r3, [r4, #12]
   14fb0:	05843010 	streq	r3, [r4, #16]
   14fb4:	05843014 	streq	r3, [r4, #20]
   14fb8:	12843010 	addne	r3, r4, #16
   14fbc:	02843018 	addeq	r3, r4, #24
   14fc0:	eaffffeb 	b	14f74 <_calloc_r+0x34>
   14fc4:	e3a01000 	mov	r1, #0
   14fc8:	ebffe3de 	bl	df48 <memset>
   14fcc:	e1a00004 	mov	r0, r4
   14fd0:	e8bd8010 	pop	{r4, pc}

00014fd4 <__fputwc>:
   14fd4:	e92d41f0 	push	{r4, r5, r6, r7, r8, lr}
   14fd8:	e24dd008 	sub	sp, sp, #8
   14fdc:	e1a07000 	mov	r7, r0
   14fe0:	e1a06001 	mov	r6, r1
   14fe4:	e1a04002 	mov	r4, r2
   14fe8:	ebfff5ec 	bl	127a0 <__locale_mb_cur_max>
   14fec:	e3500001 	cmp	r0, #1
   14ff0:	0a000035 	beq	150cc <__fputwc+0xf8>
   14ff4:	e1a00007 	mov	r0, r7
   14ff8:	e28d1004 	add	r1, sp, #4
   14ffc:	e1a02006 	mov	r2, r6
   15000:	e284305c 	add	r3, r4, #92	; 0x5c
   15004:	eb0002fb 	bl	15bf8 <_wcrtomb_r>
   15008:	e3700001 	cmn	r0, #1
   1500c:	e1a08000 	mov	r8, r0
   15010:	0a000028 	beq	150b8 <__fputwc+0xe4>
   15014:	e3500000 	cmp	r0, #0
   15018:	15dd1004 	ldrbne	r1, [sp, #4]
   1501c:	0a000031 	beq	150e8 <__fputwc+0x114>
   15020:	e3a05000 	mov	r5, #0
   15024:	ea000009 	b	15050 <__fputwc+0x7c>
   15028:	e5943000 	ldr	r3, [r4]
   1502c:	e5c31000 	strb	r1, [r3]
   15030:	e5943000 	ldr	r3, [r4]
   15034:	e2833001 	add	r3, r3, #1
   15038:	e5843000 	str	r3, [r4]
   1503c:	e2855001 	add	r5, r5, #1
   15040:	e1580005 	cmp	r8, r5
   15044:	9a000027 	bls	150e8 <__fputwc+0x114>
   15048:	e28d3004 	add	r3, sp, #4
   1504c:	e7d31005 	ldrb	r1, [r3, r5]
   15050:	e5943008 	ldr	r3, [r4, #8]
   15054:	e2433001 	sub	r3, r3, #1
   15058:	e3530000 	cmp	r3, #0
   1505c:	e5843008 	str	r3, [r4, #8]
   15060:	aafffff0 	bge	15028 <__fputwc+0x54>
   15064:	e5942018 	ldr	r2, [r4, #24]
   15068:	e1530002 	cmp	r3, r2
   1506c:	ba000006 	blt	1508c <__fputwc+0xb8>
   15070:	e5943000 	ldr	r3, [r4]
   15074:	e5c31000 	strb	r1, [r3]
   15078:	e5943000 	ldr	r3, [r4]
   1507c:	e5d31000 	ldrb	r1, [r3]
   15080:	e2833001 	add	r3, r3, #1
   15084:	e351000a 	cmp	r1, #10
   15088:	1affffea 	bne	15038 <__fputwc+0x64>
   1508c:	e1a00007 	mov	r0, r7
   15090:	e1a02004 	mov	r2, r4
   15094:	ebffeed7 	bl	10bf8 <__swbuf_r>
   15098:	e3700001 	cmn	r0, #1
   1509c:	13a00000 	movne	r0, #0
   150a0:	03a00001 	moveq	r0, #1
   150a4:	e3500000 	cmp	r0, #0
   150a8:	0affffe3 	beq	1503c <__fputwc+0x68>
   150ac:	e3e00000 	mvn	r0, #0
   150b0:	e28dd008 	add	sp, sp, #8
   150b4:	e8bd81f0 	pop	{r4, r5, r6, r7, r8, pc}
   150b8:	e1d430bc 	ldrh	r3, [r4, #12]
   150bc:	e3833040 	orr	r3, r3, #64	; 0x40
   150c0:	e1c430bc 	strh	r3, [r4, #12]
   150c4:	e28dd008 	add	sp, sp, #8
   150c8:	e8bd81f0 	pop	{r4, r5, r6, r7, r8, pc}
   150cc:	e2463001 	sub	r3, r6, #1
   150d0:	e35300fe 	cmp	r3, #254	; 0xfe
   150d4:	8affffc6 	bhi	14ff4 <__fputwc+0x20>
   150d8:	e6ef1076 	uxtb	r1, r6
   150dc:	e1a08000 	mov	r8, r0
   150e0:	e5cd1004 	strb	r1, [sp, #4]
   150e4:	eaffffcd 	b	15020 <__fputwc+0x4c>
   150e8:	e1a00006 	mov	r0, r6
   150ec:	e28dd008 	add	sp, sp, #8
   150f0:	e8bd81f0 	pop	{r4, r5, r6, r7, r8, pc}

000150f4 <_fputwc_r>:
   150f4:	e1d230bc 	ldrh	r3, [r2, #12]
   150f8:	e3130a02 	tst	r3, #8192	; 0x2000
   150fc:	0592c064 	ldreq	ip, [r2, #100]	; 0x64
   15100:	03833a02 	orreq	r3, r3, #8192	; 0x2000
   15104:	038cca02 	orreq	ip, ip, #8192	; 0x2000
   15108:	01c230bc 	strheq	r3, [r2, #12]
   1510c:	0582c064 	streq	ip, [r2, #100]	; 0x64
   15110:	eaffffaf 	b	14fd4 <__fputwc>

00015114 <fputwc>:
   15114:	e59f303c 	ldr	r3, [pc, #60]	; 15158 <fputwc+0x44>
   15118:	e92d4070 	push	{r4, r5, r6, lr}
   1511c:	e5934000 	ldr	r4, [r3]
   15120:	e1a06000 	mov	r6, r0
   15124:	e3540000 	cmp	r4, #0
   15128:	e1a05001 	mov	r5, r1
   1512c:	0a000004 	beq	15144 <fputwc+0x30>
   15130:	e5943038 	ldr	r3, [r4, #56]	; 0x38
   15134:	e3530000 	cmp	r3, #0
   15138:	1a000001 	bne	15144 <fputwc+0x30>
   1513c:	e1a00004 	mov	r0, r4
   15140:	ebffdee5 	bl	ccdc <__sinit>
   15144:	e1a00004 	mov	r0, r4
   15148:	e1a01006 	mov	r1, r6
   1514c:	e1a02005 	mov	r2, r5
   15150:	e8bd4070 	pop	{r4, r5, r6, lr}
   15154:	eaffffe6 	b	150f4 <_fputwc_r>
   15158:	00017948 	andeq	r7, r1, r8, asr #18

0001515c <_fstat_r>:
   1515c:	e92d4038 	push	{r3, r4, r5, lr}
   15160:	e3a03000 	mov	r3, #0
   15164:	e59f4028 	ldr	r4, [pc, #40]	; 15194 <_fstat_r+0x38>
   15168:	e1a05000 	mov	r5, r0
   1516c:	e1a00001 	mov	r0, r1
   15170:	e1a01002 	mov	r1, r2
   15174:	e5843000 	str	r3, [r4]
   15178:	ebffd802 	bl	b188 <_fstat>
   1517c:	e3700001 	cmn	r0, #1
   15180:	18bd8038 	popne	{r3, r4, r5, pc}
   15184:	e5943000 	ldr	r3, [r4]
   15188:	e3530000 	cmp	r3, #0
   1518c:	15853000 	strne	r3, [r5]
   15190:	e8bd8038 	pop	{r3, r4, r5, pc}
   15194:	0001a590 	muleq	r1, r0, r5

00015198 <__sfvwrite_r>:
   15198:	e5923008 	ldr	r3, [r2, #8]
   1519c:	e3530000 	cmp	r3, #0
   151a0:	0a000033 	beq	15274 <__sfvwrite_r+0xdc>
   151a4:	e92d4ff0 	push	{r4, r5, r6, r7, r8, r9, sl, fp, lr}
   151a8:	e1d130bc 	ldrh	r3, [r1, #12]
   151ac:	e24dd00c 	sub	sp, sp, #12
   151b0:	e3130008 	tst	r3, #8
   151b4:	e1a04001 	mov	r4, r1
   151b8:	e1a09000 	mov	r9, r0
   151bc:	e1a08002 	mov	r8, r2
   151c0:	0a000020 	beq	15248 <__sfvwrite_r+0xb0>
   151c4:	e5912010 	ldr	r2, [r1, #16]
   151c8:	e3520000 	cmp	r2, #0
   151cc:	0a00001d 	beq	15248 <__sfvwrite_r+0xb0>
   151d0:	e2037002 	and	r7, r3, #2
   151d4:	e6ff7077 	uxth	r7, r7
   151d8:	e3570000 	cmp	r7, #0
   151dc:	e5985000 	ldr	r5, [r8]
   151e0:	0a000025 	beq	1527c <__sfvwrite_r+0xe4>
   151e4:	e3a07000 	mov	r7, #0
   151e8:	e1a06007 	mov	r6, r7
   151ec:	e59fa464 	ldr	sl, [pc, #1124]	; 15658 <__sfvwrite_r+0x4c0>
   151f0:	e3560000 	cmp	r6, #0
   151f4:	0a00001a 	beq	15264 <__sfvwrite_r+0xcc>
   151f8:	e156000a 	cmp	r6, sl
   151fc:	31a03006 	movcc	r3, r6
   15200:	21a0300a 	movcs	r3, sl
   15204:	e594c024 	ldr	ip, [r4, #36]	; 0x24
   15208:	e1a00009 	mov	r0, r9
   1520c:	e594101c 	ldr	r1, [r4, #28]
   15210:	e1a02007 	mov	r2, r7
   15214:	e12fff3c 	blx	ip
   15218:	e3500000 	cmp	r0, #0
   1521c:	da000067 	ble	153c0 <__sfvwrite_r+0x228>
   15220:	e5983008 	ldr	r3, [r8, #8]
   15224:	e0877000 	add	r7, r7, r0
   15228:	e0603003 	rsb	r3, r0, r3
   1522c:	e3530000 	cmp	r3, #0
   15230:	e0606006 	rsb	r6, r0, r6
   15234:	e5883008 	str	r3, [r8, #8]
   15238:	1affffec 	bne	151f0 <__sfvwrite_r+0x58>
   1523c:	e3a00000 	mov	r0, #0
   15240:	e28dd00c 	add	sp, sp, #12
   15244:	e8bd8ff0 	pop	{r4, r5, r6, r7, r8, r9, sl, fp, pc}
   15248:	e1a00009 	mov	r0, r9
   1524c:	e1a01004 	mov	r1, r4
   15250:	ebffeec7 	bl	10d74 <__swsetup_r>
   15254:	e3500000 	cmp	r0, #0
   15258:	1a0000f8 	bne	15640 <__sfvwrite_r+0x4a8>
   1525c:	e1d430bc 	ldrh	r3, [r4, #12]
   15260:	eaffffda 	b	151d0 <__sfvwrite_r+0x38>
   15264:	e5957000 	ldr	r7, [r5]
   15268:	e5956004 	ldr	r6, [r5, #4]
   1526c:	e2855008 	add	r5, r5, #8
   15270:	eaffffde 	b	151f0 <__sfvwrite_r+0x58>
   15274:	e3a00000 	mov	r0, #0
   15278:	e12fff1e 	bx	lr
   1527c:	e213b001 	ands	fp, r3, #1
   15280:	1a000054 	bne	153d8 <__sfvwrite_r+0x240>
   15284:	e1a0600b 	mov	r6, fp
   15288:	e3560000 	cmp	r6, #0
   1528c:	0a000042 	beq	1539c <__sfvwrite_r+0x204>
   15290:	e3130c02 	tst	r3, #512	; 0x200
   15294:	e5947008 	ldr	r7, [r4, #8]
   15298:	0a000081 	beq	154a4 <__sfvwrite_r+0x30c>
   1529c:	e1560007 	cmp	r6, r7
   152a0:	e1a0a007 	mov	sl, r7
   152a4:	3a000094 	bcc	154fc <__sfvwrite_r+0x364>
   152a8:	e3130d12 	tst	r3, #1152	; 0x480
   152ac:	0a000094 	beq	15504 <__sfvwrite_r+0x36c>
   152b0:	e5941010 	ldr	r1, [r4, #16]
   152b4:	e594c000 	ldr	ip, [r4]
   152b8:	e5947014 	ldr	r7, [r4, #20]
   152bc:	e061c00c 	rsb	ip, r1, ip
   152c0:	e0877087 	add	r7, r7, r7, lsl #1
   152c4:	e28c0001 	add	r0, ip, #1
   152c8:	e0877fa7 	add	r7, r7, r7, lsr #31
   152cc:	e1a070c7 	asr	r7, r7, #1
   152d0:	e0800006 	add	r0, r0, r6
   152d4:	e1570000 	cmp	r7, r0
   152d8:	e1a02007 	mov	r2, r7
   152dc:	31a07000 	movcc	r7, r0
   152e0:	31a02007 	movcc	r2, r7
   152e4:	e3130b01 	tst	r3, #1024	; 0x400
   152e8:	e58dc000 	str	ip, [sp]
   152ec:	0a0000c5 	beq	15608 <__sfvwrite_r+0x470>
   152f0:	e1a01002 	mov	r1, r2
   152f4:	e1a00009 	mov	r0, r9
   152f8:	ebffe097 	bl	d55c <_malloc_r>
   152fc:	e250a000 	subs	sl, r0, #0
   15300:	e59dc000 	ldr	ip, [sp]
   15304:	0a0000cf 	beq	15648 <__sfvwrite_r+0x4b0>
   15308:	e1a0200c 	mov	r2, ip
   1530c:	e5941010 	ldr	r1, [r4, #16]
   15310:	e58dc000 	str	ip, [sp]
   15314:	ebffe283 	bl	dd28 <memcpy>
   15318:	e1d420bc 	ldrh	r2, [r4, #12]
   1531c:	e59dc000 	ldr	ip, [sp]
   15320:	e3c22d12 	bic	r2, r2, #1152	; 0x480
   15324:	e3822080 	orr	r2, r2, #128	; 0x80
   15328:	e1c420bc 	strh	r2, [r4, #12]
   1532c:	e08a000c 	add	r0, sl, ip
   15330:	e584a010 	str	sl, [r4, #16]
   15334:	e06cc007 	rsb	ip, ip, r7
   15338:	e5847014 	str	r7, [r4, #20]
   1533c:	e1a0a006 	mov	sl, r6
   15340:	e1a07006 	mov	r7, r6
   15344:	e5840000 	str	r0, [r4]
   15348:	e584c008 	str	ip, [r4, #8]
   1534c:	e1a0200a 	mov	r2, sl
   15350:	e1a0100b 	mov	r1, fp
   15354:	ebffe2b0 	bl	de1c <memmove>
   15358:	e5943008 	ldr	r3, [r4, #8]
   1535c:	e5942000 	ldr	r2, [r4]
   15360:	e0677003 	rsb	r7, r7, r3
   15364:	e1a03006 	mov	r3, r6
   15368:	e082200a 	add	r2, r2, sl
   1536c:	e5847008 	str	r7, [r4, #8]
   15370:	e5842000 	str	r2, [r4]
   15374:	e5982008 	ldr	r2, [r8, #8]
   15378:	e08bb003 	add	fp, fp, r3
   1537c:	e0632002 	rsb	r2, r3, r2
   15380:	e3520000 	cmp	r2, #0
   15384:	e0636006 	rsb	r6, r3, r6
   15388:	e5882008 	str	r2, [r8, #8]
   1538c:	0affffaa 	beq	1523c <__sfvwrite_r+0xa4>
   15390:	e3560000 	cmp	r6, #0
   15394:	e1d430bc 	ldrh	r3, [r4, #12]
   15398:	1affffbc 	bne	15290 <__sfvwrite_r+0xf8>
   1539c:	e595b000 	ldr	fp, [r5]
   153a0:	e5956004 	ldr	r6, [r5, #4]
   153a4:	e2855008 	add	r5, r5, #8
   153a8:	eaffffb6 	b	15288 <__sfvwrite_r+0xf0>
   153ac:	e1a00009 	mov	r0, r9
   153b0:	e1a01004 	mov	r1, r4
   153b4:	ebffdd78 	bl	c99c <_fflush_r>
   153b8:	e3500000 	cmp	r0, #0
   153bc:	0a00004c 	beq	154f4 <__sfvwrite_r+0x35c>
   153c0:	e1d430bc 	ldrh	r3, [r4, #12]
   153c4:	e3e00000 	mvn	r0, #0
   153c8:	e3833040 	orr	r3, r3, #64	; 0x40
   153cc:	e1c430bc 	strh	r3, [r4, #12]
   153d0:	e28dd00c 	add	sp, sp, #12
   153d4:	e8bd8ff0 	pop	{r4, r5, r6, r7, r8, r9, sl, fp, pc}
   153d8:	e1a0c007 	mov	ip, r7
   153dc:	e1a0b007 	mov	fp, r7
   153e0:	e1a0a007 	mov	sl, r7
   153e4:	e35a0000 	cmp	sl, #0
   153e8:	0a000028 	beq	15490 <__sfvwrite_r+0x2f8>
   153ec:	e35c0000 	cmp	ip, #0
   153f0:	0a000057 	beq	15554 <__sfvwrite_r+0x3bc>
   153f4:	e157000a 	cmp	r7, sl
   153f8:	31a02007 	movcc	r2, r7
   153fc:	21a0200a 	movcs	r2, sl
   15400:	e5941014 	ldr	r1, [r4, #20]
   15404:	e5943008 	ldr	r3, [r4, #8]
   15408:	e5946010 	ldr	r6, [r4, #16]
   1540c:	e5940000 	ldr	r0, [r4]
   15410:	e0813003 	add	r3, r1, r3
   15414:	e1520003 	cmp	r2, r3
   15418:	d3a0e000 	movle	lr, #0
   1541c:	c3a0e001 	movgt	lr, #1
   15420:	e1500006 	cmp	r0, r6
   15424:	93a0e000 	movls	lr, #0
   15428:	e35e0000 	cmp	lr, #0
   1542c:	e1a06002 	mov	r6, r2
   15430:	1a000063 	bne	155c4 <__sfvwrite_r+0x42c>
   15434:	e1520001 	cmp	r2, r1
   15438:	e58dc000 	str	ip, [sp]
   1543c:	ba000032 	blt	1550c <__sfvwrite_r+0x374>
   15440:	e1a03001 	mov	r3, r1
   15444:	e5946024 	ldr	r6, [r4, #36]	; 0x24
   15448:	e1a00009 	mov	r0, r9
   1544c:	e594101c 	ldr	r1, [r4, #28]
   15450:	e1a0200b 	mov	r2, fp
   15454:	e12fff36 	blx	r6
   15458:	e2506000 	subs	r6, r0, #0
   1545c:	e59dc000 	ldr	ip, [sp]
   15460:	daffffd6 	ble	153c0 <__sfvwrite_r+0x228>
   15464:	e0577006 	subs	r7, r7, r6
   15468:	0a000032 	beq	15538 <__sfvwrite_r+0x3a0>
   1546c:	e5983008 	ldr	r3, [r8, #8]
   15470:	e08bb006 	add	fp, fp, r6
   15474:	e0663003 	rsb	r3, r6, r3
   15478:	e3530000 	cmp	r3, #0
   1547c:	e066a00a 	rsb	sl, r6, sl
   15480:	e5883008 	str	r3, [r8, #8]
   15484:	0affff6c 	beq	1523c <__sfvwrite_r+0xa4>
   15488:	e35a0000 	cmp	sl, #0
   1548c:	1affffd6 	bne	153ec <__sfvwrite_r+0x254>
   15490:	e595b000 	ldr	fp, [r5]
   15494:	e595a004 	ldr	sl, [r5, #4]
   15498:	e3a0c000 	mov	ip, #0
   1549c:	e2855008 	add	r5, r5, #8
   154a0:	eaffffcf 	b	153e4 <__sfvwrite_r+0x24c>
   154a4:	e5940000 	ldr	r0, [r4]
   154a8:	e5943010 	ldr	r3, [r4, #16]
   154ac:	e1500003 	cmp	r0, r3
   154b0:	8a000002 	bhi	154c0 <__sfvwrite_r+0x328>
   154b4:	e5943014 	ldr	r3, [r4, #20]
   154b8:	e1560003 	cmp	r6, r3
   154bc:	2a00002f 	bcs	15580 <__sfvwrite_r+0x3e8>
   154c0:	e1560007 	cmp	r6, r7
   154c4:	31a07006 	movcc	r7, r6
   154c8:	e1a0100b 	mov	r1, fp
   154cc:	e1a02007 	mov	r2, r7
   154d0:	ebffe251 	bl	de1c <memmove>
   154d4:	e5943008 	ldr	r3, [r4, #8]
   154d8:	e5942000 	ldr	r2, [r4]
   154dc:	e0673003 	rsb	r3, r7, r3
   154e0:	e0822007 	add	r2, r2, r7
   154e4:	e3530000 	cmp	r3, #0
   154e8:	e5843008 	str	r3, [r4, #8]
   154ec:	e5842000 	str	r2, [r4]
   154f0:	0affffad 	beq	153ac <__sfvwrite_r+0x214>
   154f4:	e1a03007 	mov	r3, r7
   154f8:	eaffff9d 	b	15374 <__sfvwrite_r+0x1dc>
   154fc:	e1a07006 	mov	r7, r6
   15500:	e1a0a006 	mov	sl, r6
   15504:	e5940000 	ldr	r0, [r4]
   15508:	eaffff8f 	b	1534c <__sfvwrite_r+0x1b4>
   1550c:	e1a0100b 	mov	r1, fp
   15510:	ebffe241 	bl	de1c <memmove>
   15514:	e5942008 	ldr	r2, [r4, #8]
   15518:	e5943000 	ldr	r3, [r4]
   1551c:	e0662002 	rsb	r2, r6, r2
   15520:	e0833006 	add	r3, r3, r6
   15524:	e0577006 	subs	r7, r7, r6
   15528:	e5842008 	str	r2, [r4, #8]
   1552c:	e5843000 	str	r3, [r4]
   15530:	e59dc000 	ldr	ip, [sp]
   15534:	1affffcc 	bne	1546c <__sfvwrite_r+0x2d4>
   15538:	e1a00009 	mov	r0, r9
   1553c:	e1a01004 	mov	r1, r4
   15540:	ebffdd15 	bl	c99c <_fflush_r>
   15544:	e3500000 	cmp	r0, #0
   15548:	1affff9c 	bne	153c0 <__sfvwrite_r+0x228>
   1554c:	e1a0c007 	mov	ip, r7
   15550:	eaffffc5 	b	1546c <__sfvwrite_r+0x2d4>
   15554:	e1a0000b 	mov	r0, fp
   15558:	e3a0100a 	mov	r1, #10
   1555c:	e1a0200a 	mov	r2, sl
   15560:	ebfff50b 	bl	12994 <memchr>
   15564:	e3500000 	cmp	r0, #0
   15568:	03a0c001 	moveq	ip, #1
   1556c:	12800001 	addne	r0, r0, #1
   15570:	106b7000 	rsbne	r7, fp, r0
   15574:	13a0c001 	movne	ip, #1
   15578:	008a700c 	addeq	r7, sl, ip
   1557c:	eaffff9c 	b	153f4 <__sfvwrite_r+0x25c>
   15580:	e3760106 	cmn	r6, #-2147483647	; 0x80000001
   15584:	31a00006 	movcc	r0, r6
   15588:	23e00102 	mvncs	r0, #-2147483648	; 0x80000000
   1558c:	e1a01003 	mov	r1, r3
   15590:	e58d3000 	str	r3, [sp]
   15594:	eb00027c 	bl	15f8c <__aeabi_idiv>
   15598:	e59d3000 	ldr	r3, [sp]
   1559c:	e594c024 	ldr	ip, [r4, #36]	; 0x24
   155a0:	e0030390 	mul	r3, r0, r3
   155a4:	e594101c 	ldr	r1, [r4, #28]
   155a8:	e1a00009 	mov	r0, r9
   155ac:	e1a0200b 	mov	r2, fp
   155b0:	e12fff3c 	blx	ip
   155b4:	e3500000 	cmp	r0, #0
   155b8:	daffff80 	ble	153c0 <__sfvwrite_r+0x228>
   155bc:	e1a03000 	mov	r3, r0
   155c0:	eaffff6b 	b	15374 <__sfvwrite_r+0x1dc>
   155c4:	e1a02003 	mov	r2, r3
   155c8:	e1a0100b 	mov	r1, fp
   155cc:	e58dc004 	str	ip, [sp, #4]
   155d0:	e58d3000 	str	r3, [sp]
   155d4:	ebffe210 	bl	de1c <memmove>
   155d8:	e5942000 	ldr	r2, [r4]
   155dc:	e59d3000 	ldr	r3, [sp]
   155e0:	e1a00009 	mov	r0, r9
   155e4:	e0822003 	add	r2, r2, r3
   155e8:	e5842000 	str	r2, [r4]
   155ec:	e1a01004 	mov	r1, r4
   155f0:	ebffdce9 	bl	c99c <_fflush_r>
   155f4:	e89d1008 	ldm	sp, {r3, ip}
   155f8:	e3500000 	cmp	r0, #0
   155fc:	1affff6f 	bne	153c0 <__sfvwrite_r+0x228>
   15600:	e1a06003 	mov	r6, r3
   15604:	eaffff96 	b	15464 <__sfvwrite_r+0x2cc>
   15608:	e1a00009 	mov	r0, r9
   1560c:	eb000020 	bl	15694 <_realloc_r>
   15610:	e250a000 	subs	sl, r0, #0
   15614:	e59dc000 	ldr	ip, [sp]
   15618:	1affff43 	bne	1532c <__sfvwrite_r+0x194>
   1561c:	e1a00009 	mov	r0, r9
   15620:	e5941010 	ldr	r1, [r4, #16]
   15624:	ebffddfe 	bl	ce24 <_free_r>
   15628:	e3a0200c 	mov	r2, #12
   1562c:	e1d430bc 	ldrh	r3, [r4, #12]
   15630:	e5892000 	str	r2, [r9]
   15634:	e3c33080 	bic	r3, r3, #128	; 0x80
   15638:	e6ff3073 	uxth	r3, r3
   1563c:	eaffff60 	b	153c4 <__sfvwrite_r+0x22c>
   15640:	e3e00000 	mvn	r0, #0
   15644:	eafffefd 	b	15240 <__sfvwrite_r+0xa8>
   15648:	e3a0200c 	mov	r2, #12
   1564c:	e1d430bc 	ldrh	r3, [r4, #12]
   15650:	e5892000 	str	r2, [r9]
   15654:	eaffff5a 	b	153c4 <__sfvwrite_r+0x22c>
   15658:	7ffffc00 	svcvc	0x00fffc00

0001565c <_isatty_r>:
   1565c:	e92d4038 	push	{r3, r4, r5, lr}
   15660:	e3a03000 	mov	r3, #0
   15664:	e59f4024 	ldr	r4, [pc, #36]	; 15690 <_isatty_r+0x34>
   15668:	e1a05000 	mov	r5, r0
   1566c:	e1a00001 	mov	r0, r1
   15670:	e5843000 	str	r3, [r4]
   15674:	ebffd6de 	bl	b1f4 <_isatty>
   15678:	e3700001 	cmn	r0, #1
   1567c:	18bd8038 	popne	{r3, r4, r5, pc}
   15680:	e5943000 	ldr	r3, [r4]
   15684:	e3530000 	cmp	r3, #0
   15688:	15853000 	strne	r3, [r5]
   1568c:	e8bd8038 	pop	{r3, r4, r5, pc}
   15690:	0001a590 	muleq	r1, r0, r5

00015694 <_realloc_r>:
   15694:	e92d4ff0 	push	{r4, r5, r6, r7, r8, r9, sl, fp, lr}
   15698:	e2516000 	subs	r6, r1, #0
   1569c:	e24dd00c 	sub	sp, sp, #12
   156a0:	e1a07002 	mov	r7, r2
   156a4:	0a0000dc 	beq	15a1c <_realloc_r+0x388>
   156a8:	e287400b 	add	r4, r7, #11
   156ac:	e1a08000 	mov	r8, r0
   156b0:	ebffe466 	bl	e850 <__malloc_lock>
   156b4:	e3540016 	cmp	r4, #22
   156b8:	93a02010 	movls	r2, #16
   156bc:	93a00000 	movls	r0, #0
   156c0:	91a04002 	movls	r4, r2
   156c4:	83c44007 	bichi	r4, r4, #7
   156c8:	81a00fa4 	lsrhi	r0, r4, #31
   156cc:	81a02004 	movhi	r2, r4
   156d0:	e1540007 	cmp	r4, r7
   156d4:	33800001 	orrcc	r0, r0, #1
   156d8:	e5163004 	ldr	r3, [r6, #-4]
   156dc:	e3500000 	cmp	r0, #0
   156e0:	e3c35003 	bic	r5, r3, #3
   156e4:	13a0300c 	movne	r3, #12
   156e8:	e2469008 	sub	r9, r6, #8
   156ec:	13a00000 	movne	r0, #0
   156f0:	15883000 	strne	r3, [r8]
   156f4:	1a00000f 	bne	15738 <_realloc_r+0xa4>
   156f8:	e1550002 	cmp	r5, r2
   156fc:	ba00000f 	blt	15740 <_realloc_r+0xac>
   15700:	e1a07006 	mov	r7, r6
   15704:	e0642005 	rsb	r2, r4, r5
   15708:	e352000f 	cmp	r2, #15
   1570c:	e2033001 	and	r3, r3, #1
   15710:	8a000083 	bhi	15924 <_realloc_r+0x290>
   15714:	e1833005 	orr	r3, r3, r5
   15718:	e5893004 	str	r3, [r9, #4]
   1571c:	e0895005 	add	r5, r9, r5
   15720:	e5953004 	ldr	r3, [r5, #4]
   15724:	e3833001 	orr	r3, r3, #1
   15728:	e5853004 	str	r3, [r5, #4]
   1572c:	e1a00008 	mov	r0, r8
   15730:	ebffe447 	bl	e854 <__malloc_unlock>
   15734:	e1a00007 	mov	r0, r7
   15738:	e28dd00c 	add	sp, sp, #12
   1573c:	e8bd8ff0 	pop	{r4, r5, r6, r7, r8, r9, sl, fp, pc}
   15740:	e59fb4ac 	ldr	fp, [pc, #1196]	; 15bf4 <_realloc_r+0x560>
   15744:	e0891005 	add	r1, r9, r5
   15748:	e59b0008 	ldr	r0, [fp, #8]
   1574c:	e1500001 	cmp	r0, r1
   15750:	0a0000bc 	beq	15a48 <_realloc_r+0x3b4>
   15754:	e591c004 	ldr	ip, [r1, #4]
   15758:	e3cc0001 	bic	r0, ip, #1
   1575c:	e0810000 	add	r0, r1, r0
   15760:	e5900004 	ldr	r0, [r0, #4]
   15764:	e3100001 	tst	r0, #1
   15768:	1a00003a 	bne	15858 <_realloc_r+0x1c4>
   1576c:	e3ccc003 	bic	ip, ip, #3
   15770:	e08cc005 	add	ip, ip, r5
   15774:	e15c0002 	cmp	ip, r2
   15778:	aa0000ab 	bge	15a2c <_realloc_r+0x398>
   1577c:	e3130001 	tst	r3, #1
   15780:	1a000074 	bne	15958 <_realloc_r+0x2c4>
   15784:	e516a008 	ldr	sl, [r6, #-8]
   15788:	e06aa009 	rsb	sl, sl, r9
   1578c:	e59a0004 	ldr	r0, [sl, #4]
   15790:	e3c00003 	bic	r0, r0, #3
   15794:	e08cc000 	add	ip, ip, r0
   15798:	e15c0002 	cmp	ip, r2
   1579c:	ba000033 	blt	15870 <_realloc_r+0x1dc>
   157a0:	e1a0700a 	mov	r7, sl
   157a4:	e591300c 	ldr	r3, [r1, #12]
   157a8:	e5911008 	ldr	r1, [r1, #8]
   157ac:	e2452004 	sub	r2, r5, #4
   157b0:	e581300c 	str	r3, [r1, #12]
   157b4:	e5831008 	str	r1, [r3, #8]
   157b8:	e5b71008 	ldr	r1, [r7, #8]!
   157bc:	e59a300c 	ldr	r3, [sl, #12]
   157c0:	e3520024 	cmp	r2, #36	; 0x24
   157c4:	e581300c 	str	r3, [r1, #12]
   157c8:	e5831008 	str	r1, [r3, #8]
   157cc:	8a0000fb 	bhi	15bc0 <_realloc_r+0x52c>
   157d0:	e3520013 	cmp	r2, #19
   157d4:	91a02007 	movls	r2, r7
   157d8:	9a000014 	bls	15830 <_realloc_r+0x19c>
   157dc:	e5963000 	ldr	r3, [r6]
   157e0:	e352001b 	cmp	r2, #27
   157e4:	e58a3008 	str	r3, [sl, #8]
   157e8:	e5963004 	ldr	r3, [r6, #4]
   157ec:	928a2010 	addls	r2, sl, #16
   157f0:	e58a300c 	str	r3, [sl, #12]
   157f4:	92866008 	addls	r6, r6, #8
   157f8:	9a00000c 	bls	15830 <_realloc_r+0x19c>
   157fc:	e5963008 	ldr	r3, [r6, #8]
   15800:	e3520024 	cmp	r2, #36	; 0x24
   15804:	e58a3010 	str	r3, [sl, #16]
   15808:	e596300c 	ldr	r3, [r6, #12]
   1580c:	128a2018 	addne	r2, sl, #24
   15810:	e58a3014 	str	r3, [sl, #20]
   15814:	05963010 	ldreq	r3, [r6, #16]
   15818:	12866010 	addne	r6, r6, #16
   1581c:	058a3018 	streq	r3, [sl, #24]
   15820:	05963014 	ldreq	r3, [r6, #20]
   15824:	028a2020 	addeq	r2, sl, #32
   15828:	02866018 	addeq	r6, r6, #24
   1582c:	058a301c 	streq	r3, [sl, #28]
   15830:	e5963000 	ldr	r3, [r6]
   15834:	e1a0500c 	mov	r5, ip
   15838:	e5823000 	str	r3, [r2]
   1583c:	e5963004 	ldr	r3, [r6, #4]
   15840:	e1a0900a 	mov	r9, sl
   15844:	e5823004 	str	r3, [r2, #4]
   15848:	e5963008 	ldr	r3, [r6, #8]
   1584c:	e5823008 	str	r3, [r2, #8]
   15850:	e59a3004 	ldr	r3, [sl, #4]
   15854:	eaffffaa 	b	15704 <_realloc_r+0x70>
   15858:	e3130001 	tst	r3, #1
   1585c:	1a00003d 	bne	15958 <_realloc_r+0x2c4>
   15860:	e516a008 	ldr	sl, [r6, #-8]
   15864:	e06aa009 	rsb	sl, sl, r9
   15868:	e59a0004 	ldr	r0, [sl, #4]
   1586c:	e3c00003 	bic	r0, r0, #3
   15870:	e0803005 	add	r3, r0, r5
   15874:	e1530002 	cmp	r3, r2
   15878:	ba000036 	blt	15958 <_realloc_r+0x2c4>
   1587c:	e1a0700a 	mov	r7, sl
   15880:	e59a100c 	ldr	r1, [sl, #12]
   15884:	e5b70008 	ldr	r0, [r7, #8]!
   15888:	e2452004 	sub	r2, r5, #4
   1588c:	e3520024 	cmp	r2, #36	; 0x24
   15890:	e580100c 	str	r1, [r0, #12]
   15894:	e5810008 	str	r0, [r1, #8]
   15898:	8a0000ac 	bhi	15b50 <_realloc_r+0x4bc>
   1589c:	e3520013 	cmp	r2, #19
   158a0:	91a01007 	movls	r1, r7
   158a4:	9a000014 	bls	158fc <_realloc_r+0x268>
   158a8:	e5961000 	ldr	r1, [r6]
   158ac:	e352001b 	cmp	r2, #27
   158b0:	e58a1008 	str	r1, [sl, #8]
   158b4:	e5961004 	ldr	r1, [r6, #4]
   158b8:	92866008 	addls	r6, r6, #8
   158bc:	e58a100c 	str	r1, [sl, #12]
   158c0:	928a1010 	addls	r1, sl, #16
   158c4:	9a00000c 	bls	158fc <_realloc_r+0x268>
   158c8:	e5961008 	ldr	r1, [r6, #8]
   158cc:	e3520024 	cmp	r2, #36	; 0x24
   158d0:	e58a1010 	str	r1, [sl, #16]
   158d4:	e596200c 	ldr	r2, [r6, #12]
   158d8:	128a1018 	addne	r1, sl, #24
   158dc:	e58a2014 	str	r2, [sl, #20]
   158e0:	05962010 	ldreq	r2, [r6, #16]
   158e4:	12866010 	addne	r6, r6, #16
   158e8:	058a2018 	streq	r2, [sl, #24]
   158ec:	05962014 	ldreq	r2, [r6, #20]
   158f0:	028a1020 	addeq	r1, sl, #32
   158f4:	02866018 	addeq	r6, r6, #24
   158f8:	058a201c 	streq	r2, [sl, #28]
   158fc:	e5962000 	ldr	r2, [r6]
   15900:	e1a05003 	mov	r5, r3
   15904:	e5812000 	str	r2, [r1]
   15908:	e5962004 	ldr	r2, [r6, #4]
   1590c:	e1a0900a 	mov	r9, sl
   15910:	e5812004 	str	r2, [r1, #4]
   15914:	e5963008 	ldr	r3, [r6, #8]
   15918:	e5813008 	str	r3, [r1, #8]
   1591c:	e59a3004 	ldr	r3, [sl, #4]
   15920:	eaffff77 	b	15704 <_realloc_r+0x70>
   15924:	e0891004 	add	r1, r9, r4
   15928:	e1833004 	orr	r3, r3, r4
   1592c:	e3820001 	orr	r0, r2, #1
   15930:	e5893004 	str	r3, [r9, #4]
   15934:	e0812002 	add	r2, r1, r2
   15938:	e5810004 	str	r0, [r1, #4]
   1593c:	e5923004 	ldr	r3, [r2, #4]
   15940:	e2811008 	add	r1, r1, #8
   15944:	e3833001 	orr	r3, r3, #1
   15948:	e5823004 	str	r3, [r2, #4]
   1594c:	e1a00008 	mov	r0, r8
   15950:	ebffdd33 	bl	ce24 <_free_r>
   15954:	eaffff74 	b	1572c <_realloc_r+0x98>
   15958:	e1a01007 	mov	r1, r7
   1595c:	e1a00008 	mov	r0, r8
   15960:	ebffdefd 	bl	d55c <_malloc_r>
   15964:	e2507000 	subs	r7, r0, #0
   15968:	0affff6f 	beq	1572c <_realloc_r+0x98>
   1596c:	e5163004 	ldr	r3, [r6, #-4]
   15970:	e2471008 	sub	r1, r7, #8
   15974:	e3c32001 	bic	r2, r3, #1
   15978:	e0892002 	add	r2, r9, r2
   1597c:	e1510002 	cmp	r1, r2
   15980:	0a000089 	beq	15bac <_realloc_r+0x518>
   15984:	e2452004 	sub	r2, r5, #4
   15988:	e3520024 	cmp	r2, #36	; 0x24
   1598c:	8a000083 	bhi	15ba0 <_realloc_r+0x50c>
   15990:	e3520013 	cmp	r2, #19
   15994:	91a03007 	movls	r3, r7
   15998:	91a02006 	movls	r2, r6
   1599c:	9a000014 	bls	159f4 <_realloc_r+0x360>
   159a0:	e5963000 	ldr	r3, [r6]
   159a4:	e352001b 	cmp	r2, #27
   159a8:	e5873000 	str	r3, [r7]
   159ac:	e5963004 	ldr	r3, [r6, #4]
   159b0:	92862008 	addls	r2, r6, #8
   159b4:	e5873004 	str	r3, [r7, #4]
   159b8:	92873008 	addls	r3, r7, #8
   159bc:	9a00000c 	bls	159f4 <_realloc_r+0x360>
   159c0:	e5963008 	ldr	r3, [r6, #8]
   159c4:	e3520024 	cmp	r2, #36	; 0x24
   159c8:	e5873008 	str	r3, [r7, #8]
   159cc:	e596300c 	ldr	r3, [r6, #12]
   159d0:	12862010 	addne	r2, r6, #16
   159d4:	e587300c 	str	r3, [r7, #12]
   159d8:	05962010 	ldreq	r2, [r6, #16]
   159dc:	12873010 	addne	r3, r7, #16
   159e0:	05872010 	streq	r2, [r7, #16]
   159e4:	05961014 	ldreq	r1, [r6, #20]
   159e8:	02873018 	addeq	r3, r7, #24
   159ec:	02862018 	addeq	r2, r6, #24
   159f0:	05871014 	streq	r1, [r7, #20]
   159f4:	e5921000 	ldr	r1, [r2]
   159f8:	e5831000 	str	r1, [r3]
   159fc:	e5921004 	ldr	r1, [r2, #4]
   15a00:	e5831004 	str	r1, [r3, #4]
   15a04:	e5922008 	ldr	r2, [r2, #8]
   15a08:	e5832008 	str	r2, [r3, #8]
   15a0c:	e1a01006 	mov	r1, r6
   15a10:	e1a00008 	mov	r0, r8
   15a14:	ebffdd02 	bl	ce24 <_free_r>
   15a18:	eaffff43 	b	1572c <_realloc_r+0x98>
   15a1c:	e1a01002 	mov	r1, r2
   15a20:	e28dd00c 	add	sp, sp, #12
   15a24:	e8bd4ff0 	pop	{r4, r5, r6, r7, r8, r9, sl, fp, lr}
   15a28:	eaffdecb 	b	d55c <_malloc_r>
   15a2c:	e591200c 	ldr	r2, [r1, #12]
   15a30:	e5911008 	ldr	r1, [r1, #8]
   15a34:	e1a07006 	mov	r7, r6
   15a38:	e581200c 	str	r2, [r1, #12]
   15a3c:	e1a0500c 	mov	r5, ip
   15a40:	e5821008 	str	r1, [r2, #8]
   15a44:	eaffff2e 	b	15704 <_realloc_r+0x70>
   15a48:	e5901004 	ldr	r1, [r0, #4]
   15a4c:	e284c010 	add	ip, r4, #16
   15a50:	e3c11003 	bic	r1, r1, #3
   15a54:	e0811005 	add	r1, r1, r5
   15a58:	e151000c 	cmp	r1, ip
   15a5c:	aa000042 	bge	15b6c <_realloc_r+0x4d8>
   15a60:	e3130001 	tst	r3, #1
   15a64:	1affffbb 	bne	15958 <_realloc_r+0x2c4>
   15a68:	e516a008 	ldr	sl, [r6, #-8]
   15a6c:	e06aa009 	rsb	sl, sl, r9
   15a70:	e59a0004 	ldr	r0, [sl, #4]
   15a74:	e3c00003 	bic	r0, r0, #3
   15a78:	e0813000 	add	r3, r1, r0
   15a7c:	e15c0003 	cmp	ip, r3
   15a80:	caffff7a 	bgt	15870 <_realloc_r+0x1dc>
   15a84:	e1a0700a 	mov	r7, sl
   15a88:	e59a100c 	ldr	r1, [sl, #12]
   15a8c:	e5b70008 	ldr	r0, [r7, #8]!
   15a90:	e2452004 	sub	r2, r5, #4
   15a94:	e3520024 	cmp	r2, #36	; 0x24
   15a98:	e580100c 	str	r1, [r0, #12]
   15a9c:	e5810008 	str	r0, [r1, #8]
   15aa0:	8a00004d 	bhi	15bdc <_realloc_r+0x548>
   15aa4:	e3520013 	cmp	r2, #19
   15aa8:	91a02007 	movls	r2, r7
   15aac:	9a000014 	bls	15b04 <_realloc_r+0x470>
   15ab0:	e5961000 	ldr	r1, [r6]
   15ab4:	e352001b 	cmp	r2, #27
   15ab8:	e58a1008 	str	r1, [sl, #8]
   15abc:	e5961004 	ldr	r1, [r6, #4]
   15ac0:	928a2010 	addls	r2, sl, #16
   15ac4:	e58a100c 	str	r1, [sl, #12]
   15ac8:	92866008 	addls	r6, r6, #8
   15acc:	9a00000c 	bls	15b04 <_realloc_r+0x470>
   15ad0:	e5961008 	ldr	r1, [r6, #8]
   15ad4:	e3520024 	cmp	r2, #36	; 0x24
   15ad8:	e58a1010 	str	r1, [sl, #16]
   15adc:	e596200c 	ldr	r2, [r6, #12]
   15ae0:	12866010 	addne	r6, r6, #16
   15ae4:	e58a2014 	str	r2, [sl, #20]
   15ae8:	05961010 	ldreq	r1, [r6, #16]
   15aec:	128a2018 	addne	r2, sl, #24
   15af0:	058a1018 	streq	r1, [sl, #24]
   15af4:	05961014 	ldreq	r1, [r6, #20]
   15af8:	028a2020 	addeq	r2, sl, #32
   15afc:	02866018 	addeq	r6, r6, #24
   15b00:	058a101c 	streq	r1, [sl, #28]
   15b04:	e5961000 	ldr	r1, [r6]
   15b08:	e5821000 	str	r1, [r2]
   15b0c:	e5961004 	ldr	r1, [r6, #4]
   15b10:	e5821004 	str	r1, [r2, #4]
   15b14:	e5961008 	ldr	r1, [r6, #8]
   15b18:	e5821008 	str	r1, [r2, #8]
   15b1c:	e0643003 	rsb	r3, r4, r3
   15b20:	e08a2004 	add	r2, sl, r4
   15b24:	e3833001 	orr	r3, r3, #1
   15b28:	e58b2008 	str	r2, [fp, #8]
   15b2c:	e5823004 	str	r3, [r2, #4]
   15b30:	e59a3004 	ldr	r3, [sl, #4]
   15b34:	e1a00008 	mov	r0, r8
   15b38:	e2033001 	and	r3, r3, #1
   15b3c:	e1844003 	orr	r4, r4, r3
   15b40:	e58a4004 	str	r4, [sl, #4]
   15b44:	ebffe342 	bl	e854 <__malloc_unlock>
   15b48:	e1a00007 	mov	r0, r7
   15b4c:	eafffef9 	b	15738 <_realloc_r+0xa4>
   15b50:	e1a01006 	mov	r1, r6
   15b54:	e1a00007 	mov	r0, r7
   15b58:	e1a05003 	mov	r5, r3
   15b5c:	e1a0900a 	mov	r9, sl
   15b60:	ebffe0ad 	bl	de1c <memmove>
   15b64:	e59a3004 	ldr	r3, [sl, #4]
   15b68:	eafffee5 	b	15704 <_realloc_r+0x70>
   15b6c:	e0643001 	rsb	r3, r4, r1
   15b70:	e0899004 	add	r9, r9, r4
   15b74:	e3833001 	orr	r3, r3, #1
   15b78:	e58b9008 	str	r9, [fp, #8]
   15b7c:	e5893004 	str	r3, [r9, #4]
   15b80:	e5163004 	ldr	r3, [r6, #-4]
   15b84:	e1a00008 	mov	r0, r8
   15b88:	e2033001 	and	r3, r3, #1
   15b8c:	e1844003 	orr	r4, r4, r3
   15b90:	e5064004 	str	r4, [r6, #-4]
   15b94:	ebffe32e 	bl	e854 <__malloc_unlock>
   15b98:	e1a00006 	mov	r0, r6
   15b9c:	eafffee5 	b	15738 <_realloc_r+0xa4>
   15ba0:	e1a01006 	mov	r1, r6
   15ba4:	ebffe09c 	bl	de1c <memmove>
   15ba8:	eaffff97 	b	15a0c <_realloc_r+0x378>
   15bac:	e5172004 	ldr	r2, [r7, #-4]
   15bb0:	e1a07006 	mov	r7, r6
   15bb4:	e3c22003 	bic	r2, r2, #3
   15bb8:	e0855002 	add	r5, r5, r2
   15bbc:	eafffed0 	b	15704 <_realloc_r+0x70>
   15bc0:	e1a01006 	mov	r1, r6
   15bc4:	e1a00007 	mov	r0, r7
   15bc8:	e1a0500c 	mov	r5, ip
   15bcc:	e1a0900a 	mov	r9, sl
   15bd0:	ebffe091 	bl	de1c <memmove>
   15bd4:	e59a3004 	ldr	r3, [sl, #4]
   15bd8:	eafffec9 	b	15704 <_realloc_r+0x70>
   15bdc:	e1a01006 	mov	r1, r6
   15be0:	e1a00007 	mov	r0, r7
   15be4:	e58d3004 	str	r3, [sp, #4]
   15be8:	ebffe08b 	bl	de1c <memmove>
   15bec:	e59d3004 	ldr	r3, [sp, #4]
   15bf0:	eaffffc9 	b	15b1c <_realloc_r+0x488>
   15bf4:	00017d78 	andeq	r7, r1, r8, ror sp

00015bf8 <_wcrtomb_r>:
   15bf8:	e92d41f0 	push	{r4, r5, r6, r7, r8, lr}
   15bfc:	e2516000 	subs	r6, r1, #0
   15c00:	e24dd018 	sub	sp, sp, #24
   15c04:	e1a04000 	mov	r4, r0
   15c08:	e1a05003 	mov	r5, r3
   15c0c:	0a000010 	beq	15c54 <_wcrtomb_r+0x5c>
   15c10:	e59f3064 	ldr	r3, [pc, #100]	; 15c7c <_wcrtomb_r+0x84>
   15c14:	e1a07002 	mov	r7, r2
   15c18:	e5938000 	ldr	r8, [r3]
   15c1c:	ebfff2dc 	bl	12794 <__locale_charset>
   15c20:	e58d5000 	str	r5, [sp]
   15c24:	e1a03000 	mov	r3, r0
   15c28:	e1a01006 	mov	r1, r6
   15c2c:	e1a02007 	mov	r2, r7
   15c30:	e1a00004 	mov	r0, r4
   15c34:	e12fff38 	blx	r8
   15c38:	e3700001 	cmn	r0, #1
   15c3c:	03a02000 	moveq	r2, #0
   15c40:	03a0308a 	moveq	r3, #138	; 0x8a
   15c44:	05852000 	streq	r2, [r5]
   15c48:	05843000 	streq	r3, [r4]
   15c4c:	e28dd018 	add	sp, sp, #24
   15c50:	e8bd81f0 	pop	{r4, r5, r6, r7, r8, pc}
   15c54:	e59f3020 	ldr	r3, [pc, #32]	; 15c7c <_wcrtomb_r+0x84>
   15c58:	e5937000 	ldr	r7, [r3]
   15c5c:	ebfff2cc 	bl	12794 <__locale_charset>
   15c60:	e58d5000 	str	r5, [sp]
   15c64:	e1a03000 	mov	r3, r0
   15c68:	e1a02006 	mov	r2, r6
   15c6c:	e1a00004 	mov	r0, r4
   15c70:	e28d100c 	add	r1, sp, #12
   15c74:	e12fff37 	blx	r7
   15c78:	eaffffee 	b	15c38 <_wcrtomb_r+0x40>
   15c7c:	0001824c 	andeq	r8, r1, ip, asr #4

00015c80 <wcrtomb>:
   15c80:	e92d41f0 	push	{r4, r5, r6, r7, r8, lr}
   15c84:	e59f307c 	ldr	r3, [pc, #124]	; 15d08 <wcrtomb+0x88>
   15c88:	e2506000 	subs	r6, r0, #0
   15c8c:	e24dd018 	sub	sp, sp, #24
   15c90:	e1a05002 	mov	r5, r2
   15c94:	e5934000 	ldr	r4, [r3]
   15c98:	0a000010 	beq	15ce0 <wcrtomb+0x60>
   15c9c:	e59f3068 	ldr	r3, [pc, #104]	; 15d0c <wcrtomb+0x8c>
   15ca0:	e1a07001 	mov	r7, r1
   15ca4:	e5938000 	ldr	r8, [r3]
   15ca8:	ebfff2b9 	bl	12794 <__locale_charset>
   15cac:	e58d5000 	str	r5, [sp]
   15cb0:	e1a03000 	mov	r3, r0
   15cb4:	e1a01006 	mov	r1, r6
   15cb8:	e1a02007 	mov	r2, r7
   15cbc:	e1a00004 	mov	r0, r4
   15cc0:	e12fff38 	blx	r8
   15cc4:	e3700001 	cmn	r0, #1
   15cc8:	03a02000 	moveq	r2, #0
   15ccc:	03a0308a 	moveq	r3, #138	; 0x8a
   15cd0:	05852000 	streq	r2, [r5]
   15cd4:	05843000 	streq	r3, [r4]
   15cd8:	e28dd018 	add	sp, sp, #24
   15cdc:	e8bd81f0 	pop	{r4, r5, r6, r7, r8, pc}
   15ce0:	e59f3024 	ldr	r3, [pc, #36]	; 15d0c <wcrtomb+0x8c>
   15ce4:	e5937000 	ldr	r7, [r3]
   15ce8:	ebfff2a9 	bl	12794 <__locale_charset>
   15cec:	e58d5000 	str	r5, [sp]
   15cf0:	e1a03000 	mov	r3, r0
   15cf4:	e1a02006 	mov	r2, r6
   15cf8:	e1a00004 	mov	r0, r4
   15cfc:	e28d100c 	add	r1, sp, #12
   15d00:	e12fff37 	blx	r7
   15d04:	eaffffee 	b	15cc4 <wcrtomb+0x44>
   15d08:	00017948 	andeq	r7, r1, r8, asr #18
   15d0c:	0001824c 	andeq	r8, r1, ip, asr #4

00015d10 <__ascii_wctomb>:
   15d10:	e3510000 	cmp	r1, #0
   15d14:	0a000005 	beq	15d30 <__ascii_wctomb+0x20>
   15d18:	e35200ff 	cmp	r2, #255	; 0xff
   15d1c:	83a0308a 	movhi	r3, #138	; 0x8a
   15d20:	95c12000 	strbls	r2, [r1]
   15d24:	83e01000 	mvnhi	r1, #0
   15d28:	93a01001 	movls	r1, #1
   15d2c:	85803000 	strhi	r3, [r0]
   15d30:	e1a00001 	mov	r0, r1
   15d34:	e12fff1e 	bx	lr

00015d38 <_wctomb_r>:
   15d38:	e92d41f0 	push	{r4, r5, r6, r7, r8, lr}
   15d3c:	e59fc038 	ldr	ip, [pc, #56]	; 15d7c <_wctomb_r+0x44>
   15d40:	e24dd008 	sub	sp, sp, #8
   15d44:	e1a08003 	mov	r8, r3
   15d48:	e1a05000 	mov	r5, r0
   15d4c:	e1a07001 	mov	r7, r1
   15d50:	e1a06002 	mov	r6, r2
   15d54:	e59c4000 	ldr	r4, [ip]
   15d58:	ebfff28d 	bl	12794 <__locale_charset>
   15d5c:	e58d8000 	str	r8, [sp]
   15d60:	e1a03000 	mov	r3, r0
   15d64:	e1a01007 	mov	r1, r7
   15d68:	e1a02006 	mov	r2, r6
   15d6c:	e1a00005 	mov	r0, r5
   15d70:	e12fff34 	blx	r4
   15d74:	e28dd008 	add	sp, sp, #8
   15d78:	e8bd81f0 	pop	{r4, r5, r6, r7, r8, pc}
   15d7c:	0001824c 	andeq	r8, r1, ip, asr #4

00015d80 <__aeabi_uidiv>:
   15d80:	e2512001 	subs	r2, r1, #1
   15d84:	012fff1e 	bxeq	lr
   15d88:	3a000074 	bcc	15f60 <__aeabi_uidiv+0x1e0>
   15d8c:	e1500001 	cmp	r0, r1
   15d90:	9a00006b 	bls	15f44 <__aeabi_uidiv+0x1c4>
   15d94:	e1110002 	tst	r1, r2
   15d98:	0a00006c 	beq	15f50 <__aeabi_uidiv+0x1d0>
   15d9c:	e16f3f10 	clz	r3, r0
   15da0:	e16f2f11 	clz	r2, r1
   15da4:	e0423003 	sub	r3, r2, r3
   15da8:	e273301f 	rsbs	r3, r3, #31
   15dac:	10833083 	addne	r3, r3, r3, lsl #1
   15db0:	e3a02000 	mov	r2, #0
   15db4:	108ff103 	addne	pc, pc, r3, lsl #2
   15db8:	e320f000 	nop	{0}
   15dbc:	e1500f81 	cmp	r0, r1, lsl #31
   15dc0:	e0a22002 	adc	r2, r2, r2
   15dc4:	20400f81 	subcs	r0, r0, r1, lsl #31
   15dc8:	e1500f01 	cmp	r0, r1, lsl #30
   15dcc:	e0a22002 	adc	r2, r2, r2
   15dd0:	20400f01 	subcs	r0, r0, r1, lsl #30
   15dd4:	e1500e81 	cmp	r0, r1, lsl #29
   15dd8:	e0a22002 	adc	r2, r2, r2
   15ddc:	20400e81 	subcs	r0, r0, r1, lsl #29
   15de0:	e1500e01 	cmp	r0, r1, lsl #28
   15de4:	e0a22002 	adc	r2, r2, r2
   15de8:	20400e01 	subcs	r0, r0, r1, lsl #28
   15dec:	e1500d81 	cmp	r0, r1, lsl #27
   15df0:	e0a22002 	adc	r2, r2, r2
   15df4:	20400d81 	subcs	r0, r0, r1, lsl #27
   15df8:	e1500d01 	cmp	r0, r1, lsl #26
   15dfc:	e0a22002 	adc	r2, r2, r2
   15e00:	20400d01 	subcs	r0, r0, r1, lsl #26
   15e04:	e1500c81 	cmp	r0, r1, lsl #25
   15e08:	e0a22002 	adc	r2, r2, r2
   15e0c:	20400c81 	subcs	r0, r0, r1, lsl #25
   15e10:	e1500c01 	cmp	r0, r1, lsl #24
   15e14:	e0a22002 	adc	r2, r2, r2
   15e18:	20400c01 	subcs	r0, r0, r1, lsl #24
   15e1c:	e1500b81 	cmp	r0, r1, lsl #23
   15e20:	e0a22002 	adc	r2, r2, r2
   15e24:	20400b81 	subcs	r0, r0, r1, lsl #23
   15e28:	e1500b01 	cmp	r0, r1, lsl #22
   15e2c:	e0a22002 	adc	r2, r2, r2
   15e30:	20400b01 	subcs	r0, r0, r1, lsl #22
   15e34:	e1500a81 	cmp	r0, r1, lsl #21
   15e38:	e0a22002 	adc	r2, r2, r2
   15e3c:	20400a81 	subcs	r0, r0, r1, lsl #21
   15e40:	e1500a01 	cmp	r0, r1, lsl #20
   15e44:	e0a22002 	adc	r2, r2, r2
   15e48:	20400a01 	subcs	r0, r0, r1, lsl #20
   15e4c:	e1500981 	cmp	r0, r1, lsl #19
   15e50:	e0a22002 	adc	r2, r2, r2
   15e54:	20400981 	subcs	r0, r0, r1, lsl #19
   15e58:	e1500901 	cmp	r0, r1, lsl #18
   15e5c:	e0a22002 	adc	r2, r2, r2
   15e60:	20400901 	subcs	r0, r0, r1, lsl #18
   15e64:	e1500881 	cmp	r0, r1, lsl #17
   15e68:	e0a22002 	adc	r2, r2, r2
   15e6c:	20400881 	subcs	r0, r0, r1, lsl #17
   15e70:	e1500801 	cmp	r0, r1, lsl #16
   15e74:	e0a22002 	adc	r2, r2, r2
   15e78:	20400801 	subcs	r0, r0, r1, lsl #16
   15e7c:	e1500781 	cmp	r0, r1, lsl #15
   15e80:	e0a22002 	adc	r2, r2, r2
   15e84:	20400781 	subcs	r0, r0, r1, lsl #15
   15e88:	e1500701 	cmp	r0, r1, lsl #14
   15e8c:	e0a22002 	adc	r2, r2, r2
   15e90:	20400701 	subcs	r0, r0, r1, lsl #14
   15e94:	e1500681 	cmp	r0, r1, lsl #13
   15e98:	e0a22002 	adc	r2, r2, r2
   15e9c:	20400681 	subcs	r0, r0, r1, lsl #13
   15ea0:	e1500601 	cmp	r0, r1, lsl #12
   15ea4:	e0a22002 	adc	r2, r2, r2
   15ea8:	20400601 	subcs	r0, r0, r1, lsl #12
   15eac:	e1500581 	cmp	r0, r1, lsl #11
   15eb0:	e0a22002 	adc	r2, r2, r2
   15eb4:	20400581 	subcs	r0, r0, r1, lsl #11
   15eb8:	e1500501 	cmp	r0, r1, lsl #10
   15ebc:	e0a22002 	adc	r2, r2, r2
   15ec0:	20400501 	subcs	r0, r0, r1, lsl #10
   15ec4:	e1500481 	cmp	r0, r1, lsl #9
   15ec8:	e0a22002 	adc	r2, r2, r2
   15ecc:	20400481 	subcs	r0, r0, r1, lsl #9
   15ed0:	e1500401 	cmp	r0, r1, lsl #8
   15ed4:	e0a22002 	adc	r2, r2, r2
   15ed8:	20400401 	subcs	r0, r0, r1, lsl #8
   15edc:	e1500381 	cmp	r0, r1, lsl #7
   15ee0:	e0a22002 	adc	r2, r2, r2
   15ee4:	20400381 	subcs	r0, r0, r1, lsl #7
   15ee8:	e1500301 	cmp	r0, r1, lsl #6
   15eec:	e0a22002 	adc	r2, r2, r2
   15ef0:	20400301 	subcs	r0, r0, r1, lsl #6
   15ef4:	e1500281 	cmp	r0, r1, lsl #5
   15ef8:	e0a22002 	adc	r2, r2, r2
   15efc:	20400281 	subcs	r0, r0, r1, lsl #5
   15f00:	e1500201 	cmp	r0, r1, lsl #4
   15f04:	e0a22002 	adc	r2, r2, r2
   15f08:	20400201 	subcs	r0, r0, r1, lsl #4
   15f0c:	e1500181 	cmp	r0, r1, lsl #3
   15f10:	e0a22002 	adc	r2, r2, r2
   15f14:	20400181 	subcs	r0, r0, r1, lsl #3
   15f18:	e1500101 	cmp	r0, r1, lsl #2
   15f1c:	e0a22002 	adc	r2, r2, r2
   15f20:	20400101 	subcs	r0, r0, r1, lsl #2
   15f24:	e1500081 	cmp	r0, r1, lsl #1
   15f28:	e0a22002 	adc	r2, r2, r2
   15f2c:	20400081 	subcs	r0, r0, r1, lsl #1
   15f30:	e1500001 	cmp	r0, r1
   15f34:	e0a22002 	adc	r2, r2, r2
   15f38:	20400001 	subcs	r0, r0, r1
   15f3c:	e1a00002 	mov	r0, r2
   15f40:	e12fff1e 	bx	lr
   15f44:	03a00001 	moveq	r0, #1
   15f48:	13a00000 	movne	r0, #0
   15f4c:	e12fff1e 	bx	lr
   15f50:	e16f2f11 	clz	r2, r1
   15f54:	e262201f 	rsb	r2, r2, #31
   15f58:	e1a00230 	lsr	r0, r0, r2
   15f5c:	e12fff1e 	bx	lr
   15f60:	e3500000 	cmp	r0, #0
   15f64:	13e00000 	mvnne	r0, #0
   15f68:	ea000097 	b	161cc <__aeabi_idiv0>

00015f6c <__aeabi_uidivmod>:
   15f6c:	e3510000 	cmp	r1, #0
   15f70:	0afffffa 	beq	15f60 <__aeabi_uidiv+0x1e0>
   15f74:	e92d4003 	push	{r0, r1, lr}
   15f78:	ebffff80 	bl	15d80 <__aeabi_uidiv>
   15f7c:	e8bd4006 	pop	{r1, r2, lr}
   15f80:	e0030092 	mul	r3, r2, r0
   15f84:	e0411003 	sub	r1, r1, r3
   15f88:	e12fff1e 	bx	lr

00015f8c <__aeabi_idiv>:
   15f8c:	e3510000 	cmp	r1, #0
   15f90:	0a000081 	beq	1619c <.divsi3_skip_div0_test+0x208>

00015f94 <.divsi3_skip_div0_test>:
   15f94:	e020c001 	eor	ip, r0, r1
   15f98:	42611000 	rsbmi	r1, r1, #0
   15f9c:	e2512001 	subs	r2, r1, #1
   15fa0:	0a000070 	beq	16168 <.divsi3_skip_div0_test+0x1d4>
   15fa4:	e1b03000 	movs	r3, r0
   15fa8:	42603000 	rsbmi	r3, r0, #0
   15fac:	e1530001 	cmp	r3, r1
   15fb0:	9a00006f 	bls	16174 <.divsi3_skip_div0_test+0x1e0>
   15fb4:	e1110002 	tst	r1, r2
   15fb8:	0a000071 	beq	16184 <.divsi3_skip_div0_test+0x1f0>
   15fbc:	e16f2f13 	clz	r2, r3
   15fc0:	e16f0f11 	clz	r0, r1
   15fc4:	e0402002 	sub	r2, r0, r2
   15fc8:	e272201f 	rsbs	r2, r2, #31
   15fcc:	10822082 	addne	r2, r2, r2, lsl #1
   15fd0:	e3a00000 	mov	r0, #0
   15fd4:	108ff102 	addne	pc, pc, r2, lsl #2
   15fd8:	e320f000 	nop	{0}
   15fdc:	e1530f81 	cmp	r3, r1, lsl #31
   15fe0:	e0a00000 	adc	r0, r0, r0
   15fe4:	20433f81 	subcs	r3, r3, r1, lsl #31
   15fe8:	e1530f01 	cmp	r3, r1, lsl #30
   15fec:	e0a00000 	adc	r0, r0, r0
   15ff0:	20433f01 	subcs	r3, r3, r1, lsl #30
   15ff4:	e1530e81 	cmp	r3, r1, lsl #29
   15ff8:	e0a00000 	adc	r0, r0, r0
   15ffc:	20433e81 	subcs	r3, r3, r1, lsl #29
   16000:	e1530e01 	cmp	r3, r1, lsl #28
   16004:	e0a00000 	adc	r0, r0, r0
   16008:	20433e01 	subcs	r3, r3, r1, lsl #28
   1600c:	e1530d81 	cmp	r3, r1, lsl #27
   16010:	e0a00000 	adc	r0, r0, r0
   16014:	20433d81 	subcs	r3, r3, r1, lsl #27
   16018:	e1530d01 	cmp	r3, r1, lsl #26
   1601c:	e0a00000 	adc	r0, r0, r0
   16020:	20433d01 	subcs	r3, r3, r1, lsl #26
   16024:	e1530c81 	cmp	r3, r1, lsl #25
   16028:	e0a00000 	adc	r0, r0, r0
   1602c:	20433c81 	subcs	r3, r3, r1, lsl #25
   16030:	e1530c01 	cmp	r3, r1, lsl #24
   16034:	e0a00000 	adc	r0, r0, r0
   16038:	20433c01 	subcs	r3, r3, r1, lsl #24
   1603c:	e1530b81 	cmp	r3, r1, lsl #23
   16040:	e0a00000 	adc	r0, r0, r0
   16044:	20433b81 	subcs	r3, r3, r1, lsl #23
   16048:	e1530b01 	cmp	r3, r1, lsl #22
   1604c:	e0a00000 	adc	r0, r0, r0
   16050:	20433b01 	subcs	r3, r3, r1, lsl #22
   16054:	e1530a81 	cmp	r3, r1, lsl #21
   16058:	e0a00000 	adc	r0, r0, r0
   1605c:	20433a81 	subcs	r3, r3, r1, lsl #21
   16060:	e1530a01 	cmp	r3, r1, lsl #20
   16064:	e0a00000 	adc	r0, r0, r0
   16068:	20433a01 	subcs	r3, r3, r1, lsl #20
   1606c:	e1530981 	cmp	r3, r1, lsl #19
   16070:	e0a00000 	adc	r0, r0, r0
   16074:	20433981 	subcs	r3, r3, r1, lsl #19
   16078:	e1530901 	cmp	r3, r1, lsl #18
   1607c:	e0a00000 	adc	r0, r0, r0
   16080:	20433901 	subcs	r3, r3, r1, lsl #18
   16084:	e1530881 	cmp	r3, r1, lsl #17
   16088:	e0a00000 	adc	r0, r0, r0
   1608c:	20433881 	subcs	r3, r3, r1, lsl #17
   16090:	e1530801 	cmp	r3, r1, lsl #16
   16094:	e0a00000 	adc	r0, r0, r0
   16098:	20433801 	subcs	r3, r3, r1, lsl #16
   1609c:	e1530781 	cmp	r3, r1, lsl #15
   160a0:	e0a00000 	adc	r0, r0, r0
   160a4:	20433781 	subcs	r3, r3, r1, lsl #15
   160a8:	e1530701 	cmp	r3, r1, lsl #14
   160ac:	e0a00000 	adc	r0, r0, r0
   160b0:	20433701 	subcs	r3, r3, r1, lsl #14
   160b4:	e1530681 	cmp	r3, r1, lsl #13
   160b8:	e0a00000 	adc	r0, r0, r0
   160bc:	20433681 	subcs	r3, r3, r1, lsl #13
   160c0:	e1530601 	cmp	r3, r1, lsl #12
   160c4:	e0a00000 	adc	r0, r0, r0
   160c8:	20433601 	subcs	r3, r3, r1, lsl #12
   160cc:	e1530581 	cmp	r3, r1, lsl #11
   160d0:	e0a00000 	adc	r0, r0, r0
   160d4:	20433581 	subcs	r3, r3, r1, lsl #11
   160d8:	e1530501 	cmp	r3, r1, lsl #10
   160dc:	e0a00000 	adc	r0, r0, r0
   160e0:	20433501 	subcs	r3, r3, r1, lsl #10
   160e4:	e1530481 	cmp	r3, r1, lsl #9
   160e8:	e0a00000 	adc	r0, r0, r0
   160ec:	20433481 	subcs	r3, r3, r1, lsl #9
   160f0:	e1530401 	cmp	r3, r1, lsl #8
   160f4:	e0a00000 	adc	r0, r0, r0
   160f8:	20433401 	subcs	r3, r3, r1, lsl #8
   160fc:	e1530381 	cmp	r3, r1, lsl #7
   16100:	e0a00000 	adc	r0, r0, r0
   16104:	20433381 	subcs	r3, r3, r1, lsl #7
   16108:	e1530301 	cmp	r3, r1, lsl #6
   1610c:	e0a00000 	adc	r0, r0, r0
   16110:	20433301 	subcs	r3, r3, r1, lsl #6
   16114:	e1530281 	cmp	r3, r1, lsl #5
   16118:	e0a00000 	adc	r0, r0, r0
   1611c:	20433281 	subcs	r3, r3, r1, lsl #5
   16120:	e1530201 	cmp	r3, r1, lsl #4
   16124:	e0a00000 	adc	r0, r0, r0
   16128:	20433201 	subcs	r3, r3, r1, lsl #4
   1612c:	e1530181 	cmp	r3, r1, lsl #3
   16130:	e0a00000 	adc	r0, r0, r0
   16134:	20433181 	subcs	r3, r3, r1, lsl #3
   16138:	e1530101 	cmp	r3, r1, lsl #2
   1613c:	e0a00000 	adc	r0, r0, r0
   16140:	20433101 	subcs	r3, r3, r1, lsl #2
   16144:	e1530081 	cmp	r3, r1, lsl #1
   16148:	e0a00000 	adc	r0, r0, r0
   1614c:	20433081 	subcs	r3, r3, r1, lsl #1
   16150:	e1530001 	cmp	r3, r1
   16154:	e0a00000 	adc	r0, r0, r0
   16158:	20433001 	subcs	r3, r3, r1
   1615c:	e35c0000 	cmp	ip, #0
   16160:	42600000 	rsbmi	r0, r0, #0
   16164:	e12fff1e 	bx	lr
   16168:	e13c0000 	teq	ip, r0
   1616c:	42600000 	rsbmi	r0, r0, #0
   16170:	e12fff1e 	bx	lr
   16174:	33a00000 	movcc	r0, #0
   16178:	01a00fcc 	asreq	r0, ip, #31
   1617c:	03800001 	orreq	r0, r0, #1
   16180:	e12fff1e 	bx	lr
   16184:	e16f2f11 	clz	r2, r1
   16188:	e262201f 	rsb	r2, r2, #31
   1618c:	e35c0000 	cmp	ip, #0
   16190:	e1a00233 	lsr	r0, r3, r2
   16194:	42600000 	rsbmi	r0, r0, #0
   16198:	e12fff1e 	bx	lr
   1619c:	e3500000 	cmp	r0, #0
   161a0:	c3e00102 	mvngt	r0, #-2147483648	; 0x80000000
   161a4:	b3a00102 	movlt	r0, #-2147483648	; 0x80000000
   161a8:	ea000007 	b	161cc <__aeabi_idiv0>

000161ac <__aeabi_idivmod>:
   161ac:	e3510000 	cmp	r1, #0
   161b0:	0afffff9 	beq	1619c <.divsi3_skip_div0_test+0x208>
   161b4:	e92d4003 	push	{r0, r1, lr}
   161b8:	ebffff75 	bl	15f94 <.divsi3_skip_div0_test>
   161bc:	e8bd4006 	pop	{r1, r2, lr}
   161c0:	e0030092 	mul	r3, r2, r0
   161c4:	e0411003 	sub	r1, r1, r3
   161c8:	e12fff1e 	bx	lr

000161cc <__aeabi_idiv0>:
   161cc:	e12fff1e 	bx	lr

000161d0 <__aeabi_drsub>:
   161d0:	e2211102 	eor	r1, r1, #-2147483648	; 0x80000000
   161d4:	ea000000 	b	161dc <__adddf3>

000161d8 <__aeabi_dsub>:
   161d8:	e2233102 	eor	r3, r3, #-2147483648	; 0x80000000

000161dc <__adddf3>:
   161dc:	e92d4030 	push	{r4, r5, lr}
   161e0:	e1a04081 	lsl	r4, r1, #1
   161e4:	e1a05083 	lsl	r5, r3, #1
   161e8:	e1340005 	teq	r4, r5
   161ec:	01300002 	teqeq	r0, r2
   161f0:	1194c000 	orrsne	ip, r4, r0
   161f4:	1195c002 	orrsne	ip, r5, r2
   161f8:	11f0cac4 	mvnsne	ip, r4, asr #21
   161fc:	11f0cac5 	mvnsne	ip, r5, asr #21
   16200:	0a000079 	beq	163ec <__adddf3+0x210>
   16204:	e1a04aa4 	lsr	r4, r4, #21
   16208:	e0745aa5 	rsbs	r5, r4, r5, lsr #21
   1620c:	b2655000 	rsblt	r5, r5, #0
   16210:	da000006 	ble	16230 <__adddf3+0x54>
   16214:	e0844005 	add	r4, r4, r5
   16218:	e0202002 	eor	r2, r0, r2
   1621c:	e0213003 	eor	r3, r1, r3
   16220:	e0220000 	eor	r0, r2, r0
   16224:	e0231001 	eor	r1, r3, r1
   16228:	e0202002 	eor	r2, r0, r2
   1622c:	e0213003 	eor	r3, r1, r3
   16230:	e3550036 	cmp	r5, #54	; 0x36
   16234:	88bd8030 	pophi	{r4, r5, pc}
   16238:	e3110102 	tst	r1, #-2147483648	; 0x80000000
   1623c:	e1a01601 	lsl	r1, r1, #12
   16240:	e3a0c601 	mov	ip, #1048576	; 0x100000
   16244:	e18c1621 	orr	r1, ip, r1, lsr #12
   16248:	0a000001 	beq	16254 <__adddf3+0x78>
   1624c:	e2700000 	rsbs	r0, r0, #0
   16250:	e2e11000 	rsc	r1, r1, #0
   16254:	e3130102 	tst	r3, #-2147483648	; 0x80000000
   16258:	e1a03603 	lsl	r3, r3, #12
   1625c:	e18c3623 	orr	r3, ip, r3, lsr #12
   16260:	0a000001 	beq	1626c <__adddf3+0x90>
   16264:	e2722000 	rsbs	r2, r2, #0
   16268:	e2e33000 	rsc	r3, r3, #0
   1626c:	e1340005 	teq	r4, r5
   16270:	0a000057 	beq	163d4 <__adddf3+0x1f8>
   16274:	e2444001 	sub	r4, r4, #1
   16278:	e275e020 	rsbs	lr, r5, #32
   1627c:	ba000005 	blt	16298 <__adddf3+0xbc>
   16280:	e1a0ce12 	lsl	ip, r2, lr
   16284:	e0900532 	adds	r0, r0, r2, lsr r5
   16288:	e2a11000 	adc	r1, r1, #0
   1628c:	e0900e13 	adds	r0, r0, r3, lsl lr
   16290:	e0b11553 	adcs	r1, r1, r3, asr r5
   16294:	ea000006 	b	162b4 <__adddf3+0xd8>
   16298:	e2455020 	sub	r5, r5, #32
   1629c:	e28ee020 	add	lr, lr, #32
   162a0:	e3520001 	cmp	r2, #1
   162a4:	e1a0ce13 	lsl	ip, r3, lr
   162a8:	238cc002 	orrcs	ip, ip, #2
   162ac:	e0900553 	adds	r0, r0, r3, asr r5
   162b0:	e0b11fc3 	adcs	r1, r1, r3, asr #31
   162b4:	e2015102 	and	r5, r1, #-2147483648	; 0x80000000
   162b8:	5a000002 	bpl	162c8 <__adddf3+0xec>
   162bc:	e27cc000 	rsbs	ip, ip, #0
   162c0:	e2f00000 	rscs	r0, r0, #0
   162c4:	e2e11000 	rsc	r1, r1, #0
   162c8:	e3510601 	cmp	r1, #1048576	; 0x100000
   162cc:	3a00000e 	bcc	1630c <__adddf3+0x130>
   162d0:	e3510602 	cmp	r1, #2097152	; 0x200000
   162d4:	3a000006 	bcc	162f4 <__adddf3+0x118>
   162d8:	e1b010a1 	lsrs	r1, r1, #1
   162dc:	e1b00060 	rrxs	r0, r0
   162e0:	e1a0c06c 	rrx	ip, ip
   162e4:	e2844001 	add	r4, r4, #1
   162e8:	e1a02a84 	lsl	r2, r4, #21
   162ec:	e3720501 	cmn	r2, #4194304	; 0x400000
   162f0:	2a000055 	bcs	1644c <__adddf3+0x270>
   162f4:	e35c0102 	cmp	ip, #-2147483648	; 0x80000000
   162f8:	01b0c0a0 	lsrseq	ip, r0, #1
   162fc:	e2b00000 	adcs	r0, r0, #0
   16300:	e0a11a04 	adc	r1, r1, r4, lsl #20
   16304:	e1811005 	orr	r1, r1, r5
   16308:	e8bd8030 	pop	{r4, r5, pc}
   1630c:	e1b0c08c 	lsls	ip, ip, #1
   16310:	e0b00000 	adcs	r0, r0, r0
   16314:	e0a11001 	adc	r1, r1, r1
   16318:	e3110601 	tst	r1, #1048576	; 0x100000
   1631c:	e2444001 	sub	r4, r4, #1
   16320:	1afffff3 	bne	162f4 <__adddf3+0x118>
   16324:	e3310000 	teq	r1, #0
   16328:	01a01000 	moveq	r1, r0
   1632c:	03a00000 	moveq	r0, #0
   16330:	e16f3f11 	clz	r3, r1
   16334:	02833020 	addeq	r3, r3, #32
   16338:	e243300b 	sub	r3, r3, #11
   1633c:	e2532020 	subs	r2, r3, #32
   16340:	aa000007 	bge	16364 <__adddf3+0x188>
   16344:	e292200c 	adds	r2, r2, #12
   16348:	da000004 	ble	16360 <__adddf3+0x184>
   1634c:	e282c014 	add	ip, r2, #20
   16350:	e262200c 	rsb	r2, r2, #12
   16354:	e1a00c11 	lsl	r0, r1, ip
   16358:	e1a01231 	lsr	r1, r1, r2
   1635c:	ea000004 	b	16374 <__adddf3+0x198>
   16360:	e2822014 	add	r2, r2, #20
   16364:	d262c020 	rsble	ip, r2, #32
   16368:	e1a01211 	lsl	r1, r1, r2
   1636c:	d1811c30 	orrle	r1, r1, r0, lsr ip
   16370:	d1a00210 	lslle	r0, r0, r2
   16374:	e0544003 	subs	r4, r4, r3
   16378:	a0811a04 	addge	r1, r1, r4, lsl #20
   1637c:	a1811005 	orrge	r1, r1, r5
   16380:	a8bd8030 	popge	{r4, r5, pc}
   16384:	e1e04004 	mvn	r4, r4
   16388:	e254401f 	subs	r4, r4, #31
   1638c:	aa00000d 	bge	163c8 <__adddf3+0x1ec>
   16390:	e294400c 	adds	r4, r4, #12
   16394:	ca000005 	bgt	163b0 <__adddf3+0x1d4>
   16398:	e2844014 	add	r4, r4, #20
   1639c:	e2642020 	rsb	r2, r4, #32
   163a0:	e1a00430 	lsr	r0, r0, r4
   163a4:	e1800211 	orr	r0, r0, r1, lsl r2
   163a8:	e1851431 	orr	r1, r5, r1, lsr r4
   163ac:	e8bd8030 	pop	{r4, r5, pc}
   163b0:	e264400c 	rsb	r4, r4, #12
   163b4:	e2642020 	rsb	r2, r4, #32
   163b8:	e1a00230 	lsr	r0, r0, r2
   163bc:	e1800411 	orr	r0, r0, r1, lsl r4
   163c0:	e1a01005 	mov	r1, r5
   163c4:	e8bd8030 	pop	{r4, r5, pc}
   163c8:	e1a00431 	lsr	r0, r1, r4
   163cc:	e1a01005 	mov	r1, r5
   163d0:	e8bd8030 	pop	{r4, r5, pc}
   163d4:	e3340000 	teq	r4, #0
   163d8:	e2233601 	eor	r3, r3, #1048576	; 0x100000
   163dc:	02211601 	eoreq	r1, r1, #1048576	; 0x100000
   163e0:	02844001 	addeq	r4, r4, #1
   163e4:	12455001 	subne	r5, r5, #1
   163e8:	eaffffa1 	b	16274 <__adddf3+0x98>
   163ec:	e1f0cac4 	mvns	ip, r4, asr #21
   163f0:	11f0cac5 	mvnsne	ip, r5, asr #21
   163f4:	0a000018 	beq	1645c <__adddf3+0x280>
   163f8:	e1340005 	teq	r4, r5
   163fc:	01300002 	teqeq	r0, r2
   16400:	0a000003 	beq	16414 <__adddf3+0x238>
   16404:	e194c000 	orrs	ip, r4, r0
   16408:	01a01003 	moveq	r1, r3
   1640c:	01a00002 	moveq	r0, r2
   16410:	e8bd8030 	pop	{r4, r5, pc}
   16414:	e1310003 	teq	r1, r3
   16418:	13a01000 	movne	r1, #0
   1641c:	13a00000 	movne	r0, #0
   16420:	18bd8030 	popne	{r4, r5, pc}
   16424:	e1b0caa4 	lsrs	ip, r4, #21
   16428:	1a000003 	bne	1643c <__adddf3+0x260>
   1642c:	e1b00080 	lsls	r0, r0, #1
   16430:	e0b11001 	adcs	r1, r1, r1
   16434:	23811102 	orrcs	r1, r1, #-2147483648	; 0x80000000
   16438:	e8bd8030 	pop	{r4, r5, pc}
   1643c:	e2944501 	adds	r4, r4, #4194304	; 0x400000
   16440:	32811601 	addcc	r1, r1, #1048576	; 0x100000
   16444:	38bd8030 	popcc	{r4, r5, pc}
   16448:	e2015102 	and	r5, r1, #-2147483648	; 0x80000000
   1644c:	e385147f 	orr	r1, r5, #2130706432	; 0x7f000000
   16450:	e381160f 	orr	r1, r1, #15728640	; 0xf00000
   16454:	e3a00000 	mov	r0, #0
   16458:	e8bd8030 	pop	{r4, r5, pc}
   1645c:	e1f0cac4 	mvns	ip, r4, asr #21
   16460:	11a01003 	movne	r1, r3
   16464:	11a00002 	movne	r0, r2
   16468:	01f0cac5 	mvnseq	ip, r5, asr #21
   1646c:	11a03001 	movne	r3, r1
   16470:	11a02000 	movne	r2, r0
   16474:	e1904601 	orrs	r4, r0, r1, lsl #12
   16478:	01925603 	orrseq	r5, r2, r3, lsl #12
   1647c:	01310003 	teqeq	r1, r3
   16480:	13811702 	orrne	r1, r1, #524288	; 0x80000
   16484:	e8bd8030 	pop	{r4, r5, pc}

00016488 <__aeabi_ui2d>:
   16488:	e3300000 	teq	r0, #0
   1648c:	03a01000 	moveq	r1, #0
   16490:	012fff1e 	bxeq	lr
   16494:	e92d4030 	push	{r4, r5, lr}
   16498:	e3a04b01 	mov	r4, #1024	; 0x400
   1649c:	e2844032 	add	r4, r4, #50	; 0x32
   164a0:	e3a05000 	mov	r5, #0
   164a4:	e3a01000 	mov	r1, #0
   164a8:	eaffff9d 	b	16324 <__adddf3+0x148>

000164ac <__aeabi_i2d>:
   164ac:	e3300000 	teq	r0, #0
   164b0:	03a01000 	moveq	r1, #0
   164b4:	012fff1e 	bxeq	lr
   164b8:	e92d4030 	push	{r4, r5, lr}
   164bc:	e3a04b01 	mov	r4, #1024	; 0x400
   164c0:	e2844032 	add	r4, r4, #50	; 0x32
   164c4:	e2105102 	ands	r5, r0, #-2147483648	; 0x80000000
   164c8:	42600000 	rsbmi	r0, r0, #0
   164cc:	e3a01000 	mov	r1, #0
   164d0:	eaffff93 	b	16324 <__adddf3+0x148>

000164d4 <__aeabi_f2d>:
   164d4:	e1b02080 	lsls	r2, r0, #1
   164d8:	e1a011c2 	asr	r1, r2, #3
   164dc:	e1a01061 	rrx	r1, r1
   164e0:	e1a00e02 	lsl	r0, r2, #28
   164e4:	121234ff 	andsne	r3, r2, #-16777216	; 0xff000000
   164e8:	133304ff 	teqne	r3, #-16777216	; 0xff000000
   164ec:	1221130e 	eorne	r1, r1, #939524096	; 0x38000000
   164f0:	112fff1e 	bxne	lr
   164f4:	e3320000 	teq	r2, #0
   164f8:	133304ff 	teqne	r3, #-16777216	; 0xff000000
   164fc:	012fff1e 	bxeq	lr
   16500:	e92d4030 	push	{r4, r5, lr}
   16504:	e3a04d0e 	mov	r4, #896	; 0x380
   16508:	e2015102 	and	r5, r1, #-2147483648	; 0x80000000
   1650c:	e3c11102 	bic	r1, r1, #-2147483648	; 0x80000000
   16510:	eaffff83 	b	16324 <__adddf3+0x148>

00016514 <__aeabi_ul2d>:
   16514:	e1902001 	orrs	r2, r0, r1
   16518:	012fff1e 	bxeq	lr
   1651c:	e92d4030 	push	{r4, r5, lr}
   16520:	e3a05000 	mov	r5, #0
   16524:	ea000006 	b	16544 <__aeabi_l2d+0x1c>

00016528 <__aeabi_l2d>:
   16528:	e1902001 	orrs	r2, r0, r1
   1652c:	012fff1e 	bxeq	lr
   16530:	e92d4030 	push	{r4, r5, lr}
   16534:	e2115102 	ands	r5, r1, #-2147483648	; 0x80000000
   16538:	5a000001 	bpl	16544 <__aeabi_l2d+0x1c>
   1653c:	e2700000 	rsbs	r0, r0, #0
   16540:	e2e11000 	rsc	r1, r1, #0
   16544:	e3a04b01 	mov	r4, #1024	; 0x400
   16548:	e2844032 	add	r4, r4, #50	; 0x32
   1654c:	e1b0cb21 	lsrs	ip, r1, #22
   16550:	0affff5c 	beq	162c8 <__adddf3+0xec>
   16554:	e3a02003 	mov	r2, #3
   16558:	e1b0c1ac 	lsrs	ip, ip, #3
   1655c:	12822003 	addne	r2, r2, #3
   16560:	e1b0c1ac 	lsrs	ip, ip, #3
   16564:	12822003 	addne	r2, r2, #3
   16568:	e08221ac 	add	r2, r2, ip, lsr #3
   1656c:	e2623020 	rsb	r3, r2, #32
   16570:	e1a0c310 	lsl	ip, r0, r3
   16574:	e1a00230 	lsr	r0, r0, r2
   16578:	e1800311 	orr	r0, r0, r1, lsl r3
   1657c:	e1a01231 	lsr	r1, r1, r2
   16580:	e0844002 	add	r4, r4, r2
   16584:	eaffff4f 	b	162c8 <__adddf3+0xec>

00016588 <__aeabi_uldivmod>:
   16588:	e3530000 	cmp	r3, #0
   1658c:	03520000 	cmpeq	r2, #0
   16590:	1a000004 	bne	165a8 <__aeabi_uldivmod+0x20>
   16594:	e3510000 	cmp	r1, #0
   16598:	03500000 	cmpeq	r0, #0
   1659c:	13e01000 	mvnne	r1, #0
   165a0:	13e00000 	mvnne	r0, #0
   165a4:	eaffff08 	b	161cc <__aeabi_idiv0>
   165a8:	e24dd008 	sub	sp, sp, #8
   165ac:	e92d6000 	push	{sp, lr}
   165b0:	eb000025 	bl	1664c <__gnu_uldivmod_helper>
   165b4:	e59de004 	ldr	lr, [sp, #4]
   165b8:	e28dd008 	add	sp, sp, #8
   165bc:	e8bd000c 	pop	{r2, r3}
   165c0:	e12fff1e 	bx	lr
   165c4:	00000000 	andeq	r0, r0, r0

000165c8 <__aeabi_d2ulz>:
   165c8:	ec410b17 	vmov	d7, r0, r1
   165cc:	ed9f6b0b 	vldr	d6, [pc, #44]	; 16600 <__aeabi_d2ulz+0x38>
   165d0:	ee276b06 	vmul.f64	d6, d7, d6
   165d4:	eebc6bc6 	vcvt.u32.f64	s12, d6
   165d8:	ed9f5b0a 	vldr	d5, [pc, #40]	; 16608 <__aeabi_d2ulz+0x40>
   165dc:	eeb84b46 	vcvt.f64.u32	d4, s12
   165e0:	ee047b45 	vmls.f64	d7, d4, d5
   165e4:	eebc7bc7 	vcvt.u32.f64	s14, d7
   165e8:	e3a00000 	mov	r0, #0
   165ec:	ee173a10 	vmov	r3, s14
   165f0:	ee161a10 	vmov	r1, s12
   165f4:	e1800003 	orr	r0, r0, r3
   165f8:	e12fff1e 	bx	lr
   165fc:	e320f000 	nop	{0}
   16600:	00000000 	andeq	r0, r0, r0
   16604:	3df00000 	ldclcc	0, cr0, [r0]
   16608:	00000000 	andeq	r0, r0, r0
   1660c:	41f00000 	mvnsmi	r0, r0

00016610 <__gnu_ldivmod_helper>:
   16610:	e92d41f0 	push	{r4, r5, r6, r7, r8, lr}
   16614:	e59d7018 	ldr	r7, [sp, #24]
   16618:	e1a08002 	mov	r8, r2
   1661c:	e1a04000 	mov	r4, r0
   16620:	e1a05001 	mov	r5, r1
   16624:	e1a06003 	mov	r6, r3
   16628:	eb000016 	bl	16688 <__divdi3>
   1662c:	e00e0198 	mul	lr, r8, r1
   16630:	e0832098 	umull	r2, r3, r8, r0
   16634:	e026e690 	mla	r6, r0, r6, lr
   16638:	e0542002 	subs	r2, r4, r2
   1663c:	e0863003 	add	r3, r6, r3
   16640:	e0c53003 	sbc	r3, r5, r3
   16644:	e1c720f0 	strd	r2, [r7]
   16648:	e8bd81f0 	pop	{r4, r5, r6, r7, r8, pc}

0001664c <__gnu_uldivmod_helper>:
   1664c:	e92d43f8 	push	{r3, r4, r5, r6, r7, r8, r9, lr}
   16650:	e59d7020 	ldr	r7, [sp, #32]
   16654:	e1a06002 	mov	r6, r2
   16658:	e1a08000 	mov	r8, r0
   1665c:	e1a09001 	mov	r9, r1
   16660:	e1a05003 	mov	r5, r3
   16664:	eb000067 	bl	16808 <__udivdi3>
   16668:	e0030590 	mul	r3, r0, r5
   1666c:	e0854690 	umull	r4, r5, r0, r6
   16670:	e0263196 	mla	r6, r6, r1, r3
   16674:	e0584004 	subs	r4, r8, r4
   16678:	e0865005 	add	r5, r6, r5
   1667c:	e0c95005 	sbc	r5, r9, r5
   16680:	e1c740f0 	strd	r4, [r7]
   16684:	e8bd83f8 	pop	{r3, r4, r5, r6, r7, r8, r9, pc}

00016688 <__divdi3>:
   16688:	e3510000 	cmp	r1, #0
   1668c:	e92d4ff0 	push	{r4, r5, r6, r7, r8, r9, sl, fp, lr}
   16690:	a3a0c000 	movge	ip, #0
   16694:	ba000057 	blt	167f8 <__divdi3+0x170>
   16698:	e3530000 	cmp	r3, #0
   1669c:	a1a08002 	movge	r8, r2
   166a0:	a1a09003 	movge	r9, r3
   166a4:	ba00004f 	blt	167e8 <__divdi3+0x160>
   166a8:	e1510009 	cmp	r1, r9
   166ac:	01500008 	cmpeq	r0, r8
   166b0:	e1a04000 	mov	r4, r0
   166b4:	e1a05001 	mov	r5, r1
   166b8:	33a08000 	movcc	r8, #0
   166bc:	33a09000 	movcc	r9, #0
   166c0:	3a00003e 	bcc	167c0 <__divdi3+0x138>
   166c4:	e3590000 	cmp	r9, #0
   166c8:	016f3f18 	clzeq	r3, r8
   166cc:	116f2f19 	clzne	r2, r9
   166d0:	02832020 	addeq	r2, r3, #32
   166d4:	e3510000 	cmp	r1, #0
   166d8:	016f3f10 	clzeq	r3, r0
   166dc:	116f3f11 	clzne	r3, r1
   166e0:	02833020 	addeq	r3, r3, #32
   166e4:	e0633002 	rsb	r3, r3, r2
   166e8:	e1a07319 	lsl	r7, r9, r3
   166ec:	e243e020 	sub	lr, r3, #32
   166f0:	e1877e18 	orr	r7, r7, r8, lsl lr
   166f4:	e263a020 	rsb	sl, r3, #32
   166f8:	e1877a38 	orr	r7, r7, r8, lsr sl
   166fc:	e1510007 	cmp	r1, r7
   16700:	e1a06318 	lsl	r6, r8, r3
   16704:	01500006 	cmpeq	r0, r6
   16708:	e1a02003 	mov	r2, r3
   1670c:	33a08000 	movcc	r8, #0
   16710:	33a09000 	movcc	r9, #0
   16714:	3a000007 	bcc	16738 <__divdi3+0xb0>
   16718:	e3a0b001 	mov	fp, #1
   1671c:	e0500006 	subs	r0, r0, r6
   16720:	e0c11007 	sbc	r1, r1, r7
   16724:	e1a04000 	mov	r4, r0
   16728:	e1a05001 	mov	r5, r1
   1672c:	e1a09e1b 	lsl	r9, fp, lr
   16730:	e1899a3b 	orr	r9, r9, fp, lsr sl
   16734:	e1a0831b 	lsl	r8, fp, r3
   16738:	e3530000 	cmp	r3, #0
   1673c:	0a00001f 	beq	167c0 <__divdi3+0x138>
   16740:	e1b070a7 	lsrs	r7, r7, #1
   16744:	e1a06066 	rrx	r6, r6
   16748:	ea000007 	b	1676c <__divdi3+0xe4>
   1674c:	e0544006 	subs	r4, r4, r6
   16750:	e0c55007 	sbc	r5, r5, r7
   16754:	e0944004 	adds	r4, r4, r4
   16758:	e0a55005 	adc	r5, r5, r5
   1675c:	e2944001 	adds	r4, r4, #1
   16760:	e2a55000 	adc	r5, r5, #0
   16764:	e2533001 	subs	r3, r3, #1
   16768:	0a000006 	beq	16788 <__divdi3+0x100>
   1676c:	e1570005 	cmp	r7, r5
   16770:	01560004 	cmpeq	r6, r4
   16774:	9afffff4 	bls	1674c <__divdi3+0xc4>
   16778:	e0944004 	adds	r4, r4, r4
   1677c:	e0a55005 	adc	r5, r5, r5
   16780:	e2533001 	subs	r3, r3, #1
   16784:	1afffff8 	bne	1676c <__divdi3+0xe4>
   16788:	e2621020 	rsb	r1, r2, #32
   1678c:	e1a03234 	lsr	r3, r4, r2
   16790:	e2420020 	sub	r0, r2, #32
   16794:	e1833115 	orr	r3, r3, r5, lsl r1
   16798:	e1a0e235 	lsr	lr, r5, r2
   1679c:	e1833035 	orr	r3, r3, r5, lsr r0
   167a0:	e1a0721e 	lsl	r7, lr, r2
   167a4:	e0988004 	adds	r8, r8, r4
   167a8:	e1877013 	orr	r7, r7, r3, lsl r0
   167ac:	e1a06213 	lsl	r6, r3, r2
   167b0:	e0a99005 	adc	r9, r9, r5
   167b4:	e1877133 	orr	r7, r7, r3, lsr r1
   167b8:	e0588006 	subs	r8, r8, r6
   167bc:	e0c99007 	sbc	r9, r9, r7
   167c0:	e29c0000 	adds	r0, ip, #0
   167c4:	13a00001 	movne	r0, #1
   167c8:	e3a01000 	mov	r1, #0
   167cc:	e2702000 	rsbs	r2, r0, #0
   167d0:	e2e13000 	rsc	r3, r1, #0
   167d4:	e0288002 	eor	r8, r8, r2
   167d8:	e0299003 	eor	r9, r9, r3
   167dc:	e0900008 	adds	r0, r0, r8
   167e0:	e0a11009 	adc	r1, r1, r9
   167e4:	e8bd8ff0 	pop	{r4, r5, r6, r7, r8, r9, sl, fp, pc}
   167e8:	e2728000 	rsbs	r8, r2, #0
   167ec:	e1e0c00c 	mvn	ip, ip
   167f0:	e2e39000 	rsc	r9, r3, #0
   167f4:	eaffffab 	b	166a8 <__divdi3+0x20>
   167f8:	e2700000 	rsbs	r0, r0, #0
   167fc:	e2e11000 	rsc	r1, r1, #0
   16800:	e3e0c000 	mvn	ip, #0
   16804:	eaffffa3 	b	16698 <__divdi3+0x10>

00016808 <__udivdi3>:
   16808:	e92d43f0 	push	{r4, r5, r6, r7, r8, r9, lr}
   1680c:	e1a05001 	mov	r5, r1
   16810:	e1a04000 	mov	r4, r0
   16814:	e1550003 	cmp	r5, r3
   16818:	01540002 	cmpeq	r4, r2
   1681c:	e1a00002 	mov	r0, r2
   16820:	e1a01003 	mov	r1, r3
   16824:	3a00003d 	bcc	16920 <__udivdi3+0x118>
   16828:	e3530000 	cmp	r3, #0
   1682c:	016f3f10 	clzeq	r3, r0
   16830:	116f2f13 	clzne	r2, r3
   16834:	02832020 	addeq	r2, r3, #32
   16838:	e3550000 	cmp	r5, #0
   1683c:	016f3f14 	clzeq	r3, r4
   16840:	116f3f15 	clzne	r3, r5
   16844:	02833020 	addeq	r3, r3, #32
   16848:	e0633002 	rsb	r3, r3, r2
   1684c:	e1a07311 	lsl	r7, r1, r3
   16850:	e243e020 	sub	lr, r3, #32
   16854:	e1877e10 	orr	r7, r7, r0, lsl lr
   16858:	e263c020 	rsb	ip, r3, #32
   1685c:	e1877c30 	orr	r7, r7, r0, lsr ip
   16860:	e1550007 	cmp	r5, r7
   16864:	e1a06310 	lsl	r6, r0, r3
   16868:	01540006 	cmpeq	r4, r6
   1686c:	e1a02003 	mov	r2, r3
   16870:	33a00000 	movcc	r0, #0
   16874:	33a01000 	movcc	r1, #0
   16878:	3a000005 	bcc	16894 <__udivdi3+0x8c>
   1687c:	e3a08001 	mov	r8, #1
   16880:	e0544006 	subs	r4, r4, r6
   16884:	e1a01e18 	lsl	r1, r8, lr
   16888:	e1811c38 	orr	r1, r1, r8, lsr ip
   1688c:	e0c55007 	sbc	r5, r5, r7
   16890:	e1a00318 	lsl	r0, r8, r3
   16894:	e3530000 	cmp	r3, #0
   16898:	08bd83f0 	popeq	{r4, r5, r6, r7, r8, r9, pc}
   1689c:	e1b070a7 	lsrs	r7, r7, #1
   168a0:	e1a06066 	rrx	r6, r6
   168a4:	ea000007 	b	168c8 <__udivdi3+0xc0>
   168a8:	e0544006 	subs	r4, r4, r6
   168ac:	e0c55007 	sbc	r5, r5, r7
   168b0:	e0944004 	adds	r4, r4, r4
   168b4:	e0a55005 	adc	r5, r5, r5
   168b8:	e2944001 	adds	r4, r4, #1
   168bc:	e2a55000 	adc	r5, r5, #0
   168c0:	e2533001 	subs	r3, r3, #1
   168c4:	0a000006 	beq	168e4 <__udivdi3+0xdc>
   168c8:	e1570005 	cmp	r7, r5
   168cc:	01560004 	cmpeq	r6, r4
   168d0:	9afffff4 	bls	168a8 <__udivdi3+0xa0>
   168d4:	e0944004 	adds	r4, r4, r4
   168d8:	e0a55005 	adc	r5, r5, r5
   168dc:	e2533001 	subs	r3, r3, #1
   168e0:	1afffff8 	bne	168c8 <__udivdi3+0xc0>
   168e4:	e0948000 	adds	r8, r4, r0
   168e8:	e0a59001 	adc	r9, r5, r1
   168ec:	e1a03234 	lsr	r3, r4, r2
   168f0:	e2621020 	rsb	r1, r2, #32
   168f4:	e2420020 	sub	r0, r2, #32
   168f8:	e1833115 	orr	r3, r3, r5, lsl r1
   168fc:	e1a0c235 	lsr	ip, r5, r2
   16900:	e1833035 	orr	r3, r3, r5, lsr r0
   16904:	e1a0721c 	lsl	r7, ip, r2
   16908:	e1877013 	orr	r7, r7, r3, lsl r0
   1690c:	e1a06213 	lsl	r6, r3, r2
   16910:	e1877133 	orr	r7, r7, r3, lsr r1
   16914:	e0580006 	subs	r0, r8, r6
   16918:	e0c91007 	sbc	r1, r9, r7
   1691c:	e8bd83f0 	pop	{r4, r5, r6, r7, r8, r9, pc}
   16920:	e3a00000 	mov	r0, #0
   16924:	e3a01000 	mov	r1, #0
   16928:	e8bd83f0 	pop	{r4, r5, r6, r7, r8, r9, pc}

Disassembly of section .rodata:

00016930 <DEVICE_MANUFACTURER_NAME>:
   16930:	00567641 	subseq	r7, r6, r1, asr #12

00016934 <DEVICE_MANUFACTURER_ID>:
   16934:	00007ff0 	strdeq	r7, [r0], -r0

00016938 <DEVICE_SUPPORTED_LANGUAGE>:
   16938:	00006e65 	andeq	r6, r0, r5, ror #28

0001693c <DEVICE_SOFTWARE_VERSION>:
   1693c:	00302e31 	eorseq	r2, r0, r1, lsr lr

00016940 <DEVICE_LABEL>:
   16940:	70736152 	rsbsvc	r6, r3, r2, asr r1
   16944:	72726562 	rsbsvc	r6, r2, #411041792	; 0x18800000
   16948:	69502079 	ldmdbvs	r0, {r0, r3, r4, r5, r6, sp}^
   1694c:	00000000 	andeq	r0, r0, r0

00016950 <UID_ALL>:
   16950:	ffffffff 			; <UNDEFINED> instruction: 0xffffffff
   16954:	0000ffff 	strdeq	pc, [r0], -pc	; <UNPREDICTABLE>

00016958 <PID_DEFINITIONS>:
   16958:	00000050 	andeq	r0, r0, r0, asr r0
   1695c:	00009c94 	muleq	r0, r4, ip
	...
   16968:	00000060 	andeq	r0, r0, r0, rrx
   1696c:	0000a99c 	muleq	r0, ip, r9
	...
   16978:	00000080 	andeq	r0, r0, r0, lsl #1
   1697c:	0000a870 	andeq	sl, r0, r0, ror r8
   16980:	00000000 	andeq	r0, r0, r0
   16984:	00000100 	andeq	r0, r0, r0, lsl #2
   16988:	00000081 	andeq	r0, r0, r1, lsl #1
   1698c:	0000a744 	andeq	sl, r0, r4, asr #14
   16990:	00000000 	andeq	r0, r0, r0
   16994:	00000100 	andeq	r0, r0, r0, lsl #2
   16998:	00000082 	andeq	r0, r0, r2, lsl #1
   1699c:	0000a610 	andeq	sl, r0, r0, lsl r6
   169a0:	0000a5b4 			; <UNDEFINED> instruction: 0x0000a5b4
   169a4:	00000100 	andeq	r0, r0, r0, lsl #2
   169a8:	00000090 	muleq	r0, r0, r0
   169ac:	0000a564 	andeq	sl, r0, r4, ror #10
   169b0:	0000ac28 	andeq	sl, r0, r8, lsr #24
   169b4:	00000100 	andeq	r0, r0, r0, lsl #2
   169b8:	000000a0 	andeq	r0, r0, r0, lsr #1
   169bc:	0000a438 	andeq	sl, r0, r8, lsr r4
   169c0:	00000000 	andeq	r0, r0, r0
   169c4:	00000100 	andeq	r0, r0, r0, lsl #2
   169c8:	000000b0 	strheq	r0, [r0], -r0	; <UNPREDICTABLE>
   169cc:	0000a438 	andeq	sl, r0, r8, lsr r4
   169d0:	0000abac 	andeq	sl, r0, ip, lsr #23
   169d4:	00000100 	andeq	r0, r0, r0, lsl #2
   169d8:	000000c0 	andeq	r0, r0, r0, asr #1
   169dc:	0000a30c 	andeq	sl, r0, ip, lsl #6
	...
   169e8:	000000c1 	andeq	r0, r0, r1, asr #1
   169ec:	0000a2a4 	andeq	sl, r0, r4, lsr #5
   169f0:	00000000 	andeq	r0, r0, r0
   169f4:	00000100 	andeq	r0, r0, r0, lsl #2
   169f8:	000000c2 	andeq	r0, r0, r2, asr #1
   169fc:	0000aa64 	andeq	sl, r0, r4, ror #20
   16a00:	00000000 	andeq	r0, r0, r0
   16a04:	00000100 	andeq	r0, r0, r0, lsl #2
   16a08:	000000e0 	andeq	r0, r0, r0, ror #1
   16a0c:	0000a258 	andeq	sl, r0, r8, asr r2
   16a10:	0000a9d8 	ldrdeq	sl, [r0], -r8
   16a14:	00000100 	andeq	r0, r0, r0, lsl #2
   16a18:	000000e1 	andeq	r0, r0, r1, ror #1
   16a1c:	0000a074 	andeq	sl, r0, r4, ror r0
   16a20:	00000000 	andeq	r0, r0, r0
   16a24:	00000101 	andeq	r0, r0, r1, lsl #2
   16a28:	000000f0 	strdeq	r0, [r0], -r0	; <UNPREDICTABLE>
   16a2c:	0000a038 	andeq	sl, r0, r8, lsr r0
   16a30:	00009fb8 			; <UNDEFINED> instruction: 0x00009fb8
   16a34:	00000000 	andeq	r0, r0, r0
   16a38:	00000400 	andeq	r0, r0, r0, lsl #8
   16a3c:	00009f60 	andeq	r9, r0, r0, ror #30
   16a40:	00009c70 	andeq	r9, r0, r0, ror ip
   16a44:	00000100 	andeq	r0, r0, r0, lsl #2
   16a48:	00000603 	andeq	r0, r0, r3, lsl #12
   16a4c:	00009ec8 	andeq	r9, r0, r8, asr #29
   16a50:	00009e38 	andeq	r9, r0, r8, lsr lr
   16a54:	00000100 	andeq	r0, r0, r0, lsl #2
   16a58:	00001000 	andeq	r1, r0, r0
   16a5c:	00009e04 	andeq	r9, r0, r4, lsl #28
   16a60:	00009d84 	andeq	r9, r0, r4, lsl #27
   16a64:	00000000 	andeq	r0, r0, r0
   16a68:	00001001 	andeq	r1, r0, r1
   16a6c:	00000000 	andeq	r0, r0, r0
   16a70:	00009d58 	andeq	r9, r0, r8, asr sp
   16a74:	00000100 	andeq	r0, r0, r0, lsl #2

00016a78 <PID_DEFINITIONS_SUB_DEVICES>:
   16a78:	00000050 	andeq	r0, r0, r0, asr r0
   16a7c:	00009c94 	muleq	r0, r4, ip
   16a80:	00000000 	andeq	r0, r0, r0
   16a84:	00000100 	andeq	r0, r0, r0, lsl #2
   16a88:	00000060 	andeq	r0, r0, r0, rrx
   16a8c:	0000a99c 	muleq	r0, ip, r9
   16a90:	00000000 	andeq	r0, r0, r0
   16a94:	00000100 	andeq	r0, r0, r0, lsl #2
   16a98:	000000c0 	andeq	r0, r0, r0, asr #1
   16a9c:	0000a30c 	andeq	sl, r0, ip, lsl #6
   16aa0:	00000000 	andeq	r0, r0, r0
   16aa4:	00000100 	andeq	r0, r0, r0, lsl #2
   16aa8:	000000e0 	andeq	r0, r0, r0, ror #1
   16aac:	0000a258 	andeq	sl, r0, r8, asr r2
   16ab0:	0000a9d8 	ldrdeq	sl, [r0], -r8
   16ab4:	00000100 	andeq	r0, r0, r0, lsl #2
   16ab8:	000000e1 	andeq	r0, r0, r1, ror #1
   16abc:	0000a074 	andeq	sl, r0, r4, ror r0
   16ac0:	00000000 	andeq	r0, r0, r0
   16ac4:	00000101 	andeq	r0, r0, r1, lsl #2
   16ac8:	000000f0 	strdeq	r0, [r0], -r0	; <UNPREDICTABLE>
   16acc:	0000a038 	andeq	sl, r0, r8, lsr r0
   16ad0:	00009fb8 			; <UNDEFINED> instruction: 0x00009fb8
   16ad4:	00000100 	andeq	r0, r0, r0, lsl #2
   16ad8:	00001000 	andeq	r1, r0, r0
   16adc:	00009e04 	andeq	r9, r0, r4, lsl #28
   16ae0:	00009d84 	andeq	r9, r0, r4, lsl #27
   16ae4:	00000100 	andeq	r0, r0, r0, lsl #2

00016ae8 <rdm_sub_device_34>:
   16ae8:	00000008 	andeq	r0, r0, r8
   16aec:	000170b8 	strheq	r7, [r1], -r8

00016af0 <rdm_sub_device_2>:
   16af0:	00000002 	andeq	r0, r0, r2
   16af4:	000170d0 	ldrdeq	r7, [r1], -r0

00016af8 <rdm_sub_device_1>:
   16af8:	00000007 	andeq	r0, r0, r7
   16afc:	000170dc 	ldrdeq	r7, [r1], -ip

00016b00 <events>:
   16b00:	0007a120 	andeq	sl, r7, r0, lsr #2
   16b04:	00000000 	andeq	r0, r0, r0
   16b08:	0000adfc 	strdeq	sl, [r0], -ip
   16b0c:	00000000 	andeq	r0, r0, r0
   16b10:	000f4240 	andeq	r4, pc, r0, asr #4
   16b14:	00000000 	andeq	r0, r0, r0
   16b18:	00009294 	muleq	r0, r4, r2
   16b1c:	00000000 	andeq	r0, r0, r0

00016b20 <poll_table>:
   16b20:	000098b0 			; <UNDEFINED> instruction: 0x000098b0
   16b24:	00000000 	andeq	r0, r0, r0

00016b28 <FIRMWARE_COPYRIGHT>:
   16b28:	79706f43 	ldmdbvc	r0!, {r0, r1, r6, r8, r9, sl, fp, sp, lr}^
   16b2c:	68676972 	stmdavs	r7!, {r1, r4, r5, r6, r8, fp, sp, lr}^
   16b30:	63282074 	teqvs	r8, #116	; 0x74
   16b34:	30322029 	eorscc	r2, r2, r9, lsr #32
   16b38:	42203231 	eormi	r3, r0, #268435459	; 0x10000003
   16b3c:	64616f72 	strbtvs	r6, [r1], #-3954	; 0xfffff08e
   16b40:	006d6f63 	rsbeq	r6, sp, r3, ror #30

00016b44 <board_version>:
   16b44:	00000000 	andeq	r0, r0, r0
   16b48:	65646f4d 	strbvs	r6, [r4, #-3917]!	; 0xfffff0b3
   16b4c:	6e55206c 	cdpvs	0, 5, cr2, cr5, cr12, {3}
   16b50:	776f6e6b 	strbvc	r6, [pc, -fp, ror #28]!
   16b54:	2020206e 	eorcs	r2, r0, lr, rrx
   16b58:	20202020 	eorcs	r2, r0, r0, lsr #32
   16b5c:	00000002 	andeq	r0, r0, r2
   16b60:	65646f4d 	strbvs	r6, [r4, #-3917]!	; 0xfffff0b3
   16b64:	2042206c 	subcs	r2, r2, ip, rrx
   16b68:	32203152 	eorcc	r3, r0, #-2147483628	; 0x80000014
   16b6c:	424d3635 	submi	r3, sp, #55574528	; 0x3500000
   16b70:	20202020 	eorcs	r2, r0, r0, lsr #32
   16b74:	00000003 	andeq	r0, r0, r3
   16b78:	65646f4d 	strbvs	r6, [r4, #-3917]!	; 0xfffff0b3
   16b7c:	2042206c 	subcs	r2, r2, ip, rrx
   16b80:	32203152 	eorcc	r3, r0, #-2147483628	; 0x80000014
   16b84:	424d3635 	submi	r3, sp, #55574528	; 0x3500000
   16b88:	20202020 	eorcs	r2, r0, r0, lsr #32
   16b8c:	00000004 	andeq	r0, r0, r4
   16b90:	65646f4d 	strbvs	r6, [r4, #-3917]!	; 0xfffff0b3
   16b94:	2042206c 	subcs	r2, r2, ip, rrx
   16b98:	32203252 	eorcc	r3, r0, #536870917	; 0x20000005
   16b9c:	424d3635 	submi	r3, sp, #55574528	; 0x3500000
   16ba0:	20202020 	eorcs	r2, r0, r0, lsr #32
   16ba4:	00000005 	andeq	r0, r0, r5
   16ba8:	65646f4d 	strbvs	r6, [r4, #-3917]!	; 0xfffff0b3
   16bac:	2042206c 	subcs	r2, r2, ip, rrx
   16bb0:	32203252 	eorcc	r3, r0, #536870917	; 0x20000005
   16bb4:	424d3635 	submi	r3, sp, #55574528	; 0x3500000
   16bb8:	20202020 	eorcs	r2, r0, r0, lsr #32
   16bbc:	00000006 	andeq	r0, r0, r6
   16bc0:	65646f4d 	strbvs	r6, [r4, #-3917]!	; 0xfffff0b3
   16bc4:	2042206c 	subcs	r2, r2, ip, rrx
   16bc8:	32203252 	eorcc	r3, r0, #536870917	; 0x20000005
   16bcc:	424d3635 	submi	r3, sp, #55574528	; 0x3500000
   16bd0:	20202020 	eorcs	r2, r0, r0, lsr #32
   16bd4:	00000007 	andeq	r0, r0, r7
   16bd8:	65646f4d 	strbvs	r6, [r4, #-3917]!	; 0xfffff0b3
   16bdc:	2041206c 	subcs	r2, r1, ip, rrx
   16be0:	4d363532 	cfldr32mi	mvfx3, [r6, #-200]!	; 0xffffff38
   16be4:	20202042 	eorcs	r2, r0, r2, asr #32
   16be8:	20202020 	eorcs	r2, r0, r0, lsr #32
   16bec:	00000008 	andeq	r0, r0, r8
   16bf0:	65646f4d 	strbvs	r6, [r4, #-3917]!	; 0xfffff0b3
   16bf4:	2041206c 	subcs	r2, r1, ip, rrx
   16bf8:	4d363532 	cfldr32mi	mvfx3, [r6, #-200]!	; 0xffffff38
   16bfc:	20202042 	eorcs	r2, r0, r2, asr #32
   16c00:	20202020 	eorcs	r2, r0, r0, lsr #32
   16c04:	00000009 	andeq	r0, r0, r9
   16c08:	65646f4d 	strbvs	r6, [r4, #-3917]!	; 0xfffff0b3
   16c0c:	2041206c 	subcs	r2, r1, ip, rrx
   16c10:	4d363532 	cfldr32mi	mvfx3, [r6, #-200]!	; 0xffffff38
   16c14:	20202042 	eorcs	r2, r0, r2, asr #32
   16c18:	20202020 	eorcs	r2, r0, r0, lsr #32
   16c1c:	0000000d 	andeq	r0, r0, sp
   16c20:	65646f4d 	strbvs	r6, [r4, #-3917]!	; 0xfffff0b3
   16c24:	2042206c 	subcs	r2, r2, ip, rrx
   16c28:	35203252 	strcc	r3, [r0, #-594]!	; 0xfffffdae
   16c2c:	424d3231 	submi	r3, sp, #268435459	; 0x10000003
   16c30:	20202020 	eorcs	r2, r0, r0, lsr #32
   16c34:	0000000e 	andeq	r0, r0, lr
   16c38:	65646f4d 	strbvs	r6, [r4, #-3917]!	; 0xfffff0b3
   16c3c:	2042206c 	subcs	r2, r2, ip, rrx
   16c40:	35203252 	strcc	r3, [r0, #-594]!	; 0xfffffdae
   16c44:	424d3231 	submi	r3, sp, #268435459	; 0x10000003
   16c48:	20202020 	eorcs	r2, r0, r0, lsr #32
   16c4c:	0000000f 	andeq	r0, r0, pc
   16c50:	65646f4d 	strbvs	r6, [r4, #-3917]!	; 0xfffff0b3
   16c54:	2042206c 	subcs	r2, r2, ip, rrx
   16c58:	35203252 	strcc	r3, [r0, #-594]!	; 0xfffffdae
   16c5c:	424d3231 	submi	r3, sp, #268435459	; 0x10000003
   16c60:	20202020 	eorcs	r2, r0, r0, lsr #32
   16c64:	00000010 	andeq	r0, r0, r0, lsl r0
   16c68:	65646f4d 	strbvs	r6, [r4, #-3917]!	; 0xfffff0b3
   16c6c:	2b42206c 	blcs	109ee24 <heap_low+0x108308c>
   16c70:	32313520 	eorscc	r3, r1, #32, 10	; 0x8000000
   16c74:	2020424d 	eorcs	r4, r0, sp, asr #4
   16c78:	20202020 	eorcs	r2, r0, r0, lsr #32
   16c7c:	00000011 	andeq	r0, r0, r1, lsl r0
   16c80:	706d6f43 	rsbvc	r6, sp, r3, asr #30
   16c84:	20657475 	rsbcs	r7, r5, r5, ror r4
   16c88:	75646f4d 	strbvc	r6, [r4, #-3917]!	; 0xfffff0b3
   16c8c:	3520656c 	strcc	r6, [r0, #-1388]!	; 0xfffffa94
   16c90:	424d3231 	submi	r3, sp, #268435459	; 0x10000003
   16c94:	00000012 	andeq	r0, r0, r2, lsl r0
   16c98:	65646f4d 	strbvs	r6, [r4, #-3917]!	; 0xfffff0b3
   16c9c:	2b41206c 	blcs	105ee54 <heap_low+0x10430bc>
   16ca0:	36353220 	ldrtcc	r3, [r5], -r0, lsr #4
   16ca4:	2020424d 	eorcs	r4, r0, sp, asr #4
   16ca8:	20202020 	eorcs	r2, r0, r0, lsr #32
   16cac:	00a01041 	adceq	r1, r0, r1, asr #32
   16cb0:	32206950 	eorcc	r6, r0, #80, 18	; 0x140000
   16cb4:	646f4d20 	strbtvs	r4, [pc], #-3360	; 16cbc <board_version+0x178>
   16cb8:	42206c65 	eormi	r6, r0, #25856	; 0x6500
   16cbc:	42473120 	submi	r3, r7, #32, 2
   16cc0:	20202020 	eorcs	r2, r0, r0, lsr #32

00016cc4 <_global_impure_ptr>:
   16cc4:	00017950 	andeq	r7, r1, r0, asr r9

00016cc8 <DAYS_IN_MONTH>:
   16cc8:	0000001f 	andeq	r0, r0, pc, lsl r0
   16ccc:	0000001c 	andeq	r0, r0, ip, lsl r0
   16cd0:	0000001f 	andeq	r0, r0, pc, lsl r0
   16cd4:	0000001e 	andeq	r0, r0, lr, lsl r0
   16cd8:	0000001f 	andeq	r0, r0, pc, lsl r0
   16cdc:	0000001e 	andeq	r0, r0, lr, lsl r0
   16ce0:	0000001f 	andeq	r0, r0, pc, lsl r0
   16ce4:	0000001f 	andeq	r0, r0, pc, lsl r0
   16ce8:	0000001e 	andeq	r0, r0, lr, lsl r0
   16cec:	0000001f 	andeq	r0, r0, pc, lsl r0
   16cf0:	0000001e 	andeq	r0, r0, lr, lsl r0
   16cf4:	0000001f 	andeq	r0, r0, pc, lsl r0

00016cf8 <_DAYS_BEFORE_MONTH>:
   16cf8:	00000000 	andeq	r0, r0, r0
   16cfc:	0000001f 	andeq	r0, r0, pc, lsl r0
   16d00:	0000003b 	andeq	r0, r0, fp, lsr r0
   16d04:	0000005a 	andeq	r0, r0, sl, asr r0
   16d08:	00000078 	andeq	r0, r0, r8, ror r0
   16d0c:	00000097 	muleq	r0, r7, r0
   16d10:	000000b5 	strheq	r0, [r0], -r5
   16d14:	000000d4 	ldrdeq	r0, [r0], -r4
   16d18:	000000f3 	strdeq	r0, [r0], -r3
   16d1c:	00000111 	andeq	r0, r0, r1, lsl r1
   16d20:	00000130 	andeq	r0, r0, r0, lsr r1
   16d24:	0000014e 	andeq	r0, r0, lr, asr #2

00016d28 <__month_lengths>:
   16d28:	0000001f 	andeq	r0, r0, pc, lsl r0
   16d2c:	0000001c 	andeq	r0, r0, ip, lsl r0
   16d30:	0000001f 	andeq	r0, r0, pc, lsl r0
   16d34:	0000001e 	andeq	r0, r0, lr, lsl r0
   16d38:	0000001f 	andeq	r0, r0, pc, lsl r0
   16d3c:	0000001e 	andeq	r0, r0, lr, lsl r0
   16d40:	0000001f 	andeq	r0, r0, pc, lsl r0
   16d44:	0000001f 	andeq	r0, r0, pc, lsl r0
   16d48:	0000001e 	andeq	r0, r0, lr, lsl r0
   16d4c:	0000001f 	andeq	r0, r0, pc, lsl r0
   16d50:	0000001e 	andeq	r0, r0, lr, lsl r0
   16d54:	0000001f 	andeq	r0, r0, pc, lsl r0
   16d58:	0000001f 	andeq	r0, r0, pc, lsl r0
   16d5c:	0000001d 	andeq	r0, r0, sp, lsl r0
   16d60:	0000001f 	andeq	r0, r0, pc, lsl r0
   16d64:	0000001e 	andeq	r0, r0, lr, lsl r0
   16d68:	0000001f 	andeq	r0, r0, pc, lsl r0
   16d6c:	0000001e 	andeq	r0, r0, lr, lsl r0
   16d70:	0000001f 	andeq	r0, r0, pc, lsl r0
   16d74:	0000001f 	andeq	r0, r0, pc, lsl r0
   16d78:	0000001e 	andeq	r0, r0, lr, lsl r0
   16d7c:	0000001f 	andeq	r0, r0, pc, lsl r0
   16d80:	0000001e 	andeq	r0, r0, lr, lsl r0
   16d84:	0000001f 	andeq	r0, r0, pc, lsl r0

00016d88 <blanks.6926>:
   16d88:	20202020 	eorcs	r2, r0, r0, lsr #32
   16d8c:	20202020 	eorcs	r2, r0, r0, lsr #32
   16d90:	20202020 	eorcs	r2, r0, r0, lsr #32
   16d94:	20202020 	eorcs	r2, r0, r0, lsr #32

00016d98 <zeroes.6927>:
   16d98:	30303030 	eorscc	r3, r0, r0, lsr r0
   16d9c:	30303030 	eorscc	r3, r0, r0, lsr r0
   16da0:	30303030 	eorscc	r3, r0, r0, lsr r0
   16da4:	30303030 	eorscc	r3, r0, r0, lsr r0

00016da8 <p05.5294>:
   16da8:	00000005 	andeq	r0, r0, r5
   16dac:	00000019 	andeq	r0, r0, r9, lsl r0
   16db0:	0000007d 	andeq	r0, r0, sp, ror r0
   16db4:	00000000 	andeq	r0, r0, r0

00016db8 <__mprec_tens>:
   16db8:	00000000 	andeq	r0, r0, r0
   16dbc:	3ff00000 	svccc	0x00f00000	; IMB
   16dc0:	00000000 	andeq	r0, r0, r0
   16dc4:	40240000 	eormi	r0, r4, r0
   16dc8:	00000000 	andeq	r0, r0, r0
   16dcc:	40590000 	subsmi	r0, r9, r0
   16dd0:	00000000 	andeq	r0, r0, r0
   16dd4:	408f4000 	addmi	r4, pc, r0
   16dd8:	00000000 	andeq	r0, r0, r0
   16ddc:	40c38800 	sbcmi	r8, r3, r0, lsl #16
   16de0:	00000000 	andeq	r0, r0, r0
   16de4:	40f86a00 	rscsmi	r6, r8, r0, lsl #20
   16de8:	00000000 	andeq	r0, r0, r0
   16dec:	412e8480 	smlawbmi	lr, r0, r4, r8
   16df0:	00000000 	andeq	r0, r0, r0
   16df4:	416312d0 	ldrdmi	r1, [r3, #-32]!	; 0xffffffe0
   16df8:	00000000 	andeq	r0, r0, r0
   16dfc:	4197d784 	orrsmi	sp, r7, r4, lsl #15
   16e00:	00000000 	andeq	r0, r0, r0
   16e04:	41cdcd65 	bicmi	ip, sp, r5, ror #26
   16e08:	20000000 	andcs	r0, r0, r0
   16e0c:	4202a05f 	andmi	sl, r2, #95	; 0x5f
   16e10:	e8000000 	stmda	r0, {}	; <UNPREDICTABLE>
   16e14:	42374876 	eorsmi	r4, r7, #7733248	; 0x760000
   16e18:	a2000000 	andge	r0, r0, #0
   16e1c:	426d1a94 	rsbmi	r1, sp, #148, 20	; 0x94000
   16e20:	e5400000 	strb	r0, [r0, #-0]
   16e24:	42a2309c 	adcmi	r3, r2, #156	; 0x9c
   16e28:	1e900000 	cdpne	0, 9, cr0, cr0, cr0, {0}
   16e2c:	42d6bcc4 	sbcsmi	fp, r6, #196, 24	; 0xc400
   16e30:	26340000 	ldrtcs	r0, [r4], -r0
   16e34:	430c6bf5 	movwmi	r6, #52213	; 0xcbf5
   16e38:	37e08000 	strbcc	r8, [r0, r0]!
   16e3c:	4341c379 	movtmi	ip, #4985	; 0x1379
   16e40:	85d8a000 	ldrbhi	sl, [r8]
   16e44:	43763457 	cmnmi	r6, #1459617792	; 0x57000000
   16e48:	674ec800 	strbvs	ip, [lr, -r0, lsl #16]
   16e4c:	43abc16d 			; <UNDEFINED> instruction: 0x43abc16d
   16e50:	60913d00 	addsvs	r3, r1, r0, lsl #26
   16e54:	43e158e4 	mvnmi	r5, #228, 16	; 0xe40000
   16e58:	78b58c40 	ldmvc	r5!, {r6, sl, fp, pc}
   16e5c:	4415af1d 	ldrmi	sl, [r5], #-3869	; 0xfffff0e3
   16e60:	d6e2ef50 	usatle	lr, #2, r0, asr #30
   16e64:	444b1ae4 	strbmi	r1, [fp], #-2788	; 0xfffff51c
   16e68:	064dd592 			; <UNDEFINED> instruction: 0x064dd592
   16e6c:	4480f0cf 	strmi	pc, [r0], #207	; 0xcf
   16e70:	c7e14af6 			; <UNDEFINED> instruction: 0xc7e14af6
   16e74:	44b52d02 	ldrtmi	r2, [r5], #3330	; 0xd02
   16e78:	79d99db4 	ldmibvc	r9, {r2, r4, r5, r7, r8, sl, fp, ip, pc}^
   16e7c:	44ea7843 	strbtmi	r7, [sl], #2115	; 0x843

00016e80 <__mprec_tinytens>:
   16e80:	97d889bc 			; <UNDEFINED> instruction: 0x97d889bc
   16e84:	3c9cd2b2 	lfmcc	f5, 1, [ip], {178}	; 0xb2
   16e88:	d5a8a733 	strle	sl, [r8, #1843]!	; 0x733
   16e8c:	3949f623 	stmdbcc	r9, {r0, r1, r5, r9, sl, ip, sp, lr, pc}^
   16e90:	44f4a73d 	ldrbtmi	sl, [r4], #1853	; 0x73d
   16e94:	32a50ffd 	adccc	r0, r5, #1012	; 0x3f4
   16e98:	cf8c979d 	svcgt	0x008c979d
   16e9c:	255bba08 	ldrbcs	fp, [fp, #-2568]	; 0xfffff5f8
   16ea0:	64ac6f43 	strtvs	r6, [ip], #3907	; 0xf43
   16ea4:	0ac80628 	beq	ff21874c <__ram_end+0xf721874c>

00016ea8 <__mprec_bigtens>:
   16ea8:	37e08000 	strbcc	r8, [r0, r0]!
   16eac:	4341c379 	movtmi	ip, #4985	; 0x1379
   16eb0:	b5056e17 	strlt	r6, [r5, #-3607]	; 0xfffff1e9
   16eb4:	4693b8b5 			; <UNDEFINED> instruction: 0x4693b8b5
   16eb8:	e93ff9f5 	ldmdb	pc!, {r0, r2, r4, r5, r6, r7, r8, fp, ip, sp, lr, pc}	; <UNPREDICTABLE>
   16ebc:	4d384f03 	ldcmi	15, cr4, [r8, #-12]!
   16ec0:	f9301d32 			; <UNDEFINED> instruction: 0xf9301d32
   16ec4:	5a827748 	bpl	fe0b4bec <__ram_end+0xf60b4bec>
   16ec8:	7f73bf3c 	svcvc	0x0073bf3c
   16ecc:	75154fdd 	ldrvc	r4, [r5, #-4061]	; 0xfffff023

00016ed0 <blanks.6869>:
   16ed0:	20202020 	eorcs	r2, r0, r0, lsr #32
   16ed4:	20202020 	eorcs	r2, r0, r0, lsr #32
   16ed8:	20202020 	eorcs	r2, r0, r0, lsr #32
   16edc:	20202020 	eorcs	r2, r0, r0, lsr #32

00016ee0 <zeroes.6870>:
   16ee0:	30303030 	eorscc	r3, r0, r0, lsr r0
   16ee4:	30303030 	eorscc	r3, r0, r0, lsr r0
   16ee8:	30303030 	eorscc	r3, r0, r0, lsr r0
   16eec:	30303030 	eorscc	r3, r0, r0, lsr r0
   16ef0:	204d4452 	subcs	r4, sp, r2, asr r4
   16ef4:	6b636150 	blvs	18ef43c <heap_low+0x18d36a4>
   16ef8:	6c207465 	cfstrsvs	mvf7, [r0], #-404	; 0xfffffe6c
   16efc:	74676e65 	strbtvc	r6, [r7], #-3685	; 0xfffff19b
   16f00:	203a2068 	eorscs	r2, sl, r8, rrx
   16f04:	000a6425 	andeq	r6, sl, r5, lsr #8
   16f08:	64322e25 	ldrtvs	r2, [r2], #-3621	; 0xfffff1db
   16f0c:	342e252d 	strtcc	r2, [lr], #-1325	; 0xfffffad3
   16f10:	2e253a64 	vnmulcs.f32	s6, s10, s9
   16f14:	20205832 	eorcs	r5, r0, r2, lsr r8
   16f18:	64322e25 	ldrtvs	r2, [r2], #-3621	; 0xfffff1db
   16f1c:	342e252d 	strtcc	r2, [lr], #-1325	; 0xfffffad3
   16f20:	2e253a64 	vnmulcs.f32	s6, s10, s9
   16f24:	25205832 	strcs	r5, [r0, #-2098]!	; 0xfffff7ce
   16f28:	2d64322e 	sfmcs	f3, 2, [r4, #-184]!	; 0xffffff48
   16f2c:	64342e25 	ldrtvs	r2, [r4], #-3621	; 0xfffff1db
   16f30:	322e253a 	eorcc	r2, lr, #243269632	; 0xe800000
   16f34:	25202058 	strcs	r2, [r0, #-88]!	; 0xffffffa8
   16f38:	2d64322e 	sfmcs	f3, 2, [r4, #-184]!	; 0xffffff48
   16f3c:	64342e25 	ldrtvs	r2, [r4], #-3621	; 0xfffff1db
   16f40:	322e253a 	eorcc	r2, lr, #243269632	; 0xe800000
   16f44:	00000a58 	andeq	r0, r0, r8, asr sl
   16f48:	204d4452 	subcs	r4, sp, r2, asr r4
   16f4c:	70736552 	rsbsvc	r6, r3, r2, asr r5
   16f50:	65646e6f 	strbvs	r6, [r4, #-3695]!	; 0xfffff191
   16f54:	202f2072 	eorcs	r2, pc, r2, ror r0	; <UNPREDICTABLE>
   16f58:	20584d44 	subscs	r4, r8, r4, asr #26
   16f5c:	6c616e41 	stclvs	14, cr6, [r1], #-260	; 0xfffffefc
   16f60:	72657a79 	rsbvc	r7, r5, #495616	; 0x79000
   16f64:	00000000 	andeq	r0, r0, r0
   16f68:	75706e49 	ldrbvc	r6, [r0, #-3657]!	; 0xfffff1b7
   16f6c:	00000074 	andeq	r0, r0, r4, ror r0
   16f70:	7074754f 	rsbsvc	r7, r4, pc, asr #10
   16f74:	00007475 	andeq	r7, r0, r5, ror r4
   16f78:	6574754d 	ldrbvs	r7, [r4, #-1357]!	; 0xfffffab3
   16f7c:	00000064 	andeq	r0, r0, r4, rrx
   16f80:	756d6e55 	strbvc	r6, [sp, #-3669]!	; 0xfffff1ab
   16f84:	00006574 	andeq	r6, r0, r4, ror r5
   16f88:	64322e25 	ldrtvs	r2, [r2], #-3621	; 0xfffff1db
   16f8c:	322e253a 	eorcc	r2, lr, #243269632	; 0xe800000
   16f90:	2e253a64 	vnmulcs.f32	s6, s10, s9
   16f94:	75206432 	strvc	r6, [r0, #-1074]!	; 0xfffffbce
   16f98:	6d697470 	cfstrdvs	mvd7, [r9, #-448]!	; 0xfffffe40
   16f9c:	203a2065 	eorscs	r2, sl, r5, rrx
   16fa0:	20646c25 	rsbcs	r6, r4, r5, lsr #24
   16fa4:	73796164 	cmnvc	r9, #100, 2
   16fa8:	6c25202c 	stcvs	0, cr2, [r5], #-176	; 0xffffff50
   16fac:	30253a64 	eorcc	r3, r5, r4, ror #20
   16fb0:	3a646c32 	bcc	1932080 <heap_low+0x19162e8>
   16fb4:	6c323025 	ldcvs	0, cr3, [r2], #-148	; 0xffffff6c
   16fb8:	000a0a64 	andeq	r0, sl, r4, ror #20
   16fbc:	0a0a7325 	beq	2b3c58 <heap_low+0x297ec0>
   16fc0:	00000000 	andeq	r0, r0, r0
   16fc4:	64332e25 	ldrtvs	r2, [r3], #-3621	; 0xfffff1db
   16fc8:	332e252d 	teqcc	lr, #188743680	; 0xb400000
   16fcc:	203a2064 	eorscs	r2, sl, r4, rrx
   16fd0:	00000000 	andeq	r0, r0, r0
   16fd4:	332e250a 	teqcc	lr, #41943040	; 0x2800000
   16fd8:	2e252d64 	cdpcs	13, 2, cr2, cr5, cr4, {3}
   16fdc:	3a206433 	bcc	8300b0 <heap_low+0x814318>
   16fe0:	00000020 	andeq	r0, r0, r0, lsr #32
   16fe4:	61500a0a 	cmpvs	r0, sl, lsl #20
   16fe8:	74656b63 	strbtvc	r6, [r5], #-2915	; 0xfffff49d
   16fec:	203a2073 	eorscs	r2, sl, r3, ror r0
   16ff0:	20584d44 	subscs	r4, r8, r4, asr #26
   16ff4:	2c646c25 	stclcs	12, cr6, [r4], #-148	; 0xffffff6c
   16ff8:	4d445220 	sfmmi	f5, 2, [r4, #-128]	; 0xffffff80
   16ffc:	646c2520 	strbtvs	r2, [ip], #-1312	; 0xfffffae0
   17000:	0000000a 	andeq	r0, r0, sl
   17004:	5d73255b 	cfldr64pl	mvdx2, [r3, #-364]!	; 0xfffffe94
   17008:	000a0a20 	andeq	r0, sl, r0, lsr #20
   1700c:	64322e25 	ldrtvs	r2, [r2], #-3621	; 0xfffff1db
   17010:	342e252d 	strtcc	r2, [lr], #-1325	; 0xfffffad3
   17014:	2e253a64 	vnmulcs.f32	s6, s10, s9
   17018:	25205832 	strcs	r5, [r0, #-2098]!	; 0xfffff7ce
   1701c:	2d64322e 	sfmcs	f3, 2, [r4, #-184]!	; 0xffffff48
   17020:	64342e25 	ldrtvs	r2, [r4], #-3621	; 0xfffff1db
   17024:	322e253a 	eorcc	r2, lr, #243269632	; 0xe800000
   17028:	2e252058 	mcrcs	0, 1, r2, cr5, cr8, {2}
   1702c:	252d6432 	strcs	r6, [sp, #-1074]!	; 0xfffffbce
   17030:	3a64342e 	bcc	19240f0 <heap_low+0x1908358>
   17034:	58322e25 	ldmdapl	r2!, {r0, r2, r5, r9, sl, fp, sp}
   17038:	322e2520 	eorcc	r2, lr, #32, 10	; 0x8000000
   1703c:	2e252d64 	cdpcs	13, 2, cr2, cr5, cr4, {3}
   17040:	253a6434 	ldrcs	r6, [sl, #-1076]!	; 0xfffffbcc
   17044:	0a58322e 	beq	1623904 <heap_low+0x1607b6c>
   17048:	00000000 	andeq	r0, r0, r0
   1704c:	6d6d6f63 	stclvs	15, cr6, [sp, #-396]!	; 0xfffffe74
   17050:	20646e61 	rsbcs	r6, r4, r1, ror #28
   17054:	73616c63 	cmnvc	r1, #25344	; 0x6300
   17058:	255b2073 	ldrbcs	r2, [fp, #-115]	; 0xffffff8d
   1705c:	5d58322e 	lfmpl	f3, 2, [r8, #-184]	; 0xffffff48
   17060:	2c64253a 	cfstr64cs	mvdx2, [r4], #-232	; 0xffffff18
   17064:	72617020 	rsbvc	r7, r1, #32
   17068:	695f6d61 	ldmdbvs	pc, {r0, r5, r6, r8, sl, fp, sp, lr}^	; <UNPREDICTABLE>
   1706c:	255b2064 	ldrbcs	r2, [fp, #-100]	; 0xffffff9c
   17070:	2578322e 	ldrbcs	r3, [r8, #-558]!	; 0xfffffdd2
   17074:	5d78322e 	lfmpl	f3, 2, [r8, #-184]!	; 0xffffff48
   17078:	0064253a 	rsbeq	r2, r4, sl, lsr r5
   1707c:	30323145 	eorscc	r3, r2, r5, asr #2
   17080:	5349445f 	movtpl	r4, #37983	; 0x945f
   17084:	4e555f43 	cdpmi	15, 5, cr5, cr5, cr3, {2}
   17088:	45555149 	ldrbmi	r5, [r5, #-329]	; 0xfffffeb7
   1708c:	4152425f 	cmpmi	r2, pc, asr r2
   17090:	0048434e 	subeq	r4, r8, lr, asr #6
   17094:	30323145 	eorscc	r3, r2, r5, asr #2
   17098:	5349445f 	movtpl	r4, #37983	; 0x945f
   1709c:	4e555f43 	cdpmi	15, 5, cr5, cr5, cr3, {2}
   170a0:	54554d5f 	ldrbpl	r4, [r5], #-3423	; 0xfffff2a1
   170a4:	00000045 	andeq	r0, r0, r5, asr #32
   170a8:	30323145 	eorscc	r3, r2, r5, asr #2
   170ac:	5349445f 	movtpl	r4, #37983	; 0x945f
   170b0:	554d5f43 	strbpl	r5, [sp, #-3907]	; 0xfffff0bd
   170b4:	00004554 	andeq	r4, r0, r4, asr r5
   170b8:	69676944 	stmdbvs	r7!, {r2, r6, r8, fp, sp, lr}^
   170bc:	206c6174 	rsbcs	r6, ip, r4, ror r1
   170c0:	7074756f 	rsbsvc	r7, r4, pc, ror #10
   170c4:	38207475 	stmdacc	r0!, {r0, r2, r4, r5, r6, sl, ip, sp, lr}
   170c8:	6e696c2d 	cdpvs	12, 6, cr6, cr9, cr13, {1}
   170cc:	00007365 	andeq	r7, r0, r5, ror #6
   170d0:	65522032 	ldrbvs	r2, [r2, #-50]	; 0xffffffce
   170d4:	7379616c 	cmnvc	r9, #108, 2
   170d8:	00000000 	andeq	r0, r0, r0
   170dc:	69676944 	stmdbvs	r7!, {r2, r6, r8, fp, sp, lr}^
   170e0:	206c6174 	rsbcs	r6, ip, r4, ror r1
   170e4:	7074756f 	rsbsvc	r7, r4, pc, ror #10
   170e8:	37207475 			; <UNDEFINED> instruction: 0x37207475
   170ec:	6e696c2d 	cdpvs	12, 6, cr6, cr9, cr13, {1}
   170f0:	00007365 	andeq	r7, r0, r5, ror #6
   170f4:	706d6f43 	rsbvc	r6, sp, r3, asr #30
   170f8:	64656c69 	strbtvs	r6, [r5], #-3177	; 0xfffff397
   170fc:	206e6f20 	rsbcs	r6, lr, r0, lsr #30
   17100:	61207325 	teqvs	r0, r5, lsr #6
   17104:	73252074 	teqvc	r5, #116	; 0x74
   17108:	0000000a 	andeq	r0, r0, sl
   1710c:	20727041 	rsbscs	r7, r2, r1, asr #32
   17110:	32203632 	eorcc	r3, r0, #52428800	; 0x3200000
   17114:	00353130 	eorseq	r3, r5, r0, lsr r1
   17118:	323a3631 	eorscc	r3, sl, #51380224	; 0x3100000
   1711c:	33333a37 	teqcc	r3, #225280	; 0x37000
   17120:	00000000 	andeq	r0, r0, r0
   17124:	204d4452 	subcs	r4, sp, r2, asr r4
   17128:	70736552 	rsbsvc	r6, r3, r2, asr r5
   1712c:	65646e6f 	strbvs	r6, [r4, #-3695]!	; 0xfffff191
   17130:	44202c72 	strtmi	r2, [r0], #-3186	; 0xfffff38e
   17134:	3135584d 	teqcc	r5, sp, asr #16
   17138:	61642032 	cmnvs	r4, r2, lsr r0
   1713c:	61206174 	teqvs	r0, r4, ror r1
   17140:	796c616e 	stmdbvc	ip!, {r1, r2, r3, r5, r6, r8, sp, lr}^
   17144:	2072657a 	rsbscs	r6, r2, sl, ror r5
   17148:	20726f66 	rsbscs	r6, r2, r6, ror #30
   1714c:	63203233 	teqvs	r0, #805306371	; 0x30000003
   17150:	6e6e6168 	powvsez	f6, f6, #0.0
   17154:	0a736c65 	beq	1cf22f0 <heap_low+0x1cd6558>
   17158:	00000000 	andeq	r0, r0, r0
   1715c:	69766544 	ldmdbvs	r6!, {r2, r6, r8, sl, sp, lr}^
   17160:	55206563 	strpl	r6, [r0, #-1379]!	; 0xfffffa9d
   17164:	20444955 	subcs	r4, r4, r5, asr r9
   17168:	2e25203a 	mcrcs	0, 1, r2, cr5, cr10, {1}
   1716c:	2e257832 	mcrcs	8, 1, r7, cr5, cr2, {1}
   17170:	253a7832 	ldrcs	r7, [sl, #-2098]!	; 0xfffff7ce
   17174:	2578322e 	ldrbcs	r3, [r8, #-558]!	; 0xfffffdd2
   17178:	2578322e 	ldrbcs	r3, [r8, #-558]!	; 0xfffffdd2
   1717c:	2578322e 	ldrbcs	r3, [r8, #-558]!	; 0xfffffdd2
   17180:	0a78322e 	beq	1e23a40 <heap_low+0x1e07ca8>
   17184:	00000000 	andeq	r0, r0, r0
   17188:	00000043 	andeq	r0, r0, r3, asr #32
   1718c:	00544d47 	subseq	r4, r4, r7, asr #26
   17190:	00464e49 	subeq	r4, r6, r9, asr #28
   17194:	00666e69 	rsbeq	r6, r6, r9, ror #28
   17198:	004e414e 	subeq	r4, lr, lr, asr #2
   1719c:	006e616e 	rsbeq	r6, lr, lr, ror #2
   171a0:	33323130 	teqcc	r2, #48, 2
   171a4:	37363534 			; <UNDEFINED> instruction: 0x37363534
   171a8:	42413938 	submi	r3, r1, #56, 18	; 0xe0000
   171ac:	46454443 	strbmi	r4, [r5], -r3, asr #8
   171b0:	00000000 	andeq	r0, r0, r0
   171b4:	33323130 	teqcc	r2, #48, 2
   171b8:	37363534 			; <UNDEFINED> instruction: 0x37363534
   171bc:	62613938 	rsbvs	r3, r1, #56, 18	; 0xe0000
   171c0:	66656463 	strbtvs	r6, [r5], -r3, ror #8
   171c4:	00000000 	andeq	r0, r0, r0
   171c8:	6c756e28 	ldclvs	14, cr6, [r5], #-160	; 0xffffff60
   171cc:	0000296c 	andeq	r2, r0, ip, ror #18
   171d0:	00000030 	andeq	r0, r0, r0, lsr r0
   171d4:	69666e49 	stmdbvs	r6!, {r0, r3, r6, r9, sl, fp, sp, lr}^
   171d8:	7974696e 	ldmdbvc	r4!, {r1, r2, r3, r5, r6, r8, fp, sp, lr}^
   171dc:	00000000 	andeq	r0, r0, r0
   171e0:	004e614e 	subeq	r6, lr, lr, asr #2
   171e4:	49534f50 	ldmdbmi	r3, {r4, r6, r8, r9, sl, fp, lr}^
   171e8:	00000058 	andeq	r0, r0, r8, asr r0
   171ec:	0000002e 	andeq	r0, r0, lr, lsr #32

Disassembly of section .eh_frame:

000171f0 <.eh_frame>:
   171f0:	00000010 	andeq	r0, r0, r0, lsl r0
   171f4:	00000000 	andeq	r0, r0, r0
   171f8:	00527a01 	subseq	r7, r2, r1, lsl #20
   171fc:	010e7c02 	tsteq	lr, r2, lsl #24
   17200:	000d0c1b 	andeq	r0, sp, fp, lsl ip
   17204:	00000058 	andeq	r0, r0, r8, asr r0
   17208:	00000018 	andeq	r0, r0, r8, lsl r0
   1720c:	ffffc790 			; <UNDEFINED> instruction: 0xffffc790
   17210:	00000374 	andeq	r0, r0, r4, ror r3
   17214:	100e4200 	andne	r4, lr, r0, lsl #4
   17218:	03850484 	orreq	r0, r5, #132, 8	; 0x84000000
   1721c:	87028644 	strhi	r8, [r2, -r4, asr #12]
   17220:	0a620201 	beq	1897a2c <heap_low+0x187bc94>
   17224:	48c7c642 	stmiami	r7, {r1, r6, r9, sl, lr, pc}^
   17228:	0b44c5c4 	bleq	1148940 <heap_low+0x112cba8>
   1722c:	c6420a48 	strbgt	r0, [r2], -r8, asr #20
   17230:	c5c448c7 	strbgt	r4, [r4, #2247]	; 0x8c7
   17234:	0a6c0b44 	beq	1b19f4c <heap_low+0x1afe1b4>
   17238:	c448c7c6 	strbgt	ip, [r8], #-1990	; 0xfffff83a
   1723c:	760b44c5 	strvc	r4, [fp], -r5, asr #9
   17240:	44c4440a 	strbmi	r4, [r4], #1034	; 0x40a
   17244:	420a700b 	andmi	r7, sl, #11
   17248:	c7c6c5c4 	strbgt	ip, [r6, r4, asr #11]
   1724c:	66020b44 	strvs	r0, [r2], -r4, asr #22
   17250:	c5c4420a 	strbgt	r4, [r4, #522]	; 0x20a
   17254:	0b42c7c6 	bleq	10c9174 <heap_low+0x10ad3dc>
   17258:	c6c5c454 			; <UNDEFINED> instruction: 0xc6c5c454
   1725c:	000000c7 	andeq	r0, r0, r7, asr #1

Disassembly of section .ARM.exidx:

00017260 <.ARM.exidx>:
   17260:	7ffff428 	svcvc	0x00fff428
   17264:	00000001 	andeq	r0, r0, r1

Disassembly of section .data:

00017268 <dmx_output_break_time>:
   17268:	0000005c 	andeq	r0, r0, ip, asr r0
   1726c:	00000000 	andeq	r0, r0, r0

00017270 <dmx_output_mab_time>:
   17270:	0000000c 	andeq	r0, r0, ip
   17274:	00000000 	andeq	r0, r0, r0

00017278 <ticks_per_second>:
   17278:	0007a120 	andeq	sl, r7, r0, lsr #2

0001727c <is_factory_defaults>:
   1727c:	00000001 	andeq	r0, r0, r1

00017280 <uid_device>:
   17280:	0000f07f 	andeq	pc, r0, pc, ror r0	; <UNPREDICTABLE>
   17284:	00000000 	andeq	r0, r0, r0

00017288 <rdm_sub_devices_info>:
   17288:	01010007 	tsteq	r1, r7
   1728c:	62000001 	andvs	r0, r0, #1
   17290:	70735f77 	rsbsvc	r5, r3, r7, ror pc
   17294:	69645f69 	stmdbvs	r4!, {r0, r3, r5, r6, r8, r9, sl, fp, ip, lr}^
   17298:	0000006f 	andeq	r0, r0, pc, rrx
	...
   172ac:	0a000000 	beq	172b4 <rdm_sub_devices_info+0x2c>
   172b0:	00016af8 	strdeq	r6, [r1], -r8
   172b4:	01010002 	tsteq	r1, r2
   172b8:	62000001 	andvs	r0, r0, #1
   172bc:	70735f77 	rsbsvc	r5, r3, r7, ror pc
   172c0:	65725f69 	ldrbvs	r5, [r2, #-3945]!	; 0xfffff097
   172c4:	0079616c 	rsbseq	r6, r9, ip, ror #2
	...
   172d8:	0c000000 	stceq	0, cr0, [r0], {-0}
   172dc:	00016af0 	strdeq	r6, [r1], -r0
   172e0:	01010008 	tsteq	r1, r8
   172e4:	6d000009 	stcvs	0, cr0, [r0, #-36]	; 0xffffffdc
   172e8:	33327063 	teqcc	r2, #99	; 0x63
   172ec:	00383073 	eorseq	r3, r8, r3, ror r0
	...
   17304:	08000000 	stmdaeq	r0, {}	; <UNPREDICTABLE>
   17308:	00016ae8 	andeq	r6, r1, r8, ror #21
   1730c:	01010008 	tsteq	r1, r8
   17310:	6d000011 	stcvs	0, cr0, [r0, #-68]	; 0xffffffbc
   17314:	33327063 	teqcc	r2, #99	; 0x63
   17318:	00383073 	eorseq	r3, r8, r3, ror r0
	...
   17330:	08000000 	stmdaeq	r0, {}	; <UNPREDICTABLE>
   17334:	00016ae8 	andeq	r6, r1, r8, ror #21

00017338 <cur_fore>:
   17338:	0000ffff 	strdeq	pc, [r0], -pc	; <UNPREDICTABLE>

0001733c <FONT>:
	...
   174c8:	08080800 	stmdaeq	r8, {fp}
   174cc:	00080808 	andeq	r0, r8, r8, lsl #16
   174d0:	00000008 	andeq	r0, r0, r8
   174d4:	14141400 	ldrne	r1, [r4], #-1024	; 0xfffffc00
	...
   174e0:	14140000 	ldrne	r0, [r4], #-0
   174e4:	143e143e 	ldrtne	r1, [lr], #-1086	; 0xfffffbc2
   174e8:	00000014 	andeq	r0, r0, r4, lsl r0
   174ec:	3c080000 	stccc	0, cr0, [r8], {-0}
   174f0:	1e281c0a 	cdpne	12, 2, cr1, cr8, cr10, {0}
   174f4:	00000008 	andeq	r0, r0, r8
   174f8:	26060000 	strcs	r0, [r6], -r0
   174fc:	32040810 	andcc	r0, r4, #16, 16	; 0x100000
   17500:	00000030 	andeq	r0, r0, r0, lsr r0
   17504:	021c0000 	andseq	r0, ip, #0
   17508:	122a0402 	eorne	r0, sl, #33554432	; 0x2000000
   1750c:	0000002c 	andeq	r0, r0, ip, lsr #32
   17510:	04081800 	streq	r1, [r8], #-2048	; 0xfffff800
	...
   1751c:	08101020 	ldmdaeq	r0, {r5, ip}
   17520:	08080808 	stmdaeq	r8, {r3, fp}
   17524:	00201010 	eoreq	r1, r0, r0, lsl r0
   17528:	08040402 	stmdaeq	r4, {r1, sl}
   1752c:	08080808 	stmdaeq	r8, {r3, fp}
   17530:	00020404 	andeq	r0, r2, r4, lsl #8
   17534:	08000000 	stmdaeq	r0, {}	; <UNPREDICTABLE>
   17538:	082a1c2a 	stmdaeq	sl!, {r1, r3, r5, sl, fp, ip}
   1753c:	00000000 	andeq	r0, r0, r0
   17540:	08000000 	stmdaeq	r0, {}	; <UNPREDICTABLE>
   17544:	08083e08 	stmdaeq	r8, {r3, r9, sl, fp, ip, sp}
	...
   17550:	18000000 	stmdane	r0, {}	; <UNPREDICTABLE>
   17554:	00040818 	andeq	r0, r4, r8, lsl r8
   17558:	00000000 	andeq	r0, r0, r0
   1755c:	00003e00 	andeq	r3, r0, r0, lsl #28
	...
   17568:	18000000 	stmdane	r0, {}	; <UNPREDICTABLE>
   1756c:	00000018 	andeq	r0, r0, r8, lsl r0
   17570:	10102020 	andsne	r2, r0, r0, lsr #32
   17574:	04040808 	streq	r0, [r4], #-2056	; 0xfffff7f8
   17578:	00000202 	andeq	r0, r0, r2, lsl #4
   1757c:	32221c00 	eorcc	r1, r2, #0, 24
   17580:	2222262a 	eorcs	r2, r2, #44040192	; 0x2a00000
   17584:	0000001c 	andeq	r0, r0, ip, lsl r0
   17588:	080c0800 	stmdaeq	ip, {fp}
   1758c:	08080808 	stmdaeq	r8, {r3, fp}
   17590:	00000008 	andeq	r0, r0, r8
   17594:	20221c00 	eorcs	r1, r2, r0, lsl #24
   17598:	02040810 	andeq	r0, r4, #16, 16	; 0x100000
   1759c:	0000003e 	andeq	r0, r0, lr, lsr r0
   175a0:	20221c00 	eorcs	r1, r2, r0, lsl #24
   175a4:	22202018 	eorcs	r2, r0, #24
   175a8:	0000001c 	andeq	r0, r0, ip, lsl r0
   175ac:	18181000 	ldmdane	r8, {ip}
   175b0:	103e1414 	eorsne	r1, lr, r4, lsl r4
   175b4:	00000038 	andeq	r0, r0, r8, lsr r0
   175b8:	02023e00 	andeq	r3, r2, #0, 28
   175bc:	2220201e 	eorcs	r2, r0, #30
   175c0:	0000001c 	andeq	r0, r0, ip, lsl r0
   175c4:	02041800 	andeq	r1, r4, #0, 16
   175c8:	2222221e 	eorcs	r2, r2, #-536870911	; 0xe0000001
   175cc:	0000001c 	andeq	r0, r0, ip, lsl r0
   175d0:	20223e00 	eorcs	r3, r2, r0, lsl #28
   175d4:	08101020 	ldmdaeq	r0, {r5, ip}
   175d8:	00000008 	andeq	r0, r0, r8
   175dc:	22221c00 	eorcs	r1, r2, #0, 24
   175e0:	2222221c 	eorcs	r2, r2, #28, 4	; 0xc0000001
   175e4:	0000001c 	andeq	r0, r0, ip, lsl r0
   175e8:	22221c00 	eorcs	r1, r2, #0, 24
   175ec:	10203c22 	eorne	r3, r0, r2, lsr #24
   175f0:	0000000c 	andeq	r0, r0, ip
   175f4:	18000000 	stmdane	r0, {}	; <UNPREDICTABLE>
   175f8:	18000018 	stmdane	r0, {r3, r4}
   175fc:	00000018 	andeq	r0, r0, r8, lsl r0
   17600:	18000000 	stmdane	r0, {}	; <UNPREDICTABLE>
   17604:	18000018 	stmdane	r0, {r3, r4}
   17608:	00040818 	andeq	r0, r4, r8, lsl r8
   1760c:	30000000 	andcc	r0, r0, r0
   17610:	300c030c 	andcc	r0, ip, ip, lsl #6
	...
   1761c:	003e003e 	eorseq	r0, lr, lr, lsr r0
   17620:	00000000 	andeq	r0, r0, r0
   17624:	03000000 	movweq	r0, #0
   17628:	030c300c 	movweq	r3, #49164	; 0xc00c
   1762c:	00000000 	andeq	r0, r0, r0
   17630:	20221c00 	eorcs	r1, r2, r0, lsl #24
   17634:	00080810 	andeq	r0, r8, r0, lsl r8
   17638:	00000008 	andeq	r0, r0, r8
   1763c:	221c0000 	andscs	r0, ip, #0
   17640:	021a3a3a 	andseq	r3, sl, #237568	; 0x3a000
   17644:	0000001c 	andeq	r0, r0, ip, lsl r0
   17648:	14080000 	strne	r0, [r8], #-0
   1764c:	223e2222 	eorscs	r2, lr, #536870914	; 0x20000002
   17650:	00000022 	andeq	r0, r0, r2, lsr #32
   17654:	221e0000 	andscs	r0, lr, #0
   17658:	22221e22 	eorcs	r1, r2, #544	; 0x220
   1765c:	0000001e 	andeq	r0, r0, lr, lsl r0
   17660:	221c0000 	andscs	r0, ip, #0
   17664:	22020202 	andcs	r0, r2, #536870912	; 0x20000000
   17668:	0000001c 	andeq	r0, r0, ip, lsl r0
   1766c:	120e0000 	andne	r0, lr, #0
   17670:	12222222 	eorne	r2, r2, #536870914	; 0x20000002
   17674:	0000000e 	andeq	r0, r0, lr
   17678:	023e0000 	eorseq	r0, lr, #0
   1767c:	02021e02 	andeq	r1, r2, #2, 28
   17680:	0000003e 	andeq	r0, r0, lr, lsr r0
   17684:	023e0000 	eorseq	r0, lr, #0
   17688:	02021e02 	andeq	r1, r2, #2, 28
   1768c:	00000002 	andeq	r0, r0, r2
   17690:	221c0000 	andscs	r0, ip, #0
   17694:	22223202 	eorcs	r3, r2, #536870912	; 0x20000000
   17698:	0000003c 	andeq	r0, r0, ip, lsr r0
   1769c:	22220000 	eorcs	r0, r2, #0
   176a0:	22223e22 	eorcs	r3, r2, #544	; 0x220
   176a4:	00000022 	andeq	r0, r0, r2, lsr #32
   176a8:	083e0000 	ldmdaeq	lr!, {}	; <UNPREDICTABLE>
   176ac:	08080808 	stmdaeq	r8, {r3, fp}
   176b0:	0000003e 	andeq	r0, r0, lr, lsr r0
   176b4:	20380000 	eorscs	r0, r8, r0
   176b8:	22222020 	eorcs	r2, r2, #32
   176bc:	0000001c 	andeq	r0, r0, ip, lsl r0
   176c0:	12220000 	eorne	r0, r2, #0
   176c4:	120a060a 	andne	r0, sl, #10485760	; 0xa00000
   176c8:	00000022 	andeq	r0, r0, r2, lsr #32
   176cc:	02020000 	andeq	r0, r2, #0
   176d0:	02020202 	andeq	r0, r2, #536870912	; 0x20000000
   176d4:	0000003e 	andeq	r0, r0, lr, lsr r0
   176d8:	36220000 	strtcc	r0, [r2], -r0
   176dc:	22222a2a 	eorcs	r2, r2, #172032	; 0x2a000
   176e0:	00000022 	andeq	r0, r0, r2, lsr #32
   176e4:	26220000 	strtcs	r0, [r2], -r0
   176e8:	32322a26 	eorscc	r2, r2, #155648	; 0x26000
   176ec:	00000022 	andeq	r0, r0, r2, lsr #32
   176f0:	221c0000 	andscs	r0, ip, #0
   176f4:	22222222 	eorcs	r2, r2, #536870914	; 0x20000002
   176f8:	0000001c 	andeq	r0, r0, ip, lsl r0
   176fc:	221e0000 	andscs	r0, lr, #0
   17700:	02021e22 	andeq	r1, r2, #544	; 0x220
   17704:	00000002 	andeq	r0, r0, r2
   17708:	221c0000 	andscs	r0, ip, #0
   1770c:	22222222 	eorcs	r2, r2, #536870914	; 0x20000002
   17710:	0000301c 	andeq	r3, r0, ip, lsl r0
   17714:	221e0000 	andscs	r0, lr, #0
   17718:	120a1e22 	andne	r1, sl, #544	; 0x220
   1771c:	00000022 	andeq	r0, r0, r2, lsr #32
   17720:	221c0000 	andscs	r0, ip, #0
   17724:	22201c02 	eorcs	r1, r0, #512	; 0x200
   17728:	0000001c 	andeq	r0, r0, ip, lsl r0
   1772c:	083e0000 	ldmdaeq	lr!, {}	; <UNPREDICTABLE>
   17730:	08080808 	stmdaeq	r8, {r3, fp}
   17734:	00000008 	andeq	r0, r0, r8
   17738:	22220000 	eorcs	r0, r2, #0
   1773c:	22222222 	eorcs	r2, r2, #536870914	; 0x20000002
   17740:	0000001c 	andeq	r0, r0, ip, lsl r0
   17744:	22220000 	eorcs	r0, r2, #0
   17748:	08141422 	ldmdaeq	r4, {r1, r5, sl, ip}
   1774c:	00000008 	andeq	r0, r0, r8
   17750:	22220000 	eorcs	r0, r2, #0
   17754:	362a2a22 	strtcc	r2, [sl], -r2, lsr #20
   17758:	00000022 	andeq	r0, r0, r2, lsr #32
   1775c:	22220000 	eorcs	r0, r2, #0
   17760:	22140814 	andscs	r0, r4, #20, 16	; 0x140000
   17764:	00000022 	andeq	r0, r0, r2, lsr #32
   17768:	22220000 	eorcs	r0, r2, #0
   1776c:	08080814 	stmdaeq	r8, {r2, r4, fp}
   17770:	00000008 	andeq	r0, r0, r8
   17774:	203e0000 	eorscs	r0, lr, r0
   17778:	02040810 	andeq	r0, r4, #16, 16	; 0x100000
   1777c:	0000003e 	andeq	r0, r0, lr, lsr r0
   17780:	08080838 	stmdaeq	r8, {r3, r4, r5, fp}
   17784:	08080808 	stmdaeq	r8, {r3, fp}
   17788:	00380808 	eorseq	r0, r8, r8, lsl #16
   1778c:	04040202 	streq	r0, [r4], #-514	; 0xfffffdfe
   17790:	10100808 	andsne	r0, r0, r8, lsl #16
   17794:	00002020 	andeq	r2, r0, r0, lsr #32
   17798:	0808080e 	stmdaeq	r8, {r1, r2, r3, fp}
   1779c:	08080808 	stmdaeq	r8, {r3, fp}
   177a0:	000e0808 	andeq	r0, lr, r8, lsl #16
   177a4:	22140800 	andscs	r0, r4, #0, 16
	...
   177b8:	00003f00 	andeq	r3, r0, r0, lsl #30
   177bc:	10080c00 	andne	r0, r8, r0, lsl #24
	...
   177cc:	3222223c 	eorcc	r2, r2, #60, 4	; 0xc0000003
   177d0:	0000002c 	andeq	r0, r0, ip, lsr #32
   177d4:	02020200 	andeq	r0, r2, #0, 4
   177d8:	2222221e 	eorcs	r2, r2, #-536870911	; 0xe0000001
   177dc:	0000001e 	andeq	r0, r0, lr, lsl r0
   177e0:	00000000 	andeq	r0, r0, r0
   177e4:	0202023c 	andeq	r0, r2, #60, 4	; 0xc0000003
   177e8:	0000003c 	andeq	r0, r0, ip, lsr r0
   177ec:	20202000 	eorcs	r2, r0, r0
   177f0:	2222223c 	eorcs	r2, r2, #60, 4	; 0xc0000003
   177f4:	0000003c 	andeq	r0, r0, ip, lsr r0
   177f8:	00000000 	andeq	r0, r0, r0
   177fc:	023e221c 	eorseq	r2, lr, #28, 4	; 0xc0000001
   17800:	0000001c 	andeq	r0, r0, ip, lsl r0
   17804:	04043800 	streq	r3, [r4], #-2048	; 0xfffff800
   17808:	0404041e 	streq	r0, [r4], #-1054	; 0xfffffbe2
   1780c:	00000004 	andeq	r0, r0, r4
   17810:	00000000 	andeq	r0, r0, r0
   17814:	2222223c 	eorcs	r2, r2, #60, 4	; 0xc0000003
   17818:	1c20203c 	stcne	0, cr2, [r0], #-240	; 0xffffff10
   1781c:	02020200 	andeq	r0, r2, #0, 4
   17820:	2222221e 	eorcs	r2, r2, #-536870911	; 0xe0000001
   17824:	00000022 	andeq	r0, r0, r2, lsr #32
   17828:	00080800 	andeq	r0, r8, r0, lsl #16
   1782c:	0808080c 	stmdaeq	r8, {r2, r3, fp}
   17830:	0000001c 	andeq	r0, r0, ip, lsl r0
   17834:	00101000 	andseq	r1, r0, r0
   17838:	1010101c 	andsne	r1, r0, ip, lsl r0
   1783c:	0e101010 	mrceq	0, 0, r1, cr0, cr0, {0}
   17840:	02020200 	andeq	r0, r2, #0, 4
   17844:	0a060a12 	beq	19a094 <heap_low+0x17e2fc>
   17848:	00000012 	andeq	r0, r0, r2, lsl r0
   1784c:	08080c00 	stmdaeq	r8, {sl, fp}
   17850:	08080808 	stmdaeq	r8, {r3, fp}
   17854:	0000001c 	andeq	r0, r0, ip, lsl r0
   17858:	00000000 	andeq	r0, r0, r0
   1785c:	2a2a2a16 	bcs	aa20bc <heap_low+0xa86324>
   17860:	00000022 	andeq	r0, r0, r2, lsr #32
   17864:	00000000 	andeq	r0, r0, r0
   17868:	2222261a 	eorcs	r2, r2, #27262976	; 0x1a00000
   1786c:	00000022 	andeq	r0, r0, r2, lsr #32
   17870:	00000000 	andeq	r0, r0, r0
   17874:	2222221c 	eorcs	r2, r2, #28, 4	; 0xc0000001
   17878:	0000001c 	andeq	r0, r0, ip, lsl r0
   1787c:	00000000 	andeq	r0, r0, r0
   17880:	2222221e 	eorcs	r2, r2, #-536870911	; 0xe0000001
   17884:	0202021e 	andeq	r0, r2, #-536870911	; 0xe0000001
   17888:	00000000 	andeq	r0, r0, r0
   1788c:	2222223c 	eorcs	r2, r2, #60, 4	; 0xc0000003
   17890:	2020203c 	eorcs	r2, r0, ip, lsr r0
   17894:	00000000 	andeq	r0, r0, r0
   17898:	0202061a 	andeq	r0, r2, #27262976	; 0x1a00000
   1789c:	00000002 	andeq	r0, r0, r2
   178a0:	00000000 	andeq	r0, r0, r0
   178a4:	201c023c 	andscs	r0, ip, ip, lsr r2
   178a8:	0000001e 	andeq	r0, r0, lr, lsl r0
   178ac:	08080800 	stmdaeq	r8, {fp}
   178b0:	0808083e 	stmdaeq	r8, {r1, r2, r3, r4, r5, fp}
   178b4:	00000030 	andeq	r0, r0, r0, lsr r0
   178b8:	00000000 	andeq	r0, r0, r0
   178bc:	32222222 	eorcc	r2, r2, #536870914	; 0x20000002
   178c0:	0000002c 	andeq	r0, r0, ip, lsr #32
   178c4:	00000000 	andeq	r0, r0, r0
   178c8:	08141436 	ldmdaeq	r4, {r1, r2, r4, r5, sl, ip}
   178cc:	00000008 	andeq	r0, r0, r8
   178d0:	00000000 	andeq	r0, r0, r0
   178d4:	2a2a2a22 	bcs	aa2164 <heap_low+0xa863cc>
   178d8:	00000014 	andeq	r0, r0, r4, lsl r0
   178dc:	00000000 	andeq	r0, r0, r0
   178e0:	14081422 	strne	r1, [r8], #-1058	; 0xfffffbde
   178e4:	00000022 	andeq	r0, r0, r2, lsr #32
   178e8:	00000000 	andeq	r0, r0, r0
   178ec:	22222222 	eorcs	r2, r2, #536870914	; 0x20000002
   178f0:	1c20203c 	stcne	0, cr2, [r0], #-240	; 0xffffff10
   178f4:	00000000 	andeq	r0, r0, r0
   178f8:	0408103e 	streq	r1, [r8], #-62	; 0xffffffc2
   178fc:	0000003e 	andeq	r0, r0, lr, lsr r0
   17900:	10101020 	andsne	r1, r0, r0, lsr #32
   17904:	10100810 	andsne	r0, r0, r0, lsl r8
   17908:	00201010 	eoreq	r1, r0, r0, lsl r0
   1790c:	08080808 	stmdaeq	r8, {r3, fp}
   17910:	08080808 	stmdaeq	r8, {r3, fp}
   17914:	00080808 	andeq	r0, r8, r8, lsl #16
   17918:	04040402 	streq	r0, [r4], #-1026	; 0xfffffbfe
   1791c:	04040804 	streq	r0, [r4], #-2052	; 0xfffff7fc
   17920:	00020404 	andeq	r0, r2, r4, lsl #8
   17924:	102a0400 	eorne	r0, sl, r0, lsl #8
	...
   17930:	08000000 	stmdaeq	r0, {}	; <UNPREDICTABLE>
   17934:	22141408 	andscs	r1, r4, #8, 8	; 0x8000000
   17938:	0000003e 	andeq	r0, r0, lr, lsr r0

0001793c <_hardware_led_f>:
   1793c:	0000c1fc 	strdeq	ip, [r0], -ip	; <UNPREDICTABLE>
   17940:	0000c1e0 	andeq	ip, r0, r0, ror #3

00017944 <i2c_mcp7941x_slave_address>:
   17944:	0000006f 	andeq	r0, r0, pc, rrx

00017948 <_impure_ptr>:
   17948:	00017950 	andeq	r7, r1, r0, asr r9
   1794c:	00000000 	andeq	r0, r0, r0

00017950 <impure_data>:
   17950:	00000000 	andeq	r0, r0, r0
   17954:	00017c3c 	andeq	r7, r1, ip, lsr ip
   17958:	00017ca4 	andeq	r7, r1, r4, lsr #25
   1795c:	00017d0c 	andeq	r7, r1, ip, lsl #26
	...
   17984:	00017188 	andeq	r7, r1, r8, lsl #3
	...
   179f8:	00000001 	andeq	r0, r0, r1
   179fc:	00000000 	andeq	r0, r0, r0
   17a00:	abcd330e 	blge	ff364640 <__ram_end+0xf7364640>
   17a04:	e66d1234 			; <UNDEFINED> instruction: 0xe66d1234
   17a08:	0005deec 	andeq	sp, r5, ip, ror #29
   17a0c:	0000000b 	andeq	r0, r0, fp
	...

00017d78 <__malloc_av_>:
	...
   17d80:	00017d78 	andeq	r7, r1, r8, ror sp
   17d84:	00017d78 	andeq	r7, r1, r8, ror sp
   17d88:	00017d80 	andeq	r7, r1, r0, lsl #27
   17d8c:	00017d80 	andeq	r7, r1, r0, lsl #27
   17d90:	00017d88 	andeq	r7, r1, r8, lsl #27
   17d94:	00017d88 	andeq	r7, r1, r8, lsl #27
   17d98:	00017d90 	muleq	r1, r0, sp
   17d9c:	00017d90 	muleq	r1, r0, sp
   17da0:	00017d98 	muleq	r1, r8, sp
   17da4:	00017d98 	muleq	r1, r8, sp
   17da8:	00017da0 	andeq	r7, r1, r0, lsr #27
   17dac:	00017da0 	andeq	r7, r1, r0, lsr #27
   17db0:	00017da8 	andeq	r7, r1, r8, lsr #27
   17db4:	00017da8 	andeq	r7, r1, r8, lsr #27
   17db8:	00017db0 			; <UNDEFINED> instruction: 0x00017db0
   17dbc:	00017db0 			; <UNDEFINED> instruction: 0x00017db0
   17dc0:	00017db8 			; <UNDEFINED> instruction: 0x00017db8
   17dc4:	00017db8 			; <UNDEFINED> instruction: 0x00017db8
   17dc8:	00017dc0 	andeq	r7, r1, r0, asr #27
   17dcc:	00017dc0 	andeq	r7, r1, r0, asr #27
   17dd0:	00017dc8 	andeq	r7, r1, r8, asr #27
   17dd4:	00017dc8 	andeq	r7, r1, r8, asr #27
   17dd8:	00017dd0 	ldrdeq	r7, [r1], -r0
   17ddc:	00017dd0 	ldrdeq	r7, [r1], -r0
   17de0:	00017dd8 	ldrdeq	r7, [r1], -r8
   17de4:	00017dd8 	ldrdeq	r7, [r1], -r8
   17de8:	00017de0 	andeq	r7, r1, r0, ror #27
   17dec:	00017de0 	andeq	r7, r1, r0, ror #27
   17df0:	00017de8 	andeq	r7, r1, r8, ror #27
   17df4:	00017de8 	andeq	r7, r1, r8, ror #27
   17df8:	00017df0 	strdeq	r7, [r1], -r0
   17dfc:	00017df0 	strdeq	r7, [r1], -r0
   17e00:	00017df8 	strdeq	r7, [r1], -r8
   17e04:	00017df8 	strdeq	r7, [r1], -r8
   17e08:	00017e00 	andeq	r7, r1, r0, lsl #28
   17e0c:	00017e00 	andeq	r7, r1, r0, lsl #28
   17e10:	00017e08 	andeq	r7, r1, r8, lsl #28
   17e14:	00017e08 	andeq	r7, r1, r8, lsl #28
   17e18:	00017e10 	andeq	r7, r1, r0, lsl lr
   17e1c:	00017e10 	andeq	r7, r1, r0, lsl lr
   17e20:	00017e18 	andeq	r7, r1, r8, lsl lr
   17e24:	00017e18 	andeq	r7, r1, r8, lsl lr
   17e28:	00017e20 	andeq	r7, r1, r0, lsr #28
   17e2c:	00017e20 	andeq	r7, r1, r0, lsr #28
   17e30:	00017e28 	andeq	r7, r1, r8, lsr #28
   17e34:	00017e28 	andeq	r7, r1, r8, lsr #28
   17e38:	00017e30 	andeq	r7, r1, r0, lsr lr
   17e3c:	00017e30 	andeq	r7, r1, r0, lsr lr
   17e40:	00017e38 	andeq	r7, r1, r8, lsr lr
   17e44:	00017e38 	andeq	r7, r1, r8, lsr lr
   17e48:	00017e40 	andeq	r7, r1, r0, asr #28
   17e4c:	00017e40 	andeq	r7, r1, r0, asr #28
   17e50:	00017e48 	andeq	r7, r1, r8, asr #28
   17e54:	00017e48 	andeq	r7, r1, r8, asr #28
   17e58:	00017e50 	andeq	r7, r1, r0, asr lr
   17e5c:	00017e50 	andeq	r7, r1, r0, asr lr
   17e60:	00017e58 	andeq	r7, r1, r8, asr lr
   17e64:	00017e58 	andeq	r7, r1, r8, asr lr
   17e68:	00017e60 	andeq	r7, r1, r0, ror #28
   17e6c:	00017e60 	andeq	r7, r1, r0, ror #28
   17e70:	00017e68 	andeq	r7, r1, r8, ror #28
   17e74:	00017e68 	andeq	r7, r1, r8, ror #28
   17e78:	00017e70 	andeq	r7, r1, r0, ror lr
   17e7c:	00017e70 	andeq	r7, r1, r0, ror lr
   17e80:	00017e78 	andeq	r7, r1, r8, ror lr
   17e84:	00017e78 	andeq	r7, r1, r8, ror lr
   17e88:	00017e80 	andeq	r7, r1, r0, lsl #29
   17e8c:	00017e80 	andeq	r7, r1, r0, lsl #29
   17e90:	00017e88 	andeq	r7, r1, r8, lsl #29
   17e94:	00017e88 	andeq	r7, r1, r8, lsl #29
   17e98:	00017e90 	muleq	r1, r0, lr
   17e9c:	00017e90 	muleq	r1, r0, lr
   17ea0:	00017e98 	muleq	r1, r8, lr
   17ea4:	00017e98 	muleq	r1, r8, lr
   17ea8:	00017ea0 	andeq	r7, r1, r0, lsr #29
   17eac:	00017ea0 	andeq	r7, r1, r0, lsr #29
   17eb0:	00017ea8 	andeq	r7, r1, r8, lsr #29
   17eb4:	00017ea8 	andeq	r7, r1, r8, lsr #29
   17eb8:	00017eb0 			; <UNDEFINED> instruction: 0x00017eb0
   17ebc:	00017eb0 			; <UNDEFINED> instruction: 0x00017eb0
   17ec0:	00017eb8 			; <UNDEFINED> instruction: 0x00017eb8
   17ec4:	00017eb8 			; <UNDEFINED> instruction: 0x00017eb8
   17ec8:	00017ec0 	andeq	r7, r1, r0, asr #29
   17ecc:	00017ec0 	andeq	r7, r1, r0, asr #29
   17ed0:	00017ec8 	andeq	r7, r1, r8, asr #29
   17ed4:	00017ec8 	andeq	r7, r1, r8, asr #29
   17ed8:	00017ed0 	ldrdeq	r7, [r1], -r0
   17edc:	00017ed0 	ldrdeq	r7, [r1], -r0
   17ee0:	00017ed8 	ldrdeq	r7, [r1], -r8
   17ee4:	00017ed8 	ldrdeq	r7, [r1], -r8
   17ee8:	00017ee0 	andeq	r7, r1, r0, ror #29
   17eec:	00017ee0 	andeq	r7, r1, r0, ror #29
   17ef0:	00017ee8 	andeq	r7, r1, r8, ror #29
   17ef4:	00017ee8 	andeq	r7, r1, r8, ror #29
   17ef8:	00017ef0 	strdeq	r7, [r1], -r0
   17efc:	00017ef0 	strdeq	r7, [r1], -r0
   17f00:	00017ef8 	strdeq	r7, [r1], -r8
   17f04:	00017ef8 	strdeq	r7, [r1], -r8
   17f08:	00017f00 	andeq	r7, r1, r0, lsl #30
   17f0c:	00017f00 	andeq	r7, r1, r0, lsl #30
   17f10:	00017f08 	andeq	r7, r1, r8, lsl #30
   17f14:	00017f08 	andeq	r7, r1, r8, lsl #30
   17f18:	00017f10 	andeq	r7, r1, r0, lsl pc
   17f1c:	00017f10 	andeq	r7, r1, r0, lsl pc
   17f20:	00017f18 	andeq	r7, r1, r8, lsl pc
   17f24:	00017f18 	andeq	r7, r1, r8, lsl pc
   17f28:	00017f20 	andeq	r7, r1, r0, lsr #30
   17f2c:	00017f20 	andeq	r7, r1, r0, lsr #30
   17f30:	00017f28 	andeq	r7, r1, r8, lsr #30
   17f34:	00017f28 	andeq	r7, r1, r8, lsr #30
   17f38:	00017f30 	andeq	r7, r1, r0, lsr pc
   17f3c:	00017f30 	andeq	r7, r1, r0, lsr pc
   17f40:	00017f38 	andeq	r7, r1, r8, lsr pc
   17f44:	00017f38 	andeq	r7, r1, r8, lsr pc
   17f48:	00017f40 	andeq	r7, r1, r0, asr #30
   17f4c:	00017f40 	andeq	r7, r1, r0, asr #30
   17f50:	00017f48 	andeq	r7, r1, r8, asr #30
   17f54:	00017f48 	andeq	r7, r1, r8, asr #30
   17f58:	00017f50 	andeq	r7, r1, r0, asr pc
   17f5c:	00017f50 	andeq	r7, r1, r0, asr pc
   17f60:	00017f58 	andeq	r7, r1, r8, asr pc
   17f64:	00017f58 	andeq	r7, r1, r8, asr pc
   17f68:	00017f60 	andeq	r7, r1, r0, ror #30
   17f6c:	00017f60 	andeq	r7, r1, r0, ror #30
   17f70:	00017f68 	andeq	r7, r1, r8, ror #30
   17f74:	00017f68 	andeq	r7, r1, r8, ror #30
   17f78:	00017f70 	andeq	r7, r1, r0, ror pc
   17f7c:	00017f70 	andeq	r7, r1, r0, ror pc
   17f80:	00017f78 	andeq	r7, r1, r8, ror pc
   17f84:	00017f78 	andeq	r7, r1, r8, ror pc
   17f88:	00017f80 	andeq	r7, r1, r0, lsl #31
   17f8c:	00017f80 	andeq	r7, r1, r0, lsl #31
   17f90:	00017f88 	andeq	r7, r1, r8, lsl #31
   17f94:	00017f88 	andeq	r7, r1, r8, lsl #31
   17f98:	00017f90 	muleq	r1, r0, pc	; <UNPREDICTABLE>
   17f9c:	00017f90 	muleq	r1, r0, pc	; <UNPREDICTABLE>
   17fa0:	00017f98 	muleq	r1, r8, pc	; <UNPREDICTABLE>
   17fa4:	00017f98 	muleq	r1, r8, pc	; <UNPREDICTABLE>
   17fa8:	00017fa0 	andeq	r7, r1, r0, lsr #31
   17fac:	00017fa0 	andeq	r7, r1, r0, lsr #31
   17fb0:	00017fa8 	andeq	r7, r1, r8, lsr #31
   17fb4:	00017fa8 	andeq	r7, r1, r8, lsr #31
   17fb8:	00017fb0 			; <UNDEFINED> instruction: 0x00017fb0
   17fbc:	00017fb0 			; <UNDEFINED> instruction: 0x00017fb0
   17fc0:	00017fb8 			; <UNDEFINED> instruction: 0x00017fb8
   17fc4:	00017fb8 			; <UNDEFINED> instruction: 0x00017fb8
   17fc8:	00017fc0 	andeq	r7, r1, r0, asr #31
   17fcc:	00017fc0 	andeq	r7, r1, r0, asr #31
   17fd0:	00017fc8 	andeq	r7, r1, r8, asr #31
   17fd4:	00017fc8 	andeq	r7, r1, r8, asr #31
   17fd8:	00017fd0 	ldrdeq	r7, [r1], -r0
   17fdc:	00017fd0 	ldrdeq	r7, [r1], -r0
   17fe0:	00017fd8 	ldrdeq	r7, [r1], -r8
   17fe4:	00017fd8 	ldrdeq	r7, [r1], -r8
   17fe8:	00017fe0 	andeq	r7, r1, r0, ror #31
   17fec:	00017fe0 	andeq	r7, r1, r0, ror #31
   17ff0:	00017fe8 	andeq	r7, r1, r8, ror #31
   17ff4:	00017fe8 	andeq	r7, r1, r8, ror #31
   17ff8:	00017ff0 	strdeq	r7, [r1], -r0
   17ffc:	00017ff0 	strdeq	r7, [r1], -r0
   18000:	00017ff8 	strdeq	r7, [r1], -r8
   18004:	00017ff8 	strdeq	r7, [r1], -r8
   18008:	00018000 	andeq	r8, r1, r0
   1800c:	00018000 	andeq	r8, r1, r0
   18010:	00018008 	andeq	r8, r1, r8
   18014:	00018008 	andeq	r8, r1, r8
   18018:	00018010 	andeq	r8, r1, r0, lsl r0
   1801c:	00018010 	andeq	r8, r1, r0, lsl r0
   18020:	00018018 	andeq	r8, r1, r8, lsl r0
   18024:	00018018 	andeq	r8, r1, r8, lsl r0
   18028:	00018020 	andeq	r8, r1, r0, lsr #32
   1802c:	00018020 	andeq	r8, r1, r0, lsr #32
   18030:	00018028 	andeq	r8, r1, r8, lsr #32
   18034:	00018028 	andeq	r8, r1, r8, lsr #32
   18038:	00018030 	andeq	r8, r1, r0, lsr r0
   1803c:	00018030 	andeq	r8, r1, r0, lsr r0
   18040:	00018038 	andeq	r8, r1, r8, lsr r0
   18044:	00018038 	andeq	r8, r1, r8, lsr r0
   18048:	00018040 	andeq	r8, r1, r0, asr #32
   1804c:	00018040 	andeq	r8, r1, r0, asr #32
   18050:	00018048 	andeq	r8, r1, r8, asr #32
   18054:	00018048 	andeq	r8, r1, r8, asr #32
   18058:	00018050 	andeq	r8, r1, r0, asr r0
   1805c:	00018050 	andeq	r8, r1, r0, asr r0
   18060:	00018058 	andeq	r8, r1, r8, asr r0
   18064:	00018058 	andeq	r8, r1, r8, asr r0
   18068:	00018060 	andeq	r8, r1, r0, rrx
   1806c:	00018060 	andeq	r8, r1, r0, rrx
   18070:	00018068 	andeq	r8, r1, r8, rrx
   18074:	00018068 	andeq	r8, r1, r8, rrx
   18078:	00018070 	andeq	r8, r1, r0, ror r0
   1807c:	00018070 	andeq	r8, r1, r0, ror r0
   18080:	00018078 	andeq	r8, r1, r8, ror r0
   18084:	00018078 	andeq	r8, r1, r8, ror r0
   18088:	00018080 	andeq	r8, r1, r0, lsl #1
   1808c:	00018080 	andeq	r8, r1, r0, lsl #1
   18090:	00018088 	andeq	r8, r1, r8, lsl #1
   18094:	00018088 	andeq	r8, r1, r8, lsl #1
   18098:	00018090 	muleq	r1, r0, r0
   1809c:	00018090 	muleq	r1, r0, r0
   180a0:	00018098 	muleq	r1, r8, r0
   180a4:	00018098 	muleq	r1, r8, r0
   180a8:	000180a0 	andeq	r8, r1, r0, lsr #1
   180ac:	000180a0 	andeq	r8, r1, r0, lsr #1
   180b0:	000180a8 	andeq	r8, r1, r8, lsr #1
   180b4:	000180a8 	andeq	r8, r1, r8, lsr #1
   180b8:	000180b0 	strheq	r8, [r1], -r0
   180bc:	000180b0 	strheq	r8, [r1], -r0
   180c0:	000180b8 	strheq	r8, [r1], -r8	; <UNPREDICTABLE>
   180c4:	000180b8 	strheq	r8, [r1], -r8	; <UNPREDICTABLE>
   180c8:	000180c0 	andeq	r8, r1, r0, asr #1
   180cc:	000180c0 	andeq	r8, r1, r0, asr #1
   180d0:	000180c8 	andeq	r8, r1, r8, asr #1
   180d4:	000180c8 	andeq	r8, r1, r8, asr #1
   180d8:	000180d0 	ldrdeq	r8, [r1], -r0
   180dc:	000180d0 	ldrdeq	r8, [r1], -r0
   180e0:	000180d8 	ldrdeq	r8, [r1], -r8	; <UNPREDICTABLE>
   180e4:	000180d8 	ldrdeq	r8, [r1], -r8	; <UNPREDICTABLE>
   180e8:	000180e0 	andeq	r8, r1, r0, ror #1
   180ec:	000180e0 	andeq	r8, r1, r0, ror #1
   180f0:	000180e8 	andeq	r8, r1, r8, ror #1
   180f4:	000180e8 	andeq	r8, r1, r8, ror #1
   180f8:	000180f0 	strdeq	r8, [r1], -r0
   180fc:	000180f0 	strdeq	r8, [r1], -r0
   18100:	000180f8 	strdeq	r8, [r1], -r8	; <UNPREDICTABLE>
   18104:	000180f8 	strdeq	r8, [r1], -r8	; <UNPREDICTABLE>
   18108:	00018100 	andeq	r8, r1, r0, lsl #2
   1810c:	00018100 	andeq	r8, r1, r0, lsl #2
   18110:	00018108 	andeq	r8, r1, r8, lsl #2
   18114:	00018108 	andeq	r8, r1, r8, lsl #2
   18118:	00018110 	andeq	r8, r1, r0, lsl r1
   1811c:	00018110 	andeq	r8, r1, r0, lsl r1
   18120:	00018118 	andeq	r8, r1, r8, lsl r1
   18124:	00018118 	andeq	r8, r1, r8, lsl r1
   18128:	00018120 	andeq	r8, r1, r0, lsr #2
   1812c:	00018120 	andeq	r8, r1, r0, lsr #2
   18130:	00018128 	andeq	r8, r1, r8, lsr #2
   18134:	00018128 	andeq	r8, r1, r8, lsr #2
   18138:	00018130 	andeq	r8, r1, r0, lsr r1
   1813c:	00018130 	andeq	r8, r1, r0, lsr r1
   18140:	00018138 	andeq	r8, r1, r8, lsr r1
   18144:	00018138 	andeq	r8, r1, r8, lsr r1
   18148:	00018140 	andeq	r8, r1, r0, asr #2
   1814c:	00018140 	andeq	r8, r1, r0, asr #2
   18150:	00018148 	andeq	r8, r1, r8, asr #2
   18154:	00018148 	andeq	r8, r1, r8, asr #2
   18158:	00018150 	andeq	r8, r1, r0, asr r1
   1815c:	00018150 	andeq	r8, r1, r0, asr r1
   18160:	00018158 	andeq	r8, r1, r8, asr r1
   18164:	00018158 	andeq	r8, r1, r8, asr r1
   18168:	00018160 	andeq	r8, r1, r0, ror #2
   1816c:	00018160 	andeq	r8, r1, r0, ror #2
   18170:	00018168 	andeq	r8, r1, r8, ror #2
   18174:	00018168 	andeq	r8, r1, r8, ror #2
   18178:	00018170 	andeq	r8, r1, r0, ror r1
   1817c:	00018170 	andeq	r8, r1, r0, ror r1

00018180 <__malloc_sbrk_base>:
   18180:	ffffffff 			; <UNDEFINED> instruction: 0xffffffff

00018184 <__malloc_trim_threshold>:
   18184:	00020000 	andeq	r0, r2, r0

00018188 <_tzname>:
   18188:	0001718c 	andeq	r7, r1, ip, lsl #3
   1818c:	0001718c 	andeq	r7, r1, ip, lsl #3

00018190 <tzinfo>:
   18190:	00000001 	andeq	r0, r0, r1
   18194:	00000000 	andeq	r0, r0, r0
   18198:	0000004a 	andeq	r0, r0, sl, asr #32
	...
   181b4:	0000004a 	andeq	r0, r0, sl, asr #32
	...

000181d0 <lc_ctype_charset>:
   181d0:	49435341 	stmdbmi	r3, {r0, r6, r8, r9, ip, lr}^
   181d4:	00000049 	andeq	r0, r0, r9, asr #32
	...

000181f0 <__mb_cur_max>:
   181f0:	00000001 	andeq	r0, r0, r1

000181f4 <lc_message_charset>:
   181f4:	49435341 	stmdbmi	r3, {r0, r6, r8, r9, ip, lr}^
   181f8:	00000049 	andeq	r0, r0, r9, asr #32
	...

00018214 <lconv>:
   18214:	000171ec 	andeq	r7, r1, ip, ror #3
   18218:	00016fc0 	andeq	r6, r1, r0, asr #31
   1821c:	00016fc0 	andeq	r6, r1, r0, asr #31
   18220:	00016fc0 	andeq	r6, r1, r0, asr #31
   18224:	00016fc0 	andeq	r6, r1, r0, asr #31
   18228:	00016fc0 	andeq	r6, r1, r0, asr #31
   1822c:	00016fc0 	andeq	r6, r1, r0, asr #31
   18230:	00016fc0 	andeq	r6, r1, r0, asr #31
   18234:	00016fc0 	andeq	r6, r1, r0, asr #31
   18238:	00016fc0 	andeq	r6, r1, r0, asr #31
   1823c:	ffffffff 			; <UNDEFINED> instruction: 0xffffffff
   18240:	ffffffff 			; <UNDEFINED> instruction: 0xffffffff
   18244:	ffffffff 			; <UNDEFINED> instruction: 0xffffffff
   18248:	0000ffff 	strdeq	pc, [r0], -pc	; <UNPREDICTABLE>

0001824c <__wctomb>:
   1824c:	00015d10 	andeq	r5, r1, r0, lsl sp

Disassembly of section .bss:

00018250 <dmx_slot_to_slot>:
   18250:	00000000 	andeq	r0, r0, r0

00018254 <dmx_slots_in_packet>:
   18254:	00000000 	andeq	r0, r0, r0

00018258 <rdm_data_buffer_index_tail>:
	...

0001825a <rdm_data_buffer_index_head>:
	...

0001825c <rdm_data_buffer>:
	...

0001a25c <dmx_available>:
	...

0001a25d <dmx_port_direction>:
   1a25d:	00000000 	andeq	r0, r0, r0

0001a260 <rdm_data_receive_end>:
	...

0001a268 <dmx_statistics>:
	...

0001a274 <total_statistics>:
	...

0001a27c <dmx_fiq_micros_current>:
   1a27c:	00000000 	andeq	r0, r0, r0

0001a280 <dmx_receive_state>:
	...

0001a282 <dmx_data_index>:
	...

0001a284 <dmx_fiq_micros_previous>:
   1a284:	00000000 	andeq	r0, r0, r0

0001a288 <rdm_checksum>:
   1a288:	00000000 	andeq	r0, r0, r0

0001a28c <irq_counter>:
   1a28c:	00000000 	andeq	r0, r0, r0

0001a290 <irq_counter>:
   1a290:	00000000 	andeq	r0, r0, r0

0001a294 <rdm_device_info>:
	...

0001a2a7 <root_device_label_length>:
	...

0001a2a8 <root_device_label>:
	...

0001a2c8 <factory_defaults_checksum>:
   1a2c8:	00000000 	andeq	r0, r0, r0

0001a2cc <device_sn>:
   1a2cc:	00000000 	andeq	r0, r0, r0

0001a2d0 <rdm_sub_device_info>:
	...

0001a2e4 <rdm_message_count>:
	...

0001a2e5 <rdm_muted>:
   1a2e5:	00000000 	andeq	r0, r0, r0

0001a2e8 <rdm_handlers_rdm_data>:
   1a2e8:	00000000 	andeq	r0, r0, r0

0001a2ec <rdm_identify_enabled>:
   1a2ec:	00000000 	andeq	r0, r0, r0

0001a2f0 <heap_end>:
   1a2f0:	00000000 	andeq	r0, r0, r0

0001a2f4 <cur_y>:
   1a2f4:	00000000 	andeq	r0, r0, r0

0001a2f8 <cur_x>:
   1a2f8:	00000000 	andeq	r0, r0, r0

0001a2fc <cur_back>:
   1a2fc:	00000000 	andeq	r0, r0, r0

0001a300 <hardware_init_startup_micros>:
	...

0001a308 <sys_time_init_startup_micros>:
	...

0001a310 <rtc_startup_seconds>:
	...

0001a318 <__malloc_top_pad>:
   1a318:	00000000 	andeq	r0, r0, r0

0001a31c <__malloc_current_mallinfo>:
	...

0001a344 <__malloc_max_sbrked_mem>:
   1a344:	00000000 	andeq	r0, r0, r0

0001a348 <__malloc_max_total_mem>:
   1a348:	00000000 	andeq	r0, r0, r0

0001a34c <_timezone>:
   1a34c:	00000000 	andeq	r0, r0, r0

0001a350 <_daylight>:
   1a350:	00000000 	andeq	r0, r0, r0

0001a354 <_PathLocale>:
   1a354:	00000000 	andeq	r0, r0, r0

0001a358 <__mlocale_changed>:
   1a358:	00000000 	andeq	r0, r0, r0

0001a35c <__nlocale_changed>:
   1a35c:	00000000 	andeq	r0, r0, r0

0001a360 <dmx_data>:
	...

0001a568 <events_elapsed_time>:
	...

0001a578 <fb_pitch>:
   1a578:	00000000 	andeq	r0, r0, r0

0001a57c <fb_width>:
   1a57c:	00000000 	andeq	r0, r0, r0

0001a580 <fb_depth>:
   1a580:	00000000 	andeq	r0, r0, r0

0001a584 <fb_addr>:
   1a584:	00000000 	andeq	r0, r0, r0

0001a588 <fb_height>:
   1a588:	00000000 	andeq	r0, r0, r0

0001a58c <fb_size>:
   1a58c:	00000000 	andeq	r0, r0, r0

0001a590 <errno>:
   1a590:	00000000 	andeq	r0, r0, r0
