
build/main.elf:     file format elf32-littlearm


Disassembly of section .init:

00008000 <__ram_start>:
    8000:	e59ff018 	ldr	pc, [pc, #24]	; 8020 <reset_handler>
    8004:	e59ff018 	ldr	pc, [pc, #24]	; 8024 <undefined_handler>
    8008:	e59ff018 	ldr	pc, [pc, #24]	; 8028 <swi_handler>
    800c:	e59ff018 	ldr	pc, [pc, #24]	; 802c <prefetch_handler>
    8010:	e59ff018 	ldr	pc, [pc, #24]	; 8030 <data_handler>
    8014:	e59ff018 	ldr	pc, [pc, #24]	; 8034 <unused_handler>
    8018:	e59ff018 	ldr	pc, [pc, #24]	; 8038 <irq_handler>
    801c:	e59ff018 	ldr	pc, [pc, #24]	; 803c <fiq_handler>

00008020 <reset_handler>:
    8020:	00008040 	andeq	r8, r0, r0, asr #32

00008024 <undefined_handler>:
    8024:	00008100 	andeq	r8, r0, r0, lsl #2

00008028 <swi_handler>:
    8028:	00008100 	andeq	r8, r0, r0, lsl #2

0000802c <prefetch_handler>:
    802c:	00008100 	andeq	r8, r0, r0, lsl #2

00008030 <data_handler>:
    8030:	00008100 	andeq	r8, r0, r0, lsl #2

00008034 <unused_handler>:
    8034:	00008100 	andeq	r8, r0, r0, lsl #2

00008038 <irq_handler>:
    8038:	000080d0 	ldrdeq	r8, [r0], -r0

0000803c <fiq_handler>:
    803c:	000080d4 	ldrdeq	r8, [r0], -r4

00008040 <reset>:
    8040:	e59f1090 	ldr	r1, [pc, #144]	; 80d8 <fiq+0x4>
    8044:	e3a02000 	mov	r2, #0
    8048:	e59f308c 	ldr	r3, [pc, #140]	; 80dc <fiq+0x8>
    804c:	e1520003 	cmp	r2, r3
    8050:	34910004 	ldrcc	r0, [r1], #4
    8054:	34820004 	strcc	r0, [r2], #4
    8058:	3afffffb 	bcc	804c <reset+0xc>
    805c:	e321f0d2 	msr	CPSR_c, #210	; 0xd2
    8060:	e59f0078 	ldr	r0, [pc, #120]	; 80e0 <fiq+0xc>
    8064:	e1a0d000 	mov	sp, r0
    8068:	e321f0d1 	msr	CPSR_c, #209	; 0xd1
    806c:	e59f0070 	ldr	r0, [pc, #112]	; 80e4 <fiq+0x10>
    8070:	e1a0d000 	mov	sp, r0
    8074:	e321f0d3 	msr	CPSR_c, #211	; 0xd3
    8078:	e59f0068 	ldr	r0, [pc, #104]	; 80e8 <fiq+0x14>
    807c:	e1a0d000 	mov	sp, r0
    8080:	ee110f10 	mrc	15, 0, r0, cr1, cr0, {0}
    8084:	e3800004 	orr	r0, r0, #4
    8088:	e3800b02 	orr	r0, r0, #2048	; 0x800
    808c:	e3800a01 	orr	r0, r0, #4096	; 0x1000
    8090:	ee010f10 	mcr	15, 0, r0, cr1, cr0, {0}
    8094:	ee110f50 	mrc	15, 0, r0, cr1, cr0, {2}
    8098:	e3800603 	orr	r0, r0, #3145728	; 0x300000
    809c:	e3800503 	orr	r0, r0, #12582912	; 0xc00000
    80a0:	ee010f50 	mcr	15, 0, r0, cr1, cr0, {2}
    80a4:	e3a00101 	mov	r0, #1073741824	; 0x40000000
    80a8:	eee80a10 	vmsr	fpexc, r0
    80ac:	e3a00000 	mov	r0, #0
    80b0:	e59f1034 	ldr	r1, [pc, #52]	; 80ec <fiq+0x18>
    80b4:	e59f2034 	ldr	r2, [pc, #52]	; 80f0 <fiq+0x1c>
    80b8:	e1510002 	cmp	r1, r2
    80bc:	34810004 	strcc	r0, [r1], #4
    80c0:	3afffffc 	bcc	80b8 <reset+0x78>
    80c4:	eb000509 	bl	94f0 <notmain>

000080c8 <halt>:
    80c8:	e320f002 	wfe
    80cc:	eafffffd 	b	80c8 <halt>

000080d0 <irq>:
    80d0:	ea000219 	b	893c <c_irq_handler>

000080d4 <fiq>:
    80d4:	ea0000f1 	b	84a0 <c_fiq_handler>
    80d8:	00008000 	andeq	r8, r0, r0
    80dc:	00008020 	andeq	r8, r0, r0, lsr #32
    80e0:	00012130 	andeq	r2, r1, r0, lsr r1
    80e4:	00011d30 	andeq	r1, r1, r0, lsr sp
    80e8:	00012530 	andeq	r2, r1, r0, lsr r5
    80ec:	0000ec60 	andeq	lr, r0, r0, ror #24
    80f0:	00011130 	andeq	r1, r1, r0, lsr r1

Disassembly of section .text:

00008100 <hang>:
    8100:	eafffffe 	b	8100 <hang>

00008104 <__enable_irq>:
    8104:	e10f0000 	mrs	r0, CPSR
    8108:	e3c00080 	bic	r0, r0, #128	; 0x80
    810c:	e121f000 	msr	CPSR_c, r0
    8110:	e12fff1e 	bx	lr

00008114 <__disable_irq>:
    8114:	e10f1000 	mrs	r1, CPSR
    8118:	e3811080 	orr	r1, r1, #128	; 0x80
    811c:	e121f001 	msr	CPSR_c, r1
    8120:	e12fff1e 	bx	lr

00008124 <__enable_fiq>:
    8124:	e10f0000 	mrs	r0, CPSR
    8128:	e3c00040 	bic	r0, r0, #64	; 0x40
    812c:	e121f000 	msr	CPSR_c, r0
    8130:	e12fff1e 	bx	lr

00008134 <__disable_fiq>:
    8134:	e10f1000 	mrs	r1, CPSR
    8138:	e3811040 	orr	r1, r1, #64	; 0x40
    813c:	e121f001 	msr	CPSR_c, r1
    8140:	e12fff1e 	bx	lr

00008144 <memory_barrier>:
    8144:	e3a00000 	mov	r0, #0
    8148:	ee070fba 	mcr	15, 0, r0, cr7, cr10, {5}
    814c:	e12fff1e 	bx	lr

00008150 <dmx_get_output_period>:
    8150:	e59f3004 	ldr	r3, [pc, #4]	; 815c <dmx_get_output_period+0xc>
    8154:	e5930000 	ldr	r0, [r3]
    8158:	e12fff1e 	bx	lr
    815c:	0000e7b8 			; <UNDEFINED> instruction: 0x0000e7b8

00008160 <dmx_set_output_period>:
    8160:	e52de004 	push	{lr}		; (str lr, [sp, #-4]!)
    8164:	e3a0e02c 	mov	lr, #44	; 0x2c
    8168:	e59f1068 	ldr	r1, [pc, #104]	; 81d8 <dmx_set_output_period+0x78>
    816c:	e3500000 	cmp	r0, #0
    8170:	e5913008 	ldr	r3, [r1, #8]
    8174:	e591c004 	ldr	ip, [r1, #4]
    8178:	e1d120bc 	ldrh	r2, [r1, #12]
    817c:	e08cc003 	add	ip, ip, r3
    8180:	e023c29e 	mla	r3, lr, r2, ip
    8184:	0a00000a 	beq	81b4 <dmx_set_output_period+0x54>
    8188:	e1530000 	cmp	r3, r0
    818c:	9a000003 	bls	81a0 <dmx_set_output_period+0x40>
    8190:	e59f2044 	ldr	r2, [pc, #68]	; 81dc <dmx_set_output_period+0x7c>
    8194:	e2830004 	add	r0, r3, #4
    8198:	e1500002 	cmp	r0, r2
    819c:	31a00002 	movcc	r0, r2
    81a0:	e3a02000 	mov	r2, #0
    81a4:	e59f3034 	ldr	r3, [pc, #52]	; 81e0 <dmx_set_output_period+0x80>
    81a8:	e5810000 	str	r0, [r1]
    81ac:	e5c32000 	strb	r2, [r3]
    81b0:	e49df004 	pop	{pc}		; (ldr pc, [sp], #4)
    81b4:	e59f2020 	ldr	r2, [pc, #32]	; 81dc <dmx_set_output_period+0x7c>
    81b8:	e2833004 	add	r3, r3, #4
    81bc:	e1530002 	cmp	r3, r2
    81c0:	31a03002 	movcc	r3, r2
    81c4:	e3a00001 	mov	r0, #1
    81c8:	e59f2010 	ldr	r2, [pc, #16]	; 81e0 <dmx_set_output_period+0x80>
    81cc:	e5813000 	str	r3, [r1]
    81d0:	e5c20000 	strb	r0, [r2]
    81d4:	e49df004 	pop	{pc}		; (ldr pc, [sp], #4)
    81d8:	0000e7b8 			; <UNDEFINED> instruction: 0x0000e7b8
    81dc:	000004b4 			; <UNDEFINED> instruction: 0x000004b4
    81e0:	0000ec60 	andeq	lr, r0, r0, ror #24

000081e4 <dmx_get_send_data_length>:
    81e4:	e59f3004 	ldr	r3, [pc, #4]	; 81f0 <dmx_get_send_data_length+0xc>
    81e8:	e1d300bc 	ldrh	r0, [r3, #12]
    81ec:	e12fff1e 	bx	lr
    81f0:	0000e7b8 			; <UNDEFINED> instruction: 0x0000e7b8

000081f4 <dmx_set_send_data_length>:
    81f4:	e59f2048 	ldr	r2, [pc, #72]	; 8244 <dmx_set_send_data_length+0x50>
    81f8:	e59f3048 	ldr	r3, [pc, #72]	; 8248 <dmx_set_send_data_length+0x54>
    81fc:	e5d21000 	ldrb	r1, [r2]
    8200:	e1c300bc 	strh	r0, [r3, #12]
    8204:	e3510000 	cmp	r1, #0
    8208:	012fff1e 	bxeq	lr
    820c:	e92d4010 	push	{r4, lr}
    8210:	e3a0e02c 	mov	lr, #44	; 0x2c
    8214:	e5931008 	ldr	r1, [r3, #8]
    8218:	e5934004 	ldr	r4, [r3, #4]
    821c:	e59fc028 	ldr	ip, [pc, #40]	; 824c <dmx_set_send_data_length+0x58>
    8220:	e0811004 	add	r1, r1, r4
    8224:	e2811004 	add	r1, r1, #4
    8228:	e020109e 	mla	r0, lr, r0, r1
    822c:	e150000c 	cmp	r0, ip
    8230:	31a0000c 	movcc	r0, ip
    8234:	e3a01001 	mov	r1, #1
    8238:	e5830000 	str	r0, [r3]
    823c:	e5c21000 	strb	r1, [r2]
    8240:	e8bd8010 	pop	{r4, pc}
    8244:	0000ec60 	andeq	lr, r0, r0, ror #24
    8248:	0000e7b8 			; <UNDEFINED> instruction: 0x0000e7b8
    824c:	000004b4 			; <UNDEFINED> instruction: 0x000004b4

00008250 <dmx_get_statistics>:
    8250:	e59f0000 	ldr	r0, [pc]	; 8258 <dmx_get_statistics+0x8>
    8254:	e12fff1e 	bx	lr
    8258:	0000ec64 	andeq	lr, r0, r4, ror #24

0000825c <rdm_get_available>:
    825c:	e59f3024 	ldr	r3, [pc, #36]	; 8288 <rdm_get_available+0x2c>
    8260:	e1d321b8 	ldrh	r2, [r3, #24]
    8264:	e1d311ba 	ldrh	r1, [r3, #26]
    8268:	e1510002 	cmp	r1, r2
    826c:	12821001 	addne	r1, r2, #1
    8270:	1283001c 	addne	r0, r3, #28
    8274:	1201100f 	andne	r1, r1, #15
    8278:	10800482 	addne	r0, r0, r2, lsl #9
    827c:	11c311b8 	strhne	r1, [r3, #24]
    8280:	03a00000 	moveq	r0, #0
    8284:	e12fff1e 	bx	lr
    8288:	0000ec60 	andeq	lr, r0, r0, ror #24

0000828c <rdm_get_current_data>:
    828c:	e59f300c 	ldr	r3, [pc, #12]	; 82a0 <rdm_get_current_data+0x14>
    8290:	e1d301b8 	ldrh	r0, [r3, #24]
    8294:	e283301c 	add	r3, r3, #28
    8298:	e0830480 	add	r0, r3, r0, lsl #9
    829c:	e12fff1e 	bx	lr
    82a0:	0000ec60 	andeq	lr, r0, r0, ror #24

000082a4 <dmx_get_available>:
    82a4:	e59f3004 	ldr	r3, [pc, #4]	; 82b0 <dmx_get_available+0xc>
    82a8:	e5d30024 	ldrb	r0, [r3, #36]	; 0x24
    82ac:	e12fff1e 	bx	lr
    82b0:	00010c58 	andeq	r0, r1, r8, asr ip

000082b4 <dmx_set_available_false>:
    82b4:	e3a02000 	mov	r2, #0
    82b8:	e59f3004 	ldr	r3, [pc, #4]	; 82c4 <dmx_set_available_false+0x10>
    82bc:	e5c32024 	strb	r2, [r3, #36]	; 0x24
    82c0:	e12fff1e 	bx	lr
    82c4:	00010c58 	andeq	r0, r1, r8, asr ip

000082c8 <dmx_is_data_changed>:
    82c8:	e59f3098 	ldr	r3, [pc, #152]	; 8368 <dmx_is_data_changed+0xa0>
    82cc:	e92d4010 	push	{r4, lr}
    82d0:	e59fe094 	ldr	lr, [pc, #148]	; 836c <dmx_is_data_changed+0xa4>
    82d4:	e5932008 	ldr	r2, [r3, #8]
    82d8:	e59e322c 	ldr	r3, [lr, #556]	; 0x22c
    82dc:	e1520003 	cmp	r2, r3
    82e0:	0a000014 	beq	8338 <dmx_is_data_changed+0x70>
    82e4:	e59f3084 	ldr	r3, [pc, #132]	; 8370 <dmx_is_data_changed+0xa8>
    82e8:	e58e222c 	str	r2, [lr, #556]	; 0x22c
    82ec:	e5d30001 	ldrb	r0, [r3, #1]
    82f0:	e5d32002 	ldrb	r2, [r3, #2]
    82f4:	e1a04003 	mov	r4, r3
    82f8:	e1a01003 	mov	r1, r3
    82fc:	e5d33003 	ldrb	r3, [r3, #3]
    8300:	e5ce202a 	strb	r2, [lr, #42]	; 0x2a
    8304:	e5ce302b 	strb	r3, [lr, #43]	; 0x2b
    8308:	e5ce0029 	strb	r0, [lr, #41]	; 0x29
    830c:	e28e202c 	add	r2, lr, #44	; 0x2c
    8310:	e28e3f8a 	add	r3, lr, #552	; 0x228
    8314:	e5b10004 	ldr	r0, [r1, #4]!
    8318:	e59fc04c 	ldr	ip, [pc, #76]	; 836c <dmx_is_data_changed+0xa4>
    831c:	e4820004 	str	r0, [r2], #4
    8320:	e1520003 	cmp	r2, r3
    8324:	1afffffa 	bne	8314 <dmx_is_data_changed+0x4c>
    8328:	e5d43200 	ldrb	r3, [r4, #512]	; 0x200
    832c:	e3a00001 	mov	r0, #1
    8330:	e5cc3228 	strb	r3, [ip, #552]	; 0x228
    8334:	e8bd8010 	pop	{r4, pc}
    8338:	e3a00000 	mov	r0, #0
    833c:	e59f102c 	ldr	r1, [pc, #44]	; 8370 <dmx_is_data_changed+0xa8>
    8340:	e28e3028 	add	r3, lr, #40	; 0x28
    8344:	e28eef8a 	add	lr, lr, #552	; 0x228
    8348:	e5f3c001 	ldrb	ip, [r3, #1]!
    834c:	e5f12001 	ldrb	r2, [r1, #1]!
    8350:	e15c0002 	cmp	ip, r2
    8354:	13a00001 	movne	r0, #1
    8358:	15c32000 	strbne	r2, [r3]
    835c:	e153000e 	cmp	r3, lr
    8360:	1afffff8 	bne	8348 <dmx_is_data_changed+0x80>
    8364:	e8bd8010 	pop	{r4, pc}
    8368:	0000ec60 	andeq	lr, r0, r0, ror #24
    836c:	00010c58 	andeq	r0, r1, r8, asr ip
    8370:	00010f28 	andeq	r0, r1, r8, lsr #30

00008374 <dmx_get_port_direction>:
    8374:	e59f3004 	ldr	r3, [pc, #4]	; 8380 <dmx_get_port_direction+0xc>
    8378:	e5d3000e 	ldrb	r0, [r3, #14]
    837c:	e12fff1e 	bx	lr
    8380:	0000e7b8 			; <UNDEFINED> instruction: 0x0000e7b8

00008384 <rdm_get_data_receive_end>:
    8384:	e59f3004 	ldr	r3, [pc, #4]	; 8390 <rdm_get_data_receive_end+0xc>
    8388:	e5930230 	ldr	r0, [r3, #560]	; 0x230
    838c:	e12fff1e 	bx	lr
    8390:	00010c58 	andeq	r0, r1, r8, asr ip

00008394 <dmx_get_output_break_time>:
    8394:	e59f3004 	ldr	r3, [pc, #4]	; 83a0 <dmx_get_output_break_time+0xc>
    8398:	e5930008 	ldr	r0, [r3, #8]
    839c:	e12fff1e 	bx	lr
    83a0:	0000e7b8 			; <UNDEFINED> instruction: 0x0000e7b8

000083a4 <dmx_set_output_break_time>:
    83a4:	e350005c 	cmp	r0, #92	; 0x5c
    83a8:	33a0005c 	movcc	r0, #92	; 0x5c
    83ac:	e59fc048 	ldr	ip, [pc, #72]	; 83fc <dmx_set_output_break_time+0x58>
    83b0:	e59f1048 	ldr	r1, [pc, #72]	; 8400 <dmx_set_output_break_time+0x5c>
    83b4:	e5dc3000 	ldrb	r3, [ip]
    83b8:	e5810008 	str	r0, [r1, #8]
    83bc:	e3530000 	cmp	r3, #0
    83c0:	012fff1e 	bxeq	lr
    83c4:	e52de004 	push	{lr}		; (str lr, [sp, #-4]!)
    83c8:	e3a0e02c 	mov	lr, #44	; 0x2c
    83cc:	e5913004 	ldr	r3, [r1, #4]
    83d0:	e1d120bc 	ldrh	r2, [r1, #12]
    83d4:	e2833004 	add	r3, r3, #4
    83d8:	e023329e 	mla	r3, lr, r2, r3
    83dc:	e59f2020 	ldr	r2, [pc, #32]	; 8404 <dmx_set_output_break_time+0x60>
    83e0:	e0830000 	add	r0, r3, r0
    83e4:	e1500002 	cmp	r0, r2
    83e8:	31a00002 	movcc	r0, r2
    83ec:	e3a03001 	mov	r3, #1
    83f0:	e5810000 	str	r0, [r1]
    83f4:	e5cc3000 	strb	r3, [ip]
    83f8:	e49df004 	pop	{pc}		; (ldr pc, [sp], #4)
    83fc:	0000ec60 	andeq	lr, r0, r0, ror #24
    8400:	0000e7b8 			; <UNDEFINED> instruction: 0x0000e7b8
    8404:	000004b4 			; <UNDEFINED> instruction: 0x000004b4

00008408 <dmx_get_output_mab_time>:
    8408:	e59f3004 	ldr	r3, [pc, #4]	; 8414 <dmx_get_output_mab_time+0xc>
    840c:	e5930004 	ldr	r0, [r3, #4]
    8410:	e12fff1e 	bx	lr
    8414:	0000e7b8 			; <UNDEFINED> instruction: 0x0000e7b8

00008418 <dmx_set_output_mab_time>:
    8418:	e350000c 	cmp	r0, #12
    841c:	33a0000c 	movcc	r0, #12
    8420:	e59fc048 	ldr	ip, [pc, #72]	; 8470 <dmx_set_output_mab_time+0x58>
    8424:	e59f1048 	ldr	r1, [pc, #72]	; 8474 <dmx_set_output_mab_time+0x5c>
    8428:	e5dc3000 	ldrb	r3, [ip]
    842c:	e5810004 	str	r0, [r1, #4]
    8430:	e3530000 	cmp	r3, #0
    8434:	012fff1e 	bxeq	lr
    8438:	e52de004 	push	{lr}		; (str lr, [sp, #-4]!)
    843c:	e3a0e02c 	mov	lr, #44	; 0x2c
    8440:	e5913008 	ldr	r3, [r1, #8]
    8444:	e1d120bc 	ldrh	r2, [r1, #12]
    8448:	e2833004 	add	r3, r3, #4
    844c:	e023329e 	mla	r3, lr, r2, r3
    8450:	e59f2020 	ldr	r2, [pc, #32]	; 8478 <dmx_set_output_mab_time+0x60>
    8454:	e0830000 	add	r0, r3, r0
    8458:	e1500002 	cmp	r0, r2
    845c:	31a00002 	movcc	r0, r2
    8460:	e3a03001 	mov	r3, #1
    8464:	e5810000 	str	r0, [r1]
    8468:	e5cc3000 	strb	r3, [ip]
    846c:	e49df004 	pop	{pc}		; (ldr pc, [sp], #4)
    8470:	0000ec60 	andeq	lr, r0, r0, ror #24
    8474:	0000e7b8 			; <UNDEFINED> instruction: 0x0000e7b8
    8478:	000004b4 			; <UNDEFINED> instruction: 0x000004b4

0000847c <dmx_reset_total_statistics>:
    847c:	e3a02000 	mov	r2, #0
    8480:	e59f3008 	ldr	r3, [pc, #8]	; 8490 <dmx_reset_total_statistics+0x14>
    8484:	e5832234 	str	r2, [r3, #564]	; 0x234
    8488:	e5832238 	str	r2, [r3, #568]	; 0x238
    848c:	e12fff1e 	bx	lr
    8490:	00010c58 	andeq	r0, r1, r8, asr ip

00008494 <dmx_get_total_statistics>:
    8494:	e59f0000 	ldr	r0, [pc]	; 849c <dmx_get_total_statistics+0x8>
    8498:	e12fff1e 	bx	lr
    849c:	00010e8c 	andeq	r0, r1, ip, lsl #29

000084a0 <c_fiq_handler>:
    84a0:	e24ee004 	sub	lr, lr, #4
    84a4:	e92d40ff 	push	{r0, r1, r2, r3, r4, r5, r6, r7, lr}
    84a8:	e3a03000 	mov	r3, #0
    84ac:	ee073fba 	mcr	15, 0, r3, cr7, cr10, {5}
    84b0:	e3a01b02 	mov	r1, #2048	; 0x800
    84b4:	e59f2468 	ldr	r2, [pc, #1128]	; 8924 <c_fiq_handler+0x484>
    84b8:	e59f3468 	ldr	r3, [pc, #1128]	; 8928 <c_fiq_handler+0x488>
    84bc:	e582101c 	str	r1, [r2, #28]
    84c0:	e5931004 	ldr	r1, [r3, #4]
    84c4:	e59f3460 	ldr	r3, [pc, #1120]	; 892c <c_fiq_handler+0x48c>
    84c8:	e2822a01 	add	r2, r2, #4096	; 0x1000
    84cc:	e583123c 	str	r1, [r3, #572]	; 0x23c
    84d0:	e5921000 	ldr	r1, [r2]
    84d4:	e3110b01 	tst	r1, #1024	; 0x400
    84d8:	1a000029 	bne	8584 <c_fiq_handler+0xe4>
    84dc:	e5922000 	ldr	r2, [r2]
    84e0:	e5d31240 	ldrb	r1, [r3, #576]	; 0x240
    84e4:	e6ef2072 	uxtb	r2, r2
    84e8:	e3510009 	cmp	r1, #9
    84ec:	979ff101 	ldrls	pc, [pc, r1, lsl #2]
    84f0:	ea00001b 	b	8564 <c_fiq_handler+0xc4>
    84f4:	00008618 	andeq	r8, r0, r8, lsl r6
    84f8:	0000851c 	andeq	r8, r0, ip, lsl r5
    84fc:	00008564 	andeq	r8, r0, r4, ror #10
    8500:	0000864c 	andeq	r8, r0, ip, asr #12
    8504:	000086d4 	ldrdeq	r8, [r0], -r4
    8508:	0000872c 	andeq	r8, r0, ip, lsr #14
    850c:	00008768 	andeq	r8, r0, r8, ror #14
    8510:	000087ec 	andeq	r8, r0, ip, ror #15
    8514:	00008828 	andeq	r8, r0, r8, lsr #16
    8518:	000085a8 	andeq	r8, r0, r8, lsr #11
    851c:	e3520000 	cmp	r2, #0
    8520:	0a0000e9 	beq	88cc <c_fiq_handler+0x42c>
    8524:	e35200cc 	cmp	r2, #204	; 0xcc
    8528:	1a0000fa 	bne	8918 <c_fiq_handler+0x478>
    852c:	e3a0e001 	mov	lr, #1
    8530:	e3e05033 	mvn	r5, #51	; 0x33
    8534:	e3a04004 	mov	r4, #4
    8538:	e59f13f0 	ldr	r1, [pc, #1008]	; 8930 <c_fiq_handler+0x490>
    853c:	e5930238 	ldr	r0, [r3, #568]	; 0x238
    8540:	e1d161ba 	ldrh	r6, [r1, #26]
    8544:	e59fc3e8 	ldr	ip, [pc, #1000]	; 8934 <c_fiq_handler+0x494>
    8548:	e0811486 	add	r1, r1, r6, lsl #9
    854c:	e080000e 	add	r0, r0, lr
    8550:	e5c1501c 	strb	r5, [r1, #28]
    8554:	e5830238 	str	r0, [r3, #568]	; 0x238
    8558:	e5c34240 	strb	r4, [r3, #576]	; 0x240
    855c:	e1cce0b0 	strh	lr, [ip]
    8560:	e1cc20b2 	strh	r2, [ip, #2]
    8564:	e3a01b02 	mov	r1, #2048	; 0x800
    8568:	e593023c 	ldr	r0, [r3, #572]	; 0x23c
    856c:	e59f23b0 	ldr	r2, [pc, #944]	; 8924 <c_fiq_handler+0x484>
    8570:	e5830250 	str	r0, [r3, #592]	; 0x250
    8574:	e3a03000 	mov	r3, #0
    8578:	e5821028 	str	r1, [r2, #40]	; 0x28
    857c:	ee073fba 	mcr	15, 0, r3, cr7, cr10, {5}
    8580:	e8fd80ff 	ldm	sp!, {r0, r1, r2, r3, r4, r5, r6, r7, pc}^
    8584:	e3a00001 	mov	r0, #1
    8588:	e593223c 	ldr	r2, [r3, #572]	; 0x23c
    858c:	e5931244 	ldr	r1, [r3, #580]	; 0x244
    8590:	e5c30240 	strb	r0, [r3, #576]	; 0x240
    8594:	e0612002 	rsb	r2, r1, r2
    8598:	e5832248 	str	r2, [r3, #584]	; 0x248
    859c:	e593223c 	ldr	r2, [r3, #572]	; 0x23c
    85a0:	e5832244 	str	r2, [r3, #580]	; 0x244
    85a4:	eaffffee 	b	8564 <c_fiq_handler+0xc4>
    85a8:	e59f4380 	ldr	r4, [pc, #896]	; 8930 <c_fiq_handler+0x490>
    85ac:	e59f5378 	ldr	r5, [pc, #888]	; 892c <c_fiq_handler+0x48c>
    85b0:	e5d31254 	ldrb	r1, [r3, #596]	; 0x254
    85b4:	e2856f93 	add	r6, r5, #588	; 0x24c
    85b8:	e1d4e1ba 	ldrh	lr, [r4, #26]
    85bc:	e1d600b0 	ldrh	r0, [r6]
    85c0:	e2811001 	add	r1, r1, #1
    85c4:	e6ef1071 	uxtb	r1, r1
    85c8:	e084c48e 	add	ip, r4, lr, lsl #9
    85cc:	e08cc000 	add	ip, ip, r0
    85d0:	e3510004 	cmp	r1, #4
    85d4:	e2800001 	add	r0, r0, #1
    85d8:	e5cc201c 	strb	r2, [ip, #28]
    85dc:	e1c600b0 	strh	r0, [r6]
    85e0:	e5c31254 	strb	r1, [r3, #596]	; 0x254
    85e4:	1affffde 	bne	8564 <c_fiq_handler+0xc4>
    85e8:	e3a00000 	mov	r0, #0
    85ec:	e3a01c01 	mov	r1, #256	; 0x100
    85f0:	e59f2330 	ldr	r2, [pc, #816]	; 8928 <c_fiq_handler+0x488>
    85f4:	e28ee001 	add	lr, lr, #1
    85f8:	e592c004 	ldr	ip, [r2, #4]
    85fc:	e59f2320 	ldr	r2, [pc, #800]	; 8924 <c_fiq_handler+0x484>
    8600:	e20ee00f 	and	lr, lr, #15
    8604:	e1c4e1ba 	strh	lr, [r4, #26]
    8608:	e585c230 	str	ip, [r5, #560]	; 0x230
    860c:	e5c50240 	strb	r0, [r5, #576]	; 0x240
    8610:	e582101c 	str	r1, [r2, #28]
    8614:	eaffffd2 	b	8564 <c_fiq_handler+0xc4>
    8618:	e35200fe 	cmp	r2, #254	; 0xfe
    861c:	1affffd0 	bne	8564 <c_fiq_handler+0xc4>
    8620:	e3e0c001 	mvn	ip, #1
    8624:	e3a04007 	mov	r4, #7
    8628:	e3a00001 	mov	r0, #1
    862c:	e59f22fc 	ldr	r2, [pc, #764]	; 8930 <c_fiq_handler+0x490>
    8630:	e59f12fc 	ldr	r1, [pc, #764]	; 8934 <c_fiq_handler+0x494>
    8634:	e1d2e1ba 	ldrh	lr, [r2, #26]
    8638:	e5c34240 	strb	r4, [r3, #576]	; 0x240
    863c:	e082248e 	add	r2, r2, lr, lsl #9
    8640:	e5c2c01c 	strb	ip, [r2, #28]
    8644:	e1c100b0 	strh	r0, [r1]
    8648:	eaffffc5 	b	8564 <c_fiq_handler+0xc4>
    864c:	e3a07002 	mov	r7, #2
    8650:	e59f62d4 	ldr	r6, [pc, #724]	; 892c <c_fiq_handler+0x48c>
    8654:	e593e23c 	ldr	lr, [r3, #572]	; 0x23c
    8658:	e2864f93 	add	r4, r6, #588	; 0x24c
    865c:	e1d450b0 	ldrh	r5, [r4]
    8660:	e5930250 	ldr	r0, [r3, #592]	; 0x250
    8664:	e593123c 	ldr	r1, [r3, #572]	; 0x23c
    8668:	e285c001 	add	ip, r5, #1
    866c:	e060000e 	rsb	r0, r0, lr
    8670:	e6ffc07c 	uxth	ip, ip
    8674:	e59fe2ac 	ldr	lr, [pc, #684]	; 8928 <c_fiq_handler+0x488>
    8678:	e59f82b8 	ldr	r8, [pc, #696]	; 8938 <c_fiq_handler+0x498>
    867c:	e0811007 	add	r1, r1, r7
    8680:	e59f92a8 	ldr	r9, [pc, #680]	; 8930 <c_fiq_handler+0x490>
    8684:	e0811000 	add	r1, r1, r0
    8688:	e35c0c02 	cmp	ip, #512	; 0x200
    868c:	e7c82005 	strb	r2, [r8, r5]
    8690:	e1c4c0b0 	strh	ip, [r4]
    8694:	e58e1010 	str	r1, [lr, #16]
    8698:	e5890014 	str	r0, [r9, #20]
    869c:	e58e7000 	str	r7, [lr]
    86a0:	9affffaf 	bls	8564 <c_fiq_handler+0xc4>
    86a4:	e3a0eb01 	mov	lr, #1024	; 0x400
    86a8:	e3a00c01 	mov	r0, #256	; 0x100
    86ac:	e3a04000 	mov	r4, #0
    86b0:	e3a0c001 	mov	ip, #1
    86b4:	e3a01c02 	mov	r1, #512	; 0x200
    86b8:	e59f2264 	ldr	r2, [pc, #612]	; 8924 <c_fiq_handler+0x484>
    86bc:	e5c64240 	strb	r4, [r6, #576]	; 0x240
    86c0:	e582e028 	str	lr, [r2, #40]	; 0x28
    86c4:	e5c6c024 	strb	ip, [r6, #36]	; 0x24
    86c8:	e582001c 	str	r0, [r2, #28]
    86cc:	e5891008 	str	r1, [r9, #8]
    86d0:	eaffffa3 	b	8564 <c_fiq_handler+0xc4>
    86d4:	e59f5250 	ldr	r5, [pc, #592]	; 892c <c_fiq_handler+0x48c>
    86d8:	e2851f93 	add	r1, r5, #588	; 0x24c
    86dc:	e1d1c0b0 	ldrh	ip, [r1]
    86e0:	e35c0c02 	cmp	ip, #512	; 0x200
    86e4:	8a000063 	bhi	8878 <c_fiq_handler+0x3d8>
    86e8:	e59f0240 	ldr	r0, [pc, #576]	; 8930 <c_fiq_handler+0x490>
    86ec:	e28ce001 	add	lr, ip, #1
    86f0:	e1d041ba 	ldrh	r4, [r0, #26]
    86f4:	e1d160b2 	ldrh	r6, [r1, #2]
    86f8:	e1a04484 	lsl	r4, r4, #9
    86fc:	e0807004 	add	r7, r0, r4
    8700:	e087c00c 	add	ip, r7, ip
    8704:	e5cc201c 	strb	r2, [ip, #28]
    8708:	e5d7c01e 	ldrb	ip, [r7, #30]
    870c:	e6ff007e 	uxth	r0, lr
    8710:	e0822006 	add	r2, r2, r6
    8714:	e15c0000 	cmp	ip, r0
    8718:	e1c120b2 	strh	r2, [r1, #2]
    871c:	03a02005 	moveq	r2, #5
    8720:	e1c100b0 	strh	r0, [r1]
    8724:	05c52240 	strbeq	r2, [r5, #576]	; 0x240
    8728:	eaffff8d 	b	8564 <c_fiq_handler+0xc4>
    872c:	e3a04006 	mov	r4, #6
    8730:	e59f11f8 	ldr	r1, [pc, #504]	; 8930 <c_fiq_handler+0x490>
    8734:	e59f01f8 	ldr	r0, [pc, #504]	; 8934 <c_fiq_handler+0x494>
    8738:	e1d151ba 	ldrh	r5, [r1, #26]
    873c:	e1d0c0b0 	ldrh	ip, [r0]
    8740:	e1d0e0b2 	ldrh	lr, [r0, #2]
    8744:	e0811485 	add	r1, r1, r5, lsl #9
    8748:	e081100c 	add	r1, r1, ip
    874c:	e04ee402 	sub	lr, lr, r2, lsl #8
    8750:	e28cc001 	add	ip, ip, #1
    8754:	e5c1201c 	strb	r2, [r1, #28]
    8758:	e1c0c0b0 	strh	ip, [r0]
    875c:	e1c0e0b2 	strh	lr, [r0, #2]
    8760:	e5c34240 	strb	r4, [r3, #576]	; 0x240
    8764:	eaffff7e 	b	8564 <c_fiq_handler+0xc4>
    8768:	e59f61bc 	ldr	r6, [pc, #444]	; 892c <c_fiq_handler+0x48c>
    876c:	e59fe1bc 	ldr	lr, [pc, #444]	; 8930 <c_fiq_handler+0x490>
    8770:	e2860f93 	add	r0, r6, #588	; 0x24c
    8774:	e1d010b2 	ldrh	r1, [r0, #2]
    8778:	e1de51ba 	ldrh	r5, [lr, #26]
    877c:	e1d070b0 	ldrh	r7, [r0]
    8780:	e1a04485 	lsl	r4, r5, #9
    8784:	e0621001 	rsb	r1, r2, r1
    8788:	e6ff1071 	uxth	r1, r1
    878c:	e08ec004 	add	ip, lr, r4
    8790:	e2878001 	add	r8, r7, #1
    8794:	e08cc007 	add	ip, ip, r7
    8798:	e3510000 	cmp	r1, #0
    879c:	e1c080b0 	strh	r8, [r0]
    87a0:	e5cc201c 	strb	r2, [ip, #28]
    87a4:	e1c010b2 	strh	r1, [r0, #2]
    87a8:	1a000009 	bne	87d4 <c_fiq_handler+0x334>
    87ac:	e08e4004 	add	r4, lr, r4
    87b0:	e5d4201d 	ldrb	r2, [r4, #29]
    87b4:	e3520001 	cmp	r2, #1
    87b8:	1a000005 	bne	87d4 <c_fiq_handler+0x334>
    87bc:	e59f1164 	ldr	r1, [pc, #356]	; 8928 <c_fiq_handler+0x488>
    87c0:	e2852001 	add	r2, r5, #1
    87c4:	e5911004 	ldr	r1, [r1, #4]
    87c8:	e202200f 	and	r2, r2, #15
    87cc:	e1ce21ba 	strh	r2, [lr, #26]
    87d0:	e5861230 	str	r1, [r6, #560]	; 0x230
    87d4:	e3a00000 	mov	r0, #0
    87d8:	e3a01c01 	mov	r1, #256	; 0x100
    87dc:	e59f2140 	ldr	r2, [pc, #320]	; 8924 <c_fiq_handler+0x484>
    87e0:	e5c30240 	strb	r0, [r3, #576]	; 0x240
    87e4:	e582101c 	str	r1, [r2, #28]
    87e8:	eaffff5d 	b	8564 <c_fiq_handler+0xc4>
    87ec:	e35200aa 	cmp	r2, #170	; 0xaa
    87f0:	0a000026 	beq	8890 <c_fiq_handler+0x3f0>
    87f4:	e35200fe 	cmp	r2, #254	; 0xfe
    87f8:	1afffff5 	bne	87d4 <c_fiq_handler+0x334>
    87fc:	e3e0c001 	mvn	ip, #1
    8800:	e59f2128 	ldr	r2, [pc, #296]	; 8930 <c_fiq_handler+0x490>
    8804:	e59f0128 	ldr	r0, [pc, #296]	; 8934 <c_fiq_handler+0x494>
    8808:	e1d2e1ba 	ldrh	lr, [r2, #26]
    880c:	e1d010b0 	ldrh	r1, [r0]
    8810:	e082248e 	add	r2, r2, lr, lsl #9
    8814:	e0822001 	add	r2, r2, r1
    8818:	e2811001 	add	r1, r1, #1
    881c:	e1c010b0 	strh	r1, [r0]
    8820:	e5c2c01c 	strb	ip, [r2, #28]
    8824:	eaffff4e 	b	8564 <c_fiq_handler+0xc4>
    8828:	e59f0100 	ldr	r0, [pc, #256]	; 8930 <c_fiq_handler+0x490>
    882c:	e59f40f8 	ldr	r4, [pc, #248]	; 892c <c_fiq_handler+0x48c>
    8830:	e5d31254 	ldrb	r1, [r3, #596]	; 0x254
    8834:	e284ef93 	add	lr, r4, #588	; 0x24c
    8838:	e1d051ba 	ldrh	r5, [r0, #26]
    883c:	e1dec0b0 	ldrh	ip, [lr]
    8840:	e2811001 	add	r1, r1, #1
    8844:	e6ef1071 	uxtb	r1, r1
    8848:	e0800485 	add	r0, r0, r5, lsl #9
    884c:	e080000c 	add	r0, r0, ip
    8850:	e351000c 	cmp	r1, #12
    8854:	e28cc001 	add	ip, ip, #1
    8858:	e5c0201c 	strb	r2, [r0, #28]
    885c:	e1cec0b0 	strh	ip, [lr]
    8860:	e5c31254 	strb	r1, [r3, #596]	; 0x254
    8864:	03a01009 	moveq	r1, #9
    8868:	03a02000 	moveq	r2, #0
    886c:	05c41240 	strbeq	r1, [r4, #576]	; 0x240
    8870:	05c42254 	strbeq	r2, [r4, #596]	; 0x254
    8874:	eaffff3a 	b	8564 <c_fiq_handler+0xc4>
    8878:	e3a00000 	mov	r0, #0
    887c:	e3a01c01 	mov	r1, #256	; 0x100
    8880:	e59f209c 	ldr	r2, [pc, #156]	; 8924 <c_fiq_handler+0x484>
    8884:	e5c50240 	strb	r0, [r5, #576]	; 0x240
    8888:	e582101c 	str	r1, [r2, #28]
    888c:	eaffff34 	b	8564 <c_fiq_handler+0xc4>
    8890:	e3e04055 	mvn	r4, #85	; 0x55
    8894:	e3a0e008 	mov	lr, #8
    8898:	e3a0c000 	mov	ip, #0
    889c:	e59f208c 	ldr	r2, [pc, #140]	; 8930 <c_fiq_handler+0x490>
    88a0:	e59f008c 	ldr	r0, [pc, #140]	; 8934 <c_fiq_handler+0x494>
    88a4:	e1d251ba 	ldrh	r5, [r2, #26]
    88a8:	e1d010b0 	ldrh	r1, [r0]
    88ac:	e0822485 	add	r2, r2, r5, lsl #9
    88b0:	e0822001 	add	r2, r2, r1
    88b4:	e2811001 	add	r1, r1, #1
    88b8:	e1c010b0 	strh	r1, [r0]
    88bc:	e5c2401c 	strb	r4, [r2, #28]
    88c0:	e5c3e240 	strb	lr, [r3, #576]	; 0x240
    88c4:	e5c3c254 	strb	ip, [r3, #596]	; 0x254
    88c8:	eaffff25 	b	8564 <c_fiq_handler+0xc4>
    88cc:	e3a0e001 	mov	lr, #1
    88d0:	e3a06c02 	mov	r6, #512	; 0x200
    88d4:	e3a05b01 	mov	r5, #1024	; 0x400
    88d8:	e3a04003 	mov	r4, #3
    88dc:	e5931234 	ldr	r1, [r3, #564]	; 0x234
    88e0:	e5938248 	ldr	r8, [r3, #584]	; 0x248
    88e4:	e59f0038 	ldr	r0, [pc, #56]	; 8924 <c_fiq_handler+0x484>
    88e8:	e59f9048 	ldr	r9, [pc, #72]	; 8938 <c_fiq_handler+0x498>
    88ec:	e59f703c 	ldr	r7, [pc, #60]	; 8930 <c_fiq_handler+0x490>
    88f0:	e59fc03c 	ldr	ip, [pc, #60]	; 8934 <c_fiq_handler+0x494>
    88f4:	e081100e 	add	r1, r1, lr
    88f8:	e5c92000 	strb	r2, [r9]
    88fc:	e587800c 	str	r8, [r7, #12]
    8900:	e5806028 	str	r6, [r0, #40]	; 0x28
    8904:	e5831234 	str	r1, [r3, #564]	; 0x234
    8908:	e580501c 	str	r5, [r0, #28]
    890c:	e5c34240 	strb	r4, [r3, #576]	; 0x240
    8910:	e1cce0b0 	strh	lr, [ip]
    8914:	eaffff12 	b	8564 <c_fiq_handler+0xc4>
    8918:	e3a02000 	mov	r2, #0
    891c:	e5c32240 	strb	r2, [r3, #576]	; 0x240
    8920:	eaffff0f 	b	8564 <c_fiq_handler+0xc4>
    8924:	20200000 	eorcs	r0, r0, r0
    8928:	20003000 	andcs	r3, r0, r0
    892c:	00010c58 	andeq	r0, r1, r8, asr ip
    8930:	0000ec60 	andeq	lr, r0, r0, ror #24
    8934:	00010ea4 	andeq	r0, r1, r4, lsr #29
    8938:	00010f28 	andeq	r0, r1, r8, lsr #30

0000893c <c_irq_handler>:
    893c:	e24ee004 	sub	lr, lr, #4
    8940:	e92d50ff 	push	{r0, r1, r2, r3, r4, r5, r6, r7, ip, lr}
    8944:	e3a01000 	mov	r1, #0
    8948:	ee071fba 	mcr	15, 0, r1, cr7, cr10, {5}
    894c:	e3a00080 	mov	r0, #128	; 0x80
    8950:	e59f21f4 	ldr	r2, [pc, #500]	; 8b4c <c_irq_handler+0x210>
    8954:	e59f31f4 	ldr	r3, [pc, #500]	; 8b50 <c_irq_handler+0x214>
    8958:	e582001c 	str	r0, [r2, #28]
    895c:	e5934004 	ldr	r4, [r3, #4]
    8960:	e5930000 	ldr	r0, [r3]
    8964:	e3100002 	tst	r0, #2
    8968:	0a000009 	beq	8994 <c_irq_handler+0x58>
    896c:	e3a00002 	mov	r0, #2
    8970:	e59f61dc 	ldr	r6, [pc, #476]	; 8b54 <c_irq_handler+0x218>
    8974:	e5830000 	str	r0, [r3]
    8978:	e5d60240 	ldrb	r0, [r6, #576]	; 0x240
    897c:	e3500003 	cmp	r0, #3
    8980:	0a000044 	beq	8a98 <c_irq_handler+0x15c>
    8984:	e5d63255 	ldrb	r3, [r6, #597]	; 0x255
    8988:	e59f21c4 	ldr	r2, [pc, #452]	; 8b54 <c_irq_handler+0x218>
    898c:	e3530000 	cmp	r3, #0
    8990:	1a000015 	bne	89ec <c_irq_handler+0xb0>
    8994:	e59f31b4 	ldr	r3, [pc, #436]	; 8b50 <c_irq_handler+0x214>
    8998:	e5932000 	ldr	r2, [r3]
    899c:	e3120008 	tst	r2, #8
    89a0:	0a00000b 	beq	89d4 <c_irq_handler+0x98>
    89a4:	e3a0e008 	mov	lr, #8
    89a8:	e59f11a4 	ldr	r1, [pc, #420]	; 8b54 <c_irq_handler+0x218>
    89ac:	e284493d 	add	r4, r4, #999424	; 0xf4000
    89b0:	e5910234 	ldr	r0, [r1, #564]	; 0x234
    89b4:	e591225c 	ldr	r2, [r1, #604]	; 0x25c
    89b8:	e59fc198 	ldr	ip, [pc, #408]	; 8b58 <c_irq_handler+0x21c>
    89bc:	e2844d09 	add	r4, r4, #576	; 0x240
    89c0:	e0622000 	rsb	r2, r2, r0
    89c4:	e583e000 	str	lr, [r3]
    89c8:	e581025c 	str	r0, [r1, #604]	; 0x25c
    89cc:	e5834018 	str	r4, [r3, #24]
    89d0:	e58c2010 	str	r2, [ip, #16]
    89d4:	e3a01080 	mov	r1, #128	; 0x80
    89d8:	e59f216c 	ldr	r2, [pc, #364]	; 8b4c <c_irq_handler+0x210>
    89dc:	e3a03000 	mov	r3, #0
    89e0:	e5821028 	str	r1, [r2, #40]	; 0x28
    89e4:	ee073fba 	mcr	15, 0, r3, cr7, cr10, {5}
    89e8:	e8fd90ff 	ldm	sp!, {r0, r1, r2, r3, r4, r5, r6, r7, ip, pc}^
    89ec:	e5d23256 	ldrb	r3, [r2, #598]	; 0x256
    89f0:	e6ef3073 	uxtb	r3, r3
    89f4:	e3530001 	cmp	r3, #1
    89f8:	0a00003a 	beq	8ae8 <c_irq_handler+0x1ac>
    89fc:	3a000045 	bcc	8b18 <c_irq_handler+0x1dc>
    8a00:	e3530002 	cmp	r3, #2
    8a04:	1affffe2 	bne	8994 <c_irq_handler+0x58>
    8a08:	e3a03003 	mov	r3, #3
    8a0c:	e59f7148 	ldr	r7, [pc, #328]	; 8b5c <c_irq_handler+0x220>
    8a10:	e5c23256 	strb	r3, [r2, #598]	; 0x256
    8a14:	e1d730bc 	ldrh	r3, [r7, #12]
    8a18:	e3530000 	cmp	r3, #0
    8a1c:	0a00000c 	beq	8a54 <c_irq_handler+0x118>
    8a20:	e59f0138 	ldr	r0, [pc, #312]	; 8b60 <c_irq_handler+0x224>
    8a24:	e2433001 	sub	r3, r3, #1
    8a28:	e280c001 	add	ip, r0, #1
    8a2c:	e59f1130 	ldr	r1, [pc, #304]	; 8b64 <c_irq_handler+0x228>
    8a30:	e6fcc073 	uxtah	ip, ip, r3
    8a34:	e5913018 	ldr	r3, [r1, #24]
    8a38:	e59f2124 	ldr	r2, [pc, #292]	; 8b64 <c_irq_handler+0x228>
    8a3c:	e3130020 	tst	r3, #32
    8a40:	1afffffb 	bne	8a34 <c_irq_handler+0xf8>
    8a44:	e5f03001 	ldrb	r3, [r0, #1]!
    8a48:	e150000c 	cmp	r0, ip
    8a4c:	e5823000 	str	r3, [r2]
    8a50:	1afffff7 	bne	8a34 <c_irq_handler+0xf8>
    8a54:	e59f2108 	ldr	r2, [pc, #264]	; 8b64 <c_irq_handler+0x228>
    8a58:	e5923018 	ldr	r3, [r2, #24]
    8a5c:	e2135020 	ands	r5, r3, #32
    8a60:	1afffffc 	bne	8a58 <c_irq_handler+0x11c>
    8a64:	e3a0002c 	mov	r0, #44	; 0x2c
    8a68:	e3a01000 	mov	r1, #0
    8a6c:	eb000e2d 	bl	c328 <udelay>
    8a70:	e3a01c01 	mov	r1, #256	; 0x100
    8a74:	e5963258 	ldr	r3, [r6, #600]	; 0x258
    8a78:	e597c000 	ldr	ip, [r7]
    8a7c:	e59f00cc 	ldr	r0, [pc, #204]	; 8b50 <c_irq_handler+0x214>
    8a80:	e59f20c4 	ldr	r2, [pc, #196]	; 8b4c <c_irq_handler+0x210>
    8a84:	e083300c 	add	r3, r3, ip
    8a88:	e5803010 	str	r3, [r0, #16]
    8a8c:	e5c65256 	strb	r5, [r6, #598]	; 0x256
    8a90:	e582101c 	str	r1, [r2, #28]
    8a94:	eaffffbe 	b	8994 <c_irq_handler+0x58>
    8a98:	e59fc0b8 	ldr	ip, [pc, #184]	; 8b58 <c_irq_handler+0x21c>
    8a9c:	e596023c 	ldr	r0, [r6, #572]	; 0x23c
    8aa0:	e59ce014 	ldr	lr, [ip, #20]
    8aa4:	e080000e 	add	r0, r0, lr
    8aa8:	e1540000 	cmp	r4, r0
    8aac:	9284202d 	addls	r2, r4, #45	; 0x2d
    8ab0:	95832010 	strls	r2, [r3, #16]
    8ab4:	9affffb2 	bls	8984 <c_irq_handler+0x48>
    8ab8:	e3a05b01 	mov	r5, #1024	; 0x400
    8abc:	e3a0e001 	mov	lr, #1
    8ac0:	e3a00c01 	mov	r0, #256	; 0x100
    8ac4:	e2863f93 	add	r3, r6, #588	; 0x24c
    8ac8:	e1d330b0 	ldrh	r3, [r3]
    8acc:	e5c61240 	strb	r1, [r6, #576]	; 0x240
    8ad0:	e2433001 	sub	r3, r3, #1
    8ad4:	e58c3008 	str	r3, [ip, #8]
    8ad8:	e5825028 	str	r5, [r2, #40]	; 0x28
    8adc:	e5c6e024 	strb	lr, [r6, #36]	; 0x24
    8ae0:	e582001c 	str	r0, [r2, #28]
    8ae4:	eaffffa6 	b	8984 <c_irq_handler+0x48>
    8ae8:	e3a0e002 	mov	lr, #2
    8aec:	e3a0c068 	mov	ip, #104	; 0x68
    8af0:	e59f306c 	ldr	r3, [pc, #108]	; 8b64 <c_irq_handler+0x228>
    8af4:	e59f1054 	ldr	r1, [pc, #84]	; 8b50 <c_irq_handler+0x214>
    8af8:	e59f005c 	ldr	r0, [pc, #92]	; 8b5c <c_irq_handler+0x220>
    8afc:	e5c2e256 	strb	lr, [r2, #598]	; 0x256
    8b00:	e583c02c 	str	ip, [r3, #44]	; 0x2c
    8b04:	e5913004 	ldr	r3, [r1, #4]
    8b08:	e5902004 	ldr	r2, [r0, #4]
    8b0c:	e0833002 	add	r3, r3, r2
    8b10:	e5813010 	str	r3, [r1, #16]
    8b14:	eaffff9e 	b	8994 <c_irq_handler+0x58>
    8b18:	e3a0e001 	mov	lr, #1
    8b1c:	e3a0c069 	mov	ip, #105	; 0x69
    8b20:	e59f103c 	ldr	r1, [pc, #60]	; 8b64 <c_irq_handler+0x228>
    8b24:	e59f0024 	ldr	r0, [pc, #36]	; 8b50 <c_irq_handler+0x214>
    8b28:	e59f302c 	ldr	r3, [pc, #44]	; 8b5c <c_irq_handler+0x220>
    8b2c:	e5c2e256 	strb	lr, [r2, #598]	; 0x256
    8b30:	e581c02c 	str	ip, [r1, #44]	; 0x2c
    8b34:	e5901004 	ldr	r1, [r0, #4]
    8b38:	e5933008 	ldr	r3, [r3, #8]
    8b3c:	e0813003 	add	r3, r1, r3
    8b40:	e5803010 	str	r3, [r0, #16]
    8b44:	e5821258 	str	r1, [r2, #600]	; 0x258
    8b48:	eaffff91 	b	8994 <c_irq_handler+0x58>
    8b4c:	20200000 	eorcs	r0, r0, r0
    8b50:	20003000 	andcs	r3, r0, r0
    8b54:	00010c58 	andeq	r0, r1, r8, asr ip
    8b58:	0000ec60 	andeq	lr, r0, r0, ror #24
    8b5c:	0000e7b8 			; <UNDEFINED> instruction: 0x0000e7b8
    8b60:	00010f27 	andeq	r0, r1, r7, lsr #30
    8b64:	20201000 	eorcs	r1, r0, r0

00008b68 <dmx_start_data>:
    8b68:	e59f3044 	ldr	r3, [pc, #68]	; 8bb4 <dmx_start_data+0x4c>
    8b6c:	e5d3300e 	ldrb	r3, [r3, #14]
    8b70:	e3530001 	cmp	r3, #1
    8b74:	0a000005 	beq	8b90 <dmx_start_data+0x28>
    8b78:	e3530002 	cmp	r3, #2
    8b7c:	112fff1e 	bxne	lr
    8b80:	e3a02000 	mov	r2, #0
    8b84:	e59f302c 	ldr	r3, [pc, #44]	; 8bb8 <dmx_start_data+0x50>
    8b88:	e5c32240 	strb	r2, [r3, #576]	; 0x240
    8b8c:	eafffd64 	b	8124 <__enable_fiq>
    8b90:	e3a01002 	mov	r1, #2
    8b94:	e59f001c 	ldr	r0, [pc, #28]	; 8bb8 <dmx_start_data+0x50>
    8b98:	e59f201c 	ldr	r2, [pc, #28]	; 8bbc <dmx_start_data+0x54>
    8b9c:	e5c03255 	strb	r3, [r0, #597]	; 0x255
    8ba0:	e5923004 	ldr	r3, [r2, #4]
    8ba4:	e2833004 	add	r3, r3, #4
    8ba8:	e5823010 	str	r3, [r2, #16]
    8bac:	e5821000 	str	r1, [r2]
    8bb0:	e12fff1e 	bx	lr
    8bb4:	0000e7b8 			; <UNDEFINED> instruction: 0x0000e7b8
    8bb8:	00010c58 	andeq	r0, r1, r8, asr ip
    8bbc:	20003000 	andcs	r3, r0, r0

00008bc0 <dmx_stop_data>:
    8bc0:	e3a00000 	mov	r0, #0
    8bc4:	e3a02002 	mov	r2, #2
    8bc8:	e59f1014 	ldr	r1, [pc, #20]	; 8be4 <dmx_stop_data+0x24>
    8bcc:	e59f3014 	ldr	r3, [pc, #20]	; 8be8 <dmx_stop_data+0x28>
    8bd0:	e5c10255 	strb	r0, [r1, #597]	; 0x255
    8bd4:	e5931004 	ldr	r1, [r3, #4]
    8bd8:	e5831010 	str	r1, [r3, #16]
    8bdc:	e5832000 	str	r2, [r3]
    8be0:	eafffd53 	b	8134 <__disable_fiq>
    8be4:	00010c58 	andeq	r0, r1, r8, asr ip
    8be8:	20003000 	andcs	r3, r0, r0

00008bec <dmx_set_port_direction>:
    8bec:	e3500001 	cmp	r0, #1
    8bf0:	e92d41f0 	push	{r4, r5, r6, r7, r8, lr}
    8bf4:	e1a04000 	mov	r4, r0
    8bf8:	e1a05001 	mov	r5, r1
    8bfc:	0a000025 	beq	8c98 <dmx_set_port_direction+0xac>
    8c00:	e3500002 	cmp	r0, #2
    8c04:	0a000013 	beq	8c58 <dmx_set_port_direction+0x6c>
    8c08:	e3a02000 	mov	r2, #0
    8c0c:	e3a04002 	mov	r4, #2
    8c10:	e59f60d8 	ldr	r6, [pc, #216]	; 8cf0 <dmx_set_port_direction+0x104>
    8c14:	e59f30d8 	ldr	r3, [pc, #216]	; 8cf4 <dmx_set_port_direction+0x108>
    8c18:	e5c62255 	strb	r2, [r6, #597]	; 0x255
    8c1c:	e5932004 	ldr	r2, [r3, #4]
    8c20:	e5832010 	str	r2, [r3, #16]
    8c24:	e5834000 	str	r4, [r3]
    8c28:	ebfffd41 	bl	8134 <__disable_fiq>
    8c2c:	e3a02701 	mov	r2, #262144	; 0x40000
    8c30:	e59f10c0 	ldr	r1, [pc, #192]	; 8cf8 <dmx_set_port_direction+0x10c>
    8c34:	e59f30c0 	ldr	r3, [pc, #192]	; 8cfc <dmx_set_port_direction+0x110>
    8c38:	e3550000 	cmp	r5, #0
    8c3c:	e5c1400e 	strb	r4, [r1, #14]
    8c40:	e5832028 	str	r2, [r3, #40]	; 0x28
    8c44:	08bd81f0 	popeq	{r4, r5, r6, r7, r8, pc}
    8c48:	e3a03000 	mov	r3, #0
    8c4c:	e5c63240 	strb	r3, [r6, #576]	; 0x240
    8c50:	e8bd41f0 	pop	{r4, r5, r6, r7, r8, lr}
    8c54:	eafffd32 	b	8124 <__enable_fiq>
    8c58:	e3a02000 	mov	r2, #0
    8c5c:	e59f608c 	ldr	r6, [pc, #140]	; 8cf0 <dmx_set_port_direction+0x104>
    8c60:	e59f308c 	ldr	r3, [pc, #140]	; 8cf4 <dmx_set_port_direction+0x108>
    8c64:	e5c62255 	strb	r2, [r6, #597]	; 0x255
    8c68:	e5932004 	ldr	r2, [r3, #4]
    8c6c:	e5832010 	str	r2, [r3, #16]
    8c70:	e5830000 	str	r0, [r3]
    8c74:	ebfffd2e 	bl	8134 <__disable_fiq>
    8c78:	e3a01701 	mov	r1, #262144	; 0x40000
    8c7c:	e59f2078 	ldr	r2, [pc, #120]	; 8cfc <dmx_set_port_direction+0x110>
    8c80:	e59f3070 	ldr	r3, [pc, #112]	; 8cf8 <dmx_set_port_direction+0x10c>
    8c84:	e3550000 	cmp	r5, #0
    8c88:	e5821028 	str	r1, [r2, #40]	; 0x28
    8c8c:	e5c3400e 	strb	r4, [r3, #14]
    8c90:	08bd81f0 	popeq	{r4, r5, r6, r7, r8, pc}
    8c94:	eaffffeb 	b	8c48 <dmx_set_port_direction+0x5c>
    8c98:	e3a03000 	mov	r3, #0
    8c9c:	e3a07002 	mov	r7, #2
    8ca0:	e59f8048 	ldr	r8, [pc, #72]	; 8cf0 <dmx_set_port_direction+0x104>
    8ca4:	e59f6048 	ldr	r6, [pc, #72]	; 8cf4 <dmx_set_port_direction+0x108>
    8ca8:	e5c83255 	strb	r3, [r8, #597]	; 0x255
    8cac:	e5963004 	ldr	r3, [r6, #4]
    8cb0:	e5863010 	str	r3, [r6, #16]
    8cb4:	e5867000 	str	r7, [r6]
    8cb8:	ebfffd1d 	bl	8134 <__disable_fiq>
    8cbc:	e3a01701 	mov	r1, #262144	; 0x40000
    8cc0:	e59f2034 	ldr	r2, [pc, #52]	; 8cfc <dmx_set_port_direction+0x110>
    8cc4:	e59f302c 	ldr	r3, [pc, #44]	; 8cf8 <dmx_set_port_direction+0x10c>
    8cc8:	e3550000 	cmp	r5, #0
    8ccc:	e582101c 	str	r1, [r2, #28]
    8cd0:	e5c3400e 	strb	r4, [r3, #14]
    8cd4:	08bd81f0 	popeq	{r4, r5, r6, r7, r8, pc}
    8cd8:	e5c84255 	strb	r4, [r8, #597]	; 0x255
    8cdc:	e5963004 	ldr	r3, [r6, #4]
    8ce0:	e2833004 	add	r3, r3, #4
    8ce4:	e5863010 	str	r3, [r6, #16]
    8ce8:	e5867000 	str	r7, [r6]
    8cec:	e8bd81f0 	pop	{r4, r5, r6, r7, r8, pc}
    8cf0:	00010c58 	andeq	r0, r1, r8, asr ip
    8cf4:	20003000 	andcs	r3, r0, r0
    8cf8:	0000e7b8 			; <UNDEFINED> instruction: 0x0000e7b8
    8cfc:	20200000 	eorcs	r0, r0, r0

00008d00 <dmx_init>:
    8d00:	e92d40f8 	push	{r3, r4, r5, r6, r7, lr}
    8d04:	e3a0000b 	mov	r0, #11
    8d08:	e3a01001 	mov	r1, #1
    8d0c:	eb000d73 	bl	c2e0 <bcm2835_gpio_fsel>
    8d10:	e3a00009 	mov	r0, #9
    8d14:	e3a01001 	mov	r1, #1
    8d18:	eb000d70 	bl	c2e0 <bcm2835_gpio_fsel>
    8d1c:	e3a0000a 	mov	r0, #10
    8d20:	e3a01001 	mov	r1, #1
    8d24:	eb000d6d 	bl	c2e0 <bcm2835_gpio_fsel>
    8d28:	e3a00008 	mov	r0, #8
    8d2c:	e3a01001 	mov	r1, #1
    8d30:	eb000d6a 	bl	c2e0 <bcm2835_gpio_fsel>
    8d34:	e3a00007 	mov	r0, #7
    8d38:	e3a01001 	mov	r1, #1
    8d3c:	eb000d67 	bl	c2e0 <bcm2835_gpio_fsel>
    8d40:	e3a07c02 	mov	r7, #512	; 0x200
    8d44:	e3a0cb02 	mov	ip, #2048	; 0x800
    8d48:	e3a06b01 	mov	r6, #1024	; 0x400
    8d4c:	e3a04c01 	mov	r4, #256	; 0x100
    8d50:	e3a0e080 	mov	lr, #128	; 0x80
    8d54:	e3a01000 	mov	r1, #0
    8d58:	e59f3164 	ldr	r3, [pc, #356]	; 8ec4 <dmx_init+0x1c4>
    8d5c:	e59f0164 	ldr	r0, [pc, #356]	; 8ec8 <dmx_init+0x1c8>
    8d60:	e2435028 	sub	r5, r3, #40	; 0x28
    8d64:	e59f2160 	ldr	r2, [pc, #352]	; 8ecc <dmx_init+0x1cc>
    8d68:	e580c028 	str	ip, [r0, #40]	; 0x28
    8d6c:	e5807028 	str	r7, [r0, #40]	; 0x28
    8d70:	e285cf8a 	add	ip, r5, #552	; 0x228
    8d74:	e5806028 	str	r6, [r0, #40]	; 0x28
    8d78:	e580401c 	str	r4, [r0, #28]
    8d7c:	e580e028 	str	lr, [r0, #40]	; 0x28
    8d80:	e4831004 	str	r1, [r3], #4
    8d84:	e153000c 	cmp	r3, ip
    8d88:	e5a21004 	str	r1, [r2, #4]!
    8d8c:	e3a04000 	mov	r4, #0
    8d90:	e59f0138 	ldr	r0, [pc, #312]	; 8ed0 <dmx_init+0x1d0>
    8d94:	1afffff9 	bne	8d80 <dmx_init+0x80>
    8d98:	e3a0c00a 	mov	ip, #10
    8d9c:	e59f2130 	ldr	r2, [pc, #304]	; 8ed4 <dmx_init+0x1d4>
    8da0:	e5c04255 	strb	r4, [r0, #597]	; 0x255
    8da4:	e5923004 	ldr	r3, [r2, #4]
    8da8:	e59f6128 	ldr	r6, [pc, #296]	; 8ed8 <dmx_init+0x1d8>
    8dac:	e283393d 	add	r3, r3, #999424	; 0xf4000
    8db0:	e59fe124 	ldr	lr, [pc, #292]	; 8edc <dmx_init+0x1dc>
    8db4:	e2833d09 	add	r3, r3, #576	; 0x240
    8db8:	e59f1120 	ldr	r1, [pc, #288]	; 8ee0 <dmx_init+0x1e0>
    8dbc:	e5823018 	str	r3, [r2, #24]
    8dc0:	e582c000 	str	ip, [r2]
    8dc4:	e586c010 	str	ip, [r6, #16]
    8dc8:	e5ce4200 	strb	r4, [lr, #512]	; 0x200
    8dcc:	e5c04228 	strb	r4, [r0, #552]	; 0x228
    8dd0:	e5c04240 	strb	r4, [r0, #576]	; 0x240
    8dd4:	e5c04024 	strb	r4, [r0, #36]	; 0x24
    8dd8:	e1c141ba 	strh	r4, [r1, #26]
    8ddc:	e1c141b8 	strh	r4, [r1, #24]
    8de0:	e59f60fc 	ldr	r6, [pc, #252]	; 8ee4 <dmx_init+0x1e4>
    8de4:	ebfffcc6 	bl	8104 <__enable_irq>
    8de8:	e59f10f8 	ldr	r1, [pc, #248]	; 8ee8 <dmx_init+0x1e8>
    8dec:	e3a00002 	mov	r0, #2
    8df0:	eb000be2 	bl	bd80 <bcm2835_vc_set_clock_rate>
    8df4:	e59f20cc 	ldr	r2, [pc, #204]	; 8ec8 <dmx_init+0x1c8>
    8df8:	e5864030 	str	r4, [r6, #48]	; 0x30
    8dfc:	e5923004 	ldr	r3, [r2, #4]
    8e00:	e3a0000e 	mov	r0, #14
    8e04:	e3c33a3f 	bic	r3, r3, #258048	; 0x3f000
    8e08:	e3833909 	orr	r3, r3, #147456	; 0x24000
    8e0c:	e5823004 	str	r3, [r2, #4]
    8e10:	e1a01004 	mov	r1, r4
    8e14:	eb000acc 	bl	b94c <bcm2835_gpio_set_pud>
    8e18:	e1a01004 	mov	r1, r4
    8e1c:	e3a0000f 	mov	r0, #15
    8e20:	eb000ac9 	bl	b94c <bcm2835_gpio_set_pud>
    8e24:	e1a02006 	mov	r2, r6
    8e28:	e5923018 	ldr	r3, [r2, #24]
    8e2c:	e59f60b0 	ldr	r6, [pc, #176]	; 8ee4 <dmx_init+0x1e4>
    8e30:	e2134008 	ands	r4, r3, #8
    8e34:	1afffffb 	bne	8e28 <dmx_init+0x128>
    8e38:	e3a02001 	mov	r2, #1
    8e3c:	e3a0e068 	mov	lr, #104	; 0x68
    8e40:	e596302c 	ldr	r3, [r6, #44]	; 0x2c
    8e44:	e59fc0a0 	ldr	ip, [pc, #160]	; 8eec <dmx_init+0x1ec>
    8e48:	e59f00a0 	ldr	r0, [pc, #160]	; 8ef0 <dmx_init+0x1f0>
    8e4c:	e3c33010 	bic	r3, r3, #16
    8e50:	e586302c 	str	r3, [r6, #44]	; 0x2c
    8e54:	e1a01002 	mov	r1, r2
    8e58:	e5860044 	str	r0, [r6, #68]	; 0x44
    8e5c:	e5862024 	str	r2, [r6, #36]	; 0x24
    8e60:	e3a00012 	mov	r0, #18
    8e64:	e5864028 	str	r4, [r6, #40]	; 0x28
    8e68:	e586e02c 	str	lr, [r6, #44]	; 0x2c
    8e6c:	e586c030 	str	ip, [r6, #48]	; 0x30
    8e70:	eb000d1a 	bl	c2e0 <bcm2835_gpio_fsel>
    8e74:	e3a010b9 	mov	r1, #185	; 0xb9
    8e78:	e3a00010 	mov	r0, #16
    8e7c:	e3a07002 	mov	r7, #2
    8e80:	e59f2050 	ldr	r2, [pc, #80]	; 8ed8 <dmx_init+0x1d8>
    8e84:	e59f3048 	ldr	r3, [pc, #72]	; 8ed4 <dmx_init+0x1d4>
    8e88:	e5860038 	str	r0, [r6, #56]	; 0x38
    8e8c:	e582100c 	str	r1, [r2, #12]
    8e90:	e5c54255 	strb	r4, [r5, #597]	; 0x255
    8e94:	e5932004 	ldr	r2, [r3, #4]
    8e98:	e5832010 	str	r2, [r3, #16]
    8e9c:	e5837000 	str	r7, [r3]
    8ea0:	ebfffca3 	bl	8134 <__disable_fiq>
    8ea4:	e3a01701 	mov	r1, #262144	; 0x40000
    8ea8:	e59f3044 	ldr	r3, [pc, #68]	; 8ef4 <dmx_init+0x1f4>
    8eac:	e59f2014 	ldr	r2, [pc, #20]	; 8ec8 <dmx_init+0x1c8>
    8eb0:	e5821028 	str	r1, [r2, #40]	; 0x28
    8eb4:	e5c54240 	strb	r4, [r5, #576]	; 0x240
    8eb8:	e5c3700e 	strb	r7, [r3, #14]
    8ebc:	e8bd40f8 	pop	{r3, r4, r5, r6, r7, lr}
    8ec0:	eafffc97 	b	8124 <__enable_fiq>
    8ec4:	00010c80 	andeq	r0, r1, r0, lsl #25
    8ec8:	20200000 	eorcs	r0, r0, r0
    8ecc:	00010f24 	andeq	r0, r1, r4, lsr #30
    8ed0:	00010c58 	andeq	r0, r1, r8, asr ip
    8ed4:	20003000 	andcs	r3, r0, r0
    8ed8:	2000b200 	andcs	fp, r0, r0, lsl #4
    8edc:	00010f28 	andeq	r0, r1, r8, lsr #30
    8ee0:	0000ec60 	andeq	lr, r0, r0, ror #24
    8ee4:	20201000 	eorcs	r1, r0, r0
    8ee8:	003d0900 	eorseq	r0, sp, r0, lsl #18
    8eec:	00000301 	andeq	r0, r0, r1, lsl #6
    8ef0:	000007ff 	strdeq	r0, [r0], -pc	; <UNPREDICTABLE>
    8ef4:	0000e7b8 			; <UNDEFINED> instruction: 0x0000e7b8

00008ef8 <monitor_line>:
    8ef8:	e92d000e 	push	{r1, r2, r3}
    8efc:	e92d4010 	push	{r4, lr}
    8f00:	e24dd00c 	sub	sp, sp, #12
    8f04:	e59d4014 	ldr	r4, [sp, #20]
    8f08:	eb0003b0 	bl	9dd0 <console_clear_line>
    8f0c:	e3540000 	cmp	r4, #0
    8f10:	0a000004 	beq	8f28 <monitor_line+0x30>
    8f14:	e28d3018 	add	r3, sp, #24
    8f18:	e1a00004 	mov	r0, r4
    8f1c:	e1a01003 	mov	r1, r3
    8f20:	e58d3004 	str	r3, [sp, #4]
    8f24:	eb000445 	bl	a040 <vprintf>
    8f28:	e28dd00c 	add	sp, sp, #12
    8f2c:	e8bd4010 	pop	{r4, lr}
    8f30:	e28dd00c 	add	sp, sp, #12
    8f34:	e12fff1e 	bx	lr

00008f38 <monitor_time_uptime>:
    8f38:	e92d41f0 	push	{r4, r5, r6, r7, r8, lr}
    8f3c:	e24dd018 	sub	sp, sp, #24
    8f40:	e3a06000 	mov	r6, #0
    8f44:	e1a08000 	mov	r8, r0
    8f48:	eb00084c 	bl	b080 <hardware_uptime_seconds>
    8f4c:	e1a04000 	mov	r4, r0
    8f50:	e1a00006 	mov	r0, r6
    8f54:	e1a07001 	mov	r7, r1
    8f58:	e58d6014 	str	r6, [sp, #20]
    8f5c:	eb0009b6 	bl	b63c <sys_time>
    8f60:	e28d3018 	add	r3, sp, #24
    8f64:	e5230004 	str	r0, [r3, #-4]!
    8f68:	e1a00003 	mov	r0, r3
    8f6c:	eb000cfb 	bl	c360 <localtime>
    8f70:	e1a01008 	mov	r1, r8
    8f74:	e1a05000 	mov	r5, r0
    8f78:	e1a00006 	mov	r0, r6
    8f7c:	eb000382 	bl	9d8c <console_set_cursor>
    8f80:	e1a00004 	mov	r0, r4
    8f84:	e1a01007 	mov	r1, r7
    8f88:	e59f2084 	ldr	r2, [pc, #132]	; 9014 <monitor_time_uptime+0xdc>
    8f8c:	e3a03000 	mov	r3, #0
    8f90:	eb0013c2 	bl	dea0 <__aeabi_uldivmod>
    8f94:	e8950160 	ldm	r5, {r5, r6, r8}
    8f98:	e1a01007 	mov	r1, r7
    8f9c:	e58d0000 	str	r0, [sp]
    8fa0:	e59f206c 	ldr	r2, [pc, #108]	; 9014 <monitor_time_uptime+0xdc>
    8fa4:	e1a00004 	mov	r0, r4
    8fa8:	e3a03000 	mov	r3, #0
    8fac:	eb0013bb 	bl	dea0 <__aeabi_uldivmod>
    8fb0:	e59fc060 	ldr	ip, [pc, #96]	; 9018 <monitor_time_uptime+0xe0>
    8fb4:	e1a01007 	mov	r1, r7
    8fb8:	e08c329c 	umull	r3, ip, ip, r2
    8fbc:	e1a00004 	mov	r0, r4
    8fc0:	e1a0c5ac 	lsr	ip, ip, #11
    8fc4:	e3a02ee1 	mov	r2, #3600	; 0xe10
    8fc8:	e3a03000 	mov	r3, #0
    8fcc:	e58dc004 	str	ip, [sp, #4]
    8fd0:	eb0013b2 	bl	dea0 <__aeabi_uldivmod>
    8fd4:	e59fc040 	ldr	ip, [pc, #64]	; 901c <monitor_time_uptime+0xe4>
    8fd8:	e1a01008 	mov	r1, r8
    8fdc:	e080349c 	umull	r3, r0, ip, r4
    8fe0:	e08c329c 	umull	r3, ip, ip, r2
    8fe4:	e1a002a0 	lsr	r0, r0, #5
    8fe8:	e0600200 	rsb	r0, r0, r0, lsl #4
    8fec:	e0444100 	sub	r4, r4, r0, lsl #2
    8ff0:	e1a002ac 	lsr	r0, ip, #5
    8ff4:	e58d0008 	str	r0, [sp, #8]
    8ff8:	e1a02006 	mov	r2, r6
    8ffc:	e1a03005 	mov	r3, r5
    9000:	e58d400c 	str	r4, [sp, #12]
    9004:	e59f0014 	ldr	r0, [pc, #20]	; 9020 <monitor_time_uptime+0xe8>
    9008:	eb0005fb 	bl	a7fc <printf>
    900c:	e28dd018 	add	sp, sp, #24
    9010:	e8bd81f0 	pop	{r4, r5, r6, r7, r8, pc}
    9014:	00015180 	andeq	r5, r1, r0, lsl #3
    9018:	91a2b3c5 			; <UNDEFINED> instruction: 0x91a2b3c5
    901c:	88888889 	stmhi	r8, {r0, r3, r7, fp, pc}
    9020:	0000e514 	andeq	lr, r0, r4, lsl r5

00009024 <monitor_rdm_data>:
    9024:	e92d47f0 	push	{r4, r5, r6, r7, r8, r9, sl, lr}
    9028:	e1a04001 	mov	r4, r1
    902c:	e24dd028 	sub	sp, sp, #40	; 0x28
    9030:	e1a05002 	mov	r5, r2
    9034:	eb000365 	bl	9dd0 <console_clear_line>
    9038:	e1a01004 	mov	r1, r4
    903c:	e59f007c 	ldr	r0, [pc, #124]	; 90c0 <monitor_rdm_data+0x9c>
    9040:	eb0005ed 	bl	a7fc <printf>
    9044:	e3a03000 	mov	r3, #0
    9048:	e2458001 	sub	r8, r5, #1
    904c:	e2857008 	add	r7, r5, #8
    9050:	e2856011 	add	r6, r5, #17
    9054:	e285501a 	add	r5, r5, #26
    9058:	e5f82001 	ldrb	r2, [r8, #1]!
    905c:	e5f51001 	ldrb	r1, [r5, #1]!
    9060:	e5f7a001 	ldrb	sl, [r7, #1]!
    9064:	e5f6c001 	ldrb	ip, [r6, #1]!
    9068:	e2834001 	add	r4, r3, #1
    906c:	e283e013 	add	lr, r3, #19
    9070:	e283001c 	add	r0, r3, #28
    9074:	e283900a 	add	r9, r3, #10
    9078:	e58d101c 	str	r1, [sp, #28]
    907c:	e1a03002 	mov	r3, r2
    9080:	e58d1020 	str	r1, [sp, #32]
    9084:	e58d0018 	str	r0, [sp, #24]
    9088:	e58da004 	str	sl, [sp, #4]
    908c:	e58da008 	str	sl, [sp, #8]
    9090:	e58dc010 	str	ip, [sp, #16]
    9094:	e58dc014 	str	ip, [sp, #20]
    9098:	e1a01004 	mov	r1, r4
    909c:	e58d9000 	str	r9, [sp]
    90a0:	e58de00c 	str	lr, [sp, #12]
    90a4:	e59f0018 	ldr	r0, [pc, #24]	; 90c4 <monitor_rdm_data+0xa0>
    90a8:	eb0005d3 	bl	a7fc <printf>
    90ac:	e3540009 	cmp	r4, #9
    90b0:	e1a03004 	mov	r3, r4
    90b4:	1affffe7 	bne	9058 <monitor_rdm_data+0x34>
    90b8:	e28dd028 	add	sp, sp, #40	; 0x28
    90bc:	e8bd87f0 	pop	{r4, r5, r6, r7, r8, r9, sl, pc}
    90c0:	0000e554 	andeq	lr, r0, r4, asr r5
    90c4:	0000e56c 	andeq	lr, r0, ip, ror #10

000090c8 <monitor_dmx_data>:
    90c8:	e92d4070 	push	{r4, r5, r6, lr}
    90cc:	e1a05000 	mov	r5, r0
    90d0:	e1a06001 	mov	r6, r1
    90d4:	ebfffca6 	bl	8374 <dmx_get_port_direction>
    90d8:	e3500002 	cmp	r0, #2
    90dc:	0a000032 	beq	91ac <monitor_dmx_data+0xe4>
    90e0:	ebfffc3f 	bl	81e4 <dmx_get_send_data_length>
    90e4:	e1a04000 	mov	r4, r0
    90e8:	e1a01005 	mov	r1, r5
    90ec:	e3a00000 	mov	r0, #0
    90f0:	eb000325 	bl	9d8c <console_set_cursor>
    90f4:	e59f00e8 	ldr	r0, [pc, #232]	; 91e4 <monitor_dmx_data+0x11c>
    90f8:	eb0002a0 	bl	9b80 <console_puts>
    90fc:	e3540021 	cmp	r4, #33	; 0x21
    9100:	23a04021 	movcs	r4, #33	; 0x21
    9104:	e6ff4074 	uxth	r4, r4
    9108:	e3540001 	cmp	r4, #1
    910c:	9a00002c 	bls	91c4 <monitor_dmx_data+0xfc>
    9110:	e3a05001 	mov	r5, #1
    9114:	ea00000c 	b	914c <monitor_dmx_data+0x84>
    9118:	e350005c 	cmp	r0, #92	; 0x5c
    911c:	83a01000 	movhi	r1, #0
    9120:	93e01000 	mvnls	r1, #0
    9124:	e6ff1071 	uxth	r1, r1
    9128:	eb0002ac 	bl	9be0 <console_puthex_fg_bg>
    912c:	e3550010 	cmp	r5, #16
    9130:	0a000025 	beq	91cc <monitor_dmx_data+0x104>
    9134:	e3a00020 	mov	r0, #32
    9138:	eb0001cd 	bl	9874 <console_putc>
    913c:	e2855001 	add	r5, r5, #1
    9140:	e6ff5075 	uxth	r5, r5
    9144:	e1550004 	cmp	r5, r4
    9148:	0a00000a 	beq	9178 <monitor_dmx_data+0xb0>
    914c:	e5f60001 	ldrb	r0, [r6, #1]!
    9150:	e1a03120 	lsr	r3, r0, #2
    9154:	e1a021a0 	lsr	r2, r0, #3
    9158:	e1a03283 	lsl	r3, r3, #5
    915c:	e1833582 	orr	r3, r3, r2, lsl #11
    9160:	e3500000 	cmp	r0, #0
    9164:	e1832002 	orr	r2, r3, r2
    9168:	1affffea 	bne	9118 <monitor_dmx_data+0x50>
    916c:	e59f0074 	ldr	r0, [pc, #116]	; 91e8 <monitor_dmx_data+0x120>
    9170:	eb000282 	bl	9b80 <console_puts>
    9174:	eaffffec 	b	912c <monitor_dmx_data+0x64>
    9178:	e3540021 	cmp	r4, #33	; 0x21
    917c:	0a00000f 	beq	91c0 <monitor_dmx_data+0xf8>
    9180:	e2844001 	add	r4, r4, #1
    9184:	e6ff4074 	uxth	r4, r4
    9188:	e59f005c 	ldr	r0, [pc, #92]	; 91ec <monitor_dmx_data+0x124>
    918c:	eb00027b 	bl	9b80 <console_puts>
    9190:	e3540011 	cmp	r4, #17
    9194:	0a00000f 	beq	91d8 <monitor_dmx_data+0x110>
    9198:	e3a00020 	mov	r0, #32
    919c:	eb0001b4 	bl	9874 <console_putc>
    91a0:	e3540020 	cmp	r4, #32
    91a4:	9afffff5 	bls	9180 <monitor_dmx_data+0xb8>
    91a8:	e8bd8070 	pop	{r4, r5, r6, pc}
    91ac:	ebfffc27 	bl	8250 <dmx_get_statistics>
    91b0:	e5904004 	ldr	r4, [r0, #4]
    91b4:	e2844001 	add	r4, r4, #1
    91b8:	e6ff4074 	uxth	r4, r4
    91bc:	eaffffc9 	b	90e8 <monitor_dmx_data+0x20>
    91c0:	e8bd8070 	pop	{r4, r5, r6, pc}
    91c4:	e3a04001 	mov	r4, #1
    91c8:	eaffffec 	b	9180 <monitor_dmx_data+0xb8>
    91cc:	e59f001c 	ldr	r0, [pc, #28]	; 91f0 <monitor_dmx_data+0x128>
    91d0:	eb00026a 	bl	9b80 <console_puts>
    91d4:	eaffffd8 	b	913c <monitor_dmx_data+0x74>
    91d8:	e59f0010 	ldr	r0, [pc, #16]	; 91f0 <monitor_dmx_data+0x128>
    91dc:	eb000267 	bl	9b80 <console_puts>
    91e0:	eaffffe6 	b	9180 <monitor_dmx_data+0xb8>
    91e4:	0000e5ac 	andeq	lr, r0, ip, lsr #11
    91e8:	0000e5b8 			; <UNDEFINED> instruction: 0x0000e5b8
    91ec:	0000e5c8 	andeq	lr, r0, r8, asr #11
    91f0:	0000e5bc 			; <UNDEFINED> instruction: 0x0000e5bc

000091f4 <monitor_sniffer>:
    91f4:	e92d47f0 	push	{r4, r5, r6, r7, r8, r9, sl, lr}
    91f8:	ebfffca5 	bl	8494 <dmx_get_total_statistics>
    91fc:	e8900048 	ldm	r0, {r3, r6}
    9200:	e1a04000 	mov	r4, r0
    9204:	e0836006 	add	r6, r3, r6
    9208:	ebfffc10 	bl	8250 <dmx_get_statistics>
    920c:	e59f1148 	ldr	r1, [pc, #328]	; 935c <monitor_sniffer+0x168>
    9210:	e1a05000 	mov	r5, r0
    9214:	e3a0000b 	mov	r0, #11
    9218:	ebffffaa 	bl	90c8 <monitor_dmx_data>
    921c:	e3a0000e 	mov	r0, #14
    9220:	eb0002ea 	bl	9dd0 <console_clear_line>
    9224:	e894000c 	ldm	r4, {r2, r3}
    9228:	e1a01006 	mov	r1, r6
    922c:	e59f012c 	ldr	r0, [pc, #300]	; 9360 <monitor_sniffer+0x16c>
    9230:	eb000571 	bl	a7fc <printf>
    9234:	eb000057 	bl	9398 <rdm_statistics_get>
    9238:	e1a04000 	mov	r4, r0
    923c:	e59f0120 	ldr	r0, [pc, #288]	; 9364 <monitor_sniffer+0x170>
    9240:	e5941000 	ldr	r1, [r4]
    9244:	eb00056c 	bl	a7fc <printf>
    9248:	e5941004 	ldr	r1, [r4, #4]
    924c:	e59f0114 	ldr	r0, [pc, #276]	; 9368 <monitor_sniffer+0x174>
    9250:	eb000569 	bl	a7fc <printf>
    9254:	e5941008 	ldr	r1, [r4, #8]
    9258:	e59f010c 	ldr	r0, [pc, #268]	; 936c <monitor_sniffer+0x178>
    925c:	eb000566 	bl	a7fc <printf>
    9260:	e594100c 	ldr	r1, [r4, #12]
    9264:	e59f0104 	ldr	r0, [pc, #260]	; 9370 <monitor_sniffer+0x17c>
    9268:	eb000563 	bl	a7fc <printf>
    926c:	e595100c 	ldr	r1, [r5, #12]
    9270:	e59f00fc 	ldr	r0, [pc, #252]	; 9374 <monitor_sniffer+0x180>
    9274:	eb000560 	bl	a7fc <printf>
    9278:	e595300c 	ldr	r3, [r5, #12]
    927c:	e3530000 	cmp	r3, #0
    9280:	1a000006 	bne	92a0 <monitor_sniffer+0xac>
    9284:	e59f00ec 	ldr	r0, [pc, #236]	; 9378 <monitor_sniffer+0x184>
    9288:	eb00023c 	bl	9b80 <console_puts>
    928c:	e59f00e8 	ldr	r0, [pc, #232]	; 937c <monitor_sniffer+0x188>
    9290:	eb00023a 	bl	9b80 <console_puts>
    9294:	e8bd47f0 	pop	{r4, r5, r6, r7, r8, r9, sl, lr}
    9298:	e59f00e0 	ldr	r0, [pc, #224]	; 9380 <monitor_sniffer+0x18c>
    929c:	ea000237 	b	9b80 <console_puts>
    92a0:	e59f60dc 	ldr	r6, [pc, #220]	; 9384 <monitor_sniffer+0x190>
    92a4:	e59f40dc 	ldr	r4, [pc, #220]	; 9388 <monitor_sniffer+0x194>
    92a8:	e5951004 	ldr	r1, [r5, #4]
    92ac:	e5960000 	ldr	r0, [r6]
    92b0:	e5943000 	ldr	r3, [r4]
    92b4:	e5952010 	ldr	r2, [r5, #16]
    92b8:	e1510000 	cmp	r1, r0
    92bc:	e5967004 	ldr	r7, [r6, #4]
    92c0:	31a09001 	movcc	r9, r1
    92c4:	e594e004 	ldr	lr, [r4, #4]
    92c8:	21a09000 	movcs	r9, r0
    92cc:	e1510003 	cmp	r1, r3
    92d0:	21a08001 	movcs	r8, r1
    92d4:	e596c008 	ldr	ip, [r6, #8]
    92d8:	31a08003 	movcc	r8, r3
    92dc:	e5953008 	ldr	r3, [r5, #8]
    92e0:	e1570002 	cmp	r7, r2
    92e4:	e5940008 	ldr	r0, [r4, #8]
    92e8:	21a07002 	movcs	r7, r2
    92ec:	e15e0002 	cmp	lr, r2
    92f0:	31a0e002 	movcc	lr, r2
    92f4:	e15c0003 	cmp	ip, r3
    92f8:	21a0c003 	movcs	ip, r3
    92fc:	e1500003 	cmp	r0, r3
    9300:	21a0a000 	movcs	sl, r0
    9304:	31a0a003 	movcc	sl, r3
    9308:	e1a02009 	mov	r2, r9
    930c:	e1a03008 	mov	r3, r8
    9310:	e59f0074 	ldr	r0, [pc, #116]	; 938c <monitor_sniffer+0x198>
    9314:	e584e004 	str	lr, [r4, #4]
    9318:	e586c008 	str	ip, [r6, #8]
    931c:	e5869000 	str	r9, [r6]
    9320:	e5848000 	str	r8, [r4]
    9324:	e5867004 	str	r7, [r6, #4]
    9328:	e584a008 	str	sl, [r4, #8]
    932c:	eb000532 	bl	a7fc <printf>
    9330:	e5962004 	ldr	r2, [r6, #4]
    9334:	e5943004 	ldr	r3, [r4, #4]
    9338:	e5951010 	ldr	r1, [r5, #16]
    933c:	e59f004c 	ldr	r0, [pc, #76]	; 9390 <monitor_sniffer+0x19c>
    9340:	eb00052d 	bl	a7fc <printf>
    9344:	e5962008 	ldr	r2, [r6, #8]
    9348:	e5943008 	ldr	r3, [r4, #8]
    934c:	e5951008 	ldr	r1, [r5, #8]
    9350:	e59f003c 	ldr	r0, [pc, #60]	; 9394 <monitor_sniffer+0x1a0>
    9354:	e8bd47f0 	pop	{r4, r5, r6, r7, r8, r9, sl, lr}
    9358:	ea000527 	b	a7fc <printf>
    935c:	00010f28 	andeq	r0, r1, r8, lsr #30
    9360:	0000e5cc 	andeq	lr, r0, ip, asr #11
    9364:	0000e5f0 	strdeq	lr, [r0], -r0
    9368:	0000e60c 	andeq	lr, r0, ip, lsl #12
    936c:	0000e628 	andeq	lr, r0, r8, lsr #12
    9370:	0000e644 	andeq	lr, r0, r4, asr #12
    9374:	0000e660 	andeq	lr, r0, r0, ror #12
    9378:	0000e6e8 	andeq	lr, r0, r8, ror #13
    937c:	0000e704 	andeq	lr, r0, r4, lsl #14
    9380:	0000e720 	andeq	lr, r0, r0, lsr #14
    9384:	0000e7c8 	andeq	lr, r0, r8, asr #15
    9388:	00010eb8 			; <UNDEFINED> instruction: 0x00010eb8
    938c:	0000e678 	andeq	lr, r0, r8, ror r6
    9390:	0000e6a0 	andeq	lr, r0, r0, lsr #13
    9394:	0000e6c8 	andeq	lr, r0, r8, asr #13

00009398 <rdm_statistics_get>:
    9398:	e59f0000 	ldr	r0, [pc]	; 93a0 <rdm_statistics_get+0x8>
    939c:	e12fff1e 	bx	lr
    93a0:	00010ec4 	andeq	r0, r1, r4, asr #29

000093a4 <sniffer_dmx>:
    93a4:	e92d4008 	push	{r3, lr}
    93a8:	ebfffbbd 	bl	82a4 <dmx_get_available>
    93ac:	e3500000 	cmp	r0, #0
    93b0:	08bd8008 	popeq	{r3, pc}
    93b4:	ebfffbbe 	bl	82b4 <dmx_set_available_false>
    93b8:	e8bd4008 	pop	{r3, lr}
    93bc:	e3a0000b 	mov	r0, #11
    93c0:	e59f1000 	ldr	r1, [pc]	; 93c8 <sniffer_dmx+0x24>
    93c4:	eaffff3f 	b	90c8 <monitor_dmx_data>
    93c8:	00010f28 	andeq	r0, r1, r8, lsr #30

000093cc <sniffer_rdm>:
    93cc:	e92d4008 	push	{r3, lr}
    93d0:	ebfffba1 	bl	825c <rdm_get_available>
    93d4:	e3500000 	cmp	r0, #0
    93d8:	08bd8008 	popeq	{r3, pc}
    93dc:	e5d03000 	ldrb	r3, [r0]
    93e0:	e35300cc 	cmp	r3, #204	; 0xcc
    93e4:	0a000006 	beq	9404 <sniffer_rdm+0x38>
    93e8:	e35300fe 	cmp	r3, #254	; 0xfe
    93ec:	18bd8008 	popne	{r3, pc}
    93f0:	e59f20e0 	ldr	r2, [pc, #224]	; 94d8 <sniffer_rdm+0x10c>
    93f4:	e5923004 	ldr	r3, [r2, #4]
    93f8:	e2833001 	add	r3, r3, #1
    93fc:	e5823004 	str	r3, [r2, #4]
    9400:	e8bd8008 	pop	{r3, pc}
    9404:	e5d03014 	ldrb	r3, [r0, #20]
    9408:	e2433010 	sub	r3, r3, #16
    940c:	e3530020 	cmp	r3, #32
    9410:	979ff103 	ldrls	pc, [pc, r3, lsl #2]
    9414:	eafffff9 	b	9400 <sniffer_rdm+0x34>
    9418:	000094c4 	andeq	r9, r0, r4, asr #9
    941c:	000093f0 	strdeq	r9, [r0], -r0
    9420:	00009400 	andeq	r9, r0, r0, lsl #8
    9424:	00009400 	andeq	r9, r0, r0, lsl #8
    9428:	00009400 	andeq	r9, r0, r0, lsl #8
    942c:	00009400 	andeq	r9, r0, r0, lsl #8
    9430:	00009400 	andeq	r9, r0, r0, lsl #8
    9434:	00009400 	andeq	r9, r0, r0, lsl #8
    9438:	00009400 	andeq	r9, r0, r0, lsl #8
    943c:	00009400 	andeq	r9, r0, r0, lsl #8
    9440:	00009400 	andeq	r9, r0, r0, lsl #8
    9444:	00009400 	andeq	r9, r0, r0, lsl #8
    9448:	00009400 	andeq	r9, r0, r0, lsl #8
    944c:	00009400 	andeq	r9, r0, r0, lsl #8
    9450:	00009400 	andeq	r9, r0, r0, lsl #8
    9454:	00009400 	andeq	r9, r0, r0, lsl #8
    9458:	000094b0 			; <UNDEFINED> instruction: 0x000094b0
    945c:	00009400 	andeq	r9, r0, r0, lsl #8
    9460:	00009400 	andeq	r9, r0, r0, lsl #8
    9464:	00009400 	andeq	r9, r0, r0, lsl #8
    9468:	00009400 	andeq	r9, r0, r0, lsl #8
    946c:	00009400 	andeq	r9, r0, r0, lsl #8
    9470:	00009400 	andeq	r9, r0, r0, lsl #8
    9474:	00009400 	andeq	r9, r0, r0, lsl #8
    9478:	00009400 	andeq	r9, r0, r0, lsl #8
    947c:	00009400 	andeq	r9, r0, r0, lsl #8
    9480:	00009400 	andeq	r9, r0, r0, lsl #8
    9484:	00009400 	andeq	r9, r0, r0, lsl #8
    9488:	00009400 	andeq	r9, r0, r0, lsl #8
    948c:	00009400 	andeq	r9, r0, r0, lsl #8
    9490:	00009400 	andeq	r9, r0, r0, lsl #8
    9494:	00009400 	andeq	r9, r0, r0, lsl #8
    9498:	0000949c 	muleq	r0, ip, r4
    949c:	e59f2034 	ldr	r2, [pc, #52]	; 94d8 <sniffer_rdm+0x10c>
    94a0:	e592300c 	ldr	r3, [r2, #12]
    94a4:	e2833001 	add	r3, r3, #1
    94a8:	e582300c 	str	r3, [r2, #12]
    94ac:	e8bd8008 	pop	{r3, pc}
    94b0:	e59f2020 	ldr	r2, [pc, #32]	; 94d8 <sniffer_rdm+0x10c>
    94b4:	e5923008 	ldr	r3, [r2, #8]
    94b8:	e2833001 	add	r3, r3, #1
    94bc:	e5823008 	str	r3, [r2, #8]
    94c0:	e8bd8008 	pop	{r3, pc}
    94c4:	e59f200c 	ldr	r2, [pc, #12]	; 94d8 <sniffer_rdm+0x10c>
    94c8:	e5923000 	ldr	r3, [r2]
    94cc:	e2833001 	add	r3, r3, #1
    94d0:	e5823000 	str	r3, [r2]
    94d4:	e8bd8008 	pop	{r3, pc}
    94d8:	00010ec4 	andeq	r0, r1, r4, asr #29

000094dc <monitor_update>:
    94dc:	e92d4008 	push	{r3, lr}
    94e0:	e3a00003 	mov	r0, #3
    94e4:	ebfffe93 	bl	8f38 <monitor_time_uptime>
    94e8:	e8bd4008 	pop	{r3, lr}
    94ec:	eaffff40 	b	91f4 <monitor_sniffer>

000094f0 <notmain>:
    94f0:	e92d40f8 	push	{r3, r4, r5, r6, r7, lr}
    94f4:	eb0007d3 	bl	b448 <hardware_init>
    94f8:	ebfffe00 	bl	8d00 <dmx_init>
    94fc:	eb000779 	bl	b2e8 <hardware_print_board_model>
    9500:	e59f2078 	ldr	r2, [pc, #120]	; 9580 <notmain+0x90>
    9504:	e59f1078 	ldr	r1, [pc, #120]	; 9584 <notmain+0x94>
    9508:	e59f0078 	ldr	r0, [pc, #120]	; 9588 <notmain+0x98>
    950c:	eb0004ba 	bl	a7fc <printf>
    9510:	e59f0074 	ldr	r0, [pc, #116]	; 958c <notmain+0x9c>
    9514:	eb0004b8 	bl	a7fc <printf>
    9518:	e59f5070 	ldr	r5, [pc, #112]	; 9590 <notmain+0xa0>
    951c:	eb000b57 	bl	c280 <watchdog_init>
    9520:	e59f306c 	ldr	r3, [pc, #108]	; 9594 <notmain+0xa4>
    9524:	e59f606c 	ldr	r6, [pc, #108]	; 9598 <notmain+0xa8>
    9528:	e5932004 	ldr	r2, [r3, #4]
    952c:	e1a07003 	mov	r7, r3
    9530:	e5953000 	ldr	r3, [r5]
    9534:	e0833002 	add	r3, r3, r2
    9538:	e5853000 	str	r3, [r5]
    953c:	eb000b5b 	bl	c2b0 <watchdog_feed>
    9540:	ebffffa1 	bl	93cc <sniffer_rdm>
    9544:	ebffff96 	bl	93a4 <sniffer_dmx>
    9548:	eb0007ea 	bl	b4f8 <led_blink>
    954c:	e5973004 	ldr	r3, [r7, #4]
    9550:	e5952000 	ldr	r2, [r5]
    9554:	e59f4034 	ldr	r4, [pc, #52]	; 9590 <notmain+0xa0>
    9558:	e0623003 	rsb	r3, r2, r3
    955c:	e1530006 	cmp	r3, r6
    9560:	9afffff5 	bls	953c <notmain+0x4c>
    9564:	ebffffdc 	bl	94dc <monitor_update>
    9568:	e5943000 	ldr	r3, [r4]
    956c:	e283393d 	add	r3, r3, #999424	; 0xf4000
    9570:	e2833d09 	add	r3, r3, #576	; 0x240
    9574:	e5843000 	str	r3, [r4]
    9578:	eb000b4c 	bl	c2b0 <watchdog_feed>
    957c:	eaffffee 	b	953c <notmain+0x4c>
    9580:	0000e760 	andeq	lr, r0, r0, ror #14
    9584:	0000e754 	andeq	lr, r0, r4, asr r7
    9588:	0000e73c 	andeq	lr, r0, ip, lsr r7
    958c:	0000e76c 	andeq	lr, r0, ip, ror #14
    9590:	0001112c 	andeq	r1, r1, ip, lsr #2
    9594:	20003000 	andcs	r3, r0, r0
    9598:	000f4240 	andeq	r4, pc, r0, asr #4

0000959c <initialise_monitor_handles>:
    959c:	e12fff1e 	bx	lr

000095a0 <_read>:
    95a0:	e1a00002 	mov	r0, r2
    95a4:	e12fff1e 	bx	lr

000095a8 <_lseek>:
    95a8:	e3a00000 	mov	r0, #0
    95ac:	e12fff1e 	bx	lr

000095b0 <_write>:
    95b0:	e92d4070 	push	{r4, r5, r6, lr}
    95b4:	e2526000 	subs	r6, r2, #0
    95b8:	da000005 	ble	95d4 <_write+0x24>
    95bc:	e1a04001 	mov	r4, r1
    95c0:	e0815006 	add	r5, r1, r6
    95c4:	e4d40001 	ldrb	r0, [r4], #1
    95c8:	eb0000a9 	bl	9874 <console_putc>
    95cc:	e1540005 	cmp	r4, r5
    95d0:	1afffffb 	bne	95c4 <_write+0x14>
    95d4:	e1a00006 	mov	r0, r6
    95d8:	e8bd8070 	pop	{r4, r5, r6, pc}

000095dc <_open>:
    95dc:	e92d000e 	push	{r1, r2, r3}
    95e0:	e3a00000 	mov	r0, #0
    95e4:	e28dd00c 	add	sp, sp, #12
    95e8:	e12fff1e 	bx	lr

000095ec <_close>:
    95ec:	e3a00000 	mov	r0, #0
    95f0:	e12fff1e 	bx	lr

000095f4 <_exit>:
    95f4:	eafffffe 	b	95f4 <_exit>

000095f8 <_kill>:
    95f8:	e3a00000 	mov	r0, #0
    95fc:	e12fff1e 	bx	lr

00009600 <_getpid>:
    9600:	e3a00001 	mov	r0, #1
    9604:	e12fff1e 	bx	lr

00009608 <_sbrk>:
    9608:	e59f2028 	ldr	r2, [pc, #40]	; 9638 <_sbrk+0x30>
    960c:	e59f1028 	ldr	r1, [pc, #40]	; 963c <_sbrk+0x34>
    9610:	e5923000 	ldr	r3, [r2]
    9614:	e3530000 	cmp	r3, #0
    9618:	059f3020 	ldreq	r3, [pc, #32]	; 9640 <_sbrk+0x38>
    961c:	e0830000 	add	r0, r3, r0
    9620:	05823000 	streq	r3, [r2]
    9624:	e1500001 	cmp	r0, r1
    9628:	95820000 	strls	r0, [r2]
    962c:	91a00003 	movls	r0, r3
    9630:	83a00000 	movhi	r0, #0
    9634:	e12fff1e 	bx	lr
    9638:	00010ed4 	ldrdeq	r0, [r1], -r4
    963c:	08000000 	stmdaeq	r0, {}	; <UNPREDICTABLE>
    9640:	00012930 	andeq	r2, r1, r0, lsr r9

00009644 <_fstat>:
    9644:	e3a00000 	mov	r0, #0
    9648:	e12fff1e 	bx	lr

0000964c <_stat>:
    964c:	e3a00000 	mov	r0, #0
    9650:	e12fff1e 	bx	lr

00009654 <_link>:
    9654:	e3e00000 	mvn	r0, #0
    9658:	e12fff1e 	bx	lr

0000965c <_unlink>:
    965c:	e3e00000 	mvn	r0, #0
    9660:	e12fff1e 	bx	lr

00009664 <_raise>:
    9664:	e12fff1e 	bx	lr

00009668 <_gettimeofday>:
    9668:	e3500000 	cmp	r0, #0
    966c:	13a03000 	movne	r3, #0
    9670:	13a0200a 	movne	r2, #10
    9674:	1880000c 	stmne	r0, {r2, r3}
    9678:	e3510000 	cmp	r1, #0
    967c:	13a03000 	movne	r3, #0
    9680:	e3a00000 	mov	r0, #0
    9684:	15813000 	strne	r3, [r1]
    9688:	15813004 	strne	r3, [r1, #4]
    968c:	e12fff1e 	bx	lr

00009690 <_times>:
    9690:	e3500000 	cmp	r0, #0
    9694:	13a03000 	movne	r3, #0
    9698:	13a0200a 	movne	r2, #10
    969c:	15803008 	strne	r3, [r0, #8]
    96a0:	1880000c 	stmne	r0, {r2, r3}
    96a4:	1580300c 	strne	r3, [r0, #12]
    96a8:	e3a0000a 	mov	r0, #10
    96ac:	e12fff1e 	bx	lr

000096b0 <_isatty>:
    96b0:	e3a00001 	mov	r0, #1
    96b4:	e12fff1e 	bx	lr

000096b8 <_system>:
    96b8:	e3500000 	cmp	r0, #0
    96bc:	e92d4008 	push	{r3, lr}
    96c0:	01a03000 	moveq	r3, r0
    96c4:	1a000001 	bne	96d0 <_system+0x18>
    96c8:	e1a00003 	mov	r0, r3
    96cc:	e8bd8008 	pop	{r3, pc}
    96d0:	eb000b1e 	bl	c350 <__errno>
    96d4:	e3a02058 	mov	r2, #88	; 0x58
    96d8:	e3e03000 	mvn	r3, #0
    96dc:	e5802000 	str	r2, [r0]
    96e0:	eafffff8 	b	96c8 <_system+0x10>

000096e4 <_rename>:
    96e4:	e92d4008 	push	{r3, lr}
    96e8:	eb000b18 	bl	c350 <__errno>
    96ec:	e3a03058 	mov	r3, #88	; 0x58
    96f0:	e5803000 	str	r3, [r0]
    96f4:	e3e00000 	mvn	r0, #0
    96f8:	e8bd8008 	pop	{r3, pc}

000096fc <console_get_address>:
    96fc:	e59f3004 	ldr	r3, [pc, #4]	; 9708 <console_get_address+0xc>
    9700:	e5930000 	ldr	r0, [r3]
    9704:	e12fff1e 	bx	lr
    9708:	00010ed8 	ldrdeq	r0, [r1], -r8

0000970c <console_get_pitch>:
    970c:	e59f3004 	ldr	r3, [pc, #4]	; 9718 <console_get_pitch+0xc>
    9710:	e5930004 	ldr	r0, [r3, #4]
    9714:	e12fff1e 	bx	lr
    9718:	00010ed8 	ldrdeq	r0, [r1], -r8

0000971c <console_get_width>:
    971c:	e59f3004 	ldr	r3, [pc, #4]	; 9728 <console_get_width+0xc>
    9720:	e5930008 	ldr	r0, [r3, #8]
    9724:	e12fff1e 	bx	lr
    9728:	00010ed8 	ldrdeq	r0, [r1], -r8

0000972c <console_get_height>:
    972c:	e59f3004 	ldr	r3, [pc, #4]	; 9738 <console_get_height+0xc>
    9730:	e593000c 	ldr	r0, [r3, #12]
    9734:	e12fff1e 	bx	lr
    9738:	00010ed8 	ldrdeq	r0, [r1], -r8

0000973c <console_get_size>:
    973c:	e59f3004 	ldr	r3, [pc, #4]	; 9748 <console_get_size+0xc>
    9740:	e5930010 	ldr	r0, [r3, #16]
    9744:	e12fff1e 	bx	lr
    9748:	00010ed8 	ldrdeq	r0, [r1], -r8

0000974c <console_get_depth>:
    974c:	e59f3004 	ldr	r3, [pc, #4]	; 9758 <console_get_depth+0xc>
    9750:	e5930014 	ldr	r0, [r3, #20]
    9754:	e12fff1e 	bx	lr
    9758:	00010ed8 	ldrdeq	r0, [r1], -r8

0000975c <console_draw_char>:
    975c:	e92d4ff0 	push	{r4, r5, r6, r7, r8, r9, sl, fp, lr}
    9760:	e1a05001 	mov	r5, r1
    9764:	e3a01d19 	mov	r1, #1600	; 0x640
    9768:	e24dd00c 	sub	sp, sp, #12
    976c:	e1a02202 	lsl	r2, r2, #4
    9770:	e1a0e185 	lsl	lr, r5, #3
    9774:	e58d0004 	str	r0, [sp, #4]
    9778:	e0000291 	mul	r0, r1, r2
    977c:	e59f20e8 	ldr	r2, [pc, #232]	; 986c <console_draw_char+0x110>
    9780:	e28e4006 	add	r4, lr, #6
    9784:	e5922000 	ldr	r2, [r2]
    9788:	e1a04084 	lsl	r4, r4, #1
    978c:	e284a002 	add	sl, r4, #2
    9790:	e28e9001 	add	r9, lr, #1
    9794:	e28e8002 	add	r8, lr, #2
    9798:	e28e7003 	add	r7, lr, #3
    979c:	e28e6004 	add	r6, lr, #4
    97a0:	e28ee005 	add	lr, lr, #5
    97a4:	e59f10c4 	ldr	r1, [pc, #196]	; 9870 <console_draw_char+0x114>
    97a8:	e08aa002 	add	sl, sl, r2
    97ac:	e0844002 	add	r4, r4, r2
    97b0:	e0825205 	add	r5, r2, r5, lsl #4
    97b4:	e0829089 	add	r9, r2, r9, lsl #1
    97b8:	e0828088 	add	r8, r2, r8, lsl #1
    97bc:	e0827087 	add	r7, r2, r7, lsl #1
    97c0:	e0826086 	add	r6, r2, r6, lsl #1
    97c4:	e082e08e 	add	lr, r2, lr, lsl #1
    97c8:	e59d2004 	ldr	r2, [sp, #4]
    97cc:	e1ddc3b0 	ldrh	ip, [sp, #48]	; 0x30
    97d0:	e280bb19 	add	fp, r0, #25600	; 0x6400
    97d4:	e0811202 	add	r1, r1, r2, lsl #4
    97d8:	e5f12001 	ldrb	r2, [r1, #1]!
    97dc:	e3120001 	tst	r2, #1
    97e0:	e1a020a2 	lsr	r2, r2, #1
    97e4:	0180c0b5 	strheq	ip, [r0, r5]
    97e8:	118530b0 	strhne	r3, [r5, r0]
    97ec:	e3120001 	tst	r2, #1
    97f0:	e1a020a2 	lsr	r2, r2, #1
    97f4:	0189c0b0 	strheq	ip, [r9, r0]
    97f8:	118930b0 	strhne	r3, [r9, r0]
    97fc:	e3120001 	tst	r2, #1
    9800:	e1a020a2 	lsr	r2, r2, #1
    9804:	0188c0b0 	strheq	ip, [r8, r0]
    9808:	118830b0 	strhne	r3, [r8, r0]
    980c:	e3120001 	tst	r2, #1
    9810:	e1a020a2 	lsr	r2, r2, #1
    9814:	0180c0b7 	strheq	ip, [r0, r7]
    9818:	118030b7 	strhne	r3, [r0, r7]
    981c:	e3120001 	tst	r2, #1
    9820:	e1a020a2 	lsr	r2, r2, #1
    9824:	0180c0b6 	strheq	ip, [r0, r6]
    9828:	118030b6 	strhne	r3, [r0, r6]
    982c:	e3120001 	tst	r2, #1
    9830:	e1a020a2 	lsr	r2, r2, #1
    9834:	0180c0be 	strheq	ip, [r0, lr]
    9838:	118030be 	strhne	r3, [r0, lr]
    983c:	e3120001 	tst	r2, #1
    9840:	0180c0b4 	strheq	ip, [r0, r4]
    9844:	118030b4 	strhne	r3, [r0, r4]
    9848:	e3120002 	tst	r2, #2
    984c:	0180c0ba 	strheq	ip, [r0, sl]
    9850:	118030ba 	strhne	r3, [r0, sl]
    9854:	e2800d19 	add	r0, r0, #1600	; 0x640
    9858:	e150000b 	cmp	r0, fp
    985c:	1affffdd 	bne	97d8 <console_draw_char+0x7c>
    9860:	e59d0004 	ldr	r0, [sp, #4]
    9864:	e28dd00c 	add	sp, sp, #12
    9868:	e8bd8ff0 	pop	{r4, r5, r6, r7, r8, r9, sl, fp, pc}
    986c:	00010ed8 	ldrdeq	r0, [r1], -r8
    9870:	0000a87f 	andeq	sl, r0, pc, ror r8

00009874 <console_putc>:
    9874:	e92d4ff0 	push	{r4, r5, r6, r7, r8, r9, sl, fp, lr}
    9878:	e350000a 	cmp	r0, #10
    987c:	e24dd01c 	sub	sp, sp, #28
    9880:	e58d0004 	str	r0, [sp, #4]
    9884:	0a00008f 	beq	9ac8 <console_putc+0x254>
    9888:	e350000d 	cmp	r0, #13
    988c:	0a00005d 	beq	9a08 <console_putc+0x194>
    9890:	e3500009 	cmp	r0, #9
    9894:	0a000054 	beq	99ec <console_putc+0x178>
    9898:	e59f32c4 	ldr	r3, [pc, #708]	; 9b64 <console_putc+0x2f0>
    989c:	e3a01d19 	mov	r1, #1600	; 0x640
    98a0:	e1a02003 	mov	r2, r3
    98a4:	e5920018 	ldr	r0, [r2, #24]
    98a8:	e58d3008 	str	r3, [sp, #8]
    98ac:	e1a0c000 	mov	ip, r0
    98b0:	e58d0010 	str	r0, [sp, #16]
    98b4:	e1a00002 	mov	r0, r2
    98b8:	e592201c 	ldr	r2, [r2, #28]
    98bc:	e59f32a4 	ldr	r3, [pc, #676]	; 9b68 <console_putc+0x2f4>
    98c0:	e1a0b002 	mov	fp, r2
    98c4:	e58d200c 	str	r2, [sp, #12]
    98c8:	e1a0220c 	lsl	r2, ip, #4
    98cc:	e0020291 	mul	r2, r1, r2
    98d0:	e5901000 	ldr	r1, [r0]
    98d4:	e1a0e18b 	lsl	lr, fp, #3
    98d8:	e1a0a001 	mov	sl, r1
    98dc:	e58d1014 	str	r1, [sp, #20]
    98e0:	e1d310b0 	ldrh	r1, [r3]
    98e4:	e1a0300a 	mov	r3, sl
    98e8:	e28e4006 	add	r4, lr, #6
    98ec:	e1a04084 	lsl	r4, r4, #1
    98f0:	e59fc274 	ldr	ip, [pc, #628]	; 9b6c <console_putc+0x2f8>
    98f4:	e083b20b 	add	fp, r3, fp, lsl #4
    98f8:	e59d3004 	ldr	r3, [sp, #4]
    98fc:	e2849002 	add	r9, r4, #2
    9900:	e28e8001 	add	r8, lr, #1
    9904:	e28e7002 	add	r7, lr, #2
    9908:	e28e6003 	add	r6, lr, #3
    990c:	e28e5004 	add	r5, lr, #4
    9910:	e1d002b0 	ldrh	r0, [r0, #32]
    9914:	e28ee005 	add	lr, lr, #5
    9918:	e089900a 	add	r9, r9, sl
    991c:	e084400a 	add	r4, r4, sl
    9920:	e08a8088 	add	r8, sl, r8, lsl #1
    9924:	e08a7087 	add	r7, sl, r7, lsl #1
    9928:	e08a6086 	add	r6, sl, r6, lsl #1
    992c:	e08a5085 	add	r5, sl, r5, lsl #1
    9930:	e08ae08e 	add	lr, sl, lr, lsl #1
    9934:	e08cc203 	add	ip, ip, r3, lsl #4
    9938:	e282ab19 	add	sl, r2, #25600	; 0x6400
    993c:	e5fc3001 	ldrb	r3, [ip, #1]!
    9940:	e3130001 	tst	r3, #1
    9944:	e1a030a3 	lsr	r3, r3, #1
    9948:	018200bb 	strheq	r0, [r2, fp]
    994c:	118b10b2 	strhne	r1, [fp, r2]
    9950:	e3130001 	tst	r3, #1
    9954:	e1a030a3 	lsr	r3, r3, #1
    9958:	018800b2 	strheq	r0, [r8, r2]
    995c:	118810b2 	strhne	r1, [r8, r2]
    9960:	e3130001 	tst	r3, #1
    9964:	e1a030a3 	lsr	r3, r3, #1
    9968:	018700b2 	strheq	r0, [r7, r2]
    996c:	118710b2 	strhne	r1, [r7, r2]
    9970:	e3130001 	tst	r3, #1
    9974:	e1a030a3 	lsr	r3, r3, #1
    9978:	018600b2 	strheq	r0, [r6, r2]
    997c:	118610b2 	strhne	r1, [r6, r2]
    9980:	e3130001 	tst	r3, #1
    9984:	e1a030a3 	lsr	r3, r3, #1
    9988:	018500b2 	strheq	r0, [r5, r2]
    998c:	118510b2 	strhne	r1, [r5, r2]
    9990:	e3130001 	tst	r3, #1
    9994:	e1a030a3 	lsr	r3, r3, #1
    9998:	018e00b2 	strheq	r0, [lr, r2]
    999c:	118e10b2 	strhne	r1, [lr, r2]
    99a0:	e3130001 	tst	r3, #1
    99a4:	018400b2 	strheq	r0, [r4, r2]
    99a8:	118410b2 	strhne	r1, [r4, r2]
    99ac:	e3130002 	tst	r3, #2
    99b0:	018900b2 	strheq	r0, [r9, r2]
    99b4:	118910b2 	strhne	r1, [r9, r2]
    99b8:	e2822d19 	add	r2, r2, #1600	; 0x640
    99bc:	e152000a 	cmp	r2, sl
    99c0:	1affffdd 	bne	993c <console_putc+0xc8>
    99c4:	e59d300c 	ldr	r3, [sp, #12]
    99c8:	e59d2008 	ldr	r2, [sp, #8]
    99cc:	e2833001 	add	r3, r3, #1
    99d0:	e3530064 	cmp	r3, #100	; 0x64
    99d4:	e582301c 	str	r3, [r2, #28]
    99d8:	e59f4184 	ldr	r4, [pc, #388]	; 9b64 <console_putc+0x2f0>
    99dc:	0a00000f 	beq	9a20 <console_putc+0x1ac>
    99e0:	e59d0004 	ldr	r0, [sp, #4]
    99e4:	e28dd01c 	add	sp, sp, #28
    99e8:	e8bd8ff0 	pop	{r4, r5, r6, r7, r8, r9, sl, fp, pc}
    99ec:	e59f2170 	ldr	r2, [pc, #368]	; 9b64 <console_putc+0x2f0>
    99f0:	e59d0004 	ldr	r0, [sp, #4]
    99f4:	e592301c 	ldr	r3, [r2, #28]
    99f8:	e2833004 	add	r3, r3, #4
    99fc:	e582301c 	str	r3, [r2, #28]
    9a00:	e28dd01c 	add	sp, sp, #28
    9a04:	e8bd8ff0 	pop	{r4, r5, r6, r7, r8, r9, sl, fp, pc}
    9a08:	e3a02000 	mov	r2, #0
    9a0c:	e59f3150 	ldr	r3, [pc, #336]	; 9b64 <console_putc+0x2f0>
    9a10:	e59d0004 	ldr	r0, [sp, #4]
    9a14:	e583201c 	str	r2, [r3, #28]
    9a18:	e28dd01c 	add	sp, sp, #28
    9a1c:	e8bd8ff0 	pop	{r4, r5, r6, r7, r8, r9, sl, fp, pc}
    9a20:	e3a02000 	mov	r2, #0
    9a24:	e59d3010 	ldr	r3, [sp, #16]
    9a28:	e584201c 	str	r2, [r4, #28]
    9a2c:	e2833001 	add	r3, r3, #1
    9a30:	e353001e 	cmp	r3, #30
    9a34:	e5843018 	str	r3, [r4, #24]
    9a38:	1affffe8 	bne	99e0 <console_putc+0x16c>
    9a3c:	e59d0014 	ldr	r0, [sp, #20]
    9a40:	e59f2128 	ldr	r2, [pc, #296]	; 9b70 <console_putc+0x2fc>
    9a44:	e2801b19 	add	r1, r0, #25600	; 0x6400
    9a48:	eb000b27 	bl	c6ec <memmove>
    9a4c:	e5943000 	ldr	r3, [r4]
    9a50:	e1d4e2b0 	ldrh	lr, [r4, #32]
    9a54:	e2833ab5 	add	r3, r3, #741376	; 0xb5000
    9a58:	e2833b01 	add	r3, r3, #1024	; 0x400
    9a5c:	e2132002 	ands	r2, r3, #2
    9a60:	13e02000 	mvnne	r2, #0
    9a64:	e2120001 	ands	r0, r2, #1
    9a68:	03a0cc32 	moveq	ip, #12800	; 0x3200
    9a6c:	03a01c19 	moveq	r1, #6400	; 0x1900
    9a70:	01a0500c 	moveq	r5, ip
    9a74:	e3a02000 	mov	r2, #0
    9a78:	159fc0f4 	ldrne	ip, [pc, #244]	; 9b74 <console_putc+0x300>
    9a7c:	159f10f4 	ldrne	r1, [pc, #244]	; 9b78 <console_putc+0x304>
    9a80:	159f50f4 	ldrne	r5, [pc, #244]	; 9b7c <console_putc+0x308>
    9a84:	11c3e0b0 	strhne	lr, [r3]
    9a88:	12834002 	addne	r4, r3, #2
    9a8c:	01a04003 	moveq	r4, r3
    9a90:	e0833080 	add	r3, r3, r0, lsl #1
    9a94:	e18e080e 	orr	r0, lr, lr, lsl #16
    9a98:	e2822001 	add	r2, r2, #1
    9a9c:	e1520001 	cmp	r2, r1
    9aa0:	e4830004 	str	r0, [r3], #4
    9aa4:	3afffffb 	bcc	9a98 <console_putc+0x224>
    9aa8:	e59d2008 	ldr	r2, [sp, #8]
    9aac:	e155000c 	cmp	r5, ip
    9ab0:	e5923018 	ldr	r3, [r2, #24]
    9ab4:	e1a0c08c 	lsl	ip, ip, #1
    9ab8:	e2433001 	sub	r3, r3, #1
    9abc:	1184e0bc 	strhne	lr, [r4, ip]
    9ac0:	e5823018 	str	r3, [r2, #24]
    9ac4:	eaffffc5 	b	99e0 <console_putc+0x16c>
    9ac8:	e59f3094 	ldr	r3, [pc, #148]	; 9b64 <console_putc+0x2f0>
    9acc:	e3a02000 	mov	r2, #0
    9ad0:	e1a01003 	mov	r1, r3
    9ad4:	e58d3008 	str	r3, [sp, #8]
    9ad8:	e5933018 	ldr	r3, [r3, #24]
    9adc:	e581201c 	str	r2, [r1, #28]
    9ae0:	e2833001 	add	r3, r3, #1
    9ae4:	e353001e 	cmp	r3, #30
    9ae8:	e5813018 	str	r3, [r1, #24]
    9aec:	1affffbb 	bne	99e0 <console_putc+0x16c>
    9af0:	e1a04001 	mov	r4, r1
    9af4:	e5910000 	ldr	r0, [r1]
    9af8:	e59f2070 	ldr	r2, [pc, #112]	; 9b70 <console_putc+0x2fc>
    9afc:	e2801b19 	add	r1, r0, #25600	; 0x6400
    9b00:	eb000af9 	bl	c6ec <memmove>
    9b04:	e5943000 	ldr	r3, [r4]
    9b08:	e1d4e2b0 	ldrh	lr, [r4, #32]
    9b0c:	e2833ab5 	add	r3, r3, #741376	; 0xb5000
    9b10:	e2833b01 	add	r3, r3, #1024	; 0x400
    9b14:	e2132002 	ands	r2, r3, #2
    9b18:	13e02000 	mvnne	r2, #0
    9b1c:	e2120001 	ands	r0, r2, #1
    9b20:	03a0cc32 	moveq	ip, #12800	; 0x3200
    9b24:	03a01c19 	moveq	r1, #6400	; 0x1900
    9b28:	01a0500c 	moveq	r5, ip
    9b2c:	e3a02000 	mov	r2, #0
    9b30:	159f1040 	ldrne	r1, [pc, #64]	; 9b78 <console_putc+0x304>
    9b34:	159fc038 	ldrne	ip, [pc, #56]	; 9b74 <console_putc+0x300>
    9b38:	159f503c 	ldrne	r5, [pc, #60]	; 9b7c <console_putc+0x308>
    9b3c:	11c3e0b0 	strhne	lr, [r3]
    9b40:	12834002 	addne	r4, r3, #2
    9b44:	01a04003 	moveq	r4, r3
    9b48:	e0833080 	add	r3, r3, r0, lsl #1
    9b4c:	e18e080e 	orr	r0, lr, lr, lsl #16
    9b50:	e2822001 	add	r2, r2, #1
    9b54:	e1520001 	cmp	r2, r1
    9b58:	e4830004 	str	r0, [r3], #4
    9b5c:	3afffffb 	bcc	9b50 <console_putc+0x2dc>
    9b60:	eaffffd0 	b	9aa8 <console_putc+0x234>
    9b64:	00010ed8 	ldrdeq	r0, [r1], -r8
    9b68:	0000e7d4 	ldrdeq	lr, [r0], -r4
    9b6c:	0000a87f 	andeq	sl, r0, pc, ror r8
    9b70:	000b5400 	andeq	r5, fp, r0, lsl #8
    9b74:	000031fe 	strdeq	r3, [r0], -lr
    9b78:	000018ff 	strdeq	r1, [r0], -pc	; <UNPREDICTABLE>
    9b7c:	000031ff 	strdeq	r3, [r0], -pc	; <UNPREDICTABLE>

00009b80 <console_puts>:
    9b80:	e92d4010 	push	{r4, lr}
    9b84:	e1a04000 	mov	r4, r0
    9b88:	e5d00000 	ldrb	r0, [r0]
    9b8c:	e2844001 	add	r4, r4, #1
    9b90:	e3500000 	cmp	r0, #0
    9b94:	08bd8010 	popeq	{r4, pc}
    9b98:	ebffff35 	bl	9874 <console_putc>
    9b9c:	e4d40001 	ldrb	r0, [r4], #1
    9ba0:	e3500000 	cmp	r0, #0
    9ba4:	1afffffb 	bne	9b98 <console_puts+0x18>
    9ba8:	e8bd8010 	pop	{r4, pc}

00009bac <console_puthex>:
    9bac:	e92d4010 	push	{r4, lr}
    9bb0:	e1a04000 	mov	r4, r0
    9bb4:	e1a00220 	lsr	r0, r0, #4
    9bb8:	e3500009 	cmp	r0, #9
    9bbc:	e204400f 	and	r4, r4, #15
    9bc0:	92800030 	addls	r0, r0, #48	; 0x30
    9bc4:	82800037 	addhi	r0, r0, #55	; 0x37
    9bc8:	ebffff29 	bl	9874 <console_putc>
    9bcc:	e3540009 	cmp	r4, #9
    9bd0:	92840030 	addls	r0, r4, #48	; 0x30
    9bd4:	82840037 	addhi	r0, r4, #55	; 0x37
    9bd8:	e8bd4010 	pop	{r4, lr}
    9bdc:	eaffff24 	b	9874 <console_putc>

00009be0 <console_puthex_fg_bg>:
    9be0:	e92d41f0 	push	{r4, r5, r6, r7, r8, lr}
    9be4:	e1a04000 	mov	r4, r0
    9be8:	e1a00220 	lsr	r0, r0, #4
    9bec:	e3500009 	cmp	r0, #9
    9bf0:	e59f803c 	ldr	r8, [pc, #60]	; 9c34 <console_puthex_fg_bg+0x54>
    9bf4:	e59f503c 	ldr	r5, [pc, #60]	; 9c38 <console_puthex_fg_bg+0x58>
    9bf8:	e204400f 	and	r4, r4, #15
    9bfc:	92800030 	addls	r0, r0, #48	; 0x30
    9c00:	82800037 	addhi	r0, r0, #55	; 0x37
    9c04:	e1d870b0 	ldrh	r7, [r8]
    9c08:	e1d562b0 	ldrh	r6, [r5, #32]
    9c0c:	e1c810b0 	strh	r1, [r8]
    9c10:	e1c522b0 	strh	r2, [r5, #32]
    9c14:	ebffff16 	bl	9874 <console_putc>
    9c18:	e3540009 	cmp	r4, #9
    9c1c:	92840030 	addls	r0, r4, #48	; 0x30
    9c20:	82840037 	addhi	r0, r4, #55	; 0x37
    9c24:	ebffff12 	bl	9874 <console_putc>
    9c28:	e1c870b0 	strh	r7, [r8]
    9c2c:	e1c562b0 	strh	r6, [r5, #32]
    9c30:	e8bd81f0 	pop	{r4, r5, r6, r7, r8, pc}
    9c34:	0000e7d4 	ldrdeq	lr, [r0], -r4
    9c38:	00010ed8 	ldrdeq	r0, [r1], -r8

00009c3c <console_newline>:
    9c3c:	e3a02000 	mov	r2, #0
    9c40:	e92d4070 	push	{r4, r5, r6, lr}
    9c44:	e59f409c 	ldr	r4, [pc, #156]	; 9ce8 <console_newline+0xac>
    9c48:	e5943018 	ldr	r3, [r4, #24]
    9c4c:	e584201c 	str	r2, [r4, #28]
    9c50:	e2833001 	add	r3, r3, #1
    9c54:	e353001e 	cmp	r3, #30
    9c58:	e5843018 	str	r3, [r4, #24]
    9c5c:	18bd8070 	popne	{r4, r5, r6, pc}
    9c60:	e5940000 	ldr	r0, [r4]
    9c64:	e59f2080 	ldr	r2, [pc, #128]	; 9cec <console_newline+0xb0>
    9c68:	e2801b19 	add	r1, r0, #25600	; 0x6400
    9c6c:	eb000a9e 	bl	c6ec <memmove>
    9c70:	e5942000 	ldr	r2, [r4]
    9c74:	e1d4e2b0 	ldrh	lr, [r4, #32]
    9c78:	e2822ab5 	add	r2, r2, #741376	; 0xb5000
    9c7c:	e2822b01 	add	r2, r2, #1024	; 0x400
    9c80:	e2123002 	ands	r3, r2, #2
    9c84:	13e03000 	mvnne	r3, #0
    9c88:	e2130001 	ands	r0, r3, #1
    9c8c:	03a0cc32 	moveq	ip, #12800	; 0x3200
    9c90:	03a01c19 	moveq	r1, #6400	; 0x1900
    9c94:	01a0600c 	moveq	r6, ip
    9c98:	e3a03000 	mov	r3, #0
    9c9c:	159fc04c 	ldrne	ip, [pc, #76]	; 9cf0 <console_newline+0xb4>
    9ca0:	159f104c 	ldrne	r1, [pc, #76]	; 9cf4 <console_newline+0xb8>
    9ca4:	159f604c 	ldrne	r6, [pc, #76]	; 9cf8 <console_newline+0xbc>
    9ca8:	11c2e0b0 	strhne	lr, [r2]
    9cac:	12825002 	addne	r5, r2, #2
    9cb0:	01a05002 	moveq	r5, r2
    9cb4:	e0822080 	add	r2, r2, r0, lsl #1
    9cb8:	e18e080e 	orr	r0, lr, lr, lsl #16
    9cbc:	e2833001 	add	r3, r3, #1
    9cc0:	e1530001 	cmp	r3, r1
    9cc4:	e4820004 	str	r0, [r2], #4
    9cc8:	3afffffb 	bcc	9cbc <console_newline+0x80>
    9ccc:	e5943018 	ldr	r3, [r4, #24]
    9cd0:	e156000c 	cmp	r6, ip
    9cd4:	e2433001 	sub	r3, r3, #1
    9cd8:	e1a0c08c 	lsl	ip, ip, #1
    9cdc:	1185e0bc 	strhne	lr, [r5, ip]
    9ce0:	e5843018 	str	r3, [r4, #24]
    9ce4:	e8bd8070 	pop	{r4, r5, r6, pc}
    9ce8:	00010ed8 	ldrdeq	r0, [r1], -r8
    9cec:	000b5400 	andeq	r5, fp, r0, lsl #8
    9cf0:	000031fe 	strdeq	r3, [r0], -lr
    9cf4:	000018ff 	strdeq	r1, [r0], -pc	; <UNPREDICTABLE>
    9cf8:	000031ff 	strdeq	r3, [r0], -pc	; <UNPREDICTABLE>

00009cfc <console_clear>:
    9cfc:	e59fc070 	ldr	ip, [pc, #112]	; 9d74 <console_clear+0x78>
    9d00:	e92d4070 	push	{r4, r5, r6, lr}
    9d04:	e59c2000 	ldr	r2, [ip]
    9d08:	e1dc42b0 	ldrh	r4, [ip, #32]
    9d0c:	e2123002 	ands	r3, r2, #2
    9d10:	13e03000 	mvnne	r3, #0
    9d14:	e2130001 	ands	r0, r3, #1
    9d18:	059fe058 	ldreq	lr, [pc, #88]	; 9d78 <console_clear+0x7c>
    9d1c:	e3a03000 	mov	r3, #0
    9d20:	01a0600e 	moveq	r6, lr
    9d24:	159fe050 	ldrne	lr, [pc, #80]	; 9d7c <console_clear+0x80>
    9d28:	159f1050 	ldrne	r1, [pc, #80]	; 9d80 <console_clear+0x84>
    9d2c:	159f6050 	ldrne	r6, [pc, #80]	; 9d84 <console_clear+0x88>
    9d30:	059f1050 	ldreq	r1, [pc, #80]	; 9d88 <console_clear+0x8c>
    9d34:	11c240b0 	strhne	r4, [r2]
    9d38:	12825002 	addne	r5, r2, #2
    9d3c:	01a05002 	moveq	r5, r2
    9d40:	e0822080 	add	r2, r2, r0, lsl #1
    9d44:	e1840804 	orr	r0, r4, r4, lsl #16
    9d48:	e2833001 	add	r3, r3, #1
    9d4c:	e1530001 	cmp	r3, r1
    9d50:	e4820004 	str	r0, [r2], #4
    9d54:	3afffffb 	bcc	9d48 <console_clear+0x4c>
    9d58:	e3a03000 	mov	r3, #0
    9d5c:	e156000e 	cmp	r6, lr
    9d60:	e1a0e08e 	lsl	lr, lr, #1
    9d64:	118540be 	strhne	r4, [r5, lr]
    9d68:	e58c301c 	str	r3, [ip, #28]
    9d6c:	e58c3018 	str	r3, [ip, #24]
    9d70:	e8bd8070 	pop	{r4, r5, r6, pc}
    9d74:	00010ed8 	ldrdeq	r0, [r1], -r8
    9d78:	0005dc00 	andeq	sp, r5, r0, lsl #24
    9d7c:	0005dbfe 	strdeq	sp, [r5], -lr
    9d80:	0002edff 	strdeq	lr, [r2], -pc	; <UNPREDICTABLE>
    9d84:	0005dbff 	strdeq	sp, [r5], -pc	; <UNPREDICTABLE>
    9d88:	0002ee00 	andeq	lr, r2, r0, lsl #28

00009d8c <console_set_cursor>:
    9d8c:	e3500064 	cmp	r0, #100	; 0x64
    9d90:	c3a00000 	movgt	r0, #0
    9d94:	e351001e 	cmp	r1, #30
    9d98:	c3a01000 	movgt	r1, #0
    9d9c:	e59f3008 	ldr	r3, [pc, #8]	; 9dac <console_set_cursor+0x20>
    9da0:	e583001c 	str	r0, [r3, #28]
    9da4:	e5831018 	str	r1, [r3, #24]
    9da8:	e12fff1e 	bx	lr
    9dac:	00010ed8 	ldrdeq	r0, [r1], -r8

00009db0 <console_set_fg_color>:
    9db0:	e59f3004 	ldr	r3, [pc, #4]	; 9dbc <console_set_fg_color+0xc>
    9db4:	e1c300b0 	strh	r0, [r3]
    9db8:	e12fff1e 	bx	lr
    9dbc:	0000e7d4 	ldrdeq	lr, [r0], -r4

00009dc0 <console_set_bg_color>:
    9dc0:	e59f3004 	ldr	r3, [pc, #4]	; 9dcc <console_set_bg_color+0xc>
    9dc4:	e1c302b0 	strh	r0, [r3, #32]
    9dc8:	e12fff1e 	bx	lr
    9dcc:	00010ed8 	ldrdeq	r0, [r1], -r8

00009dd0 <console_clear_line>:
    9dd0:	e3a01b19 	mov	r1, #25600	; 0x6400
    9dd4:	e59f3080 	ldr	r3, [pc, #128]	; 9e5c <console_clear_line+0x8c>
    9dd8:	e0010091 	mul	r1, r1, r0
    9ddc:	e92d4070 	push	{r4, r5, r6, lr}
    9de0:	e593e000 	ldr	lr, [r3]
    9de4:	e350001e 	cmp	r0, #30
    9de8:	e081200e 	add	r2, r1, lr
    9dec:	c3a00000 	movgt	r0, #0
    9df0:	e212c002 	ands	ip, r2, #2
    9df4:	13e0c000 	mvnne	ip, #0
    9df8:	e21cc001 	ands	ip, ip, #1
    9dfc:	e3a04000 	mov	r4, #0
    9e00:	03a0ec32 	moveq	lr, #12800	; 0x3200
    9e04:	e5830018 	str	r0, [r3, #24]
    9e08:	e583401c 	str	r4, [r3, #28]
    9e0c:	01a0600e 	moveq	r6, lr
    9e10:	e1d342b0 	ldrh	r4, [r3, #32]
    9e14:	03a01c19 	moveq	r1, #6400	; 0x1900
    9e18:	e3a03000 	mov	r3, #0
    9e1c:	118140be 	strhne	r4, [r1, lr]
    9e20:	159f6038 	ldrne	r6, [pc, #56]	; 9e60 <console_clear_line+0x90>
    9e24:	159fe038 	ldrne	lr, [pc, #56]	; 9e64 <console_clear_line+0x94>
    9e28:	159f1038 	ldrne	r1, [pc, #56]	; 9e68 <console_clear_line+0x98>
    9e2c:	12825002 	addne	r5, r2, #2
    9e30:	01a05002 	moveq	r5, r2
    9e34:	e1840804 	orr	r0, r4, r4, lsl #16
    9e38:	e082208c 	add	r2, r2, ip, lsl #1
    9e3c:	e2833001 	add	r3, r3, #1
    9e40:	e1530001 	cmp	r3, r1
    9e44:	e4820004 	str	r0, [r2], #4
    9e48:	3afffffb 	bcc	9e3c <console_clear_line+0x6c>
    9e4c:	e156000e 	cmp	r6, lr
    9e50:	e1a0e08e 	lsl	lr, lr, #1
    9e54:	118540be 	strhne	r4, [r5, lr]
    9e58:	e8bd8070 	pop	{r4, r5, r6, pc}
    9e5c:	00010ed8 	ldrdeq	r0, [r1], -r8
    9e60:	000031ff 	strdeq	r3, [r0], -pc	; <UNPREDICTABLE>
    9e64:	000031fe 	strdeq	r3, [r0], -lr
    9e68:	000018ff 	strdeq	r1, [r0], -pc	; <UNPREDICTABLE>

00009e6c <console_init>:
    9e6c:	e92d4ff8 	push	{r3, r4, r5, r6, r7, r8, r9, sl, fp, lr}
    9e70:	e3a0c020 	mov	ip, #32
    9e74:	e3a03000 	mov	r3, #0
    9e78:	e3a05008 	mov	r5, #8
    9e7c:	e28db024 	add	fp, sp, #36	; 0x24
    9e80:	e24dde11 	sub	sp, sp, #272	; 0x110
    9e84:	e59f2198 	ldr	r2, [pc, #408]	; a024 <console_init+0x1b8>
    9e88:	e28d400f 	add	r4, sp, #15
    9e8c:	e3c4400f 	bic	r4, r4, #15
    9e90:	e1a01004 	mov	r1, r4
    9e94:	e5842008 	str	r2, [r4, #8]
    9e98:	e5843004 	str	r3, [r4, #4]
    9e9c:	e5843010 	str	r3, [r4, #16]
    9ea0:	e5843014 	str	r3, [r4, #20]
    9ea4:	e5843018 	str	r3, [r4, #24]
    9ea8:	e584301c 	str	r3, [r4, #28]
    9eac:	e1a00005 	mov	r0, r5
    9eb0:	e584c000 	str	ip, [r4]
    9eb4:	e584500c 	str	r5, [r4, #12]
    9eb8:	eb000780 	bl	bcc0 <bcm2835_mailbox_write>
    9ebc:	e1a00005 	mov	r0, r5
    9ec0:	eb000772 	bl	bc90 <bcm2835_mailbox_read>
    9ec4:	e5943014 	ldr	r3, [r4, #20]
    9ec8:	e5942018 	ldr	r2, [r4, #24]
    9ecc:	e59f6154 	ldr	r6, [pc, #340]	; a028 <console_init+0x1bc>
    9ed0:	e1921003 	orrs	r1, r2, r3
    9ed4:	e5863008 	str	r3, [r6, #8]
    9ed8:	e586200c 	str	r2, [r6, #12]
    9edc:	1a000047 	bne	a000 <console_init+0x194>
    9ee0:	e3a03e32 	mov	r3, #800	; 0x320
    9ee4:	e3a02e1e 	mov	r2, #480	; 0x1e0
    9ee8:	e5863008 	str	r3, [r6, #8]
    9eec:	e586200c 	str	r2, [r6, #12]
    9ef0:	e3a05008 	mov	r5, #8
    9ef4:	e3a0c000 	mov	ip, #0
    9ef8:	e3a0e010 	mov	lr, #16
    9efc:	e3a07004 	mov	r7, #4
    9f00:	e3a0a058 	mov	sl, #88	; 0x58
    9f04:	e5843014 	str	r3, [r4, #20]
    9f08:	e5843028 	str	r3, [r4, #40]	; 0x28
    9f0c:	e59f3118 	ldr	r3, [pc, #280]	; a02c <console_init+0x1c0>
    9f10:	e59f9118 	ldr	r9, [pc, #280]	; a030 <console_init+0x1c4>
    9f14:	e5843030 	str	r3, [r4, #48]	; 0x30
    9f18:	e59f8114 	ldr	r8, [pc, #276]	; a034 <console_init+0x1c8>
    9f1c:	e59f3114 	ldr	r3, [pc, #276]	; a038 <console_init+0x1cc>
    9f20:	e5842018 	str	r2, [r4, #24]
    9f24:	e584202c 	str	r2, [r4, #44]	; 0x2c
    9f28:	e5843040 	str	r3, [r4, #64]	; 0x40
    9f2c:	e1a00005 	mov	r0, r5
    9f30:	e1a01004 	mov	r1, r4
    9f34:	e8841400 	stm	r4, {sl, ip}
    9f38:	e584c050 	str	ip, [r4, #80]	; 0x50
    9f3c:	e584c054 	str	ip, [r4, #84]	; 0x54
    9f40:	e584e03c 	str	lr, [r4, #60]	; 0x3c
    9f44:	e584e04c 	str	lr, [r4, #76]	; 0x4c
    9f48:	e584500c 	str	r5, [r4, #12]
    9f4c:	e5845010 	str	r5, [r4, #16]
    9f50:	e5845020 	str	r5, [r4, #32]
    9f54:	e5845024 	str	r5, [r4, #36]	; 0x24
    9f58:	e5845044 	str	r5, [r4, #68]	; 0x44
    9f5c:	e5847034 	str	r7, [r4, #52]	; 0x34
    9f60:	e5847038 	str	r7, [r4, #56]	; 0x38
    9f64:	e5847048 	str	r7, [r4, #72]	; 0x48
    9f68:	e5849008 	str	r9, [r4, #8]
    9f6c:	e584801c 	str	r8, [r4, #28]
    9f70:	eb000752 	bl	bcc0 <bcm2835_mailbox_write>
    9f74:	e1a00005 	mov	r0, r5
    9f78:	eb000744 	bl	bc90 <bcm2835_mailbox_read>
    9f7c:	e594304c 	ldr	r3, [r4, #76]	; 0x4c
    9f80:	e5942050 	ldr	r2, [r4, #80]	; 0x50
    9f84:	e5863000 	str	r3, [r6]
    9f88:	e3520000 	cmp	r2, #0
    9f8c:	13530000 	cmpne	r3, #0
    9f90:	e5862010 	str	r2, [r6, #16]
    9f94:	03a03001 	moveq	r3, #1
    9f98:	13a03000 	movne	r3, #0
    9f9c:	e59f6084 	ldr	r6, [pc, #132]	; a028 <console_init+0x1bc>
    9fa0:	0a00001d 	beq	a01c <console_init+0x1b0>
    9fa4:	e3a0e01c 	mov	lr, #28
    9fa8:	e59f208c 	ldr	r2, [pc, #140]	; a03c <console_init+0x1d0>
    9fac:	e594c03c 	ldr	ip, [r4, #60]	; 0x3c
    9fb0:	e5843004 	str	r3, [r4, #4]
    9fb4:	e5843010 	str	r3, [r4, #16]
    9fb8:	e5843014 	str	r3, [r4, #20]
    9fbc:	e5843018 	str	r3, [r4, #24]
    9fc0:	e1a00005 	mov	r0, r5
    9fc4:	e1a01004 	mov	r1, r4
    9fc8:	e584e000 	str	lr, [r4]
    9fcc:	e5842008 	str	r2, [r4, #8]
    9fd0:	e584700c 	str	r7, [r4, #12]
    9fd4:	e586c014 	str	ip, [r6, #20]
    9fd8:	eb000738 	bl	bcc0 <bcm2835_mailbox_write>
    9fdc:	e1a00005 	mov	r0, r5
    9fe0:	eb00072a 	bl	bc90 <bcm2835_mailbox_read>
    9fe4:	e5943014 	ldr	r3, [r4, #20]
    9fe8:	e3530000 	cmp	r3, #0
    9fec:	13a00000 	movne	r0, #0
    9ff0:	03e00007 	mvneq	r0, #7
    9ff4:	e5863004 	str	r3, [r6, #4]
    9ff8:	e24bd024 	sub	sp, fp, #36	; 0x24
    9ffc:	e8bd8ff8 	pop	{r3, r4, r5, r6, r7, r8, r9, sl, fp, pc}
    a000:	e3530000 	cmp	r3, #0
    a004:	0a000001 	beq	a010 <console_init+0x1a4>
    a008:	e3520000 	cmp	r2, #0
    a00c:	1affffb7 	bne	9ef0 <console_init+0x84>
    a010:	e3e00001 	mvn	r0, #1
    a014:	e24bd024 	sub	sp, fp, #36	; 0x24
    a018:	e8bd8ff8 	pop	{r3, r4, r5, r6, r7, r8, r9, sl, fp, pc}
    a01c:	e3e00005 	mvn	r0, #5
    a020:	eafffff4 	b	9ff8 <console_init+0x18c>
    a024:	00040003 	andeq	r0, r4, r3
    a028:	00010ed8 	ldrdeq	r0, [r1], -r8
    a02c:	00048005 	andeq	r8, r4, r5
    a030:	00048003 	andeq	r8, r4, r3
    a034:	00048004 	andeq	r8, r4, r4
    a038:	00040001 	andeq	r0, r4, r1
    a03c:	00040008 	andeq	r0, r4, r8

0000a040 <vprintf>:
    a040:	e92d4ff0 	push	{r4, r5, r6, r7, r8, r9, sl, fp, lr}
    a044:	e1a04000 	mov	r4, r0
    a048:	e1a07001 	mov	r7, r1
    a04c:	e3a09000 	mov	r9, #0
    a050:	e59f879c 	ldr	r8, [pc, #1948]	; a7f4 <vprintf+0x7b4>
    a054:	e59f679c 	ldr	r6, [pc, #1948]	; a7f8 <vprintf+0x7b8>
    a058:	e24dd024 	sub	sp, sp, #36	; 0x24
    a05c:	e5d40000 	ldrb	r0, [r4]
    a060:	e3500000 	cmp	r0, #0
    a064:	0a00000c 	beq	a09c <vprintf+0x5c>
    a068:	e3500025 	cmp	r0, #37	; 0x25
    a06c:	0a00000d 	beq	a0a8 <vprintf+0x68>
    a070:	e5983000 	ldr	r3, [r8]
    a074:	e2844001 	add	r4, r4, #1
    a078:	e3530000 	cmp	r3, #0
    a07c:	e2899001 	add	r9, r9, #1
    a080:	0a00016f 	beq	a644 <vprintf+0x604>
    a084:	e5c30000 	strb	r0, [r3]
    a088:	e5d40000 	ldrb	r0, [r4]
    a08c:	e2832001 	add	r2, r3, #1
    a090:	e3500000 	cmp	r0, #0
    a094:	e5882000 	str	r2, [r8]
    a098:	1afffff2 	bne	a068 <vprintf+0x28>
    a09c:	e1a00009 	mov	r0, r9
    a0a0:	e28dd024 	add	sp, sp, #36	; 0x24
    a0a4:	e8bd8ff0 	pop	{r4, r5, r6, r7, r8, r9, sl, fp, pc}
    a0a8:	e5d4c001 	ldrb	ip, [r4, #1]
    a0ac:	e35c0030 	cmp	ip, #48	; 0x30
    a0b0:	0a00014a 	beq	a5e0 <vprintf+0x5a0>
    a0b4:	e35c002d 	cmp	ip, #45	; 0x2d
    a0b8:	0a00014e 	beq	a5f8 <vprintf+0x5b8>
    a0bc:	e1a0300c 	mov	r3, ip
    a0c0:	e3a01011 	mov	r1, #17
    a0c4:	e3a0a001 	mov	sl, #1
    a0c8:	e3a0c010 	mov	ip, #16
    a0cc:	e3a0e000 	mov	lr, #0
    a0d0:	e2845001 	add	r5, r4, #1
    a0d4:	e2432030 	sub	r2, r3, #48	; 0x30
    a0d8:	e6ef0072 	uxtb	r0, r2
    a0dc:	e3500009 	cmp	r0, #9
    a0e0:	81a0100a 	movhi	r1, sl
    a0e4:	81a0c00e 	movhi	ip, lr
    a0e8:	83a04000 	movhi	r4, #0
    a0ec:	8a00000a 	bhi	a11c <vprintf+0xdc>
    a0f0:	e3a04000 	mov	r4, #0
    a0f4:	e5f53001 	ldrb	r3, [r5, #1]!
    a0f8:	e0844104 	add	r4, r4, r4, lsl #2
    a0fc:	e0824084 	add	r4, r2, r4, lsl #1
    a100:	e2432030 	sub	r2, r3, #48	; 0x30
    a104:	e6ef0072 	uxtb	r0, r2
    a108:	e3500009 	cmp	r0, #9
    a10c:	9afffff8 	bls	a0f4 <vprintf+0xb4>
    a110:	e3540000 	cmp	r4, #0
    a114:	01a0100a 	moveq	r1, sl
    a118:	01a0c00e 	moveq	ip, lr
    a11c:	e353002e 	cmp	r3, #46	; 0x2e
    a120:	11a00003 	movne	r0, r3
    a124:	13a0b000 	movne	fp, #0
    a128:	0a00011b 	beq	a59c <vprintf+0x55c>
    a12c:	e350006c 	cmp	r0, #108	; 0x6c
    a130:	05d50001 	ldrbeq	r0, [r5, #1]
    a134:	038cc004 	orreq	ip, ip, #4
    a138:	e2402058 	sub	r2, r0, #88	; 0x58
    a13c:	02855001 	addeq	r5, r5, #1
    a140:	e3520020 	cmp	r2, #32
    a144:	979ff102 	ldrls	pc, [pc, r2, lsl #2]
    a148:	ea00010a 	b	a578 <vprintf+0x538>
    a14c:	0000a1d0 	ldrdeq	sl, [r0], -r0
    a150:	0000a578 	andeq	sl, r0, r8, ror r5
    a154:	0000a578 	andeq	sl, r0, r8, ror r5
    a158:	0000a578 	andeq	sl, r0, r8, ror r5
    a15c:	0000a578 	andeq	sl, r0, r8, ror r5
    a160:	0000a578 	andeq	sl, r0, r8, ror r5
    a164:	0000a578 	andeq	sl, r0, r8, ror r5
    a168:	0000a578 	andeq	sl, r0, r8, ror r5
    a16c:	0000a578 	andeq	sl, r0, r8, ror r5
    a170:	0000a578 	andeq	sl, r0, r8, ror r5
    a174:	0000a578 	andeq	sl, r0, r8, ror r5
    a178:	0000a548 	andeq	sl, r0, r8, asr #10
    a17c:	0000a3f8 	strdeq	sl, [r0], -r8
    a180:	0000a578 	andeq	sl, r0, r8, ror r5
    a184:	0000a578 	andeq	sl, r0, r8, ror r5
    a188:	0000a578 	andeq	sl, r0, r8, ror r5
    a18c:	0000a578 	andeq	sl, r0, r8, ror r5
    a190:	0000a578 	andeq	sl, r0, r8, ror r5
    a194:	0000a578 	andeq	sl, r0, r8, ror r5
    a198:	0000a578 	andeq	sl, r0, r8, ror r5
    a19c:	0000a578 	andeq	sl, r0, r8, ror r5
    a1a0:	0000a578 	andeq	sl, r0, r8, ror r5
    a1a4:	0000a578 	andeq	sl, r0, r8, ror r5
    a1a8:	0000a578 	andeq	sl, r0, r8, ror r5
    a1ac:	0000a578 	andeq	sl, r0, r8, ror r5
    a1b0:	0000a578 	andeq	sl, r0, r8, ror r5
    a1b4:	0000a578 	andeq	sl, r0, r8, ror r5
    a1b8:	0000a35c 	andeq	sl, r0, ip, asr r3
    a1bc:	0000a578 	andeq	sl, r0, r8, ror r5
    a1c0:	0000a578 	andeq	sl, r0, r8, ror r5
    a1c4:	0000a578 	andeq	sl, r0, r8, ror r5
    a1c8:	0000a578 	andeq	sl, r0, r8, ror r5
    a1cc:	0000a1d4 	ldrdeq	sl, [r0], -r4
    a1d0:	e38cc002 	orr	ip, ip, #2
    a1d4:	e5972000 	ldr	r2, [r7]
    a1d8:	e287a004 	add	sl, r7, #4
    a1dc:	e3520000 	cmp	r2, #0
    a1e0:	1a00010b 	bne	a614 <vprintf+0x5d4>
    a1e4:	e3a03030 	mov	r3, #48	; 0x30
    a1e8:	e28d701e 	add	r7, sp, #30
    a1ec:	e5cd301f 	strb	r3, [sp, #31]
    a1f0:	e31c0001 	tst	ip, #1
    a1f4:	0a000013 	beq	a248 <vprintf+0x208>
    a1f8:	e28d101f 	add	r1, sp, #31
    a1fc:	e0672001 	rsb	r2, r7, r1
    a200:	e15b0002 	cmp	fp, r2
    a204:	e28d3010 	add	r3, sp, #16
    a208:	d3a02000 	movle	r2, #0
    a20c:	c3a02001 	movgt	r2, #1
    a210:	e1570003 	cmp	r7, r3
    a214:	93a02000 	movls	r2, #0
    a218:	e3520000 	cmp	r2, #0
    a21c:	0a000009 	beq	a248 <vprintf+0x208>
    a220:	e3a00030 	mov	r0, #48	; 0x30
    a224:	e4470001 	strb	r0, [r7], #-1
    a228:	e0672001 	rsb	r2, r7, r1
    a22c:	e152000b 	cmp	r2, fp
    a230:	a3a02000 	movge	r2, #0
    a234:	b3a02001 	movlt	r2, #1
    a238:	e1570003 	cmp	r7, r3
    a23c:	93a02000 	movls	r2, #0
    a240:	e3520000 	cmp	r2, #0
    a244:	1afffff6 	bne	a224 <vprintf+0x1e4>
    a248:	e31c0020 	tst	ip, #32
    a24c:	0a000013 	beq	a2a0 <vprintf+0x260>
    a250:	e28d101f 	add	r1, sp, #31
    a254:	e0672001 	rsb	r2, r7, r1
    a258:	e1540002 	cmp	r4, r2
    a25c:	e28d3010 	add	r3, sp, #16
    a260:	d3a02000 	movle	r2, #0
    a264:	c3a02001 	movgt	r2, #1
    a268:	e1570003 	cmp	r7, r3
    a26c:	93a02000 	movls	r2, #0
    a270:	e3520000 	cmp	r2, #0
    a274:	0a00001f 	beq	a2f8 <vprintf+0x2b8>
    a278:	e3a00030 	mov	r0, #48	; 0x30
    a27c:	e4470001 	strb	r0, [r7], #-1
    a280:	e0672001 	rsb	r2, r7, r1
    a284:	e1540002 	cmp	r4, r2
    a288:	d3a02000 	movle	r2, #0
    a28c:	c3a02001 	movgt	r2, #1
    a290:	e1570003 	cmp	r7, r3
    a294:	93a02000 	movls	r2, #0
    a298:	e3520000 	cmp	r2, #0
    a29c:	1afffff6 	bne	a27c <vprintf+0x23c>
    a2a0:	e31c0010 	tst	ip, #16
    a2a4:	0a000013 	beq	a2f8 <vprintf+0x2b8>
    a2a8:	e28d101f 	add	r1, sp, #31
    a2ac:	e0672001 	rsb	r2, r7, r1
    a2b0:	e1540002 	cmp	r4, r2
    a2b4:	e28d3010 	add	r3, sp, #16
    a2b8:	d3a02000 	movle	r2, #0
    a2bc:	c3a02001 	movgt	r2, #1
    a2c0:	e1570003 	cmp	r7, r3
    a2c4:	93a02000 	movls	r2, #0
    a2c8:	e3520000 	cmp	r2, #0
    a2cc:	0a000009 	beq	a2f8 <vprintf+0x2b8>
    a2d0:	e3a00020 	mov	r0, #32
    a2d4:	e4470001 	strb	r0, [r7], #-1
    a2d8:	e0672001 	rsb	r2, r7, r1
    a2dc:	e1540002 	cmp	r4, r2
    a2e0:	d3a02000 	movle	r2, #0
    a2e4:	c3a02001 	movgt	r2, #1
    a2e8:	e1570003 	cmp	r7, r3
    a2ec:	93a02000 	movls	r2, #0
    a2f0:	e3520000 	cmp	r2, #0
    a2f4:	1afffff6 	bne	a2d4 <vprintf+0x294>
    a2f8:	e2874001 	add	r4, r7, #1
    a2fc:	e28d3020 	add	r3, sp, #32
    a300:	e1540003 	cmp	r4, r3
    a304:	3a000005 	bcc	a320 <vprintf+0x2e0>
    a308:	ea000011 	b	a354 <vprintf+0x314>
    a30c:	e5c30000 	strb	r0, [r3]
    a310:	e28d3020 	add	r3, sp, #32
    a314:	e1540003 	cmp	r4, r3
    a318:	e5882000 	str	r2, [r8]
    a31c:	0a000008 	beq	a344 <vprintf+0x304>
    a320:	e5983000 	ldr	r3, [r8]
    a324:	e4d40001 	ldrb	r0, [r4], #1
    a328:	e3530000 	cmp	r3, #0
    a32c:	e2832001 	add	r2, r3, #1
    a330:	1afffff5 	bne	a30c <vprintf+0x2cc>
    a334:	ebfffd4e 	bl	9874 <console_putc>
    a338:	e28d3020 	add	r3, sp, #32
    a33c:	e1540003 	cmp	r4, r3
    a340:	1afffff6 	bne	a320 <vprintf+0x2e0>
    a344:	e28d3021 	add	r3, sp, #33	; 0x21
    a348:	e2877002 	add	r7, r7, #2
    a34c:	e0839009 	add	r9, r3, r9
    a350:	e0679009 	rsb	r9, r7, r9
    a354:	e1a0700a 	mov	r7, sl
    a358:	ea000084 	b	a570 <vprintf+0x530>
    a35c:	e5972000 	ldr	r2, [r7]
    a360:	e2877004 	add	r7, r7, #4
    a364:	e5d2a000 	ldrb	sl, [r2]
    a368:	e35a0000 	cmp	sl, #0
    a36c:	0a000005 	beq	a388 <vprintf+0x348>
    a370:	e1a03002 	mov	r3, r2
    a374:	e3a0a000 	mov	sl, #0
    a378:	e5f31001 	ldrb	r1, [r3, #1]!
    a37c:	e28aa001 	add	sl, sl, #1
    a380:	e3510000 	cmp	r1, #0
    a384:	1afffffb 	bne	a378 <vprintf+0x338>
    a388:	e21c1001 	ands	r1, ip, #1
    a38c:	1a0000c3 	bne	a6a0 <vprintf+0x660>
    a390:	e31c0040 	tst	ip, #64	; 0x40
    a394:	11a03009 	movne	r3, r9
    a398:	1a0000fd 	bne	a794 <vprintf+0x754>
    a39c:	e3a0c020 	mov	ip, #32
    a3a0:	e06a9009 	rsb	r9, sl, r9
    a3a4:	ea000001 	b	a3b0 <vprintf+0x370>
    a3a8:	e5880000 	str	r0, [r8]
    a3ac:	e5c3c000 	strb	ip, [r3]
    a3b0:	e089300a 	add	r3, r9, sl
    a3b4:	e28aa001 	add	sl, sl, #1
    a3b8:	e24a0001 	sub	r0, sl, #1
    a3bc:	e1540000 	cmp	r4, r0
    a3c0:	da0000f1 	ble	a78c <vprintf+0x74c>
    a3c4:	e5983000 	ldr	r3, [r8]
    a3c8:	e3530000 	cmp	r3, #0
    a3cc:	e2830001 	add	r0, r3, #1
    a3d0:	1afffff4 	bne	a3a8 <vprintf+0x368>
    a3d4:	e3a00020 	mov	r0, #32
    a3d8:	e58dc00c 	str	ip, [sp, #12]
    a3dc:	e58d1008 	str	r1, [sp, #8]
    a3e0:	e58d2004 	str	r2, [sp, #4]
    a3e4:	ebfffd22 	bl	9874 <console_putc>
    a3e8:	e59dc00c 	ldr	ip, [sp, #12]
    a3ec:	e59d1008 	ldr	r1, [sp, #8]
    a3f0:	e59d2004 	ldr	r2, [sp, #4]
    a3f4:	eaffffed 	b	a3b0 <vprintf+0x370>
    a3f8:	e5971000 	ldr	r1, [r7]
    a3fc:	e2877004 	add	r7, r7, #4
    a400:	e3510000 	cmp	r1, #0
    a404:	b38cc008 	orrlt	ip, ip, #8
    a408:	b2611000 	rsblt	r1, r1, #0
    a40c:	ba0000d1 	blt	a758 <vprintf+0x718>
    a410:	03a03030 	moveq	r3, #48	; 0x30
    a414:	028da01e 	addeq	sl, sp, #30
    a418:	05cd301f 	strbeq	r3, [sp, #31]
    a41c:	1a0000cd 	bne	a758 <vprintf+0x718>
    a420:	e31c0001 	tst	ip, #1
    a424:	0a000013 	beq	a478 <vprintf+0x438>
    a428:	e28d101f 	add	r1, sp, #31
    a42c:	e06a2001 	rsb	r2, sl, r1
    a430:	e15b0002 	cmp	fp, r2
    a434:	e28d3010 	add	r3, sp, #16
    a438:	d3a02000 	movle	r2, #0
    a43c:	c3a02001 	movgt	r2, #1
    a440:	e15a0003 	cmp	sl, r3
    a444:	93a02000 	movls	r2, #0
    a448:	e3520000 	cmp	r2, #0
    a44c:	0a000009 	beq	a478 <vprintf+0x438>
    a450:	e3a00030 	mov	r0, #48	; 0x30
    a454:	e44a0001 	strb	r0, [sl], #-1
    a458:	e06a2001 	rsb	r2, sl, r1
    a45c:	e152000b 	cmp	r2, fp
    a460:	a3a02000 	movge	r2, #0
    a464:	b3a02001 	movlt	r2, #1
    a468:	e15a0003 	cmp	sl, r3
    a46c:	93a02000 	movls	r2, #0
    a470:	e3520000 	cmp	r2, #0
    a474:	1afffff6 	bne	a454 <vprintf+0x414>
    a478:	e31c0020 	tst	ip, #32
    a47c:	0a000013 	beq	a4d0 <vprintf+0x490>
    a480:	e28d101f 	add	r1, sp, #31
    a484:	e06a2001 	rsb	r2, sl, r1
    a488:	e1540002 	cmp	r4, r2
    a48c:	e28d3010 	add	r3, sp, #16
    a490:	d3a02000 	movle	r2, #0
    a494:	c3a02001 	movgt	r2, #1
    a498:	e15a0003 	cmp	sl, r3
    a49c:	93a02000 	movls	r2, #0
    a4a0:	e3520000 	cmp	r2, #0
    a4a4:	0a000009 	beq	a4d0 <vprintf+0x490>
    a4a8:	e3a00030 	mov	r0, #48	; 0x30
    a4ac:	e44a0001 	strb	r0, [sl], #-1
    a4b0:	e06a2001 	rsb	r2, sl, r1
    a4b4:	e1540002 	cmp	r4, r2
    a4b8:	d3a02000 	movle	r2, #0
    a4bc:	c3a02001 	movgt	r2, #1
    a4c0:	e15a0003 	cmp	sl, r3
    a4c4:	93a02000 	movls	r2, #0
    a4c8:	e3520000 	cmp	r2, #0
    a4cc:	1afffff6 	bne	a4ac <vprintf+0x46c>
    a4d0:	e31c0008 	tst	ip, #8
    a4d4:	13a0302d 	movne	r3, #45	; 0x2d
    a4d8:	15ca3000 	strbne	r3, [sl]
    a4dc:	124aa001 	subne	sl, sl, #1
    a4e0:	e31c0010 	tst	ip, #16
    a4e4:	1a000058 	bne	a64c <vprintf+0x60c>
    a4e8:	e28a4001 	add	r4, sl, #1
    a4ec:	e28d3020 	add	r3, sp, #32
    a4f0:	e1540003 	cmp	r4, r3
    a4f4:	3a000005 	bcc	a510 <vprintf+0x4d0>
    a4f8:	ea00001c 	b	a570 <vprintf+0x530>
    a4fc:	e5c30000 	strb	r0, [r3]
    a500:	e28d3020 	add	r3, sp, #32
    a504:	e1540003 	cmp	r4, r3
    a508:	e5882000 	str	r2, [r8]
    a50c:	0a000008 	beq	a534 <vprintf+0x4f4>
    a510:	e5983000 	ldr	r3, [r8]
    a514:	e4d40001 	ldrb	r0, [r4], #1
    a518:	e3530000 	cmp	r3, #0
    a51c:	e2832001 	add	r2, r3, #1
    a520:	1afffff5 	bne	a4fc <vprintf+0x4bc>
    a524:	ebfffcd2 	bl	9874 <console_putc>
    a528:	e28d3020 	add	r3, sp, #32
    a52c:	e1540003 	cmp	r4, r3
    a530:	1afffff6 	bne	a510 <vprintf+0x4d0>
    a534:	e28d3021 	add	r3, sp, #33	; 0x21
    a538:	e28aa002 	add	sl, sl, #2
    a53c:	e0839009 	add	r9, r3, r9
    a540:	e06a9009 	rsb	r9, sl, r9
    a544:	ea000009 	b	a570 <vprintf+0x530>
    a548:	e5983000 	ldr	r3, [r8]
    a54c:	e2899001 	add	r9, r9, #1
    a550:	e3530000 	cmp	r3, #0
    a554:	e2874004 	add	r4, r7, #4
    a558:	e5970000 	ldr	r0, [r7]
    a55c:	0a00009e 	beq	a7dc <vprintf+0x79c>
    a560:	e1a07004 	mov	r7, r4
    a564:	e2832001 	add	r2, r3, #1
    a568:	e5c30000 	strb	r0, [r3]
    a56c:	e5882000 	str	r2, [r8]
    a570:	e2854001 	add	r4, r5, #1
    a574:	eafffeb8 	b	a05c <vprintf+0x1c>
    a578:	e5982000 	ldr	r2, [r8]
    a57c:	e2899001 	add	r9, r9, #1
    a580:	e3520000 	cmp	r2, #0
    a584:	0a000097 	beq	a7e8 <vprintf+0x7a8>
    a588:	e2821001 	add	r1, r2, #1
    a58c:	e5c20000 	strb	r0, [r2]
    a590:	e5881000 	str	r1, [r8]
    a594:	e1a04005 	mov	r4, r5
    a598:	eafffeaf 	b	a05c <vprintf+0x1c>
    a59c:	e5d53001 	ldrb	r3, [r5, #1]
    a5a0:	e2855001 	add	r5, r5, #1
    a5a4:	e2432030 	sub	r2, r3, #48	; 0x30
    a5a8:	e6ef0072 	uxtb	r0, r2
    a5ac:	e3500009 	cmp	r0, #9
    a5b0:	8a000086 	bhi	a7d0 <vprintf+0x790>
    a5b4:	e3a0b000 	mov	fp, #0
    a5b8:	e5f53001 	ldrb	r3, [r5, #1]!
    a5bc:	e08bb10b 	add	fp, fp, fp, lsl #2
    a5c0:	e082b08b 	add	fp, r2, fp, lsl #1
    a5c4:	e2432030 	sub	r2, r3, #48	; 0x30
    a5c8:	e6ef0072 	uxtb	r0, r2
    a5cc:	e3500009 	cmp	r0, #9
    a5d0:	9afffff8 	bls	a5b8 <vprintf+0x578>
    a5d4:	e1a00003 	mov	r0, r3
    a5d8:	e1a0c001 	mov	ip, r1
    a5dc:	eafffed2 	b	a12c <vprintf+0xec>
    a5e0:	e3a01031 	mov	r1, #49	; 0x31
    a5e4:	e3a0a021 	mov	sl, #33	; 0x21
    a5e8:	e3a0e020 	mov	lr, #32
    a5ec:	e5d43002 	ldrb	r3, [r4, #2]
    a5f0:	e2845002 	add	r5, r4, #2
    a5f4:	eafffeb6 	b	a0d4 <vprintf+0x94>
    a5f8:	e2845002 	add	r5, r4, #2
    a5fc:	e5d43002 	ldrb	r3, [r4, #2]
    a600:	e3a01051 	mov	r1, #81	; 0x51
    a604:	e3a0a041 	mov	sl, #65	; 0x41
    a608:	e3a0c050 	mov	ip, #80	; 0x50
    a60c:	e3a0e040 	mov	lr, #64	; 0x40
    a610:	eafffeaf 	b	a0d4 <vprintf+0x94>
    a614:	e31c0002 	tst	ip, #2
    a618:	03a01057 	moveq	r1, #87	; 0x57
    a61c:	13a01037 	movne	r1, #55	; 0x37
    a620:	e28d701f 	add	r7, sp, #31
    a624:	e202300f 	and	r3, r2, #15
    a628:	e3530009 	cmp	r3, #9
    a62c:	92833030 	addls	r3, r3, #48	; 0x30
    a630:	80833001 	addhi	r3, r3, r1
    a634:	e1b02222 	lsrs	r2, r2, #4
    a638:	e4473001 	strb	r3, [r7], #-1
    a63c:	1afffff8 	bne	a624 <vprintf+0x5e4>
    a640:	eafffeea 	b	a1f0 <vprintf+0x1b0>
    a644:	ebfffc8a 	bl	9874 <console_putc>
    a648:	eafffe83 	b	a05c <vprintf+0x1c>
    a64c:	e28d101f 	add	r1, sp, #31
    a650:	e06a2001 	rsb	r2, sl, r1
    a654:	e1540002 	cmp	r4, r2
    a658:	e28d3010 	add	r3, sp, #16
    a65c:	d3a02000 	movle	r2, #0
    a660:	c3a02001 	movgt	r2, #1
    a664:	e15a0003 	cmp	sl, r3
    a668:	93a02000 	movls	r2, #0
    a66c:	e3520000 	cmp	r2, #0
    a670:	0affff9c 	beq	a4e8 <vprintf+0x4a8>
    a674:	e3a00020 	mov	r0, #32
    a678:	e44a0001 	strb	r0, [sl], #-1
    a67c:	e06a2001 	rsb	r2, sl, r1
    a680:	e1540002 	cmp	r4, r2
    a684:	d3a02000 	movle	r2, #0
    a688:	c3a02001 	movgt	r2, #1
    a68c:	e15a0003 	cmp	sl, r3
    a690:	93a02000 	movls	r2, #0
    a694:	e3520000 	cmp	r2, #0
    a698:	1afffff6 	bne	a678 <vprintf+0x638>
    a69c:	eaffff91 	b	a4e8 <vprintf+0x4a8>
    a6a0:	e15a000b 	cmp	sl, fp
    a6a4:	a1a0a00b 	movge	sl, fp
    a6a8:	e31c0040 	tst	ip, #64	; 0x40
    a6ac:	0affff3a 	beq	a39c <vprintf+0x35c>
    a6b0:	e1a03009 	mov	r3, r9
    a6b4:	e1a09002 	mov	r9, r2
    a6b8:	e082200b 	add	r2, r2, fp
    a6bc:	e069b003 	rsb	fp, r9, r3
    a6c0:	e1590002 	cmp	r9, r2
    a6c4:	e08b3009 	add	r3, fp, r9
    a6c8:	0a00000e 	beq	a708 <vprintf+0x6c8>
    a6cc:	e4d90001 	ldrb	r0, [r9], #1
    a6d0:	e3500000 	cmp	r0, #0
    a6d4:	0a00000b 	beq	a708 <vprintf+0x6c8>
    a6d8:	e5981000 	ldr	r1, [r8]
    a6dc:	e3510000 	cmp	r1, #0
    a6e0:	e2813001 	add	r3, r1, #1
    a6e4:	15883000 	strne	r3, [r8]
    a6e8:	15c10000 	strbne	r0, [r1]
    a6ec:	1afffff3 	bne	a6c0 <vprintf+0x680>
    a6f0:	e58d2004 	str	r2, [sp, #4]
    a6f4:	ebfffc5e 	bl	9874 <console_putc>
    a6f8:	e59d2004 	ldr	r2, [sp, #4]
    a6fc:	e08b3009 	add	r3, fp, r9
    a700:	e1590002 	cmp	r9, r2
    a704:	1afffff0 	bne	a6cc <vprintf+0x68c>
    a708:	e1a0b003 	mov	fp, r3
    a70c:	e3a01020 	mov	r1, #32
    a710:	e063a00a 	rsb	sl, r3, sl
    a714:	ea000002 	b	a724 <vprintf+0x6e4>
    a718:	e5882000 	str	r2, [r8]
    a71c:	e5c31000 	strb	r1, [r3]
    a720:	e28bb001 	add	fp, fp, #1
    a724:	e08a300b 	add	r3, sl, fp
    a728:	e1540003 	cmp	r4, r3
    a72c:	e1a0900b 	mov	r9, fp
    a730:	daffff8e 	ble	a570 <vprintf+0x530>
    a734:	e5983000 	ldr	r3, [r8]
    a738:	e3530000 	cmp	r3, #0
    a73c:	e2832001 	add	r2, r3, #1
    a740:	1afffff4 	bne	a718 <vprintf+0x6d8>
    a744:	e3a00020 	mov	r0, #32
    a748:	e58d1004 	str	r1, [sp, #4]
    a74c:	ebfffc48 	bl	9874 <console_putc>
    a750:	e59d1004 	ldr	r1, [sp, #4]
    a754:	eafffff1 	b	a720 <vprintf+0x6e0>
    a758:	e28da01f 	add	sl, sp, #31
    a75c:	e0c23196 	smull	r3, r2, r6, r1
    a760:	e1a03fc1 	asr	r3, r1, #31
    a764:	e0633142 	rsb	r3, r3, r2, asr #2
    a768:	e0832103 	add	r2, r3, r3, lsl #2
    a76c:	e0412082 	sub	r2, r1, r2, lsl #1
    a770:	e2822030 	add	r2, r2, #48	; 0x30
    a774:	e2531000 	subs	r1, r3, #0
    a778:	e44a2001 	strb	r2, [sl], #-1
    a77c:	1afffff6 	bne	a75c <vprintf+0x71c>
    a780:	e31c0001 	tst	ip, #1
    a784:	0affff3b 	beq	a478 <vprintf+0x438>
    a788:	eaffff26 	b	a428 <vprintf+0x3e8>
    a78c:	e3510000 	cmp	r1, #0
    a790:	1affffc7 	bne	a6b4 <vprintf+0x674>
    a794:	e1a09002 	mov	r9, r2
    a798:	e062b003 	rsb	fp, r2, r3
    a79c:	ea000001 	b	a7a8 <vprintf+0x768>
    a7a0:	e5883000 	str	r3, [r8]
    a7a4:	e5c10000 	strb	r0, [r1]
    a7a8:	e08b3009 	add	r3, fp, r9
    a7ac:	e4d90001 	ldrb	r0, [r9], #1
    a7b0:	e3500000 	cmp	r0, #0
    a7b4:	0affffd3 	beq	a708 <vprintf+0x6c8>
    a7b8:	e5981000 	ldr	r1, [r8]
    a7bc:	e3510000 	cmp	r1, #0
    a7c0:	e2813001 	add	r3, r1, #1
    a7c4:	1afffff5 	bne	a7a0 <vprintf+0x760>
    a7c8:	ebfffc29 	bl	9874 <console_putc>
    a7cc:	eafffff5 	b	a7a8 <vprintf+0x768>
    a7d0:	e1a00003 	mov	r0, r3
    a7d4:	e3a0b000 	mov	fp, #0
    a7d8:	eaffff7e 	b	a5d8 <vprintf+0x598>
    a7dc:	ebfffc24 	bl	9874 <console_putc>
    a7e0:	e1a07004 	mov	r7, r4
    a7e4:	eaffff61 	b	a570 <vprintf+0x530>
    a7e8:	ebfffc21 	bl	9874 <console_putc>
    a7ec:	e1a04005 	mov	r4, r5
    a7f0:	eafffe19 	b	a05c <vprintf+0x1c>
    a7f4:	00010efc 	strdeq	r0, [r1], -ip
    a7f8:	66666667 	strbtvs	r6, [r6], -r7, ror #12

0000a7fc <printf>:
    a7fc:	e92d000f 	push	{r0, r1, r2, r3}
    a800:	e52de004 	push	{lr}		; (str lr, [sp, #-4]!)
    a804:	e24dd00c 	sub	sp, sp, #12
    a808:	e28d3014 	add	r3, sp, #20
    a80c:	e1a01003 	mov	r1, r3
    a810:	e59d0010 	ldr	r0, [sp, #16]
    a814:	e58d3004 	str	r3, [sp, #4]
    a818:	ebfffe08 	bl	a040 <vprintf>
    a81c:	e28dd00c 	add	sp, sp, #12
    a820:	e49de004 	pop	{lr}		; (ldr lr, [sp], #4)
    a824:	e28dd010 	add	sp, sp, #16
    a828:	e12fff1e 	bx	lr

0000a82c <sprintf>:
    a82c:	e92d000e 	push	{r1, r2, r3}
    a830:	e92d4010 	push	{r4, lr}
    a834:	e59f4038 	ldr	r4, [pc, #56]	; a874 <sprintf+0x48>
    a838:	e24dd00c 	sub	sp, sp, #12
    a83c:	e28d3018 	add	r3, sp, #24
    a840:	e5840000 	str	r0, [r4]
    a844:	e1a01003 	mov	r1, r3
    a848:	e59d0014 	ldr	r0, [sp, #20]
    a84c:	e58d3004 	str	r3, [sp, #4]
    a850:	ebfffdfa 	bl	a040 <vprintf>
    a854:	e3a03000 	mov	r3, #0
    a858:	e5942000 	ldr	r2, [r4]
    a85c:	e5843000 	str	r3, [r4]
    a860:	e5c23000 	strb	r3, [r2]
    a864:	e28dd00c 	add	sp, sp, #12
    a868:	e8bd4010 	pop	{r4, lr}
    a86c:	e28dd00c 	add	sp, sp, #12
    a870:	e12fff1e 	bx	lr
    a874:	00010efc 	strdeq	r0, [r1], -ip
	...

0000a880 <FONT>:
	...
    aa90:	08000000 	stmdaeq	r0, {}	; <UNPREDICTABLE>
    aa94:	08080808 	stmdaeq	r8, {r3, fp}
    aa98:	08080008 	stmdaeq	r8, {r3}
    aa9c:	00000000 	andeq	r0, r0, r0
    aaa0:	14000000 	strne	r0, [r0], #-0
    aaa4:	00141414 	andseq	r1, r4, r4, lsl r4
	...
    aab0:	48480000 	stmdami	r8, {}^	; <UNPREDICTABLE>
    aab4:	2424fe68 	strtcs	pc, [r4], #-3688	; 0xfffff198
    aab8:	1212147f 	andsne	r1, r2, #2130706432	; 0x7f000000
    aabc:	00000000 	andeq	r0, r0, r0
    aac0:	10000000 	andne	r0, r0, r0
    aac4:	1c12927c 	lfmne	f1, 1, [r2], {124}	; 0x7c
    aac8:	7c929070 	ldcvc	0, cr9, [r2], {112}	; 0x70
    aacc:	00001010 	andeq	r1, r0, r0, lsl r0
    aad0:	06000000 	streq	r0, [r0], -r0
    aad4:	38460909 	stmdacc	r6, {r0, r3, r8, fp}^
    aad8:	60909066 	addsvs	r9, r0, r6, rrx
    aadc:	00000000 	andeq	r0, r0, r0
    aae0:	38000000 	stmdacc	r0, {}	; <UNPREDICTABLE>
    aae4:	920c0404 	andls	r0, ip, #4, 8	; 0x4000000
    aae8:	bc46a2b2 	sfmlt	f2, 3, [r6], {178}	; 0xb2
    aaec:	00000000 	andeq	r0, r0, r0
    aaf0:	08000000 	stmdaeq	r0, {}	; <UNPREDICTABLE>
    aaf4:	00080808 	andeq	r0, r8, r8, lsl #16
	...
    ab00:	10103000 	andsne	r3, r0, r0
    ab04:	08080808 	stmdaeq	r8, {r3, fp}
    ab08:	10100808 	andsne	r0, r0, r8, lsl #16
    ab0c:	00000020 	andeq	r0, r0, r0, lsr #32
    ab10:	08080c00 	stmdaeq	r8, {sl, fp}
    ab14:	10101010 	andsne	r1, r0, r0, lsl r0
    ab18:	08081010 	stmdaeq	r8, {r4, ip}
    ab1c:	0000000c 	andeq	r0, r0, ip
    ab20:	10000000 	andne	r0, r0, r0
    ab24:	d6387c92 			; <UNDEFINED> instruction: 0xd6387c92
    ab28:	00000010 	andeq	r0, r0, r0, lsl r0
	...
    ab34:	7f080808 	svcvc	0x00080808
    ab38:	00080808 	andeq	r0, r8, r8, lsl #16
	...
    ab48:	18180000 	ldmdane	r8, {}	; <UNPREDICTABLE>
    ab4c:	00000408 	andeq	r0, r0, r8, lsl #8
	...
    ab58:	0000001c 	andeq	r0, r0, ip, lsl r0
	...
    ab68:	18180000 	ldmdane	r8, {}	; <UNPREDICTABLE>
    ab6c:	00000000 	andeq	r0, r0, r0
    ab70:	40000000 	andmi	r0, r0, r0
    ab74:	10102020 	andsne	r2, r0, r0, lsr #32
    ab78:	04080818 	streq	r0, [r8], #-2072	; 0xfffff7e8
    ab7c:	00000204 	andeq	r0, r0, r4, lsl #4
    ab80:	38000000 	stmdacc	r0, {}	; <UNPREDICTABLE>
    ab84:	92828244 	addls	r8, r2, #68, 4	; 0x40000004
    ab88:	38448282 	stmdacc	r4, {r1, r7, r9, pc}^
    ab8c:	00000000 	andeq	r0, r0, r0
    ab90:	1c000000 	stcne	0, cr0, [r0], {-0}
    ab94:	10101010 	andsne	r1, r0, r0, lsl r0
    ab98:	7c101010 	ldcvc	0, cr1, [r0], {16}
    ab9c:	00000000 	andeq	r0, r0, r0
    aba0:	7c000000 	stcvc	0, cr0, [r0], {-0}
    aba4:	408080c2 	addmi	r8, r0, r2, asr #1
    aba8:	fe041830 	mcr2	8, 0, r1, cr4, cr0, {1}
    abac:	00000000 	andeq	r0, r0, r0
    abb0:	7c000000 	stcvc	0, cr0, [r0], {-0}
    abb4:	38c08082 	stmiacc	r0, {r1, r7, pc}^
    abb8:	7cc280c0 	stclvc	0, cr8, [r2], {192}	; 0xc0
    abbc:	00000000 	andeq	r0, r0, r0
    abc0:	60000000 	andvs	r0, r0, r0
    abc4:	44485850 	strbmi	r5, [r8], #-2128	; 0xfffff7b0
    abc8:	4040fe42 	submi	pc, r0, r2, asr #28
    abcc:	00000000 	andeq	r0, r0, r0
    abd0:	7e000000 	cdpvc	0, 0, cr0, cr0, cr0, {0}
    abd4:	c03e0202 	eorsgt	r0, lr, r2, lsl #4
    abd8:	3cc28080 	stclcc	0, cr8, [r2], {128}	; 0x80
    abdc:	00000000 	andeq	r0, r0, r0
    abe0:	78000000 	stmdavc	r0, {}	; <UNPREDICTABLE>
    abe4:	c67a0284 	ldrbtgt	r0, [sl], -r4, lsl #5
    abe8:	78c48282 	stmiavc	r4, {r1, r7, r9, pc}^
    abec:	00000000 	andeq	r0, r0, r0
    abf0:	fe000000 	cdp2	0, 0, cr0, cr0, cr0, {0}
    abf4:	20204040 	eorcs	r4, r0, r0, asr #32
    abf8:	04081810 	streq	r1, [r8], #-2064	; 0xfffff7f0
    abfc:	00000000 	andeq	r0, r0, r0
    ac00:	7c000000 	stcvc	0, cr0, [r0], {-0}
    ac04:	7c828282 	sfmvc	f0, 1, [r2], {130}	; 0x82
    ac08:	7c868282 	sfmvc	f0, 1, [r6], {130}	; 0x82
    ac0c:	00000000 	andeq	r0, r0, r0
    ac10:	3c000000 	stccc	0, cr0, [r0], {-0}
    ac14:	c6828246 	strgt	r8, [r2], r6, asr #4
    ac18:	3c4280bc 	mcrrcc	0, 11, r8, r2, cr12
	...
    ac24:	00181800 	andseq	r1, r8, r0, lsl #16
    ac28:	18180000 	ldmdane	r8, {}	; <UNPREDICTABLE>
	...
    ac34:	00181800 	andseq	r1, r8, r0, lsl #16
    ac38:	18180000 	ldmdane	r8, {}	; <UNPREDICTABLE>
    ac3c:	00000408 	andeq	r0, r0, r8, lsl #8
    ac40:	00000000 	andeq	r0, r0, r0
    ac44:	0e708000 	cdpeq	0, 7, cr8, cr0, cr0, {0}
    ac48:	0080700e 	addeq	r7, r0, lr
	...
    ac54:	00fe0000 	rscseq	r0, lr, r0
    ac58:	0000fe00 	andeq	pc, r0, r0, lsl #28
	...
    ac64:	e01c0200 	ands	r0, ip, r0, lsl #4
    ac68:	00021ce0 	andeq	r1, r2, r0, ror #25
    ac6c:	00000000 	andeq	r0, r0, r0
    ac70:	1c000000 	stcne	0, cr0, [r0], {-0}
    ac74:	08102022 	ldmdaeq	r0, {r1, r5, sp}
    ac78:	08080008 	stmdaeq	r8, {r3}
    ac7c:	00000000 	andeq	r0, r0, r0
    ac80:	78000000 	stmdavc	r0, {}	; <UNPREDICTABLE>
    ac84:	92e284cc 	rscls	r8, r2, #204, 8	; 0xcc000000
    ac88:	04e29292 	strbteq	r9, [r2], #658	; 0x292
    ac8c:	0000780c 	andeq	r7, r0, ip, lsl #16
    ac90:	10000000 	andne	r0, r0, r0
    ac94:	44282828 	strtmi	r2, [r8], #-2088	; 0xfffff7d8
    ac98:	82c67c44 	sbchi	r7, r6, #68, 24	; 0x4400
    ac9c:	00000000 	andeq	r0, r0, r0
    aca0:	7e000000 	cdpvc	0, 0, cr0, cr0, cr0, {0}
    aca4:	7e828282 	cdpvc	2, 8, cr8, cr2, cr2, {4}
    aca8:	7e828282 	cdpvc	2, 8, cr8, cr2, cr2, {4}
    acac:	00000000 	andeq	r0, r0, r0
    acb0:	78000000 	stmdavc	r0, {}	; <UNPREDICTABLE>
    acb4:	02020284 	andeq	r0, r2, #132, 4	; 0x40000008
    acb8:	78840202 	stmvc	r4, {r1, r9}
    acbc:	00000000 	andeq	r0, r0, r0
    acc0:	3e000000 	cdpcc	0, 0, cr0, cr0, cr0, {0}
    acc4:	82828242 	addhi	r8, r2, #536870916	; 0x20000004
    acc8:	3e428282 	cdpcc	2, 4, cr8, cr2, cr2, {4}
    accc:	00000000 	andeq	r0, r0, r0
    acd0:	fe000000 	cdp2	0, 0, cr0, cr0, cr0, {0}
    acd4:	fe020202 	cdp2	2, 0, cr0, cr2, cr2, {0}
    acd8:	fe020202 	cdp2	2, 0, cr0, cr2, cr2, {0}
    acdc:	00000000 	andeq	r0, r0, r0
    ace0:	fe000000 	cdp2	0, 0, cr0, cr0, cr0, {0}
    ace4:	fe020202 	cdp2	2, 0, cr0, cr2, cr2, {0}
    ace8:	02020202 	andeq	r0, r2, #536870912	; 0x20000000
    acec:	00000000 	andeq	r0, r0, r0
    acf0:	78000000 	stmdavc	r0, {}	; <UNPREDICTABLE>
    acf4:	c2020284 	andgt	r0, r2, #132, 4	; 0x40000008
    acf8:	78848282 	stmvc	r4, {r1, r7, r9, pc}
    acfc:	00000000 	andeq	r0, r0, r0
    ad00:	82000000 	andhi	r0, r0, #0
    ad04:	fe828282 	cdp2	2, 8, cr8, cr2, cr2, {4}
    ad08:	82828282 	addhi	r8, r2, #536870920	; 0x20000008
    ad0c:	00000000 	andeq	r0, r0, r0
    ad10:	3e000000 	cdpcc	0, 0, cr0, cr0, cr0, {0}
    ad14:	08080808 	stmdaeq	r8, {r3, fp}
    ad18:	3e080808 	cdpcc	8, 0, cr0, cr8, cr8, {0}
    ad1c:	00000000 	andeq	r0, r0, r0
    ad20:	38000000 	stmdacc	r0, {}	; <UNPREDICTABLE>
    ad24:	20202020 	eorcs	r2, r0, r0, lsr #32
    ad28:	1c222020 	stcne	0, cr2, [r2], #-128	; 0xffffff80
    ad2c:	00000000 	andeq	r0, r0, r0
    ad30:	42000000 	andmi	r0, r0, #0
    ad34:	0e0a1222 	cdpeq	2, 0, cr1, cr10, cr2, {1}
    ad38:	42222212 	eormi	r2, r2, #536870913	; 0x20000001
    ad3c:	00000000 	andeq	r0, r0, r0
    ad40:	02000000 	andeq	r0, r0, #0
    ad44:	02020202 	andeq	r0, r2, #536870912	; 0x20000000
    ad48:	fe020202 	cdp2	2, 0, cr0, cr2, cr2, {0}
    ad4c:	00000000 	andeq	r0, r0, r0
    ad50:	c6000000 	strgt	r0, [r0], -r0
    ad54:	aaaaaac6 	bge	feab5874 <__ram_end+0xf6ab5874>
    ad58:	82828292 	addhi	r8, r2, #536870921	; 0x20000009
    ad5c:	00000000 	andeq	r0, r0, r0
    ad60:	86000000 	strhi	r0, [r0], -r0
    ad64:	928a8a86 	addls	r8, sl, #548864	; 0x86000
    ad68:	c2c2a2a2 	sbcgt	sl, r2, #536870922	; 0x2000000a
    ad6c:	00000000 	andeq	r0, r0, r0
    ad70:	38000000 	stmdacc	r0, {}	; <UNPREDICTABLE>
    ad74:	82828244 	addhi	r8, r2, #68, 4	; 0x40000004
    ad78:	38448282 	stmdacc	r4, {r1, r7, r9, pc}^
    ad7c:	00000000 	andeq	r0, r0, r0
    ad80:	7e000000 	cdpvc	0, 0, cr0, cr0, cr0, {0}
    ad84:	c28282c2 	addgt	r8, r2, #536870924	; 0x2000000c
    ad88:	0202027e 	andeq	r0, r2, #-536870905	; 0xe0000007
    ad8c:	00000000 	andeq	r0, r0, r0
    ad90:	38000000 	stmdacc	r0, {}	; <UNPREDICTABLE>
    ad94:	82828244 	addhi	r8, r2, #68, 4	; 0x40000004
    ad98:	78448282 	stmdavc	r4, {r1, r7, r9, pc}^
    ad9c:	00004060 	andeq	r4, r0, r0, rrx
    ada0:	7e000000 	cdpvc	0, 0, cr0, cr0, cr0, {0}
    ada4:	7e8282c2 	cdpvc	2, 8, cr8, cr2, cr2, {6}
    ada8:	02828242 	addeq	r8, r2, #536870916	; 0x20000004
    adac:	00000000 	andeq	r0, r0, r0
    adb0:	7c000000 	stcvc	0, cr0, [r0], {-0}
    adb4:	7c060286 	sfmvc	f0, 4, [r6], {134}	; 0x86
    adb8:	7dc280c0 	stclvc	0, cr8, [r2, #768]	; 0x300
    adbc:	00000000 	andeq	r0, r0, r0
    adc0:	7f000000 	svcvc	0x00000000
    adc4:	08080808 	stmdaeq	r8, {r3, fp}
    adc8:	08080808 	stmdaeq	r8, {r3, fp}
    adcc:	00000000 	andeq	r0, r0, r0
    add0:	82000000 	andhi	r0, r0, #0
    add4:	82828282 	addhi	r8, r2, #536870920	; 0x20000008
    add8:	7c828282 	sfmvc	f0, 1, [r2], {130}	; 0x82
    addc:	00000000 	andeq	r0, r0, r0
    ade0:	82000000 	andhi	r0, r0, #0
    ade4:	444444c6 	strbmi	r4, [r4], #-1222	; 0xfffffb3a
    ade8:	10282828 	eorne	r2, r8, r8, lsr #16
    adec:	00000000 	andeq	r0, r0, r0
    adf0:	81000000 	mrshi	r0, (UNDEF: 0)
    adf4:	5a5a8181 	bpl	16ab400 <__sys_stack_top+0x1698ad0>
    adf8:	6666665a 			; <UNDEFINED> instruction: 0x6666665a
    adfc:	00000000 	andeq	r0, r0, r0
    ae00:	c6000000 	strgt	r0, [r0], -r0
    ae04:	10382844 	eorsne	r2, r8, r4, asr #16
    ae08:	82446c28 	subhi	r6, r4, #40, 24	; 0x2800
    ae0c:	00000000 	andeq	r0, r0, r0
    ae10:	41000000 	mrsmi	r0, (UNDEF: 0)
    ae14:	08141422 	ldmdaeq	r4, {r1, r5, sl, ip}
    ae18:	08080808 	stmdaeq	r8, {r3, fp}
    ae1c:	00000000 	andeq	r0, r0, r0
    ae20:	fe000000 	cdp2	0, 0, cr0, cr0, cr0, {0}
    ae24:	102060c0 	eorne	r6, r0, r0, asr #1
    ae28:	fe060c08 	cdp2	12, 0, cr0, cr6, cr8, {0}
    ae2c:	00000000 	andeq	r0, r0, r0
    ae30:	08083800 	stmdaeq	r8, {fp, ip, sp}
    ae34:	08080808 	stmdaeq	r8, {r3, fp}
    ae38:	08080808 	stmdaeq	r8, {r3, fp}
    ae3c:	00000038 	andeq	r0, r0, r8, lsr r0
    ae40:	02000000 	andeq	r0, r0, #0
    ae44:	08080404 	stmdaeq	r8, {r2, sl}
    ae48:	20101018 	andscs	r1, r0, r8, lsl r0
    ae4c:	00004020 	andeq	r4, r0, r0, lsr #32
    ae50:	10101c00 	andsne	r1, r0, r0, lsl #24
    ae54:	10101010 	andsne	r1, r0, r0, lsl r0
    ae58:	10101010 	andsne	r1, r0, r0, lsl r0
    ae5c:	0000001c 	andeq	r0, r0, ip, lsl r0
    ae60:	08000000 	stmdaeq	r0, {}	; <UNPREDICTABLE>
    ae64:	00632214 	rsbeq	r2, r3, r4, lsl r2
	...
    ae7c:	007f0000 	rsbseq	r0, pc, r0
    ae80:	10080000 	andne	r0, r8, r0
	...
    ae94:	40443800 	submi	r3, r4, r0, lsl #16
    ae98:	5c62427c 	sfmpl	f4, 2, [r2], #-496	; 0xfffffe10
    ae9c:	00000000 	andeq	r0, r0, r0
    aea0:	02020200 	andeq	r0, r2, #0, 4
    aea4:	42663e02 	rsbmi	r3, r6, #2, 28
    aea8:	3e664242 	cdpcc	2, 6, cr4, cr6, cr2, {2}
	...
    aeb4:	02443800 	subeq	r3, r4, #0, 16
    aeb8:	38440202 	stmdacc	r4, {r1, r9}^
    aebc:	00000000 	andeq	r0, r0, r0
    aec0:	40404000 	submi	r4, r0, r0
    aec4:	42667c40 	rsbmi	r7, r6, #64, 24	; 0x4000
    aec8:	7c664242 	sfmvc	f4, 2, [r6], #-264	; 0xfffffef8
	...
    aed4:	42663c00 	rsbmi	r3, r6, #0, 24
    aed8:	3c46027e 	sfmcc	f0, 2, [r6], {126}	; 0x7e
    aedc:	00000000 	andeq	r0, r0, r0
    aee0:	08083000 	stmdaeq	r8, {ip, sp}
    aee4:	08083e08 	stmdaeq	r8, {r3, r9, sl, fp, ip, sp}
    aee8:	08080808 	stmdaeq	r8, {r3, fp}
	...
    aef4:	42667c00 	rsbmi	r7, r6, #0, 24
    aef8:	5c664242 	sfmpl	f4, 2, [r6], #-264	; 0xfffffef8
    aefc:	00384440 	eorseq	r4, r8, r0, asr #8
    af00:	02020200 	andeq	r0, r2, #0, 4
    af04:	42463a02 	submi	r3, r6, #8192	; 0x2000
    af08:	42424242 	submi	r4, r2, #536870916	; 0x20000004
    af0c:	00000000 	andeq	r0, r0, r0
    af10:	00000800 	andeq	r0, r0, r0, lsl #16
    af14:	08080e00 	stmdaeq	r8, {r9, sl, fp}
    af18:	3e080808 	cdpcc	8, 0, cr0, cr8, cr8, {0}
    af1c:	00000000 	andeq	r0, r0, r0
    af20:	00001000 	andeq	r1, r0, r0
    af24:	10101c00 	andsne	r1, r0, r0, lsl #24
    af28:	10101010 	andsne	r1, r0, r0, lsl r0
    af2c:	000e1010 	andeq	r1, lr, r0, lsl r0
    af30:	02020200 	andeq	r0, r2, #0, 4
    af34:	0a122202 	beq	493744 <__sys_stack_top+0x480e14>
    af38:	4222120e 	eormi	r1, r2, #-536870912	; 0xe0000000
    af3c:	00000000 	andeq	r0, r0, r0
    af40:	08080e00 	stmdaeq	r8, {r9, sl, fp}
    af44:	08080808 	stmdaeq	r8, {r3, fp}
    af48:	70080808 	andvc	r0, r8, r8, lsl #16
	...
    af54:	9292fe00 	addsls	pc, r2, #0, 28
    af58:	92929292 	addsls	r9, r2, #536870921	; 0x20000009
	...
    af64:	42463a00 	submi	r3, r6, #0, 20
    af68:	42424242 	submi	r4, r2, #536870916	; 0x20000004
	...
    af74:	42663c00 	rsbmi	r3, r6, #0, 24
    af78:	3c664242 	sfmcc	f4, 2, [r6], #-264	; 0xfffffef8
	...
    af84:	42663e00 	rsbmi	r3, r6, #0, 28
    af88:	3e664242 	cdpcc	2, 6, cr4, cr6, cr2, {2}
    af8c:	00020202 	andeq	r0, r2, r2, lsl #4
    af90:	00000000 	andeq	r0, r0, r0
    af94:	42667c00 	rsbmi	r7, r6, #0, 24
    af98:	5c664242 	sfmpl	f4, 2, [r6], #-264	; 0xfffffef8
    af9c:	00404040 	subeq	r4, r0, r0, asr #32
    afa0:	00000000 	andeq	r0, r0, r0
    afa4:	044c3c00 	strbeq	r3, [ip], #-3072	; 0xfffff400
    afa8:	04040404 	streq	r0, [r4], #-1028	; 0xfffffbfc
	...
    afb4:	02423c00 	subeq	r3, r2, #0, 24
    afb8:	3c42403c 	mcrrcc	0, 3, r4, r2, cr12
    afbc:	00000000 	andeq	r0, r0, r0
    afc0:	08000000 	stmdaeq	r0, {}	; <UNPREDICTABLE>
    afc4:	08087e08 	stmdaeq	r8, {r3, r9, sl, fp, ip, sp, lr}
    afc8:	70080808 	andvc	r0, r8, r8, lsl #16
	...
    afd4:	42424200 	submi	r4, r2, #0, 4
    afd8:	5c624242 	sfmpl	f4, 2, [r2], #-264	; 0xfffffef8
	...
    afe4:	24664200 	strbtcs	r4, [r6], #-512	; 0xfffffe00
    afe8:	18183c24 	ldmdane	r8, {r2, r5, sl, fp, ip, sp}
	...
    aff4:	5a818100 	bpl	fe06b3fc <__ram_end+0xf606b3fc>
    aff8:	24245a5a 	strtcs	r5, [r4], #-2650	; 0xfffff5a6
	...
    b004:	18246600 	stmdane	r4!, {r9, sl, sp, lr}
    b008:	66241818 			; <UNDEFINED> instruction: 0x66241818
	...
    b014:	24444200 	strbcs	r4, [r4], #-512	; 0xfffffe00
    b018:	10182824 	andsne	r2, r8, r4, lsr #16
    b01c:	000c0810 	andeq	r0, ip, r0, lsl r8
    b020:	00000000 	andeq	r0, r0, r0
    b024:	20407e00 	subcs	r7, r0, r0, lsl #28
    b028:	7e020418 	cfmvdlrvc	mvd2, r0
    b02c:	00000000 	andeq	r0, r0, r0
    b030:	08083800 	stmdaeq	r8, {fp, ip, sp}
    b034:	08060808 	stmdaeq	r6, {r3, fp}
    b038:	08080808 	stmdaeq	r8, {r3, fp}
    b03c:	00000030 	andeq	r0, r0, r0, lsr r0
    b040:	08080800 	stmdaeq	r8, {fp}
    b044:	08080808 	stmdaeq	r8, {r3, fp}
    b048:	08080808 	stmdaeq	r8, {r3, fp}
    b04c:	00000808 	andeq	r0, r0, r8, lsl #16
    b050:	08080e00 	stmdaeq	r8, {r9, sl, fp}
    b054:	08300808 	ldmdaeq	r0!, {r3, fp}
    b058:	08080808 	stmdaeq	r8, {r3, fp}
    b05c:	00000006 	andeq	r0, r0, r6
    b060:	00000000 	andeq	r0, r0, r0
    b064:	9c000000 	stcls	0, cr0, [r0], {-0}
    b068:	00000062 	andeq	r0, r0, r2, rrx
    b06c:	00000000 	andeq	r0, r0, r0
    b070:	ffffffff 			; <UNDEFINED> instruction: 0xffffffff
    b074:	ffffffff 			; <UNDEFINED> instruction: 0xffffffff
    b078:	ffffffff 			; <UNDEFINED> instruction: 0xffffffff
    b07c:	ffffffff 			; <UNDEFINED> instruction: 0xffffffff

0000b080 <hardware_uptime_seconds>:
    b080:	e59f1040 	ldr	r1, [pc, #64]	; b0c8 <hardware_uptime_seconds+0x48>
    b084:	e59f0040 	ldr	r0, [pc, #64]	; b0cc <hardware_uptime_seconds+0x4c>
    b088:	e5912004 	ldr	r2, [r1, #4]
    b08c:	e92d4008 	push	{r3, lr}
    b090:	e5913008 	ldr	r3, [r1, #8]
    b094:	e1c000d0 	ldrd	r0, [r0]
    b098:	e0520000 	subs	r0, r2, r0
    b09c:	e0c31001 	sbc	r1, r3, r1
    b0a0:	eb000b61 	bl	de2c <__aeabi_ul2d>
    b0a4:	ed9f7b05 	vldr	d7, [pc, #20]	; b0c0 <hardware_uptime_seconds+0x40>
    b0a8:	ec410b16 	vmov	d6, r0, r1
    b0ac:	ee867b07 	vdiv.f64	d7, d6, d7
    b0b0:	ec510b17 	vmov	r0, r1, d7
    b0b4:	eb000b89 	bl	dee0 <__aeabi_d2ulz>
    b0b8:	e8bd8008 	pop	{r3, pc}
    b0bc:	e320f000 	nop	{0}
    b0c0:	00000000 	andeq	r0, r0, r0
    b0c4:	412e8480 	smlawbmi	lr, r0, r4, r8
    b0c8:	20003000 	andcs	r3, r0, r0
    b0cc:	00010f00 	andeq	r0, r1, r0, lsl #30

0000b0d0 <hardware_get_firmware_revision>:
    b0d0:	ea000411 	b	c11c <bcm2835_vc_get_get_firmware_revision>

0000b0d4 <hardware_get_firmware_copyright>:
    b0d4:	e59f0000 	ldr	r0, [pc]	; b0dc <hardware_get_firmware_copyright+0x8>
    b0d8:	e12fff1e 	bx	lr
    b0dc:	0000e258 	andeq	lr, r0, r8, asr r2

0000b0e0 <hardware_get_firmware_copyright_length>:
    b0e0:	e3a0001b 	mov	r0, #27
    b0e4:	e12fff1e 	bx	lr

0000b0e8 <hardware_get_board_model_id>:
    b0e8:	ea000442 	b	c1f8 <bcm2835_vc_get_get_board_revision>

0000b0ec <hardware_get_board_model>:
    b0ec:	e92d4008 	push	{r3, lr}
    b0f0:	eb000440 	bl	c1f8 <bcm2835_vc_get_get_board_revision>
    b0f4:	e3500000 	cmp	r0, #0
    b0f8:	da000022 	ble	b188 <hardware_get_board_model+0x9c>
    b0fc:	e3500002 	cmp	r0, #2
    b100:	0a00002a 	beq	b1b0 <hardware_get_board_model+0xc4>
    b104:	e3500003 	cmp	r0, #3
    b108:	0a00002a 	beq	b1b8 <hardware_get_board_model+0xcc>
    b10c:	e3500004 	cmp	r0, #4
    b110:	0a00002a 	beq	b1c0 <hardware_get_board_model+0xd4>
    b114:	e3500005 	cmp	r0, #5
    b118:	0a00002a 	beq	b1c8 <hardware_get_board_model+0xdc>
    b11c:	e3500006 	cmp	r0, #6
    b120:	0a00002a 	beq	b1d0 <hardware_get_board_model+0xe4>
    b124:	e3500007 	cmp	r0, #7
    b128:	0a00002a 	beq	b1d8 <hardware_get_board_model+0xec>
    b12c:	e3500008 	cmp	r0, #8
    b130:	0a00002a 	beq	b1e0 <hardware_get_board_model+0xf4>
    b134:	e3500009 	cmp	r0, #9
    b138:	0a00002a 	beq	b1e8 <hardware_get_board_model+0xfc>
    b13c:	e350000d 	cmp	r0, #13
    b140:	0a00002a 	beq	b1f0 <hardware_get_board_model+0x104>
    b144:	e350000e 	cmp	r0, #14
    b148:	0a00002a 	beq	b1f8 <hardware_get_board_model+0x10c>
    b14c:	e350000f 	cmp	r0, #15
    b150:	0a000014 	beq	b1a8 <hardware_get_board_model+0xbc>
    b154:	e3500010 	cmp	r0, #16
    b158:	0a000028 	beq	b200 <hardware_get_board_model+0x114>
    b15c:	e3500011 	cmp	r0, #17
    b160:	0a000028 	beq	b208 <hardware_get_board_model+0x11c>
    b164:	e3500012 	cmp	r0, #18
    b168:	0a000028 	beq	b210 <hardware_get_board_model+0x124>
    b16c:	e59f30a4 	ldr	r3, [pc, #164]	; b218 <hardware_get_board_model+0x12c>
    b170:	e1500003 	cmp	r0, r3
    b174:	0a000005 	beq	b190 <hardware_get_board_model+0xa4>
    b178:	e2833802 	add	r3, r3, #131072	; 0x20000
    b17c:	e1500003 	cmp	r0, r3
    b180:	03a00010 	moveq	r0, #16
    b184:	0a000002 	beq	b194 <hardware_get_board_model+0xa8>
    b188:	e59f008c 	ldr	r0, [pc, #140]	; b21c <hardware_get_board_model+0x130>
    b18c:	e8bd8008 	pop	{r3, pc}
    b190:	e3a0000f 	mov	r0, #15
    b194:	e59f3084 	ldr	r3, [pc, #132]	; b220 <hardware_get_board_model+0x134>
    b198:	e0600180 	rsb	r0, r0, r0, lsl #3
    b19c:	e0830100 	add	r0, r3, r0, lsl #2
    b1a0:	e2800004 	add	r0, r0, #4
    b1a4:	e8bd8008 	pop	{r3, pc}
    b1a8:	e3a0000b 	mov	r0, #11
    b1ac:	eafffff8 	b	b194 <hardware_get_board_model+0xa8>
    b1b0:	e3a00001 	mov	r0, #1
    b1b4:	eafffff6 	b	b194 <hardware_get_board_model+0xa8>
    b1b8:	e3a00002 	mov	r0, #2
    b1bc:	eafffff4 	b	b194 <hardware_get_board_model+0xa8>
    b1c0:	e3a00003 	mov	r0, #3
    b1c4:	eafffff2 	b	b194 <hardware_get_board_model+0xa8>
    b1c8:	e3a00004 	mov	r0, #4
    b1cc:	eafffff0 	b	b194 <hardware_get_board_model+0xa8>
    b1d0:	e3a00005 	mov	r0, #5
    b1d4:	eaffffee 	b	b194 <hardware_get_board_model+0xa8>
    b1d8:	e3a00006 	mov	r0, #6
    b1dc:	eaffffec 	b	b194 <hardware_get_board_model+0xa8>
    b1e0:	e3a00007 	mov	r0, #7
    b1e4:	eaffffea 	b	b194 <hardware_get_board_model+0xa8>
    b1e8:	e3a00008 	mov	r0, #8
    b1ec:	eaffffe8 	b	b194 <hardware_get_board_model+0xa8>
    b1f0:	e3a00009 	mov	r0, #9
    b1f4:	eaffffe6 	b	b194 <hardware_get_board_model+0xa8>
    b1f8:	e3a0000a 	mov	r0, #10
    b1fc:	eaffffe4 	b	b194 <hardware_get_board_model+0xa8>
    b200:	e3a0000c 	mov	r0, #12
    b204:	eaffffe2 	b	b194 <hardware_get_board_model+0xa8>
    b208:	e3a0000d 	mov	r0, #13
    b20c:	eaffffe0 	b	b194 <hardware_get_board_model+0xa8>
    b210:	e3a0000e 	mov	r0, #14
    b214:	eaffffde 	b	b194 <hardware_get_board_model+0xa8>
    b218:	00a01041 	adceq	r1, r0, r1, asr #32
    b21c:	0000e278 	andeq	lr, r0, r8, ror r2
    b220:	0000e274 	andeq	lr, r0, r4, ror r2

0000b224 <hardware_get_board_model_length>:
    b224:	e3a00014 	mov	r0, #20
    b228:	e12fff1e 	bx	lr

0000b22c <hardware_led_init>:
    b22c:	e59f3004 	ldr	r3, [pc, #4]	; b238 <hardware_led_init+0xc>
    b230:	e5933000 	ldr	r3, [r3]
    b234:	e12fff13 	bx	r3
    b238:	0000e7d8 	ldrdeq	lr, [r0], -r8

0000b23c <hardware_led_set>:
    b23c:	e59f3004 	ldr	r3, [pc, #4]	; b248 <hardware_led_set+0xc>
    b240:	e5933004 	ldr	r3, [r3, #4]
    b244:	e12fff13 	bx	r3
    b248:	0000e7d8 	ldrdeq	lr, [r0], -r8

0000b24c <hardware_rtc_set>:
    b24c:	e92d4070 	push	{r4, r5, r6, lr}
    b250:	e1d030b6 	ldrh	r3, [r0, #6]
    b254:	e5d04002 	ldrb	r4, [r0, #2]
    b258:	e5d0e001 	ldrb	lr, [r0, #1]
    b25c:	e5d0c000 	ldrb	ip, [r0]
    b260:	e5d01003 	ldrb	r1, [r0, #3]
    b264:	e5d02004 	ldrb	r2, [r0, #4]
    b268:	e24dd048 	sub	sp, sp, #72	; 0x48
    b26c:	e2433e7d 	sub	r3, r3, #2000	; 0x7d0
    b270:	e3a00000 	mov	r0, #0
    b274:	e58d3014 	str	r3, [sp, #20]
    b278:	e58d4008 	str	r4, [sp, #8]
    b27c:	e88d5000 	stm	sp, {ip, lr}
    b280:	e58d100c 	str	r1, [sp, #12]
    b284:	e58d2010 	str	r2, [sp, #16]
    b288:	eb000104 	bl	b6a0 <mcp7941x_start>
    b28c:	e3500001 	cmp	r0, #1
    b290:	0a000001 	beq	b29c <hardware_rtc_set+0x50>
    b294:	e1a0000d 	mov	r0, sp
    b298:	eb000160 	bl	b820 <mcp7941x_set_date_time>
    b29c:	e99d0030 	ldmib	sp, {r4, r5}
    b2a0:	e3a06000 	mov	r6, #0
    b2a4:	e59de000 	ldr	lr, [sp]
    b2a8:	e59dc00c 	ldr	ip, [sp, #12]
    b2ac:	e59d1018 	ldr	r1, [sp, #24]
    b2b0:	e59d2010 	ldr	r2, [sp, #16]
    b2b4:	e59d3014 	ldr	r3, [sp, #20]
    b2b8:	e28d0024 	add	r0, sp, #36	; 0x24
    b2bc:	e58d6044 	str	r6, [sp, #68]	; 0x44
    b2c0:	e58d502c 	str	r5, [sp, #44]	; 0x2c
    b2c4:	e58d4028 	str	r4, [sp, #40]	; 0x28
    b2c8:	e58de024 	str	lr, [sp, #36]	; 0x24
    b2cc:	e58dc030 	str	ip, [sp, #48]	; 0x30
    b2d0:	e58d103c 	str	r1, [sp, #60]	; 0x3c
    b2d4:	e58d2034 	str	r2, [sp, #52]	; 0x34
    b2d8:	e58d3038 	str	r3, [sp, #56]	; 0x38
    b2dc:	eb0000cb 	bl	b610 <sys_time_set>
    b2e0:	e28dd048 	add	sp, sp, #72	; 0x48
    b2e4:	e8bd8070 	pop	{r4, r5, r6, pc}

0000b2e8 <hardware_print_board_model>:
    b2e8:	e92d4008 	push	{r3, lr}
    b2ec:	eb0003c1 	bl	c1f8 <bcm2835_vc_get_get_board_revision>
    b2f0:	e3500000 	cmp	r0, #0
    b2f4:	da000022 	ble	b384 <hardware_print_board_model+0x9c>
    b2f8:	e3500002 	cmp	r0, #2
    b2fc:	0a00002c 	beq	b3b4 <hardware_print_board_model+0xcc>
    b300:	e3500003 	cmp	r0, #3
    b304:	0a00002c 	beq	b3bc <hardware_print_board_model+0xd4>
    b308:	e3500004 	cmp	r0, #4
    b30c:	0a00002c 	beq	b3c4 <hardware_print_board_model+0xdc>
    b310:	e3500005 	cmp	r0, #5
    b314:	0a00002c 	beq	b3cc <hardware_print_board_model+0xe4>
    b318:	e3500006 	cmp	r0, #6
    b31c:	0a00002c 	beq	b3d4 <hardware_print_board_model+0xec>
    b320:	e3500007 	cmp	r0, #7
    b324:	0a00002c 	beq	b3dc <hardware_print_board_model+0xf4>
    b328:	e3500008 	cmp	r0, #8
    b32c:	0a00002c 	beq	b3e4 <hardware_print_board_model+0xfc>
    b330:	e3500009 	cmp	r0, #9
    b334:	0a00002c 	beq	b3ec <hardware_print_board_model+0x104>
    b338:	e350000d 	cmp	r0, #13
    b33c:	0a00002c 	beq	b3f4 <hardware_print_board_model+0x10c>
    b340:	e350000e 	cmp	r0, #14
    b344:	0a00002c 	beq	b3fc <hardware_print_board_model+0x114>
    b348:	e350000f 	cmp	r0, #15
    b34c:	0a000016 	beq	b3ac <hardware_print_board_model+0xc4>
    b350:	e3500010 	cmp	r0, #16
    b354:	0a00002a 	beq	b404 <hardware_print_board_model+0x11c>
    b358:	e3500011 	cmp	r0, #17
    b35c:	0a00002a 	beq	b40c <hardware_print_board_model+0x124>
    b360:	e3500012 	cmp	r0, #18
    b364:	0a00002a 	beq	b414 <hardware_print_board_model+0x12c>
    b368:	e59f30ac 	ldr	r3, [pc, #172]	; b41c <hardware_print_board_model+0x134>
    b36c:	e1500003 	cmp	r0, r3
    b370:	0a000006 	beq	b390 <hardware_print_board_model+0xa8>
    b374:	e2833802 	add	r3, r3, #131072	; 0x20000
    b378:	e1500003 	cmp	r0, r3
    b37c:	03a00010 	moveq	r0, #16
    b380:	0a000003 	beq	b394 <hardware_print_board_model+0xac>
    b384:	e8bd4008 	pop	{r3, lr}
    b388:	e59f0090 	ldr	r0, [pc, #144]	; b420 <hardware_print_board_model+0x138>
    b38c:	eafff9fb 	b	9b80 <console_puts>
    b390:	e3a0000f 	mov	r0, #15
    b394:	e59f3088 	ldr	r3, [pc, #136]	; b424 <hardware_print_board_model+0x13c>
    b398:	e0600180 	rsb	r0, r0, r0, lsl #3
    b39c:	e0830100 	add	r0, r3, r0, lsl #2
    b3a0:	e2800004 	add	r0, r0, #4
    b3a4:	e8bd4008 	pop	{r3, lr}
    b3a8:	eafff9f4 	b	9b80 <console_puts>
    b3ac:	e3a0000b 	mov	r0, #11
    b3b0:	eafffff7 	b	b394 <hardware_print_board_model+0xac>
    b3b4:	e3a00001 	mov	r0, #1
    b3b8:	eafffff5 	b	b394 <hardware_print_board_model+0xac>
    b3bc:	e3a00002 	mov	r0, #2
    b3c0:	eafffff3 	b	b394 <hardware_print_board_model+0xac>
    b3c4:	e3a00003 	mov	r0, #3
    b3c8:	eafffff1 	b	b394 <hardware_print_board_model+0xac>
    b3cc:	e3a00004 	mov	r0, #4
    b3d0:	eaffffef 	b	b394 <hardware_print_board_model+0xac>
    b3d4:	e3a00005 	mov	r0, #5
    b3d8:	eaffffed 	b	b394 <hardware_print_board_model+0xac>
    b3dc:	e3a00006 	mov	r0, #6
    b3e0:	eaffffeb 	b	b394 <hardware_print_board_model+0xac>
    b3e4:	e3a00007 	mov	r0, #7
    b3e8:	eaffffe9 	b	b394 <hardware_print_board_model+0xac>
    b3ec:	e3a00008 	mov	r0, #8
    b3f0:	eaffffe7 	b	b394 <hardware_print_board_model+0xac>
    b3f4:	e3a00009 	mov	r0, #9
    b3f8:	eaffffe5 	b	b394 <hardware_print_board_model+0xac>
    b3fc:	e3a0000a 	mov	r0, #10
    b400:	eaffffe3 	b	b394 <hardware_print_board_model+0xac>
    b404:	e3a0000c 	mov	r0, #12
    b408:	eaffffe1 	b	b394 <hardware_print_board_model+0xac>
    b40c:	e3a0000d 	mov	r0, #13
    b410:	eaffffdf 	b	b394 <hardware_print_board_model+0xac>
    b414:	e3a0000e 	mov	r0, #14
    b418:	eaffffdd 	b	b394 <hardware_print_board_model+0xac>
    b41c:	00a01041 	adceq	r1, r0, r1, asr #32
    b420:	0000e278 	andeq	lr, r0, r8, ror r2
    b424:	0000e274 	andeq	lr, r0, r4, ror r2

0000b428 <hardware_get_core_temperature>:
    b428:	e92d4008 	push	{r3, lr}
    b42c:	eb000277 	bl	be10 <bcm2835_vc_get_temperature>
    b430:	e59f200c 	ldr	r2, [pc, #12]	; b444 <hardware_get_core_temperature+0x1c>
    b434:	e1a03fc0 	asr	r3, r0, #31
    b438:	e0c02092 	smull	r2, r0, r2, r0
    b43c:	e0630340 	rsb	r0, r3, r0, asr #6
    b440:	e8bd8008 	pop	{r3, pc}
    b444:	10624dd3 	ldrdne	r4, [r2], #-211	; 0xffffff2d	; <UNPREDICTABLE>

0000b448 <hardware_init>:
    b448:	e59f1054 	ldr	r1, [pc, #84]	; b4a4 <hardware_init+0x5c>
    b44c:	e59f0054 	ldr	r0, [pc, #84]	; b4a8 <hardware_init+0x60>
    b450:	e5912004 	ldr	r2, [r1, #4]
    b454:	e5913008 	ldr	r3, [r1, #8]
    b458:	e92d4010 	push	{r4, lr}
    b45c:	e1c020f0 	strd	r2, [r0]
    b460:	eb000038 	bl	b548 <sys_time_init>
    b464:	ebfffa80 	bl	9e6c <console_init>
    b468:	eb000362 	bl	c1f8 <bcm2835_vc_get_get_board_revision>
    b46c:	e350000f 	cmp	r0, #15
    b470:	d59f4034 	ldrle	r4, [pc, #52]	; b4ac <hardware_init+0x64>
    b474:	c59f2034 	ldrgt	r2, [pc, #52]	; b4b0 <hardware_init+0x68>
    b478:	c59f402c 	ldrgt	r4, [pc, #44]	; b4ac <hardware_init+0x64>
    b47c:	c59f1030 	ldrgt	r1, [pc, #48]	; b4b4 <hardware_init+0x6c>
    b480:	d5943000 	ldrle	r3, [r4]
    b484:	c1a03002 	movgt	r3, r2
    b488:	c5842000 	strgt	r2, [r4]
    b48c:	c5841004 	strgt	r1, [r4, #4]
    b490:	e12fff33 	blx	r3
    b494:	e5943004 	ldr	r3, [r4, #4]
    b498:	e3a00001 	mov	r0, #1
    b49c:	e8bd4010 	pop	{r4, lr}
    b4a0:	e12fff13 	bx	r3
    b4a4:	20003000 	andcs	r3, r0, r0
    b4a8:	00010f00 	andeq	r0, r1, r0, lsl #30
    b4ac:	0000e7d8 	ldrdeq	lr, [r0], -r8
    b4b0:	0000bc74 	andeq	fp, r0, r4, ror ip
    b4b4:	0000bc58 	andeq	fp, r0, r8, asr ip

0000b4b8 <hardware_reboot>:
    b4b8:	e92d4008 	push	{r3, lr}
    b4bc:	e59f3010 	ldr	r3, [pc, #16]	; b4d4 <hardware_reboot+0x1c>
    b4c0:	e3a00001 	mov	r0, #1
    b4c4:	e5933004 	ldr	r3, [r3, #4]
    b4c8:	e12fff33 	blx	r3
    b4cc:	eb00036b 	bl	c280 <watchdog_init>
    b4d0:	eafffffe 	b	b4d0 <hardware_reboot+0x18>
    b4d4:	0000e7d8 	ldrdeq	lr, [r0], -r8

0000b4d8 <led_set_ticks_per_second>:
    b4d8:	e59f3004 	ldr	r3, [pc, #4]	; b4e4 <led_set_ticks_per_second+0xc>
    b4dc:	e5830000 	str	r0, [r3]
    b4e0:	e12fff1e 	bx	lr
    b4e4:	0000e7e0 	andeq	lr, r0, r0, ror #15

0000b4e8 <led_get_ticks_per_second>:
    b4e8:	e59f3004 	ldr	r3, [pc, #4]	; b4f4 <led_get_ticks_per_second+0xc>
    b4ec:	e5930000 	ldr	r0, [r3]
    b4f0:	e12fff1e 	bx	lr
    b4f4:	0000e7e0 	andeq	lr, r0, r0, ror #15

0000b4f8 <led_blink>:
    b4f8:	e92d4038 	push	{r3, r4, r5, lr}
    b4fc:	e59f3038 	ldr	r3, [pc, #56]	; b53c <led_blink+0x44>
    b500:	e59f4038 	ldr	r4, [pc, #56]	; b540 <led_blink+0x48>
    b504:	e59f2038 	ldr	r2, [pc, #56]	; b544 <led_blink+0x4c>
    b508:	e5935004 	ldr	r5, [r3, #4]
    b50c:	e5943000 	ldr	r3, [r4]
    b510:	e5922000 	ldr	r2, [r2]
    b514:	e0633005 	rsb	r3, r3, r5
    b518:	e1530002 	cmp	r3, r2
    b51c:	38bd8038 	popcc	{r3, r4, r5, pc}
    b520:	e5940004 	ldr	r0, [r4, #4]
    b524:	e2803001 	add	r3, r0, #1
    b528:	e2000001 	and	r0, r0, #1
    b52c:	e5843004 	str	r3, [r4, #4]
    b530:	ebffff41 	bl	b23c <hardware_led_set>
    b534:	e5845000 	str	r5, [r4]
    b538:	e8bd8038 	pop	{r3, r4, r5, pc}
    b53c:	20003000 	andcs	r3, r0, r0
    b540:	00010f08 	andeq	r0, r1, r8, lsl #30
    b544:	0000e7e0 	andeq	lr, r0, r0, ror #15

0000b548 <sys_time_init>:
    b548:	e92d40f0 	push	{r4, r5, r6, r7, lr}
    b54c:	e59f10b4 	ldr	r1, [pc, #180]	; b608 <sys_time_init+0xc0>
    b550:	e59f40b4 	ldr	r4, [pc, #180]	; b60c <sys_time_init+0xc4>
    b554:	e5912004 	ldr	r2, [r1, #4]
    b558:	e5913008 	ldr	r3, [r1, #8]
    b55c:	e24dd04c 	sub	sp, sp, #76	; 0x4c
    b560:	e3a00000 	mov	r0, #0
    b564:	e1c420f0 	strd	r2, [r4]
    b568:	eb00004c 	bl	b6a0 <mcp7941x_start>
    b56c:	e3500001 	cmp	r0, #1
    b570:	e1a03000 	mov	r3, r0
    b574:	0a000015 	beq	b5d0 <sys_time_init+0x88>
    b578:	e3a07000 	mov	r7, #0
    b57c:	e1a0000d 	mov	r0, sp
    b580:	eb00005c 	bl	b6f8 <mcp7941x_get_date_time>
    b584:	e99d0060 	ldmib	sp, {r5, r6}
    b588:	e59de000 	ldr	lr, [sp]
    b58c:	e59dc00c 	ldr	ip, [sp, #12]
    b590:	e59d1018 	ldr	r1, [sp, #24]
    b594:	e59d2010 	ldr	r2, [sp, #16]
    b598:	e59d3014 	ldr	r3, [sp, #20]
    b59c:	e28d0024 	add	r0, sp, #36	; 0x24
    b5a0:	e58d7044 	str	r7, [sp, #68]	; 0x44
    b5a4:	e58d602c 	str	r6, [sp, #44]	; 0x2c
    b5a8:	e58d5028 	str	r5, [sp, #40]	; 0x28
    b5ac:	e58de024 	str	lr, [sp, #36]	; 0x24
    b5b0:	e58dc030 	str	ip, [sp, #48]	; 0x30
    b5b4:	e58d103c 	str	r1, [sp, #60]	; 0x3c
    b5b8:	e58d2034 	str	r2, [sp, #52]	; 0x34
    b5bc:	e58d3038 	str	r3, [sp, #56]	; 0x38
    b5c0:	eb0004c2 	bl	c8d0 <mktime>
    b5c4:	e5840008 	str	r0, [r4, #8]
    b5c8:	e28dd04c 	add	sp, sp, #76	; 0x4c
    b5cc:	e8bd80f0 	pop	{r4, r5, r6, r7, pc}
    b5d0:	e3a02000 	mov	r2, #0
    b5d4:	e3a0100f 	mov	r1, #15
    b5d8:	e28d0024 	add	r0, sp, #36	; 0x24
    b5dc:	e58d3030 	str	r3, [sp, #48]	; 0x30
    b5e0:	e58d3034 	str	r3, [sp, #52]	; 0x34
    b5e4:	e58d202c 	str	r2, [sp, #44]	; 0x2c
    b5e8:	e58d2028 	str	r2, [sp, #40]	; 0x28
    b5ec:	e58d2024 	str	r2, [sp, #36]	; 0x24
    b5f0:	e58d2044 	str	r2, [sp, #68]	; 0x44
    b5f4:	e58d1038 	str	r1, [sp, #56]	; 0x38
    b5f8:	eb0004b4 	bl	c8d0 <mktime>
    b5fc:	e5840008 	str	r0, [r4, #8]
    b600:	e28dd04c 	add	sp, sp, #76	; 0x4c
    b604:	e8bd80f0 	pop	{r4, r5, r6, r7, pc}
    b608:	20003000 	andcs	r3, r0, r0
    b60c:	00010f10 	andeq	r0, r1, r0, lsl pc

0000b610 <sys_time_set>:
    b610:	e59f101c 	ldr	r1, [pc, #28]	; b634 <sys_time_set+0x24>
    b614:	e92d4010 	push	{r4, lr}
    b618:	e5912004 	ldr	r2, [r1, #4]
    b61c:	e59f4014 	ldr	r4, [pc, #20]	; b638 <sys_time_set+0x28>
    b620:	e5913008 	ldr	r3, [r1, #8]
    b624:	e1c420f0 	strd	r2, [r4]
    b628:	eb0004a8 	bl	c8d0 <mktime>
    b62c:	e5840008 	str	r0, [r4, #8]
    b630:	e8bd8010 	pop	{r4, pc}
    b634:	20003000 	andcs	r3, r0, r0
    b638:	00010f10 	andeq	r0, r1, r0, lsl pc

0000b63c <sys_time>:
    b63c:	e59f1054 	ldr	r1, [pc, #84]	; b698 <sys_time+0x5c>
    b640:	e59fc054 	ldr	ip, [pc, #84]	; b69c <sys_time+0x60>
    b644:	e5912004 	ldr	r2, [r1, #4]
    b648:	e92d4038 	push	{r3, r4, r5, lr}
    b64c:	e5913008 	ldr	r3, [r1, #8]
    b650:	e1a04000 	mov	r4, r0
    b654:	e1cc00d0 	ldrd	r0, [ip]
    b658:	e0520000 	subs	r0, r2, r0
    b65c:	e0c31001 	sbc	r1, r3, r1
    b660:	e59c5008 	ldr	r5, [ip, #8]
    b664:	eb0009f0 	bl	de2c <__aeabi_ul2d>
    b668:	ed9f7b08 	vldr	d7, [pc, #32]	; b690 <sys_time+0x54>
    b66c:	ec410b16 	vmov	d6, r0, r1
    b670:	ee867b07 	vdiv.f64	d7, d6, d7
    b674:	eebd7bc7 	vcvt.s32.f64	s14, d7
    b678:	ee173a10 	vmov	r3, s14
    b67c:	e3540000 	cmp	r4, #0
    b680:	e0830005 	add	r0, r3, r5
    b684:	15840000 	strne	r0, [r4]
    b688:	e8bd8038 	pop	{r3, r4, r5, pc}
    b68c:	e320f000 	nop	{0}
    b690:	00000000 	andeq	r0, r0, r0
    b694:	412e8480 	smlawbmi	lr, r0, r4, r8
    b698:	20003000 	andcs	r3, r0, r0
    b69c:	00010f10 	andeq	r0, r1, r0, lsl pc

0000b6a0 <mcp7941x_start>:
    b6a0:	e92d4010 	push	{r4, lr}
    b6a4:	e1a04000 	mov	r4, r0
    b6a8:	eb0000b9 	bl	b994 <bcm2835_i2c_begin>
    b6ac:	e3540000 	cmp	r4, #0
    b6b0:	11a03004 	movne	r3, r4
    b6b4:	03a0306f 	moveq	r3, #111	; 0x6f
    b6b8:	e3a00000 	mov	r0, #0
    b6bc:	e59f2024 	ldr	r2, [pc, #36]	; b6e8 <mcp7941x_start+0x48>
    b6c0:	e59fc024 	ldr	ip, [pc, #36]	; b6ec <mcp7941x_start+0x4c>
    b6c4:	e59f1024 	ldr	r1, [pc, #36]	; b6f0 <mcp7941x_start+0x50>
    b6c8:	e5c13000 	strb	r3, [r1]
    b6cc:	e582300c 	str	r3, [r2, #12]
    b6d0:	e1a01000 	mov	r1, r0
    b6d4:	e582c014 	str	ip, [r2, #20]
    b6d8:	eb0000c2 	bl	b9e8 <bcm2835_i2c_write>
    b6dc:	e2900000 	adds	r0, r0, #0
    b6e0:	13a00001 	movne	r0, #1
    b6e4:	e8bd8010 	pop	{r4, pc}
    b6e8:	20804000 	addcs	r4, r0, r0
    b6ec:	000009c4 	andeq	r0, r0, r4, asr #19
    b6f0:	0000e7e4 	andeq	lr, r0, r4, ror #15

0000b6f4 <mcp7941x_end>:
    b6f4:	ea0000b5 	b	b9d0 <bcm2835_i2c_end>

0000b6f8 <mcp7941x_get_date_time>:
    b6f8:	e3a03000 	mov	r3, #0
    b6fc:	e92d4ff0 	push	{r4, r5, r6, r7, r8, r9, sl, fp, lr}
    b700:	e59f110c 	ldr	r1, [pc, #268]	; b814 <mcp7941x_get_date_time+0x11c>
    b704:	e59f210c 	ldr	r2, [pc, #268]	; b818 <mcp7941x_get_date_time+0x120>
    b708:	e5d11000 	ldrb	r1, [r1]
    b70c:	e59fc108 	ldr	ip, [pc, #264]	; b81c <mcp7941x_get_date_time+0x124>
    b710:	e3a0a00a 	mov	sl, #10
    b714:	e24dd014 	sub	sp, sp, #20
    b718:	e1a04000 	mov	r4, r0
    b71c:	e5cd3004 	strb	r3, [sp, #4]
    b720:	e5cd3008 	strb	r3, [sp, #8]
    b724:	e5cd3009 	strb	r3, [sp, #9]
    b728:	e5cd300a 	strb	r3, [sp, #10]
    b72c:	e5cd300b 	strb	r3, [sp, #11]
    b730:	e5cd300c 	strb	r3, [sp, #12]
    b734:	e5cd300d 	strb	r3, [sp, #13]
    b738:	e5cd300e 	strb	r3, [sp, #14]
    b73c:	e28d0004 	add	r0, sp, #4
    b740:	e582100c 	str	r1, [r2, #12]
    b744:	e582c014 	str	ip, [r2, #20]
    b748:	e3a01001 	mov	r1, #1
    b74c:	eb0000a5 	bl	b9e8 <bcm2835_i2c_write>
    b750:	e28d0008 	add	r0, sp, #8
    b754:	e3a01007 	mov	r1, #7
    b758:	eb0000ea 	bl	bb08 <bcm2835_i2c_read>
    b75c:	e5dd300d 	ldrb	r3, [sp, #13]
    b760:	e5dde00e 	ldrb	lr, [sp, #14]
    b764:	e5ddc008 	ldrb	ip, [sp, #8]
    b768:	e5dd0009 	ldrb	r0, [sp, #9]
    b76c:	e5dd100a 	ldrb	r1, [sp, #10]
    b770:	e5dd200c 	ldrb	r2, [sp, #12]
    b774:	e203801f 	and	r8, r3, #31
    b778:	e20e900f 	and	r9, lr, #15
    b77c:	e1a0e22e 	lsr	lr, lr, #4
    b780:	e1099e8a 	smlabb	r9, sl, lr, r9
    b784:	e20c707f 	and	r7, ip, #127	; 0x7f
    b788:	e200607f 	and	r6, r0, #127	; 0x7f
    b78c:	e201503f 	and	r5, r1, #63	; 0x3f
    b790:	e1a08248 	asr	r8, r8, #4
    b794:	e202e03f 	and	lr, r2, #63	; 0x3f
    b798:	e5dda00b 	ldrb	sl, [sp, #11]
    b79c:	e1a0b108 	lsl	fp, r8, #2
    b7a0:	e1a07247 	asr	r7, r7, #4
    b7a4:	e1a06246 	asr	r6, r6, #4
    b7a8:	e1a05245 	asr	r5, r5, #4
    b7ac:	e1a0e24e 	asr	lr, lr, #4
    b7b0:	e20cc00f 	and	ip, ip, #15
    b7b4:	e200000f 	and	r0, r0, #15
    b7b8:	e201100f 	and	r1, r1, #15
    b7bc:	e202200f 	and	r2, r2, #15
    b7c0:	e203300f 	and	r3, r3, #15
    b7c4:	e08b8008 	add	r8, fp, r8
    b7c8:	e0877107 	add	r7, r7, r7, lsl #2
    b7cc:	e0866106 	add	r6, r6, r6, lsl #2
    b7d0:	e0855105 	add	r5, r5, r5, lsl #2
    b7d4:	e08ee10e 	add	lr, lr, lr, lsl #2
    b7d8:	e08c7087 	add	r7, ip, r7, lsl #1
    b7dc:	e0806086 	add	r6, r0, r6, lsl #1
    b7e0:	e0815085 	add	r5, r1, r5, lsl #1
    b7e4:	e20aa007 	and	sl, sl, #7
    b7e8:	e082e08e 	add	lr, r2, lr, lsl #1
    b7ec:	e0838088 	add	r8, r3, r8, lsl #1
    b7f0:	e5847000 	str	r7, [r4]
    b7f4:	e5846004 	str	r6, [r4, #4]
    b7f8:	e5845008 	str	r5, [r4, #8]
    b7fc:	e584a018 	str	sl, [r4, #24]
    b800:	e584e00c 	str	lr, [r4, #12]
    b804:	e5848010 	str	r8, [r4, #16]
    b808:	e5849014 	str	r9, [r4, #20]
    b80c:	e28dd014 	add	sp, sp, #20
    b810:	e8bd8ff0 	pop	{r4, r5, r6, r7, r8, r9, sl, fp, pc}
    b814:	0000e7e4 	andeq	lr, r0, r4, ror #15
    b818:	20804000 	addcs	r4, r0, r0
    b81c:	000009c4 	andeq	r0, r0, r4, asr #19

0000b820 <mcp7941x_set_date_time>:
    b820:	e5902000 	ldr	r2, [r0]
    b824:	e92d4ff0 	push	{r4, r5, r6, r7, r8, r9, sl, fp, lr}
    b828:	e59f510c 	ldr	r5, [pc, #268]	; b93c <mcp7941x_set_date_time+0x11c>
    b82c:	e202207f 	and	r2, r2, #127	; 0x7f
    b830:	e0c31295 	smull	r1, r3, r5, r2
    b834:	e1a03123 	lsr	r3, r3, #2
    b838:	e0831103 	add	r1, r3, r3, lsl #2
    b83c:	e0422081 	sub	r2, r2, r1, lsl #1
    b840:	e0823203 	add	r3, r2, r3, lsl #4
    b844:	e1e03c83 	mvn	r3, r3, lsl #25
    b848:	e1a0e000 	mov	lr, r0
    b84c:	e1e03ca3 	mvn	r3, r3, lsr #25
    b850:	e3a0a000 	mov	sl, #0
    b854:	e590c004 	ldr	ip, [r0, #4]
    b858:	e2801008 	add	r1, r0, #8
    b85c:	e8910816 	ldm	r1, {r1, r2, r4, fp}
    b860:	e20cc07f 	and	ip, ip, #127	; 0x7f
    b864:	e201101f 	and	r1, r1, #31
    b868:	e202203f 	and	r2, r2, #63	; 0x3f
    b86c:	e204401f 	and	r4, r4, #31
    b870:	e0c90c95 	smull	r0, r9, r5, ip
    b874:	e0c80195 	smull	r0, r8, r5, r1
    b878:	e0c70295 	smull	r0, r7, r5, r2
    b87c:	e0c60495 	smull	r0, r6, r5, r4
    b880:	e0c50b95 	smull	r0, r5, r5, fp
    b884:	e1a00fcb 	asr	r0, fp, #31
    b888:	e0605145 	rsb	r5, r0, r5, asr #2
    b88c:	e59f00ac 	ldr	r0, [pc, #172]	; b940 <mcp7941x_set_date_time+0x120>
    b890:	e24dd014 	sub	sp, sp, #20
    b894:	e5d00000 	ldrb	r0, [r0]
    b898:	e1a09129 	lsr	r9, r9, #2
    b89c:	e58d0004 	str	r0, [sp, #4]
    b8a0:	e1a08128 	lsr	r8, r8, #2
    b8a4:	e0890109 	add	r0, r9, r9, lsl #2
    b8a8:	e1a07127 	lsr	r7, r7, #2
    b8ac:	e04cc080 	sub	ip, ip, r0, lsl #1
    b8b0:	e0880108 	add	r0, r8, r8, lsl #2
    b8b4:	e1a06126 	lsr	r6, r6, #2
    b8b8:	e0411080 	sub	r1, r1, r0, lsl #1
    b8bc:	e0870107 	add	r0, r7, r7, lsl #2
    b8c0:	e59ee018 	ldr	lr, [lr, #24]
    b8c4:	e0422080 	sub	r2, r2, r0, lsl #1
    b8c8:	e0860106 	add	r0, r6, r6, lsl #2
    b8cc:	e0444080 	sub	r4, r4, r0, lsl #1
    b8d0:	e0850105 	add	r0, r5, r5, lsl #2
    b8d4:	e5cd3009 	strb	r3, [sp, #9]
    b8d8:	e08cc209 	add	ip, ip, r9, lsl #4
    b8dc:	e59d3004 	ldr	r3, [sp, #4]
    b8e0:	e59f905c 	ldr	r9, [pc, #92]	; b944 <mcp7941x_set_date_time+0x124>
    b8e4:	e04b0080 	sub	r0, fp, r0, lsl #1
    b8e8:	e20ee007 	and	lr, lr, #7
    b8ec:	e59fb054 	ldr	fp, [pc, #84]	; b948 <mcp7941x_set_date_time+0x128>
    b8f0:	e0811208 	add	r1, r1, r8, lsl #4
    b8f4:	e0822207 	add	r2, r2, r7, lsl #4
    b8f8:	e38ee008 	orr	lr, lr, #8
    b8fc:	e0800205 	add	r0, r0, r5, lsl #4
    b900:	e0844206 	add	r4, r4, r6, lsl #4
    b904:	e5cd100b 	strb	r1, [sp, #11]
    b908:	e5cd000f 	strb	r0, [sp, #15]
    b90c:	e5cdc00a 	strb	ip, [sp, #10]
    b910:	e5cd200d 	strb	r2, [sp, #13]
    b914:	e5cd400e 	strb	r4, [sp, #14]
    b918:	e5cde00c 	strb	lr, [sp, #12]
    b91c:	e5cda008 	strb	sl, [sp, #8]
    b920:	e28d0008 	add	r0, sp, #8
    b924:	e589300c 	str	r3, [r9, #12]
    b928:	e3a01008 	mov	r1, #8
    b92c:	e589b014 	str	fp, [r9, #20]
    b930:	eb00002c 	bl	b9e8 <bcm2835_i2c_write>
    b934:	e28dd014 	add	sp, sp, #20
    b938:	e8bd8ff0 	pop	{r4, r5, r6, r7, r8, r9, sl, fp, pc}
    b93c:	66666667 	strbtvs	r6, [r6], -r7, ror #12
    b940:	0000e7e4 	andeq	lr, r0, r4, ror #15
    b944:	20804000 	addcs	r4, r0, r0
    b948:	000009c4 	andeq	r0, r0, r4, asr #19

0000b94c <bcm2835_gpio_set_pud>:
    b94c:	e92d4038 	push	{r3, r4, r5, lr}
    b950:	e59f4038 	ldr	r4, [pc, #56]	; b990 <bcm2835_gpio_set_pud+0x44>
    b954:	e1a05000 	mov	r5, r0
    b958:	e5841094 	str	r1, [r4, #148]	; 0x94
    b95c:	e3a0000a 	mov	r0, #10
    b960:	e3a01000 	mov	r1, #0
    b964:	eb00026f 	bl	c328 <udelay>
    b968:	e3a03001 	mov	r3, #1
    b96c:	e1a00513 	lsl	r0, r3, r5
    b970:	e5840098 	str	r0, [r4, #152]	; 0x98
    b974:	e3a01000 	mov	r1, #0
    b978:	e3a0000a 	mov	r0, #10
    b97c:	eb000269 	bl	c328 <udelay>
    b980:	e3a03000 	mov	r3, #0
    b984:	e5843094 	str	r3, [r4, #148]	; 0x94
    b988:	e5843098 	str	r3, [r4, #152]	; 0x98
    b98c:	e8bd8038 	pop	{r3, r4, r5, pc}
    b990:	20200000 	eorcs	r0, r0, r0

0000b994 <bcm2835_i2c_begin>:
    b994:	e59f2028 	ldr	r2, [pc, #40]	; b9c4 <bcm2835_i2c_begin+0x30>
    b998:	e59f1028 	ldr	r1, [pc, #40]	; b9c8 <bcm2835_i2c_begin+0x34>
    b99c:	e5923000 	ldr	r3, [r2]
    b9a0:	e59f0024 	ldr	r0, [pc, #36]	; b9cc <bcm2835_i2c_begin+0x38>
    b9a4:	e3c33d3f 	bic	r3, r3, #4032	; 0xfc0
    b9a8:	e5823000 	str	r3, [r2]
    b9ac:	e5923000 	ldr	r3, [r2]
    b9b0:	e3c33d3f 	bic	r3, r3, #4032	; 0xfc0
    b9b4:	e3833c09 	orr	r3, r3, #2304	; 0x900
    b9b8:	e5823000 	str	r3, [r2]
    b9bc:	e5810014 	str	r0, [r1, #20]
    b9c0:	e12fff1e 	bx	lr
    b9c4:	20200000 	eorcs	r0, r0, r0
    b9c8:	20804000 	addcs	r4, r0, r0
    b9cc:	000009c4 	andeq	r0, r0, r4, asr #19

0000b9d0 <bcm2835_i2c_end>:
    b9d0:	e59f200c 	ldr	r2, [pc, #12]	; b9e4 <bcm2835_i2c_end+0x14>
    b9d4:	e5923000 	ldr	r3, [r2]
    b9d8:	e3c33d3f 	bic	r3, r3, #4032	; 0xfc0
    b9dc:	e5823000 	str	r3, [r2]
    b9e0:	e12fff1e 	bx	lr
    b9e4:	20200000 	eorcs	r0, r0, r0

0000b9e8 <bcm2835_i2c_write>:
    b9e8:	e3a02020 	mov	r2, #32
    b9ec:	e92d4010 	push	{r4, lr}
    b9f0:	e59f3104 	ldr	r3, [pc, #260]	; bafc <bcm2835_i2c_write+0x114>
    b9f4:	e59f4104 	ldr	r4, [pc, #260]	; bb00 <bcm2835_i2c_write+0x118>
    b9f8:	e3510000 	cmp	r1, #0
    b9fc:	e5842000 	str	r2, [r4]
    ba00:	e5843004 	str	r3, [r4, #4]
    ba04:	e5841008 	str	r1, [r4, #8]
    ba08:	0a000039 	beq	baf4 <bcm2835_i2c_write+0x10c>
    ba0c:	e3a03000 	mov	r3, #0
    ba10:	e240c001 	sub	ip, r0, #1
    ba14:	e2511001 	subs	r1, r1, #1
    ba18:	13a02001 	movne	r2, #1
    ba1c:	03a02000 	moveq	r2, #0
    ba20:	e2833001 	add	r3, r3, #1
    ba24:	e353000f 	cmp	r3, #15
    ba28:	83a02000 	movhi	r2, #0
    ba2c:	92022001 	andls	r2, r2, #1
    ba30:	e5fce001 	ldrb	lr, [ip, #1]!
    ba34:	e3520000 	cmp	r2, #0
    ba38:	e584e010 	str	lr, [r4, #16]
    ba3c:	1afffff4 	bne	ba14 <bcm2835_i2c_write+0x2c>
    ba40:	e59fc0b8 	ldr	ip, [pc, #184]	; bb00 <bcm2835_i2c_write+0x118>
    ba44:	e59fe0b8 	ldr	lr, [pc, #184]	; bb04 <bcm2835_i2c_write+0x11c>
    ba48:	e1a0200c 	mov	r2, ip
    ba4c:	e58ce000 	str	lr, [ip]
    ba50:	e592c004 	ldr	ip, [r2, #4]
    ba54:	e59fe0a4 	ldr	lr, [pc, #164]	; bb00 <bcm2835_i2c_write+0x118>
    ba58:	e31c0002 	tst	ip, #2
    ba5c:	1a000011 	bne	baa8 <bcm2835_i2c_write+0xc0>
    ba60:	e3510000 	cmp	r1, #0
    ba64:	0afffff9 	beq	ba50 <bcm2835_i2c_write+0x68>
    ba68:	e592c004 	ldr	ip, [r2, #4]
    ba6c:	e31c0010 	tst	ip, #16
    ba70:	0afffff6 	beq	ba50 <bcm2835_i2c_write+0x68>
    ba74:	e080c003 	add	ip, r0, r3
    ba78:	e4dce001 	ldrb	lr, [ip], #1
    ba7c:	e2511001 	subs	r1, r1, #1
    ba80:	e2833001 	add	r3, r3, #1
    ba84:	e582e010 	str	lr, [r2, #16]
    ba88:	0afffff0 	beq	ba50 <bcm2835_i2c_write+0x68>
    ba8c:	e592e004 	ldr	lr, [r2, #4]
    ba90:	e31e0010 	tst	lr, #16
    ba94:	1afffff7 	bne	ba78 <bcm2835_i2c_write+0x90>
    ba98:	e592c004 	ldr	ip, [r2, #4]
    ba9c:	e59fe05c 	ldr	lr, [pc, #92]	; bb00 <bcm2835_i2c_write+0x118>
    baa0:	e31c0002 	tst	ip, #2
    baa4:	0affffed 	beq	ba60 <bcm2835_i2c_write+0x78>
    baa8:	e59e3004 	ldr	r3, [lr, #4]
    baac:	e3130c01 	tst	r3, #256	; 0x100
    bab0:	1a00000b 	bne	bae4 <bcm2835_i2c_write+0xfc>
    bab4:	e59e3004 	ldr	r3, [lr, #4]
    bab8:	e3130c02 	tst	r3, #512	; 0x200
    babc:	13a00002 	movne	r0, #2
    bac0:	0a000003 	beq	bad4 <bcm2835_i2c_write+0xec>
    bac4:	e3a02002 	mov	r2, #2
    bac8:	e59f3030 	ldr	r3, [pc, #48]	; bb00 <bcm2835_i2c_write+0x118>
    bacc:	e5832000 	str	r2, [r3]
    bad0:	e8bd8010 	pop	{r4, pc}
    bad4:	e3510000 	cmp	r1, #0
    bad8:	13a00004 	movne	r0, #4
    badc:	03a00000 	moveq	r0, #0
    bae0:	eafffff7 	b	bac4 <bcm2835_i2c_write+0xdc>
    bae4:	e3a03c01 	mov	r3, #256	; 0x100
    bae8:	e3a00001 	mov	r0, #1
    baec:	e58e3004 	str	r3, [lr, #4]
    baf0:	eafffff3 	b	bac4 <bcm2835_i2c_write+0xdc>
    baf4:	e1a03001 	mov	r3, r1
    baf8:	eaffffd0 	b	ba40 <bcm2835_i2c_write+0x58>
    bafc:	00000302 	andeq	r0, r0, r2, lsl #6
    bb00:	20804000 	addcs	r4, r0, r0
    bb04:	00008080 	andeq	r8, r0, r0, lsl #1

0000bb08 <bcm2835_i2c_read>:
    bb08:	e3a03020 	mov	r3, #32
    bb0c:	e59fc100 	ldr	ip, [pc, #256]	; bc14 <bcm2835_i2c_read+0x10c>
    bb10:	e59f2100 	ldr	r2, [pc, #256]	; bc18 <bcm2835_i2c_read+0x110>
    bb14:	e52de004 	push	{lr}		; (str lr, [sp, #-4]!)
    bb18:	e58c3000 	str	r3, [ip]
    bb1c:	e58c2004 	str	r2, [ip, #4]
    bb20:	e1a03001 	mov	r3, r1
    bb24:	e58c1008 	str	r1, [ip, #8]
    bb28:	e1a0200c 	mov	r2, ip
    bb2c:	e3a01000 	mov	r1, #0
    bb30:	e59fe0e4 	ldr	lr, [pc, #228]	; bc1c <bcm2835_i2c_read+0x114>
    bb34:	e58ce000 	str	lr, [ip]
    bb38:	e592e004 	ldr	lr, [r2, #4]
    bb3c:	e59fc0d0 	ldr	ip, [pc, #208]	; bc14 <bcm2835_i2c_read+0x10c>
    bb40:	e31e0002 	tst	lr, #2
    bb44:	1a00000e 	bne	bb84 <bcm2835_i2c_read+0x7c>
    bb48:	e592c004 	ldr	ip, [r2, #4]
    bb4c:	e31c0020 	tst	ip, #32
    bb50:	0afffff8 	beq	bb38 <bcm2835_i2c_read+0x30>
    bb54:	e080c001 	add	ip, r0, r1
    bb58:	e592e010 	ldr	lr, [r2, #16]
    bb5c:	e2811001 	add	r1, r1, #1
    bb60:	e4cce001 	strb	lr, [ip], #1
    bb64:	e592e004 	ldr	lr, [r2, #4]
    bb68:	e2433001 	sub	r3, r3, #1
    bb6c:	e31e0020 	tst	lr, #32
    bb70:	1afffff8 	bne	bb58 <bcm2835_i2c_read+0x50>
    bb74:	e592e004 	ldr	lr, [r2, #4]
    bb78:	e59fc094 	ldr	ip, [pc, #148]	; bc14 <bcm2835_i2c_read+0x10c>
    bb7c:	e31e0002 	tst	lr, #2
    bb80:	0afffff0 	beq	bb48 <bcm2835_i2c_read+0x40>
    bb84:	e3530000 	cmp	r3, #0
    bb88:	0a00000c 	beq	bbc0 <bcm2835_i2c_read+0xb8>
    bb8c:	e59c2004 	ldr	r2, [ip, #4]
    bb90:	e3120020 	tst	r2, #32
    bb94:	0a00000a 	beq	bbc4 <bcm2835_i2c_read+0xbc>
    bb98:	e1a0200c 	mov	r2, ip
    bb9c:	e0801001 	add	r1, r0, r1
    bba0:	ea000002 	b	bbb0 <bcm2835_i2c_read+0xa8>
    bba4:	e5920004 	ldr	r0, [r2, #4]
    bba8:	e3100020 	tst	r0, #32
    bbac:	0a000004 	beq	bbc4 <bcm2835_i2c_read+0xbc>
    bbb0:	e5920010 	ldr	r0, [r2, #16]
    bbb4:	e2533001 	subs	r3, r3, #1
    bbb8:	e4c10001 	strb	r0, [r1], #1
    bbbc:	1afffff8 	bne	bba4 <bcm2835_i2c_read+0x9c>
    bbc0:	e3a03000 	mov	r3, #0
    bbc4:	e59f2048 	ldr	r2, [pc, #72]	; bc14 <bcm2835_i2c_read+0x10c>
    bbc8:	e5921004 	ldr	r1, [r2, #4]
    bbcc:	e3110c01 	tst	r1, #256	; 0x100
    bbd0:	1a00000b 	bne	bc04 <bcm2835_i2c_read+0xfc>
    bbd4:	e5922004 	ldr	r2, [r2, #4]
    bbd8:	e3120c02 	tst	r2, #512	; 0x200
    bbdc:	13a00002 	movne	r0, #2
    bbe0:	0a000003 	beq	bbf4 <bcm2835_i2c_read+0xec>
    bbe4:	e3a02002 	mov	r2, #2
    bbe8:	e59f3024 	ldr	r3, [pc, #36]	; bc14 <bcm2835_i2c_read+0x10c>
    bbec:	e5832000 	str	r2, [r3]
    bbf0:	e49df004 	pop	{pc}		; (ldr pc, [sp], #4)
    bbf4:	e3530000 	cmp	r3, #0
    bbf8:	13a00004 	movne	r0, #4
    bbfc:	03a00000 	moveq	r0, #0
    bc00:	eafffff7 	b	bbe4 <bcm2835_i2c_read+0xdc>
    bc04:	e3a03c01 	mov	r3, #256	; 0x100
    bc08:	e3a00001 	mov	r0, #1
    bc0c:	e5823004 	str	r3, [r2, #4]
    bc10:	eafffff3 	b	bbe4 <bcm2835_i2c_read+0xdc>
    bc14:	20804000 	addcs	r4, r0, r0
    bc18:	00000302 	andeq	r0, r0, r2, lsl #6
    bc1c:	00008081 	andeq	r8, r0, r1, lsl #1

0000bc20 <led_set>:
    bc20:	e3a02801 	mov	r2, #65536	; 0x10000
    bc24:	e59f300c 	ldr	r3, [pc, #12]	; bc38 <led_set+0x18>
    bc28:	e3500000 	cmp	r0, #0
    bc2c:	1583201c 	strne	r2, [r3, #28]
    bc30:	05832028 	streq	r2, [r3, #40]	; 0x28
    bc34:	e12fff1e 	bx	lr
    bc38:	20200000 	eorcs	r0, r0, r0

0000bc3c <led_init>:
    bc3c:	e59f2010 	ldr	r2, [pc, #16]	; bc54 <led_init+0x18>
    bc40:	e5923004 	ldr	r3, [r2, #4]
    bc44:	e3c33707 	bic	r3, r3, #1835008	; 0x1c0000
    bc48:	e3833701 	orr	r3, r3, #262144	; 0x40000
    bc4c:	e5823004 	str	r3, [r2, #4]
    bc50:	e12fff1e 	bx	lr
    bc54:	20200000 	eorcs	r0, r0, r0

0000bc58 <led_rpiplus_set>:
    bc58:	e3a02902 	mov	r2, #32768	; 0x8000
    bc5c:	e59f300c 	ldr	r3, [pc, #12]	; bc70 <led_rpiplus_set+0x18>
    bc60:	e3500000 	cmp	r0, #0
    bc64:	15832020 	strne	r2, [r3, #32]
    bc68:	0583202c 	streq	r2, [r3, #44]	; 0x2c
    bc6c:	e12fff1e 	bx	lr
    bc70:	20200000 	eorcs	r0, r0, r0

0000bc74 <led_rpiplus_init>:
    bc74:	e59f2010 	ldr	r2, [pc, #16]	; bc8c <led_rpiplus_init+0x18>
    bc78:	e5923010 	ldr	r3, [r2, #16]
    bc7c:	e3c3360e 	bic	r3, r3, #14680064	; 0xe00000
    bc80:	e3833602 	orr	r3, r3, #2097152	; 0x200000
    bc84:	e5823010 	str	r3, [r2, #16]
    bc88:	e12fff1e 	bx	lr
    bc8c:	20200000 	eorcs	r0, r0, r0

0000bc90 <bcm2835_mailbox_read>:
    bc90:	e59f1024 	ldr	r1, [pc, #36]	; bcbc <bcm2835_mailbox_read+0x2c>
    bc94:	e5913098 	ldr	r3, [r1, #152]	; 0x98
    bc98:	e59f201c 	ldr	r2, [pc, #28]	; bcbc <bcm2835_mailbox_read+0x2c>
    bc9c:	e3130101 	tst	r3, #1073741824	; 0x40000000
    bca0:	1afffffb 	bne	bc94 <bcm2835_mailbox_read+0x4>
    bca4:	e5923080 	ldr	r3, [r2, #128]	; 0x80
    bca8:	e203200f 	and	r2, r3, #15
    bcac:	e1520000 	cmp	r2, r0
    bcb0:	1afffff7 	bne	bc94 <bcm2835_mailbox_read+0x4>
    bcb4:	e3c3000f 	bic	r0, r3, #15
    bcb8:	e12fff1e 	bx	lr
    bcbc:	2000b800 	andcs	fp, r0, r0, lsl #16

0000bcc0 <bcm2835_mailbox_write>:
    bcc0:	e59fc020 	ldr	ip, [pc, #32]	; bce8 <bcm2835_mailbox_write+0x28>
    bcc4:	e59c3098 	ldr	r3, [ip, #152]	; 0x98
    bcc8:	e59f2018 	ldr	r2, [pc, #24]	; bce8 <bcm2835_mailbox_write+0x28>
    bccc:	e3530000 	cmp	r3, #0
    bcd0:	bafffffb 	blt	bcc4 <bcm2835_mailbox_write+0x4>
    bcd4:	e200000f 	and	r0, r0, #15
    bcd8:	e3c1100f 	bic	r1, r1, #15
    bcdc:	e1801001 	orr	r1, r0, r1
    bce0:	e58210a0 	str	r1, [r2, #160]	; 0xa0
    bce4:	e12fff1e 	bx	lr
    bce8:	2000b800 	andcs	fp, r0, r0, lsl #16

0000bcec <bcm2835_vc_get_clock_rate>:
    bcec:	e92d4878 	push	{r3, r4, r5, r6, fp, lr}
    bcf0:	e3a02004 	mov	r2, #4
    bcf4:	e3a03000 	mov	r3, #0
    bcf8:	e3a05008 	mov	r5, #8
    bcfc:	e3a0e020 	mov	lr, #32
    bd00:	e1a06000 	mov	r6, r0
    bd04:	e28db014 	add	fp, sp, #20
    bd08:	e24dd030 	sub	sp, sp, #48	; 0x30
    bd0c:	e59fc068 	ldr	ip, [pc, #104]	; bd7c <bcm2835_vc_get_clock_rate+0x90>
    bd10:	e28d400f 	add	r4, sp, #15
    bd14:	e3c4400f 	bic	r4, r4, #15
    bd18:	e5843004 	str	r3, [r4, #4]
    bd1c:	e5843018 	str	r3, [r4, #24]
    bd20:	e584301c 	str	r3, [r4, #28]
    bd24:	e1a01004 	mov	r1, r4
    bd28:	e1a00005 	mov	r0, r5
    bd2c:	e584e000 	str	lr, [r4]
    bd30:	e584c008 	str	ip, [r4, #8]
    bd34:	e5842010 	str	r2, [r4, #16]
    bd38:	e5846014 	str	r6, [r4, #20]
    bd3c:	e584500c 	str	r5, [r4, #12]
    bd40:	ebffffde 	bl	bcc0 <bcm2835_mailbox_write>
    bd44:	e1a00005 	mov	r0, r5
    bd48:	ebffffd0 	bl	bc90 <bcm2835_mailbox_read>
    bd4c:	e5943004 	ldr	r3, [r4, #4]
    bd50:	e3530102 	cmp	r3, #-2147483648	; 0x80000000
    bd54:	1a000005 	bne	bd70 <bcm2835_vc_get_clock_rate+0x84>
    bd58:	e5943014 	ldr	r3, [r4, #20]
    bd5c:	e1560003 	cmp	r6, r3
    bd60:	1a000002 	bne	bd70 <bcm2835_vc_get_clock_rate+0x84>
    bd64:	e5940018 	ldr	r0, [r4, #24]
    bd68:	e24bd014 	sub	sp, fp, #20
    bd6c:	e8bd8878 	pop	{r3, r4, r5, r6, fp, pc}
    bd70:	e3e00000 	mvn	r0, #0
    bd74:	e24bd014 	sub	sp, fp, #20
    bd78:	e8bd8878 	pop	{r3, r4, r5, r6, fp, pc}
    bd7c:	00030002 	andeq	r0, r3, r2

0000bd80 <bcm2835_vc_set_clock_rate>:
    bd80:	e92d4878 	push	{r3, r4, r5, r6, fp, lr}
    bd84:	e3a0c020 	mov	ip, #32
    bd88:	e3a03000 	mov	r3, #0
    bd8c:	e3a05008 	mov	r5, #8
    bd90:	e1a06000 	mov	r6, r0
    bd94:	e28db014 	add	fp, sp, #20
    bd98:	e24dd030 	sub	sp, sp, #48	; 0x30
    bd9c:	e59f2068 	ldr	r2, [pc, #104]	; be0c <bcm2835_vc_set_clock_rate+0x8c>
    bda0:	e28d400f 	add	r4, sp, #15
    bda4:	e3c4400f 	bic	r4, r4, #15
    bda8:	e5843004 	str	r3, [r4, #4]
    bdac:	e584301c 	str	r3, [r4, #28]
    bdb0:	e5841018 	str	r1, [r4, #24]
    bdb4:	e1a00005 	mov	r0, r5
    bdb8:	e1a01004 	mov	r1, r4
    bdbc:	e584c000 	str	ip, [r4]
    bdc0:	e5842008 	str	r2, [r4, #8]
    bdc4:	e5846014 	str	r6, [r4, #20]
    bdc8:	e584500c 	str	r5, [r4, #12]
    bdcc:	e5845010 	str	r5, [r4, #16]
    bdd0:	ebffffba 	bl	bcc0 <bcm2835_mailbox_write>
    bdd4:	e1a00005 	mov	r0, r5
    bdd8:	ebffffac 	bl	bc90 <bcm2835_mailbox_read>
    bddc:	e5943004 	ldr	r3, [r4, #4]
    bde0:	e3530102 	cmp	r3, #-2147483648	; 0x80000000
    bde4:	1a000005 	bne	be00 <bcm2835_vc_set_clock_rate+0x80>
    bde8:	e5943014 	ldr	r3, [r4, #20]
    bdec:	e1560003 	cmp	r6, r3
    bdf0:	1a000002 	bne	be00 <bcm2835_vc_set_clock_rate+0x80>
    bdf4:	e5940018 	ldr	r0, [r4, #24]
    bdf8:	e24bd014 	sub	sp, fp, #20
    bdfc:	e8bd8878 	pop	{r3, r4, r5, r6, fp, pc}
    be00:	e3e00000 	mvn	r0, #0
    be04:	e24bd014 	sub	sp, fp, #20
    be08:	e8bd8878 	pop	{r3, r4, r5, r6, fp, pc}
    be0c:	00038002 	andeq	r8, r3, r2

0000be10 <bcm2835_vc_get_temperature>:
    be10:	e92d4830 	push	{r4, r5, fp, lr}
    be14:	e3a03000 	mov	r3, #0
    be18:	e3a05008 	mov	r5, #8
    be1c:	e3a0e020 	mov	lr, #32
    be20:	e3a02004 	mov	r2, #4
    be24:	e28db00c 	add	fp, sp, #12
    be28:	e24dd030 	sub	sp, sp, #48	; 0x30
    be2c:	e59fc068 	ldr	ip, [pc, #104]	; be9c <bcm2835_vc_get_temperature+0x8c>
    be30:	e28d400f 	add	r4, sp, #15
    be34:	e3c4400f 	bic	r4, r4, #15
    be38:	e5843004 	str	r3, [r4, #4]
    be3c:	e5843014 	str	r3, [r4, #20]
    be40:	e5843018 	str	r3, [r4, #24]
    be44:	e584301c 	str	r3, [r4, #28]
    be48:	e1a01004 	mov	r1, r4
    be4c:	e1a00005 	mov	r0, r5
    be50:	e584e000 	str	lr, [r4]
    be54:	e584c008 	str	ip, [r4, #8]
    be58:	e5842010 	str	r2, [r4, #16]
    be5c:	e584500c 	str	r5, [r4, #12]
    be60:	ebffff96 	bl	bcc0 <bcm2835_mailbox_write>
    be64:	e1a00005 	mov	r0, r5
    be68:	ebffff88 	bl	bc90 <bcm2835_mailbox_read>
    be6c:	e5943004 	ldr	r3, [r4, #4]
    be70:	e3530102 	cmp	r3, #-2147483648	; 0x80000000
    be74:	1a000005 	bne	be90 <bcm2835_vc_get_temperature+0x80>
    be78:	e5943014 	ldr	r3, [r4, #20]
    be7c:	e3530000 	cmp	r3, #0
    be80:	1a000002 	bne	be90 <bcm2835_vc_get_temperature+0x80>
    be84:	e5940018 	ldr	r0, [r4, #24]
    be88:	e24bd00c 	sub	sp, fp, #12
    be8c:	e8bd8830 	pop	{r4, r5, fp, pc}
    be90:	e3e00000 	mvn	r0, #0
    be94:	e24bd00c 	sub	sp, fp, #12
    be98:	e8bd8830 	pop	{r4, r5, fp, pc}
    be9c:	00030006 	andeq	r0, r3, r6

0000bea0 <bcm2835_vc_get_temperature_max>:
    bea0:	e92d4830 	push	{r4, r5, fp, lr}
    bea4:	e3a03000 	mov	r3, #0
    bea8:	e3a05008 	mov	r5, #8
    beac:	e3a0e020 	mov	lr, #32
    beb0:	e3a02004 	mov	r2, #4
    beb4:	e28db00c 	add	fp, sp, #12
    beb8:	e24dd030 	sub	sp, sp, #48	; 0x30
    bebc:	e59fc068 	ldr	ip, [pc, #104]	; bf2c <bcm2835_vc_get_temperature_max+0x8c>
    bec0:	e28d400f 	add	r4, sp, #15
    bec4:	e3c4400f 	bic	r4, r4, #15
    bec8:	e5843004 	str	r3, [r4, #4]
    becc:	e5843014 	str	r3, [r4, #20]
    bed0:	e5843018 	str	r3, [r4, #24]
    bed4:	e584301c 	str	r3, [r4, #28]
    bed8:	e1a01004 	mov	r1, r4
    bedc:	e1a00005 	mov	r0, r5
    bee0:	e584e000 	str	lr, [r4]
    bee4:	e584c008 	str	ip, [r4, #8]
    bee8:	e5842010 	str	r2, [r4, #16]
    beec:	e584500c 	str	r5, [r4, #12]
    bef0:	ebffff72 	bl	bcc0 <bcm2835_mailbox_write>
    bef4:	e1a00005 	mov	r0, r5
    bef8:	ebffff64 	bl	bc90 <bcm2835_mailbox_read>
    befc:	e5943004 	ldr	r3, [r4, #4]
    bf00:	e3530102 	cmp	r3, #-2147483648	; 0x80000000
    bf04:	1a000005 	bne	bf20 <bcm2835_vc_get_temperature_max+0x80>
    bf08:	e5943014 	ldr	r3, [r4, #20]
    bf0c:	e3530000 	cmp	r3, #0
    bf10:	1a000002 	bne	bf20 <bcm2835_vc_get_temperature_max+0x80>
    bf14:	e5940018 	ldr	r0, [r4, #24]
    bf18:	e24bd00c 	sub	sp, fp, #12
    bf1c:	e8bd8830 	pop	{r4, r5, fp, pc}
    bf20:	e3e00000 	mvn	r0, #0
    bf24:	e24bd00c 	sub	sp, fp, #12
    bf28:	e8bd8830 	pop	{r4, r5, fp, pc}
    bf2c:	0003000a 	andeq	r0, r3, sl

0000bf30 <bcm2835_vc_get_power_state>:
    bf30:	e92d4878 	push	{r3, r4, r5, r6, fp, lr}
    bf34:	e3a02004 	mov	r2, #4
    bf38:	e3a03000 	mov	r3, #0
    bf3c:	e3a05008 	mov	r5, #8
    bf40:	e3a0e020 	mov	lr, #32
    bf44:	e1a06000 	mov	r6, r0
    bf48:	e28db014 	add	fp, sp, #20
    bf4c:	e24dd030 	sub	sp, sp, #48	; 0x30
    bf50:	e59fc06c 	ldr	ip, [pc, #108]	; bfc4 <bcm2835_vc_get_power_state+0x94>
    bf54:	e28d400f 	add	r4, sp, #15
    bf58:	e3c4400f 	bic	r4, r4, #15
    bf5c:	e5843004 	str	r3, [r4, #4]
    bf60:	e5843018 	str	r3, [r4, #24]
    bf64:	e584301c 	str	r3, [r4, #28]
    bf68:	e1a01004 	mov	r1, r4
    bf6c:	e1a00005 	mov	r0, r5
    bf70:	e584e000 	str	lr, [r4]
    bf74:	e584c008 	str	ip, [r4, #8]
    bf78:	e5842010 	str	r2, [r4, #16]
    bf7c:	e5846014 	str	r6, [r4, #20]
    bf80:	e584500c 	str	r5, [r4, #12]
    bf84:	ebffff4d 	bl	bcc0 <bcm2835_mailbox_write>
    bf88:	e1a00005 	mov	r0, r5
    bf8c:	ebffff3f 	bl	bc90 <bcm2835_mailbox_read>
    bf90:	e5943004 	ldr	r3, [r4, #4]
    bf94:	e3530102 	cmp	r3, #-2147483648	; 0x80000000
    bf98:	1a000006 	bne	bfb8 <bcm2835_vc_get_power_state+0x88>
    bf9c:	e5943014 	ldr	r3, [r4, #20]
    bfa0:	e1560003 	cmp	r6, r3
    bfa4:	1a000003 	bne	bfb8 <bcm2835_vc_get_power_state+0x88>
    bfa8:	e5940018 	ldr	r0, [r4, #24]
    bfac:	e2000003 	and	r0, r0, #3
    bfb0:	e24bd014 	sub	sp, fp, #20
    bfb4:	e8bd8878 	pop	{r3, r4, r5, r6, fp, pc}
    bfb8:	e3a00003 	mov	r0, #3
    bfbc:	e24bd014 	sub	sp, fp, #20
    bfc0:	e8bd8878 	pop	{r3, r4, r5, r6, fp, pc}
    bfc4:	00020001 	andeq	r0, r2, r1

0000bfc8 <bcm2835_vc_set_power_state>:
    bfc8:	e92d4878 	push	{r3, r4, r5, r6, fp, lr}
    bfcc:	e3a0c020 	mov	ip, #32
    bfd0:	e3a03000 	mov	r3, #0
    bfd4:	e3a05008 	mov	r5, #8
    bfd8:	e1a06000 	mov	r6, r0
    bfdc:	e28db014 	add	fp, sp, #20
    bfe0:	e24dd030 	sub	sp, sp, #48	; 0x30
    bfe4:	e59f2068 	ldr	r2, [pc, #104]	; c054 <bcm2835_vc_set_power_state+0x8c>
    bfe8:	e28d400f 	add	r4, sp, #15
    bfec:	e3c4400f 	bic	r4, r4, #15
    bff0:	e5843004 	str	r3, [r4, #4]
    bff4:	e584301c 	str	r3, [r4, #28]
    bff8:	e5841018 	str	r1, [r4, #24]
    bffc:	e1a00005 	mov	r0, r5
    c000:	e1a01004 	mov	r1, r4
    c004:	e584c000 	str	ip, [r4]
    c008:	e5842008 	str	r2, [r4, #8]
    c00c:	e5846014 	str	r6, [r4, #20]
    c010:	e584500c 	str	r5, [r4, #12]
    c014:	e5845010 	str	r5, [r4, #16]
    c018:	ebffff28 	bl	bcc0 <bcm2835_mailbox_write>
    c01c:	e1a00005 	mov	r0, r5
    c020:	ebffff1a 	bl	bc90 <bcm2835_mailbox_read>
    c024:	e5943004 	ldr	r3, [r4, #4]
    c028:	e3530102 	cmp	r3, #-2147483648	; 0x80000000
    c02c:	1a000005 	bne	c048 <bcm2835_vc_set_power_state+0x80>
    c030:	e5943014 	ldr	r3, [r4, #20]
    c034:	e1560003 	cmp	r6, r3
    c038:	1a000002 	bne	c048 <bcm2835_vc_set_power_state+0x80>
    c03c:	e5940018 	ldr	r0, [r4, #24]
    c040:	e24bd014 	sub	sp, fp, #20
    c044:	e8bd8878 	pop	{r3, r4, r5, r6, fp, pc}
    c048:	e3e00000 	mvn	r0, #0
    c04c:	e24bd014 	sub	sp, fp, #20
    c050:	e8bd8878 	pop	{r3, r4, r5, r6, fp, pc}
    c054:	00028001 	andeq	r8, r2, r1

0000c058 <bcm2835_vc_get_board_mac_address>:
    c058:	e92d4878 	push	{r3, r4, r5, r6, fp, lr}
    c05c:	e3a0c020 	mov	ip, #32
    c060:	e3a03006 	mov	r3, #6
    c064:	e3a05000 	mov	r5, #0
    c068:	e28db014 	add	fp, sp, #20
    c06c:	e24dd030 	sub	sp, sp, #48	; 0x30
    c070:	e59f20a0 	ldr	r2, [pc, #160]	; c118 <bcm2835_vc_get_board_mac_address+0xc0>
    c074:	e28d400f 	add	r4, sp, #15
    c078:	e3c4400f 	bic	r4, r4, #15
    c07c:	e584300c 	str	r3, [r4, #12]
    c080:	e1a01004 	mov	r1, r4
    c084:	e584c000 	str	ip, [r4]
    c088:	e5842008 	str	r2, [r4, #8]
    c08c:	e1a06000 	mov	r6, r0
    c090:	e5845004 	str	r5, [r4, #4]
    c094:	e3a00008 	mov	r0, #8
    c098:	e5845010 	str	r5, [r4, #16]
    c09c:	e5c45014 	strb	r5, [r4, #20]
    c0a0:	e584501c 	str	r5, [r4, #28]
    c0a4:	ebffff05 	bl	bcc0 <bcm2835_mailbox_write>
    c0a8:	e3a00008 	mov	r0, #8
    c0ac:	ebfffef7 	bl	bc90 <bcm2835_mailbox_read>
    c0b0:	e5943004 	ldr	r3, [r4, #4]
    c0b4:	e3530102 	cmp	r3, #-2147483648	; 0x80000000
    c0b8:	1a00000e 	bne	c0f8 <bcm2835_vc_get_board_mac_address+0xa0>
    c0bc:	e5d4e014 	ldrb	lr, [r4, #20]
    c0c0:	e5d4c015 	ldrb	ip, [r4, #21]
    c0c4:	e5d40016 	ldrb	r0, [r4, #22]
    c0c8:	e5d41017 	ldrb	r1, [r4, #23]
    c0cc:	e5d42018 	ldrb	r2, [r4, #24]
    c0d0:	e5d43019 	ldrb	r3, [r4, #25]
    c0d4:	e5c6e000 	strb	lr, [r6]
    c0d8:	e5c6c001 	strb	ip, [r6, #1]
    c0dc:	e5c60002 	strb	r0, [r6, #2]
    c0e0:	e5c61003 	strb	r1, [r6, #3]
    c0e4:	e5c62004 	strb	r2, [r6, #4]
    c0e8:	e5c63005 	strb	r3, [r6, #5]
    c0ec:	e1a00005 	mov	r0, r5
    c0f0:	e24bd014 	sub	sp, fp, #20
    c0f4:	e8bd8878 	pop	{r3, r4, r5, r6, fp, pc}
    c0f8:	e5c65000 	strb	r5, [r6]
    c0fc:	e5c65001 	strb	r5, [r6, #1]
    c100:	e5c65002 	strb	r5, [r6, #2]
    c104:	e5c65003 	strb	r5, [r6, #3]
    c108:	e5c65004 	strb	r5, [r6, #4]
    c10c:	e5c65005 	strb	r5, [r6, #5]
    c110:	e3e05000 	mvn	r5, #0
    c114:	eafffff4 	b	c0ec <bcm2835_vc_get_board_mac_address+0x94>
    c118:	00010003 	andeq	r0, r1, r3

0000c11c <bcm2835_vc_get_get_firmware_revision>:
    c11c:	e92d4818 	push	{r3, r4, fp, lr}
    c120:	e3a0c001 	mov	ip, #1
    c124:	e3a03000 	mov	r3, #0
    c128:	e3a0e01c 	mov	lr, #28
    c12c:	e3a02004 	mov	r2, #4
    c130:	e28db00c 	add	fp, sp, #12
    c134:	e24dd030 	sub	sp, sp, #48	; 0x30
    c138:	e28d400f 	add	r4, sp, #15
    c13c:	e3c4400f 	bic	r4, r4, #15
    c140:	e5843004 	str	r3, [r4, #4]
    c144:	e5843010 	str	r3, [r4, #16]
    c148:	e5843014 	str	r3, [r4, #20]
    c14c:	e5843018 	str	r3, [r4, #24]
    c150:	e1a01004 	mov	r1, r4
    c154:	e584e000 	str	lr, [r4]
    c158:	e584c008 	str	ip, [r4, #8]
    c15c:	e584200c 	str	r2, [r4, #12]
    c160:	e3a00008 	mov	r0, #8
    c164:	ebfffed5 	bl	bcc0 <bcm2835_mailbox_write>
    c168:	e3a00008 	mov	r0, #8
    c16c:	ebfffec7 	bl	bc90 <bcm2835_mailbox_read>
    c170:	e5943004 	ldr	r3, [r4, #4]
    c174:	e3530102 	cmp	r3, #-2147483648	; 0x80000000
    c178:	13e00000 	mvnne	r0, #0
    c17c:	05940014 	ldreq	r0, [r4, #20]
    c180:	e24bd00c 	sub	sp, fp, #12
    c184:	e8bd8818 	pop	{r3, r4, fp, pc}

0000c188 <bcm2835_vc_get_get_board_model>:
    c188:	e92d4818 	push	{r3, r4, fp, lr}
    c18c:	e3a02004 	mov	r2, #4
    c190:	e3a03000 	mov	r3, #0
    c194:	e3a0e01c 	mov	lr, #28
    c198:	e28db00c 	add	fp, sp, #12
    c19c:	e24dd030 	sub	sp, sp, #48	; 0x30
    c1a0:	e59fc04c 	ldr	ip, [pc, #76]	; c1f4 <bcm2835_vc_get_get_board_model+0x6c>
    c1a4:	e28d400f 	add	r4, sp, #15
    c1a8:	e3c4400f 	bic	r4, r4, #15
    c1ac:	e5843004 	str	r3, [r4, #4]
    c1b0:	e5843010 	str	r3, [r4, #16]
    c1b4:	e5843014 	str	r3, [r4, #20]
    c1b8:	e5843018 	str	r3, [r4, #24]
    c1bc:	e1a01004 	mov	r1, r4
    c1c0:	e584e000 	str	lr, [r4]
    c1c4:	e584c008 	str	ip, [r4, #8]
    c1c8:	e584200c 	str	r2, [r4, #12]
    c1cc:	e3a00008 	mov	r0, #8
    c1d0:	ebfffeba 	bl	bcc0 <bcm2835_mailbox_write>
    c1d4:	e3a00008 	mov	r0, #8
    c1d8:	ebfffeac 	bl	bc90 <bcm2835_mailbox_read>
    c1dc:	e5943004 	ldr	r3, [r4, #4]
    c1e0:	e3530102 	cmp	r3, #-2147483648	; 0x80000000
    c1e4:	13e00000 	mvnne	r0, #0
    c1e8:	05940014 	ldreq	r0, [r4, #20]
    c1ec:	e24bd00c 	sub	sp, fp, #12
    c1f0:	e8bd8818 	pop	{r3, r4, fp, pc}
    c1f4:	00010001 	andeq	r0, r1, r1

0000c1f8 <bcm2835_vc_get_get_board_revision>:
    c1f8:	e92d4818 	push	{r3, r4, fp, lr}
    c1fc:	e3a02004 	mov	r2, #4
    c200:	e3a03000 	mov	r3, #0
    c204:	e3a0e01c 	mov	lr, #28
    c208:	e28db00c 	add	fp, sp, #12
    c20c:	e24dd030 	sub	sp, sp, #48	; 0x30
    c210:	e59fc04c 	ldr	ip, [pc, #76]	; c264 <bcm2835_vc_get_get_board_revision+0x6c>
    c214:	e28d400f 	add	r4, sp, #15
    c218:	e3c4400f 	bic	r4, r4, #15
    c21c:	e5843004 	str	r3, [r4, #4]
    c220:	e5843010 	str	r3, [r4, #16]
    c224:	e5843014 	str	r3, [r4, #20]
    c228:	e5843018 	str	r3, [r4, #24]
    c22c:	e1a01004 	mov	r1, r4
    c230:	e584e000 	str	lr, [r4]
    c234:	e584c008 	str	ip, [r4, #8]
    c238:	e584200c 	str	r2, [r4, #12]
    c23c:	e3a00008 	mov	r0, #8
    c240:	ebfffe9e 	bl	bcc0 <bcm2835_mailbox_write>
    c244:	e3a00008 	mov	r0, #8
    c248:	ebfffe90 	bl	bc90 <bcm2835_mailbox_read>
    c24c:	e5943004 	ldr	r3, [r4, #4]
    c250:	e3530102 	cmp	r3, #-2147483648	; 0x80000000
    c254:	13e00000 	mvnne	r0, #0
    c258:	05940014 	ldreq	r0, [r4, #20]
    c25c:	e24bd00c 	sub	sp, fp, #12
    c260:	e8bd8818 	pop	{r3, r4, fp, pc}
    c264:	00010002 	andeq	r0, r1, r2

0000c268 <watchdog_stop>:
    c268:	e59f3008 	ldr	r3, [pc, #8]	; c278 <watchdog_stop+0x10>
    c26c:	e59f2008 	ldr	r2, [pc, #8]	; c27c <watchdog_stop+0x14>
    c270:	e583201c 	str	r2, [r3, #28]
    c274:	e12fff1e 	bx	lr
    c278:	20100000 	andscs	r0, r0, r0
    c27c:	5a000102 	bpl	c68c <localtime_r+0x318>

0000c280 <watchdog_init>:
    c280:	e59f2020 	ldr	r2, [pc, #32]	; c2a8 <watchdog_init+0x28>
    c284:	e59f3020 	ldr	r3, [pc, #32]	; c2ac <watchdog_init+0x2c>
    c288:	e5823024 	str	r3, [r2, #36]	; 0x24
    c28c:	e592301c 	ldr	r3, [r2, #28]
    c290:	e3c3345a 	bic	r3, r3, #1509949440	; 0x5a000000
    c294:	e3c33030 	bic	r3, r3, #48	; 0x30
    c298:	e383345a 	orr	r3, r3, #1509949440	; 0x5a000000
    c29c:	e3833020 	orr	r3, r3, #32
    c2a0:	e582301c 	str	r3, [r2, #28]
    c2a4:	e12fff1e 	bx	lr
    c2a8:	20100000 	andscs	r0, r0, r0
    c2ac:	5a00ffff 	bpl	4c2b0 <__sys_stack_top+0x39980>

0000c2b0 <watchdog_feed>:
    c2b0:	e59f2020 	ldr	r2, [pc, #32]	; c2d8 <watchdog_feed+0x28>
    c2b4:	e59f3020 	ldr	r3, [pc, #32]	; c2dc <watchdog_feed+0x2c>
    c2b8:	e5823024 	str	r3, [r2, #36]	; 0x24
    c2bc:	e592301c 	ldr	r3, [r2, #28]
    c2c0:	e3c3345a 	bic	r3, r3, #1509949440	; 0x5a000000
    c2c4:	e3c33030 	bic	r3, r3, #48	; 0x30
    c2c8:	e383345a 	orr	r3, r3, #1509949440	; 0x5a000000
    c2cc:	e3833020 	orr	r3, r3, #32
    c2d0:	e582301c 	str	r3, [r2, #28]
    c2d4:	e12fff1e 	bx	lr
    c2d8:	20100000 	andscs	r0, r0, r0
    c2dc:	5a00ffff 	bpl	4c2e0 <__sys_stack_top+0x399b0>

0000c2e0 <bcm2835_gpio_fsel>:
    c2e0:	e52de004 	push	{lr}		; (str lr, [sp, #-4]!)
    c2e4:	e1a03000 	mov	r3, r0
    c2e8:	e59f0034 	ldr	r0, [pc, #52]	; c324 <bcm2835_gpio_fsel+0x44>
    c2ec:	e3530009 	cmp	r3, #9
    c2f0:	8243300a 	subhi	r3, r3, #10
    c2f4:	82800004 	addhi	r0, r0, #4
    c2f8:	8afffffb 	bhi	c2ec <bcm2835_gpio_fsel+0xc>
    c2fc:	e0833083 	add	r3, r3, r3, lsl #1
    c300:	e3a02007 	mov	r2, #7
    c304:	e1a02312 	lsl	r2, r2, r3
    c308:	e1a01311 	lsl	r1, r1, r3
    c30c:	e5903000 	ldr	r3, [r0]
    c310:	e0021001 	and	r1, r2, r1
    c314:	e1c33002 	bic	r3, r3, r2
    c318:	e1833001 	orr	r3, r3, r1
    c31c:	e5803000 	str	r3, [r0]
    c320:	e49df004 	pop	{pc}		; (ldr pc, [sp], #4)
    c324:	20200000 	eorcs	r0, r0, r0

0000c328 <udelay>:
    c328:	e92d4030 	push	{r4, r5, lr}
    c32c:	e1a05000 	mov	r5, r0
    c330:	e59f4014 	ldr	r4, [pc, #20]	; c34c <udelay+0x24>
    c334:	e1c420d4 	ldrd	r2, [r4, #4]
    c338:	e1c400d4 	ldrd	r0, [r4, #4]
    c33c:	e0401002 	sub	r1, r0, r2
    c340:	e1510005 	cmp	r1, r5
    c344:	9afffffb 	bls	c338 <udelay+0x10>
    c348:	e8bd8030 	pop	{r4, r5, pc}
    c34c:	20003000 	andcs	r3, r0, r0

0000c350 <__errno>:
    c350:	e59f3004 	ldr	r3, [pc, #4]	; c35c <__errno+0xc>
    c354:	e5930000 	ldr	r0, [r3]
    c358:	e12fff1e 	bx	lr
    c35c:	0000e7e8 	andeq	lr, r0, r8, ror #15

0000c360 <localtime>:
    c360:	e59f3008 	ldr	r3, [pc, #8]	; c370 <localtime+0x10>
    c364:	e5931000 	ldr	r1, [r3]
    c368:	e281107c 	add	r1, r1, #124	; 0x7c
    c36c:	ea000000 	b	c374 <localtime_r>
    c370:	0000e7e8 	andeq	lr, r0, r8, ror #15

0000c374 <localtime_r>:
    c374:	e92d41f0 	push	{r4, r5, r6, r7, r8, lr}
    c378:	e1a04001 	mov	r4, r1
    c37c:	e1a07000 	mov	r7, r0
    c380:	eb0004bd 	bl	d67c <__gettzinfo>
    c384:	e1a01004 	mov	r1, r4
    c388:	e1a08000 	mov	r8, r0
    c38c:	e1a00007 	mov	r0, r7
    c390:	eb0004bc 	bl	d688 <gmtime_r>
    c394:	e5905014 	ldr	r5, [r0, #20]
    c398:	e1a04000 	mov	r4, r0
    c39c:	e2855e76 	add	r5, r5, #1888	; 0x760
    c3a0:	e285500c 	add	r5, r5, #12
    c3a4:	e3150003 	tst	r5, #3
    c3a8:	11a01fc5 	asrne	r1, r5, #31
    c3ac:	1a000028 	bne	c454 <localtime_r+0xe0>
    c3b0:	e3a02064 	mov	r2, #100	; 0x64
    c3b4:	e59f3318 	ldr	r3, [pc, #792]	; c6d4 <localtime_r+0x360>
    c3b8:	e1a01fc5 	asr	r1, r5, #31
    c3bc:	e0c30593 	smull	r0, r3, r3, r5
    c3c0:	e06132c3 	rsb	r3, r1, r3, asr #5
    c3c4:	e0030392 	mul	r3, r2, r3
    c3c8:	e1550003 	cmp	r5, r3
    c3cc:	13a03001 	movne	r3, #1
    c3d0:	0a00001f 	beq	c454 <localtime_r+0xe0>
    c3d4:	e1a06083 	lsl	r6, r3, #1
    c3d8:	e59f22f8 	ldr	r2, [pc, #760]	; c6d8 <localtime_r+0x364>
    c3dc:	e0863003 	add	r3, r6, r3
    c3e0:	e0826203 	add	r6, r2, r3, lsl #4
    c3e4:	eb00048a 	bl	d614 <__tz_lock>
    c3e8:	e59f32ec 	ldr	r3, [pc, #748]	; c6dc <localtime_r+0x368>
    c3ec:	e5933000 	ldr	r3, [r3]
    c3f0:	e3530000 	cmp	r3, #0
    c3f4:	0a000027 	beq	c498 <localtime_r+0x124>
    c3f8:	e5983004 	ldr	r3, [r8, #4]
    c3fc:	e1530005 	cmp	r3, r5
    c400:	0a000003 	beq	c414 <localtime_r+0xa0>
    c404:	e1a00005 	mov	r0, r5
    c408:	eb0003f4 	bl	d3e0 <__tzcalc_limits>
    c40c:	e3500000 	cmp	r0, #0
    c410:	0a000087 	beq	c634 <localtime_r+0x2c0>
    c414:	e5983000 	ldr	r3, [r8]
    c418:	e3530000 	cmp	r3, #0
    c41c:	1a000015 	bne	c478 <localtime_r+0x104>
    c420:	e5973000 	ldr	r3, [r7]
    c424:	e598201c 	ldr	r2, [r8, #28]
    c428:	e1530002 	cmp	r3, r2
    c42c:	aa000083 	bge	c640 <localtime_r+0x2cc>
    c430:	e5982038 	ldr	r2, [r8, #56]	; 0x38
    c434:	e1530002 	cmp	r3, r2
    c438:	a3a03000 	movge	r3, #0
    c43c:	b3a03001 	movlt	r3, #1
    c440:	e3530000 	cmp	r3, #0
    c444:	e5843020 	str	r3, [r4, #32]
    c448:	0a000013 	beq	c49c <localtime_r+0x128>
    c44c:	e598003c 	ldr	r0, [r8, #60]	; 0x3c
    c450:	ea000012 	b	c4a0 <localtime_r+0x12c>
    c454:	e3a02e19 	mov	r2, #400	; 0x190
    c458:	e59f3274 	ldr	r3, [pc, #628]	; c6d4 <localtime_r+0x360>
    c45c:	e0c30593 	smull	r0, r3, r3, r5
    c460:	e06133c3 	rsb	r3, r1, r3, asr #7
    c464:	e0030392 	mul	r3, r2, r3
    c468:	e0633005 	rsb	r3, r3, r5
    c46c:	e16f3f13 	clz	r3, r3
    c470:	e1a032a3 	lsr	r3, r3, #5
    c474:	eaffffd6 	b	c3d4 <localtime_r+0x60>
    c478:	e5973000 	ldr	r3, [r7]
    c47c:	e598201c 	ldr	r2, [r8, #28]
    c480:	e1530002 	cmp	r3, r2
    c484:	ba000002 	blt	c494 <localtime_r+0x120>
    c488:	e5982038 	ldr	r2, [r8, #56]	; 0x38
    c48c:	e1530002 	cmp	r3, r2
    c490:	ba00006a 	blt	c640 <localtime_r+0x2cc>
    c494:	e3a03000 	mov	r3, #0
    c498:	e5843020 	str	r3, [r4, #32]
    c49c:	e5980020 	ldr	r0, [r8, #32]
    c4a0:	e3a02ee1 	mov	r2, #3600	; 0xe10
    c4a4:	e59f3234 	ldr	r3, [pc, #564]	; c6e0 <localtime_r+0x36c>
    c4a8:	e1a0efc0 	asr	lr, r0, #31
    c4ac:	e0c31093 	smull	r1, r3, r3, r0
    c4b0:	e0833000 	add	r3, r3, r0
    c4b4:	e1a035c3 	asr	r3, r3, #11
    c4b8:	e06e1003 	rsb	r1, lr, r3
    c4bc:	e0010192 	mul	r1, r2, r1
    c4c0:	e59f221c 	ldr	r2, [pc, #540]	; c6e4 <localtime_r+0x370>
    c4c4:	e0611000 	rsb	r1, r1, r0
    c4c8:	e0c20192 	smull	r0, r2, r2, r1
    c4cc:	e1a00fc1 	asr	r0, r1, #31
    c4d0:	e0822001 	add	r2, r2, r1
    c4d4:	e060c2c2 	rsb	ip, r0, r2, asr #5
    c4d8:	e06c220c 	rsb	r2, ip, ip, lsl #4
    c4dc:	e5940000 	ldr	r0, [r4]
    c4e0:	e5945008 	ldr	r5, [r4, #8]
    c4e4:	e0411102 	sub	r1, r1, r2, lsl #2
    c4e8:	e5942004 	ldr	r2, [r4, #4]
    c4ec:	e0611000 	rsb	r1, r1, r0
    c4f0:	e06e3003 	rsb	r3, lr, r3
    c4f4:	e0633005 	rsb	r3, r3, r5
    c4f8:	e06c2002 	rsb	r2, ip, r2
    c4fc:	e351003b 	cmp	r1, #59	; 0x3b
    c500:	e884000e 	stm	r4, {r1, r2, r3}
    c504:	da000045 	ble	c620 <localtime_r+0x2ac>
    c508:	e2822001 	add	r2, r2, #1
    c50c:	e241103c 	sub	r1, r1, #60	; 0x3c
    c510:	e8840006 	stm	r4, {r1, r2}
    c514:	e352003b 	cmp	r2, #59	; 0x3b
    c518:	da00003b 	ble	c60c <localtime_r+0x298>
    c51c:	e2833001 	add	r3, r3, #1
    c520:	e242203c 	sub	r2, r2, #60	; 0x3c
    c524:	e984000c 	stmib	r4, {r2, r3}
    c528:	e3530017 	cmp	r3, #23
    c52c:	da00001e 	ble	c5ac <localtime_r+0x238>
    c530:	e5942018 	ldr	r2, [r4, #24]
    c534:	e594101c 	ldr	r1, [r4, #28]
    c538:	e2822001 	add	r2, r2, #1
    c53c:	e3520006 	cmp	r2, #6
    c540:	c3a02000 	movgt	r2, #0
    c544:	e5842018 	str	r2, [r4, #24]
    c548:	e594200c 	ldr	r2, [r4, #12]
    c54c:	e2811001 	add	r1, r1, #1
    c550:	e584101c 	str	r1, [r4, #28]
    c554:	e2433018 	sub	r3, r3, #24
    c558:	e2822001 	add	r2, r2, #1
    c55c:	e5941010 	ldr	r1, [r4, #16]
    c560:	e5843008 	str	r3, [r4, #8]
    c564:	e584200c 	str	r2, [r4, #12]
    c568:	e7963101 	ldr	r3, [r6, r1, lsl #2]
    c56c:	e1520003 	cmp	r2, r3
    c570:	da00000a 	ble	c5a0 <localtime_r+0x22c>
    c574:	e2811001 	add	r1, r1, #1
    c578:	e351000c 	cmp	r1, #12
    c57c:	e0632002 	rsb	r2, r3, r2
    c580:	e584200c 	str	r2, [r4, #12]
    c584:	03a02000 	moveq	r2, #0
    c588:	05943014 	ldreq	r3, [r4, #20]
    c58c:	15841010 	strne	r1, [r4, #16]
    c590:	02833001 	addeq	r3, r3, #1
    c594:	05842010 	streq	r2, [r4, #16]
    c598:	05843014 	streq	r3, [r4, #20]
    c59c:	0584201c 	streq	r2, [r4, #28]
    c5a0:	eb00041c 	bl	d618 <__tz_unlock>
    c5a4:	e1a00004 	mov	r0, r4
    c5a8:	e8bd81f0 	pop	{r4, r5, r6, r7, r8, pc}
    c5ac:	e3530000 	cmp	r3, #0
    c5b0:	aafffffa 	bge	c5a0 <localtime_r+0x22c>
    c5b4:	e5942018 	ldr	r2, [r4, #24]
    c5b8:	e594101c 	ldr	r1, [r4, #28]
    c5bc:	e2522001 	subs	r2, r2, #1
    c5c0:	43a02006 	movmi	r2, #6
    c5c4:	e5842018 	str	r2, [r4, #24]
    c5c8:	e594200c 	ldr	r2, [r4, #12]
    c5cc:	e2411001 	sub	r1, r1, #1
    c5d0:	e2422001 	sub	r2, r2, #1
    c5d4:	e2833018 	add	r3, r3, #24
    c5d8:	e3520000 	cmp	r2, #0
    c5dc:	e584101c 	str	r1, [r4, #28]
    c5e0:	e5843008 	str	r3, [r4, #8]
    c5e4:	e584200c 	str	r2, [r4, #12]
    c5e8:	1affffec 	bne	c5a0 <localtime_r+0x22c>
    c5ec:	e5943010 	ldr	r3, [r4, #16]
    c5f0:	e2533001 	subs	r3, r3, #1
    c5f4:	4a000014 	bmi	c64c <localtime_r+0x2d8>
    c5f8:	e5843010 	str	r3, [r4, #16]
    c5fc:	e1a03103 	lsl	r3, r3, #2
    c600:	e7963003 	ldr	r3, [r6, r3]
    c604:	e584300c 	str	r3, [r4, #12]
    c608:	eaffffe4 	b	c5a0 <localtime_r+0x22c>
    c60c:	e3520000 	cmp	r2, #0
    c610:	b2433001 	sublt	r3, r3, #1
    c614:	b282203c 	addlt	r2, r2, #60	; 0x3c
    c618:	b984000c 	stmiblt	r4, {r2, r3}
    c61c:	eaffffc1 	b	c528 <localtime_r+0x1b4>
    c620:	e3510000 	cmp	r1, #0
    c624:	b2422001 	sublt	r2, r2, #1
    c628:	b281103c 	addlt	r1, r1, #60	; 0x3c
    c62c:	b8840006 	stmlt	r4, {r1, r2}
    c630:	eaffffb7 	b	c514 <localtime_r+0x1a0>
    c634:	e3e03000 	mvn	r3, #0
    c638:	e5843020 	str	r3, [r4, #32]
    c63c:	eaffff96 	b	c49c <localtime_r+0x128>
    c640:	e3a03001 	mov	r3, #1
    c644:	e5843020 	str	r3, [r4, #32]
    c648:	eaffff7f 	b	c44c <localtime_r+0xd8>
    c64c:	e3a0200b 	mov	r2, #11
    c650:	e5943014 	ldr	r3, [r4, #20]
    c654:	e5842010 	str	r2, [r4, #16]
    c658:	e2432001 	sub	r2, r3, #1
    c65c:	e3120003 	tst	r2, #3
    c660:	e5842014 	str	r2, [r4, #20]
    c664:	0a00000e 	beq	c6a4 <localtime_r+0x330>
    c668:	e2833e76 	add	r3, r3, #1888	; 0x760
    c66c:	e283300b 	add	r3, r3, #11
    c670:	e1a01fc3 	asr	r1, r3, #31
    c674:	e3a02e19 	mov	r2, #400	; 0x190
    c678:	e59f0054 	ldr	r0, [pc, #84]	; c6d4 <localtime_r+0x360>
    c67c:	e0c0c390 	smull	ip, r0, r0, r3
    c680:	e06113c0 	rsb	r1, r1, r0, asr #7
    c684:	e0010192 	mul	r1, r2, r1
    c688:	e0613003 	rsb	r3, r1, r3
    c68c:	e16f3f13 	clz	r3, r3
    c690:	e1a032a3 	lsr	r3, r3, #5
    c694:	e2832f5b 	add	r2, r3, #364	; 0x16c
    c698:	e3a0302c 	mov	r3, #44	; 0x2c
    c69c:	e584201c 	str	r2, [r4, #28]
    c6a0:	eaffffd6 	b	c600 <localtime_r+0x28c>
    c6a4:	e3a00064 	mov	r0, #100	; 0x64
    c6a8:	e2833e76 	add	r3, r3, #1888	; 0x760
    c6ac:	e59f2020 	ldr	r2, [pc, #32]	; c6d4 <localtime_r+0x360>
    c6b0:	e283300b 	add	r3, r3, #11
    c6b4:	e0c21392 	smull	r1, r2, r2, r3
    c6b8:	e1a01fc3 	asr	r1, r3, #31
    c6bc:	e06122c2 	rsb	r2, r1, r2, asr #5
    c6c0:	e0020290 	mul	r2, r0, r2
    c6c4:	e1530002 	cmp	r3, r2
    c6c8:	159f2018 	ldrne	r2, [pc, #24]	; c6e8 <localtime_r+0x374>
    c6cc:	1afffff1 	bne	c698 <localtime_r+0x324>
    c6d0:	eaffffe7 	b	c674 <localtime_r+0x300>
    c6d4:	51eb851f 	mvnpl	r8, pc, lsl r5
    c6d8:	0000e4b4 			; <UNDEFINED> instruction: 0x0000e4b4
    c6dc:	00010f24 	andeq	r0, r1, r4, lsr #30
    c6e0:	91a2b3c5 			; <UNDEFINED> instruction: 0x91a2b3c5
    c6e4:	88888889 	stmhi	r8, {r0, r3, r7, fp, pc}
    c6e8:	0000016d 	andeq	r0, r0, sp, ror #2

0000c6ec <memmove>:
    c6ec:	e1500001 	cmp	r0, r1
    c6f0:	e92d41f0 	push	{r4, r5, r6, r7, r8, lr}
    c6f4:	9a00000b 	bls	c728 <memmove+0x3c>
    c6f8:	e0813002 	add	r3, r1, r2
    c6fc:	e1500003 	cmp	r0, r3
    c700:	2a000008 	bcs	c728 <memmove+0x3c>
    c704:	e3520000 	cmp	r2, #0
    c708:	e0801002 	add	r1, r0, r2
    c70c:	08bd81f0 	popeq	{r4, r5, r6, r7, r8, pc}
    c710:	e0622003 	rsb	r2, r2, r3
    c714:	e573c001 	ldrb	ip, [r3, #-1]!
    c718:	e1530002 	cmp	r3, r2
    c71c:	e561c001 	strb	ip, [r1, #-1]!
    c720:	1afffffb 	bne	c714 <memmove+0x28>
    c724:	e8bd81f0 	pop	{r4, r5, r6, r7, r8, pc}
    c728:	e352000f 	cmp	r2, #15
    c72c:	8a000030 	bhi	c7f4 <memmove+0x108>
    c730:	e1a03000 	mov	r3, r0
    c734:	e3520000 	cmp	r2, #0
    c738:	e242e001 	sub	lr, r2, #1
    c73c:	08bd81f0 	popeq	{r4, r5, r6, r7, r8, pc}
    c740:	e281c004 	add	ip, r1, #4
    c744:	e2834004 	add	r4, r3, #4
    c748:	e1510004 	cmp	r1, r4
    c74c:	3153000c 	cmpcc	r3, ip
    c750:	23a0c001 	movcs	ip, #1
    c754:	33a0c000 	movcc	ip, #0
    c758:	e1834001 	orr	r4, r3, r1
    c75c:	e3520009 	cmp	r2, #9
    c760:	93a0c000 	movls	ip, #0
    c764:	820cc001 	andhi	ip, ip, #1
    c768:	e3140003 	tst	r4, #3
    c76c:	13a0c000 	movne	ip, #0
    c770:	020cc001 	andeq	ip, ip, #1
    c774:	e35c0000 	cmp	ip, #0
    c778:	0a00004a 	beq	c8a8 <memmove+0x1bc>
    c77c:	e242c004 	sub	ip, r2, #4
    c780:	e1a0c12c 	lsr	ip, ip, #2
    c784:	e28cc001 	add	ip, ip, #1
    c788:	e35e0002 	cmp	lr, #2
    c78c:	e1a0510c 	lsl	r5, ip, #2
    c790:	9a00000c 	bls	c7c8 <memmove+0xdc>
    c794:	e1a07003 	mov	r7, r3
    c798:	e3a04000 	mov	r4, #0
    c79c:	e2416004 	sub	r6, r1, #4
    c7a0:	e2844001 	add	r4, r4, #1
    c7a4:	e5b68004 	ldr	r8, [r6, #4]!
    c7a8:	e15c0004 	cmp	ip, r4
    c7ac:	e4878004 	str	r8, [r7], #4
    c7b0:	8afffffa 	bhi	c7a0 <memmove+0xb4>
    c7b4:	e1520005 	cmp	r2, r5
    c7b8:	e0833005 	add	r3, r3, r5
    c7bc:	e0811005 	add	r1, r1, r5
    c7c0:	e065e00e 	rsb	lr, r5, lr
    c7c4:	08bd81f0 	popeq	{r4, r5, r6, r7, r8, pc}
    c7c8:	e5d12000 	ldrb	r2, [r1]
    c7cc:	e35e0000 	cmp	lr, #0
    c7d0:	e5c32000 	strb	r2, [r3]
    c7d4:	08bd81f0 	popeq	{r4, r5, r6, r7, r8, pc}
    c7d8:	e5d12001 	ldrb	r2, [r1, #1]
    c7dc:	e35e0001 	cmp	lr, #1
    c7e0:	e5c32001 	strb	r2, [r3, #1]
    c7e4:	0a000036 	beq	c8c4 <memmove+0x1d8>
    c7e8:	e5d12002 	ldrb	r2, [r1, #2]
    c7ec:	e5c32002 	strb	r2, [r3, #2]
    c7f0:	e8bd81f0 	pop	{r4, r5, r6, r7, r8, pc}
    c7f4:	e1803001 	orr	r3, r0, r1
    c7f8:	e3130003 	tst	r3, #3
    c7fc:	1a000026 	bne	c89c <memmove+0x1b0>
    c800:	e1a0e002 	mov	lr, r2
    c804:	e280c010 	add	ip, r0, #16
    c808:	e2813010 	add	r3, r1, #16
    c80c:	e5134010 	ldr	r4, [r3, #-16]
    c810:	e24ee010 	sub	lr, lr, #16
    c814:	e50c4010 	str	r4, [ip, #-16]
    c818:	e513400c 	ldr	r4, [r3, #-12]
    c81c:	e35e000f 	cmp	lr, #15
    c820:	e50c400c 	str	r4, [ip, #-12]
    c824:	e5134008 	ldr	r4, [r3, #-8]
    c828:	e28cc010 	add	ip, ip, #16
    c82c:	e50c4018 	str	r4, [ip, #-24]	; 0xffffffe8
    c830:	e5134004 	ldr	r4, [r3, #-4]
    c834:	e2833010 	add	r3, r3, #16
    c838:	e50c4014 	str	r4, [ip, #-20]	; 0xffffffec
    c83c:	8afffff2 	bhi	c80c <memmove+0x120>
    c840:	e2423010 	sub	r3, r2, #16
    c844:	e3c3300f 	bic	r3, r3, #15
    c848:	e202600f 	and	r6, r2, #15
    c84c:	e2833010 	add	r3, r3, #16
    c850:	e3560003 	cmp	r6, #3
    c854:	e0811003 	add	r1, r1, r3
    c858:	e0803003 	add	r3, r0, r3
    c85c:	9a000019 	bls	c8c8 <memmove+0x1dc>
    c860:	e1a04001 	mov	r4, r1
    c864:	e1a0c006 	mov	ip, r6
    c868:	e243e004 	sub	lr, r3, #4
    c86c:	e24cc004 	sub	ip, ip, #4
    c870:	e4945004 	ldr	r5, [r4], #4
    c874:	e35c0003 	cmp	ip, #3
    c878:	e5ae5004 	str	r5, [lr, #4]!
    c87c:	8afffffa 	bhi	c86c <memmove+0x180>
    c880:	e246c004 	sub	ip, r6, #4
    c884:	e3ccc003 	bic	ip, ip, #3
    c888:	e28cc004 	add	ip, ip, #4
    c88c:	e083300c 	add	r3, r3, ip
    c890:	e081100c 	add	r1, r1, ip
    c894:	e2022003 	and	r2, r2, #3
    c898:	eaffffa5 	b	c734 <memmove+0x48>
    c89c:	e1a03000 	mov	r3, r0
    c8a0:	e242e001 	sub	lr, r2, #1
    c8a4:	eaffffa5 	b	c740 <memmove+0x54>
    c8a8:	e2433001 	sub	r3, r3, #1
    c8ac:	e0812002 	add	r2, r1, r2
    c8b0:	e4d1c001 	ldrb	ip, [r1], #1
    c8b4:	e1510002 	cmp	r1, r2
    c8b8:	e5e3c001 	strb	ip, [r3, #1]!
    c8bc:	1afffffb 	bne	c8b0 <memmove+0x1c4>
    c8c0:	e8bd81f0 	pop	{r4, r5, r6, r7, r8, pc}
    c8c4:	e8bd81f0 	pop	{r4, r5, r6, r7, r8, pc}
    c8c8:	e1a02006 	mov	r2, r6
    c8cc:	eaffff98 	b	c734 <memmove+0x48>

0000c8d0 <mktime>:
    c8d0:	e92d4ff0 	push	{r4, r5, r6, r7, r8, r9, sl, fp, lr}
    c8d4:	e1a05000 	mov	r5, r0
    c8d8:	e24dd01c 	sub	sp, sp, #28
    c8dc:	eb000366 	bl	d67c <__gettzinfo>
    c8e0:	e5951000 	ldr	r1, [r5]
    c8e4:	e1a07000 	mov	r7, r0
    c8e8:	e351003b 	cmp	r1, #59	; 0x3b
    c8ec:	8a00011c 	bhi	cd64 <mktime+0x494>
    c8f0:	e5951004 	ldr	r1, [r5, #4]
    c8f4:	e351003b 	cmp	r1, #59	; 0x3b
    c8f8:	8a000129 	bhi	cda4 <mktime+0x4d4>
    c8fc:	e5951008 	ldr	r1, [r5, #8]
    c900:	e3510017 	cmp	r1, #23
    c904:	8a000136 	bhi	cde4 <mktime+0x514>
    c908:	e5951010 	ldr	r1, [r5, #16]
    c90c:	e351000b 	cmp	r1, #11
    c910:	8a000144 	bhi	ce28 <mktime+0x558>
    c914:	e5956014 	ldr	r6, [r5, #20]
    c918:	e3160003 	tst	r6, #3
    c91c:	1a00007e 	bne	cb1c <mktime+0x24c>
    c920:	e3a02064 	mov	r2, #100	; 0x64
    c924:	e59f0a94 	ldr	r0, [pc, #2708]	; d3c0 <mktime+0xaf0>
    c928:	e1a03fc6 	asr	r3, r6, #31
    c92c:	e0cce690 	smull	lr, ip, r0, r6
    c930:	e06332cc 	rsb	r3, r3, ip, asr #5
    c934:	e0030392 	mul	r3, r2, r3
    c938:	e1560003 	cmp	r6, r3
    c93c:	13a0401d 	movne	r4, #29
    c940:	0a0000db 	beq	ccb4 <mktime+0x3e4>
    c944:	e595300c 	ldr	r3, [r5, #12]
    c948:	e3530000 	cmp	r3, #0
    c94c:	da000076 	ble	cb2c <mktime+0x25c>
    c950:	e3a08000 	mov	r8, #0
    c954:	e3a0a064 	mov	sl, #100	; 0x64
    c958:	e59fba64 	ldr	fp, [pc, #2660]	; d3c4 <mktime+0xaf4>
    c95c:	e59f9a5c 	ldr	r9, [pc, #2652]	; d3c0 <mktime+0xaf0>
    c960:	e1a00001 	mov	r0, r1
    c964:	e2812001 	add	r2, r1, #1
    c968:	e08bc101 	add	ip, fp, r1, lsl #2
    c96c:	ea00000a 	b	c99c <mktime+0xcc>
    c970:	e59ce000 	ldr	lr, [ip]
    c974:	e15e0003 	cmp	lr, r3
    c978:	aa00013b 	bge	ce6c <mktime+0x59c>
    c97c:	e06e3003 	rsb	r3, lr, r3
    c980:	e352000c 	cmp	r2, #12
    c984:	e585300c 	str	r3, [r5, #12]
    c988:	e5852010 	str	r2, [r5, #16]
    c98c:	0a000053 	beq	cae0 <mktime+0x210>
    c990:	e2800001 	add	r0, r0, #1
    c994:	e2822001 	add	r2, r2, #1
    c998:	e28cc004 	add	ip, ip, #4
    c99c:	e3500001 	cmp	r0, #1
    c9a0:	e1a01000 	mov	r1, r0
    c9a4:	1afffff1 	bne	c970 <mktime+0xa0>
    c9a8:	e1540003 	cmp	r4, r3
    c9ac:	b0643003 	rsblt	r3, r4, r3
    c9b0:	b585300c 	strlt	r3, [r5, #12]
    c9b4:	b5852010 	strlt	r2, [r5, #16]
    c9b8:	bafffff4 	blt	c990 <mktime+0xc0>
    c9bc:	e3a0eee1 	mov	lr, #3600	; 0xe10
    c9c0:	e8950006 	ldm	r5, {r1, r2}
    c9c4:	e5950008 	ldr	r0, [r5, #8]
    c9c8:	e0622202 	rsb	r2, r2, r2, lsl #4
    c9cc:	e0812102 	add	r2, r1, r2, lsl #2
    c9d0:	e02e209e 	mla	lr, lr, r0, r2
    c9d4:	e283401e 	add	r4, r3, #30
    c9d8:	e2863c27 	add	r3, r6, #9984	; 0x2700
    c9dc:	e59f29e4 	ldr	r2, [pc, #2532]	; d3c8 <mktime+0xaf8>
    c9e0:	e2833010 	add	r3, r3, #16
    c9e4:	e1530002 	cmp	r3, r2
    c9e8:	e585401c 	str	r4, [r5, #28]
    c9ec:	8a000163 	bhi	cf80 <mktime+0x6b0>
    c9f0:	e3560046 	cmp	r6, #70	; 0x46
    c9f4:	ca000069 	bgt	cba0 <mktime+0x2d0>
    c9f8:	0a000087 	beq	cc1c <mktime+0x34c>
    c9fc:	e3560045 	cmp	r6, #69	; 0x45
    ca00:	0a000154 	beq	cf58 <mktime+0x688>
    ca04:	e3a02045 	mov	r2, #69	; 0x45
    ca08:	e3a08064 	mov	r8, #100	; 0x64
    ca0c:	e59fa9b8 	ldr	sl, [pc, #2488]	; d3cc <mktime+0xafc>
    ca10:	e59fc9a8 	ldr	ip, [pc, #2472]	; d3c0 <mktime+0xaf0>
    ca14:	e59f99b4 	ldr	r9, [pc, #2484]	; d3d0 <mktime+0xb00>
    ca18:	e58de004 	str	lr, [sp, #4]
    ca1c:	e3120003 	tst	r2, #3
    ca20:	e1a00fc2 	asr	r0, r2, #31
    ca24:	159f39a0 	ldrne	r3, [pc, #2464]	; d3cc <mktime+0xafc>
    ca28:	1a00000f 	bne	ca6c <mktime+0x19c>
    ca2c:	e0c3e29c 	smull	lr, r3, ip, r2
    ca30:	e06002c3 	rsb	r0, r0, r3, asr #5
    ca34:	e0000098 	mul	r0, r8, r0
    ca38:	e2821e76 	add	r1, r2, #1888	; 0x760
    ca3c:	e281100c 	add	r1, r1, #12
    ca40:	e1520000 	cmp	r2, r0
    ca44:	e1a03fc1 	asr	r3, r1, #31
    ca48:	159f3980 	ldrne	r3, [pc, #2432]	; d3d0 <mktime+0xb00>
    ca4c:	1a000006 	bne	ca6c <mktime+0x19c>
    ca50:	e0c0e19c 	smull	lr, r0, ip, r1
    ca54:	e06333c0 	rsb	r3, r3, r0, asr #7
    ca58:	e3a00e19 	mov	r0, #400	; 0x190
    ca5c:	e0030390 	mul	r3, r0, r3
    ca60:	e1510003 	cmp	r1, r3
    ca64:	11a0300a 	movne	r3, sl
    ca68:	01a03009 	moveq	r3, r9
    ca6c:	e2422001 	sub	r2, r2, #1
    ca70:	e1520006 	cmp	r2, r6
    ca74:	e0634004 	rsb	r4, r3, r4
    ca78:	1affffe7 	bne	ca1c <mktime+0x14c>
    ca7c:	e3160003 	tst	r6, #3
    ca80:	e59de004 	ldr	lr, [sp, #4]
    ca84:	1a000133 	bne	cf58 <mktime+0x688>
    ca88:	e3a02064 	mov	r2, #100	; 0x64
    ca8c:	e59f192c 	ldr	r1, [pc, #2348]	; d3c0 <mktime+0xaf0>
    ca90:	e1a03fc6 	asr	r3, r6, #31
    ca94:	e0c0c691 	smull	ip, r0, r1, r6
    ca98:	e06332c0 	rsb	r3, r3, r0, asr #5
    ca9c:	e0030392 	mul	r3, r2, r3
    caa0:	e1560003 	cmp	r6, r3
    caa4:	159f3924 	ldrne	r3, [pc, #2340]	; d3d0 <mktime+0xb00>
    caa8:	1a00012b 	bne	cf5c <mktime+0x68c>
    caac:	e3a02e19 	mov	r2, #400	; 0x190
    cab0:	e2863e76 	add	r3, r6, #1888	; 0x760
    cab4:	e283000c 	add	r0, r3, #12
    cab8:	e0c13091 	smull	r3, r1, r1, r0
    cabc:	e1a03fc0 	asr	r3, r0, #31
    cac0:	e06333c1 	rsb	r3, r3, r1, asr #7
    cac4:	e0030392 	mul	r3, r2, r3
    cac8:	e59f1900 	ldr	r1, [pc, #2304]	; d3d0 <mktime+0xb00>
    cacc:	e1500003 	cmp	r0, r3
    cad0:	e2422023 	sub	r2, r2, #35	; 0x23
    cad4:	11a03002 	movne	r3, r2
    cad8:	01a03001 	moveq	r3, r1
    cadc:	ea00011e 	b	cf5c <mktime+0x68c>
    cae0:	e2866001 	add	r6, r6, #1
    cae4:	e3160003 	tst	r6, #3
    cae8:	e5856014 	str	r6, [r5, #20]
    caec:	e5858010 	str	r8, [r5, #16]
    caf0:	13a0401c 	movne	r4, #28
    caf4:	1a000006 	bne	cb14 <mktime+0x244>
    caf8:	e0c21699 	smull	r1, r2, r9, r6
    cafc:	e1a01fc6 	asr	r1, r6, #31
    cb00:	e06122c2 	rsb	r2, r1, r2, asr #5
    cb04:	e002029a 	mul	r2, sl, r2
    cb08:	e1560002 	cmp	r6, r2
    cb0c:	13a0401d 	movne	r4, #29
    cb10:	0a000104 	beq	cf28 <mktime+0x658>
    cb14:	e3a01000 	mov	r1, #0
    cb18:	eaffff90 	b	c960 <mktime+0x90>
    cb1c:	e595300c 	ldr	r3, [r5, #12]
    cb20:	e3a0401c 	mov	r4, #28
    cb24:	e3530000 	cmp	r3, #0
    cb28:	caffff88 	bgt	c950 <mktime+0x80>
    cb2c:	e3a0c064 	mov	ip, #100	; 0x64
    cb30:	e3a0ee19 	mov	lr, #400	; 0x190
    cb34:	e59fb888 	ldr	fp, [pc, #2184]	; d3c4 <mktime+0xaf4>
    cb38:	e59f0880 	ldr	r0, [pc, #2176]	; d3c0 <mktime+0xaf0>
    cb3c:	ea000006 	b	cb5c <mktime+0x28c>
    cb40:	e3510001 	cmp	r1, #1
    cb44:	01a02004 	moveq	r2, r4
    cb48:	0a000000 	beq	cb50 <mktime+0x280>
    cb4c:	e79b2101 	ldr	r2, [fp, r1, lsl #2]
    cb50:	e0833002 	add	r3, r3, r2
    cb54:	e3530000 	cmp	r3, #0
    cb58:	ca0000c1 	bgt	ce64 <mktime+0x594>
    cb5c:	e2511001 	subs	r1, r1, #1
    cb60:	2afffff6 	bcs	cb40 <mktime+0x270>
    cb64:	e2462001 	sub	r2, r6, #1
    cb68:	e3120003 	tst	r2, #3
    cb6c:	e5852014 	str	r2, [r5, #20]
    cb70:	13a0401c 	movne	r4, #28
    cb74:	1a000006 	bne	cb94 <mktime+0x2c4>
    cb78:	e0c41290 	smull	r1, r4, r0, r2
    cb7c:	e1a01fc2 	asr	r1, r2, #31
    cb80:	e06142c4 	rsb	r4, r1, r4, asr #5
    cb84:	e004049c 	mul	r4, ip, r4
    cb88:	e1520004 	cmp	r2, r4
    cb8c:	13a0401d 	movne	r4, #29
    cb90:	0a0000ce 	beq	ced0 <mktime+0x600>
    cb94:	e1a06002 	mov	r6, r2
    cb98:	e3a0100b 	mov	r1, #11
    cb9c:	eaffffea 	b	cb4c <mktime+0x27c>
    cba0:	e3a02046 	mov	r2, #70	; 0x46
    cba4:	e3a08064 	mov	r8, #100	; 0x64
    cba8:	e59fa81c 	ldr	sl, [pc, #2076]	; d3cc <mktime+0xafc>
    cbac:	e59fc80c 	ldr	ip, [pc, #2060]	; d3c0 <mktime+0xaf0>
    cbb0:	e59f9818 	ldr	r9, [pc, #2072]	; d3d0 <mktime+0xb00>
    cbb4:	e58de004 	str	lr, [sp, #4]
    cbb8:	e3120003 	tst	r2, #3
    cbbc:	e1a01fc2 	asr	r1, r2, #31
    cbc0:	159f3804 	ldrne	r3, [pc, #2052]	; d3cc <mktime+0xafc>
    cbc4:	1a00000f 	bne	cc08 <mktime+0x338>
    cbc8:	e0c0e29c 	smull	lr, r0, ip, r2
    cbcc:	e06112c0 	rsb	r1, r1, r0, asr #5
    cbd0:	e0010198 	mul	r1, r8, r1
    cbd4:	e2823e76 	add	r3, r2, #1888	; 0x760
    cbd8:	e283300c 	add	r3, r3, #12
    cbdc:	e1520001 	cmp	r2, r1
    cbe0:	e1a00fc3 	asr	r0, r3, #31
    cbe4:	159f37e4 	ldrne	r3, [pc, #2020]	; d3d0 <mktime+0xb00>
    cbe8:	1a000006 	bne	cc08 <mktime+0x338>
    cbec:	e0c1e39c 	smull	lr, r1, ip, r3
    cbf0:	e06003c1 	rsb	r0, r0, r1, asr #7
    cbf4:	e3a01e19 	mov	r1, #400	; 0x190
    cbf8:	e0000091 	mul	r0, r1, r0
    cbfc:	e1530000 	cmp	r3, r0
    cc00:	11a0300a 	movne	r3, sl
    cc04:	01a03009 	moveq	r3, r9
    cc08:	e2822001 	add	r2, r2, #1
    cc0c:	e1520006 	cmp	r2, r6
    cc10:	e0844003 	add	r4, r4, r3
    cc14:	1affffe7 	bne	cbb8 <mktime+0x2e8>
    cc18:	e59de004 	ldr	lr, [sp, #4]
    cc1c:	e59f87b0 	ldr	r8, [pc, #1968]	; d3d4 <mktime+0xb04>
    cc20:	e028e498 	mla	r8, r8, r4, lr
    cc24:	eb00027a 	bl	d614 <__tz_lock>
    cc28:	e59f37a8 	ldr	r3, [pc, #1960]	; d3d8 <mktime+0xb08>
    cc2c:	e593a000 	ldr	sl, [r3]
    cc30:	e35a0000 	cmp	sl, #0
    cc34:	0a000047 	beq	cd58 <mktime+0x488>
    cc38:	e5950014 	ldr	r0, [r5, #20]
    cc3c:	e595a020 	ldr	sl, [r5, #32]
    cc40:	e2800e76 	add	r0, r0, #1888	; 0x760
    cc44:	e5973004 	ldr	r3, [r7, #4]
    cc48:	e35a0001 	cmp	sl, #1
    cc4c:	e280000c 	add	r0, r0, #12
    cc50:	a3a0a001 	movge	sl, #1
    cc54:	e1530000 	cmp	r3, r0
    cc58:	0a000020 	beq	cce0 <mktime+0x410>
    cc5c:	eb0001df 	bl	d3e0 <__tzcalc_limits>
    cc60:	e3500000 	cmp	r0, #0
    cc64:	1a00001d 	bne	cce0 <mktime+0x410>
    cc68:	e35a0001 	cmp	sl, #1
    cc6c:	1a000039 	bne	cd58 <mktime+0x488>
    cc70:	e597003c 	ldr	r0, [r7, #60]	; 0x3c
    cc74:	e0888000 	add	r8, r8, r0
    cc78:	eb000266 	bl	d618 <__tz_unlock>
    cc7c:	e1a00008 	mov	r0, r8
    cc80:	e59f2754 	ldr	r2, [pc, #1876]	; d3dc <mktime+0xb0c>
    cc84:	e2843004 	add	r3, r4, #4
    cc88:	e0c21392 	smull	r1, r2, r2, r3
    cc8c:	e1a01fc3 	asr	r1, r3, #31
    cc90:	e0822003 	add	r2, r2, r3
    cc94:	e0612142 	rsb	r2, r1, r2, asr #2
    cc98:	e0622182 	rsb	r2, r2, r2, lsl #3
    cc9c:	e0532002 	subs	r2, r3, r2
    cca0:	42822007 	addmi	r2, r2, #7
    cca4:	e585a020 	str	sl, [r5, #32]
    cca8:	e5852018 	str	r2, [r5, #24]
    ccac:	e28dd01c 	add	sp, sp, #28
    ccb0:	e8bd8ff0 	pop	{r4, r5, r6, r7, r8, r9, sl, fp, pc}
    ccb4:	e3a02e19 	mov	r2, #400	; 0x190
    ccb8:	e2863e76 	add	r3, r6, #1888	; 0x760
    ccbc:	e283300c 	add	r3, r3, #12
    ccc0:	e0c0c390 	smull	ip, r0, r0, r3
    ccc4:	e1a04fc3 	asr	r4, r3, #31
    ccc8:	e06403c0 	rsb	r0, r4, r0, asr #7
    cccc:	e0040092 	mul	r4, r2, r0
    ccd0:	e1530004 	cmp	r3, r4
    ccd4:	03a0401d 	moveq	r4, #29
    ccd8:	13a0401c 	movne	r4, #28
    ccdc:	eaffff18 	b	c944 <mktime+0x74>
    cce0:	e5979038 	ldr	r9, [r7, #56]	; 0x38
    cce4:	e597103c 	ldr	r1, [r7, #60]	; 0x3c
    cce8:	e5972020 	ldr	r2, [r7, #32]
    ccec:	e0613009 	rsb	r3, r1, r9
    ccf0:	e1580003 	cmp	r8, r3
    ccf4:	e0629009 	rsb	r9, r2, r9
    ccf8:	b3a03001 	movlt	r3, #1
    ccfc:	a3a03000 	movge	r3, #0
    cd00:	e1580009 	cmp	r8, r9
    cd04:	b3a03000 	movlt	r3, #0
    cd08:	e3530000 	cmp	r3, #0
    cd0c:	e597301c 	ldr	r3, [r7, #28]
    cd10:	1affffd4 	bne	cc68 <mktime+0x398>
    cd14:	e5970000 	ldr	r0, [r7]
    cd18:	e0613003 	rsb	r3, r1, r3
    cd1c:	e3500000 	cmp	r0, #0
    cd20:	0a00008f 	beq	cf64 <mktime+0x694>
    cd24:	e1580009 	cmp	r8, r9
    cd28:	b3a09001 	movlt	r9, #1
    cd2c:	a3a09000 	movge	r9, #0
    cd30:	e1580003 	cmp	r8, r3
    cd34:	b3a09000 	movlt	r9, #0
    cd38:	e35a0000 	cmp	sl, #0
    cd3c:	ba000002 	blt	cd4c <mktime+0x47c>
    cd40:	e02aa009 	eor	sl, sl, r9
    cd44:	e35a0001 	cmp	sl, #1
    cd48:	0a00008e 	beq	cf88 <mktime+0x6b8>
    cd4c:	e1a0a009 	mov	sl, r9
    cd50:	e35a0001 	cmp	sl, #1
    cd54:	0affffc5 	beq	cc70 <mktime+0x3a0>
    cd58:	e5970020 	ldr	r0, [r7, #32]
    cd5c:	e0888000 	add	r8, r8, r0
    cd60:	eaffffc4 	b	cc78 <mktime+0x3a8>
    cd64:	e3a0203c 	mov	r2, #60	; 0x3c
    cd68:	e28d0008 	add	r0, sp, #8
    cd6c:	eb00022a 	bl	d61c <div>
    cd70:	e59d200c 	ldr	r2, [sp, #12]
    cd74:	e5953004 	ldr	r3, [r5, #4]
    cd78:	e59d1008 	ldr	r1, [sp, #8]
    cd7c:	e3520000 	cmp	r2, #0
    cd80:	e0831001 	add	r1, r3, r1
    cd84:	e5851004 	str	r1, [r5, #4]
    cd88:	b282203c 	addlt	r2, r2, #60	; 0x3c
    cd8c:	b2411001 	sublt	r1, r1, #1
    cd90:	a5852000 	strge	r2, [r5]
    cd94:	b5852000 	strlt	r2, [r5]
    cd98:	b5851004 	strlt	r1, [r5, #4]
    cd9c:	e351003b 	cmp	r1, #59	; 0x3b
    cda0:	9afffed5 	bls	c8fc <mktime+0x2c>
    cda4:	e3a0203c 	mov	r2, #60	; 0x3c
    cda8:	e28d0008 	add	r0, sp, #8
    cdac:	eb00021a 	bl	d61c <div>
    cdb0:	e59d200c 	ldr	r2, [sp, #12]
    cdb4:	e5951008 	ldr	r1, [r5, #8]
    cdb8:	e59d3008 	ldr	r3, [sp, #8]
    cdbc:	e3520000 	cmp	r2, #0
    cdc0:	e0831001 	add	r1, r3, r1
    cdc4:	e5851008 	str	r1, [r5, #8]
    cdc8:	b282203c 	addlt	r2, r2, #60	; 0x3c
    cdcc:	b2411001 	sublt	r1, r1, #1
    cdd0:	a5852004 	strge	r2, [r5, #4]
    cdd4:	b5852004 	strlt	r2, [r5, #4]
    cdd8:	b5851008 	strlt	r1, [r5, #8]
    cddc:	e3510017 	cmp	r1, #23
    cde0:	9afffec8 	bls	c908 <mktime+0x38>
    cde4:	e3a02018 	mov	r2, #24
    cde8:	e28d0008 	add	r0, sp, #8
    cdec:	eb00020a 	bl	d61c <div>
    cdf0:	e595100c 	ldr	r1, [r5, #12]
    cdf4:	e59d200c 	ldr	r2, [sp, #12]
    cdf8:	e59d3008 	ldr	r3, [sp, #8]
    cdfc:	e3520000 	cmp	r2, #0
    ce00:	e0833001 	add	r3, r3, r1
    ce04:	e5951010 	ldr	r1, [r5, #16]
    ce08:	e585300c 	str	r3, [r5, #12]
    ce0c:	b2822018 	addlt	r2, r2, #24
    ce10:	b2433001 	sublt	r3, r3, #1
    ce14:	a5852008 	strge	r2, [r5, #8]
    ce18:	b5852008 	strlt	r2, [r5, #8]
    ce1c:	b585300c 	strlt	r3, [r5, #12]
    ce20:	e351000b 	cmp	r1, #11
    ce24:	9afffeba 	bls	c914 <mktime+0x44>
    ce28:	e28d0008 	add	r0, sp, #8
    ce2c:	e3a0200c 	mov	r2, #12
    ce30:	eb0001f9 	bl	d61c <div>
    ce34:	e59d100c 	ldr	r1, [sp, #12]
    ce38:	e5953014 	ldr	r3, [r5, #20]
    ce3c:	e59d6008 	ldr	r6, [sp, #8]
    ce40:	e3510000 	cmp	r1, #0
    ce44:	e0866003 	add	r6, r6, r3
    ce48:	e5856014 	str	r6, [r5, #20]
    ce4c:	b281100c 	addlt	r1, r1, #12
    ce50:	b2466001 	sublt	r6, r6, #1
    ce54:	a5851010 	strge	r1, [r5, #16]
    ce58:	b5851010 	strlt	r1, [r5, #16]
    ce5c:	b5856014 	strlt	r6, [r5, #20]
    ce60:	eafffeac 	b	c918 <mktime+0x48>
    ce64:	e5851010 	str	r1, [r5, #16]
    ce68:	e585300c 	str	r3, [r5, #12]
    ce6c:	e3a0eee1 	mov	lr, #3600	; 0xe10
    ce70:	e5952004 	ldr	r2, [r5, #4]
    ce74:	e08bc101 	add	ip, fp, r1, lsl #2
    ce78:	e5950000 	ldr	r0, [r5]
    ce7c:	e59c4030 	ldr	r4, [ip, #48]	; 0x30
    ce80:	e0622202 	rsb	r2, r2, r2, lsl #4
    ce84:	e595c008 	ldr	ip, [r5, #8]
    ce88:	e2433001 	sub	r3, r3, #1
    ce8c:	e0802102 	add	r2, r0, r2, lsl #2
    ce90:	e3510001 	cmp	r1, #1
    ce94:	e0834004 	add	r4, r3, r4
    ce98:	e02e2c9e 	mla	lr, lr, ip, r2
    ce9c:	dafffecd 	ble	c9d8 <mktime+0x108>
    cea0:	e3160003 	tst	r6, #3
    cea4:	1afffecb 	bne	c9d8 <mktime+0x108>
    cea8:	e3a02064 	mov	r2, #100	; 0x64
    ceac:	e59f150c 	ldr	r1, [pc, #1292]	; d3c0 <mktime+0xaf0>
    ceb0:	e1a03fc6 	asr	r3, r6, #31
    ceb4:	e0c0c691 	smull	ip, r0, r1, r6
    ceb8:	e06332c0 	rsb	r3, r3, r0, asr #5
    cebc:	e0030392 	mul	r3, r2, r3
    cec0:	e1560003 	cmp	r6, r3
    cec4:	0a00000d 	beq	cf00 <mktime+0x630>
    cec8:	e2844001 	add	r4, r4, #1
    cecc:	eafffec1 	b	c9d8 <mktime+0x108>
    ced0:	e2861e76 	add	r1, r6, #1888	; 0x760
    ced4:	e281100b 	add	r1, r1, #11
    ced8:	e0c64190 	smull	r4, r6, r0, r1
    cedc:	e1a04fc1 	asr	r4, r1, #31
    cee0:	e06443c6 	rsb	r4, r4, r6, asr #7
    cee4:	e004049e 	mul	r4, lr, r4
    cee8:	e1510004 	cmp	r1, r4
    ceec:	13a0401c 	movne	r4, #28
    cef0:	03a0401d 	moveq	r4, #29
    cef4:	e1a06002 	mov	r6, r2
    cef8:	e3a0100b 	mov	r1, #11
    cefc:	eaffff12 	b	cb4c <mktime+0x27c>
    cf00:	e3a02e19 	mov	r2, #400	; 0x190
    cf04:	e2863e76 	add	r3, r6, #1888	; 0x760
    cf08:	e283300c 	add	r3, r3, #12
    cf0c:	e0c10391 	smull	r0, r1, r1, r3
    cf10:	e1a00fc3 	asr	r0, r3, #31
    cf14:	e06013c1 	rsb	r1, r0, r1, asr #7
    cf18:	e0020192 	mul	r2, r2, r1
    cf1c:	e1530002 	cmp	r3, r2
    cf20:	1afffeac 	bne	c9d8 <mktime+0x108>
    cf24:	eaffffe7 	b	cec8 <mktime+0x5f8>
    cf28:	e2862e76 	add	r2, r6, #1888	; 0x760
    cf2c:	e282200c 	add	r2, r2, #12
    cf30:	e0c41299 	smull	r1, r4, r9, r2
    cf34:	e1a01fc2 	asr	r1, r2, #31
    cf38:	e06143c4 	rsb	r4, r1, r4, asr #7
    cf3c:	e3a01e19 	mov	r1, #400	; 0x190
    cf40:	e0040491 	mul	r4, r1, r4
    cf44:	e1520004 	cmp	r2, r4
    cf48:	13a0401c 	movne	r4, #28
    cf4c:	03a0401d 	moveq	r4, #29
    cf50:	e3a01000 	mov	r1, #0
    cf54:	eafffe81 	b	c960 <mktime+0x90>
    cf58:	e59f346c 	ldr	r3, [pc, #1132]	; d3cc <mktime+0xafc>
    cf5c:	e0634004 	rsb	r4, r3, r4
    cf60:	eaffff2d 	b	cc1c <mktime+0x34c>
    cf64:	e1580003 	cmp	r8, r3
    cf68:	b3a03000 	movlt	r3, #0
    cf6c:	a3a03001 	movge	r3, #1
    cf70:	e1580009 	cmp	r8, r9
    cf74:	a1a09003 	movge	r9, r3
    cf78:	b3839001 	orrlt	r9, r3, #1
    cf7c:	eaffff6d 	b	cd38 <mktime+0x468>
    cf80:	e3e00000 	mvn	r0, #0
    cf84:	eaffff48 	b	ccac <mktime+0x3dc>
    cf88:	e2293001 	eor	r3, r9, #1
    cf8c:	e1a00003 	mov	r0, r3
    cf90:	e0612002 	rsb	r2, r1, r2
    cf94:	e2633000 	rsb	r3, r3, #0
    cf98:	e5951000 	ldr	r1, [r5]
    cf9c:	e0233002 	eor	r3, r3, r2
    cfa0:	e0833000 	add	r3, r3, r0
    cfa4:	e0831001 	add	r1, r3, r1
    cfa8:	e0888003 	add	r8, r8, r3
    cfac:	e595300c 	ldr	r3, [r5, #12]
    cfb0:	e351003b 	cmp	r1, #59	; 0x3b
    cfb4:	e5851000 	str	r1, [r5]
    cfb8:	e58d3004 	str	r3, [sp, #4]
    cfbc:	8a0000d4 	bhi	d314 <mktime+0xa44>
    cfc0:	e5951004 	ldr	r1, [r5, #4]
    cfc4:	e351003b 	cmp	r1, #59	; 0x3b
    cfc8:	8a0000c2 	bhi	d2d8 <mktime+0xa08>
    cfcc:	e5951008 	ldr	r1, [r5, #8]
    cfd0:	e3510017 	cmp	r1, #23
    cfd4:	8a0000b0 	bhi	d29c <mktime+0x9cc>
    cfd8:	e5951010 	ldr	r1, [r5, #16]
    cfdc:	e351000b 	cmp	r1, #11
    cfe0:	8a00009e 	bhi	d260 <mktime+0x990>
    cfe4:	e5953014 	ldr	r3, [r5, #20]
    cfe8:	e3130003 	tst	r3, #3
    cfec:	1a000072 	bne	d1bc <mktime+0x8ec>
    cff0:	e3a0c064 	mov	ip, #100	; 0x64
    cff4:	e59f03c4 	ldr	r0, [pc, #964]	; d3c0 <mktime+0xaf0>
    cff8:	e1a02fc3 	asr	r2, r3, #31
    cffc:	e0cea390 	smull	sl, lr, r0, r3
    d000:	e06222ce 	rsb	r2, r2, lr, asr #5
    d004:	e002029c 	mul	r2, ip, r2
    d008:	e1530002 	cmp	r3, r2
    d00c:	13a0201d 	movne	r2, #29
    d010:	1a000009 	bne	d03c <mktime+0x76c>
    d014:	e3a02e19 	mov	r2, #400	; 0x190
    d018:	e2833e76 	add	r3, r3, #1888	; 0x760
    d01c:	e283300c 	add	r3, r3, #12
    d020:	e0c0c390 	smull	ip, r0, r0, r3
    d024:	e1a0cfc3 	asr	ip, r3, #31
    d028:	e06c03c0 	rsb	r0, ip, r0, asr #7
    d02c:	e0020092 	mul	r2, r2, r0
    d030:	e1530002 	cmp	r3, r2
    d034:	03a0201d 	moveq	r2, #29
    d038:	13a0201c 	movne	r2, #28
    d03c:	e595300c 	ldr	r3, [r5, #12]
    d040:	e3530000 	cmp	r3, #0
    d044:	da000060 	ble	d1cc <mktime+0x8fc>
    d048:	e1a00001 	mov	r0, r1
    d04c:	e59fa36c 	ldr	sl, [pc, #876]	; d3c0 <mktime+0xaf0>
    d050:	e2801001 	add	r1, r0, #1
    d054:	e08bc100 	add	ip, fp, r0, lsl #2
    d058:	ea00000a 	b	d088 <mktime+0x7b8>
    d05c:	e59ce000 	ldr	lr, [ip]
    d060:	e15e0003 	cmp	lr, r3
    d064:	aa000011 	bge	d0b0 <mktime+0x7e0>
    d068:	e06e3003 	rsb	r3, lr, r3
    d06c:	e351000c 	cmp	r1, #12
    d070:	e585300c 	str	r3, [r5, #12]
    d074:	e5851010 	str	r1, [r5, #16]
    d078:	0a000033 	beq	d14c <mktime+0x87c>
    d07c:	e2800001 	add	r0, r0, #1
    d080:	e2811001 	add	r1, r1, #1
    d084:	e28cc004 	add	ip, ip, #4
    d088:	e3500001 	cmp	r0, #1
    d08c:	1afffff2 	bne	d05c <mktime+0x78c>
    d090:	e1520003 	cmp	r2, r3
    d094:	aa000005 	bge	d0b0 <mktime+0x7e0>
    d098:	e0623003 	rsb	r3, r2, r3
    d09c:	e585300c 	str	r3, [r5, #12]
    d0a0:	e5851010 	str	r1, [r5, #16]
    d0a4:	eafffff4 	b	d07c <mktime+0x7ac>
    d0a8:	e5851010 	str	r1, [r5, #16]
    d0ac:	e585300c 	str	r3, [r5, #12]
    d0b0:	e59d2004 	ldr	r2, [sp, #4]
    d0b4:	e0533002 	subs	r3, r3, r2
    d0b8:	0affff23 	beq	cd4c <mktime+0x47c>
    d0bc:	e3530001 	cmp	r3, #1
    d0c0:	c3e03000 	mvngt	r3, #0
    d0c4:	da0000ba 	ble	d3b4 <mktime+0xae4>
    d0c8:	e595201c 	ldr	r2, [r5, #28]
    d0cc:	e0844003 	add	r4, r4, r3
    d0d0:	e0933002 	adds	r3, r3, r2
    d0d4:	4a00009d 	bmi	d350 <mktime+0xa80>
    d0d8:	e3160003 	tst	r6, #3
    d0dc:	159f22e8 	ldrne	r2, [pc, #744]	; d3cc <mktime+0xafc>
    d0e0:	1a000014 	bne	d138 <mktime+0x868>
    d0e4:	e3a00064 	mov	r0, #100	; 0x64
    d0e8:	e59f12d0 	ldr	r1, [pc, #720]	; d3c0 <mktime+0xaf0>
    d0ec:	e1a02fc6 	asr	r2, r6, #31
    d0f0:	e0cce691 	smull	lr, ip, r1, r6
    d0f4:	e06222cc 	rsb	r2, r2, ip, asr #5
    d0f8:	e0020290 	mul	r2, r0, r2
    d0fc:	e1560002 	cmp	r6, r2
    d100:	159f22c8 	ldrne	r2, [pc, #712]	; d3d0 <mktime+0xb00>
    d104:	1a00000b 	bne	d138 <mktime+0x868>
    d108:	e3a0ce19 	mov	ip, #400	; 0x190
    d10c:	e2862e76 	add	r2, r6, #1888	; 0x760
    d110:	e282000c 	add	r0, r2, #12
    d114:	e0c12091 	smull	r2, r1, r1, r0
    d118:	e1a02fc0 	asr	r2, r0, #31
    d11c:	e06223c1 	rsb	r2, r2, r1, asr #7
    d120:	e002029c 	mul	r2, ip, r2
    d124:	e59f12a0 	ldr	r1, [pc, #672]	; d3cc <mktime+0xafc>
    d128:	e1500002 	cmp	r0, r2
    d12c:	e24cc022 	sub	ip, ip, #34	; 0x22
    d130:	11a02001 	movne	r2, r1
    d134:	01a0200c 	moveq	r2, ip
    d138:	e1520003 	cmp	r2, r3
    d13c:	d0623003 	rsble	r3, r2, r3
    d140:	e585301c 	str	r3, [r5, #28]
    d144:	e1a0a009 	mov	sl, r9
    d148:	eafffec6 	b	cc68 <mktime+0x398>
    d14c:	e3a01000 	mov	r1, #0
    d150:	e5952014 	ldr	r2, [r5, #20]
    d154:	e5851010 	str	r1, [r5, #16]
    d158:	e2820001 	add	r0, r2, #1
    d15c:	e3100003 	tst	r0, #3
    d160:	e5850014 	str	r0, [r5, #20]
    d164:	13a0201c 	movne	r2, #28
    d168:	1a000011 	bne	d1b4 <mktime+0x8e4>
    d16c:	e0cc109a 	smull	r1, ip, sl, r0
    d170:	e1a01fc0 	asr	r1, r0, #31
    d174:	e06112cc 	rsb	r1, r1, ip, asr #5
    d178:	e3a0c064 	mov	ip, #100	; 0x64
    d17c:	e001019c 	mul	r1, ip, r1
    d180:	e1500001 	cmp	r0, r1
    d184:	13a0201d 	movne	r2, #29
    d188:	1a000009 	bne	d1b4 <mktime+0x8e4>
    d18c:	e2822e76 	add	r2, r2, #1888	; 0x760
    d190:	e282200d 	add	r2, r2, #13
    d194:	e0c0129a 	smull	r1, r0, sl, r2
    d198:	e1a01fc2 	asr	r1, r2, #31
    d19c:	e06113c0 	rsb	r1, r1, r0, asr #7
    d1a0:	e3a00e19 	mov	r0, #400	; 0x190
    d1a4:	e0010190 	mul	r1, r0, r1
    d1a8:	e1520001 	cmp	r2, r1
    d1ac:	13a0201c 	movne	r2, #28
    d1b0:	03a0201d 	moveq	r2, #29
    d1b4:	e3a00000 	mov	r0, #0
    d1b8:	eaffffa4 	b	d050 <mktime+0x780>
    d1bc:	e595300c 	ldr	r3, [r5, #12]
    d1c0:	e3a0201c 	mov	r2, #28
    d1c4:	e3530000 	cmp	r3, #0
    d1c8:	caffff9e 	bgt	d048 <mktime+0x778>
    d1cc:	e3a0a064 	mov	sl, #100	; 0x64
    d1d0:	e59fe1e8 	ldr	lr, [pc, #488]	; d3c0 <mktime+0xaf0>
    d1d4:	ea000006 	b	d1f4 <mktime+0x924>
    d1d8:	e3510001 	cmp	r1, #1
    d1dc:	01a00002 	moveq	r0, r2
    d1e0:	0a000000 	beq	d1e8 <mktime+0x918>
    d1e4:	e79b0101 	ldr	r0, [fp, r1, lsl #2]
    d1e8:	e0833000 	add	r3, r3, r0
    d1ec:	e3530000 	cmp	r3, #0
    d1f0:	caffffac 	bgt	d0a8 <mktime+0x7d8>
    d1f4:	e2511001 	subs	r1, r1, #1
    d1f8:	2afffff6 	bcs	d1d8 <mktime+0x908>
    d1fc:	e5952014 	ldr	r2, [r5, #20]
    d200:	e2420001 	sub	r0, r2, #1
    d204:	e3100003 	tst	r0, #3
    d208:	e5850014 	str	r0, [r5, #20]
    d20c:	13a0201c 	movne	r2, #28
    d210:	1a000010 	bne	d258 <mktime+0x988>
    d214:	e0cc109e 	smull	r1, ip, lr, r0
    d218:	e1a01fc0 	asr	r1, r0, #31
    d21c:	e06112cc 	rsb	r1, r1, ip, asr #5
    d220:	e001019a 	mul	r1, sl, r1
    d224:	e1500001 	cmp	r0, r1
    d228:	13a0201d 	movne	r2, #29
    d22c:	1a000009 	bne	d258 <mktime+0x988>
    d230:	e2822e76 	add	r2, r2, #1888	; 0x760
    d234:	e282200b 	add	r2, r2, #11
    d238:	e0c0129e 	smull	r1, r0, lr, r2
    d23c:	e1a01fc2 	asr	r1, r2, #31
    d240:	e06113c0 	rsb	r1, r1, r0, asr #7
    d244:	e3a00e19 	mov	r0, #400	; 0x190
    d248:	e0010190 	mul	r1, r0, r1
    d24c:	e1520001 	cmp	r2, r1
    d250:	13a0201c 	movne	r2, #28
    d254:	03a0201d 	moveq	r2, #29
    d258:	e3a0100b 	mov	r1, #11
    d25c:	eaffffe0 	b	d1e4 <mktime+0x914>
    d260:	e3a0200c 	mov	r2, #12
    d264:	e28d0010 	add	r0, sp, #16
    d268:	eb0000eb 	bl	d61c <div>
    d26c:	e59d1014 	ldr	r1, [sp, #20]
    d270:	e5952014 	ldr	r2, [r5, #20]
    d274:	e59d3010 	ldr	r3, [sp, #16]
    d278:	e3510000 	cmp	r1, #0
    d27c:	e0823003 	add	r3, r2, r3
    d280:	e5853014 	str	r3, [r5, #20]
    d284:	b281100c 	addlt	r1, r1, #12
    d288:	b2433001 	sublt	r3, r3, #1
    d28c:	a5851010 	strge	r1, [r5, #16]
    d290:	b5851010 	strlt	r1, [r5, #16]
    d294:	b5853014 	strlt	r3, [r5, #20]
    d298:	eaffff52 	b	cfe8 <mktime+0x718>
    d29c:	e3a02018 	mov	r2, #24
    d2a0:	e28d0010 	add	r0, sp, #16
    d2a4:	eb0000dc 	bl	d61c <div>
    d2a8:	e59d2014 	ldr	r2, [sp, #20]
    d2ac:	e595300c 	ldr	r3, [r5, #12]
    d2b0:	e59d1010 	ldr	r1, [sp, #16]
    d2b4:	e3520000 	cmp	r2, #0
    d2b8:	e0833001 	add	r3, r3, r1
    d2bc:	e585300c 	str	r3, [r5, #12]
    d2c0:	b2822018 	addlt	r2, r2, #24
    d2c4:	b2433001 	sublt	r3, r3, #1
    d2c8:	a5852008 	strge	r2, [r5, #8]
    d2cc:	b5852008 	strlt	r2, [r5, #8]
    d2d0:	b585300c 	strlt	r3, [r5, #12]
    d2d4:	eaffff3f 	b	cfd8 <mktime+0x708>
    d2d8:	e3a0203c 	mov	r2, #60	; 0x3c
    d2dc:	e28d0010 	add	r0, sp, #16
    d2e0:	eb0000cd 	bl	d61c <div>
    d2e4:	e59d2014 	ldr	r2, [sp, #20]
    d2e8:	e5953008 	ldr	r3, [r5, #8]
    d2ec:	e59d1010 	ldr	r1, [sp, #16]
    d2f0:	e3520000 	cmp	r2, #0
    d2f4:	e0831001 	add	r1, r3, r1
    d2f8:	e5851008 	str	r1, [r5, #8]
    d2fc:	b282203c 	addlt	r2, r2, #60	; 0x3c
    d300:	b2411001 	sublt	r1, r1, #1
    d304:	a5852004 	strge	r2, [r5, #4]
    d308:	b5852004 	strlt	r2, [r5, #4]
    d30c:	b5851008 	strlt	r1, [r5, #8]
    d310:	eaffff2e 	b	cfd0 <mktime+0x700>
    d314:	e3a0203c 	mov	r2, #60	; 0x3c
    d318:	e28d0010 	add	r0, sp, #16
    d31c:	eb0000be 	bl	d61c <div>
    d320:	e59d2014 	ldr	r2, [sp, #20]
    d324:	e5953004 	ldr	r3, [r5, #4]
    d328:	e59d1010 	ldr	r1, [sp, #16]
    d32c:	e3520000 	cmp	r2, #0
    d330:	e0831001 	add	r1, r3, r1
    d334:	e5851004 	str	r1, [r5, #4]
    d338:	b282203c 	addlt	r2, r2, #60	; 0x3c
    d33c:	b2411001 	sublt	r1, r1, #1
    d340:	a5852000 	strge	r2, [r5]
    d344:	b5852000 	strlt	r2, [r5]
    d348:	b5851004 	strlt	r1, [r5, #4]
    d34c:	eaffff1c 	b	cfc4 <mktime+0x6f4>
    d350:	e2463001 	sub	r3, r6, #1
    d354:	e3130003 	tst	r3, #3
    d358:	13a03f5b 	movne	r3, #364	; 0x16c
    d35c:	1affff77 	bne	d140 <mktime+0x870>
    d360:	e3a01064 	mov	r1, #100	; 0x64
    d364:	e59f2054 	ldr	r2, [pc, #84]	; d3c0 <mktime+0xaf0>
    d368:	e1a00fc3 	asr	r0, r3, #31
    d36c:	e0cce392 	smull	lr, ip, r2, r3
    d370:	e06002cc 	rsb	r0, r0, ip, asr #5
    d374:	e0010091 	mul	r1, r1, r0
    d378:	e1530001 	cmp	r3, r1
    d37c:	159f3048 	ldrne	r3, [pc, #72]	; d3cc <mktime+0xafc>
    d380:	1affff6e 	bne	d140 <mktime+0x870>
    d384:	e3a01e19 	mov	r1, #400	; 0x190
    d388:	e2863e76 	add	r3, r6, #1888	; 0x760
    d38c:	e283300b 	add	r3, r3, #11
    d390:	e0c20392 	smull	r0, r2, r2, r3
    d394:	e1a00fc3 	asr	r0, r3, #31
    d398:	e06023c2 	rsb	r2, r0, r2, asr #7
    d39c:	e0010291 	mul	r1, r1, r2
    d3a0:	e59f2024 	ldr	r2, [pc, #36]	; d3cc <mktime+0xafc>
    d3a4:	e1530001 	cmp	r3, r1
    d3a8:	01a03002 	moveq	r3, r2
    d3ac:	13a03f5b 	movne	r3, #364	; 0x16c
    d3b0:	eaffff62 	b	d140 <mktime+0x870>
    d3b4:	e3730001 	cmn	r3, #1
    d3b8:	b3a03001 	movlt	r3, #1
    d3bc:	eaffff41 	b	d0c8 <mktime+0x7f8>
    d3c0:	51eb851f 	mvnpl	r8, pc, lsl r5
    d3c4:	0000e454 	andeq	lr, r0, r4, asr r4
    d3c8:	00004e20 	andeq	r4, r0, r0, lsr #28
    d3cc:	0000016d 	andeq	r0, r0, sp, ror #2
    d3d0:	0000016e 	andeq	r0, r0, lr, ror #2
    d3d4:	00015180 	andeq	r5, r1, r0, lsl #3
    d3d8:	00010f24 	andeq	r0, r1, r4, lsr #30
    d3dc:	92492493 	subls	r2, r9, #-1828716544	; 0x93000000

0000d3e0 <__tzcalc_limits>:
    d3e0:	e92d4ff8 	push	{r3, r4, r5, r6, r7, r8, r9, sl, fp, lr}
    d3e4:	e1a05000 	mov	r5, r0
    d3e8:	eb0000a3 	bl	d67c <__gettzinfo>
    d3ec:	e59f320c 	ldr	r3, [pc, #524]	; d600 <__tzcalc_limits+0x220>
    d3f0:	e1550003 	cmp	r5, r3
    d3f4:	da000067 	ble	d598 <__tzcalc_limits+0x1b8>
    d3f8:	e3a03e19 	mov	r3, #400	; 0x190
    d3fc:	e59f4200 	ldr	r4, [pc, #512]	; d604 <__tzcalc_limits+0x224>
    d400:	e1a06fc5 	asr	r6, r5, #31
    d404:	e0c92594 	smull	r2, r9, r4, r5
    d408:	e066a3c9 	rsb	sl, r6, r9, asr #7
    d40c:	e00a0a93 	mul	sl, r3, sl
    d410:	e06692c9 	rsb	r9, r6, r9, asr #5
    d414:	e3a06064 	mov	r6, #100	; 0x64
    d418:	e06aa005 	rsb	sl, sl, r5
    d41c:	e1a08000 	mov	r8, r0
    d420:	e16faf1a 	clz	sl, sl
    d424:	e2451e76 	sub	r1, r5, #1888	; 0x760
    d428:	e245ce7b 	sub	ip, r5, #1968	; 0x7b0
    d42c:	e241100d 	sub	r1, r1, #13
    d430:	e2452d19 	sub	r2, r5, #1600	; 0x640
    d434:	e24c3002 	sub	r3, ip, #2
    d438:	e2422001 	sub	r2, r2, #1
    d43c:	e1a0e000 	mov	lr, r0
    d440:	e0c0b194 	smull	fp, r0, r4, r1
    d444:	e083b183 	add	fp, r3, r3, lsl #3
    d448:	e0c47294 	smull	r7, r4, r4, r2
    d44c:	e083318b 	add	r3, r3, fp, lsl #3
    d450:	e0090996 	mul	r9, r6, r9
    d454:	e24cc001 	sub	ip, ip, #1
    d458:	e0833103 	add	r3, r3, r3, lsl #2
    d45c:	e1a01fc1 	asr	r1, r1, #31
    d460:	e04112c0 	sub	r1, r1, r0, asr #5
    d464:	e083314c 	add	r3, r3, ip, asr #2
    d468:	e1a02fc2 	asr	r2, r2, #31
    d46c:	e0833001 	add	r3, r3, r1
    d470:	e06243c4 	rsb	r4, r2, r4, asr #7
    d474:	e59fb18c 	ldr	fp, [pc, #396]	; d608 <__tzcalc_limits+0x228>
    d478:	e5885004 	str	r5, [r8, #4]
    d47c:	e0699005 	rsb	r9, r9, r5
    d480:	e1a0a2aa 	lsr	sl, sl, #5
    d484:	e0834004 	add	r4, r3, r4
    d488:	e2055003 	and	r5, r5, #3
    d48c:	e2880038 	add	r0, r8, #56	; 0x38
    d490:	e5de3008 	ldrb	r3, [lr, #8]
    d494:	e353004a 	cmp	r3, #74	; 0x4a
    d498:	0a000040 	beq	d5a0 <__tzcalc_limits+0x1c0>
    d49c:	e3530044 	cmp	r3, #68	; 0x44
    d4a0:	0a000051 	beq	d5ec <__tzcalc_limits+0x20c>
    d4a4:	e3550000 	cmp	r5, #0
    d4a8:	11a0c00a 	movne	ip, sl
    d4ac:	0a000035 	beq	d588 <__tzcalc_limits+0x1a8>
    d4b0:	e1a0308c 	lsl	r3, ip, #1
    d4b4:	e59e600c 	ldr	r6, [lr, #12]
    d4b8:	e083c00c 	add	ip, r3, ip
    d4bc:	e59f3148 	ldr	r3, [pc, #328]	; d60c <__tzcalc_limits+0x22c>
    d4c0:	e3560001 	cmp	r6, #1
    d4c4:	e1a01004 	mov	r1, r4
    d4c8:	e083c20c 	add	ip, r3, ip, lsl #4
    d4cc:	da000049 	ble	d5f8 <__tzcalc_limits+0x218>
    d4d0:	e246610b 	sub	r6, r6, #-1073741822	; 0xc0000002
    d4d4:	e1a07106 	lsl	r7, r6, #2
    d4d8:	e08c6007 	add	r6, ip, r7
    d4dc:	e24c3004 	sub	r3, ip, #4
    d4e0:	e5b32004 	ldr	r2, [r3, #4]!
    d4e4:	e1530006 	cmp	r3, r6
    d4e8:	e0811002 	add	r1, r1, r2
    d4ec:	1afffffb 	bne	d4e0 <__tzcalc_limits+0x100>
    d4f0:	e2876004 	add	r6, r7, #4
    d4f4:	e59f3114 	ldr	r3, [pc, #276]	; d610 <__tzcalc_limits+0x230>
    d4f8:	e2812004 	add	r2, r1, #4
    d4fc:	e0c37293 	smull	r7, r3, r3, r2
    d500:	e1a07fc2 	asr	r7, r2, #31
    d504:	e0833002 	add	r3, r3, r2
    d508:	e0673143 	rsb	r3, r7, r3, asr #2
    d50c:	e0633183 	rsb	r3, r3, r3, lsl #3
    d510:	e59e7014 	ldr	r7, [lr, #20]
    d514:	e0632002 	rsb	r2, r3, r2
    d518:	e0573002 	subs	r3, r7, r2
    d51c:	e59e2010 	ldr	r2, [lr, #16]
    d520:	42833007 	addmi	r3, r3, #7
    d524:	e2422001 	sub	r2, r2, #1
    d528:	e79cc006 	ldr	ip, [ip, r6]
    d52c:	e0622182 	rsb	r2, r2, r2, lsl #3
    d530:	e0823003 	add	r3, r2, r3
    d534:	e153000c 	cmp	r3, ip
    d538:	ba000002 	blt	d548 <__tzcalc_limits+0x168>
    d53c:	e2433007 	sub	r3, r3, #7
    d540:	e153000c 	cmp	r3, ip
    d544:	aafffffc 	bge	d53c <__tzcalc_limits+0x15c>
    d548:	e0811003 	add	r1, r1, r3
    d54c:	e59e3018 	ldr	r3, [lr, #24]
    d550:	e59e2020 	ldr	r2, [lr, #32]
    d554:	e023319b 	mla	r3, fp, r1, r3
    d558:	e0833002 	add	r3, r3, r2
    d55c:	e5ae301c 	str	r3, [lr, #28]!
    d560:	e15e0000 	cmp	lr, r0
    d564:	1affffc9 	bne	d490 <__tzcalc_limits+0xb0>
    d568:	e598301c 	ldr	r3, [r8, #28]
    d56c:	e5982038 	ldr	r2, [r8, #56]	; 0x38
    d570:	e3a00001 	mov	r0, #1
    d574:	e1530002 	cmp	r3, r2
    d578:	a3a03000 	movge	r3, #0
    d57c:	b3a03001 	movlt	r3, #1
    d580:	e5883000 	str	r3, [r8]
    d584:	e8bd8ff8 	pop	{r3, r4, r5, r6, r7, r8, r9, sl, fp, pc}
    d588:	e3590000 	cmp	r9, #0
    d58c:	01a0c00a 	moveq	ip, sl
    d590:	13a0c001 	movne	ip, #1
    d594:	eaffffc5 	b	d4b0 <__tzcalc_limits+0xd0>
    d598:	e3a00000 	mov	r0, #0
    d59c:	e8bd8ff8 	pop	{r3, r4, r5, r6, r7, r8, r9, sl, fp, pc}
    d5a0:	e59e3014 	ldr	r3, [lr, #20]
    d5a4:	e3550000 	cmp	r5, #0
    d5a8:	e0832004 	add	r2, r3, r4
    d5ac:	1a000007 	bne	d5d0 <__tzcalc_limits+0x1f0>
    d5b0:	e3590000 	cmp	r9, #0
    d5b4:	0a000005 	beq	d5d0 <__tzcalc_limits+0x1f0>
    d5b8:	e353003b 	cmp	r3, #59	; 0x3b
    d5bc:	d3a03000 	movle	r3, #0
    d5c0:	c3a03001 	movgt	r3, #1
    d5c4:	e0823003 	add	r3, r2, r3
    d5c8:	e2431001 	sub	r1, r3, #1
    d5cc:	eaffffde 	b	d54c <__tzcalc_limits+0x16c>
    d5d0:	e35a0000 	cmp	sl, #0
    d5d4:	01a0300a 	moveq	r3, sl
    d5d8:	0afffff9 	beq	d5c4 <__tzcalc_limits+0x1e4>
    d5dc:	e353003b 	cmp	r3, #59	; 0x3b
    d5e0:	d3a03000 	movle	r3, #0
    d5e4:	c3a03001 	movgt	r3, #1
    d5e8:	eafffff5 	b	d5c4 <__tzcalc_limits+0x1e4>
    d5ec:	e59e3014 	ldr	r3, [lr, #20]
    d5f0:	e0841003 	add	r1, r4, r3
    d5f4:	eaffffd4 	b	d54c <__tzcalc_limits+0x16c>
    d5f8:	e3a06000 	mov	r6, #0
    d5fc:	eaffffbc 	b	d4f4 <__tzcalc_limits+0x114>
    d600:	000007b1 			; <UNDEFINED> instruction: 0x000007b1
    d604:	51eb851f 	mvnpl	r8, pc, lsl r5
    d608:	00015180 	andeq	r5, r1, r0, lsl #3
    d60c:	0000e4b4 			; <UNDEFINED> instruction: 0x0000e4b4
    d610:	92492493 	subls	r2, r9, #-1828716544	; 0x93000000

0000d614 <__tz_lock>:
    d614:	e12fff1e 	bx	lr

0000d618 <__tz_unlock>:
    d618:	e12fff1e 	bx	lr

0000d61c <div>:
    d61c:	e92d40f8 	push	{r3, r4, r5, r6, r7, lr}
    d620:	e1a05001 	mov	r5, r1
    d624:	e1a04000 	mov	r4, r0
    d628:	e1a01002 	mov	r1, r2
    d62c:	e1a00005 	mov	r0, r5
    d630:	e1a06002 	mov	r6, r2
    d634:	eb00009a 	bl	d8a4 <__aeabi_idiv>
    d638:	e1a01006 	mov	r1, r6
    d63c:	e1a07000 	mov	r7, r0
    d640:	e1a00005 	mov	r0, r5
    d644:	eb00011e 	bl	dac4 <__aeabi_idivmod>
    d648:	e3550000 	cmp	r5, #0
    d64c:	ba000006 	blt	d66c <div+0x50>
    d650:	e3510000 	cmp	r1, #0
    d654:	b2877001 	addlt	r7, r7, #1
    d658:	b0661001 	rsblt	r1, r6, r1
    d65c:	e5847000 	str	r7, [r4]
    d660:	e5841004 	str	r1, [r4, #4]
    d664:	e1a00004 	mov	r0, r4
    d668:	e8bd80f8 	pop	{r3, r4, r5, r6, r7, pc}
    d66c:	e3510000 	cmp	r1, #0
    d670:	c2477001 	subgt	r7, r7, #1
    d674:	c0811006 	addgt	r1, r1, r6
    d678:	eafffff7 	b	d65c <div+0x40>

0000d67c <__gettzinfo>:
    d67c:	e59f0000 	ldr	r0, [pc]	; d684 <__gettzinfo+0x8>
    d680:	e12fff1e 	bx	lr
    d684:	0000ec20 	andeq	lr, r0, r0, lsr #24

0000d688 <gmtime_r>:
    d688:	e92d4070 	push	{r4, r5, r6, lr}
    d68c:	e3a0eee1 	mov	lr, #3600	; 0xe10
    d690:	e590c000 	ldr	ip, [r0]
    d694:	e59f21d8 	ldr	r2, [pc, #472]	; d874 <gmtime_r+0x1ec>
    d698:	e1a03fcc 	asr	r3, ip, #31
    d69c:	e0c20c92 	smull	r0, r2, r2, ip
    d6a0:	e59f01d0 	ldr	r0, [pc, #464]	; d878 <gmtime_r+0x1f0>
    d6a4:	e082200c 	add	r2, r2, ip
    d6a8:	e0632842 	rsb	r2, r3, r2, asr #16
    d6ac:	e0000290 	mul	r0, r0, r2
    d6b0:	e05c0000 	subs	r0, ip, r0
    d6b4:	42800a15 	addmi	r0, r0, #86016	; 0x15000
    d6b8:	e59f31bc 	ldr	r3, [pc, #444]	; d87c <gmtime_r+0x1f4>
    d6bc:	42800d06 	addmi	r0, r0, #384	; 0x180
    d6c0:	e0c3c093 	smull	ip, r3, r3, r0
    d6c4:	e1a05fc0 	asr	r5, r0, #31
    d6c8:	e0833000 	add	r3, r3, r0
    d6cc:	e06555c3 	rsb	r5, r5, r3, asr #11
    d6d0:	e00e059e 	mul	lr, lr, r5
    d6d4:	52422c2b 	subpl	r2, r2, #11008	; 0x2b00
    d6d8:	42422c2b 	submi	r2, r2, #11008	; 0x2b00
    d6dc:	52422009 	subpl	r2, r2, #9
    d6e0:	4242200a 	submi	r2, r2, #10
    d6e4:	e59f3194 	ldr	r3, [pc, #404]	; d880 <gmtime_r+0x1f8>
    d6e8:	e06e0000 	rsb	r0, lr, r0
    d6ec:	e59fc190 	ldr	ip, [pc, #400]	; d884 <gmtime_r+0x1fc>
    d6f0:	e282e003 	add	lr, r2, #3
    d6f4:	e0c34e93 	smull	r4, r3, r3, lr
    d6f8:	e0cc409c 	smull	r4, ip, ip, r0
    d6fc:	e083400e 	add	r4, r3, lr
    d700:	e1a03fce 	asr	r3, lr, #31
    d704:	e08c6000 	add	r6, ip, r0
    d708:	e0633144 	rsb	r3, r3, r4, asr #2
    d70c:	e1a0cfc0 	asr	ip, r0, #31
    d710:	e06cc2c6 	rsb	ip, ip, r6, asr #5
    d714:	e0633183 	rsb	r3, r3, r3, lsl #3
    d718:	e05e3003 	subs	r3, lr, r3
    d71c:	e06c420c 	rsb	r4, ip, ip, lsl #4
    d720:	e0400104 	sub	r0, r0, r4, lsl #2
    d724:	42833007 	addmi	r3, r3, #7
    d728:	e3520000 	cmp	r2, #0
    d72c:	e8811001 	stm	r1, {r0, ip}
    d730:	a3a00000 	movge	r0, #0
    d734:	b2822b8e 	addlt	r2, r2, #145408	; 0x23800
    d738:	b2822e2b 	addlt	r2, r2, #688	; 0x2b0
    d73c:	b59f0144 	ldrlt	r0, [pc, #324]	; d888 <gmtime_r+0x200>
    d740:	b2822001 	addlt	r2, r2, #1
    d744:	e59fe140 	ldr	lr, [pc, #320]	; d88c <gmtime_r+0x204>
    d748:	e0822000 	add	r2, r2, r0
    d74c:	a1a04000 	movge	r4, r0
    d750:	e0c0c29e 	smull	ip, r0, lr, r2
    d754:	e1a0efc2 	asr	lr, r2, #31
    d758:	e59fc130 	ldr	ip, [pc, #304]	; d890 <gmtime_r+0x208>
    d75c:	e06ee3c0 	rsb	lr, lr, r0, asr #7
    d760:	e0222e9c 	mla	r2, ip, lr, r2
    d764:	e59fc128 	ldr	ip, [pc, #296]	; d894 <gmtime_r+0x20c>
    d768:	e5815008 	str	r5, [r1, #8]
    d76c:	e0cc529c 	smull	r5, ip, ip, r2
    d770:	e1a00fc2 	asr	r0, r2, #31
    d774:	e08cc002 	add	ip, ip, r2
    d778:	e060c44c 	rsb	ip, r0, ip, asr #8
    d77c:	e5813018 	str	r3, [r1, #24]
    d780:	b3a04003 	movlt	r4, #3
    d784:	b59f310c 	ldrlt	r3, [pc, #268]	; d898 <gmtime_r+0x210>
    d788:	a3a03e7d 	movge	r3, #2000	; 0x7d0
    d78c:	e35c0004 	cmp	ip, #4
    d790:	0a00002f 	beq	d854 <gmtime_r+0x1cc>
    d794:	e3e00f5b 	mvn	r0, #364	; 0x16c
    d798:	e083310e 	add	r3, r3, lr, lsl #2
    d79c:	e35c0000 	cmp	ip, #0
    d7a0:	e08c3003 	add	r3, ip, r3
    d7a4:	e0222c90 	mla	r2, r0, ip, r2
    d7a8:	1a000025 	bne	d844 <gmtime_r+0x1bc>
    d7ac:	e16f4f14 	clz	r4, r4
    d7b0:	e1a042a4 	lsr	r4, r4, #5
    d7b4:	e35e0000 	cmp	lr, #0
    d7b8:	13844001 	orrne	r4, r4, #1
    d7bc:	e2400001 	sub	r0, r0, #1
    d7c0:	e3540000 	cmp	r4, #0
    d7c4:	e59fe0d0 	ldr	lr, [pc, #208]	; d89c <gmtime_r+0x214>
    d7c8:	11a0c000 	movne	ip, r0
    d7cc:	03e0cf5b 	mvneq	ip, #364	; 0x16c
    d7d0:	03a0ef5b 	moveq	lr, #364	; 0x16c
    d7d4:	13a00001 	movne	r0, #1
    d7d8:	03a00000 	moveq	r0, #0
    d7dc:	e282403b 	add	r4, r2, #59	; 0x3b
    d7e0:	e0800004 	add	r0, r0, r4
    d7e4:	e150000e 	cmp	r0, lr
    d7e8:	c2833001 	addgt	r3, r3, #1
    d7ec:	e2433e76 	sub	r3, r3, #1888	; 0x760
    d7f0:	e243300c 	sub	r3, r3, #12
    d7f4:	c080000c 	addgt	r0, r0, ip
    d7f8:	e5813014 	str	r3, [r1, #20]
    d7fc:	e581001c 	str	r0, [r1, #28]
    d800:	e3a03002 	mov	r3, #2
    d804:	e59fe094 	ldr	lr, [pc, #148]	; d8a0 <gmtime_r+0x218>
    d808:	ea000003 	b	d81c <gmtime_r+0x194>
    d80c:	e2833001 	add	r3, r3, #1
    d810:	e353000b 	cmp	r3, #11
    d814:	c3a03000 	movgt	r3, #0
    d818:	e06c2002 	rsb	r2, ip, r2
    d81c:	e79ec103 	ldr	ip, [lr, r3, lsl #2]
    d820:	e152000c 	cmp	r2, ip
    d824:	aafffff8 	bge	d80c <gmtime_r+0x184>
    d828:	e3a00000 	mov	r0, #0
    d82c:	e2822001 	add	r2, r2, #1
    d830:	e5810020 	str	r0, [r1, #32]
    d834:	e581200c 	str	r2, [r1, #12]
    d838:	e5813010 	str	r3, [r1, #16]
    d83c:	e1a00001 	mov	r0, r1
    d840:	e8bd8070 	pop	{r4, r5, r6, pc}
    d844:	e1a0c000 	mov	ip, r0
    d848:	e3a0ef5b 	mov	lr, #364	; 0x16c
    d84c:	e3a00000 	mov	r0, #0
    d850:	eaffffe1 	b	d7dc <gmtime_r+0x154>
    d854:	e083310e 	add	r3, r3, lr, lsl #2
    d858:	e2422d11 	sub	r2, r2, #1088	; 0x440
    d85c:	e2422007 	sub	r2, r2, #7
    d860:	e2833003 	add	r3, r3, #3
    d864:	e3e0cf5b 	mvn	ip, #364	; 0x16c
    d868:	e3a0ef5b 	mov	lr, #364	; 0x16c
    d86c:	e3a00000 	mov	r0, #0
    d870:	eaffffd9 	b	d7dc <gmtime_r+0x154>
    d874:	c22e4507 	eorgt	r4, lr, #29360128	; 0x1c00000
    d878:	00015180 	andeq	r5, r1, r0, lsl #3
    d87c:	91a2b3c5 			; <UNDEFINED> instruction: 0x91a2b3c5
    d880:	92492493 	subls	r2, r9, #-1828716544	; 0x93000000
    d884:	88888889 	stmhi	r8, {r0, r3, r7, fp, pc}
    d888:	fffe53fc 			; <UNDEFINED> instruction: 0xfffe53fc
    d88c:	166db073 			; <UNDEFINED> instruction: 0x166db073
    d890:	fffffa4b 			; <UNDEFINED> instruction: 0xfffffa4b
    d894:	b38cf9b1 	orrlt	pc, ip, #2899968	; 0x2c4000
    d898:	0000076c 	andeq	r0, r0, ip, ror #14
    d89c:	0000016d 	andeq	r0, r0, sp, ror #2
    d8a0:	0000e4e4 	andeq	lr, r0, r4, ror #9

0000d8a4 <__aeabi_idiv>:
    d8a4:	e3510000 	cmp	r1, #0
    d8a8:	0a000081 	beq	dab4 <.divsi3_skip_div0_test+0x208>

0000d8ac <.divsi3_skip_div0_test>:
    d8ac:	e020c001 	eor	ip, r0, r1
    d8b0:	42611000 	rsbmi	r1, r1, #0
    d8b4:	e2512001 	subs	r2, r1, #1
    d8b8:	0a000070 	beq	da80 <.divsi3_skip_div0_test+0x1d4>
    d8bc:	e1b03000 	movs	r3, r0
    d8c0:	42603000 	rsbmi	r3, r0, #0
    d8c4:	e1530001 	cmp	r3, r1
    d8c8:	9a00006f 	bls	da8c <.divsi3_skip_div0_test+0x1e0>
    d8cc:	e1110002 	tst	r1, r2
    d8d0:	0a000071 	beq	da9c <.divsi3_skip_div0_test+0x1f0>
    d8d4:	e16f2f13 	clz	r2, r3
    d8d8:	e16f0f11 	clz	r0, r1
    d8dc:	e0402002 	sub	r2, r0, r2
    d8e0:	e272201f 	rsbs	r2, r2, #31
    d8e4:	10822082 	addne	r2, r2, r2, lsl #1
    d8e8:	e3a00000 	mov	r0, #0
    d8ec:	108ff102 	addne	pc, pc, r2, lsl #2
    d8f0:	e320f000 	nop	{0}
    d8f4:	e1530f81 	cmp	r3, r1, lsl #31
    d8f8:	e0a00000 	adc	r0, r0, r0
    d8fc:	20433f81 	subcs	r3, r3, r1, lsl #31
    d900:	e1530f01 	cmp	r3, r1, lsl #30
    d904:	e0a00000 	adc	r0, r0, r0
    d908:	20433f01 	subcs	r3, r3, r1, lsl #30
    d90c:	e1530e81 	cmp	r3, r1, lsl #29
    d910:	e0a00000 	adc	r0, r0, r0
    d914:	20433e81 	subcs	r3, r3, r1, lsl #29
    d918:	e1530e01 	cmp	r3, r1, lsl #28
    d91c:	e0a00000 	adc	r0, r0, r0
    d920:	20433e01 	subcs	r3, r3, r1, lsl #28
    d924:	e1530d81 	cmp	r3, r1, lsl #27
    d928:	e0a00000 	adc	r0, r0, r0
    d92c:	20433d81 	subcs	r3, r3, r1, lsl #27
    d930:	e1530d01 	cmp	r3, r1, lsl #26
    d934:	e0a00000 	adc	r0, r0, r0
    d938:	20433d01 	subcs	r3, r3, r1, lsl #26
    d93c:	e1530c81 	cmp	r3, r1, lsl #25
    d940:	e0a00000 	adc	r0, r0, r0
    d944:	20433c81 	subcs	r3, r3, r1, lsl #25
    d948:	e1530c01 	cmp	r3, r1, lsl #24
    d94c:	e0a00000 	adc	r0, r0, r0
    d950:	20433c01 	subcs	r3, r3, r1, lsl #24
    d954:	e1530b81 	cmp	r3, r1, lsl #23
    d958:	e0a00000 	adc	r0, r0, r0
    d95c:	20433b81 	subcs	r3, r3, r1, lsl #23
    d960:	e1530b01 	cmp	r3, r1, lsl #22
    d964:	e0a00000 	adc	r0, r0, r0
    d968:	20433b01 	subcs	r3, r3, r1, lsl #22
    d96c:	e1530a81 	cmp	r3, r1, lsl #21
    d970:	e0a00000 	adc	r0, r0, r0
    d974:	20433a81 	subcs	r3, r3, r1, lsl #21
    d978:	e1530a01 	cmp	r3, r1, lsl #20
    d97c:	e0a00000 	adc	r0, r0, r0
    d980:	20433a01 	subcs	r3, r3, r1, lsl #20
    d984:	e1530981 	cmp	r3, r1, lsl #19
    d988:	e0a00000 	adc	r0, r0, r0
    d98c:	20433981 	subcs	r3, r3, r1, lsl #19
    d990:	e1530901 	cmp	r3, r1, lsl #18
    d994:	e0a00000 	adc	r0, r0, r0
    d998:	20433901 	subcs	r3, r3, r1, lsl #18
    d99c:	e1530881 	cmp	r3, r1, lsl #17
    d9a0:	e0a00000 	adc	r0, r0, r0
    d9a4:	20433881 	subcs	r3, r3, r1, lsl #17
    d9a8:	e1530801 	cmp	r3, r1, lsl #16
    d9ac:	e0a00000 	adc	r0, r0, r0
    d9b0:	20433801 	subcs	r3, r3, r1, lsl #16
    d9b4:	e1530781 	cmp	r3, r1, lsl #15
    d9b8:	e0a00000 	adc	r0, r0, r0
    d9bc:	20433781 	subcs	r3, r3, r1, lsl #15
    d9c0:	e1530701 	cmp	r3, r1, lsl #14
    d9c4:	e0a00000 	adc	r0, r0, r0
    d9c8:	20433701 	subcs	r3, r3, r1, lsl #14
    d9cc:	e1530681 	cmp	r3, r1, lsl #13
    d9d0:	e0a00000 	adc	r0, r0, r0
    d9d4:	20433681 	subcs	r3, r3, r1, lsl #13
    d9d8:	e1530601 	cmp	r3, r1, lsl #12
    d9dc:	e0a00000 	adc	r0, r0, r0
    d9e0:	20433601 	subcs	r3, r3, r1, lsl #12
    d9e4:	e1530581 	cmp	r3, r1, lsl #11
    d9e8:	e0a00000 	adc	r0, r0, r0
    d9ec:	20433581 	subcs	r3, r3, r1, lsl #11
    d9f0:	e1530501 	cmp	r3, r1, lsl #10
    d9f4:	e0a00000 	adc	r0, r0, r0
    d9f8:	20433501 	subcs	r3, r3, r1, lsl #10
    d9fc:	e1530481 	cmp	r3, r1, lsl #9
    da00:	e0a00000 	adc	r0, r0, r0
    da04:	20433481 	subcs	r3, r3, r1, lsl #9
    da08:	e1530401 	cmp	r3, r1, lsl #8
    da0c:	e0a00000 	adc	r0, r0, r0
    da10:	20433401 	subcs	r3, r3, r1, lsl #8
    da14:	e1530381 	cmp	r3, r1, lsl #7
    da18:	e0a00000 	adc	r0, r0, r0
    da1c:	20433381 	subcs	r3, r3, r1, lsl #7
    da20:	e1530301 	cmp	r3, r1, lsl #6
    da24:	e0a00000 	adc	r0, r0, r0
    da28:	20433301 	subcs	r3, r3, r1, lsl #6
    da2c:	e1530281 	cmp	r3, r1, lsl #5
    da30:	e0a00000 	adc	r0, r0, r0
    da34:	20433281 	subcs	r3, r3, r1, lsl #5
    da38:	e1530201 	cmp	r3, r1, lsl #4
    da3c:	e0a00000 	adc	r0, r0, r0
    da40:	20433201 	subcs	r3, r3, r1, lsl #4
    da44:	e1530181 	cmp	r3, r1, lsl #3
    da48:	e0a00000 	adc	r0, r0, r0
    da4c:	20433181 	subcs	r3, r3, r1, lsl #3
    da50:	e1530101 	cmp	r3, r1, lsl #2
    da54:	e0a00000 	adc	r0, r0, r0
    da58:	20433101 	subcs	r3, r3, r1, lsl #2
    da5c:	e1530081 	cmp	r3, r1, lsl #1
    da60:	e0a00000 	adc	r0, r0, r0
    da64:	20433081 	subcs	r3, r3, r1, lsl #1
    da68:	e1530001 	cmp	r3, r1
    da6c:	e0a00000 	adc	r0, r0, r0
    da70:	20433001 	subcs	r3, r3, r1
    da74:	e35c0000 	cmp	ip, #0
    da78:	42600000 	rsbmi	r0, r0, #0
    da7c:	e12fff1e 	bx	lr
    da80:	e13c0000 	teq	ip, r0
    da84:	42600000 	rsbmi	r0, r0, #0
    da88:	e12fff1e 	bx	lr
    da8c:	33a00000 	movcc	r0, #0
    da90:	01a00fcc 	asreq	r0, ip, #31
    da94:	03800001 	orreq	r0, r0, #1
    da98:	e12fff1e 	bx	lr
    da9c:	e16f2f11 	clz	r2, r1
    daa0:	e262201f 	rsb	r2, r2, #31
    daa4:	e35c0000 	cmp	ip, #0
    daa8:	e1a00233 	lsr	r0, r3, r2
    daac:	42600000 	rsbmi	r0, r0, #0
    dab0:	e12fff1e 	bx	lr
    dab4:	e3500000 	cmp	r0, #0
    dab8:	c3e00102 	mvngt	r0, #-2147483648	; 0x80000000
    dabc:	b3a00102 	movlt	r0, #-2147483648	; 0x80000000
    dac0:	ea000007 	b	dae4 <__aeabi_idiv0>

0000dac4 <__aeabi_idivmod>:
    dac4:	e3510000 	cmp	r1, #0
    dac8:	0afffff9 	beq	dab4 <.divsi3_skip_div0_test+0x208>
    dacc:	e92d4003 	push	{r0, r1, lr}
    dad0:	ebffff75 	bl	d8ac <.divsi3_skip_div0_test>
    dad4:	e8bd4006 	pop	{r1, r2, lr}
    dad8:	e0030092 	mul	r3, r2, r0
    dadc:	e0411003 	sub	r1, r1, r3
    dae0:	e12fff1e 	bx	lr

0000dae4 <__aeabi_idiv0>:
    dae4:	e12fff1e 	bx	lr

0000dae8 <__aeabi_drsub>:
    dae8:	e2211102 	eor	r1, r1, #-2147483648	; 0x80000000
    daec:	ea000000 	b	daf4 <__adddf3>

0000daf0 <__aeabi_dsub>:
    daf0:	e2233102 	eor	r3, r3, #-2147483648	; 0x80000000

0000daf4 <__adddf3>:
    daf4:	e92d4030 	push	{r4, r5, lr}
    daf8:	e1a04081 	lsl	r4, r1, #1
    dafc:	e1a05083 	lsl	r5, r3, #1
    db00:	e1340005 	teq	r4, r5
    db04:	01300002 	teqeq	r0, r2
    db08:	1194c000 	orrsne	ip, r4, r0
    db0c:	1195c002 	orrsne	ip, r5, r2
    db10:	11f0cac4 	mvnsne	ip, r4, asr #21
    db14:	11f0cac5 	mvnsne	ip, r5, asr #21
    db18:	0a000079 	beq	dd04 <__adddf3+0x210>
    db1c:	e1a04aa4 	lsr	r4, r4, #21
    db20:	e0745aa5 	rsbs	r5, r4, r5, lsr #21
    db24:	b2655000 	rsblt	r5, r5, #0
    db28:	da000006 	ble	db48 <__adddf3+0x54>
    db2c:	e0844005 	add	r4, r4, r5
    db30:	e0202002 	eor	r2, r0, r2
    db34:	e0213003 	eor	r3, r1, r3
    db38:	e0220000 	eor	r0, r2, r0
    db3c:	e0231001 	eor	r1, r3, r1
    db40:	e0202002 	eor	r2, r0, r2
    db44:	e0213003 	eor	r3, r1, r3
    db48:	e3550036 	cmp	r5, #54	; 0x36
    db4c:	88bd8030 	pophi	{r4, r5, pc}
    db50:	e3110102 	tst	r1, #-2147483648	; 0x80000000
    db54:	e1a01601 	lsl	r1, r1, #12
    db58:	e3a0c601 	mov	ip, #1048576	; 0x100000
    db5c:	e18c1621 	orr	r1, ip, r1, lsr #12
    db60:	0a000001 	beq	db6c <__adddf3+0x78>
    db64:	e2700000 	rsbs	r0, r0, #0
    db68:	e2e11000 	rsc	r1, r1, #0
    db6c:	e3130102 	tst	r3, #-2147483648	; 0x80000000
    db70:	e1a03603 	lsl	r3, r3, #12
    db74:	e18c3623 	orr	r3, ip, r3, lsr #12
    db78:	0a000001 	beq	db84 <__adddf3+0x90>
    db7c:	e2722000 	rsbs	r2, r2, #0
    db80:	e2e33000 	rsc	r3, r3, #0
    db84:	e1340005 	teq	r4, r5
    db88:	0a000057 	beq	dcec <__adddf3+0x1f8>
    db8c:	e2444001 	sub	r4, r4, #1
    db90:	e275e020 	rsbs	lr, r5, #32
    db94:	ba000005 	blt	dbb0 <__adddf3+0xbc>
    db98:	e1a0ce12 	lsl	ip, r2, lr
    db9c:	e0900532 	adds	r0, r0, r2, lsr r5
    dba0:	e2a11000 	adc	r1, r1, #0
    dba4:	e0900e13 	adds	r0, r0, r3, lsl lr
    dba8:	e0b11553 	adcs	r1, r1, r3, asr r5
    dbac:	ea000006 	b	dbcc <__adddf3+0xd8>
    dbb0:	e2455020 	sub	r5, r5, #32
    dbb4:	e28ee020 	add	lr, lr, #32
    dbb8:	e3520001 	cmp	r2, #1
    dbbc:	e1a0ce13 	lsl	ip, r3, lr
    dbc0:	238cc002 	orrcs	ip, ip, #2
    dbc4:	e0900553 	adds	r0, r0, r3, asr r5
    dbc8:	e0b11fc3 	adcs	r1, r1, r3, asr #31
    dbcc:	e2015102 	and	r5, r1, #-2147483648	; 0x80000000
    dbd0:	5a000002 	bpl	dbe0 <__adddf3+0xec>
    dbd4:	e27cc000 	rsbs	ip, ip, #0
    dbd8:	e2f00000 	rscs	r0, r0, #0
    dbdc:	e2e11000 	rsc	r1, r1, #0
    dbe0:	e3510601 	cmp	r1, #1048576	; 0x100000
    dbe4:	3a00000e 	bcc	dc24 <__adddf3+0x130>
    dbe8:	e3510602 	cmp	r1, #2097152	; 0x200000
    dbec:	3a000006 	bcc	dc0c <__adddf3+0x118>
    dbf0:	e1b010a1 	lsrs	r1, r1, #1
    dbf4:	e1b00060 	rrxs	r0, r0
    dbf8:	e1a0c06c 	rrx	ip, ip
    dbfc:	e2844001 	add	r4, r4, #1
    dc00:	e1a02a84 	lsl	r2, r4, #21
    dc04:	e3720501 	cmn	r2, #4194304	; 0x400000
    dc08:	2a000055 	bcs	dd64 <__adddf3+0x270>
    dc0c:	e35c0102 	cmp	ip, #-2147483648	; 0x80000000
    dc10:	01b0c0a0 	lsrseq	ip, r0, #1
    dc14:	e2b00000 	adcs	r0, r0, #0
    dc18:	e0a11a04 	adc	r1, r1, r4, lsl #20
    dc1c:	e1811005 	orr	r1, r1, r5
    dc20:	e8bd8030 	pop	{r4, r5, pc}
    dc24:	e1b0c08c 	lsls	ip, ip, #1
    dc28:	e0b00000 	adcs	r0, r0, r0
    dc2c:	e0a11001 	adc	r1, r1, r1
    dc30:	e3110601 	tst	r1, #1048576	; 0x100000
    dc34:	e2444001 	sub	r4, r4, #1
    dc38:	1afffff3 	bne	dc0c <__adddf3+0x118>
    dc3c:	e3310000 	teq	r1, #0
    dc40:	01a01000 	moveq	r1, r0
    dc44:	03a00000 	moveq	r0, #0
    dc48:	e16f3f11 	clz	r3, r1
    dc4c:	02833020 	addeq	r3, r3, #32
    dc50:	e243300b 	sub	r3, r3, #11
    dc54:	e2532020 	subs	r2, r3, #32
    dc58:	aa000007 	bge	dc7c <__adddf3+0x188>
    dc5c:	e292200c 	adds	r2, r2, #12
    dc60:	da000004 	ble	dc78 <__adddf3+0x184>
    dc64:	e282c014 	add	ip, r2, #20
    dc68:	e262200c 	rsb	r2, r2, #12
    dc6c:	e1a00c11 	lsl	r0, r1, ip
    dc70:	e1a01231 	lsr	r1, r1, r2
    dc74:	ea000004 	b	dc8c <__adddf3+0x198>
    dc78:	e2822014 	add	r2, r2, #20
    dc7c:	d262c020 	rsble	ip, r2, #32
    dc80:	e1a01211 	lsl	r1, r1, r2
    dc84:	d1811c30 	orrle	r1, r1, r0, lsr ip
    dc88:	d1a00210 	lslle	r0, r0, r2
    dc8c:	e0544003 	subs	r4, r4, r3
    dc90:	a0811a04 	addge	r1, r1, r4, lsl #20
    dc94:	a1811005 	orrge	r1, r1, r5
    dc98:	a8bd8030 	popge	{r4, r5, pc}
    dc9c:	e1e04004 	mvn	r4, r4
    dca0:	e254401f 	subs	r4, r4, #31
    dca4:	aa00000d 	bge	dce0 <__adddf3+0x1ec>
    dca8:	e294400c 	adds	r4, r4, #12
    dcac:	ca000005 	bgt	dcc8 <__adddf3+0x1d4>
    dcb0:	e2844014 	add	r4, r4, #20
    dcb4:	e2642020 	rsb	r2, r4, #32
    dcb8:	e1a00430 	lsr	r0, r0, r4
    dcbc:	e1800211 	orr	r0, r0, r1, lsl r2
    dcc0:	e1851431 	orr	r1, r5, r1, lsr r4
    dcc4:	e8bd8030 	pop	{r4, r5, pc}
    dcc8:	e264400c 	rsb	r4, r4, #12
    dccc:	e2642020 	rsb	r2, r4, #32
    dcd0:	e1a00230 	lsr	r0, r0, r2
    dcd4:	e1800411 	orr	r0, r0, r1, lsl r4
    dcd8:	e1a01005 	mov	r1, r5
    dcdc:	e8bd8030 	pop	{r4, r5, pc}
    dce0:	e1a00431 	lsr	r0, r1, r4
    dce4:	e1a01005 	mov	r1, r5
    dce8:	e8bd8030 	pop	{r4, r5, pc}
    dcec:	e3340000 	teq	r4, #0
    dcf0:	e2233601 	eor	r3, r3, #1048576	; 0x100000
    dcf4:	02211601 	eoreq	r1, r1, #1048576	; 0x100000
    dcf8:	02844001 	addeq	r4, r4, #1
    dcfc:	12455001 	subne	r5, r5, #1
    dd00:	eaffffa1 	b	db8c <__adddf3+0x98>
    dd04:	e1f0cac4 	mvns	ip, r4, asr #21
    dd08:	11f0cac5 	mvnsne	ip, r5, asr #21
    dd0c:	0a000018 	beq	dd74 <__adddf3+0x280>
    dd10:	e1340005 	teq	r4, r5
    dd14:	01300002 	teqeq	r0, r2
    dd18:	0a000003 	beq	dd2c <__adddf3+0x238>
    dd1c:	e194c000 	orrs	ip, r4, r0
    dd20:	01a01003 	moveq	r1, r3
    dd24:	01a00002 	moveq	r0, r2
    dd28:	e8bd8030 	pop	{r4, r5, pc}
    dd2c:	e1310003 	teq	r1, r3
    dd30:	13a01000 	movne	r1, #0
    dd34:	13a00000 	movne	r0, #0
    dd38:	18bd8030 	popne	{r4, r5, pc}
    dd3c:	e1b0caa4 	lsrs	ip, r4, #21
    dd40:	1a000003 	bne	dd54 <__adddf3+0x260>
    dd44:	e1b00080 	lsls	r0, r0, #1
    dd48:	e0b11001 	adcs	r1, r1, r1
    dd4c:	23811102 	orrcs	r1, r1, #-2147483648	; 0x80000000
    dd50:	e8bd8030 	pop	{r4, r5, pc}
    dd54:	e2944501 	adds	r4, r4, #4194304	; 0x400000
    dd58:	32811601 	addcc	r1, r1, #1048576	; 0x100000
    dd5c:	38bd8030 	popcc	{r4, r5, pc}
    dd60:	e2015102 	and	r5, r1, #-2147483648	; 0x80000000
    dd64:	e385147f 	orr	r1, r5, #2130706432	; 0x7f000000
    dd68:	e381160f 	orr	r1, r1, #15728640	; 0xf00000
    dd6c:	e3a00000 	mov	r0, #0
    dd70:	e8bd8030 	pop	{r4, r5, pc}
    dd74:	e1f0cac4 	mvns	ip, r4, asr #21
    dd78:	11a01003 	movne	r1, r3
    dd7c:	11a00002 	movne	r0, r2
    dd80:	01f0cac5 	mvnseq	ip, r5, asr #21
    dd84:	11a03001 	movne	r3, r1
    dd88:	11a02000 	movne	r2, r0
    dd8c:	e1904601 	orrs	r4, r0, r1, lsl #12
    dd90:	01925603 	orrseq	r5, r2, r3, lsl #12
    dd94:	01310003 	teqeq	r1, r3
    dd98:	13811702 	orrne	r1, r1, #524288	; 0x80000
    dd9c:	e8bd8030 	pop	{r4, r5, pc}

0000dda0 <__aeabi_ui2d>:
    dda0:	e3300000 	teq	r0, #0
    dda4:	03a01000 	moveq	r1, #0
    dda8:	012fff1e 	bxeq	lr
    ddac:	e92d4030 	push	{r4, r5, lr}
    ddb0:	e3a04b01 	mov	r4, #1024	; 0x400
    ddb4:	e2844032 	add	r4, r4, #50	; 0x32
    ddb8:	e3a05000 	mov	r5, #0
    ddbc:	e3a01000 	mov	r1, #0
    ddc0:	eaffff9d 	b	dc3c <__adddf3+0x148>

0000ddc4 <__aeabi_i2d>:
    ddc4:	e3300000 	teq	r0, #0
    ddc8:	03a01000 	moveq	r1, #0
    ddcc:	012fff1e 	bxeq	lr
    ddd0:	e92d4030 	push	{r4, r5, lr}
    ddd4:	e3a04b01 	mov	r4, #1024	; 0x400
    ddd8:	e2844032 	add	r4, r4, #50	; 0x32
    dddc:	e2105102 	ands	r5, r0, #-2147483648	; 0x80000000
    dde0:	42600000 	rsbmi	r0, r0, #0
    dde4:	e3a01000 	mov	r1, #0
    dde8:	eaffff93 	b	dc3c <__adddf3+0x148>

0000ddec <__aeabi_f2d>:
    ddec:	e1b02080 	lsls	r2, r0, #1
    ddf0:	e1a011c2 	asr	r1, r2, #3
    ddf4:	e1a01061 	rrx	r1, r1
    ddf8:	e1a00e02 	lsl	r0, r2, #28
    ddfc:	121234ff 	andsne	r3, r2, #-16777216	; 0xff000000
    de00:	133304ff 	teqne	r3, #-16777216	; 0xff000000
    de04:	1221130e 	eorne	r1, r1, #939524096	; 0x38000000
    de08:	112fff1e 	bxne	lr
    de0c:	e3320000 	teq	r2, #0
    de10:	133304ff 	teqne	r3, #-16777216	; 0xff000000
    de14:	012fff1e 	bxeq	lr
    de18:	e92d4030 	push	{r4, r5, lr}
    de1c:	e3a04d0e 	mov	r4, #896	; 0x380
    de20:	e2015102 	and	r5, r1, #-2147483648	; 0x80000000
    de24:	e3c11102 	bic	r1, r1, #-2147483648	; 0x80000000
    de28:	eaffff83 	b	dc3c <__adddf3+0x148>

0000de2c <__aeabi_ul2d>:
    de2c:	e1902001 	orrs	r2, r0, r1
    de30:	012fff1e 	bxeq	lr
    de34:	e92d4030 	push	{r4, r5, lr}
    de38:	e3a05000 	mov	r5, #0
    de3c:	ea000006 	b	de5c <__aeabi_l2d+0x1c>

0000de40 <__aeabi_l2d>:
    de40:	e1902001 	orrs	r2, r0, r1
    de44:	012fff1e 	bxeq	lr
    de48:	e92d4030 	push	{r4, r5, lr}
    de4c:	e2115102 	ands	r5, r1, #-2147483648	; 0x80000000
    de50:	5a000001 	bpl	de5c <__aeabi_l2d+0x1c>
    de54:	e2700000 	rsbs	r0, r0, #0
    de58:	e2e11000 	rsc	r1, r1, #0
    de5c:	e3a04b01 	mov	r4, #1024	; 0x400
    de60:	e2844032 	add	r4, r4, #50	; 0x32
    de64:	e1b0cb21 	lsrs	ip, r1, #22
    de68:	0affff5c 	beq	dbe0 <__adddf3+0xec>
    de6c:	e3a02003 	mov	r2, #3
    de70:	e1b0c1ac 	lsrs	ip, ip, #3
    de74:	12822003 	addne	r2, r2, #3
    de78:	e1b0c1ac 	lsrs	ip, ip, #3
    de7c:	12822003 	addne	r2, r2, #3
    de80:	e08221ac 	add	r2, r2, ip, lsr #3
    de84:	e2623020 	rsb	r3, r2, #32
    de88:	e1a0c310 	lsl	ip, r0, r3
    de8c:	e1a00230 	lsr	r0, r0, r2
    de90:	e1800311 	orr	r0, r0, r1, lsl r3
    de94:	e1a01231 	lsr	r1, r1, r2
    de98:	e0844002 	add	r4, r4, r2
    de9c:	eaffff4f 	b	dbe0 <__adddf3+0xec>

0000dea0 <__aeabi_uldivmod>:
    dea0:	e3530000 	cmp	r3, #0
    dea4:	03520000 	cmpeq	r2, #0
    dea8:	1a000004 	bne	dec0 <__aeabi_uldivmod+0x20>
    deac:	e3510000 	cmp	r1, #0
    deb0:	03500000 	cmpeq	r0, #0
    deb4:	13e01000 	mvnne	r1, #0
    deb8:	13e00000 	mvnne	r0, #0
    debc:	eaffff08 	b	dae4 <__aeabi_idiv0>
    dec0:	e24dd008 	sub	sp, sp, #8
    dec4:	e92d6000 	push	{sp, lr}
    dec8:	eb000025 	bl	df64 <__gnu_uldivmod_helper>
    decc:	e59de004 	ldr	lr, [sp, #4]
    ded0:	e28dd008 	add	sp, sp, #8
    ded4:	e8bd000c 	pop	{r2, r3}
    ded8:	e12fff1e 	bx	lr
    dedc:	00000000 	andeq	r0, r0, r0

0000dee0 <__aeabi_d2ulz>:
    dee0:	ec410b17 	vmov	d7, r0, r1
    dee4:	ed9f6b0b 	vldr	d6, [pc, #44]	; df18 <__aeabi_d2ulz+0x38>
    dee8:	ee276b06 	vmul.f64	d6, d7, d6
    deec:	eebc6bc6 	vcvt.u32.f64	s12, d6
    def0:	ed9f5b0a 	vldr	d5, [pc, #40]	; df20 <__aeabi_d2ulz+0x40>
    def4:	eeb84b46 	vcvt.f64.u32	d4, s12
    def8:	ee047b45 	vmls.f64	d7, d4, d5
    defc:	eebc7bc7 	vcvt.u32.f64	s14, d7
    df00:	e3a00000 	mov	r0, #0
    df04:	ee173a10 	vmov	r3, s14
    df08:	ee161a10 	vmov	r1, s12
    df0c:	e1800003 	orr	r0, r0, r3
    df10:	e12fff1e 	bx	lr
    df14:	e320f000 	nop	{0}
    df18:	00000000 	andeq	r0, r0, r0
    df1c:	3df00000 	ldclcc	0, cr0, [r0]
    df20:	00000000 	andeq	r0, r0, r0
    df24:	41f00000 	mvnsmi	r0, r0

0000df28 <__gnu_ldivmod_helper>:
    df28:	e92d41f0 	push	{r4, r5, r6, r7, r8, lr}
    df2c:	e59d7018 	ldr	r7, [sp, #24]
    df30:	e1a08002 	mov	r8, r2
    df34:	e1a04000 	mov	r4, r0
    df38:	e1a05001 	mov	r5, r1
    df3c:	e1a06003 	mov	r6, r3
    df40:	eb000016 	bl	dfa0 <__divdi3>
    df44:	e00e0198 	mul	lr, r8, r1
    df48:	e0832098 	umull	r2, r3, r8, r0
    df4c:	e026e690 	mla	r6, r0, r6, lr
    df50:	e0542002 	subs	r2, r4, r2
    df54:	e0863003 	add	r3, r6, r3
    df58:	e0c53003 	sbc	r3, r5, r3
    df5c:	e1c720f0 	strd	r2, [r7]
    df60:	e8bd81f0 	pop	{r4, r5, r6, r7, r8, pc}

0000df64 <__gnu_uldivmod_helper>:
    df64:	e92d43f8 	push	{r3, r4, r5, r6, r7, r8, r9, lr}
    df68:	e59d7020 	ldr	r7, [sp, #32]
    df6c:	e1a06002 	mov	r6, r2
    df70:	e1a08000 	mov	r8, r0
    df74:	e1a09001 	mov	r9, r1
    df78:	e1a05003 	mov	r5, r3
    df7c:	eb000067 	bl	e120 <__udivdi3>
    df80:	e0030590 	mul	r3, r0, r5
    df84:	e0854690 	umull	r4, r5, r0, r6
    df88:	e0263196 	mla	r6, r6, r1, r3
    df8c:	e0584004 	subs	r4, r8, r4
    df90:	e0865005 	add	r5, r6, r5
    df94:	e0c95005 	sbc	r5, r9, r5
    df98:	e1c740f0 	strd	r4, [r7]
    df9c:	e8bd83f8 	pop	{r3, r4, r5, r6, r7, r8, r9, pc}

0000dfa0 <__divdi3>:
    dfa0:	e3510000 	cmp	r1, #0
    dfa4:	e92d4ff0 	push	{r4, r5, r6, r7, r8, r9, sl, fp, lr}
    dfa8:	a3a0c000 	movge	ip, #0
    dfac:	ba000057 	blt	e110 <__divdi3+0x170>
    dfb0:	e3530000 	cmp	r3, #0
    dfb4:	a1a08002 	movge	r8, r2
    dfb8:	a1a09003 	movge	r9, r3
    dfbc:	ba00004f 	blt	e100 <__divdi3+0x160>
    dfc0:	e1510009 	cmp	r1, r9
    dfc4:	01500008 	cmpeq	r0, r8
    dfc8:	e1a04000 	mov	r4, r0
    dfcc:	e1a05001 	mov	r5, r1
    dfd0:	33a08000 	movcc	r8, #0
    dfd4:	33a09000 	movcc	r9, #0
    dfd8:	3a00003e 	bcc	e0d8 <__divdi3+0x138>
    dfdc:	e3590000 	cmp	r9, #0
    dfe0:	016f3f18 	clzeq	r3, r8
    dfe4:	116f2f19 	clzne	r2, r9
    dfe8:	02832020 	addeq	r2, r3, #32
    dfec:	e3510000 	cmp	r1, #0
    dff0:	016f3f10 	clzeq	r3, r0
    dff4:	116f3f11 	clzne	r3, r1
    dff8:	02833020 	addeq	r3, r3, #32
    dffc:	e0633002 	rsb	r3, r3, r2
    e000:	e1a07319 	lsl	r7, r9, r3
    e004:	e243e020 	sub	lr, r3, #32
    e008:	e1877e18 	orr	r7, r7, r8, lsl lr
    e00c:	e263a020 	rsb	sl, r3, #32
    e010:	e1877a38 	orr	r7, r7, r8, lsr sl
    e014:	e1510007 	cmp	r1, r7
    e018:	e1a06318 	lsl	r6, r8, r3
    e01c:	01500006 	cmpeq	r0, r6
    e020:	e1a02003 	mov	r2, r3
    e024:	33a08000 	movcc	r8, #0
    e028:	33a09000 	movcc	r9, #0
    e02c:	3a000007 	bcc	e050 <__divdi3+0xb0>
    e030:	e3a0b001 	mov	fp, #1
    e034:	e0500006 	subs	r0, r0, r6
    e038:	e0c11007 	sbc	r1, r1, r7
    e03c:	e1a04000 	mov	r4, r0
    e040:	e1a05001 	mov	r5, r1
    e044:	e1a09e1b 	lsl	r9, fp, lr
    e048:	e1899a3b 	orr	r9, r9, fp, lsr sl
    e04c:	e1a0831b 	lsl	r8, fp, r3
    e050:	e3530000 	cmp	r3, #0
    e054:	0a00001f 	beq	e0d8 <__divdi3+0x138>
    e058:	e1b070a7 	lsrs	r7, r7, #1
    e05c:	e1a06066 	rrx	r6, r6
    e060:	ea000007 	b	e084 <__divdi3+0xe4>
    e064:	e0544006 	subs	r4, r4, r6
    e068:	e0c55007 	sbc	r5, r5, r7
    e06c:	e0944004 	adds	r4, r4, r4
    e070:	e0a55005 	adc	r5, r5, r5
    e074:	e2944001 	adds	r4, r4, #1
    e078:	e2a55000 	adc	r5, r5, #0
    e07c:	e2533001 	subs	r3, r3, #1
    e080:	0a000006 	beq	e0a0 <__divdi3+0x100>
    e084:	e1570005 	cmp	r7, r5
    e088:	01560004 	cmpeq	r6, r4
    e08c:	9afffff4 	bls	e064 <__divdi3+0xc4>
    e090:	e0944004 	adds	r4, r4, r4
    e094:	e0a55005 	adc	r5, r5, r5
    e098:	e2533001 	subs	r3, r3, #1
    e09c:	1afffff8 	bne	e084 <__divdi3+0xe4>
    e0a0:	e2621020 	rsb	r1, r2, #32
    e0a4:	e1a03234 	lsr	r3, r4, r2
    e0a8:	e2420020 	sub	r0, r2, #32
    e0ac:	e1833115 	orr	r3, r3, r5, lsl r1
    e0b0:	e1a0e235 	lsr	lr, r5, r2
    e0b4:	e1833035 	orr	r3, r3, r5, lsr r0
    e0b8:	e1a0721e 	lsl	r7, lr, r2
    e0bc:	e0988004 	adds	r8, r8, r4
    e0c0:	e1877013 	orr	r7, r7, r3, lsl r0
    e0c4:	e1a06213 	lsl	r6, r3, r2
    e0c8:	e0a99005 	adc	r9, r9, r5
    e0cc:	e1877133 	orr	r7, r7, r3, lsr r1
    e0d0:	e0588006 	subs	r8, r8, r6
    e0d4:	e0c99007 	sbc	r9, r9, r7
    e0d8:	e29c0000 	adds	r0, ip, #0
    e0dc:	13a00001 	movne	r0, #1
    e0e0:	e3a01000 	mov	r1, #0
    e0e4:	e2702000 	rsbs	r2, r0, #0
    e0e8:	e2e13000 	rsc	r3, r1, #0
    e0ec:	e0288002 	eor	r8, r8, r2
    e0f0:	e0299003 	eor	r9, r9, r3
    e0f4:	e0900008 	adds	r0, r0, r8
    e0f8:	e0a11009 	adc	r1, r1, r9
    e0fc:	e8bd8ff0 	pop	{r4, r5, r6, r7, r8, r9, sl, fp, pc}
    e100:	e2728000 	rsbs	r8, r2, #0
    e104:	e1e0c00c 	mvn	ip, ip
    e108:	e2e39000 	rsc	r9, r3, #0
    e10c:	eaffffab 	b	dfc0 <__divdi3+0x20>
    e110:	e2700000 	rsbs	r0, r0, #0
    e114:	e2e11000 	rsc	r1, r1, #0
    e118:	e3e0c000 	mvn	ip, #0
    e11c:	eaffffa3 	b	dfb0 <__divdi3+0x10>

0000e120 <__udivdi3>:
    e120:	e92d43f0 	push	{r4, r5, r6, r7, r8, r9, lr}
    e124:	e1a05001 	mov	r5, r1
    e128:	e1a04000 	mov	r4, r0
    e12c:	e1550003 	cmp	r5, r3
    e130:	01540002 	cmpeq	r4, r2
    e134:	e1a00002 	mov	r0, r2
    e138:	e1a01003 	mov	r1, r3
    e13c:	3a00003d 	bcc	e238 <__udivdi3+0x118>
    e140:	e3530000 	cmp	r3, #0
    e144:	016f3f10 	clzeq	r3, r0
    e148:	116f2f13 	clzne	r2, r3
    e14c:	02832020 	addeq	r2, r3, #32
    e150:	e3550000 	cmp	r5, #0
    e154:	016f3f14 	clzeq	r3, r4
    e158:	116f3f15 	clzne	r3, r5
    e15c:	02833020 	addeq	r3, r3, #32
    e160:	e0633002 	rsb	r3, r3, r2
    e164:	e1a07311 	lsl	r7, r1, r3
    e168:	e243e020 	sub	lr, r3, #32
    e16c:	e1877e10 	orr	r7, r7, r0, lsl lr
    e170:	e263c020 	rsb	ip, r3, #32
    e174:	e1877c30 	orr	r7, r7, r0, lsr ip
    e178:	e1550007 	cmp	r5, r7
    e17c:	e1a06310 	lsl	r6, r0, r3
    e180:	01540006 	cmpeq	r4, r6
    e184:	e1a02003 	mov	r2, r3
    e188:	33a00000 	movcc	r0, #0
    e18c:	33a01000 	movcc	r1, #0
    e190:	3a000005 	bcc	e1ac <__udivdi3+0x8c>
    e194:	e3a08001 	mov	r8, #1
    e198:	e0544006 	subs	r4, r4, r6
    e19c:	e1a01e18 	lsl	r1, r8, lr
    e1a0:	e1811c38 	orr	r1, r1, r8, lsr ip
    e1a4:	e0c55007 	sbc	r5, r5, r7
    e1a8:	e1a00318 	lsl	r0, r8, r3
    e1ac:	e3530000 	cmp	r3, #0
    e1b0:	08bd83f0 	popeq	{r4, r5, r6, r7, r8, r9, pc}
    e1b4:	e1b070a7 	lsrs	r7, r7, #1
    e1b8:	e1a06066 	rrx	r6, r6
    e1bc:	ea000007 	b	e1e0 <__udivdi3+0xc0>
    e1c0:	e0544006 	subs	r4, r4, r6
    e1c4:	e0c55007 	sbc	r5, r5, r7
    e1c8:	e0944004 	adds	r4, r4, r4
    e1cc:	e0a55005 	adc	r5, r5, r5
    e1d0:	e2944001 	adds	r4, r4, #1
    e1d4:	e2a55000 	adc	r5, r5, #0
    e1d8:	e2533001 	subs	r3, r3, #1
    e1dc:	0a000006 	beq	e1fc <__udivdi3+0xdc>
    e1e0:	e1570005 	cmp	r7, r5
    e1e4:	01560004 	cmpeq	r6, r4
    e1e8:	9afffff4 	bls	e1c0 <__udivdi3+0xa0>
    e1ec:	e0944004 	adds	r4, r4, r4
    e1f0:	e0a55005 	adc	r5, r5, r5
    e1f4:	e2533001 	subs	r3, r3, #1
    e1f8:	1afffff8 	bne	e1e0 <__udivdi3+0xc0>
    e1fc:	e0948000 	adds	r8, r4, r0
    e200:	e0a59001 	adc	r9, r5, r1
    e204:	e1a03234 	lsr	r3, r4, r2
    e208:	e2621020 	rsb	r1, r2, #32
    e20c:	e2420020 	sub	r0, r2, #32
    e210:	e1833115 	orr	r3, r3, r5, lsl r1
    e214:	e1a0c235 	lsr	ip, r5, r2
    e218:	e1833035 	orr	r3, r3, r5, lsr r0
    e21c:	e1a0721c 	lsl	r7, ip, r2
    e220:	e1877013 	orr	r7, r7, r3, lsl r0
    e224:	e1a06213 	lsl	r6, r3, r2
    e228:	e1877133 	orr	r7, r7, r3, lsr r1
    e22c:	e0580006 	subs	r0, r8, r6
    e230:	e0c91007 	sbc	r1, r9, r7
    e234:	e8bd83f0 	pop	{r4, r5, r6, r7, r8, r9, pc}
    e238:	e3a00000 	mov	r0, #0
    e23c:	e3a01000 	mov	r1, #0
    e240:	e8bd83f0 	pop	{r4, r5, r6, r7, r8, r9, pc}

Disassembly of section .rodata:

0000e244 <events>:
    e244:	000f4240 	andeq	r4, pc, r0, asr #4
    e248:	000094dc 	ldrdeq	r9, [r0], -ip

0000e24c <poll_table>:
    e24c:	000093cc 	andeq	r9, r0, ip, asr #7
    e250:	000093a4 	andeq	r9, r0, r4, lsr #7
    e254:	0000b4f8 	strdeq	fp, [r0], -r8

0000e258 <FIRMWARE_COPYRIGHT>:
    e258:	79706f43 	ldmdbvc	r0!, {r0, r1, r6, r8, r9, sl, fp, sp, lr}^
    e25c:	68676972 	stmdavs	r7!, {r1, r4, r5, r6, r8, fp, sp, lr}^
    e260:	63282074 	teqvs	r8, #116	; 0x74
    e264:	30322029 	eorscc	r2, r2, r9, lsr #32
    e268:	42203231 	eormi	r3, r0, #268435459	; 0x10000003
    e26c:	64616f72 	strbtvs	r6, [r1], #-3954	; 0xfffff08e
    e270:	006d6f63 	rsbeq	r6, sp, r3, ror #30

0000e274 <board_version>:
    e274:	00000000 	andeq	r0, r0, r0
    e278:	65646f4d 	strbvs	r6, [r4, #-3917]!	; 0xfffff0b3
    e27c:	6e55206c 	cdpvs	0, 5, cr2, cr5, cr12, {3}
    e280:	776f6e6b 	strbvc	r6, [pc, -fp, ror #28]!
    e284:	2020206e 	eorcs	r2, r0, lr, rrx
    e288:	20202020 	eorcs	r2, r0, r0, lsr #32
    e28c:	00000000 	andeq	r0, r0, r0
    e290:	00000002 	andeq	r0, r0, r2
    e294:	65646f4d 	strbvs	r6, [r4, #-3917]!	; 0xfffff0b3
    e298:	2042206c 	subcs	r2, r2, ip, rrx
    e29c:	32203152 	eorcc	r3, r0, #-2147483628	; 0x80000014
    e2a0:	424d3635 	submi	r3, sp, #55574528	; 0x3500000
    e2a4:	20202020 	eorcs	r2, r0, r0, lsr #32
    e2a8:	00000000 	andeq	r0, r0, r0
    e2ac:	00000003 	andeq	r0, r0, r3
    e2b0:	65646f4d 	strbvs	r6, [r4, #-3917]!	; 0xfffff0b3
    e2b4:	2042206c 	subcs	r2, r2, ip, rrx
    e2b8:	32203152 	eorcc	r3, r0, #-2147483628	; 0x80000014
    e2bc:	424d3635 	submi	r3, sp, #55574528	; 0x3500000
    e2c0:	20202020 	eorcs	r2, r0, r0, lsr #32
    e2c4:	00000000 	andeq	r0, r0, r0
    e2c8:	00000004 	andeq	r0, r0, r4
    e2cc:	65646f4d 	strbvs	r6, [r4, #-3917]!	; 0xfffff0b3
    e2d0:	2042206c 	subcs	r2, r2, ip, rrx
    e2d4:	32203252 	eorcc	r3, r0, #536870917	; 0x20000005
    e2d8:	424d3635 	submi	r3, sp, #55574528	; 0x3500000
    e2dc:	20202020 	eorcs	r2, r0, r0, lsr #32
    e2e0:	00000000 	andeq	r0, r0, r0
    e2e4:	00000005 	andeq	r0, r0, r5
    e2e8:	65646f4d 	strbvs	r6, [r4, #-3917]!	; 0xfffff0b3
    e2ec:	2042206c 	subcs	r2, r2, ip, rrx
    e2f0:	32203252 	eorcc	r3, r0, #536870917	; 0x20000005
    e2f4:	424d3635 	submi	r3, sp, #55574528	; 0x3500000
    e2f8:	20202020 	eorcs	r2, r0, r0, lsr #32
    e2fc:	00000000 	andeq	r0, r0, r0
    e300:	00000006 	andeq	r0, r0, r6
    e304:	65646f4d 	strbvs	r6, [r4, #-3917]!	; 0xfffff0b3
    e308:	2042206c 	subcs	r2, r2, ip, rrx
    e30c:	32203252 	eorcc	r3, r0, #536870917	; 0x20000005
    e310:	424d3635 	submi	r3, sp, #55574528	; 0x3500000
    e314:	20202020 	eorcs	r2, r0, r0, lsr #32
    e318:	00000000 	andeq	r0, r0, r0
    e31c:	00000007 	andeq	r0, r0, r7
    e320:	65646f4d 	strbvs	r6, [r4, #-3917]!	; 0xfffff0b3
    e324:	2041206c 	subcs	r2, r1, ip, rrx
    e328:	4d363532 	cfldr32mi	mvfx3, [r6, #-200]!	; 0xffffff38
    e32c:	20202042 	eorcs	r2, r0, r2, asr #32
    e330:	20202020 	eorcs	r2, r0, r0, lsr #32
    e334:	00000000 	andeq	r0, r0, r0
    e338:	00000008 	andeq	r0, r0, r8
    e33c:	65646f4d 	strbvs	r6, [r4, #-3917]!	; 0xfffff0b3
    e340:	2041206c 	subcs	r2, r1, ip, rrx
    e344:	4d363532 	cfldr32mi	mvfx3, [r6, #-200]!	; 0xffffff38
    e348:	20202042 	eorcs	r2, r0, r2, asr #32
    e34c:	20202020 	eorcs	r2, r0, r0, lsr #32
    e350:	00000000 	andeq	r0, r0, r0
    e354:	00000009 	andeq	r0, r0, r9
    e358:	65646f4d 	strbvs	r6, [r4, #-3917]!	; 0xfffff0b3
    e35c:	2041206c 	subcs	r2, r1, ip, rrx
    e360:	4d363532 	cfldr32mi	mvfx3, [r6, #-200]!	; 0xffffff38
    e364:	20202042 	eorcs	r2, r0, r2, asr #32
    e368:	20202020 	eorcs	r2, r0, r0, lsr #32
    e36c:	00000000 	andeq	r0, r0, r0
    e370:	0000000d 	andeq	r0, r0, sp
    e374:	65646f4d 	strbvs	r6, [r4, #-3917]!	; 0xfffff0b3
    e378:	2042206c 	subcs	r2, r2, ip, rrx
    e37c:	35203252 	strcc	r3, [r0, #-594]!	; 0xfffffdae
    e380:	424d3231 	submi	r3, sp, #268435459	; 0x10000003
    e384:	20202020 	eorcs	r2, r0, r0, lsr #32
    e388:	00000000 	andeq	r0, r0, r0
    e38c:	0000000e 	andeq	r0, r0, lr
    e390:	65646f4d 	strbvs	r6, [r4, #-3917]!	; 0xfffff0b3
    e394:	2042206c 	subcs	r2, r2, ip, rrx
    e398:	35203252 	strcc	r3, [r0, #-594]!	; 0xfffffdae
    e39c:	424d3231 	submi	r3, sp, #268435459	; 0x10000003
    e3a0:	20202020 	eorcs	r2, r0, r0, lsr #32
    e3a4:	00000000 	andeq	r0, r0, r0
    e3a8:	0000000f 	andeq	r0, r0, pc
    e3ac:	65646f4d 	strbvs	r6, [r4, #-3917]!	; 0xfffff0b3
    e3b0:	2042206c 	subcs	r2, r2, ip, rrx
    e3b4:	35203252 	strcc	r3, [r0, #-594]!	; 0xfffffdae
    e3b8:	424d3231 	submi	r3, sp, #268435459	; 0x10000003
    e3bc:	20202020 	eorcs	r2, r0, r0, lsr #32
    e3c0:	00000000 	andeq	r0, r0, r0
    e3c4:	00000010 	andeq	r0, r0, r0, lsl r0
    e3c8:	65646f4d 	strbvs	r6, [r4, #-3917]!	; 0xfffff0b3
    e3cc:	2b42206c 	blcs	1096584 <__sys_stack_top+0x1083c54>
    e3d0:	32313520 	eorscc	r3, r1, #32, 10	; 0x8000000
    e3d4:	2020424d 	eorcs	r4, r0, sp, asr #4
    e3d8:	20202020 	eorcs	r2, r0, r0, lsr #32
    e3dc:	00000000 	andeq	r0, r0, r0
    e3e0:	00000011 	andeq	r0, r0, r1, lsl r0
    e3e4:	706d6f43 	rsbvc	r6, sp, r3, asr #30
    e3e8:	20657475 	rsbcs	r7, r5, r5, ror r4
    e3ec:	75646f4d 	strbvc	r6, [r4, #-3917]!	; 0xfffff0b3
    e3f0:	3520656c 	strcc	r6, [r0, #-1388]!	; 0xfffffa94
    e3f4:	424d3231 	submi	r3, sp, #268435459	; 0x10000003
    e3f8:	00000000 	andeq	r0, r0, r0
    e3fc:	00000012 	andeq	r0, r0, r2, lsl r0
    e400:	65646f4d 	strbvs	r6, [r4, #-3917]!	; 0xfffff0b3
    e404:	2b41206c 	blcs	10565bc <__sys_stack_top+0x1043c8c>
    e408:	36353220 	ldrtcc	r3, [r5], -r0, lsr #4
    e40c:	2020424d 	eorcs	r4, r0, sp, asr #4
    e410:	20202020 	eorcs	r2, r0, r0, lsr #32
    e414:	00000000 	andeq	r0, r0, r0
    e418:	00a01041 	adceq	r1, r0, r1, asr #32
    e41c:	32206950 	eorcc	r6, r0, #80, 18	; 0x140000
    e420:	646f4d20 	strbtvs	r4, [pc], #-3360	; e428 <board_version+0x1b4>
    e424:	42206c65 	eormi	r6, r0, #25856	; 0x6500
    e428:	42473120 	submi	r3, r7, #32, 2
    e42c:	20202020 	eorcs	r2, r0, r0, lsr #32
    e430:	00000000 	andeq	r0, r0, r0
    e434:	00a21041 	adceq	r1, r2, r1, asr #32
    e438:	32206950 	eorcc	r6, r0, #80, 18	; 0x140000
    e43c:	646f4d20 	strbtvs	r4, [pc], #-3360	; e444 <board_version+0x1d0>
    e440:	42206c65 	eormi	r6, r0, #25856	; 0x6500
    e444:	42473120 	submi	r3, r7, #32, 2
    e448:	20202020 	eorcs	r2, r0, r0, lsr #32
    e44c:	00000000 	andeq	r0, r0, r0

0000e450 <_global_impure_ptr>:
    e450:	0000e7f0 	strdeq	lr, [r0], -r0

0000e454 <DAYS_IN_MONTH>:
    e454:	0000001f 	andeq	r0, r0, pc, lsl r0
    e458:	0000001c 	andeq	r0, r0, ip, lsl r0
    e45c:	0000001f 	andeq	r0, r0, pc, lsl r0
    e460:	0000001e 	andeq	r0, r0, lr, lsl r0
    e464:	0000001f 	andeq	r0, r0, pc, lsl r0
    e468:	0000001e 	andeq	r0, r0, lr, lsl r0
    e46c:	0000001f 	andeq	r0, r0, pc, lsl r0
    e470:	0000001f 	andeq	r0, r0, pc, lsl r0
    e474:	0000001e 	andeq	r0, r0, lr, lsl r0
    e478:	0000001f 	andeq	r0, r0, pc, lsl r0
    e47c:	0000001e 	andeq	r0, r0, lr, lsl r0
    e480:	0000001f 	andeq	r0, r0, pc, lsl r0

0000e484 <_DAYS_BEFORE_MONTH>:
    e484:	00000000 	andeq	r0, r0, r0
    e488:	0000001f 	andeq	r0, r0, pc, lsl r0
    e48c:	0000003b 	andeq	r0, r0, fp, lsr r0
    e490:	0000005a 	andeq	r0, r0, sl, asr r0
    e494:	00000078 	andeq	r0, r0, r8, ror r0
    e498:	00000097 	muleq	r0, r7, r0
    e49c:	000000b5 	strheq	r0, [r0], -r5
    e4a0:	000000d4 	ldrdeq	r0, [r0], -r4
    e4a4:	000000f3 	strdeq	r0, [r0], -r3
    e4a8:	00000111 	andeq	r0, r0, r1, lsl r1
    e4ac:	00000130 	andeq	r0, r0, r0, lsr r1
    e4b0:	0000014e 	andeq	r0, r0, lr, asr #2

0000e4b4 <__month_lengths>:
    e4b4:	0000001f 	andeq	r0, r0, pc, lsl r0
    e4b8:	0000001c 	andeq	r0, r0, ip, lsl r0
    e4bc:	0000001f 	andeq	r0, r0, pc, lsl r0
    e4c0:	0000001e 	andeq	r0, r0, lr, lsl r0
    e4c4:	0000001f 	andeq	r0, r0, pc, lsl r0
    e4c8:	0000001e 	andeq	r0, r0, lr, lsl r0
    e4cc:	0000001f 	andeq	r0, r0, pc, lsl r0
    e4d0:	0000001f 	andeq	r0, r0, pc, lsl r0
    e4d4:	0000001e 	andeq	r0, r0, lr, lsl r0
    e4d8:	0000001f 	andeq	r0, r0, pc, lsl r0
    e4dc:	0000001e 	andeq	r0, r0, lr, lsl r0
    e4e0:	0000001f 	andeq	r0, r0, pc, lsl r0
    e4e4:	0000001f 	andeq	r0, r0, pc, lsl r0
    e4e8:	0000001d 	andeq	r0, r0, sp, lsl r0
    e4ec:	0000001f 	andeq	r0, r0, pc, lsl r0
    e4f0:	0000001e 	andeq	r0, r0, lr, lsl r0
    e4f4:	0000001f 	andeq	r0, r0, pc, lsl r0
    e4f8:	0000001e 	andeq	r0, r0, lr, lsl r0
    e4fc:	0000001f 	andeq	r0, r0, pc, lsl r0
    e500:	0000001f 	andeq	r0, r0, pc, lsl r0
    e504:	0000001e 	andeq	r0, r0, lr, lsl r0
    e508:	0000001f 	andeq	r0, r0, pc, lsl r0
    e50c:	0000001e 	andeq	r0, r0, lr, lsl r0
    e510:	0000001f 	andeq	r0, r0, pc, lsl r0
    e514:	61636f4c 	cmnvs	r3, ip, asr #30
    e518:	6974206c 	ldmdbvs	r4!, {r2, r3, r5, r6, sp}^
    e51c:	2520656d 	strcs	r6, [r0, #-1389]!	; 0xfffffa93
    e520:	3a64322e 	bcc	191ade0 <__sys_stack_top+0x19084b0>
    e524:	64322e25 	ldrtvs	r2, [r2], #-3621	; 0xfffff1db
    e528:	322e253a 	eorcc	r2, lr, #243269632	; 0xe800000
    e52c:	75202c64 	strvc	r2, [r0, #-3172]!	; 0xfffff39c
    e530:	6d697470 	cfstrdvs	mvd7, [r9, #-448]!	; 0xfffffe40
    e534:	6c252065 	stcvs	0, cr2, [r5], #-404	; 0xfffffe6c
    e538:	61642064 	cmnvs	r4, r4, rrx
    e53c:	202c7379 	eorcs	r7, ip, r9, ror r3
    e540:	6c323025 	ldcvs	0, cr3, [r2], #-148	; 0xffffff6c
    e544:	30253a64 	eorcc	r3, r5, r4, ror #20
    e548:	3a646c32 	bcc	1929618 <__sys_stack_top+0x1916ce8>
    e54c:	6c323025 	ldcvs	0, cr3, [r2], #-148	; 0xffffff6c
    e550:	00000a64 	andeq	r0, r0, r4, ror #20
    e554:	204d4452 	subcs	r4, sp, r2, asr r4
    e558:	6b636150 	blvs	18e6aa0 <__sys_stack_top+0x18d4170>
    e55c:	6c207465 	cfstrsvs	mvf7, [r0], #-404	; 0xfffffe6c
    e560:	74676e65 	strbtvc	r6, [r7], #-3685	; 0xfffff19b
    e564:	203a2068 	eorscs	r2, sl, r8, rrx
    e568:	000a6425 	andeq	r6, sl, r5, lsr #8
    e56c:	64322e25 	ldrtvs	r2, [r2], #-3621	; 0xfffff1db
    e570:	342e252d 	strtcc	r2, [lr], #-1325	; 0xfffffad3
    e574:	2e253a64 	vnmulcs.f32	s6, s10, s9
    e578:	20205832 	eorcs	r5, r0, r2, lsr r8
    e57c:	64322e25 	ldrtvs	r2, [r2], #-3621	; 0xfffff1db
    e580:	342e252d 	strtcc	r2, [lr], #-1325	; 0xfffffad3
    e584:	2e253a64 	vnmulcs.f32	s6, s10, s9
    e588:	25205832 	strcs	r5, [r0, #-2098]!	; 0xfffff7ce
    e58c:	2d64322e 	sfmcs	f3, 2, [r4, #-184]!	; 0xffffff48
    e590:	64342e25 	ldrtvs	r2, [r4], #-3621	; 0xfffff1db
    e594:	322e253a 	eorcc	r2, lr, #243269632	; 0xe800000
    e598:	25202058 	strcs	r2, [r0, #-88]!	; 0xffffffa8
    e59c:	2d64322e 	sfmcs	f3, 2, [r4, #-184]!	; 0xffffff48
    e5a0:	64342e25 	ldrtvs	r2, [r4], #-3621	; 0xfffff1db
    e5a4:	322e253a 	eorcc	r2, lr, #243269632	; 0xe800000
    e5a8:	00000a58 	andeq	r0, r0, r8, asr sl
    e5ac:	312d3130 	teqcc	sp, r0, lsr r1
    e5b0:	203a2036 	eorscs	r2, sl, r6, lsr r0
    e5b4:	00000000 	andeq	r0, r0, r0
    e5b8:	00003020 	andeq	r3, r0, r0, lsr #32
    e5bc:	2d37310a 	ldfcss	f3, [r7, #-40]!	; 0xffffffd8
    e5c0:	3a203233 	bcc	81ae94 <__sys_stack_top+0x808564>
    e5c4:	00000020 	andeq	r0, r0, r0, lsr #32
    e5c8:	00002d2d 	andeq	r2, r0, sp, lsr #26
    e5cc:	6b636150 	blvs	18e6b14 <__sys_stack_top+0x18d41e4>
    e5d0:	20737465 	rsbscs	r7, r3, r5, ror #8
    e5d4:	6c25203a 	stcvs	0, cr2, [r5], #-232	; 0xffffff18
    e5d8:	44202c64 	strtmi	r2, [r0], #-3172	; 0xfffff39c
    e5dc:	2520584d 	strcs	r5, [r0, #-2125]!	; 0xfffff7b3
    e5e0:	202c646c 	eorcs	r6, ip, ip, ror #8
    e5e4:	204d4452 	subcs	r4, sp, r2, asr r4
    e5e8:	0a646c25 	beq	1929684 <__sys_stack_top+0x1916d54>
    e5ec:	0000000a 	andeq	r0, r0, sl
    e5f0:	63736944 	cmnvs	r3, #68, 18	; 0x110000
    e5f4:	7265766f 	rsbvc	r7, r5, #116391936	; 0x6f00000
    e5f8:	20202079 	eorcs	r2, r0, r9, ror r0
    e5fc:	20202020 	eorcs	r2, r0, r0, lsr #32
    e600:	3a202020 	bcc	816688 <__sys_stack_top+0x803d58>
    e604:	646c2520 	strbtvs	r2, [ip], #-1312	; 0xfffffae0
    e608:	0000000a 	andeq	r0, r0, sl
    e60c:	63736944 	cmnvs	r3, #68, 18	; 0x110000
    e610:	7265766f 	rsbvc	r7, r5, #116391936	; 0x6f00000
    e614:	65722079 	ldrbvs	r2, [r2, #-121]!	; 0xffffff87
    e618:	6e6f7073 	mcrvs	0, 3, r7, cr15, cr3, {3}
    e61c:	3a206573 	bcc	827bf0 <__sys_stack_top+0x8152c0>
    e620:	646c2520 	strbtvs	r2, [ip], #-1312	; 0xfffffae0
    e624:	0000000a 	andeq	r0, r0, sl
    e628:	20544547 	subscs	r4, r4, r7, asr #10
    e62c:	75716552 	ldrbvc	r6, [r1, #-1362]!	; 0xfffffaae
    e630:	73747365 	cmnvc	r4, #-1811939327	; 0x94000001
    e634:	20202020 	eorcs	r2, r0, r0, lsr #32
    e638:	3a202020 	bcc	8166c0 <__sys_stack_top+0x803d90>
    e63c:	646c2520 	strbtvs	r2, [ip], #-1312	; 0xfffffae0
    e640:	0000000a 	andeq	r0, r0, sl
    e644:	20544553 	subscs	r4, r4, r3, asr r5
    e648:	75716552 	ldrbvc	r6, [r1, #-1362]!	; 0xfffffaae
    e64c:	73747365 	cmnvc	r4, #-1811939327	; 0x94000001
    e650:	20202020 	eorcs	r2, r0, r0, lsr #32
    e654:	3a202020 	bcc	8166dc <__sys_stack_top+0x803dac>
    e658:	646c2520 	strbtvs	r2, [ip], #-1312	; 0xfffffae0
    e65c:	0000000a 	andeq	r0, r0, sl
    e660:	584d440a 	stmdapl	sp, {r1, r3, sl, lr}^
    e664:	64707520 	ldrbtvs	r7, [r0], #-1312	; 0xfffffae0
    e668:	73657461 	cmnvc	r5, #1627389952	; 0x61000000
    e66c:	6365732f 	cmnvs	r5, #-1140850688	; 0xbc000000
    e670:	20642520 	rsbcs	r2, r4, r0, lsr #10
    e674:	000a0a20 	andeq	r0, sl, r0, lsr #20
    e678:	746f6c53 	strbtvc	r6, [pc], #-3155	; e680 <__month_lengths+0x1cc>
    e67c:	6e692073 	mcrvs	0, 3, r2, cr9, cr3, {3}
    e680:	63617020 	cmnvs	r1, #32
    e684:	2074656b 	rsbscs	r6, r4, fp, ror #10
    e688:	20202020 	eorcs	r2, r0, r0, lsr #32
    e68c:	20643325 	rsbcs	r3, r4, r5, lsr #6
    e690:	20202020 	eorcs	r2, r0, r0, lsr #32
    e694:	20643325 	rsbcs	r3, r4, r5, lsr #6
    e698:	6425202f 	strtvs	r2, [r5], #-47	; 0xffffffd1
    e69c:	0000000a 	andeq	r0, r0, sl
    e6a0:	746f6c53 	strbtvc	r6, [pc], #-3155	; e6a8 <__month_lengths+0x1f4>
    e6a4:	206f7420 	rsbcs	r7, pc, r0, lsr #8
    e6a8:	746f6c73 	strbtvc	r6, [pc], #-3187	; e6b0 <__month_lengths+0x1fc>
    e6ac:	20202020 	eorcs	r2, r0, r0, lsr #32
    e6b0:	20202020 	eorcs	r2, r0, r0, lsr #32
    e6b4:	20643325 	rsbcs	r3, r4, r5, lsr #6
    e6b8:	20202020 	eorcs	r2, r0, r0, lsr #32
    e6bc:	20643325 	rsbcs	r3, r4, r5, lsr #6
    e6c0:	6425202f 	strtvs	r2, [r5], #-47	; 0xffffffd1
    e6c4:	0000000a 	andeq	r0, r0, sl
    e6c8:	61657242 	cmnvs	r5, r2, asr #4
    e6cc:	6f74206b 	svcvs	0x0074206b
    e6d0:	65726220 	ldrbvs	r6, [r2, #-544]!	; 0xfffffde0
    e6d4:	25206b61 	strcs	r6, [r0, #-2913]!	; 0xfffff49f
    e6d8:	20646c38 	rsbcs	r6, r4, r8, lsr ip
    e6dc:	64362520 	ldrtvs	r2, [r6], #-1312	; 0xfffffae0
    e6e0:	25202f20 	strcs	r2, [r0, #-3872]!	; 0xfffff0e0
    e6e4:	00000a64 	andeq	r0, r0, r4, ror #20
    e6e8:	746f6c53 	strbtvc	r6, [pc], #-3155	; e6f0 <__month_lengths+0x23c>
    e6ec:	6e692073 	mcrvs	0, 3, r2, cr9, cr3, {3}
    e6f0:	63617020 	cmnvs	r1, #32
    e6f4:	2074656b 	rsbscs	r6, r4, fp, ror #10
    e6f8:	20202d2d 	eorcs	r2, r0, sp, lsr #26
    e6fc:	0a202020 	beq	816784 <__sys_stack_top+0x803e54>
    e700:	00000000 	andeq	r0, r0, r0
    e704:	746f6c53 	strbtvc	r6, [pc], #-3155	; e70c <__month_lengths+0x258>
    e708:	206f7420 	rsbcs	r7, pc, r0, lsr #8
    e70c:	746f6c73 	strbtvc	r6, [pc], #-3187	; e714 <__month_lengths+0x260>
    e710:	20202020 	eorcs	r2, r0, r0, lsr #32
    e714:	20202d2d 	eorcs	r2, r0, sp, lsr #26
    e718:	0a202020 	beq	8167a0 <__sys_stack_top+0x803e70>
    e71c:	00000000 	andeq	r0, r0, r0
    e720:	61657242 	cmnvs	r5, r2, asr #4
    e724:	6f74206b 	svcvs	0x0074206b
    e728:	65726220 	ldrbvs	r6, [r2, #-544]!	; 0xfffffde0
    e72c:	20206b61 	eorcs	r6, r0, r1, ror #22
    e730:	20202d2d 	eorcs	r2, r0, sp, lsr #26
    e734:	0a202020 	beq	8167bc <__sys_stack_top+0x803e8c>
    e738:	00000000 	andeq	r0, r0, r0
    e73c:	706d6f43 	rsbvc	r6, sp, r3, asr #30
    e740:	64656c69 	strbtvs	r6, [r5], #-3177	; 0xfffff397
    e744:	206e6f20 	rsbcs	r6, lr, r0, lsr #30
    e748:	61207325 	teqvs	r0, r5, lsr #6
    e74c:	73252074 	teqvc	r5, #116	; 0x74
    e750:	0000000a 	andeq	r0, r0, sl
    e754:	206c754a 	rsbcs	r7, ip, sl, asr #10
    e758:	32203033 	eorcc	r3, r0, #51	; 0x33
    e75c:	00353130 	eorseq	r3, r5, r0, lsr r1
    e760:	313a3231 	teqcc	sl, r1, lsr r2
    e764:	39333a32 	ldmdbcc	r3!, {r1, r4, r5, r9, fp, ip, sp}
    e768:	00000000 	andeq	r0, r0, r0
    e76c:	69676f4c 	stmdbvs	r7!, {r2, r3, r6, r8, r9, sl, fp, sp, lr}^
    e770:	44522063 	ldrbmi	r2, [r2], #-99	; 0xffffff9d
    e774:	6e53204d 	cdpvs	0, 5, cr2, cr3, cr13, {2}
    e778:	65666669 	strbvs	r6, [r6, #-1641]!	; 0xfffff997
    e77c:	44202c72 	strtmi	r2, [r0], #-3186	; 0xfffff38e
    e780:	3135584d 	teqcc	r5, sp, asr #16
    e784:	61642032 	cmnvs	r4, r2, lsr r0
    e788:	61206174 	teqvs	r0, r4, ror r1
    e78c:	796c616e 	stmdbvc	ip!, {r1, r2, r3, r5, r6, r8, sp, lr}^
    e790:	2072657a 	rsbscs	r6, r2, sl, ror r5
    e794:	20726f66 	rsbscs	r6, r2, r6, ror #30
    e798:	63203233 	teqvs	r0, #805306371	; 0x30000003
    e79c:	6e6e6168 	powvsez	f6, f6, #0.0
    e7a0:	0a736c65 	beq	1ce993c <__sys_stack_top+0x1cd700c>
    e7a4:	00000000 	andeq	r0, r0, r0
    e7a8:	00000043 	andeq	r0, r0, r3, asr #32
    e7ac:	00544d47 	subseq	r4, r4, r7, asr #26

Disassembly of section .ARM.exidx:

0000e7b0 <.ARM.exidx>:
    e7b0:	7ffff7f0 	svcvc	0x00fff7f0
    e7b4:	00000001 	andeq	r0, r0, r1

Disassembly of section .data:

0000e7b8 <dmx_output_period>:
    e7b8:	000061a8 	andeq	r6, r0, r8, lsr #3

0000e7bc <dmx_output_mab_time>:
    e7bc:	0000000c 	andeq	r0, r0, ip

0000e7c0 <dmx_output_break_time>:
    e7c0:	0000005c 	andeq	r0, r0, ip, asr r0

0000e7c4 <dmx_send_data_length>:
    e7c4:	00020201 	andeq	r0, r2, r1, lsl #4

0000e7c6 <dmx_port_direction>:
    e7c6:	ffff0002 			; <UNDEFINED> instruction: 0xffff0002

0000e7c8 <slots_in_packet_min>:
    e7c8:	ffffffff 			; <UNDEFINED> instruction: 0xffffffff

0000e7cc <slot_to_slot_min>:
    e7cc:	ffffffff 			; <UNDEFINED> instruction: 0xffffffff

0000e7d0 <break_to_break_min>:
    e7d0:	ffffffff 			; <UNDEFINED> instruction: 0xffffffff

0000e7d4 <cur_fore>:
    e7d4:	0000ffff 	strdeq	pc, [r0], -pc	; <UNPREDICTABLE>

0000e7d8 <_hardware_led_f>:
    e7d8:	0000bc3c 	andeq	fp, r0, ip, lsr ip
    e7dc:	0000bc20 	andeq	fp, r0, r0, lsr #24

0000e7e0 <ticks_per_second>:
    e7e0:	0007a120 	andeq	sl, r7, r0, lsr #2

0000e7e4 <i2c_mcp7941x_slave_address>:
    e7e4:	0000006f 	andeq	r0, r0, pc, rrx

0000e7e8 <_impure_ptr>:
    e7e8:	0000e7f0 	strdeq	lr, [r0], -r0
    e7ec:	00000000 	andeq	r0, r0, r0

0000e7f0 <impure_data>:
    e7f0:	00000000 	andeq	r0, r0, r0
    e7f4:	0000eadc 	ldrdeq	lr, [r0], -ip
    e7f8:	0000eb44 	andeq	lr, r0, r4, asr #22
    e7fc:	0000ebac 	andeq	lr, r0, ip, lsr #23
	...
    e824:	0000e7a8 	andeq	lr, r0, r8, lsr #15
	...
    e898:	00000001 	andeq	r0, r0, r1
    e89c:	00000000 	andeq	r0, r0, r0
    e8a0:	abcd330e 	blge	ff35b4e0 <__ram_end+0xf735b4e0>
    e8a4:	e66d1234 			; <UNDEFINED> instruction: 0xe66d1234
    e8a8:	0005deec 	andeq	sp, r5, ip, ror #29
    e8ac:	0000000b 	andeq	r0, r0, fp
	...

0000ec18 <_tzname>:
    ec18:	0000e7ac 	andeq	lr, r0, ip, lsr #15
    ec1c:	0000e7ac 	andeq	lr, r0, ip, lsr #15

0000ec20 <tzinfo>:
    ec20:	00000001 	andeq	r0, r0, r1
    ec24:	00000000 	andeq	r0, r0, r0
    ec28:	0000004a 	andeq	r0, r0, sl, asr #32
	...
    ec44:	0000004a 	andeq	r0, r0, sl, asr #32
	...

Disassembly of section .bss:

0000ec60 <dmx_output_fast_as_possible>:
    ec60:	00000000 	andeq	r0, r0, r0

0000ec64 <dmx_statistics>:
	...

0000ec78 <rdm_data_buffer_index_tail>:
	...

0000ec7a <rdm_data_buffer_index_head>:
	...

0000ec7c <rdm_data_buffer>:
	...

00010c7c <dmx_available>:
   10c7c:	00000000 	andeq	r0, r0, r0

00010c80 <dmx_data_previous>:
	...

00010e84 <dmx_slots_in_packet_previous>:
   10e84:	00000000 	andeq	r0, r0, r0

00010e88 <rdm_data_receive_end>:
   10e88:	00000000 	andeq	r0, r0, r0

00010e8c <total_statistics>:
	...

00010e94 <dmx_fiq_micros_current>:
   10e94:	00000000 	andeq	r0, r0, r0

00010e98 <dmx_receive_state>:
   10e98:	00000000 	andeq	r0, r0, r0

00010e9c <dmx_break_to_break_previous>:
   10e9c:	00000000 	andeq	r0, r0, r0

00010ea0 <dmx_break_to_break_current>:
   10ea0:	00000000 	andeq	r0, r0, r0

00010ea4 <dmx_data_index>:
	...

00010ea6 <rdm_checksum>:
	...

00010ea8 <dmx_fiq_micros_previous>:
   10ea8:	00000000 	andeq	r0, r0, r0

00010eac <rdm_disc_index>:
	...

00010ead <dmx_send_always>:
	...

00010eae <dmx_send_state>:
	...

00010eb0 <dmx_send_break_micros>:
   10eb0:	00000000 	andeq	r0, r0, r0

00010eb4 <dmx_packets_previous>:
   10eb4:	00000000 	andeq	r0, r0, r0

00010eb8 <slots_in_packet_max>:
   10eb8:	00000000 	andeq	r0, r0, r0

00010ebc <slot_to_slot_max>:
   10ebc:	00000000 	andeq	r0, r0, r0

00010ec0 <break_to_break_max>:
   10ec0:	00000000 	andeq	r0, r0, r0

00010ec4 <rdm_statistics>:
	...

00010ed4 <heap_end>:
   10ed4:	00000000 	andeq	r0, r0, r0

00010ed8 <fb_addr>:
   10ed8:	00000000 	andeq	r0, r0, r0

00010edc <fb_pitch>:
   10edc:	00000000 	andeq	r0, r0, r0

00010ee0 <fb_width>:
   10ee0:	00000000 	andeq	r0, r0, r0

00010ee4 <fb_height>:
   10ee4:	00000000 	andeq	r0, r0, r0

00010ee8 <fb_size>:
   10ee8:	00000000 	andeq	r0, r0, r0

00010eec <fb_depth>:
   10eec:	00000000 	andeq	r0, r0, r0

00010ef0 <cur_y>:
   10ef0:	00000000 	andeq	r0, r0, r0

00010ef4 <cur_x>:
   10ef4:	00000000 	andeq	r0, r0, r0

00010ef8 <cur_back>:
   10ef8:	00000000 	andeq	r0, r0, r0

00010efc <outptr>:
   10efc:	00000000 	andeq	r0, r0, r0

00010f00 <hardware_init_startup_micros>:
	...

00010f08 <micros_previous>:
   10f08:	00000000 	andeq	r0, r0, r0

00010f0c <led_counter>:
   10f0c:	00000000 	andeq	r0, r0, r0

00010f10 <sys_time_init_startup_micros>:
	...

00010f18 <rtc_startup_seconds>:
	...

00010f20 <_timezone>:
   10f20:	00000000 	andeq	r0, r0, r0

00010f24 <_daylight>:
   10f24:	00000000 	andeq	r0, r0, r0

00010f28 <dmx_data>:
	...

0001112c <events_elapsed_time>:
   1112c:	00000000 	andeq	r0, r0, r0
