In archive lib/libfb.a:

console.o:     file format elf32-littlearm


Disassembly of section .text:

00000000 <console_get_address>:
   0:	e59f3004 	ldr	r3, [pc, #4]	; c <console_get_address+0xc>
   4:	e5930000 	ldr	r0, [r3]
   8:	e12fff1e 	bx	lr
   c:	00000000 	andeq	r0, r0, r0

00000010 <console_get_pitch>:
  10:	e59f3004 	ldr	r3, [pc, #4]	; 1c <console_get_pitch+0xc>
  14:	e5930004 	ldr	r0, [r3, #4]
  18:	e12fff1e 	bx	lr
  1c:	00000000 	andeq	r0, r0, r0

00000020 <console_get_width>:
  20:	e59f3004 	ldr	r3, [pc, #4]	; 2c <console_get_width+0xc>
  24:	e5930008 	ldr	r0, [r3, #8]
  28:	e12fff1e 	bx	lr
  2c:	00000000 	andeq	r0, r0, r0

00000030 <console_get_height>:
  30:	e59f3004 	ldr	r3, [pc, #4]	; 3c <console_get_height+0xc>
  34:	e593000c 	ldr	r0, [r3, #12]
  38:	e12fff1e 	bx	lr
  3c:	00000000 	andeq	r0, r0, r0

00000040 <console_get_size>:
  40:	e59f3004 	ldr	r3, [pc, #4]	; 4c <console_get_size+0xc>
  44:	e5930010 	ldr	r0, [r3, #16]
  48:	e12fff1e 	bx	lr
  4c:	00000000 	andeq	r0, r0, r0

00000050 <console_get_depth>:
  50:	e59f3004 	ldr	r3, [pc, #4]	; 5c <console_get_depth+0xc>
  54:	e5930014 	ldr	r0, [r3, #20]
  58:	e12fff1e 	bx	lr
  5c:	00000000 	andeq	r0, r0, r0

00000060 <console_draw_char>:
  60:	e92d4ff0 	push	{r4, r5, r6, r7, r8, r9, sl, fp, lr}
  64:	e1a05001 	mov	r5, r1
  68:	e3a01d19 	mov	r1, #1600	; 0x640
  6c:	e24dd00c 	sub	sp, sp, #12
  70:	e1a02202 	lsl	r2, r2, #4
  74:	e1a0e185 	lsl	lr, r5, #3
  78:	e58d0004 	str	r0, [sp, #4]
  7c:	e0000291 	mul	r0, r1, r2
  80:	e59f20e8 	ldr	r2, [pc, #232]	; 170 <console_draw_char+0x110>
  84:	e28e4006 	add	r4, lr, #6
  88:	e5922000 	ldr	r2, [r2]
  8c:	e1a04084 	lsl	r4, r4, #1
  90:	e284a002 	add	sl, r4, #2
  94:	e28e9001 	add	r9, lr, #1
  98:	e28e8002 	add	r8, lr, #2
  9c:	e28e7003 	add	r7, lr, #3
  a0:	e28e6004 	add	r6, lr, #4
  a4:	e28ee005 	add	lr, lr, #5
  a8:	e59f10c4 	ldr	r1, [pc, #196]	; 174 <console_draw_char+0x114>
  ac:	e08aa002 	add	sl, sl, r2
  b0:	e0844002 	add	r4, r4, r2
  b4:	e0825205 	add	r5, r2, r5, lsl #4
  b8:	e0829089 	add	r9, r2, r9, lsl #1
  bc:	e0828088 	add	r8, r2, r8, lsl #1
  c0:	e0827087 	add	r7, r2, r7, lsl #1
  c4:	e0826086 	add	r6, r2, r6, lsl #1
  c8:	e082e08e 	add	lr, r2, lr, lsl #1
  cc:	e59d2004 	ldr	r2, [sp, #4]
  d0:	e1ddc3b0 	ldrh	ip, [sp, #48]	; 0x30
  d4:	e280bb19 	add	fp, r0, #25600	; 0x6400
  d8:	e0811202 	add	r1, r1, r2, lsl #4
  dc:	e5f12001 	ldrb	r2, [r1, #1]!
  e0:	e3120001 	tst	r2, #1
  e4:	e1a020a2 	lsr	r2, r2, #1
  e8:	0180c0b5 	strheq	ip, [r0, r5]
  ec:	118530b0 	strhne	r3, [r5, r0]
  f0:	e3120001 	tst	r2, #1
  f4:	e1a020a2 	lsr	r2, r2, #1
  f8:	0189c0b0 	strheq	ip, [r9, r0]
  fc:	118930b0 	strhne	r3, [r9, r0]
 100:	e3120001 	tst	r2, #1
 104:	e1a020a2 	lsr	r2, r2, #1
 108:	0188c0b0 	strheq	ip, [r8, r0]
 10c:	118830b0 	strhne	r3, [r8, r0]
 110:	e3120001 	tst	r2, #1
 114:	e1a020a2 	lsr	r2, r2, #1
 118:	0180c0b7 	strheq	ip, [r0, r7]
 11c:	118030b7 	strhne	r3, [r0, r7]
 120:	e3120001 	tst	r2, #1
 124:	e1a020a2 	lsr	r2, r2, #1
 128:	0180c0b6 	strheq	ip, [r0, r6]
 12c:	118030b6 	strhne	r3, [r0, r6]
 130:	e3120001 	tst	r2, #1
 134:	e1a020a2 	lsr	r2, r2, #1
 138:	0180c0be 	strheq	ip, [r0, lr]
 13c:	118030be 	strhne	r3, [r0, lr]
 140:	e3120001 	tst	r2, #1
 144:	0180c0b4 	strheq	ip, [r0, r4]
 148:	118030b4 	strhne	r3, [r0, r4]
 14c:	e3120002 	tst	r2, #2
 150:	0180c0ba 	strheq	ip, [r0, sl]
 154:	118030ba 	strhne	r3, [r0, sl]
 158:	e2800d19 	add	r0, r0, #1600	; 0x640
 15c:	e150000b 	cmp	r0, fp
 160:	1affffdd 	bne	dc <console_draw_char+0x7c>
 164:	e59d0004 	ldr	r0, [sp, #4]
 168:	e28dd00c 	add	sp, sp, #12
 16c:	e8bd8ff0 	pop	{r4, r5, r6, r7, r8, r9, sl, fp, pc}
 170:	00000000 	andeq	r0, r0, r0
 174:	ffffffff 			; <UNDEFINED> instruction: 0xffffffff

00000178 <console_putc>:
 178:	e92d4ff0 	push	{r4, r5, r6, r7, r8, r9, sl, fp, lr}
 17c:	e350000a 	cmp	r0, #10
 180:	e24dd01c 	sub	sp, sp, #28
 184:	e58d0004 	str	r0, [sp, #4]
 188:	0a00008f 	beq	3cc <console_putc+0x254>
 18c:	e350000d 	cmp	r0, #13
 190:	0a00005d 	beq	30c <console_putc+0x194>
 194:	e3500009 	cmp	r0, #9
 198:	0a000054 	beq	2f0 <console_putc+0x178>
 19c:	e59f32c4 	ldr	r3, [pc, #708]	; 468 <console_putc+0x2f0>
 1a0:	e3a01d19 	mov	r1, #1600	; 0x640
 1a4:	e1a02003 	mov	r2, r3
 1a8:	e5920018 	ldr	r0, [r2, #24]
 1ac:	e58d3008 	str	r3, [sp, #8]
 1b0:	e1a0c000 	mov	ip, r0
 1b4:	e58d0010 	str	r0, [sp, #16]
 1b8:	e1a00002 	mov	r0, r2
 1bc:	e592201c 	ldr	r2, [r2, #28]
 1c0:	e59f32a4 	ldr	r3, [pc, #676]	; 46c <console_putc+0x2f4>
 1c4:	e1a0b002 	mov	fp, r2
 1c8:	e58d200c 	str	r2, [sp, #12]
 1cc:	e1a0220c 	lsl	r2, ip, #4
 1d0:	e0020291 	mul	r2, r1, r2
 1d4:	e5901000 	ldr	r1, [r0]
 1d8:	e1a0e18b 	lsl	lr, fp, #3
 1dc:	e1a0a001 	mov	sl, r1
 1e0:	e58d1014 	str	r1, [sp, #20]
 1e4:	e1d310b0 	ldrh	r1, [r3]
 1e8:	e1a0300a 	mov	r3, sl
 1ec:	e28e4006 	add	r4, lr, #6
 1f0:	e1a04084 	lsl	r4, r4, #1
 1f4:	e59fc274 	ldr	ip, [pc, #628]	; 470 <console_putc+0x2f8>
 1f8:	e083b20b 	add	fp, r3, fp, lsl #4
 1fc:	e59d3004 	ldr	r3, [sp, #4]
 200:	e2849002 	add	r9, r4, #2
 204:	e28e8001 	add	r8, lr, #1
 208:	e28e7002 	add	r7, lr, #2
 20c:	e28e6003 	add	r6, lr, #3
 210:	e28e5004 	add	r5, lr, #4
 214:	e1d002b0 	ldrh	r0, [r0, #32]
 218:	e28ee005 	add	lr, lr, #5
 21c:	e089900a 	add	r9, r9, sl
 220:	e084400a 	add	r4, r4, sl
 224:	e08a8088 	add	r8, sl, r8, lsl #1
 228:	e08a7087 	add	r7, sl, r7, lsl #1
 22c:	e08a6086 	add	r6, sl, r6, lsl #1
 230:	e08a5085 	add	r5, sl, r5, lsl #1
 234:	e08ae08e 	add	lr, sl, lr, lsl #1
 238:	e08cc203 	add	ip, ip, r3, lsl #4
 23c:	e282ab19 	add	sl, r2, #25600	; 0x6400
 240:	e5fc3001 	ldrb	r3, [ip, #1]!
 244:	e3130001 	tst	r3, #1
 248:	e1a030a3 	lsr	r3, r3, #1
 24c:	018200bb 	strheq	r0, [r2, fp]
 250:	118b10b2 	strhne	r1, [fp, r2]
 254:	e3130001 	tst	r3, #1
 258:	e1a030a3 	lsr	r3, r3, #1
 25c:	018800b2 	strheq	r0, [r8, r2]
 260:	118810b2 	strhne	r1, [r8, r2]
 264:	e3130001 	tst	r3, #1
 268:	e1a030a3 	lsr	r3, r3, #1
 26c:	018700b2 	strheq	r0, [r7, r2]
 270:	118710b2 	strhne	r1, [r7, r2]
 274:	e3130001 	tst	r3, #1
 278:	e1a030a3 	lsr	r3, r3, #1
 27c:	018600b2 	strheq	r0, [r6, r2]
 280:	118610b2 	strhne	r1, [r6, r2]
 284:	e3130001 	tst	r3, #1
 288:	e1a030a3 	lsr	r3, r3, #1
 28c:	018500b2 	strheq	r0, [r5, r2]
 290:	118510b2 	strhne	r1, [r5, r2]
 294:	e3130001 	tst	r3, #1
 298:	e1a030a3 	lsr	r3, r3, #1
 29c:	018e00b2 	strheq	r0, [lr, r2]
 2a0:	118e10b2 	strhne	r1, [lr, r2]
 2a4:	e3130001 	tst	r3, #1
 2a8:	018400b2 	strheq	r0, [r4, r2]
 2ac:	118410b2 	strhne	r1, [r4, r2]
 2b0:	e3130002 	tst	r3, #2
 2b4:	018900b2 	strheq	r0, [r9, r2]
 2b8:	118910b2 	strhne	r1, [r9, r2]
 2bc:	e2822d19 	add	r2, r2, #1600	; 0x640
 2c0:	e152000a 	cmp	r2, sl
 2c4:	1affffdd 	bne	240 <console_putc+0xc8>
 2c8:	e59d300c 	ldr	r3, [sp, #12]
 2cc:	e59d2008 	ldr	r2, [sp, #8]
 2d0:	e2833001 	add	r3, r3, #1
 2d4:	e3530064 	cmp	r3, #100	; 0x64
 2d8:	e582301c 	str	r3, [r2, #28]
 2dc:	e59f4184 	ldr	r4, [pc, #388]	; 468 <console_putc+0x2f0>
 2e0:	0a00000f 	beq	324 <console_putc+0x1ac>
 2e4:	e59d0004 	ldr	r0, [sp, #4]
 2e8:	e28dd01c 	add	sp, sp, #28
 2ec:	e8bd8ff0 	pop	{r4, r5, r6, r7, r8, r9, sl, fp, pc}
 2f0:	e59f2170 	ldr	r2, [pc, #368]	; 468 <console_putc+0x2f0>
 2f4:	e59d0004 	ldr	r0, [sp, #4]
 2f8:	e592301c 	ldr	r3, [r2, #28]
 2fc:	e2833004 	add	r3, r3, #4
 300:	e582301c 	str	r3, [r2, #28]
 304:	e28dd01c 	add	sp, sp, #28
 308:	e8bd8ff0 	pop	{r4, r5, r6, r7, r8, r9, sl, fp, pc}
 30c:	e3a02000 	mov	r2, #0
 310:	e59f3150 	ldr	r3, [pc, #336]	; 468 <console_putc+0x2f0>
 314:	e59d0004 	ldr	r0, [sp, #4]
 318:	e583201c 	str	r2, [r3, #28]
 31c:	e28dd01c 	add	sp, sp, #28
 320:	e8bd8ff0 	pop	{r4, r5, r6, r7, r8, r9, sl, fp, pc}
 324:	e3a02000 	mov	r2, #0
 328:	e59d3010 	ldr	r3, [sp, #16]
 32c:	e584201c 	str	r2, [r4, #28]
 330:	e2833001 	add	r3, r3, #1
 334:	e353001e 	cmp	r3, #30
 338:	e5843018 	str	r3, [r4, #24]
 33c:	1affffe8 	bne	2e4 <console_putc+0x16c>
 340:	e59d0014 	ldr	r0, [sp, #20]
 344:	e59f2128 	ldr	r2, [pc, #296]	; 474 <console_putc+0x2fc>
 348:	e2801b19 	add	r1, r0, #25600	; 0x6400
 34c:	ebfffffe 	bl	0 <memmove>
 350:	e5943000 	ldr	r3, [r4]
 354:	e1d4e2b0 	ldrh	lr, [r4, #32]
 358:	e2833ab5 	add	r3, r3, #741376	; 0xb5000
 35c:	e2833b01 	add	r3, r3, #1024	; 0x400
 360:	e2132002 	ands	r2, r3, #2
 364:	13e02000 	mvnne	r2, #0
 368:	e2120001 	ands	r0, r2, #1
 36c:	03a0cc32 	moveq	ip, #12800	; 0x3200
 370:	03a01c19 	moveq	r1, #6400	; 0x1900
 374:	01a0500c 	moveq	r5, ip
 378:	e3a02000 	mov	r2, #0
 37c:	159fc0f4 	ldrne	ip, [pc, #244]	; 478 <console_putc+0x300>
 380:	159f10f4 	ldrne	r1, [pc, #244]	; 47c <console_putc+0x304>
 384:	159f50f4 	ldrne	r5, [pc, #244]	; 480 <console_putc+0x308>
 388:	11c3e0b0 	strhne	lr, [r3]
 38c:	12834002 	addne	r4, r3, #2
 390:	01a04003 	moveq	r4, r3
 394:	e0833080 	add	r3, r3, r0, lsl #1
 398:	e18e080e 	orr	r0, lr, lr, lsl #16
 39c:	e2822001 	add	r2, r2, #1
 3a0:	e1520001 	cmp	r2, r1
 3a4:	e4830004 	str	r0, [r3], #4
 3a8:	3afffffb 	bcc	39c <console_putc+0x224>
 3ac:	e59d2008 	ldr	r2, [sp, #8]
 3b0:	e155000c 	cmp	r5, ip
 3b4:	e5923018 	ldr	r3, [r2, #24]
 3b8:	e1a0c08c 	lsl	ip, ip, #1
 3bc:	e2433001 	sub	r3, r3, #1
 3c0:	1184e0bc 	strhne	lr, [r4, ip]
 3c4:	e5823018 	str	r3, [r2, #24]
 3c8:	eaffffc5 	b	2e4 <console_putc+0x16c>
 3cc:	e59f3094 	ldr	r3, [pc, #148]	; 468 <console_putc+0x2f0>
 3d0:	e3a02000 	mov	r2, #0
 3d4:	e1a01003 	mov	r1, r3
 3d8:	e58d3008 	str	r3, [sp, #8]
 3dc:	e5933018 	ldr	r3, [r3, #24]
 3e0:	e581201c 	str	r2, [r1, #28]
 3e4:	e2833001 	add	r3, r3, #1
 3e8:	e353001e 	cmp	r3, #30
 3ec:	e5813018 	str	r3, [r1, #24]
 3f0:	1affffbb 	bne	2e4 <console_putc+0x16c>
 3f4:	e1a04001 	mov	r4, r1
 3f8:	e5910000 	ldr	r0, [r1]
 3fc:	e59f2070 	ldr	r2, [pc, #112]	; 474 <console_putc+0x2fc>
 400:	e2801b19 	add	r1, r0, #25600	; 0x6400
 404:	ebfffffe 	bl	0 <memmove>
 408:	e5943000 	ldr	r3, [r4]
 40c:	e1d4e2b0 	ldrh	lr, [r4, #32]
 410:	e2833ab5 	add	r3, r3, #741376	; 0xb5000
 414:	e2833b01 	add	r3, r3, #1024	; 0x400
 418:	e2132002 	ands	r2, r3, #2
 41c:	13e02000 	mvnne	r2, #0
 420:	e2120001 	ands	r0, r2, #1
 424:	03a0cc32 	moveq	ip, #12800	; 0x3200
 428:	03a01c19 	moveq	r1, #6400	; 0x1900
 42c:	01a0500c 	moveq	r5, ip
 430:	e3a02000 	mov	r2, #0
 434:	159f1040 	ldrne	r1, [pc, #64]	; 47c <console_putc+0x304>
 438:	159fc038 	ldrne	ip, [pc, #56]	; 478 <console_putc+0x300>
 43c:	159f503c 	ldrne	r5, [pc, #60]	; 480 <console_putc+0x308>
 440:	11c3e0b0 	strhne	lr, [r3]
 444:	12834002 	addne	r4, r3, #2
 448:	01a04003 	moveq	r4, r3
 44c:	e0833080 	add	r3, r3, r0, lsl #1
 450:	e18e080e 	orr	r0, lr, lr, lsl #16
 454:	e2822001 	add	r2, r2, #1
 458:	e1520001 	cmp	r2, r1
 45c:	e4830004 	str	r0, [r3], #4
 460:	3afffffb 	bcc	454 <console_putc+0x2dc>
 464:	eaffffd0 	b	3ac <console_putc+0x234>
	...
 470:	ffffffff 			; <UNDEFINED> instruction: 0xffffffff
 474:	000b5400 	andeq	r5, fp, r0, lsl #8
 478:	000031fe 	strdeq	r3, [r0], -lr
 47c:	000018ff 	strdeq	r1, [r0], -pc	; <UNPREDICTABLE>
 480:	000031ff 	strdeq	r3, [r0], -pc	; <UNPREDICTABLE>

00000484 <console_putc_inverted>:
 484:	e92d4038 	push	{r3, r4, r5, lr}
 488:	e59f5038 	ldr	r5, [pc, #56]	; 4c8 <console_putc_inverted+0x44>
 48c:	e59f4038 	ldr	r4, [pc, #56]	; 4cc <console_putc_inverted+0x48>
 490:	e1d520b0 	ldrh	r2, [r5]
 494:	e1d432b0 	ldrh	r3, [r4, #32]
 498:	e1e02002 	mvn	r2, r2
 49c:	e1e03003 	mvn	r3, r3
 4a0:	e1c520b0 	strh	r2, [r5]
 4a4:	e1c432b0 	strh	r3, [r4, #32]
 4a8:	ebfffffe 	bl	178 <console_putc>
 4ac:	e1d520b0 	ldrh	r2, [r5]
 4b0:	e1d432b0 	ldrh	r3, [r4, #32]
 4b4:	e1e02002 	mvn	r2, r2
 4b8:	e1e03003 	mvn	r3, r3
 4bc:	e1c520b0 	strh	r2, [r5]
 4c0:	e1c432b0 	strh	r3, [r4, #32]
 4c4:	e8bd8038 	pop	{r3, r4, r5, pc}
	...

000004d0 <console_puts>:
 4d0:	e92d4010 	push	{r4, lr}
 4d4:	e1a04000 	mov	r4, r0
 4d8:	e5d00000 	ldrb	r0, [r0]
 4dc:	e2844001 	add	r4, r4, #1
 4e0:	e3500000 	cmp	r0, #0
 4e4:	08bd8010 	popeq	{r4, pc}
 4e8:	ebfffffe 	bl	178 <console_putc>
 4ec:	e4d40001 	ldrb	r0, [r4], #1
 4f0:	e3500000 	cmp	r0, #0
 4f4:	1afffffb 	bne	4e8 <console_puts+0x18>
 4f8:	e8bd8010 	pop	{r4, pc}

000004fc <console_puthex>:
 4fc:	e92d4010 	push	{r4, lr}
 500:	e1a04000 	mov	r4, r0
 504:	e1a00220 	lsr	r0, r0, #4
 508:	e3500009 	cmp	r0, #9
 50c:	e204400f 	and	r4, r4, #15
 510:	92800030 	addls	r0, r0, #48	; 0x30
 514:	82800037 	addhi	r0, r0, #55	; 0x37
 518:	ebfffffe 	bl	178 <console_putc>
 51c:	e3540009 	cmp	r4, #9
 520:	92840030 	addls	r0, r4, #48	; 0x30
 524:	82840037 	addhi	r0, r4, #55	; 0x37
 528:	e8bd4010 	pop	{r4, lr}
 52c:	eafffffe 	b	178 <console_putc>

00000530 <console_puthex_inverted>:
 530:	e92d4070 	push	{r4, r5, r6, lr}
 534:	e59f6060 	ldr	r6, [pc, #96]	; 59c <console_puthex_inverted+0x6c>
 538:	e59f5060 	ldr	r5, [pc, #96]	; 5a0 <console_puthex_inverted+0x70>
 53c:	e1d620b0 	ldrh	r2, [r6]
 540:	e1d532b0 	ldrh	r3, [r5, #32]
 544:	e1a04000 	mov	r4, r0
 548:	e1e02002 	mvn	r2, r2
 54c:	e1e03003 	mvn	r3, r3
 550:	e1a00220 	lsr	r0, r0, #4
 554:	e3500009 	cmp	r0, #9
 558:	e204400f 	and	r4, r4, #15
 55c:	92800030 	addls	r0, r0, #48	; 0x30
 560:	82800037 	addhi	r0, r0, #55	; 0x37
 564:	e1c620b0 	strh	r2, [r6]
 568:	e1c532b0 	strh	r3, [r5, #32]
 56c:	ebfffffe 	bl	178 <console_putc>
 570:	e3540009 	cmp	r4, #9
 574:	92840030 	addls	r0, r4, #48	; 0x30
 578:	82840037 	addhi	r0, r4, #55	; 0x37
 57c:	ebfffffe 	bl	178 <console_putc>
 580:	e1d620b0 	ldrh	r2, [r6]
 584:	e1d532b0 	ldrh	r3, [r5, #32]
 588:	e1e02002 	mvn	r2, r2
 58c:	e1e03003 	mvn	r3, r3
 590:	e1c620b0 	strh	r2, [r6]
 594:	e1c532b0 	strh	r3, [r5, #32]
 598:	e8bd8070 	pop	{r4, r5, r6, pc}
	...

000005a4 <console_puthex_fg_bg>:
 5a4:	e92d41f0 	push	{r4, r5, r6, r7, r8, lr}
 5a8:	e1a04000 	mov	r4, r0
 5ac:	e1a00220 	lsr	r0, r0, #4
 5b0:	e3500009 	cmp	r0, #9
 5b4:	e59f803c 	ldr	r8, [pc, #60]	; 5f8 <console_puthex_fg_bg+0x54>
 5b8:	e59f503c 	ldr	r5, [pc, #60]	; 5fc <console_puthex_fg_bg+0x58>
 5bc:	e204400f 	and	r4, r4, #15
 5c0:	92800030 	addls	r0, r0, #48	; 0x30
 5c4:	82800037 	addhi	r0, r0, #55	; 0x37
 5c8:	e1d870b0 	ldrh	r7, [r8]
 5cc:	e1d562b0 	ldrh	r6, [r5, #32]
 5d0:	e1c810b0 	strh	r1, [r8]
 5d4:	e1c522b0 	strh	r2, [r5, #32]
 5d8:	ebfffffe 	bl	178 <console_putc>
 5dc:	e3540009 	cmp	r4, #9
 5e0:	92840030 	addls	r0, r4, #48	; 0x30
 5e4:	82840037 	addhi	r0, r4, #55	; 0x37
 5e8:	ebfffffe 	bl	178 <console_putc>
 5ec:	e1c870b0 	strh	r7, [r8]
 5f0:	e1c562b0 	strh	r6, [r5, #32]
 5f4:	e8bd81f0 	pop	{r4, r5, r6, r7, r8, pc}
	...

00000600 <console_newline>:
 600:	e3a02000 	mov	r2, #0
 604:	e92d4070 	push	{r4, r5, r6, lr}
 608:	e59f409c 	ldr	r4, [pc, #156]	; 6ac <console_newline+0xac>
 60c:	e5943018 	ldr	r3, [r4, #24]
 610:	e584201c 	str	r2, [r4, #28]
 614:	e2833001 	add	r3, r3, #1
 618:	e353001e 	cmp	r3, #30
 61c:	e5843018 	str	r3, [r4, #24]
 620:	18bd8070 	popne	{r4, r5, r6, pc}
 624:	e5940000 	ldr	r0, [r4]
 628:	e59f2080 	ldr	r2, [pc, #128]	; 6b0 <console_newline+0xb0>
 62c:	e2801b19 	add	r1, r0, #25600	; 0x6400
 630:	ebfffffe 	bl	0 <memmove>
 634:	e5942000 	ldr	r2, [r4]
 638:	e1d4e2b0 	ldrh	lr, [r4, #32]
 63c:	e2822ab5 	add	r2, r2, #741376	; 0xb5000
 640:	e2822b01 	add	r2, r2, #1024	; 0x400
 644:	e2123002 	ands	r3, r2, #2
 648:	13e03000 	mvnne	r3, #0
 64c:	e2130001 	ands	r0, r3, #1
 650:	03a0cc32 	moveq	ip, #12800	; 0x3200
 654:	03a01c19 	moveq	r1, #6400	; 0x1900
 658:	01a0600c 	moveq	r6, ip
 65c:	e3a03000 	mov	r3, #0
 660:	159fc04c 	ldrne	ip, [pc, #76]	; 6b4 <console_newline+0xb4>
 664:	159f104c 	ldrne	r1, [pc, #76]	; 6b8 <console_newline+0xb8>
 668:	159f604c 	ldrne	r6, [pc, #76]	; 6bc <console_newline+0xbc>
 66c:	11c2e0b0 	strhne	lr, [r2]
 670:	12825002 	addne	r5, r2, #2
 674:	01a05002 	moveq	r5, r2
 678:	e0822080 	add	r2, r2, r0, lsl #1
 67c:	e18e080e 	orr	r0, lr, lr, lsl #16
 680:	e2833001 	add	r3, r3, #1
 684:	e1530001 	cmp	r3, r1
 688:	e4820004 	str	r0, [r2], #4
 68c:	3afffffb 	bcc	680 <console_newline+0x80>
 690:	e5943018 	ldr	r3, [r4, #24]
 694:	e156000c 	cmp	r6, ip
 698:	e2433001 	sub	r3, r3, #1
 69c:	e1a0c08c 	lsl	ip, ip, #1
 6a0:	1185e0bc 	strhne	lr, [r5, ip]
 6a4:	e5843018 	str	r3, [r4, #24]
 6a8:	e8bd8070 	pop	{r4, r5, r6, pc}
 6ac:	00000000 	andeq	r0, r0, r0
 6b0:	000b5400 	andeq	r5, fp, r0, lsl #8
 6b4:	000031fe 	strdeq	r3, [r0], -lr
 6b8:	000018ff 	strdeq	r1, [r0], -pc	; <UNPREDICTABLE>
 6bc:	000031ff 	strdeq	r3, [r0], -pc	; <UNPREDICTABLE>

000006c0 <console_clear>:
 6c0:	e59fc070 	ldr	ip, [pc, #112]	; 738 <console_clear+0x78>
 6c4:	e92d4070 	push	{r4, r5, r6, lr}
 6c8:	e59c2000 	ldr	r2, [ip]
 6cc:	e1dc42b0 	ldrh	r4, [ip, #32]
 6d0:	e2123002 	ands	r3, r2, #2
 6d4:	13e03000 	mvnne	r3, #0
 6d8:	e2130001 	ands	r0, r3, #1
 6dc:	059fe058 	ldreq	lr, [pc, #88]	; 73c <console_clear+0x7c>
 6e0:	e3a03000 	mov	r3, #0
 6e4:	01a0600e 	moveq	r6, lr
 6e8:	159fe050 	ldrne	lr, [pc, #80]	; 740 <console_clear+0x80>
 6ec:	159f1050 	ldrne	r1, [pc, #80]	; 744 <console_clear+0x84>
 6f0:	159f6050 	ldrne	r6, [pc, #80]	; 748 <console_clear+0x88>
 6f4:	059f1050 	ldreq	r1, [pc, #80]	; 74c <console_clear+0x8c>
 6f8:	11c240b0 	strhne	r4, [r2]
 6fc:	12825002 	addne	r5, r2, #2
 700:	01a05002 	moveq	r5, r2
 704:	e0822080 	add	r2, r2, r0, lsl #1
 708:	e1840804 	orr	r0, r4, r4, lsl #16
 70c:	e2833001 	add	r3, r3, #1
 710:	e1530001 	cmp	r3, r1
 714:	e4820004 	str	r0, [r2], #4
 718:	3afffffb 	bcc	70c <console_clear+0x4c>
 71c:	e3a03000 	mov	r3, #0
 720:	e156000e 	cmp	r6, lr
 724:	e1a0e08e 	lsl	lr, lr, #1
 728:	118540be 	strhne	r4, [r5, lr]
 72c:	e58c301c 	str	r3, [ip, #28]
 730:	e58c3018 	str	r3, [ip, #24]
 734:	e8bd8070 	pop	{r4, r5, r6, pc}
 738:	00000000 	andeq	r0, r0, r0
 73c:	0005dc00 	andeq	sp, r5, r0, lsl #24
 740:	0005dbfe 	strdeq	sp, [r5], -lr
 744:	0002edff 	strdeq	lr, [r2], -pc	; <UNPREDICTABLE>
 748:	0005dbff 	strdeq	sp, [r5], -pc	; <UNPREDICTABLE>
 74c:	0002ee00 	andeq	lr, r2, r0, lsl #28

00000750 <console_set_cursor>:
 750:	e3500064 	cmp	r0, #100	; 0x64
 754:	c3a00000 	movgt	r0, #0
 758:	e351001e 	cmp	r1, #30
 75c:	c3a01000 	movgt	r1, #0
 760:	e59f3008 	ldr	r3, [pc, #8]	; 770 <console_set_cursor+0x20>
 764:	e583001c 	str	r0, [r3, #28]
 768:	e5831018 	str	r1, [r3, #24]
 76c:	e12fff1e 	bx	lr
 770:	00000000 	andeq	r0, r0, r0

00000774 <console_set_fg_color>:
 774:	e59f3004 	ldr	r3, [pc, #4]	; 780 <console_set_fg_color+0xc>
 778:	e1c300b0 	strh	r0, [r3]
 77c:	e12fff1e 	bx	lr
 780:	00000000 	andeq	r0, r0, r0

00000784 <console_set_bg_color>:
 784:	e59f3004 	ldr	r3, [pc, #4]	; 790 <console_set_bg_color+0xc>
 788:	e1c302b0 	strh	r0, [r3, #32]
 78c:	e12fff1e 	bx	lr
 790:	00000000 	andeq	r0, r0, r0

00000794 <console_clear_line>:
 794:	e3a01b19 	mov	r1, #25600	; 0x6400
 798:	e59f3080 	ldr	r3, [pc, #128]	; 820 <console_clear_line+0x8c>
 79c:	e0010091 	mul	r1, r1, r0
 7a0:	e92d4070 	push	{r4, r5, r6, lr}
 7a4:	e593e000 	ldr	lr, [r3]
 7a8:	e350001e 	cmp	r0, #30
 7ac:	e081200e 	add	r2, r1, lr
 7b0:	c3a00000 	movgt	r0, #0
 7b4:	e212c002 	ands	ip, r2, #2
 7b8:	13e0c000 	mvnne	ip, #0
 7bc:	e21cc001 	ands	ip, ip, #1
 7c0:	e3a04000 	mov	r4, #0
 7c4:	03a0ec32 	moveq	lr, #12800	; 0x3200
 7c8:	e5830018 	str	r0, [r3, #24]
 7cc:	e583401c 	str	r4, [r3, #28]
 7d0:	01a0600e 	moveq	r6, lr
 7d4:	e1d342b0 	ldrh	r4, [r3, #32]
 7d8:	03a01c19 	moveq	r1, #6400	; 0x1900
 7dc:	e3a03000 	mov	r3, #0
 7e0:	118140be 	strhne	r4, [r1, lr]
 7e4:	159f6038 	ldrne	r6, [pc, #56]	; 824 <console_clear_line+0x90>
 7e8:	159fe038 	ldrne	lr, [pc, #56]	; 828 <console_clear_line+0x94>
 7ec:	159f1038 	ldrne	r1, [pc, #56]	; 82c <console_clear_line+0x98>
 7f0:	12825002 	addne	r5, r2, #2
 7f4:	01a05002 	moveq	r5, r2
 7f8:	e1840804 	orr	r0, r4, r4, lsl #16
 7fc:	e082208c 	add	r2, r2, ip, lsl #1
 800:	e2833001 	add	r3, r3, #1
 804:	e1530001 	cmp	r3, r1
 808:	e4820004 	str	r0, [r2], #4
 80c:	3afffffb 	bcc	800 <console_clear_line+0x6c>
 810:	e156000e 	cmp	r6, lr
 814:	e1a0e08e 	lsl	lr, lr, #1
 818:	118540be 	strhne	r4, [r5, lr]
 81c:	e8bd8070 	pop	{r4, r5, r6, pc}
 820:	00000000 	andeq	r0, r0, r0
 824:	000031ff 	strdeq	r3, [r0], -pc	; <UNPREDICTABLE>
 828:	000031fe 	strdeq	r3, [r0], -lr
 82c:	000018ff 	strdeq	r1, [r0], -pc	; <UNPREDICTABLE>

00000830 <console_init>:
 830:	e92d4ff8 	push	{r3, r4, r5, r6, r7, r8, r9, sl, fp, lr}
 834:	e3a0c020 	mov	ip, #32
 838:	e3a03000 	mov	r3, #0
 83c:	e3a05008 	mov	r5, #8
 840:	e28db024 	add	fp, sp, #36	; 0x24
 844:	e24dde11 	sub	sp, sp, #272	; 0x110
 848:	e59f2184 	ldr	r2, [pc, #388]	; 9d4 <console_init+0x1a4>
 84c:	e28d400f 	add	r4, sp, #15
 850:	e3c4400f 	bic	r4, r4, #15
 854:	e1a01004 	mov	r1, r4
 858:	e5842008 	str	r2, [r4, #8]
 85c:	e5843004 	str	r3, [r4, #4]
 860:	e5843010 	str	r3, [r4, #16]
 864:	e5843014 	str	r3, [r4, #20]
 868:	e5843018 	str	r3, [r4, #24]
 86c:	e584301c 	str	r3, [r4, #28]
 870:	e1a00005 	mov	r0, r5
 874:	e584c000 	str	ip, [r4]
 878:	e584500c 	str	r5, [r4, #12]
 87c:	ebfffffe 	bl	0 <bcm2835_mailbox_write>
 880:	e1a00005 	mov	r0, r5
 884:	ebfffffe 	bl	0 <bcm2835_mailbox_read>
 888:	e5942014 	ldr	r2, [r4, #20]
 88c:	e5943018 	ldr	r3, [r4, #24]
 890:	e59f6140 	ldr	r6, [pc, #320]	; 9d8 <console_init+0x1a8>
 894:	e1931002 	orrs	r1, r3, r2
 898:	e5862008 	str	r2, [r6, #8]
 89c:	e586300c 	str	r3, [r6, #12]
 8a0:	1a000005 	bne	8bc <console_init+0x8c>
 8a4:	e3a00e32 	mov	r0, #800	; 0x320
 8a8:	e3a01e1e 	mov	r1, #480	; 0x1e0
 8ac:	e1a02000 	mov	r2, r0
 8b0:	e1a03001 	mov	r3, r1
 8b4:	e5860008 	str	r0, [r6, #8]
 8b8:	e586100c 	str	r1, [r6, #12]
 8bc:	e3a05008 	mov	r5, #8
 8c0:	e3a0c000 	mov	ip, #0
 8c4:	e3a0e010 	mov	lr, #16
 8c8:	e3a07004 	mov	r7, #4
 8cc:	e3a0a058 	mov	sl, #88	; 0x58
 8d0:	e5843018 	str	r3, [r4, #24]
 8d4:	e584302c 	str	r3, [r4, #44]	; 0x2c
 8d8:	e59f30fc 	ldr	r3, [pc, #252]	; 9dc <console_init+0x1ac>
 8dc:	e59f90fc 	ldr	r9, [pc, #252]	; 9e0 <console_init+0x1b0>
 8e0:	e5843030 	str	r3, [r4, #48]	; 0x30
 8e4:	e59f80f8 	ldr	r8, [pc, #248]	; 9e4 <console_init+0x1b4>
 8e8:	e59f30f8 	ldr	r3, [pc, #248]	; 9e8 <console_init+0x1b8>
 8ec:	e5842014 	str	r2, [r4, #20]
 8f0:	e5842028 	str	r2, [r4, #40]	; 0x28
 8f4:	e5843040 	str	r3, [r4, #64]	; 0x40
 8f8:	e1a00005 	mov	r0, r5
 8fc:	e1a01004 	mov	r1, r4
 900:	e8841400 	stm	r4, {sl, ip}
 904:	e584c050 	str	ip, [r4, #80]	; 0x50
 908:	e584c054 	str	ip, [r4, #84]	; 0x54
 90c:	e584e03c 	str	lr, [r4, #60]	; 0x3c
 910:	e584e04c 	str	lr, [r4, #76]	; 0x4c
 914:	e584500c 	str	r5, [r4, #12]
 918:	e5845010 	str	r5, [r4, #16]
 91c:	e5845020 	str	r5, [r4, #32]
 920:	e5845024 	str	r5, [r4, #36]	; 0x24
 924:	e5845044 	str	r5, [r4, #68]	; 0x44
 928:	e5847034 	str	r7, [r4, #52]	; 0x34
 92c:	e5847038 	str	r7, [r4, #56]	; 0x38
 930:	e5847048 	str	r7, [r4, #72]	; 0x48
 934:	e5849008 	str	r9, [r4, #8]
 938:	e584801c 	str	r8, [r4, #28]
 93c:	ebfffffe 	bl	0 <bcm2835_mailbox_write>
 940:	e1a00005 	mov	r0, r5
 944:	ebfffffe 	bl	0 <bcm2835_mailbox_read>
 948:	e594304c 	ldr	r3, [r4, #76]	; 0x4c
 94c:	e5942050 	ldr	r2, [r4, #80]	; 0x50
 950:	e5863000 	str	r3, [r6]
 954:	e3520000 	cmp	r2, #0
 958:	13530000 	cmpne	r3, #0
 95c:	e5862010 	str	r2, [r6, #16]
 960:	03a03001 	moveq	r3, #1
 964:	13a03000 	movne	r3, #0
 968:	e59f6068 	ldr	r6, [pc, #104]	; 9d8 <console_init+0x1a8>
 96c:	0a000016 	beq	9cc <console_init+0x19c>
 970:	e3a0e01c 	mov	lr, #28
 974:	e59f2070 	ldr	r2, [pc, #112]	; 9ec <console_init+0x1bc>
 978:	e594c03c 	ldr	ip, [r4, #60]	; 0x3c
 97c:	e1a00005 	mov	r0, r5
 980:	e1a01004 	mov	r1, r4
 984:	e5843004 	str	r3, [r4, #4]
 988:	e5843010 	str	r3, [r4, #16]
 98c:	e5843014 	str	r3, [r4, #20]
 990:	e5843018 	str	r3, [r4, #24]
 994:	e584e000 	str	lr, [r4]
 998:	e5842008 	str	r2, [r4, #8]
 99c:	e584700c 	str	r7, [r4, #12]
 9a0:	e586c014 	str	ip, [r6, #20]
 9a4:	ebfffffe 	bl	0 <bcm2835_mailbox_write>
 9a8:	e1a00005 	mov	r0, r5
 9ac:	ebfffffe 	bl	0 <bcm2835_mailbox_read>
 9b0:	e5940014 	ldr	r0, [r4, #20]
 9b4:	e3500000 	cmp	r0, #0
 9b8:	e5860004 	str	r0, [r6, #4]
 9bc:	13a00000 	movne	r0, #0
 9c0:	03e00000 	mvneq	r0, #0
 9c4:	e24bd024 	sub	sp, fp, #36	; 0x24
 9c8:	e8bd8ff8 	pop	{r3, r4, r5, r6, r7, r8, r9, sl, fp, pc}
 9cc:	e3e00000 	mvn	r0, #0
 9d0:	eafffffb 	b	9c4 <console_init+0x194>
 9d4:	00040003 	andeq	r0, r4, r3
 9d8:	00000000 	andeq	r0, r0, r0
 9dc:	00048005 	andeq	r8, r4, r5
 9e0:	00048003 	andeq	r8, r4, r3
 9e4:	00048004 	andeq	r8, r4, r4
 9e8:	00040001 	andeq	r0, r4, r1
 9ec:	00040008 	andeq	r0, r4, r8

Disassembly of section .data:

00000000 <cur_fore>:
   0:	Address 0x0000000000000000 is out of bounds.


Disassembly of section .bss:

00000000 <fb_addr>:
   0:	00000000 	andeq	r0, r0, r0

00000004 <fb_pitch>:
   4:	00000000 	andeq	r0, r0, r0

00000008 <fb_width>:
   8:	00000000 	andeq	r0, r0, r0

0000000c <fb_height>:
   c:	00000000 	andeq	r0, r0, r0

00000010 <fb_size>:
  10:	00000000 	andeq	r0, r0, r0

00000014 <fb_depth>:
  14:	00000000 	andeq	r0, r0, r0

00000018 <cur_y>:
  18:	00000000 	andeq	r0, r0, r0

0000001c <cur_x>:
  1c:	00000000 	andeq	r0, r0, r0

00000020 <cur_back>:
  20:	00000000 	andeq	r0, r0, r0

Disassembly of section .comment:

00000000 <.comment>:
   0:	43434700 	movtmi	r4, #14080	; 0x3700
   4:	4728203a 			; <UNDEFINED> instruction: 0x4728203a
   8:	2029554e 	eorcs	r5, r9, lr, asr #10
   c:	2e392e34 	mrccs	14, 1, r2, cr9, cr4, {1}
  10:	Address 0x0000000000000010 is out of bounds.


Disassembly of section .ARM.attributes:

00000000 <.ARM.attributes>:
   0:	00003d41 	andeq	r3, r0, r1, asr #26
   4:	61656100 	cmnvs	r5, r0, lsl #2
   8:	01006962 	tsteq	r0, r2, ror #18
   c:	00000033 	andeq	r0, r0, r3, lsr r0
  10:	4d524105 	ldfmie	f4, [r2, #-20]	; 0xffffffec
  14:	36373131 			; <UNDEFINED> instruction: 0x36373131
  18:	2d465a4a 	vstrcs	s11, [r6, #-296]	; 0xfffffed8
  1c:	07060053 	smlsdeq	r6, r3, r0, r0
  20:	01090108 	tsteq	r9, r8, lsl #2
  24:	0412020a 	ldreq	r0, [r2], #-522	; 0xfffffdf6
  28:	01150114 	tsteq	r5, r4, lsl r1
  2c:	01180317 	tsteq	r8, r7, lsl r3
  30:	011a0119 	tsteq	sl, r9, lsl r1
  34:	011c031b 	tsteq	ip, fp, lsl r3
  38:	0122021e 	teqeq	r2, lr, lsl r2
  3c:	Address 0x000000000000003c is out of bounds.


printf.o:     file format elf32-littlearm


Disassembly of section .text:

00000000 <vprintf>:
   0:	e92d4ff0 	push	{r4, r5, r6, r7, r8, r9, sl, fp, lr}
   4:	e1a04000 	mov	r4, r0
   8:	e1a07001 	mov	r7, r1
   c:	e3a09000 	mov	r9, #0
  10:	e59f879c 	ldr	r8, [pc, #1948]	; 7b4 <vprintf+0x7b4>
  14:	e59f679c 	ldr	r6, [pc, #1948]	; 7b8 <vprintf+0x7b8>
  18:	e24dd024 	sub	sp, sp, #36	; 0x24
  1c:	e5d40000 	ldrb	r0, [r4]
  20:	e3500000 	cmp	r0, #0
  24:	0a00000c 	beq	5c <vprintf+0x5c>
  28:	e3500025 	cmp	r0, #37	; 0x25
  2c:	0a00000d 	beq	68 <vprintf+0x68>
  30:	e5983000 	ldr	r3, [r8]
  34:	e2844001 	add	r4, r4, #1
  38:	e3530000 	cmp	r3, #0
  3c:	e2899001 	add	r9, r9, #1
  40:	0a00016f 	beq	604 <vprintf+0x604>
  44:	e5c30000 	strb	r0, [r3]
  48:	e5d40000 	ldrb	r0, [r4]
  4c:	e2832001 	add	r2, r3, #1
  50:	e3500000 	cmp	r0, #0
  54:	e5882000 	str	r2, [r8]
  58:	1afffff2 	bne	28 <vprintf+0x28>
  5c:	e1a00009 	mov	r0, r9
  60:	e28dd024 	add	sp, sp, #36	; 0x24
  64:	e8bd8ff0 	pop	{r4, r5, r6, r7, r8, r9, sl, fp, pc}
  68:	e5d4c001 	ldrb	ip, [r4, #1]
  6c:	e35c0030 	cmp	ip, #48	; 0x30
  70:	0a00014a 	beq	5a0 <vprintf+0x5a0>
  74:	e35c002d 	cmp	ip, #45	; 0x2d
  78:	0a00014e 	beq	5b8 <vprintf+0x5b8>
  7c:	e1a0300c 	mov	r3, ip
  80:	e3a01011 	mov	r1, #17
  84:	e3a0a001 	mov	sl, #1
  88:	e3a0c010 	mov	ip, #16
  8c:	e3a0e000 	mov	lr, #0
  90:	e2845001 	add	r5, r4, #1
  94:	e2432030 	sub	r2, r3, #48	; 0x30
  98:	e6ef0072 	uxtb	r0, r2
  9c:	e3500009 	cmp	r0, #9
  a0:	81a0100a 	movhi	r1, sl
  a4:	81a0c00e 	movhi	ip, lr
  a8:	83a04000 	movhi	r4, #0
  ac:	8a00000a 	bhi	dc <vprintf+0xdc>
  b0:	e3a04000 	mov	r4, #0
  b4:	e5f53001 	ldrb	r3, [r5, #1]!
  b8:	e0844104 	add	r4, r4, r4, lsl #2
  bc:	e0824084 	add	r4, r2, r4, lsl #1
  c0:	e2432030 	sub	r2, r3, #48	; 0x30
  c4:	e6ef0072 	uxtb	r0, r2
  c8:	e3500009 	cmp	r0, #9
  cc:	9afffff8 	bls	b4 <vprintf+0xb4>
  d0:	e3540000 	cmp	r4, #0
  d4:	01a0100a 	moveq	r1, sl
  d8:	01a0c00e 	moveq	ip, lr
  dc:	e353002e 	cmp	r3, #46	; 0x2e
  e0:	11a00003 	movne	r0, r3
  e4:	13a0b000 	movne	fp, #0
  e8:	0a00011b 	beq	55c <vprintf+0x55c>
  ec:	e350006c 	cmp	r0, #108	; 0x6c
  f0:	05d50001 	ldrbeq	r0, [r5, #1]
  f4:	038cc004 	orreq	ip, ip, #4
  f8:	e2402058 	sub	r2, r0, #88	; 0x58
  fc:	02855001 	addeq	r5, r5, #1
 100:	e3520020 	cmp	r2, #32
 104:	979ff102 	ldrls	pc, [pc, r2, lsl #2]
 108:	ea00010a 	b	538 <vprintf+0x538>
 10c:	00000190 	muleq	r0, r0, r1
 110:	00000538 	andeq	r0, r0, r8, lsr r5
 114:	00000538 	andeq	r0, r0, r8, lsr r5
 118:	00000538 	andeq	r0, r0, r8, lsr r5
 11c:	00000538 	andeq	r0, r0, r8, lsr r5
 120:	00000538 	andeq	r0, r0, r8, lsr r5
 124:	00000538 	andeq	r0, r0, r8, lsr r5
 128:	00000538 	andeq	r0, r0, r8, lsr r5
 12c:	00000538 	andeq	r0, r0, r8, lsr r5
 130:	00000538 	andeq	r0, r0, r8, lsr r5
 134:	00000538 	andeq	r0, r0, r8, lsr r5
 138:	00000508 	andeq	r0, r0, r8, lsl #10
 13c:	000003b8 			; <UNDEFINED> instruction: 0x000003b8
 140:	00000538 	andeq	r0, r0, r8, lsr r5
 144:	00000538 	andeq	r0, r0, r8, lsr r5
 148:	00000538 	andeq	r0, r0, r8, lsr r5
 14c:	00000538 	andeq	r0, r0, r8, lsr r5
 150:	00000538 	andeq	r0, r0, r8, lsr r5
 154:	00000538 	andeq	r0, r0, r8, lsr r5
 158:	00000538 	andeq	r0, r0, r8, lsr r5
 15c:	00000538 	andeq	r0, r0, r8, lsr r5
 160:	00000538 	andeq	r0, r0, r8, lsr r5
 164:	00000538 	andeq	r0, r0, r8, lsr r5
 168:	00000538 	andeq	r0, r0, r8, lsr r5
 16c:	00000538 	andeq	r0, r0, r8, lsr r5
 170:	00000538 	andeq	r0, r0, r8, lsr r5
 174:	00000538 	andeq	r0, r0, r8, lsr r5
 178:	0000031c 	andeq	r0, r0, ip, lsl r3
 17c:	00000538 	andeq	r0, r0, r8, lsr r5
 180:	00000538 	andeq	r0, r0, r8, lsr r5
 184:	00000538 	andeq	r0, r0, r8, lsr r5
 188:	00000538 	andeq	r0, r0, r8, lsr r5
 18c:	00000194 	muleq	r0, r4, r1
 190:	e38cc002 	orr	ip, ip, #2
 194:	e5972000 	ldr	r2, [r7]
 198:	e287a004 	add	sl, r7, #4
 19c:	e3520000 	cmp	r2, #0
 1a0:	1a00010b 	bne	5d4 <vprintf+0x5d4>
 1a4:	e3a03030 	mov	r3, #48	; 0x30
 1a8:	e28d701e 	add	r7, sp, #30
 1ac:	e5cd301f 	strb	r3, [sp, #31]
 1b0:	e31c0001 	tst	ip, #1
 1b4:	0a000013 	beq	208 <vprintf+0x208>
 1b8:	e28d101f 	add	r1, sp, #31
 1bc:	e0672001 	rsb	r2, r7, r1
 1c0:	e15b0002 	cmp	fp, r2
 1c4:	e28d3010 	add	r3, sp, #16
 1c8:	d3a02000 	movle	r2, #0
 1cc:	c3a02001 	movgt	r2, #1
 1d0:	e1570003 	cmp	r7, r3
 1d4:	93a02000 	movls	r2, #0
 1d8:	e3520000 	cmp	r2, #0
 1dc:	0a000009 	beq	208 <vprintf+0x208>
 1e0:	e3a00030 	mov	r0, #48	; 0x30
 1e4:	e4470001 	strb	r0, [r7], #-1
 1e8:	e0672001 	rsb	r2, r7, r1
 1ec:	e152000b 	cmp	r2, fp
 1f0:	a3a02000 	movge	r2, #0
 1f4:	b3a02001 	movlt	r2, #1
 1f8:	e1570003 	cmp	r7, r3
 1fc:	93a02000 	movls	r2, #0
 200:	e3520000 	cmp	r2, #0
 204:	1afffff6 	bne	1e4 <vprintf+0x1e4>
 208:	e31c0020 	tst	ip, #32
 20c:	0a000013 	beq	260 <vprintf+0x260>
 210:	e28d101f 	add	r1, sp, #31
 214:	e0672001 	rsb	r2, r7, r1
 218:	e1540002 	cmp	r4, r2
 21c:	e28d3010 	add	r3, sp, #16
 220:	d3a02000 	movle	r2, #0
 224:	c3a02001 	movgt	r2, #1
 228:	e1570003 	cmp	r7, r3
 22c:	93a02000 	movls	r2, #0
 230:	e3520000 	cmp	r2, #0
 234:	0a00001f 	beq	2b8 <vprintf+0x2b8>
 238:	e3a00030 	mov	r0, #48	; 0x30
 23c:	e4470001 	strb	r0, [r7], #-1
 240:	e0672001 	rsb	r2, r7, r1
 244:	e1540002 	cmp	r4, r2
 248:	d3a02000 	movle	r2, #0
 24c:	c3a02001 	movgt	r2, #1
 250:	e1570003 	cmp	r7, r3
 254:	93a02000 	movls	r2, #0
 258:	e3520000 	cmp	r2, #0
 25c:	1afffff6 	bne	23c <vprintf+0x23c>
 260:	e31c0010 	tst	ip, #16
 264:	0a000013 	beq	2b8 <vprintf+0x2b8>
 268:	e28d101f 	add	r1, sp, #31
 26c:	e0672001 	rsb	r2, r7, r1
 270:	e1540002 	cmp	r4, r2
 274:	e28d3010 	add	r3, sp, #16
 278:	d3a02000 	movle	r2, #0
 27c:	c3a02001 	movgt	r2, #1
 280:	e1570003 	cmp	r7, r3
 284:	93a02000 	movls	r2, #0
 288:	e3520000 	cmp	r2, #0
 28c:	0a000009 	beq	2b8 <vprintf+0x2b8>
 290:	e3a00020 	mov	r0, #32
 294:	e4470001 	strb	r0, [r7], #-1
 298:	e0672001 	rsb	r2, r7, r1
 29c:	e1540002 	cmp	r4, r2
 2a0:	d3a02000 	movle	r2, #0
 2a4:	c3a02001 	movgt	r2, #1
 2a8:	e1570003 	cmp	r7, r3
 2ac:	93a02000 	movls	r2, #0
 2b0:	e3520000 	cmp	r2, #0
 2b4:	1afffff6 	bne	294 <vprintf+0x294>
 2b8:	e2874001 	add	r4, r7, #1
 2bc:	e28d3020 	add	r3, sp, #32
 2c0:	e1540003 	cmp	r4, r3
 2c4:	3a000005 	bcc	2e0 <vprintf+0x2e0>
 2c8:	ea000011 	b	314 <vprintf+0x314>
 2cc:	e5c30000 	strb	r0, [r3]
 2d0:	e28d3020 	add	r3, sp, #32
 2d4:	e1540003 	cmp	r4, r3
 2d8:	e5882000 	str	r2, [r8]
 2dc:	0a000008 	beq	304 <vprintf+0x304>
 2e0:	e5983000 	ldr	r3, [r8]
 2e4:	e4d40001 	ldrb	r0, [r4], #1
 2e8:	e3530000 	cmp	r3, #0
 2ec:	e2832001 	add	r2, r3, #1
 2f0:	1afffff5 	bne	2cc <vprintf+0x2cc>
 2f4:	ebfffffe 	bl	0 <console_putc>
 2f8:	e28d3020 	add	r3, sp, #32
 2fc:	e1540003 	cmp	r4, r3
 300:	1afffff6 	bne	2e0 <vprintf+0x2e0>
 304:	e28d3021 	add	r3, sp, #33	; 0x21
 308:	e2877002 	add	r7, r7, #2
 30c:	e0839009 	add	r9, r3, r9
 310:	e0679009 	rsb	r9, r7, r9
 314:	e1a0700a 	mov	r7, sl
 318:	ea000084 	b	530 <vprintf+0x530>
 31c:	e5972000 	ldr	r2, [r7]
 320:	e2877004 	add	r7, r7, #4
 324:	e5d2a000 	ldrb	sl, [r2]
 328:	e35a0000 	cmp	sl, #0
 32c:	0a000005 	beq	348 <vprintf+0x348>
 330:	e1a03002 	mov	r3, r2
 334:	e3a0a000 	mov	sl, #0
 338:	e5f31001 	ldrb	r1, [r3, #1]!
 33c:	e28aa001 	add	sl, sl, #1
 340:	e3510000 	cmp	r1, #0
 344:	1afffffb 	bne	338 <vprintf+0x338>
 348:	e21c1001 	ands	r1, ip, #1
 34c:	1a0000c3 	bne	660 <vprintf+0x660>
 350:	e31c0040 	tst	ip, #64	; 0x40
 354:	11a03009 	movne	r3, r9
 358:	1a0000fd 	bne	754 <vprintf+0x754>
 35c:	e3a0c020 	mov	ip, #32
 360:	e06a9009 	rsb	r9, sl, r9
 364:	ea000001 	b	370 <vprintf+0x370>
 368:	e5880000 	str	r0, [r8]
 36c:	e5c3c000 	strb	ip, [r3]
 370:	e089300a 	add	r3, r9, sl
 374:	e28aa001 	add	sl, sl, #1
 378:	e24a0001 	sub	r0, sl, #1
 37c:	e1540000 	cmp	r4, r0
 380:	da0000f1 	ble	74c <vprintf+0x74c>
 384:	e5983000 	ldr	r3, [r8]
 388:	e3530000 	cmp	r3, #0
 38c:	e2830001 	add	r0, r3, #1
 390:	1afffff4 	bne	368 <vprintf+0x368>
 394:	e3a00020 	mov	r0, #32
 398:	e58dc00c 	str	ip, [sp, #12]
 39c:	e58d1008 	str	r1, [sp, #8]
 3a0:	e58d2004 	str	r2, [sp, #4]
 3a4:	ebfffffe 	bl	0 <console_putc>
 3a8:	e59dc00c 	ldr	ip, [sp, #12]
 3ac:	e59d1008 	ldr	r1, [sp, #8]
 3b0:	e59d2004 	ldr	r2, [sp, #4]
 3b4:	eaffffed 	b	370 <vprintf+0x370>
 3b8:	e5971000 	ldr	r1, [r7]
 3bc:	e2877004 	add	r7, r7, #4
 3c0:	e3510000 	cmp	r1, #0
 3c4:	b38cc008 	orrlt	ip, ip, #8
 3c8:	b2611000 	rsblt	r1, r1, #0
 3cc:	ba0000d1 	blt	718 <vprintf+0x718>
 3d0:	03a03030 	moveq	r3, #48	; 0x30
 3d4:	028da01e 	addeq	sl, sp, #30
 3d8:	05cd301f 	strbeq	r3, [sp, #31]
 3dc:	1a0000cd 	bne	718 <vprintf+0x718>
 3e0:	e31c0001 	tst	ip, #1
 3e4:	0a000013 	beq	438 <vprintf+0x438>
 3e8:	e28d101f 	add	r1, sp, #31
 3ec:	e06a2001 	rsb	r2, sl, r1
 3f0:	e15b0002 	cmp	fp, r2
 3f4:	e28d3010 	add	r3, sp, #16
 3f8:	d3a02000 	movle	r2, #0
 3fc:	c3a02001 	movgt	r2, #1
 400:	e15a0003 	cmp	sl, r3
 404:	93a02000 	movls	r2, #0
 408:	e3520000 	cmp	r2, #0
 40c:	0a000009 	beq	438 <vprintf+0x438>
 410:	e3a00030 	mov	r0, #48	; 0x30
 414:	e44a0001 	strb	r0, [sl], #-1
 418:	e06a2001 	rsb	r2, sl, r1
 41c:	e152000b 	cmp	r2, fp
 420:	a3a02000 	movge	r2, #0
 424:	b3a02001 	movlt	r2, #1
 428:	e15a0003 	cmp	sl, r3
 42c:	93a02000 	movls	r2, #0
 430:	e3520000 	cmp	r2, #0
 434:	1afffff6 	bne	414 <vprintf+0x414>
 438:	e31c0020 	tst	ip, #32
 43c:	0a000013 	beq	490 <vprintf+0x490>
 440:	e28d101f 	add	r1, sp, #31
 444:	e06a2001 	rsb	r2, sl, r1
 448:	e1540002 	cmp	r4, r2
 44c:	e28d3010 	add	r3, sp, #16
 450:	d3a02000 	movle	r2, #0
 454:	c3a02001 	movgt	r2, #1
 458:	e15a0003 	cmp	sl, r3
 45c:	93a02000 	movls	r2, #0
 460:	e3520000 	cmp	r2, #0
 464:	0a000009 	beq	490 <vprintf+0x490>
 468:	e3a00030 	mov	r0, #48	; 0x30
 46c:	e44a0001 	strb	r0, [sl], #-1
 470:	e06a2001 	rsb	r2, sl, r1
 474:	e1540002 	cmp	r4, r2
 478:	d3a02000 	movle	r2, #0
 47c:	c3a02001 	movgt	r2, #1
 480:	e15a0003 	cmp	sl, r3
 484:	93a02000 	movls	r2, #0
 488:	e3520000 	cmp	r2, #0
 48c:	1afffff6 	bne	46c <vprintf+0x46c>
 490:	e31c0008 	tst	ip, #8
 494:	13a0302d 	movne	r3, #45	; 0x2d
 498:	15ca3000 	strbne	r3, [sl]
 49c:	124aa001 	subne	sl, sl, #1
 4a0:	e31c0010 	tst	ip, #16
 4a4:	1a000058 	bne	60c <vprintf+0x60c>
 4a8:	e28a4001 	add	r4, sl, #1
 4ac:	e28d3020 	add	r3, sp, #32
 4b0:	e1540003 	cmp	r4, r3
 4b4:	3a000005 	bcc	4d0 <vprintf+0x4d0>
 4b8:	ea00001c 	b	530 <vprintf+0x530>
 4bc:	e5c30000 	strb	r0, [r3]
 4c0:	e28d3020 	add	r3, sp, #32
 4c4:	e1540003 	cmp	r4, r3
 4c8:	e5882000 	str	r2, [r8]
 4cc:	0a000008 	beq	4f4 <vprintf+0x4f4>
 4d0:	e5983000 	ldr	r3, [r8]
 4d4:	e4d40001 	ldrb	r0, [r4], #1
 4d8:	e3530000 	cmp	r3, #0
 4dc:	e2832001 	add	r2, r3, #1
 4e0:	1afffff5 	bne	4bc <vprintf+0x4bc>
 4e4:	ebfffffe 	bl	0 <console_putc>
 4e8:	e28d3020 	add	r3, sp, #32
 4ec:	e1540003 	cmp	r4, r3
 4f0:	1afffff6 	bne	4d0 <vprintf+0x4d0>
 4f4:	e28d3021 	add	r3, sp, #33	; 0x21
 4f8:	e28aa002 	add	sl, sl, #2
 4fc:	e0839009 	add	r9, r3, r9
 500:	e06a9009 	rsb	r9, sl, r9
 504:	ea000009 	b	530 <vprintf+0x530>
 508:	e5983000 	ldr	r3, [r8]
 50c:	e2899001 	add	r9, r9, #1
 510:	e3530000 	cmp	r3, #0
 514:	e2874004 	add	r4, r7, #4
 518:	e5970000 	ldr	r0, [r7]
 51c:	0a00009e 	beq	79c <vprintf+0x79c>
 520:	e1a07004 	mov	r7, r4
 524:	e2832001 	add	r2, r3, #1
 528:	e5c30000 	strb	r0, [r3]
 52c:	e5882000 	str	r2, [r8]
 530:	e2854001 	add	r4, r5, #1
 534:	eafffeb8 	b	1c <vprintf+0x1c>
 538:	e5982000 	ldr	r2, [r8]
 53c:	e2899001 	add	r9, r9, #1
 540:	e3520000 	cmp	r2, #0
 544:	0a000097 	beq	7a8 <vprintf+0x7a8>
 548:	e2821001 	add	r1, r2, #1
 54c:	e5c20000 	strb	r0, [r2]
 550:	e5881000 	str	r1, [r8]
 554:	e1a04005 	mov	r4, r5
 558:	eafffeaf 	b	1c <vprintf+0x1c>
 55c:	e5d53001 	ldrb	r3, [r5, #1]
 560:	e2855001 	add	r5, r5, #1
 564:	e2432030 	sub	r2, r3, #48	; 0x30
 568:	e6ef0072 	uxtb	r0, r2
 56c:	e3500009 	cmp	r0, #9
 570:	8a000086 	bhi	790 <vprintf+0x790>
 574:	e3a0b000 	mov	fp, #0
 578:	e5f53001 	ldrb	r3, [r5, #1]!
 57c:	e08bb10b 	add	fp, fp, fp, lsl #2
 580:	e082b08b 	add	fp, r2, fp, lsl #1
 584:	e2432030 	sub	r2, r3, #48	; 0x30
 588:	e6ef0072 	uxtb	r0, r2
 58c:	e3500009 	cmp	r0, #9
 590:	9afffff8 	bls	578 <vprintf+0x578>
 594:	e1a00003 	mov	r0, r3
 598:	e1a0c001 	mov	ip, r1
 59c:	eafffed2 	b	ec <vprintf+0xec>
 5a0:	e3a01031 	mov	r1, #49	; 0x31
 5a4:	e3a0a021 	mov	sl, #33	; 0x21
 5a8:	e3a0e020 	mov	lr, #32
 5ac:	e5d43002 	ldrb	r3, [r4, #2]
 5b0:	e2845002 	add	r5, r4, #2
 5b4:	eafffeb6 	b	94 <vprintf+0x94>
 5b8:	e2845002 	add	r5, r4, #2
 5bc:	e5d43002 	ldrb	r3, [r4, #2]
 5c0:	e3a01051 	mov	r1, #81	; 0x51
 5c4:	e3a0a041 	mov	sl, #65	; 0x41
 5c8:	e3a0c050 	mov	ip, #80	; 0x50
 5cc:	e3a0e040 	mov	lr, #64	; 0x40
 5d0:	eafffeaf 	b	94 <vprintf+0x94>
 5d4:	e31c0002 	tst	ip, #2
 5d8:	03a01057 	moveq	r1, #87	; 0x57
 5dc:	13a01037 	movne	r1, #55	; 0x37
 5e0:	e28d701f 	add	r7, sp, #31
 5e4:	e202300f 	and	r3, r2, #15
 5e8:	e3530009 	cmp	r3, #9
 5ec:	92833030 	addls	r3, r3, #48	; 0x30
 5f0:	80833001 	addhi	r3, r3, r1
 5f4:	e1b02222 	lsrs	r2, r2, #4
 5f8:	e4473001 	strb	r3, [r7], #-1
 5fc:	1afffff8 	bne	5e4 <vprintf+0x5e4>
 600:	eafffeea 	b	1b0 <vprintf+0x1b0>
 604:	ebfffffe 	bl	0 <console_putc>
 608:	eafffe83 	b	1c <vprintf+0x1c>
 60c:	e28d101f 	add	r1, sp, #31
 610:	e06a2001 	rsb	r2, sl, r1
 614:	e1540002 	cmp	r4, r2
 618:	e28d3010 	add	r3, sp, #16
 61c:	d3a02000 	movle	r2, #0
 620:	c3a02001 	movgt	r2, #1
 624:	e15a0003 	cmp	sl, r3
 628:	93a02000 	movls	r2, #0
 62c:	e3520000 	cmp	r2, #0
 630:	0affff9c 	beq	4a8 <vprintf+0x4a8>
 634:	e3a00020 	mov	r0, #32
 638:	e44a0001 	strb	r0, [sl], #-1
 63c:	e06a2001 	rsb	r2, sl, r1
 640:	e1540002 	cmp	r4, r2
 644:	d3a02000 	movle	r2, #0
 648:	c3a02001 	movgt	r2, #1
 64c:	e15a0003 	cmp	sl, r3
 650:	93a02000 	movls	r2, #0
 654:	e3520000 	cmp	r2, #0
 658:	1afffff6 	bne	638 <vprintf+0x638>
 65c:	eaffff91 	b	4a8 <vprintf+0x4a8>
 660:	e15a000b 	cmp	sl, fp
 664:	a1a0a00b 	movge	sl, fp
 668:	e31c0040 	tst	ip, #64	; 0x40
 66c:	0affff3a 	beq	35c <vprintf+0x35c>
 670:	e1a03009 	mov	r3, r9
 674:	e1a09002 	mov	r9, r2
 678:	e082200b 	add	r2, r2, fp
 67c:	e069b003 	rsb	fp, r9, r3
 680:	e1590002 	cmp	r9, r2
 684:	e08b3009 	add	r3, fp, r9
 688:	0a00000e 	beq	6c8 <vprintf+0x6c8>
 68c:	e4d90001 	ldrb	r0, [r9], #1
 690:	e3500000 	cmp	r0, #0
 694:	0a00000b 	beq	6c8 <vprintf+0x6c8>
 698:	e5981000 	ldr	r1, [r8]
 69c:	e3510000 	cmp	r1, #0
 6a0:	e2813001 	add	r3, r1, #1
 6a4:	15883000 	strne	r3, [r8]
 6a8:	15c10000 	strbne	r0, [r1]
 6ac:	1afffff3 	bne	680 <vprintf+0x680>
 6b0:	e58d2004 	str	r2, [sp, #4]
 6b4:	ebfffffe 	bl	0 <console_putc>
 6b8:	e59d2004 	ldr	r2, [sp, #4]
 6bc:	e08b3009 	add	r3, fp, r9
 6c0:	e1590002 	cmp	r9, r2
 6c4:	1afffff0 	bne	68c <vprintf+0x68c>
 6c8:	e1a0b003 	mov	fp, r3
 6cc:	e3a01020 	mov	r1, #32
 6d0:	e063a00a 	rsb	sl, r3, sl
 6d4:	ea000002 	b	6e4 <vprintf+0x6e4>
 6d8:	e5882000 	str	r2, [r8]
 6dc:	e5c31000 	strb	r1, [r3]
 6e0:	e28bb001 	add	fp, fp, #1
 6e4:	e08a300b 	add	r3, sl, fp
 6e8:	e1540003 	cmp	r4, r3
 6ec:	e1a0900b 	mov	r9, fp
 6f0:	daffff8e 	ble	530 <vprintf+0x530>
 6f4:	e5983000 	ldr	r3, [r8]
 6f8:	e3530000 	cmp	r3, #0
 6fc:	e2832001 	add	r2, r3, #1
 700:	1afffff4 	bne	6d8 <vprintf+0x6d8>
 704:	e3a00020 	mov	r0, #32
 708:	e58d1004 	str	r1, [sp, #4]
 70c:	ebfffffe 	bl	0 <console_putc>
 710:	e59d1004 	ldr	r1, [sp, #4]
 714:	eafffff1 	b	6e0 <vprintf+0x6e0>
 718:	e28da01f 	add	sl, sp, #31
 71c:	e0c23196 	smull	r3, r2, r6, r1
 720:	e1a03fc1 	asr	r3, r1, #31
 724:	e0633142 	rsb	r3, r3, r2, asr #2
 728:	e0832103 	add	r2, r3, r3, lsl #2
 72c:	e0412082 	sub	r2, r1, r2, lsl #1
 730:	e2822030 	add	r2, r2, #48	; 0x30
 734:	e2531000 	subs	r1, r3, #0
 738:	e44a2001 	strb	r2, [sl], #-1
 73c:	1afffff6 	bne	71c <vprintf+0x71c>
 740:	e31c0001 	tst	ip, #1
 744:	0affff3b 	beq	438 <vprintf+0x438>
 748:	eaffff26 	b	3e8 <vprintf+0x3e8>
 74c:	e3510000 	cmp	r1, #0
 750:	1affffc7 	bne	674 <vprintf+0x674>
 754:	e1a09002 	mov	r9, r2
 758:	e062b003 	rsb	fp, r2, r3
 75c:	ea000001 	b	768 <vprintf+0x768>
 760:	e5883000 	str	r3, [r8]
 764:	e5c10000 	strb	r0, [r1]
 768:	e08b3009 	add	r3, fp, r9
 76c:	e4d90001 	ldrb	r0, [r9], #1
 770:	e3500000 	cmp	r0, #0
 774:	0affffd3 	beq	6c8 <vprintf+0x6c8>
 778:	e5981000 	ldr	r1, [r8]
 77c:	e3510000 	cmp	r1, #0
 780:	e2813001 	add	r3, r1, #1
 784:	1afffff5 	bne	760 <vprintf+0x760>
 788:	ebfffffe 	bl	0 <console_putc>
 78c:	eafffff5 	b	768 <vprintf+0x768>
 790:	e1a00003 	mov	r0, r3
 794:	e3a0b000 	mov	fp, #0
 798:	eaffff7e 	b	598 <vprintf+0x598>
 79c:	ebfffffe 	bl	0 <console_putc>
 7a0:	e1a07004 	mov	r7, r4
 7a4:	eaffff61 	b	530 <vprintf+0x530>
 7a8:	ebfffffe 	bl	0 <console_putc>
 7ac:	e1a04005 	mov	r4, r5
 7b0:	eafffe19 	b	1c <vprintf+0x1c>
 7b4:	00000000 	andeq	r0, r0, r0
 7b8:	66666667 	strbtvs	r6, [r6], -r7, ror #12

000007bc <printf>:
 7bc:	e92d000f 	push	{r0, r1, r2, r3}
 7c0:	e52de004 	push	{lr}		; (str lr, [sp, #-4]!)
 7c4:	e24dd00c 	sub	sp, sp, #12
 7c8:	e28d3014 	add	r3, sp, #20
 7cc:	e1a01003 	mov	r1, r3
 7d0:	e59d0010 	ldr	r0, [sp, #16]
 7d4:	e58d3004 	str	r3, [sp, #4]
 7d8:	ebfffffe 	bl	0 <vprintf>
 7dc:	e28dd00c 	add	sp, sp, #12
 7e0:	e49de004 	pop	{lr}		; (ldr lr, [sp], #4)
 7e4:	e28dd010 	add	sp, sp, #16
 7e8:	e12fff1e 	bx	lr

000007ec <sprintf>:
 7ec:	e92d000e 	push	{r1, r2, r3}
 7f0:	e92d4010 	push	{r4, lr}
 7f4:	e59f4038 	ldr	r4, [pc, #56]	; 834 <sprintf+0x48>
 7f8:	e24dd00c 	sub	sp, sp, #12
 7fc:	e28d3018 	add	r3, sp, #24
 800:	e5840000 	str	r0, [r4]
 804:	e1a01003 	mov	r1, r3
 808:	e59d0014 	ldr	r0, [sp, #20]
 80c:	e58d3004 	str	r3, [sp, #4]
 810:	ebfffffe 	bl	0 <vprintf>
 814:	e3a03000 	mov	r3, #0
 818:	e5942000 	ldr	r2, [r4]
 81c:	e5843000 	str	r3, [r4]
 820:	e5c23000 	strb	r3, [r2]
 824:	e28dd00c 	add	sp, sp, #12
 828:	e8bd4010 	pop	{r4, lr}
 82c:	e28dd00c 	add	sp, sp, #12
 830:	e12fff1e 	bx	lr
 834:	00000000 	andeq	r0, r0, r0

Disassembly of section .bss:

00000000 <outptr>:
   0:	00000000 	andeq	r0, r0, r0

Disassembly of section .comment:

00000000 <.comment>:
   0:	43434700 	movtmi	r4, #14080	; 0x3700
   4:	4728203a 			; <UNDEFINED> instruction: 0x4728203a
   8:	2029554e 	eorcs	r5, r9, lr, asr #10
   c:	2e392e34 	mrccs	14, 1, r2, cr9, cr4, {1}
  10:	Address 0x0000000000000010 is out of bounds.


Disassembly of section .ARM.attributes:

00000000 <.ARM.attributes>:
   0:	00003d41 	andeq	r3, r0, r1, asr #26
   4:	61656100 	cmnvs	r5, r0, lsl #2
   8:	01006962 	tsteq	r0, r2, ror #18
   c:	00000033 	andeq	r0, r0, r3, lsr r0
  10:	4d524105 	ldfmie	f4, [r2, #-20]	; 0xffffffec
  14:	36373131 			; <UNDEFINED> instruction: 0x36373131
  18:	2d465a4a 	vstrcs	s11, [r6, #-296]	; 0xfffffed8
  1c:	07060053 	smlsdeq	r6, r3, r0, r0
  20:	01090108 	tsteq	r9, r8, lsl #2
  24:	0412020a 	ldreq	r0, [r2], #-522	; 0xfffffdf6
  28:	01150114 	tsteq	r5, r4, lsl r1
  2c:	01180317 	tsteq	r8, r7, lsl r3
  30:	011a0119 	tsteq	sl, r9, lsl r1
  34:	011c031b 	tsteq	ip, fp, lsl r3
  38:	0122021e 	teqeq	r2, lr, lsl r2
  3c:	Address 0x000000000000003c is out of bounds.


font.o:     file format elf32-littlearm


Disassembly of section .text:

00000000 <FONT>:
	...
 210:	08000000 	stmdaeq	r0, {}	; <UNPREDICTABLE>
 214:	08080808 	stmdaeq	r8, {r3, fp}
 218:	08080008 	stmdaeq	r8, {r3}
 21c:	00000000 	andeq	r0, r0, r0
 220:	14000000 	strne	r0, [r0], #-0
 224:	00141414 	andseq	r1, r4, r4, lsl r4
	...
 230:	48480000 	stmdami	r8, {}^	; <UNPREDICTABLE>
 234:	2424fe68 	strtcs	pc, [r4], #-3688	; 0xfffff198
 238:	1212147f 	andsne	r1, r2, #2130706432	; 0x7f000000
 23c:	00000000 	andeq	r0, r0, r0
 240:	10000000 	andne	r0, r0, r0
 244:	1c12927c 	lfmne	f1, 1, [r2], {124}	; 0x7c
 248:	7c929070 	ldcvc	0, cr9, [r2], {112}	; 0x70
 24c:	00001010 	andeq	r1, r0, r0, lsl r0
 250:	06000000 	streq	r0, [r0], -r0
 254:	38460909 	stmdacc	r6, {r0, r3, r8, fp}^
 258:	60909066 	addsvs	r9, r0, r6, rrx
 25c:	00000000 	andeq	r0, r0, r0
 260:	38000000 	stmdacc	r0, {}	; <UNPREDICTABLE>
 264:	920c0404 	andls	r0, ip, #4, 8	; 0x4000000
 268:	bc46a2b2 	sfmlt	f2, 3, [r6], {178}	; 0xb2
 26c:	00000000 	andeq	r0, r0, r0
 270:	08000000 	stmdaeq	r0, {}	; <UNPREDICTABLE>
 274:	00080808 	andeq	r0, r8, r8, lsl #16
	...
 280:	10103000 	andsne	r3, r0, r0
 284:	08080808 	stmdaeq	r8, {r3, fp}
 288:	10100808 	andsne	r0, r0, r8, lsl #16
 28c:	00000020 	andeq	r0, r0, r0, lsr #32
 290:	08080c00 	stmdaeq	r8, {sl, fp}
 294:	10101010 	andsne	r1, r0, r0, lsl r0
 298:	08081010 	stmdaeq	r8, {r4, ip}
 29c:	0000000c 	andeq	r0, r0, ip
 2a0:	10000000 	andne	r0, r0, r0
 2a4:	d6387c92 			; <UNDEFINED> instruction: 0xd6387c92
 2a8:	00000010 	andeq	r0, r0, r0, lsl r0
	...
 2b4:	7f080808 	svcvc	0x00080808
 2b8:	00080808 	andeq	r0, r8, r8, lsl #16
	...
 2c8:	18180000 	ldmdane	r8, {}	; <UNPREDICTABLE>
 2cc:	00000408 	andeq	r0, r0, r8, lsl #8
	...
 2d8:	0000001c 	andeq	r0, r0, ip, lsl r0
	...
 2e8:	18180000 	ldmdane	r8, {}	; <UNPREDICTABLE>
 2ec:	00000000 	andeq	r0, r0, r0
 2f0:	40000000 	andmi	r0, r0, r0
 2f4:	10102020 	andsne	r2, r0, r0, lsr #32
 2f8:	04080818 	streq	r0, [r8], #-2072	; 0xfffff7e8
 2fc:	00000204 	andeq	r0, r0, r4, lsl #4
 300:	38000000 	stmdacc	r0, {}	; <UNPREDICTABLE>
 304:	92828244 	addls	r8, r2, #68, 4	; 0x40000004
 308:	38448282 	stmdacc	r4, {r1, r7, r9, pc}^
 30c:	00000000 	andeq	r0, r0, r0
 310:	1c000000 	stcne	0, cr0, [r0], {-0}
 314:	10101010 	andsne	r1, r0, r0, lsl r0
 318:	7c101010 	ldcvc	0, cr1, [r0], {16}
 31c:	00000000 	andeq	r0, r0, r0
 320:	7c000000 	stcvc	0, cr0, [r0], {-0}
 324:	408080c2 	addmi	r8, r0, r2, asr #1
 328:	fe041830 	mcr2	8, 0, r1, cr4, cr0, {1}
 32c:	00000000 	andeq	r0, r0, r0
 330:	7c000000 	stcvc	0, cr0, [r0], {-0}
 334:	38c08082 	stmiacc	r0, {r1, r7, pc}^
 338:	7cc280c0 	stclvc	0, cr8, [r2], {192}	; 0xc0
 33c:	00000000 	andeq	r0, r0, r0
 340:	60000000 	andvs	r0, r0, r0
 344:	44485850 	strbmi	r5, [r8], #-2128	; 0xfffff7b0
 348:	4040fe42 	submi	pc, r0, r2, asr #28
 34c:	00000000 	andeq	r0, r0, r0
 350:	7e000000 	cdpvc	0, 0, cr0, cr0, cr0, {0}
 354:	c03e0202 	eorsgt	r0, lr, r2, lsl #4
 358:	3cc28080 	stclcc	0, cr8, [r2], {128}	; 0x80
 35c:	00000000 	andeq	r0, r0, r0
 360:	78000000 	stmdavc	r0, {}	; <UNPREDICTABLE>
 364:	c67a0284 	ldrbtgt	r0, [sl], -r4, lsl #5
 368:	78c48282 	stmiavc	r4, {r1, r7, r9, pc}^
 36c:	00000000 	andeq	r0, r0, r0
 370:	fe000000 	cdp2	0, 0, cr0, cr0, cr0, {0}
 374:	20204040 	eorcs	r4, r0, r0, asr #32
 378:	04081810 	streq	r1, [r8], #-2064	; 0xfffff7f0
 37c:	00000000 	andeq	r0, r0, r0
 380:	7c000000 	stcvc	0, cr0, [r0], {-0}
 384:	7c828282 	sfmvc	f0, 1, [r2], {130}	; 0x82
 388:	7c868282 	sfmvc	f0, 1, [r6], {130}	; 0x82
 38c:	00000000 	andeq	r0, r0, r0
 390:	3c000000 	stccc	0, cr0, [r0], {-0}
 394:	c6828246 	strgt	r8, [r2], r6, asr #4
 398:	3c4280bc 	mcrrcc	0, 11, r8, r2, cr12
	...
 3a4:	00181800 	andseq	r1, r8, r0, lsl #16
 3a8:	18180000 	ldmdane	r8, {}	; <UNPREDICTABLE>
	...
 3b4:	00181800 	andseq	r1, r8, r0, lsl #16
 3b8:	18180000 	ldmdane	r8, {}	; <UNPREDICTABLE>
 3bc:	00000408 	andeq	r0, r0, r8, lsl #8
 3c0:	00000000 	andeq	r0, r0, r0
 3c4:	0e708000 	cdpeq	0, 7, cr8, cr0, cr0, {0}
 3c8:	0080700e 	addeq	r7, r0, lr
	...
 3d4:	00fe0000 	rscseq	r0, lr, r0
 3d8:	0000fe00 	andeq	pc, r0, r0, lsl #28
	...
 3e4:	e01c0200 	ands	r0, ip, r0, lsl #4
 3e8:	00021ce0 	andeq	r1, r2, r0, ror #25
 3ec:	00000000 	andeq	r0, r0, r0
 3f0:	1c000000 	stcne	0, cr0, [r0], {-0}
 3f4:	08102022 	ldmdaeq	r0, {r1, r5, sp}
 3f8:	08080008 	stmdaeq	r8, {r3}
 3fc:	00000000 	andeq	r0, r0, r0
 400:	78000000 	stmdavc	r0, {}	; <UNPREDICTABLE>
 404:	92e284cc 	rscls	r8, r2, #204, 8	; 0xcc000000
 408:	04e29292 	strbteq	r9, [r2], #658	; 0x292
 40c:	0000780c 	andeq	r7, r0, ip, lsl #16
 410:	10000000 	andne	r0, r0, r0
 414:	44282828 	strtmi	r2, [r8], #-2088	; 0xfffff7d8
 418:	82c67c44 	sbchi	r7, r6, #68, 24	; 0x4400
 41c:	00000000 	andeq	r0, r0, r0
 420:	7e000000 	cdpvc	0, 0, cr0, cr0, cr0, {0}
 424:	7e828282 	cdpvc	2, 8, cr8, cr2, cr2, {4}
 428:	7e828282 	cdpvc	2, 8, cr8, cr2, cr2, {4}
 42c:	00000000 	andeq	r0, r0, r0
 430:	78000000 	stmdavc	r0, {}	; <UNPREDICTABLE>
 434:	02020284 	andeq	r0, r2, #132, 4	; 0x40000008
 438:	78840202 	stmvc	r4, {r1, r9}
 43c:	00000000 	andeq	r0, r0, r0
 440:	3e000000 	cdpcc	0, 0, cr0, cr0, cr0, {0}
 444:	82828242 	addhi	r8, r2, #536870916	; 0x20000004
 448:	3e428282 	cdpcc	2, 4, cr8, cr2, cr2, {4}
 44c:	00000000 	andeq	r0, r0, r0
 450:	fe000000 	cdp2	0, 0, cr0, cr0, cr0, {0}
 454:	fe020202 	cdp2	2, 0, cr0, cr2, cr2, {0}
 458:	fe020202 	cdp2	2, 0, cr0, cr2, cr2, {0}
 45c:	00000000 	andeq	r0, r0, r0
 460:	fe000000 	cdp2	0, 0, cr0, cr0, cr0, {0}
 464:	fe020202 	cdp2	2, 0, cr0, cr2, cr2, {0}
 468:	02020202 	andeq	r0, r2, #536870912	; 0x20000000
 46c:	00000000 	andeq	r0, r0, r0
 470:	78000000 	stmdavc	r0, {}	; <UNPREDICTABLE>
 474:	c2020284 	andgt	r0, r2, #132, 4	; 0x40000008
 478:	78848282 	stmvc	r4, {r1, r7, r9, pc}
 47c:	00000000 	andeq	r0, r0, r0
 480:	82000000 	andhi	r0, r0, #0
 484:	fe828282 	cdp2	2, 8, cr8, cr2, cr2, {4}
 488:	82828282 	addhi	r8, r2, #536870920	; 0x20000008
 48c:	00000000 	andeq	r0, r0, r0
 490:	3e000000 	cdpcc	0, 0, cr0, cr0, cr0, {0}
 494:	08080808 	stmdaeq	r8, {r3, fp}
 498:	3e080808 	cdpcc	8, 0, cr0, cr8, cr8, {0}
 49c:	00000000 	andeq	r0, r0, r0
 4a0:	38000000 	stmdacc	r0, {}	; <UNPREDICTABLE>
 4a4:	20202020 	eorcs	r2, r0, r0, lsr #32
 4a8:	1c222020 	stcne	0, cr2, [r2], #-128	; 0xffffff80
 4ac:	00000000 	andeq	r0, r0, r0
 4b0:	42000000 	andmi	r0, r0, #0
 4b4:	0e0a1222 	cdpeq	2, 0, cr1, cr10, cr2, {1}
 4b8:	42222212 	eormi	r2, r2, #536870913	; 0x20000001
 4bc:	00000000 	andeq	r0, r0, r0
 4c0:	02000000 	andeq	r0, r0, #0
 4c4:	02020202 	andeq	r0, r2, #536870912	; 0x20000000
 4c8:	fe020202 	cdp2	2, 0, cr0, cr2, cr2, {0}
 4cc:	00000000 	andeq	r0, r0, r0
 4d0:	c6000000 	strgt	r0, [r0], -r0
 4d4:	aaaaaac6 	bge	feaaaff4 <FONT+0xfeaaaff4>
 4d8:	82828292 	addhi	r8, r2, #536870921	; 0x20000009
 4dc:	00000000 	andeq	r0, r0, r0
 4e0:	86000000 	strhi	r0, [r0], -r0
 4e4:	928a8a86 	addls	r8, sl, #548864	; 0x86000
 4e8:	c2c2a2a2 	sbcgt	sl, r2, #536870922	; 0x2000000a
 4ec:	00000000 	andeq	r0, r0, r0
 4f0:	38000000 	stmdacc	r0, {}	; <UNPREDICTABLE>
 4f4:	82828244 	addhi	r8, r2, #68, 4	; 0x40000004
 4f8:	38448282 	stmdacc	r4, {r1, r7, r9, pc}^
 4fc:	00000000 	andeq	r0, r0, r0
 500:	7e000000 	cdpvc	0, 0, cr0, cr0, cr0, {0}
 504:	c28282c2 	addgt	r8, r2, #536870924	; 0x2000000c
 508:	0202027e 	andeq	r0, r2, #-536870905	; 0xe0000007
 50c:	00000000 	andeq	r0, r0, r0
 510:	38000000 	stmdacc	r0, {}	; <UNPREDICTABLE>
 514:	82828244 	addhi	r8, r2, #68, 4	; 0x40000004
 518:	78448282 	stmdavc	r4, {r1, r7, r9, pc}^
 51c:	00004060 	andeq	r4, r0, r0, rrx
 520:	7e000000 	cdpvc	0, 0, cr0, cr0, cr0, {0}
 524:	7e8282c2 	cdpvc	2, 8, cr8, cr2, cr2, {6}
 528:	02828242 	addeq	r8, r2, #536870916	; 0x20000004
 52c:	00000000 	andeq	r0, r0, r0
 530:	7c000000 	stcvc	0, cr0, [r0], {-0}
 534:	7c060286 	sfmvc	f0, 4, [r6], {134}	; 0x86
 538:	7dc280c0 	stclvc	0, cr8, [r2, #768]	; 0x300
 53c:	00000000 	andeq	r0, r0, r0
 540:	7f000000 	svcvc	0x00000000
 544:	08080808 	stmdaeq	r8, {r3, fp}
 548:	08080808 	stmdaeq	r8, {r3, fp}
 54c:	00000000 	andeq	r0, r0, r0
 550:	82000000 	andhi	r0, r0, #0
 554:	82828282 	addhi	r8, r2, #536870920	; 0x20000008
 558:	7c828282 	sfmvc	f0, 1, [r2], {130}	; 0x82
 55c:	00000000 	andeq	r0, r0, r0
 560:	82000000 	andhi	r0, r0, #0
 564:	444444c6 	strbmi	r4, [r4], #-1222	; 0xfffffb3a
 568:	10282828 	eorne	r2, r8, r8, lsr #16
 56c:	00000000 	andeq	r0, r0, r0
 570:	81000000 	mrshi	r0, (UNDEF: 0)
 574:	5a5a8181 	bpl	16a0b80 <FONT+0x16a0b80>
 578:	6666665a 			; <UNDEFINED> instruction: 0x6666665a
 57c:	00000000 	andeq	r0, r0, r0
 580:	c6000000 	strgt	r0, [r0], -r0
 584:	10382844 	eorsne	r2, r8, r4, asr #16
 588:	82446c28 	subhi	r6, r4, #40, 24	; 0x2800
 58c:	00000000 	andeq	r0, r0, r0
 590:	41000000 	mrsmi	r0, (UNDEF: 0)
 594:	08141422 	ldmdaeq	r4, {r1, r5, sl, ip}
 598:	08080808 	stmdaeq	r8, {r3, fp}
 59c:	00000000 	andeq	r0, r0, r0
 5a0:	fe000000 	cdp2	0, 0, cr0, cr0, cr0, {0}
 5a4:	102060c0 	eorne	r6, r0, r0, asr #1
 5a8:	fe060c08 	cdp2	12, 0, cr0, cr6, cr8, {0}
 5ac:	00000000 	andeq	r0, r0, r0
 5b0:	08083800 	stmdaeq	r8, {fp, ip, sp}
 5b4:	08080808 	stmdaeq	r8, {r3, fp}
 5b8:	08080808 	stmdaeq	r8, {r3, fp}
 5bc:	00000038 	andeq	r0, r0, r8, lsr r0
 5c0:	02000000 	andeq	r0, r0, #0
 5c4:	08080404 	stmdaeq	r8, {r2, sl}
 5c8:	20101018 	andscs	r1, r0, r8, lsl r0
 5cc:	00004020 	andeq	r4, r0, r0, lsr #32
 5d0:	10101c00 	andsne	r1, r0, r0, lsl #24
 5d4:	10101010 	andsne	r1, r0, r0, lsl r0
 5d8:	10101010 	andsne	r1, r0, r0, lsl r0
 5dc:	0000001c 	andeq	r0, r0, ip, lsl r0
 5e0:	08000000 	stmdaeq	r0, {}	; <UNPREDICTABLE>
 5e4:	00632214 	rsbeq	r2, r3, r4, lsl r2
	...
 5fc:	007f0000 	rsbseq	r0, pc, r0
 600:	10080000 	andne	r0, r8, r0
	...
 614:	40443800 	submi	r3, r4, r0, lsl #16
 618:	5c62427c 	sfmpl	f4, 2, [r2], #-496	; 0xfffffe10
 61c:	00000000 	andeq	r0, r0, r0
 620:	02020200 	andeq	r0, r2, #0, 4
 624:	42663e02 	rsbmi	r3, r6, #2, 28
 628:	3e664242 	cdpcc	2, 6, cr4, cr6, cr2, {2}
	...
 634:	02443800 	subeq	r3, r4, #0, 16
 638:	38440202 	stmdacc	r4, {r1, r9}^
 63c:	00000000 	andeq	r0, r0, r0
 640:	40404000 	submi	r4, r0, r0
 644:	42667c40 	rsbmi	r7, r6, #64, 24	; 0x4000
 648:	7c664242 	sfmvc	f4, 2, [r6], #-264	; 0xfffffef8
	...
 654:	42663c00 	rsbmi	r3, r6, #0, 24
 658:	3c46027e 	sfmcc	f0, 2, [r6], {126}	; 0x7e
 65c:	00000000 	andeq	r0, r0, r0
 660:	08083000 	stmdaeq	r8, {ip, sp}
 664:	08083e08 	stmdaeq	r8, {r3, r9, sl, fp, ip, sp}
 668:	08080808 	stmdaeq	r8, {r3, fp}
	...
 674:	42667c00 	rsbmi	r7, r6, #0, 24
 678:	5c664242 	sfmpl	f4, 2, [r6], #-264	; 0xfffffef8
 67c:	00384440 	eorseq	r4, r8, r0, asr #8
 680:	02020200 	andeq	r0, r2, #0, 4
 684:	42463a02 	submi	r3, r6, #8192	; 0x2000
 688:	42424242 	submi	r4, r2, #536870916	; 0x20000004
 68c:	00000000 	andeq	r0, r0, r0
 690:	00000800 	andeq	r0, r0, r0, lsl #16
 694:	08080e00 	stmdaeq	r8, {r9, sl, fp}
 698:	3e080808 	cdpcc	8, 0, cr0, cr8, cr8, {0}
 69c:	00000000 	andeq	r0, r0, r0
 6a0:	00001000 	andeq	r1, r0, r0
 6a4:	10101c00 	andsne	r1, r0, r0, lsl #24
 6a8:	10101010 	andsne	r1, r0, r0, lsl r0
 6ac:	000e1010 	andeq	r1, lr, r0, lsl r0
 6b0:	02020200 	andeq	r0, r2, #0, 4
 6b4:	0a122202 	beq	488ec4 <FONT+0x488ec4>
 6b8:	4222120e 	eormi	r1, r2, #-536870912	; 0xe0000000
 6bc:	00000000 	andeq	r0, r0, r0
 6c0:	08080e00 	stmdaeq	r8, {r9, sl, fp}
 6c4:	08080808 	stmdaeq	r8, {r3, fp}
 6c8:	70080808 	andvc	r0, r8, r8, lsl #16
	...
 6d4:	9292fe00 	addsls	pc, r2, #0, 28
 6d8:	92929292 	addsls	r9, r2, #536870921	; 0x20000009
	...
 6e4:	42463a00 	submi	r3, r6, #0, 20
 6e8:	42424242 	submi	r4, r2, #536870916	; 0x20000004
	...
 6f4:	42663c00 	rsbmi	r3, r6, #0, 24
 6f8:	3c664242 	sfmcc	f4, 2, [r6], #-264	; 0xfffffef8
	...
 704:	42663e00 	rsbmi	r3, r6, #0, 28
 708:	3e664242 	cdpcc	2, 6, cr4, cr6, cr2, {2}
 70c:	00020202 	andeq	r0, r2, r2, lsl #4
 710:	00000000 	andeq	r0, r0, r0
 714:	42667c00 	rsbmi	r7, r6, #0, 24
 718:	5c664242 	sfmpl	f4, 2, [r6], #-264	; 0xfffffef8
 71c:	00404040 	subeq	r4, r0, r0, asr #32
 720:	00000000 	andeq	r0, r0, r0
 724:	044c3c00 	strbeq	r3, [ip], #-3072	; 0xfffff400
 728:	04040404 	streq	r0, [r4], #-1028	; 0xfffffbfc
	...
 734:	02423c00 	subeq	r3, r2, #0, 24
 738:	3c42403c 	mcrrcc	0, 3, r4, r2, cr12
 73c:	00000000 	andeq	r0, r0, r0
 740:	08000000 	stmdaeq	r0, {}	; <UNPREDICTABLE>
 744:	08087e08 	stmdaeq	r8, {r3, r9, sl, fp, ip, sp, lr}
 748:	70080808 	andvc	r0, r8, r8, lsl #16
	...
 754:	42424200 	submi	r4, r2, #0, 4
 758:	5c624242 	sfmpl	f4, 2, [r2], #-264	; 0xfffffef8
	...
 764:	24664200 	strbtcs	r4, [r6], #-512	; 0xfffffe00
 768:	18183c24 	ldmdane	r8, {r2, r5, sl, fp, ip, sp}
	...
 774:	5a818100 	bpl	fe060b7c <FONT+0xfe060b7c>
 778:	24245a5a 	strtcs	r5, [r4], #-2650	; 0xfffff5a6
	...
 784:	18246600 	stmdane	r4!, {r9, sl, sp, lr}
 788:	66241818 			; <UNDEFINED> instruction: 0x66241818
	...
 794:	24444200 	strbcs	r4, [r4], #-512	; 0xfffffe00
 798:	10182824 	andsne	r2, r8, r4, lsr #16
 79c:	000c0810 	andeq	r0, ip, r0, lsl r8
 7a0:	00000000 	andeq	r0, r0, r0
 7a4:	20407e00 	subcs	r7, r0, r0, lsl #28
 7a8:	7e020418 	cfmvdlrvc	mvd2, r0
 7ac:	00000000 	andeq	r0, r0, r0
 7b0:	08083800 	stmdaeq	r8, {fp, ip, sp}
 7b4:	08060808 	stmdaeq	r6, {r3, fp}
 7b8:	08080808 	stmdaeq	r8, {r3, fp}
 7bc:	00000030 	andeq	r0, r0, r0, lsr r0
 7c0:	08080800 	stmdaeq	r8, {fp}
 7c4:	08080808 	stmdaeq	r8, {r3, fp}
 7c8:	08080808 	stmdaeq	r8, {r3, fp}
 7cc:	00000808 	andeq	r0, r0, r8, lsl #16
 7d0:	08080e00 	stmdaeq	r8, {r9, sl, fp}
 7d4:	08300808 	ldmdaeq	r0!, {r3, fp}
 7d8:	08080808 	stmdaeq	r8, {r3, fp}
 7dc:	00000006 	andeq	r0, r0, r6
 7e0:	00000000 	andeq	r0, r0, r0
 7e4:	9c000000 	stcls	0, cr0, [r0], {-0}
 7e8:	00000062 	andeq	r0, r0, r2, rrx
 7ec:	00000000 	andeq	r0, r0, r0
 7f0:	ffffffff 			; <UNDEFINED> instruction: 0xffffffff
 7f4:	ffffffff 			; <UNDEFINED> instruction: 0xffffffff
 7f8:	ffffffff 			; <UNDEFINED> instruction: 0xffffffff
 7fc:	ffffffff 			; <UNDEFINED> instruction: 0xffffffff

Disassembly of section .ARM.attributes:

00000000 <.ARM.attributes>:
   0:	00002741 	andeq	r2, r0, r1, asr #14
   4:	61656100 	cmnvs	r5, r0, lsl #2
   8:	01006962 	tsteq	r0, r2, ror #18
   c:	0000001d 	andeq	r0, r0, sp, lsl r0
  10:	4d524105 	ldfmie	f4, [r2, #-20]	; 0xffffffec
  14:	36373131 			; <UNDEFINED> instruction: 0x36373131
  18:	2d465a4a 	vstrcs	s11, [r6, #-296]	; 0xfffffed8
  1c:	07060053 	smlsdeq	r6, r3, r0, r0
  20:	01090108 	tsteq	r9, r8, lsl #2
  24:	0144020a 	cmpeq	r4, sl, lsl #4
