In archive lib/libbcm2835.a:

bcm2835_gpio.o:     file format elf32-littlearm


Disassembly of section .text:

00000000 <bcm2835_gpio_set_pud>:
   0:	e92d4038 	push	{r3, r4, r5, lr}
   4:	e59f4038 	ldr	r4, [pc, #56]	; 44 <bcm2835_gpio_set_pud+0x44>
   8:	e1a05000 	mov	r5, r0
   c:	e5841094 	str	r1, [r4, #148]	; 0x94
  10:	e3a0000a 	mov	r0, #10
  14:	e3a01000 	mov	r1, #0
  18:	ebfffffe 	bl	0 <udelay>
  1c:	e3a03001 	mov	r3, #1
  20:	e1a00513 	lsl	r0, r3, r5
  24:	e5840098 	str	r0, [r4, #152]	; 0x98
  28:	e3a01000 	mov	r1, #0
  2c:	e3a0000a 	mov	r0, #10
  30:	ebfffffe 	bl	0 <udelay>
  34:	e3a03000 	mov	r3, #0
  38:	e5843094 	str	r3, [r4, #148]	; 0x94
  3c:	e5843098 	str	r3, [r4, #152]	; 0x98
  40:	e8bd8038 	pop	{r3, r4, r5, pc}
  44:	20200000 	eorcs	r0, r0, r0

Disassembly of section .comment:

00000000 <.comment>:
   0:	43434700 	movtmi	r4, #14080	; 0x3700
   4:	4728203a 			; <UNDEFINED> instruction: 0x4728203a
   8:	2029554e 	eorcs	r5, r9, lr, asr #10
   c:	2e392e34 	mrccs	14, 1, r2, cr9, cr4, {1}
  10:	Address 0x0000000000000010 is out of bounds.


Disassembly of section .ARM.attributes:

00000000 <.ARM.attributes>:
   0:	00003d41 	andeq	r3, r0, r1, asr #26
   4:	61656100 	cmnvs	r5, r0, lsl #2
   8:	01006962 	tsteq	r0, r2, ror #18
   c:	00000033 	andeq	r0, r0, r3, lsr r0
  10:	4d524105 	ldfmie	f4, [r2, #-20]	; 0xffffffec
  14:	36373131 			; <UNDEFINED> instruction: 0x36373131
  18:	2d465a4a 	vstrcs	s11, [r6, #-296]	; 0xfffffed8
  1c:	07060053 	smlsdeq	r6, r3, r0, r0
  20:	01090108 	tsteq	r9, r8, lsl #2
  24:	0412020a 	ldreq	r0, [r2], #-522	; 0xfffffdf6
  28:	01150114 	tsteq	r5, r4, lsl r1
  2c:	01180317 	tsteq	r8, r7, lsl r3
  30:	011a0119 	tsteq	sl, r9, lsl r1
  34:	011c031b 	tsteq	ip, fp, lsl r3
  38:	0122021e 	teqeq	r2, lr, lsl r2
  3c:	Address 0x000000000000003c is out of bounds.


bcm2835_i2c.o:     file format elf32-littlearm


Disassembly of section .text:

00000000 <bcm2835_i2c_begin>:
   0:	e59f2028 	ldr	r2, [pc, #40]	; 30 <bcm2835_i2c_begin+0x30>
   4:	e59f1028 	ldr	r1, [pc, #40]	; 34 <bcm2835_i2c_begin+0x34>
   8:	e5923000 	ldr	r3, [r2]
   c:	e59f0024 	ldr	r0, [pc, #36]	; 38 <bcm2835_i2c_begin+0x38>
  10:	e3c33d3f 	bic	r3, r3, #4032	; 0xfc0
  14:	e5823000 	str	r3, [r2]
  18:	e5923000 	ldr	r3, [r2]
  1c:	e3c33d3f 	bic	r3, r3, #4032	; 0xfc0
  20:	e3833c09 	orr	r3, r3, #2304	; 0x900
  24:	e5823000 	str	r3, [r2]
  28:	e5810014 	str	r0, [r1, #20]
  2c:	e12fff1e 	bx	lr
  30:	20200000 	eorcs	r0, r0, r0
  34:	20804000 	addcs	r4, r0, r0
  38:	000009c4 	andeq	r0, r0, r4, asr #19

0000003c <bcm2835_i2c_end>:
  3c:	e59f200c 	ldr	r2, [pc, #12]	; 50 <bcm2835_i2c_end+0x14>
  40:	e5923000 	ldr	r3, [r2]
  44:	e3c33d3f 	bic	r3, r3, #4032	; 0xfc0
  48:	e5823000 	str	r3, [r2]
  4c:	e12fff1e 	bx	lr
  50:	20200000 	eorcs	r0, r0, r0

00000054 <bcm2835_i2c_setSlaveAddress>:
  54:	e59f3004 	ldr	r3, [pc, #4]	; 60 <bcm2835_i2c_setSlaveAddress+0xc>
  58:	e583000c 	str	r0, [r3, #12]
  5c:	e12fff1e 	bx	lr
  60:	20804000 	addcs	r4, r0, r0

00000064 <bcm2835_i2c_setClockDivider>:
  64:	e59f3004 	ldr	r3, [pc, #4]	; 70 <bcm2835_i2c_setClockDivider+0xc>
  68:	e5830014 	str	r0, [r3, #20]
  6c:	e12fff1e 	bx	lr
  70:	20804000 	addcs	r4, r0, r0

00000074 <bcm2835_i2c_write>:
  74:	e3a02020 	mov	r2, #32
  78:	e92d4010 	push	{r4, lr}
  7c:	e59f3104 	ldr	r3, [pc, #260]	; 188 <bcm2835_i2c_write+0x114>
  80:	e59f4104 	ldr	r4, [pc, #260]	; 18c <bcm2835_i2c_write+0x118>
  84:	e3510000 	cmp	r1, #0
  88:	e5842000 	str	r2, [r4]
  8c:	e5843004 	str	r3, [r4, #4]
  90:	e5841008 	str	r1, [r4, #8]
  94:	0a000039 	beq	180 <bcm2835_i2c_write+0x10c>
  98:	e3a03000 	mov	r3, #0
  9c:	e240c001 	sub	ip, r0, #1
  a0:	e2511001 	subs	r1, r1, #1
  a4:	13a02001 	movne	r2, #1
  a8:	03a02000 	moveq	r2, #0
  ac:	e2833001 	add	r3, r3, #1
  b0:	e353000f 	cmp	r3, #15
  b4:	83a02000 	movhi	r2, #0
  b8:	92022001 	andls	r2, r2, #1
  bc:	e5fce001 	ldrb	lr, [ip, #1]!
  c0:	e3520000 	cmp	r2, #0
  c4:	e584e010 	str	lr, [r4, #16]
  c8:	1afffff4 	bne	a0 <bcm2835_i2c_write+0x2c>
  cc:	e59fc0b8 	ldr	ip, [pc, #184]	; 18c <bcm2835_i2c_write+0x118>
  d0:	e59fe0b8 	ldr	lr, [pc, #184]	; 190 <bcm2835_i2c_write+0x11c>
  d4:	e1a0200c 	mov	r2, ip
  d8:	e58ce000 	str	lr, [ip]
  dc:	e592c004 	ldr	ip, [r2, #4]
  e0:	e59fe0a4 	ldr	lr, [pc, #164]	; 18c <bcm2835_i2c_write+0x118>
  e4:	e31c0002 	tst	ip, #2
  e8:	1a000011 	bne	134 <bcm2835_i2c_write+0xc0>
  ec:	e3510000 	cmp	r1, #0
  f0:	0afffff9 	beq	dc <bcm2835_i2c_write+0x68>
  f4:	e592c004 	ldr	ip, [r2, #4]
  f8:	e31c0010 	tst	ip, #16
  fc:	0afffff6 	beq	dc <bcm2835_i2c_write+0x68>
 100:	e080c003 	add	ip, r0, r3
 104:	e4dce001 	ldrb	lr, [ip], #1
 108:	e2511001 	subs	r1, r1, #1
 10c:	e2833001 	add	r3, r3, #1
 110:	e582e010 	str	lr, [r2, #16]
 114:	0afffff0 	beq	dc <bcm2835_i2c_write+0x68>
 118:	e592e004 	ldr	lr, [r2, #4]
 11c:	e31e0010 	tst	lr, #16
 120:	1afffff7 	bne	104 <bcm2835_i2c_write+0x90>
 124:	e592c004 	ldr	ip, [r2, #4]
 128:	e59fe05c 	ldr	lr, [pc, #92]	; 18c <bcm2835_i2c_write+0x118>
 12c:	e31c0002 	tst	ip, #2
 130:	0affffed 	beq	ec <bcm2835_i2c_write+0x78>
 134:	e59e3004 	ldr	r3, [lr, #4]
 138:	e3130c01 	tst	r3, #256	; 0x100
 13c:	1a00000b 	bne	170 <bcm2835_i2c_write+0xfc>
 140:	e59e3004 	ldr	r3, [lr, #4]
 144:	e3130c02 	tst	r3, #512	; 0x200
 148:	13a00002 	movne	r0, #2
 14c:	0a000003 	beq	160 <bcm2835_i2c_write+0xec>
 150:	e3a02002 	mov	r2, #2
 154:	e59f3030 	ldr	r3, [pc, #48]	; 18c <bcm2835_i2c_write+0x118>
 158:	e5832000 	str	r2, [r3]
 15c:	e8bd8010 	pop	{r4, pc}
 160:	e3510000 	cmp	r1, #0
 164:	13a00004 	movne	r0, #4
 168:	03a00000 	moveq	r0, #0
 16c:	eafffff7 	b	150 <bcm2835_i2c_write+0xdc>
 170:	e3a03c01 	mov	r3, #256	; 0x100
 174:	e3a00001 	mov	r0, #1
 178:	e58e3004 	str	r3, [lr, #4]
 17c:	eafffff3 	b	150 <bcm2835_i2c_write+0xdc>
 180:	e1a03001 	mov	r3, r1
 184:	eaffffd0 	b	cc <bcm2835_i2c_write+0x58>
 188:	00000302 	andeq	r0, r0, r2, lsl #6
 18c:	20804000 	addcs	r4, r0, r0
 190:	00008080 	andeq	r8, r0, r0, lsl #1

00000194 <bcm2835_i2c_read>:
 194:	e3a03020 	mov	r3, #32
 198:	e59fc100 	ldr	ip, [pc, #256]	; 2a0 <bcm2835_i2c_read+0x10c>
 19c:	e59f2100 	ldr	r2, [pc, #256]	; 2a4 <bcm2835_i2c_read+0x110>
 1a0:	e52de004 	push	{lr}		; (str lr, [sp, #-4]!)
 1a4:	e58c3000 	str	r3, [ip]
 1a8:	e58c2004 	str	r2, [ip, #4]
 1ac:	e1a03001 	mov	r3, r1
 1b0:	e58c1008 	str	r1, [ip, #8]
 1b4:	e1a0200c 	mov	r2, ip
 1b8:	e3a01000 	mov	r1, #0
 1bc:	e59fe0e4 	ldr	lr, [pc, #228]	; 2a8 <bcm2835_i2c_read+0x114>
 1c0:	e58ce000 	str	lr, [ip]
 1c4:	e592e004 	ldr	lr, [r2, #4]
 1c8:	e59fc0d0 	ldr	ip, [pc, #208]	; 2a0 <bcm2835_i2c_read+0x10c>
 1cc:	e31e0002 	tst	lr, #2
 1d0:	1a00000e 	bne	210 <bcm2835_i2c_read+0x7c>
 1d4:	e592c004 	ldr	ip, [r2, #4]
 1d8:	e31c0020 	tst	ip, #32
 1dc:	0afffff8 	beq	1c4 <bcm2835_i2c_read+0x30>
 1e0:	e080c001 	add	ip, r0, r1
 1e4:	e592e010 	ldr	lr, [r2, #16]
 1e8:	e2811001 	add	r1, r1, #1
 1ec:	e4cce001 	strb	lr, [ip], #1
 1f0:	e592e004 	ldr	lr, [r2, #4]
 1f4:	e2433001 	sub	r3, r3, #1
 1f8:	e31e0020 	tst	lr, #32
 1fc:	1afffff8 	bne	1e4 <bcm2835_i2c_read+0x50>
 200:	e592e004 	ldr	lr, [r2, #4]
 204:	e59fc094 	ldr	ip, [pc, #148]	; 2a0 <bcm2835_i2c_read+0x10c>
 208:	e31e0002 	tst	lr, #2
 20c:	0afffff0 	beq	1d4 <bcm2835_i2c_read+0x40>
 210:	e3530000 	cmp	r3, #0
 214:	0a00000c 	beq	24c <bcm2835_i2c_read+0xb8>
 218:	e59c2004 	ldr	r2, [ip, #4]
 21c:	e3120020 	tst	r2, #32
 220:	0a00000a 	beq	250 <bcm2835_i2c_read+0xbc>
 224:	e1a0200c 	mov	r2, ip
 228:	e0801001 	add	r1, r0, r1
 22c:	ea000002 	b	23c <bcm2835_i2c_read+0xa8>
 230:	e5920004 	ldr	r0, [r2, #4]
 234:	e3100020 	tst	r0, #32
 238:	0a000004 	beq	250 <bcm2835_i2c_read+0xbc>
 23c:	e5920010 	ldr	r0, [r2, #16]
 240:	e2533001 	subs	r3, r3, #1
 244:	e4c10001 	strb	r0, [r1], #1
 248:	1afffff8 	bne	230 <bcm2835_i2c_read+0x9c>
 24c:	e3a03000 	mov	r3, #0
 250:	e59f2048 	ldr	r2, [pc, #72]	; 2a0 <bcm2835_i2c_read+0x10c>
 254:	e5921004 	ldr	r1, [r2, #4]
 258:	e3110c01 	tst	r1, #256	; 0x100
 25c:	1a00000b 	bne	290 <bcm2835_i2c_read+0xfc>
 260:	e5922004 	ldr	r2, [r2, #4]
 264:	e3120c02 	tst	r2, #512	; 0x200
 268:	13a00002 	movne	r0, #2
 26c:	0a000003 	beq	280 <bcm2835_i2c_read+0xec>
 270:	e3a02002 	mov	r2, #2
 274:	e59f3024 	ldr	r3, [pc, #36]	; 2a0 <bcm2835_i2c_read+0x10c>
 278:	e5832000 	str	r2, [r3]
 27c:	e49df004 	pop	{pc}		; (ldr pc, [sp], #4)
 280:	e3530000 	cmp	r3, #0
 284:	13a00004 	movne	r0, #4
 288:	03a00000 	moveq	r0, #0
 28c:	eafffff7 	b	270 <bcm2835_i2c_read+0xdc>
 290:	e3a03c01 	mov	r3, #256	; 0x100
 294:	e3a00001 	mov	r0, #1
 298:	e5823004 	str	r3, [r2, #4]
 29c:	eafffff3 	b	270 <bcm2835_i2c_read+0xdc>
 2a0:	20804000 	addcs	r4, r0, r0
 2a4:	00000302 	andeq	r0, r0, r2, lsl #6
 2a8:	00008081 	andeq	r8, r0, r1, lsl #1

Disassembly of section .comment:

00000000 <.comment>:
   0:	43434700 	movtmi	r4, #14080	; 0x3700
   4:	4728203a 			; <UNDEFINED> instruction: 0x4728203a
   8:	2029554e 	eorcs	r5, r9, lr, asr #10
   c:	2e392e34 	mrccs	14, 1, r2, cr9, cr4, {1}
  10:	Address 0x0000000000000010 is out of bounds.


Disassembly of section .ARM.attributes:

00000000 <.ARM.attributes>:
   0:	00003d41 	andeq	r3, r0, r1, asr #26
   4:	61656100 	cmnvs	r5, r0, lsl #2
   8:	01006962 	tsteq	r0, r2, ror #18
   c:	00000033 	andeq	r0, r0, r3, lsr r0
  10:	4d524105 	ldfmie	f4, [r2, #-20]	; 0xffffffec
  14:	36373131 			; <UNDEFINED> instruction: 0x36373131
  18:	2d465a4a 	vstrcs	s11, [r6, #-296]	; 0xfffffed8
  1c:	07060053 	smlsdeq	r6, r3, r0, r0
  20:	01090108 	tsteq	r9, r8, lsl #2
  24:	0412020a 	ldreq	r0, [r2], #-522	; 0xfffffdf6
  28:	01150114 	tsteq	r5, r4, lsl r1
  2c:	01180317 	tsteq	r8, r7, lsl r3
  30:	011a0119 	tsteq	sl, r9, lsl r1
  34:	011c031b 	tsteq	ip, fp, lsl r3
  38:	0122021e 	teqeq	r2, lr, lsl r2
  3c:	Address 0x000000000000003c is out of bounds.


bcm2835_led.o:     file format elf32-littlearm


Disassembly of section .text:

00000000 <led_set>:
   0:	e3a02801 	mov	r2, #65536	; 0x10000
   4:	e59f300c 	ldr	r3, [pc, #12]	; 18 <led_set+0x18>
   8:	e3500000 	cmp	r0, #0
   c:	1583201c 	strne	r2, [r3, #28]
  10:	05832028 	streq	r2, [r3, #40]	; 0x28
  14:	e12fff1e 	bx	lr
  18:	20200000 	eorcs	r0, r0, r0

0000001c <led_init>:
  1c:	e59f2010 	ldr	r2, [pc, #16]	; 34 <led_init+0x18>
  20:	e5923004 	ldr	r3, [r2, #4]
  24:	e3c33707 	bic	r3, r3, #1835008	; 0x1c0000
  28:	e3833701 	orr	r3, r3, #262144	; 0x40000
  2c:	e5823004 	str	r3, [r2, #4]
  30:	e12fff1e 	bx	lr
  34:	20200000 	eorcs	r0, r0, r0

00000038 <led_rpiplus_set>:
  38:	e3a02902 	mov	r2, #32768	; 0x8000
  3c:	e59f300c 	ldr	r3, [pc, #12]	; 50 <led_rpiplus_set+0x18>
  40:	e3500000 	cmp	r0, #0
  44:	15832020 	strne	r2, [r3, #32]
  48:	0583202c 	streq	r2, [r3, #44]	; 0x2c
  4c:	e12fff1e 	bx	lr
  50:	20200000 	eorcs	r0, r0, r0

00000054 <led_rpiplus_init>:
  54:	e59f2010 	ldr	r2, [pc, #16]	; 6c <led_rpiplus_init+0x18>
  58:	e5923010 	ldr	r3, [r2, #16]
  5c:	e3c3360e 	bic	r3, r3, #14680064	; 0xe00000
  60:	e3833602 	orr	r3, r3, #2097152	; 0x200000
  64:	e5823010 	str	r3, [r2, #16]
  68:	e12fff1e 	bx	lr
  6c:	20200000 	eorcs	r0, r0, r0

Disassembly of section .comment:

00000000 <.comment>:
   0:	43434700 	movtmi	r4, #14080	; 0x3700
   4:	4728203a 			; <UNDEFINED> instruction: 0x4728203a
   8:	2029554e 	eorcs	r5, r9, lr, asr #10
   c:	2e392e34 	mrccs	14, 1, r2, cr9, cr4, {1}
  10:	Address 0x0000000000000010 is out of bounds.


Disassembly of section .ARM.attributes:

00000000 <.ARM.attributes>:
   0:	00003d41 	andeq	r3, r0, r1, asr #26
   4:	61656100 	cmnvs	r5, r0, lsl #2
   8:	01006962 	tsteq	r0, r2, ror #18
   c:	00000033 	andeq	r0, r0, r3, lsr r0
  10:	4d524105 	ldfmie	f4, [r2, #-20]	; 0xffffffec
  14:	36373131 			; <UNDEFINED> instruction: 0x36373131
  18:	2d465a4a 	vstrcs	s11, [r6, #-296]	; 0xfffffed8
  1c:	07060053 	smlsdeq	r6, r3, r0, r0
  20:	01090108 	tsteq	r9, r8, lsl #2
  24:	0412020a 	ldreq	r0, [r2], #-522	; 0xfffffdf6
  28:	01150114 	tsteq	r5, r4, lsl r1
  2c:	01180317 	tsteq	r8, r7, lsl r3
  30:	011a0119 	tsteq	sl, r9, lsl r1
  34:	011c031b 	tsteq	ip, fp, lsl r3
  38:	0122021e 	teqeq	r2, lr, lsl r2
  3c:	Address 0x000000000000003c is out of bounds.


bcm2835_mailbox.o:     file format elf32-littlearm


Disassembly of section .text:

00000000 <bcm2835_mailbox_read>:
   0:	e59f1024 	ldr	r1, [pc, #36]	; 2c <bcm2835_mailbox_read+0x2c>
   4:	e5913098 	ldr	r3, [r1, #152]	; 0x98
   8:	e59f201c 	ldr	r2, [pc, #28]	; 2c <bcm2835_mailbox_read+0x2c>
   c:	e3130101 	tst	r3, #1073741824	; 0x40000000
  10:	1afffffb 	bne	4 <bcm2835_mailbox_read+0x4>
  14:	e5923080 	ldr	r3, [r2, #128]	; 0x80
  18:	e203200f 	and	r2, r3, #15
  1c:	e1520000 	cmp	r2, r0
  20:	1afffff7 	bne	4 <bcm2835_mailbox_read+0x4>
  24:	e3c3000f 	bic	r0, r3, #15
  28:	e12fff1e 	bx	lr
  2c:	2000b800 	andcs	fp, r0, r0, lsl #16

00000030 <bcm2835_mailbox_write>:
  30:	e59fc020 	ldr	ip, [pc, #32]	; 58 <bcm2835_mailbox_write+0x28>
  34:	e59c3098 	ldr	r3, [ip, #152]	; 0x98
  38:	e59f2018 	ldr	r2, [pc, #24]	; 58 <bcm2835_mailbox_write+0x28>
  3c:	e3530000 	cmp	r3, #0
  40:	bafffffb 	blt	34 <bcm2835_mailbox_write+0x4>
  44:	e200000f 	and	r0, r0, #15
  48:	e3c1100f 	bic	r1, r1, #15
  4c:	e1801001 	orr	r1, r0, r1
  50:	e58210a0 	str	r1, [r2, #160]	; 0xa0
  54:	e12fff1e 	bx	lr
  58:	2000b800 	andcs	fp, r0, r0, lsl #16

Disassembly of section .comment:

00000000 <.comment>:
   0:	43434700 	movtmi	r4, #14080	; 0x3700
   4:	4728203a 			; <UNDEFINED> instruction: 0x4728203a
   8:	2029554e 	eorcs	r5, r9, lr, asr #10
   c:	2e392e34 	mrccs	14, 1, r2, cr9, cr4, {1}
  10:	Address 0x0000000000000010 is out of bounds.


Disassembly of section .ARM.attributes:

00000000 <.ARM.attributes>:
   0:	00003d41 	andeq	r3, r0, r1, asr #26
   4:	61656100 	cmnvs	r5, r0, lsl #2
   8:	01006962 	tsteq	r0, r2, ror #18
   c:	00000033 	andeq	r0, r0, r3, lsr r0
  10:	4d524105 	ldfmie	f4, [r2, #-20]	; 0xffffffec
  14:	36373131 			; <UNDEFINED> instruction: 0x36373131
  18:	2d465a4a 	vstrcs	s11, [r6, #-296]	; 0xfffffed8
  1c:	07060053 	smlsdeq	r6, r3, r0, r0
  20:	01090108 	tsteq	r9, r8, lsl #2
  24:	0412020a 	ldreq	r0, [r2], #-522	; 0xfffffdf6
  28:	01150114 	tsteq	r5, r4, lsl r1
  2c:	01180317 	tsteq	r8, r7, lsl r3
  30:	011a0119 	tsteq	sl, r9, lsl r1
  34:	011c031b 	tsteq	ip, fp, lsl r3
  38:	0122021e 	teqeq	r2, lr, lsl r2
  3c:	Address 0x000000000000003c is out of bounds.


bcm2835_pl011.o:     file format elf32-littlearm


Disassembly of section .text:

00000000 <bcm2835_pl011_begin>:
   0:	e92d4038 	push	{r3, r4, r5, lr}
   4:	e3a05000 	mov	r5, #0
   8:	e59f407c 	ldr	r4, [pc, #124]	; 8c <bcm2835_pl011_begin+0x8c>
   c:	e3a0000e 	mov	r0, #14
  10:	e3a01004 	mov	r1, #4
  14:	e5845030 	str	r5, [r4, #48]	; 0x30
  18:	ebfffffe 	bl	0 <bcm2835_gpio_fsel>
  1c:	e3a0000f 	mov	r0, #15
  20:	e3a01004 	mov	r1, #4
  24:	ebfffffe 	bl	0 <bcm2835_gpio_fsel>
  28:	e1a01005 	mov	r1, r5
  2c:	e3a0000e 	mov	r0, #14
  30:	ebfffffe 	bl	0 <bcm2835_gpio_set_pud>
  34:	e1a01005 	mov	r1, r5
  38:	e3a0000f 	mov	r0, #15
  3c:	ebfffffe 	bl	0 <bcm2835_gpio_set_pud>
  40:	e1a01004 	mov	r1, r4
  44:	e5913018 	ldr	r3, [r1, #24]
  48:	e59f203c 	ldr	r2, [pc, #60]	; 8c <bcm2835_pl011_begin+0x8c>
  4c:	e3130008 	tst	r3, #8
  50:	1afffffb 	bne	44 <bcm2835_pl011_begin+0x44>
  54:	e3a0e001 	mov	lr, #1
  58:	e3a0c028 	mov	ip, #40	; 0x28
  5c:	e3a00060 	mov	r0, #96	; 0x60
  60:	e592302c 	ldr	r3, [r2, #44]	; 0x2c
  64:	e59f4024 	ldr	r4, [pc, #36]	; 90 <bcm2835_pl011_begin+0x90>
  68:	e59f1024 	ldr	r1, [pc, #36]	; 94 <bcm2835_pl011_begin+0x94>
  6c:	e3c33010 	bic	r3, r3, #16
  70:	e582302c 	str	r3, [r2, #44]	; 0x2c
  74:	e5824044 	str	r4, [r2, #68]	; 0x44
  78:	e582e024 	str	lr, [r2, #36]	; 0x24
  7c:	e582c028 	str	ip, [r2, #40]	; 0x28
  80:	e582002c 	str	r0, [r2, #44]	; 0x2c
  84:	e5821030 	str	r1, [r2, #48]	; 0x30
  88:	e8bd8038 	pop	{r3, r4, r5, pc}
  8c:	20201000 	eorcs	r1, r0, r0
  90:	000007ff 	strdeq	r0, [r0], -pc	; <UNPREDICTABLE>
  94:	00000301 	andeq	r0, r0, r1, lsl #6

00000098 <bcm2835_pl011_send>:
  98:	e59f1014 	ldr	r1, [pc, #20]	; b4 <bcm2835_pl011_send+0x1c>
  9c:	e5913018 	ldr	r3, [r1, #24]
  a0:	e59f200c 	ldr	r2, [pc, #12]	; b4 <bcm2835_pl011_send+0x1c>
  a4:	e3130020 	tst	r3, #32
  a8:	1afffffb 	bne	9c <bcm2835_pl011_send+0x4>
  ac:	e5820000 	str	r0, [r2]
  b0:	e12fff1e 	bx	lr
  b4:	20201000 	eorcs	r1, r0, r0

Disassembly of section .comment:

00000000 <.comment>:
   0:	43434700 	movtmi	r4, #14080	; 0x3700
   4:	4728203a 			; <UNDEFINED> instruction: 0x4728203a
   8:	2029554e 	eorcs	r5, r9, lr, asr #10
   c:	2e392e34 	mrccs	14, 1, r2, cr9, cr4, {1}
  10:	Address 0x0000000000000010 is out of bounds.


Disassembly of section .ARM.attributes:

00000000 <.ARM.attributes>:
   0:	00003d41 	andeq	r3, r0, r1, asr #26
   4:	61656100 	cmnvs	r5, r0, lsl #2
   8:	01006962 	tsteq	r0, r2, ror #18
   c:	00000033 	andeq	r0, r0, r3, lsr r0
  10:	4d524105 	ldfmie	f4, [r2, #-20]	; 0xffffffec
  14:	36373131 			; <UNDEFINED> instruction: 0x36373131
  18:	2d465a4a 	vstrcs	s11, [r6, #-296]	; 0xfffffed8
  1c:	07060053 	smlsdeq	r6, r3, r0, r0
  20:	01090108 	tsteq	r9, r8, lsl #2
  24:	0412020a 	ldreq	r0, [r2], #-522	; 0xfffffdf6
  28:	01150114 	tsteq	r5, r4, lsl r1
  2c:	01180317 	tsteq	r8, r7, lsl r3
  30:	011a0119 	tsteq	sl, r9, lsl r1
  34:	011c031b 	tsteq	ip, fp, lsl r3
  38:	0122021e 	teqeq	r2, lr, lsl r2
  3c:	Address 0x000000000000003c is out of bounds.


bcm2835_spi.o:     file format elf32-littlearm


Disassembly of section .text:

00000000 <bcm2835_spi_begin>:
   0:	e52de004 	push	{lr}		; (str lr, [sp, #-4]!)
   4:	e3a0c030 	mov	ip, #48	; 0x30
   8:	e3a0e000 	mov	lr, #0
   c:	e59f2078 	ldr	r2, [pc, #120]	; 8c <bcm2835_spi_begin+0x8c>
  10:	e59f3078 	ldr	r3, [pc, #120]	; 90 <bcm2835_spi_begin+0x90>
  14:	e5921000 	ldr	r1, [r2]
  18:	e59f0074 	ldr	r0, [pc, #116]	; 94 <bcm2835_spi_begin+0x94>
  1c:	e3c115ff 	bic	r1, r1, #1069547520	; 0x3fc00000
  20:	e3c11602 	bic	r1, r1, #2097152	; 0x200000
  24:	e5821000 	str	r1, [r2]
  28:	e5921004 	ldr	r1, [r2, #4]
  2c:	e3c1103f 	bic	r1, r1, #63	; 0x3f
  30:	e5821004 	str	r1, [r2, #4]
  34:	e5921000 	ldr	r1, [r2]
  38:	e3c115ff 	bic	r1, r1, #1069547520	; 0x3fc00000
  3c:	e3c11602 	bic	r1, r1, #2097152	; 0x200000
  40:	e3811592 	orr	r1, r1, #612368384	; 0x24800000
  44:	e5821000 	str	r1, [r2]
  48:	e5921004 	ldr	r1, [r2, #4]
  4c:	e3c1103f 	bic	r1, r1, #63	; 0x3f
  50:	e3811024 	orr	r1, r1, #36	; 0x24
  54:	e5821004 	str	r1, [r2, #4]
  58:	e583e000 	str	lr, [r3]
  5c:	e583c000 	str	ip, [r3]
  60:	e5932000 	ldr	r2, [r3]
  64:	e3c22602 	bic	r2, r2, #2097152	; 0x200000
  68:	e5832000 	str	r2, [r3]
  6c:	e5932000 	ldr	r2, [r3]
  70:	e3c22501 	bic	r2, r2, #4194304	; 0x400000
  74:	e5832000 	str	r2, [r3]
  78:	e5932000 	ldr	r2, [r3]
  7c:	e3c2200c 	bic	r2, r2, #12
  80:	e5832000 	str	r2, [r3]
  84:	e5830008 	str	r0, [r3, #8]
  88:	e49df004 	pop	{pc}		; (ldr pc, [sp], #4)
  8c:	20200000 	eorcs	r0, r0, r0
  90:	20204000 	eorcs	r4, r0, r0
  94:	000009c4 	andeq	r0, r0, r4, asr #19

00000098 <bcm2835_spi_end>:
  98:	e59f201c 	ldr	r2, [pc, #28]	; bc <bcm2835_spi_end+0x24>
  9c:	e5923000 	ldr	r3, [r2]
  a0:	e3c335ff 	bic	r3, r3, #1069547520	; 0x3fc00000
  a4:	e3c33602 	bic	r3, r3, #2097152	; 0x200000
  a8:	e5823000 	str	r3, [r2]
  ac:	e5923004 	ldr	r3, [r2, #4]
  b0:	e3c3303f 	bic	r3, r3, #63	; 0x3f
  b4:	e5823004 	str	r3, [r2, #4]
  b8:	e12fff1e 	bx	lr
  bc:	20200000 	eorcs	r0, r0, r0

000000c0 <bcm2835_spi_setBitOrder>:
  c0:	e12fff1e 	bx	lr

000000c4 <bcm2835_spi_setChipSelectPolarity>:
  c4:	e3a03001 	mov	r3, #1
  c8:	e59fc020 	ldr	ip, [pc, #32]	; f0 <bcm2835_spi_setChipSelectPolarity+0x2c>
  cc:	e2800015 	add	r0, r0, #21
  d0:	e6ef0070 	uxtb	r0, r0
  d4:	e59c2000 	ldr	r2, [ip]
  d8:	e1a03013 	lsl	r3, r3, r0
  dc:	e0031011 	and	r1, r3, r1, lsl r0
  e0:	e1c20003 	bic	r0, r2, r3
  e4:	e1800001 	orr	r0, r0, r1
  e8:	e58c0000 	str	r0, [ip]
  ec:	e12fff1e 	bx	lr
  f0:	20204000 	eorcs	r4, r0, r0

000000f4 <bcm2835_spi_transfernb>:
  f4:	e92d40f0 	push	{r4, r5, r6, r7, lr}
  f8:	e3a05000 	mov	r5, #0
  fc:	e1a0e005 	mov	lr, r5
 100:	e1a06005 	mov	r6, r5
 104:	e59fc0e8 	ldr	ip, [pc, #232]	; 1f4 <bcm2835_spi_transfernb+0x100>
 108:	e59c3000 	ldr	r3, [ip]
 10c:	e3833030 	orr	r3, r3, #48	; 0x30
 110:	e58c3000 	str	r3, [ip]
 114:	e59c3000 	ldr	r3, [ip]
 118:	e3833080 	orr	r3, r3, #128	; 0x80
 11c:	e58c3000 	str	r3, [ip]
 120:	e15e0002 	cmp	lr, r2
 124:	23a04000 	movcs	r4, #0
 128:	33a04001 	movcc	r4, #1
 12c:	e15e0002 	cmp	lr, r2
 130:	21550002 	cmpcs	r5, r2
 134:	2a000025 	bcs	1d0 <bcm2835_spi_transfernb+0xdc>
 138:	e3500000 	cmp	r0, #0
 13c:	1080400e 	addne	r4, r0, lr
 140:	0a00000a 	beq	170 <bcm2835_spi_transfernb+0x7c>
 144:	e59c3000 	ldr	r3, [ip]
 148:	e1a03923 	lsr	r3, r3, #18
 14c:	e15e0002 	cmp	lr, r2
 150:	23a03000 	movcs	r3, #0
 154:	32033001 	andcc	r3, r3, #1
 158:	e3530000 	cmp	r3, #0
 15c:	0a00000a 	beq	18c <bcm2835_spi_transfernb+0x98>
 160:	e4d43001 	ldrb	r3, [r4], #1
 164:	e28ee001 	add	lr, lr, #1
 168:	e58c3004 	str	r3, [ip, #4]
 16c:	eafffff4 	b	144 <bcm2835_spi_transfernb+0x50>
 170:	e59c3000 	ldr	r3, [ip]
 174:	e0143923 	ands	r3, r4, r3, lsr #18
 178:	0a000003 	beq	18c <bcm2835_spi_transfernb+0x98>
 17c:	e58c6004 	str	r6, [ip, #4]
 180:	e59c3000 	ldr	r3, [ip]
 184:	e0143923 	ands	r3, r4, r3, lsr #18
 188:	1afffffb 	bne	17c <bcm2835_spi_transfernb+0x88>
 18c:	e0813005 	add	r3, r1, r5
 190:	e1550002 	cmp	r5, r2
 194:	23a04000 	movcs	r4, #0
 198:	33a04001 	movcc	r4, #1
 19c:	e3510000 	cmp	r1, #0
 1a0:	1a000003 	bne	1b4 <bcm2835_spi_transfernb+0xc0>
 1a4:	e59c3000 	ldr	r3, [ip]
 1a8:	e01438a3 	ands	r3, r4, r3, lsr #17
 1ac:	1afffffc 	bne	1a4 <bcm2835_spi_transfernb+0xb0>
 1b0:	eaffffda 	b	120 <bcm2835_spi_transfernb+0x2c>
 1b4:	e59c7000 	ldr	r7, [ip]
 1b8:	e01448a7 	ands	r4, r4, r7, lsr #17
 1bc:	0affffd7 	beq	120 <bcm2835_spi_transfernb+0x2c>
 1c0:	e59c4004 	ldr	r4, [ip, #4]
 1c4:	e2855001 	add	r5, r5, #1
 1c8:	e4c34001 	strb	r4, [r3], #1
 1cc:	eaffffef 	b	190 <bcm2835_spi_transfernb+0x9c>
 1d0:	e59f101c 	ldr	r1, [pc, #28]	; 1f4 <bcm2835_spi_transfernb+0x100>
 1d4:	e5913000 	ldr	r3, [r1]
 1d8:	e59f2014 	ldr	r2, [pc, #20]	; 1f4 <bcm2835_spi_transfernb+0x100>
 1dc:	e3130801 	tst	r3, #65536	; 0x10000
 1e0:	0afffffb 	beq	1d4 <bcm2835_spi_transfernb+0xe0>
 1e4:	e5923000 	ldr	r3, [r2]
 1e8:	e3c33080 	bic	r3, r3, #128	; 0x80
 1ec:	e5823000 	str	r3, [r2]
 1f0:	e8bd80f0 	pop	{r4, r5, r6, r7, pc}
 1f4:	20204000 	eorcs	r4, r0, r0

000001f8 <bcm2835_spi_transfern>:
 1f8:	e92d4070 	push	{r4, r5, r6, lr}
 1fc:	e3a04000 	mov	r4, #0
 200:	e59f30f4 	ldr	r3, [pc, #244]	; 2fc <bcm2835_spi_transfern+0x104>
 204:	e1a05004 	mov	r5, r4
 208:	e5932000 	ldr	r2, [r3]
 20c:	e3822030 	orr	r2, r2, #48	; 0x30
 210:	e5832000 	str	r2, [r3]
 214:	e593c000 	ldr	ip, [r3]
 218:	e1a02003 	mov	r2, r3
 21c:	e38cc080 	orr	ip, ip, #128	; 0x80
 220:	e583c000 	str	ip, [r3]
 224:	e1a0c004 	mov	ip, r4
 228:	e151000c 	cmp	r1, ip
 22c:	93a0e000 	movls	lr, #0
 230:	83a0e001 	movhi	lr, #1
 234:	e151000c 	cmp	r1, ip
 238:	91510004 	cmpls	r1, r4
 23c:	9a000025 	bls	2d8 <bcm2835_spi_transfern+0xe0>
 240:	e3500000 	cmp	r0, #0
 244:	1080e00c 	addne	lr, r0, ip
 248:	0a00000a 	beq	278 <bcm2835_spi_transfern+0x80>
 24c:	e5923000 	ldr	r3, [r2]
 250:	e1a03923 	lsr	r3, r3, #18
 254:	e151000c 	cmp	r1, ip
 258:	93a03000 	movls	r3, #0
 25c:	82033001 	andhi	r3, r3, #1
 260:	e3530000 	cmp	r3, #0
 264:	0a00000a 	beq	294 <bcm2835_spi_transfern+0x9c>
 268:	e4de3001 	ldrb	r3, [lr], #1
 26c:	e28cc001 	add	ip, ip, #1
 270:	e5823004 	str	r3, [r2, #4]
 274:	eafffff4 	b	24c <bcm2835_spi_transfern+0x54>
 278:	e5923000 	ldr	r3, [r2]
 27c:	e01e3923 	ands	r3, lr, r3, lsr #18
 280:	0a000003 	beq	294 <bcm2835_spi_transfern+0x9c>
 284:	e5825004 	str	r5, [r2, #4]
 288:	e5923000 	ldr	r3, [r2]
 28c:	e01e3923 	ands	r3, lr, r3, lsr #18
 290:	1afffffb 	bne	284 <bcm2835_spi_transfern+0x8c>
 294:	e0803004 	add	r3, r0, r4
 298:	e1510004 	cmp	r1, r4
 29c:	93a0e000 	movls	lr, #0
 2a0:	83a0e001 	movhi	lr, #1
 2a4:	e3500000 	cmp	r0, #0
 2a8:	1a000003 	bne	2bc <bcm2835_spi_transfern+0xc4>
 2ac:	e5923000 	ldr	r3, [r2]
 2b0:	e01e38a3 	ands	r3, lr, r3, lsr #17
 2b4:	1afffffc 	bne	2ac <bcm2835_spi_transfern+0xb4>
 2b8:	eaffffda 	b	228 <bcm2835_spi_transfern+0x30>
 2bc:	e5926000 	ldr	r6, [r2]
 2c0:	e01ee8a6 	ands	lr, lr, r6, lsr #17
 2c4:	0affffd7 	beq	228 <bcm2835_spi_transfern+0x30>
 2c8:	e592e004 	ldr	lr, [r2, #4]
 2cc:	e2844001 	add	r4, r4, #1
 2d0:	e4c3e001 	strb	lr, [r3], #1
 2d4:	eaffffef 	b	298 <bcm2835_spi_transfern+0xa0>
 2d8:	e59f101c 	ldr	r1, [pc, #28]	; 2fc <bcm2835_spi_transfern+0x104>
 2dc:	e5913000 	ldr	r3, [r1]
 2e0:	e59f2014 	ldr	r2, [pc, #20]	; 2fc <bcm2835_spi_transfern+0x104>
 2e4:	e3130801 	tst	r3, #65536	; 0x10000
 2e8:	0afffffb 	beq	2dc <bcm2835_spi_transfern+0xe4>
 2ec:	e5923000 	ldr	r3, [r2]
 2f0:	e3c33080 	bic	r3, r3, #128	; 0x80
 2f4:	e5823000 	str	r3, [r2]
 2f8:	e8bd8070 	pop	{r4, r5, r6, pc}
 2fc:	20204000 	eorcs	r4, r0, r0

00000300 <bcm2835_spi_writenb>:
 300:	e59fc064 	ldr	ip, [pc, #100]	; 36c <bcm2835_spi_writenb+0x6c>
 304:	e3510000 	cmp	r1, #0
 308:	e59c3000 	ldr	r3, [ip]
 30c:	10801001 	addne	r1, r0, r1
 310:	e3833030 	orr	r3, r3, #48	; 0x30
 314:	e58c3000 	str	r3, [ip]
 318:	e59c3000 	ldr	r3, [ip]
 31c:	e3833080 	orr	r3, r3, #128	; 0x80
 320:	e58c3000 	str	r3, [ip]
 324:	0a000007 	beq	348 <bcm2835_spi_writenb+0x48>
 328:	e59c3000 	ldr	r3, [ip]
 32c:	e59f2038 	ldr	r2, [pc, #56]	; 36c <bcm2835_spi_writenb+0x6c>
 330:	e3130701 	tst	r3, #262144	; 0x40000
 334:	0afffffb 	beq	328 <bcm2835_spi_writenb+0x28>
 338:	e4d03001 	ldrb	r3, [r0], #1
 33c:	e1500001 	cmp	r0, r1
 340:	e5823004 	str	r3, [r2, #4]
 344:	1afffff7 	bne	328 <bcm2835_spi_writenb+0x28>
 348:	e59f101c 	ldr	r1, [pc, #28]	; 36c <bcm2835_spi_writenb+0x6c>
 34c:	e5913000 	ldr	r3, [r1]
 350:	e59f2014 	ldr	r2, [pc, #20]	; 36c <bcm2835_spi_writenb+0x6c>
 354:	e3130801 	tst	r3, #65536	; 0x10000
 358:	0afffffb 	beq	34c <bcm2835_spi_writenb+0x4c>
 35c:	e5923000 	ldr	r3, [r2]
 360:	e3c33080 	bic	r3, r3, #128	; 0x80
 364:	e5823000 	str	r3, [r2]
 368:	e12fff1e 	bx	lr
 36c:	20204000 	eorcs	r4, r0, r0

Disassembly of section .comment:

00000000 <.comment>:
   0:	43434700 	movtmi	r4, #14080	; 0x3700
   4:	4728203a 			; <UNDEFINED> instruction: 0x4728203a
   8:	2029554e 	eorcs	r5, r9, lr, asr #10
   c:	2e392e34 	mrccs	14, 1, r2, cr9, cr4, {1}
  10:	Address 0x0000000000000010 is out of bounds.


Disassembly of section .ARM.attributes:

00000000 <.ARM.attributes>:
   0:	00003d41 	andeq	r3, r0, r1, asr #26
   4:	61656100 	cmnvs	r5, r0, lsl #2
   8:	01006962 	tsteq	r0, r2, ror #18
   c:	00000033 	andeq	r0, r0, r3, lsr r0
  10:	4d524105 	ldfmie	f4, [r2, #-20]	; 0xffffffec
  14:	36373131 			; <UNDEFINED> instruction: 0x36373131
  18:	2d465a4a 	vstrcs	s11, [r6, #-296]	; 0xfffffed8
  1c:	07060053 	smlsdeq	r6, r3, r0, r0
  20:	01090108 	tsteq	r9, r8, lsl #2
  24:	0412020a 	ldreq	r0, [r2], #-522	; 0xfffffdf6
  28:	01150114 	tsteq	r5, r4, lsl r1
  2c:	01180317 	tsteq	r8, r7, lsl r3
  30:	011a0119 	tsteq	sl, r9, lsl r1
  34:	011c031b 	tsteq	ip, fp, lsl r3
  38:	0122021e 	teqeq	r2, lr, lsl r2
  3c:	Address 0x000000000000003c is out of bounds.


bcm2835_uart.o:     file format elf32-littlearm


Disassembly of section .text:

00000000 <bcm2835_uart_begin>:
   0:	e92d4070 	push	{r4, r5, r6, lr}
   4:	e3a0c001 	mov	ip, #1
   8:	e3a05000 	mov	r5, #0
   c:	e3a06003 	mov	r6, #3
  10:	e3a00005 	mov	r0, #5
  14:	e3a010c6 	mov	r1, #198	; 0xc6
  18:	e59f4050 	ldr	r4, [pc, #80]	; 70 <bcm2835_uart_begin+0x70>
  1c:	e59f3050 	ldr	r3, [pc, #80]	; 74 <bcm2835_uart_begin+0x74>
  20:	e59f2050 	ldr	r2, [pc, #80]	; 78 <bcm2835_uart_begin+0x78>
  24:	e584c004 	str	ip, [r4, #4]
  28:	e5845060 	str	r5, [r4, #96]	; 0x60
  2c:	e584604c 	str	r6, [r4, #76]	; 0x4c
  30:	e5845050 	str	r5, [r4, #80]	; 0x50
  34:	e5840044 	str	r0, [r4, #68]	; 0x44
  38:	e5841048 	str	r1, [r4, #72]	; 0x48
  3c:	e5843068 	str	r3, [r4, #104]	; 0x68
  40:	e5923004 	ldr	r3, [r2, #4]
  44:	e1a01005 	mov	r1, r5
  48:	e3c33a3f 	bic	r3, r3, #258048	; 0x3f000
  4c:	e3833a12 	orr	r3, r3, #73728	; 0x12000
  50:	e5823004 	str	r3, [r2, #4]
  54:	e3a0000e 	mov	r0, #14
  58:	ebfffffe 	bl	0 <bcm2835_gpio_set_pud>
  5c:	e1a01005 	mov	r1, r5
  60:	e3a0000f 	mov	r0, #15
  64:	ebfffffe 	bl	0 <bcm2835_gpio_set_pud>
  68:	e5846060 	str	r6, [r4, #96]	; 0x60
  6c:	e8bd8070 	pop	{r4, r5, r6, pc}
  70:	20215000 	eorcs	r5, r1, r0
  74:	0000010e 	andeq	r0, r0, lr, lsl #2
  78:	20200000 	eorcs	r0, r0, r0

0000007c <bcm2835_uart_send>:
  7c:	e59f1014 	ldr	r1, [pc, #20]	; 98 <bcm2835_uart_send+0x1c>
  80:	e5913054 	ldr	r3, [r1, #84]	; 0x54
  84:	e59f200c 	ldr	r2, [pc, #12]	; 98 <bcm2835_uart_send+0x1c>
  88:	e3130020 	tst	r3, #32
  8c:	0afffffb 	beq	80 <bcm2835_uart_send+0x4>
  90:	e5820040 	str	r0, [r2, #64]	; 0x40
  94:	e12fff1e 	bx	lr
  98:	20215000 	eorcs	r5, r1, r0

0000009c <bcm2835_uart_receive>:
  9c:	e59f1014 	ldr	r1, [pc, #20]	; b8 <bcm2835_uart_receive+0x1c>
  a0:	e5913054 	ldr	r3, [r1, #84]	; 0x54
  a4:	e59f200c 	ldr	r2, [pc, #12]	; b8 <bcm2835_uart_receive+0x1c>
  a8:	e3130001 	tst	r3, #1
  ac:	0afffffb 	beq	a0 <bcm2835_uart_receive+0x4>
  b0:	e5920040 	ldr	r0, [r2, #64]	; 0x40
  b4:	e12fff1e 	bx	lr
  b8:	20215000 	eorcs	r5, r1, r0

Disassembly of section .comment:

00000000 <.comment>:
   0:	43434700 	movtmi	r4, #14080	; 0x3700
   4:	4728203a 			; <UNDEFINED> instruction: 0x4728203a
   8:	2029554e 	eorcs	r5, r9, lr, asr #10
   c:	2e392e34 	mrccs	14, 1, r2, cr9, cr4, {1}
  10:	Address 0x0000000000000010 is out of bounds.


Disassembly of section .ARM.attributes:

00000000 <.ARM.attributes>:
   0:	00003d41 	andeq	r3, r0, r1, asr #26
   4:	61656100 	cmnvs	r5, r0, lsl #2
   8:	01006962 	tsteq	r0, r2, ror #18
   c:	00000033 	andeq	r0, r0, r3, lsr r0
  10:	4d524105 	ldfmie	f4, [r2, #-20]	; 0xffffffec
  14:	36373131 			; <UNDEFINED> instruction: 0x36373131
  18:	2d465a4a 	vstrcs	s11, [r6, #-296]	; 0xfffffed8
  1c:	07060053 	smlsdeq	r6, r3, r0, r0
  20:	01090108 	tsteq	r9, r8, lsl #2
  24:	0412020a 	ldreq	r0, [r2], #-522	; 0xfffffdf6
  28:	01150114 	tsteq	r5, r4, lsl r1
  2c:	01180317 	tsteq	r8, r7, lsl r3
  30:	011a0119 	tsteq	sl, r9, lsl r1
  34:	011c031b 	tsteq	ip, fp, lsl r3
  38:	0122021e 	teqeq	r2, lr, lsl r2
  3c:	Address 0x000000000000003c is out of bounds.


bcm2835_vc.o:     file format elf32-littlearm


Disassembly of section .text:

00000000 <bcm2835_vc_get_clock_rate>:
   0:	e92d4878 	push	{r3, r4, r5, r6, fp, lr}
   4:	e3a02004 	mov	r2, #4
   8:	e3a03000 	mov	r3, #0
   c:	e3a05008 	mov	r5, #8
  10:	e3a0e020 	mov	lr, #32
  14:	e1a06000 	mov	r6, r0
  18:	e28db014 	add	fp, sp, #20
  1c:	e24dd030 	sub	sp, sp, #48	; 0x30
  20:	e59fc068 	ldr	ip, [pc, #104]	; 90 <bcm2835_vc_get_clock_rate+0x90>
  24:	e28d400f 	add	r4, sp, #15
  28:	e3c4400f 	bic	r4, r4, #15
  2c:	e5843004 	str	r3, [r4, #4]
  30:	e5843018 	str	r3, [r4, #24]
  34:	e584301c 	str	r3, [r4, #28]
  38:	e1a01004 	mov	r1, r4
  3c:	e1a00005 	mov	r0, r5
  40:	e584e000 	str	lr, [r4]
  44:	e584c008 	str	ip, [r4, #8]
  48:	e5842010 	str	r2, [r4, #16]
  4c:	e5846014 	str	r6, [r4, #20]
  50:	e584500c 	str	r5, [r4, #12]
  54:	ebfffffe 	bl	0 <bcm2835_mailbox_write>
  58:	e1a00005 	mov	r0, r5
  5c:	ebfffffe 	bl	0 <bcm2835_mailbox_read>
  60:	e5943004 	ldr	r3, [r4, #4]
  64:	e3530102 	cmp	r3, #-2147483648	; 0x80000000
  68:	1a000005 	bne	84 <bcm2835_vc_get_clock_rate+0x84>
  6c:	e5943014 	ldr	r3, [r4, #20]
  70:	e1560003 	cmp	r6, r3
  74:	1a000002 	bne	84 <bcm2835_vc_get_clock_rate+0x84>
  78:	e5940018 	ldr	r0, [r4, #24]
  7c:	e24bd014 	sub	sp, fp, #20
  80:	e8bd8878 	pop	{r3, r4, r5, r6, fp, pc}
  84:	e3e00000 	mvn	r0, #0
  88:	e24bd014 	sub	sp, fp, #20
  8c:	e8bd8878 	pop	{r3, r4, r5, r6, fp, pc}
  90:	00030002 	andeq	r0, r3, r2

00000094 <bcm2835_vc_set_clock_rate>:
  94:	e92d4878 	push	{r3, r4, r5, r6, fp, lr}
  98:	e3a0c020 	mov	ip, #32
  9c:	e3a03000 	mov	r3, #0
  a0:	e3a05008 	mov	r5, #8
  a4:	e1a06000 	mov	r6, r0
  a8:	e28db014 	add	fp, sp, #20
  ac:	e24dd030 	sub	sp, sp, #48	; 0x30
  b0:	e59f2068 	ldr	r2, [pc, #104]	; 120 <bcm2835_vc_set_clock_rate+0x8c>
  b4:	e28d400f 	add	r4, sp, #15
  b8:	e3c4400f 	bic	r4, r4, #15
  bc:	e5843004 	str	r3, [r4, #4]
  c0:	e584301c 	str	r3, [r4, #28]
  c4:	e5841018 	str	r1, [r4, #24]
  c8:	e1a00005 	mov	r0, r5
  cc:	e1a01004 	mov	r1, r4
  d0:	e584c000 	str	ip, [r4]
  d4:	e5842008 	str	r2, [r4, #8]
  d8:	e5846014 	str	r6, [r4, #20]
  dc:	e584500c 	str	r5, [r4, #12]
  e0:	e5845010 	str	r5, [r4, #16]
  e4:	ebfffffe 	bl	0 <bcm2835_mailbox_write>
  e8:	e1a00005 	mov	r0, r5
  ec:	ebfffffe 	bl	0 <bcm2835_mailbox_read>
  f0:	e5943004 	ldr	r3, [r4, #4]
  f4:	e3530102 	cmp	r3, #-2147483648	; 0x80000000
  f8:	1a000005 	bne	114 <bcm2835_vc_set_clock_rate+0x80>
  fc:	e5943014 	ldr	r3, [r4, #20]
 100:	e1560003 	cmp	r6, r3
 104:	1a000002 	bne	114 <bcm2835_vc_set_clock_rate+0x80>
 108:	e5940018 	ldr	r0, [r4, #24]
 10c:	e24bd014 	sub	sp, fp, #20
 110:	e8bd8878 	pop	{r3, r4, r5, r6, fp, pc}
 114:	e3e00000 	mvn	r0, #0
 118:	e24bd014 	sub	sp, fp, #20
 11c:	e8bd8878 	pop	{r3, r4, r5, r6, fp, pc}
 120:	00038002 	andeq	r8, r3, r2

00000124 <bcm2835_vc_get_temperature>:
 124:	e92d4830 	push	{r4, r5, fp, lr}
 128:	e3a03000 	mov	r3, #0
 12c:	e3a05008 	mov	r5, #8
 130:	e3a0e020 	mov	lr, #32
 134:	e3a02004 	mov	r2, #4
 138:	e28db00c 	add	fp, sp, #12
 13c:	e24dd030 	sub	sp, sp, #48	; 0x30
 140:	e59fc068 	ldr	ip, [pc, #104]	; 1b0 <bcm2835_vc_get_temperature+0x8c>
 144:	e28d400f 	add	r4, sp, #15
 148:	e3c4400f 	bic	r4, r4, #15
 14c:	e5843004 	str	r3, [r4, #4]
 150:	e5843014 	str	r3, [r4, #20]
 154:	e5843018 	str	r3, [r4, #24]
 158:	e584301c 	str	r3, [r4, #28]
 15c:	e1a01004 	mov	r1, r4
 160:	e1a00005 	mov	r0, r5
 164:	e584e000 	str	lr, [r4]
 168:	e584c008 	str	ip, [r4, #8]
 16c:	e5842010 	str	r2, [r4, #16]
 170:	e584500c 	str	r5, [r4, #12]
 174:	ebfffffe 	bl	0 <bcm2835_mailbox_write>
 178:	e1a00005 	mov	r0, r5
 17c:	ebfffffe 	bl	0 <bcm2835_mailbox_read>
 180:	e5943004 	ldr	r3, [r4, #4]
 184:	e3530102 	cmp	r3, #-2147483648	; 0x80000000
 188:	1a000005 	bne	1a4 <bcm2835_vc_get_temperature+0x80>
 18c:	e5943014 	ldr	r3, [r4, #20]
 190:	e3530000 	cmp	r3, #0
 194:	1a000002 	bne	1a4 <bcm2835_vc_get_temperature+0x80>
 198:	e5940018 	ldr	r0, [r4, #24]
 19c:	e24bd00c 	sub	sp, fp, #12
 1a0:	e8bd8830 	pop	{r4, r5, fp, pc}
 1a4:	e3e00000 	mvn	r0, #0
 1a8:	e24bd00c 	sub	sp, fp, #12
 1ac:	e8bd8830 	pop	{r4, r5, fp, pc}
 1b0:	00030006 	andeq	r0, r3, r6

000001b4 <bcm2835_vc_get_temperature_max>:
 1b4:	e92d4830 	push	{r4, r5, fp, lr}
 1b8:	e3a03000 	mov	r3, #0
 1bc:	e3a05008 	mov	r5, #8
 1c0:	e3a0e020 	mov	lr, #32
 1c4:	e3a02004 	mov	r2, #4
 1c8:	e28db00c 	add	fp, sp, #12
 1cc:	e24dd030 	sub	sp, sp, #48	; 0x30
 1d0:	e59fc068 	ldr	ip, [pc, #104]	; 240 <bcm2835_vc_get_temperature_max+0x8c>
 1d4:	e28d400f 	add	r4, sp, #15
 1d8:	e3c4400f 	bic	r4, r4, #15
 1dc:	e5843004 	str	r3, [r4, #4]
 1e0:	e5843014 	str	r3, [r4, #20]
 1e4:	e5843018 	str	r3, [r4, #24]
 1e8:	e584301c 	str	r3, [r4, #28]
 1ec:	e1a01004 	mov	r1, r4
 1f0:	e1a00005 	mov	r0, r5
 1f4:	e584e000 	str	lr, [r4]
 1f8:	e584c008 	str	ip, [r4, #8]
 1fc:	e5842010 	str	r2, [r4, #16]
 200:	e584500c 	str	r5, [r4, #12]
 204:	ebfffffe 	bl	0 <bcm2835_mailbox_write>
 208:	e1a00005 	mov	r0, r5
 20c:	ebfffffe 	bl	0 <bcm2835_mailbox_read>
 210:	e5943004 	ldr	r3, [r4, #4]
 214:	e3530102 	cmp	r3, #-2147483648	; 0x80000000
 218:	1a000005 	bne	234 <bcm2835_vc_get_temperature_max+0x80>
 21c:	e5943014 	ldr	r3, [r4, #20]
 220:	e3530000 	cmp	r3, #0
 224:	1a000002 	bne	234 <bcm2835_vc_get_temperature_max+0x80>
 228:	e5940018 	ldr	r0, [r4, #24]
 22c:	e24bd00c 	sub	sp, fp, #12
 230:	e8bd8830 	pop	{r4, r5, fp, pc}
 234:	e3e00000 	mvn	r0, #0
 238:	e24bd00c 	sub	sp, fp, #12
 23c:	e8bd8830 	pop	{r4, r5, fp, pc}
 240:	0003000a 	andeq	r0, r3, sl

00000244 <bcm2835_vc_get_power_state>:
 244:	e92d4878 	push	{r3, r4, r5, r6, fp, lr}
 248:	e3a02004 	mov	r2, #4
 24c:	e3a03000 	mov	r3, #0
 250:	e3a05008 	mov	r5, #8
 254:	e3a0e020 	mov	lr, #32
 258:	e1a06000 	mov	r6, r0
 25c:	e28db014 	add	fp, sp, #20
 260:	e24dd030 	sub	sp, sp, #48	; 0x30
 264:	e59fc06c 	ldr	ip, [pc, #108]	; 2d8 <bcm2835_vc_get_power_state+0x94>
 268:	e28d400f 	add	r4, sp, #15
 26c:	e3c4400f 	bic	r4, r4, #15
 270:	e5843004 	str	r3, [r4, #4]
 274:	e5843018 	str	r3, [r4, #24]
 278:	e584301c 	str	r3, [r4, #28]
 27c:	e1a01004 	mov	r1, r4
 280:	e1a00005 	mov	r0, r5
 284:	e584e000 	str	lr, [r4]
 288:	e584c008 	str	ip, [r4, #8]
 28c:	e5842010 	str	r2, [r4, #16]
 290:	e5846014 	str	r6, [r4, #20]
 294:	e584500c 	str	r5, [r4, #12]
 298:	ebfffffe 	bl	0 <bcm2835_mailbox_write>
 29c:	e1a00005 	mov	r0, r5
 2a0:	ebfffffe 	bl	0 <bcm2835_mailbox_read>
 2a4:	e5943004 	ldr	r3, [r4, #4]
 2a8:	e3530102 	cmp	r3, #-2147483648	; 0x80000000
 2ac:	1a000006 	bne	2cc <bcm2835_vc_get_power_state+0x88>
 2b0:	e5943014 	ldr	r3, [r4, #20]
 2b4:	e1560003 	cmp	r6, r3
 2b8:	1a000003 	bne	2cc <bcm2835_vc_get_power_state+0x88>
 2bc:	e5940018 	ldr	r0, [r4, #24]
 2c0:	e2000003 	and	r0, r0, #3
 2c4:	e24bd014 	sub	sp, fp, #20
 2c8:	e8bd8878 	pop	{r3, r4, r5, r6, fp, pc}
 2cc:	e3a00003 	mov	r0, #3
 2d0:	e24bd014 	sub	sp, fp, #20
 2d4:	e8bd8878 	pop	{r3, r4, r5, r6, fp, pc}
 2d8:	00020001 	andeq	r0, r2, r1

000002dc <bcm2835_vc_set_power_state>:
 2dc:	e92d4878 	push	{r3, r4, r5, r6, fp, lr}
 2e0:	e3a0c020 	mov	ip, #32
 2e4:	e3a03000 	mov	r3, #0
 2e8:	e3a05008 	mov	r5, #8
 2ec:	e1a06000 	mov	r6, r0
 2f0:	e28db014 	add	fp, sp, #20
 2f4:	e24dd030 	sub	sp, sp, #48	; 0x30
 2f8:	e59f2068 	ldr	r2, [pc, #104]	; 368 <bcm2835_vc_set_power_state+0x8c>
 2fc:	e28d400f 	add	r4, sp, #15
 300:	e3c4400f 	bic	r4, r4, #15
 304:	e5843004 	str	r3, [r4, #4]
 308:	e584301c 	str	r3, [r4, #28]
 30c:	e5841018 	str	r1, [r4, #24]
 310:	e1a00005 	mov	r0, r5
 314:	e1a01004 	mov	r1, r4
 318:	e584c000 	str	ip, [r4]
 31c:	e5842008 	str	r2, [r4, #8]
 320:	e5846014 	str	r6, [r4, #20]
 324:	e584500c 	str	r5, [r4, #12]
 328:	e5845010 	str	r5, [r4, #16]
 32c:	ebfffffe 	bl	0 <bcm2835_mailbox_write>
 330:	e1a00005 	mov	r0, r5
 334:	ebfffffe 	bl	0 <bcm2835_mailbox_read>
 338:	e5943004 	ldr	r3, [r4, #4]
 33c:	e3530102 	cmp	r3, #-2147483648	; 0x80000000
 340:	1a000005 	bne	35c <bcm2835_vc_set_power_state+0x80>
 344:	e5943014 	ldr	r3, [r4, #20]
 348:	e1560003 	cmp	r6, r3
 34c:	1a000002 	bne	35c <bcm2835_vc_set_power_state+0x80>
 350:	e5940018 	ldr	r0, [r4, #24]
 354:	e24bd014 	sub	sp, fp, #20
 358:	e8bd8878 	pop	{r3, r4, r5, r6, fp, pc}
 35c:	e3e00000 	mvn	r0, #0
 360:	e24bd014 	sub	sp, fp, #20
 364:	e8bd8878 	pop	{r3, r4, r5, r6, fp, pc}
 368:	00028001 	andeq	r8, r2, r1

0000036c <bcm2835_vc_get_board_mac_address>:
 36c:	e92d4878 	push	{r3, r4, r5, r6, fp, lr}
 370:	e3a0c020 	mov	ip, #32
 374:	e3a03006 	mov	r3, #6
 378:	e3a05000 	mov	r5, #0
 37c:	e28db014 	add	fp, sp, #20
 380:	e24dd030 	sub	sp, sp, #48	; 0x30
 384:	e59f20a0 	ldr	r2, [pc, #160]	; 42c <bcm2835_vc_get_board_mac_address+0xc0>
 388:	e28d400f 	add	r4, sp, #15
 38c:	e3c4400f 	bic	r4, r4, #15
 390:	e584300c 	str	r3, [r4, #12]
 394:	e1a01004 	mov	r1, r4
 398:	e584c000 	str	ip, [r4]
 39c:	e5842008 	str	r2, [r4, #8]
 3a0:	e1a06000 	mov	r6, r0
 3a4:	e5845004 	str	r5, [r4, #4]
 3a8:	e3a00008 	mov	r0, #8
 3ac:	e5845010 	str	r5, [r4, #16]
 3b0:	e5c45014 	strb	r5, [r4, #20]
 3b4:	e584501c 	str	r5, [r4, #28]
 3b8:	ebfffffe 	bl	0 <bcm2835_mailbox_write>
 3bc:	e3a00008 	mov	r0, #8
 3c0:	ebfffffe 	bl	0 <bcm2835_mailbox_read>
 3c4:	e5943004 	ldr	r3, [r4, #4]
 3c8:	e3530102 	cmp	r3, #-2147483648	; 0x80000000
 3cc:	1a00000e 	bne	40c <bcm2835_vc_get_board_mac_address+0xa0>
 3d0:	e5d4e014 	ldrb	lr, [r4, #20]
 3d4:	e5d4c015 	ldrb	ip, [r4, #21]
 3d8:	e5d40016 	ldrb	r0, [r4, #22]
 3dc:	e5d41017 	ldrb	r1, [r4, #23]
 3e0:	e5d42018 	ldrb	r2, [r4, #24]
 3e4:	e5d43019 	ldrb	r3, [r4, #25]
 3e8:	e5c6e000 	strb	lr, [r6]
 3ec:	e5c6c001 	strb	ip, [r6, #1]
 3f0:	e5c60002 	strb	r0, [r6, #2]
 3f4:	e5c61003 	strb	r1, [r6, #3]
 3f8:	e5c62004 	strb	r2, [r6, #4]
 3fc:	e5c63005 	strb	r3, [r6, #5]
 400:	e1a00005 	mov	r0, r5
 404:	e24bd014 	sub	sp, fp, #20
 408:	e8bd8878 	pop	{r3, r4, r5, r6, fp, pc}
 40c:	e5c65000 	strb	r5, [r6]
 410:	e5c65001 	strb	r5, [r6, #1]
 414:	e5c65002 	strb	r5, [r6, #2]
 418:	e5c65003 	strb	r5, [r6, #3]
 41c:	e5c65004 	strb	r5, [r6, #4]
 420:	e5c65005 	strb	r5, [r6, #5]
 424:	e3e05000 	mvn	r5, #0
 428:	eafffff4 	b	400 <bcm2835_vc_get_board_mac_address+0x94>
 42c:	00010003 	andeq	r0, r1, r3

00000430 <bcm2835_vc_get_get_firmware_revision>:
 430:	e92d4818 	push	{r3, r4, fp, lr}
 434:	e3a0c001 	mov	ip, #1
 438:	e3a03000 	mov	r3, #0
 43c:	e3a0e01c 	mov	lr, #28
 440:	e3a02004 	mov	r2, #4
 444:	e28db00c 	add	fp, sp, #12
 448:	e24dd030 	sub	sp, sp, #48	; 0x30
 44c:	e28d400f 	add	r4, sp, #15
 450:	e3c4400f 	bic	r4, r4, #15
 454:	e5843004 	str	r3, [r4, #4]
 458:	e5843010 	str	r3, [r4, #16]
 45c:	e5843014 	str	r3, [r4, #20]
 460:	e5843018 	str	r3, [r4, #24]
 464:	e1a01004 	mov	r1, r4
 468:	e584e000 	str	lr, [r4]
 46c:	e584c008 	str	ip, [r4, #8]
 470:	e584200c 	str	r2, [r4, #12]
 474:	e3a00008 	mov	r0, #8
 478:	ebfffffe 	bl	0 <bcm2835_mailbox_write>
 47c:	e3a00008 	mov	r0, #8
 480:	ebfffffe 	bl	0 <bcm2835_mailbox_read>
 484:	e5943004 	ldr	r3, [r4, #4]
 488:	e3530102 	cmp	r3, #-2147483648	; 0x80000000
 48c:	13e00000 	mvnne	r0, #0
 490:	05940014 	ldreq	r0, [r4, #20]
 494:	e24bd00c 	sub	sp, fp, #12
 498:	e8bd8818 	pop	{r3, r4, fp, pc}

0000049c <bcm2835_vc_get_get_board_model>:
 49c:	e92d4818 	push	{r3, r4, fp, lr}
 4a0:	e3a02004 	mov	r2, #4
 4a4:	e3a03000 	mov	r3, #0
 4a8:	e3a0e01c 	mov	lr, #28
 4ac:	e28db00c 	add	fp, sp, #12
 4b0:	e24dd030 	sub	sp, sp, #48	; 0x30
 4b4:	e59fc04c 	ldr	ip, [pc, #76]	; 508 <bcm2835_vc_get_get_board_model+0x6c>
 4b8:	e28d400f 	add	r4, sp, #15
 4bc:	e3c4400f 	bic	r4, r4, #15
 4c0:	e5843004 	str	r3, [r4, #4]
 4c4:	e5843010 	str	r3, [r4, #16]
 4c8:	e5843014 	str	r3, [r4, #20]
 4cc:	e5843018 	str	r3, [r4, #24]
 4d0:	e1a01004 	mov	r1, r4
 4d4:	e584e000 	str	lr, [r4]
 4d8:	e584c008 	str	ip, [r4, #8]
 4dc:	e584200c 	str	r2, [r4, #12]
 4e0:	e3a00008 	mov	r0, #8
 4e4:	ebfffffe 	bl	0 <bcm2835_mailbox_write>
 4e8:	e3a00008 	mov	r0, #8
 4ec:	ebfffffe 	bl	0 <bcm2835_mailbox_read>
 4f0:	e5943004 	ldr	r3, [r4, #4]
 4f4:	e3530102 	cmp	r3, #-2147483648	; 0x80000000
 4f8:	13e00000 	mvnne	r0, #0
 4fc:	05940014 	ldreq	r0, [r4, #20]
 500:	e24bd00c 	sub	sp, fp, #12
 504:	e8bd8818 	pop	{r3, r4, fp, pc}
 508:	00010001 	andeq	r0, r1, r1

0000050c <bcm2835_vc_get_get_board_revision>:
 50c:	e92d4818 	push	{r3, r4, fp, lr}
 510:	e3a02004 	mov	r2, #4
 514:	e3a03000 	mov	r3, #0
 518:	e3a0e01c 	mov	lr, #28
 51c:	e28db00c 	add	fp, sp, #12
 520:	e24dd030 	sub	sp, sp, #48	; 0x30
 524:	e59fc04c 	ldr	ip, [pc, #76]	; 578 <bcm2835_vc_get_get_board_revision+0x6c>
 528:	e28d400f 	add	r4, sp, #15
 52c:	e3c4400f 	bic	r4, r4, #15
 530:	e5843004 	str	r3, [r4, #4]
 534:	e5843010 	str	r3, [r4, #16]
 538:	e5843014 	str	r3, [r4, #20]
 53c:	e5843018 	str	r3, [r4, #24]
 540:	e1a01004 	mov	r1, r4
 544:	e584e000 	str	lr, [r4]
 548:	e584c008 	str	ip, [r4, #8]
 54c:	e584200c 	str	r2, [r4, #12]
 550:	e3a00008 	mov	r0, #8
 554:	ebfffffe 	bl	0 <bcm2835_mailbox_write>
 558:	e3a00008 	mov	r0, #8
 55c:	ebfffffe 	bl	0 <bcm2835_mailbox_read>
 560:	e5943004 	ldr	r3, [r4, #4]
 564:	e3530102 	cmp	r3, #-2147483648	; 0x80000000
 568:	13e00000 	mvnne	r0, #0
 56c:	05940014 	ldreq	r0, [r4, #20]
 570:	e24bd00c 	sub	sp, fp, #12
 574:	e8bd8818 	pop	{r3, r4, fp, pc}
 578:	00010002 	andeq	r0, r1, r2

Disassembly of section .comment:

00000000 <.comment>:
   0:	43434700 	movtmi	r4, #14080	; 0x3700
   4:	4728203a 			; <UNDEFINED> instruction: 0x4728203a
   8:	2029554e 	eorcs	r5, r9, lr, asr #10
   c:	2e392e34 	mrccs	14, 1, r2, cr9, cr4, {1}
  10:	Address 0x0000000000000010 is out of bounds.


Disassembly of section .ARM.attributes:

00000000 <.ARM.attributes>:
   0:	00003d41 	andeq	r3, r0, r1, asr #26
   4:	61656100 	cmnvs	r5, r0, lsl #2
   8:	01006962 	tsteq	r0, r2, ror #18
   c:	00000033 	andeq	r0, r0, r3, lsr r0
  10:	4d524105 	ldfmie	f4, [r2, #-20]	; 0xffffffec
  14:	36373131 			; <UNDEFINED> instruction: 0x36373131
  18:	2d465a4a 	vstrcs	s11, [r6, #-296]	; 0xfffffed8
  1c:	07060053 	smlsdeq	r6, r3, r0, r0
  20:	01090108 	tsteq	r9, r8, lsl #2
  24:	0412020a 	ldreq	r0, [r2], #-522	; 0xfffffdf6
  28:	01150114 	tsteq	r5, r4, lsl r1
  2c:	01180317 	tsteq	r8, r7, lsl r3
  30:	011a0119 	tsteq	sl, r9, lsl r1
  34:	011c031b 	tsteq	ip, fp, lsl r3
  38:	0122021e 	teqeq	r2, lr, lsl r2
  3c:	Address 0x000000000000003c is out of bounds.


bcm2835_wdog.o:     file format elf32-littlearm


Disassembly of section .text:

00000000 <watchdog_stop>:
   0:	e59f3008 	ldr	r3, [pc, #8]	; 10 <watchdog_stop+0x10>
   4:	e59f2008 	ldr	r2, [pc, #8]	; 14 <watchdog_stop+0x14>
   8:	e583201c 	str	r2, [r3, #28]
   c:	e12fff1e 	bx	lr
  10:	20100000 	andscs	r0, r0, r0
  14:	5a000102 	bpl	424 <watchdog_feed+0x3dc>

00000018 <watchdog_init>:
  18:	e59f2020 	ldr	r2, [pc, #32]	; 40 <watchdog_init+0x28>
  1c:	e59f3020 	ldr	r3, [pc, #32]	; 44 <watchdog_init+0x2c>
  20:	e5823024 	str	r3, [r2, #36]	; 0x24
  24:	e592301c 	ldr	r3, [r2, #28]
  28:	e3c3345a 	bic	r3, r3, #1509949440	; 0x5a000000
  2c:	e3c33030 	bic	r3, r3, #48	; 0x30
  30:	e383345a 	orr	r3, r3, #1509949440	; 0x5a000000
  34:	e3833020 	orr	r3, r3, #32
  38:	e582301c 	str	r3, [r2, #28]
  3c:	e12fff1e 	bx	lr
  40:	20100000 	andscs	r0, r0, r0
  44:	5a00ffff 	bpl	40048 <watchdog_feed+0x40000>

00000048 <watchdog_feed>:
  48:	e59f2020 	ldr	r2, [pc, #32]	; 70 <watchdog_feed+0x28>
  4c:	e59f3020 	ldr	r3, [pc, #32]	; 74 <watchdog_feed+0x2c>
  50:	e5823024 	str	r3, [r2, #36]	; 0x24
  54:	e592301c 	ldr	r3, [r2, #28]
  58:	e3c3345a 	bic	r3, r3, #1509949440	; 0x5a000000
  5c:	e3c33030 	bic	r3, r3, #48	; 0x30
  60:	e383345a 	orr	r3, r3, #1509949440	; 0x5a000000
  64:	e3833020 	orr	r3, r3, #32
  68:	e582301c 	str	r3, [r2, #28]
  6c:	e12fff1e 	bx	lr
  70:	20100000 	andscs	r0, r0, r0
  74:	5a00ffff 	bpl	40078 <watchdog_feed+0x40030>

Disassembly of section .comment:

00000000 <.comment>:
   0:	43434700 	movtmi	r4, #14080	; 0x3700
   4:	4728203a 			; <UNDEFINED> instruction: 0x4728203a
   8:	2029554e 	eorcs	r5, r9, lr, asr #10
   c:	2e392e34 	mrccs	14, 1, r2, cr9, cr4, {1}
  10:	Address 0x0000000000000010 is out of bounds.


Disassembly of section .ARM.attributes:

00000000 <.ARM.attributes>:
   0:	00003d41 	andeq	r3, r0, r1, asr #26
   4:	61656100 	cmnvs	r5, r0, lsl #2
   8:	01006962 	tsteq	r0, r2, ror #18
   c:	00000033 	andeq	r0, r0, r3, lsr r0
  10:	4d524105 	ldfmie	f4, [r2, #-20]	; 0xffffffec
  14:	36373131 			; <UNDEFINED> instruction: 0x36373131
  18:	2d465a4a 	vstrcs	s11, [r6, #-296]	; 0xfffffed8
  1c:	07060053 	smlsdeq	r6, r3, r0, r0
  20:	01090108 	tsteq	r9, r8, lsl #2
  24:	0412020a 	ldreq	r0, [r2], #-522	; 0xfffffdf6
  28:	01150114 	tsteq	r5, r4, lsl r1
  2c:	01180317 	tsteq	r8, r7, lsl r3
  30:	011a0119 	tsteq	sl, r9, lsl r1
  34:	011c031b 	tsteq	ip, fp, lsl r3
  38:	0122021e 	teqeq	r2, lr, lsl r2
  3c:	Address 0x000000000000003c is out of bounds.


bcm2835_gpio_fsel.o:     file format elf32-littlearm


Disassembly of section .text:

00000000 <bcm2835_gpio_fsel>:
   0:	e52de004 	push	{lr}		; (str lr, [sp, #-4]!)
   4:	e1a03000 	mov	r3, r0
   8:	e59f0034 	ldr	r0, [pc, #52]	; 44 <bcm2835_gpio_fsel+0x44>
   c:	e3530009 	cmp	r3, #9
  10:	8243300a 	subhi	r3, r3, #10
  14:	82800004 	addhi	r0, r0, #4
  18:	8afffffb 	bhi	c <bcm2835_gpio_fsel+0xc>
  1c:	e0833083 	add	r3, r3, r3, lsl #1
  20:	e3a02007 	mov	r2, #7
  24:	e1a02312 	lsl	r2, r2, r3
  28:	e1a01311 	lsl	r1, r1, r3
  2c:	e5903000 	ldr	r3, [r0]
  30:	e0021001 	and	r1, r2, r1
  34:	e1c33002 	bic	r3, r3, r2
  38:	e1833001 	orr	r3, r3, r1
  3c:	e5803000 	str	r3, [r0]
  40:	e49df004 	pop	{pc}		; (ldr pc, [sp], #4)
  44:	20200000 	eorcs	r0, r0, r0

Disassembly of section .ARM.attributes:

00000000 <.ARM.attributes>:
   0:	00002741 	andeq	r2, r0, r1, asr #14
   4:	61656100 	cmnvs	r5, r0, lsl #2
   8:	01006962 	tsteq	r0, r2, ror #18
   c:	0000001d 	andeq	r0, r0, sp, lsl r0
  10:	4d524105 	ldfmie	f4, [r2, #-20]	; 0xffffffec
  14:	36373131 			; <UNDEFINED> instruction: 0x36373131
  18:	2d465a4a 	vstrcs	s11, [r6, #-296]	; 0xfffffed8
  1c:	07060053 	smlsdeq	r6, r3, r0, r0
  20:	01090108 	tsteq	r9, r8, lsl #2
  24:	0144020a 	cmpeq	r4, sl, lsl #4

bcm2835_spi_write.o:     file format elf32-littlearm


Disassembly of section .text:

00000000 <bcm2835_spi_write>:
   0:	e59f304c 	ldr	r3, [pc, #76]	; 54 <cs_done+0x1c>
   4:	e5931000 	ldr	r1, [r3]
   8:	e3811030 	orr	r1, r1, #48	; 0x30
   c:	e5831000 	str	r1, [r3]
  10:	e5931000 	ldr	r1, [r3]
  14:	e3811080 	orr	r1, r1, #128	; 0x80
  18:	e5831000 	str	r1, [r3]

0000001c <cs_txd_loop>:
  1c:	e5931000 	ldr	r1, [r3]
  20:	e3110701 	tst	r1, #262144	; 0x40000
  24:	0afffffc 	beq	1c <cs_txd_loop>
  28:	e1a01420 	lsr	r1, r0, #8
  2c:	e6ef0070 	uxtb	r0, r0
  30:	e5831004 	str	r1, [r3, #4]
  34:	e5830004 	str	r0, [r3, #4]

00000038 <cs_done>:
  38:	e5931000 	ldr	r1, [r3]
  3c:	e3110801 	tst	r1, #65536	; 0x10000
  40:	0afffffc 	beq	38 <cs_done>
  44:	e5931000 	ldr	r1, [r3]
  48:	e3c11080 	bic	r1, r1, #128	; 0x80
  4c:	e5831000 	str	r1, [r3]
  50:	e12fff1e 	bx	lr
  54:	20204000 	eorcs	r4, r0, r0

Disassembly of section .ARM.attributes:

00000000 <.ARM.attributes>:
   0:	00002741 	andeq	r2, r0, r1, asr #14
   4:	61656100 	cmnvs	r5, r0, lsl #2
   8:	01006962 	tsteq	r0, r2, ror #18
   c:	0000001d 	andeq	r0, r0, sp, lsl r0
  10:	4d524105 	ldfmie	f4, [r2, #-20]	; 0xffffffec
  14:	36373131 			; <UNDEFINED> instruction: 0x36373131
  18:	2d465a4a 	vstrcs	s11, [r6, #-296]	; 0xfffffed8
  1c:	07060053 	smlsdeq	r6, r3, r0, r0
  20:	01090108 	tsteq	r9, r8, lsl #2
  24:	0144020a 	cmpeq	r4, sl, lsl #4

bcm2835_st_delay.o:     file format elf32-littlearm


Disassembly of section .text:

00000000 <bcm2835_st_delay>:
   0:	e92d4038 	push	{r3, r4, r5, lr}
   4:	e0924000 	adds	r4, r2, r0
   8:	e0a35001 	adc	r5, r3, r1
   c:	e59f2010 	ldr	r2, [pc, #16]	; 24 <bcm2835_st_delay+0x24>
  10:	e1c200d4 	ldrd	r0, [r2, #4]
  14:	e1510005 	cmp	r1, r5
  18:	01500004 	cmpeq	r0, r4
  1c:	3afffffb 	bcc	10 <bcm2835_st_delay+0x10>
  20:	e8bd8038 	pop	{r3, r4, r5, pc}
  24:	20003000 	andcs	r3, r0, r0

Disassembly of section .ARM.attributes:

00000000 <.ARM.attributes>:
   0:	00002741 	andeq	r2, r0, r1, asr #14
   4:	61656100 	cmnvs	r5, r0, lsl #2
   8:	01006962 	tsteq	r0, r2, ror #18
   c:	0000001d 	andeq	r0, r0, sp, lsl r0
  10:	4d524105 	ldfmie	f4, [r2, #-20]	; 0xffffffec
  14:	36373131 			; <UNDEFINED> instruction: 0x36373131
  18:	2d465a4a 	vstrcs	s11, [r6, #-296]	; 0xfffffed8
  1c:	07060053 	smlsdeq	r6, r3, r0, r0
  20:	01090108 	tsteq	r9, r8, lsl #2
  24:	0144020a 	cmpeq	r4, sl, lsl #4

bcm2835_udelay.o:     file format elf32-littlearm


Disassembly of section .text:

00000000 <udelay>:
   0:	e92d4030 	push	{r4, r5, lr}
   4:	e1a05000 	mov	r5, r0
   8:	e59f4014 	ldr	r4, [pc, #20]	; 24 <udelay+0x24>
   c:	e1c420d4 	ldrd	r2, [r4, #4]
  10:	e1c400d4 	ldrd	r0, [r4, #4]
  14:	e0401002 	sub	r1, r0, r2
  18:	e1510005 	cmp	r1, r5
  1c:	9afffffb 	bls	10 <udelay+0x10>
  20:	e8bd8030 	pop	{r4, r5, pc}
  24:	20003000 	andcs	r3, r0, r0

Disassembly of section .ARM.attributes:

00000000 <.ARM.attributes>:
   0:	00002741 	andeq	r2, r0, r1, asr #14
   4:	61656100 	cmnvs	r5, r0, lsl #2
   8:	01006962 	tsteq	r0, r2, ror #18
   c:	0000001d 	andeq	r0, r0, sp, lsl r0
  10:	4d524105 	ldfmie	f4, [r2, #-20]	; 0xffffffec
  14:	36373131 			; <UNDEFINED> instruction: 0x36373131
  18:	2d465a4a 	vstrcs	s11, [r6, #-296]	; 0xfffffed8
  1c:	07060053 	smlsdeq	r6, r3, r0, r0
  20:	01090108 	tsteq	r9, r8, lsl #2
  24:	0144020a 	cmpeq	r4, sl, lsl #4
